	.cpu cortex-m7
	.arch armv7e-m
	.fpu fpv5-d16
	.eabi_attribute 28, 1
	.eabi_attribute 20, 1
	.eabi_attribute 21, 1
	.eabi_attribute 23, 3
	.eabi_attribute 24, 1
	.eabi_attribute 25, 1
	.eabi_attribute 26, 1
	.eabi_attribute 30, 1
	.eabi_attribute 34, 1
	.eabi_attribute 18, 4
	.file	"tlsf.c"
	.text
.Ltext0:
	.cfi_sections	.debug_frame
	.file 1 "D:/RTOS/Board/YD-STM32H7xxVx_ClassicV19/cmake-build-debug/_deps/tlsf-src-src/src/tlsf.c"
	.section	.text.ls_bit,"ax",%progbits
	.align	1
	.syntax unified
	.thumb
	.thumb_func
	.type	ls_bit, %function
ls_bit:
.LFB3:
	.loc 1 283 1
	.cfi_startproc
	@ args = 0, pretend = 0, frame = 0
	@ frame_needed = 0, uses_anonymous_args = 0
	@ link register save eliminated.
.LVL0:
	.loc 1 284 5
	.loc 1 285 5
	.loc 1 285 26 is_stmt 0
	rsbs	r3, r0, #0
	.loc 1 285 24
	ands	r3, r3, r0
.LVL1:
	.loc 1 287 5 is_stmt 1
	.loc 1 287 43 is_stmt 0
	cmp	r3, #65536
	bcs	.L2
	.loc 1 287 43 discriminator 1
	cmp	r3, #255
	bhi	.L4
	.loc 1 287 43
	movs	r2, #0
.L3:
.LVL2:
	.loc 1 288 5 is_stmt 1 discriminator 12
	.loc 1 288 20 is_stmt 0 discriminator 12
	lsrs	r3, r3, r2
.LVL3:
	.loc 1 288 17 discriminator 12
	ldr	r1, .L6
	ldr	r0, [r1, r3, lsl #2]
.LVL4:
	.loc 1 289 1 discriminator 12
	add	r0, r0, r2
	bx	lr
.LVL5:
.L2:
	.loc 1 287 43 discriminator 2
	cmp	r3, #16777216
	bcs	.L5
	.loc 1 287 43
	movs	r2, #16
	b	.L3
.L4:
	movs	r2, #8
	b	.L3
.L5:
	movs	r2, #24
	b	.L3
.L7:
	.align	2
.L6:
	.word	table
	.cfi_endproc
.LFE3:
	.size	ls_bit, .-ls_bit
	.section	.text.ms_bit,"ax",%progbits
	.align	1
	.syntax unified
	.thumb
	.thumb_func
	.type	ms_bit, %function
ms_bit:
.LFB4:
	.loc 1 292 1 is_stmt 1
	.cfi_startproc
	@ args = 0, pretend = 0, frame = 0
	@ frame_needed = 0, uses_anonymous_args = 0
	@ link register save eliminated.
.LVL6:
	.loc 1 293 5
	.loc 1 294 5
	.loc 1 296 5
	.loc 1 296 43 is_stmt 0
	cmp	r0, #65536
	bcs	.L9
	.loc 1 296 43 discriminator 1
	cmp	r0, #255
	bhi	.L11
	.loc 1 296 43
	movs	r3, #0
.L10:
.LVL7:
	.loc 1 297 5 is_stmt 1 discriminator 12
	.loc 1 297 20 is_stmt 0 discriminator 12
	lsrs	r0, r0, r3
.LVL8:
	.loc 1 297 17 discriminator 12
	ldr	r2, .L13
	ldr	r0, [r2, r0, lsl #2]
	.loc 1 298 1 discriminator 12
	add	r0, r0, r3
	bx	lr
.LVL9:
.L9:
	.loc 1 296 43 discriminator 2
	cmp	r0, #16777216
	bcs	.L12
	.loc 1 296 43
	movs	r3, #16
	b	.L10
.L11:
	movs	r3, #8
	b	.L10
.L12:
	movs	r3, #24
	b	.L10
.L14:
	.align	2
.L13:
	.word	table
	.cfi_endproc
.LFE4:
	.size	ms_bit, .-ms_bit
	.section	.text.MAPPING_SEARCH,"ax",%progbits
	.align	1
	.syntax unified
	.thumb
	.thumb_func
	.type	MAPPING_SEARCH, %function
MAPPING_SEARCH:
.LFB7:
	.loc 1 311 1 is_stmt 1
	.cfi_startproc
	@ args = 0, pretend = 0, frame = 0
	@ frame_needed = 0, uses_anonymous_args = 0
.LVL10:
	push	{r4, r5, r6, r7, r8, lr}
	.cfi_def_cfa_offset 24
	.cfi_offset 4, -24
	.cfi_offset 5, -20
	.cfi_offset 6, -16
	.cfi_offset 7, -12
	.cfi_offset 8, -8
	.cfi_offset 14, -4
	mov	r4, r0
	mov	r5, r1
	mov	r6, r2
	.loc 1 312 5
	.loc 1 314 5
	.loc 1 314 9 is_stmt 0
	ldr	r8, [r0]
	.loc 1 314 8
	cmp	r8, #127
	bhi	.L16
	.loc 1 315 9 is_stmt 1
	.loc 1 315 14 is_stmt 0
	movs	r3, #0
	str	r3, [r1]
	.loc 1 316 9 is_stmt 1
	.loc 1 316 16 is_stmt 0
	ldr	r3, [r0]
	.loc 1 316 20
	lsrs	r3, r3, #2
	.loc 1 316 14
	str	r3, [r2]
.LVL11:
.L15:
	.loc 1 328 1
	pop	{r4, r5, r6, r7, r8, pc}
.LVL12:
.L16:
	.loc 1 318 9 is_stmt 1
	.loc 1 318 21 is_stmt 0
	mov	r0, r8
.LVL13:
	bl	ms_bit
.LVL14:
	.loc 1 318 33
	subs	r0, r0, #5
	.loc 1 318 17
	movs	r7, #1
	lsls	r7, r7, r0
	.loc 1 318 12
	subs	r0, r7, #1
.LVL15:
	.loc 1 319 9 is_stmt 1
	.loc 1 319 19 is_stmt 0
	add	r0, r0, r8
.LVL16:
	.loc 1 319 13
	str	r0, [r4]
	.loc 1 320 9 is_stmt 1
	.loc 1 320 16 is_stmt 0
	bl	ms_bit
.LVL17:
	.loc 1 320 14
	str	r0, [r5]
	.loc 1 321 9 is_stmt 1
	.loc 1 321 17 is_stmt 0
	ldr	r3, [r4]
	.loc 1 321 30
	subs	r0, r0, #5
	.loc 1 321 21
	lsrs	r3, r3, r0
	.loc 1 321 38
	subs	r3, r3, #32
	.loc 1 321 14
	str	r3, [r6]
	.loc 1 322 9 is_stmt 1
	ldr	r3, [r5]
	.loc 1 322 14 is_stmt 0
	subs	r3, r3, #6
	str	r3, [r5]
	.loc 1 326 9 is_stmt 1
	ldr	r3, [r4]
	.loc 1 326 16 is_stmt 0
	rsbs	r7, r7, #0
.LVL18:
	.loc 1 326 13
	ands	r3, r3, r7
	str	r3, [r4]
	.loc 1 328 1
	b	.L15
	.cfi_endproc
.LFE7:
	.size	MAPPING_SEARCH, .-MAPPING_SEARCH
	.section	.text.MAPPING_INSERT,"ax",%progbits
	.align	1
	.syntax unified
	.thumb
	.thumb_func
	.type	MAPPING_INSERT, %function
MAPPING_INSERT:
.LFB8:
	.loc 1 331 1 is_stmt 1
	.cfi_startproc
	@ args = 0, pretend = 0, frame = 0
	@ frame_needed = 0, uses_anonymous_args = 0
.LVL19:
	push	{r4, r5, r6, lr}
	.cfi_def_cfa_offset 16
	.cfi_offset 4, -16
	.cfi_offset 5, -12
	.cfi_offset 6, -8
	.cfi_offset 14, -4
	mov	r4, r0
	mov	r5, r1
	mov	r6, r2
	.loc 1 332 5
	.loc 1 332 8 is_stmt 0
	cmp	r0, #127
	bhi	.L20
	.loc 1 333 9 is_stmt 1
	.loc 1 333 14 is_stmt 0
	movs	r3, #0
	str	r3, [r1]
	.loc 1 334 9 is_stmt 1
	.loc 1 334 19 is_stmt 0
	lsrs	r4, r0, #2
	.loc 1 334 14
	str	r4, [r2]
.LVL20:
.L19:
	.loc 1 340 1
	pop	{r4, r5, r6, pc}
.LVL21:
.L20:
	.loc 1 336 9 is_stmt 1
	.loc 1 336 16 is_stmt 0
	bl	ms_bit
.LVL22:
	.loc 1 336 14
	str	r0, [r5]
	.loc 1 337 9 is_stmt 1
	.loc 1 337 29 is_stmt 0
	subs	r0, r0, #5
	.loc 1 337 20
	lsrs	r4, r4, r0
.LVL23:
	.loc 1 337 37
	subs	r4, r4, #32
	.loc 1 337 14
	str	r4, [r6]
	.loc 1 338 9 is_stmt 1
	ldr	r3, [r5]
	.loc 1 338 14 is_stmt 0
	subs	r3, r3, #6
	str	r3, [r5]
	.loc 1 340 1
	b	.L19
	.cfi_endproc
.LFE8:
	.size	MAPPING_INSERT, .-MAPPING_INSERT
	.section	.text.FIND_SUITABLE_BLOCK,"ax",%progbits
	.align	1
	.syntax unified
	.thumb
	.thumb_func
	.type	FIND_SUITABLE_BLOCK, %function
FIND_SUITABLE_BLOCK:
.LFB9:
	.loc 1 344 1 is_stmt 1
	.cfi_startproc
	@ args = 0, pretend = 0, frame = 0
	@ frame_needed = 0, uses_anonymous_args = 0
.LVL24:
	push	{r4, r5, r6, lr}
	.cfi_def_cfa_offset 16
	.cfi_offset 4, -16
	.cfi_offset 5, -12
	.cfi_offset 6, -8
	.cfi_offset 14, -4
	mov	r4, r0
	mov	r5, r1
	mov	r6, r2
	.loc 1 345 5
	.loc 1 345 35 is_stmt 0
	ldr	r2, [r1]
.LVL25:
	.loc 1 345 34
	adds	r3, r2, #2
	add	r3, r0, r3, lsl #2
	ldr	r0, [r3, #4]
.LVL26:
	.loc 1 345 50
	ldr	r1, [r6]
.LVL27:
	.loc 1 345 47
	mov	r3, #-1
	lsls	r3, r3, r1
.LVL28:
	.loc 1 346 5 is_stmt 1
	.loc 1 348 5
	.loc 1 348 8 is_stmt 0
	ands	r0, r0, r3
.LVL29:
	beq	.L24
	.loc 1 349 9 is_stmt 1
	.loc 1 349 16 is_stmt 0
	bl	ls_bit
.LVL30:
	.loc 1 349 14
	str	r0, [r6]
	.loc 1 350 9 is_stmt 1
	.loc 1 350 28 is_stmt 0
	ldr	r3, [r5]
	.loc 1 350 12
	add	r0, r0, r3, lsl #5
	adds	r0, r0, #26
	add	r0, r4, r0, lsl #2
	ldr	r0, [r0, #4]
.LVL31:
.L23:
	.loc 1 359 1
	pop	{r4, r5, r6, pc}
.LVL32:
.L24:
	.loc 1 352 9 is_stmt 1
	.loc 1 352 28 is_stmt 0
	ldr	r0, [r4, #8]
.LVL33:
	.loc 1 352 55
	adds	r2, r2, #1
.LVL34:
	.loc 1 352 46
	mov	r3, #-1
.LVL35:
	lsls	r3, r3, r2
.LVL36:
	.loc 1 352 16
	ands	r0, r0, r3
	bl	ls_bit
.LVL37:
	.loc 1 352 14
	str	r0, [r5]
	.loc 1 353 9 is_stmt 1
	.loc 1 353 12 is_stmt 0
	cmp	r0, #0
	ble	.L26
	.loc 1 354 13 is_stmt 1
	.loc 1 354 43 is_stmt 0
	adds	r0, r0, #2
	add	r0, r4, r0, lsl #2
	.loc 1 354 20
	ldr	r0, [r0, #4]
	bl	ls_bit
.LVL38:
	.loc 1 354 18
	str	r0, [r6]
	.loc 1 355 13 is_stmt 1
	.loc 1 355 32 is_stmt 0
	ldr	r3, [r5]
	.loc 1 355 16
	add	r0, r0, r3, lsl #5
	adds	r0, r0, #26
	add	r4, r4, r0, lsl #2
.LVL39:
	ldr	r0, [r4, #4]
.LVL40:
	b	.L23
.LVL41:
.L26:
	.loc 1 346 13
	movs	r0, #0
	.loc 1 358 5 is_stmt 1
	.loc 1 358 12 is_stmt 0
	b	.L23
	.cfi_endproc
.LFE9:
	.size	FIND_SUITABLE_BLOCK, .-FIND_SUITABLE_BLOCK
	.section	.text.process_area,"ax",%progbits
	.align	1
	.syntax unified
	.thumb
	.thumb_func
	.type	process_area, %function
process_area:
.LFB10:
	.loc 1 430 1 is_stmt 1
	.cfi_startproc
	@ args = 0, pretend = 0, frame = 0
	@ frame_needed = 0, uses_anonymous_args = 0
	@ link register save eliminated.
.LVL42:
	push	{r4, r5, r6}
	.cfi_def_cfa_offset 12
	.cfi_offset 4, -12
	.cfi_offset 5, -8
	.cfi_offset 6, -4
	.loc 1 431 5
	.loc 1 432 5
	.loc 1 434 5
.LVL43:
	.loc 1 435 5
	.loc 1 435 14 is_stmt 0
	movs	r2, #8
	str	r2, [r0, #4]
	.loc 1 438 5 is_stmt 1
	.loc 1 438 7 is_stmt 0
	add	r4, r0, #16
.LVL44:
	.loc 1 439 5 is_stmt 1
	.loc 1 439 70 is_stmt 0
	subs	r1, r1, #32
.LVL45:
	.loc 1 439 163
	bic	r1, r1, #7
.LVL46:
	.loc 1 439 13
	str	r1, [r0, #20]
	.loc 1 440 5 is_stmt 1
	.loc 1 440 49 is_stmt 0
	movs	r5, #0
	str	r5, [r0, #28]
	.loc 1 440 26
	mov	r2, r4
	str	r5, [r2, #8]!
	.loc 1 441 5 is_stmt 1
	.loc 1 441 8 is_stmt 0
	adds	r6, r2, r1
.LVL47:
	.loc 1 442 5 is_stmt 1
	.loc 1 442 18 is_stmt 0
	str	r4, [r2, r1]
	.loc 1 443 5 is_stmt 1
	.loc 1 443 14 is_stmt 0
	movs	r2, #2
	str	r2, [r6, #4]
	.loc 1 444 5 is_stmt 1
.LVL48:
	.loc 1 445 5
	.loc 1 445 14 is_stmt 0
	str	r5, [r0, #12]
	.loc 1 446 5 is_stmt 1
	.loc 1 446 13 is_stmt 0
	str	r6, [r0, #8]
	.loc 1 447 5 is_stmt 1
	.loc 1 448 1 is_stmt 0
	pop	{r4, r5, r6}
	.cfi_restore 6
	.cfi_restore 5
	.cfi_restore 4
	.cfi_def_cfa_offset 0
.LVL49:
	bx	lr
	.cfi_endproc
.LFE10:
	.size	process_area, .-process_area
	.section	.text.get_used_size,"ax",%progbits
	.align	1
	.global	get_used_size
	.syntax unified
	.thumb
	.thumb_func
	.type	get_used_size, %function
get_used_size:
.LFB13:
	.loc 1 584 1 is_stmt 1
	.cfi_startproc
	@ args = 0, pretend = 0, frame = 0
	@ frame_needed = 0, uses_anonymous_args = 0
	@ link register save eliminated.
.LVL50:
	.loc 1 589 5
	.loc 1 591 1 is_stmt 0
	movs	r0, #0
.LVL51:
	bx	lr
	.cfi_endproc
.LFE13:
	.size	get_used_size, .-get_used_size
	.section	.text.get_max_size,"ax",%progbits
	.align	1
	.global	get_max_size
	.syntax unified
	.thumb
	.thumb_func
	.type	get_max_size, %function
get_max_size:
.LFB14:
	.loc 1 595 1 is_stmt 1
	.cfi_startproc
	@ args = 0, pretend = 0, frame = 0
	@ frame_needed = 0, uses_anonymous_args = 0
	@ link register save eliminated.
.LVL52:
	.loc 1 600 5
	.loc 1 602 1 is_stmt 0
	movs	r0, #0
.LVL53:
	bx	lr
	.cfi_endproc
.LFE14:
	.size	get_max_size, .-get_max_size
	.section	.text.destroy_memory_pool,"ax",%progbits
	.align	1
	.global	destroy_memory_pool
	.syntax unified
	.thumb
	.thumb_func
	.type	destroy_memory_pool, %function
destroy_memory_pool:
.LFB15:
	.loc 1 606 1 is_stmt 1
	.cfi_startproc
	@ args = 0, pretend = 0, frame = 0
	@ frame_needed = 0, uses_anonymous_args = 0
	@ link register save eliminated.
.LVL54:
	.loc 1 608 5
	.loc 1 610 5
	.loc 1 610 26 is_stmt 0
	movs	r3, #0
	str	r3, [r0]
	.loc 1 612 5 is_stmt 1
	.loc 1 612 8
	.loc 1 612 7
	.loc 1 614 1 is_stmt 0
	bx	lr
	.cfi_endproc
.LFE15:
	.size	destroy_memory_pool, .-destroy_memory_pool
	.section	.text.malloc_ex,"ax",%progbits
	.align	1
	.global	malloc_ex
	.syntax unified
	.thumb
	.thumb_func
	.type	malloc_ex, %function
malloc_ex:
.LFB20:
	.loc 1 697 1 is_stmt 1
	.cfi_startproc
	@ args = 0, pretend = 0, frame = 16
	@ frame_needed = 0, uses_anonymous_args = 0
.LVL55:
	push	{r4, r5, r6, r7, lr}
	.cfi_def_cfa_offset 20
	.cfi_offset 4, -20
	.cfi_offset 5, -16
	.cfi_offset 6, -12
	.cfi_offset 7, -8
	.cfi_offset 14, -4
	sub	sp, sp, #20
	.cfi_def_cfa_offset 40
	str	r0, [sp, #4]
	mov	r4, r1
	.loc 1 699 5
.LVL56:
	.loc 1 700 5
	.loc 1 701 5
	.loc 1 702 5
	.loc 1 704 5
	.loc 1 704 67 is_stmt 0
	cmp	r0, #7
	bls	.L40
	.loc 1 704 78 discriminator 1
	adds	r0, r0, #7
.LVL57:
	.loc 1 704 67 discriminator 1
	bic	r0, r0, #7
	b	.L34
.LVL58:
.L40:
	.loc 1 704 67
	movs	r0, #8
.LVL59:
.L34:
	.loc 1 704 10 discriminator 4
	str	r0, [sp, #4]
.LVL60:
	.loc 1 707 5 is_stmt 1 discriminator 4
	add	r2, sp, #8
	add	r1, sp, #12
.LVL61:
	add	r0, sp, #4
	bl	MAPPING_SEARCH
.LVL62:
	.loc 1 711 5 discriminator 4
	.loc 1 711 9 is_stmt 0 discriminator 4
	add	r2, sp, #8
	add	r1, sp, #12
	mov	r0, r4
	bl	FIND_SUITABLE_BLOCK
.LVL63:
	.loc 1 729 5 is_stmt 1 discriminator 4
	.loc 1 729 8 is_stmt 0 discriminator 4
	mov	r5, r0
	cmp	r0, #0
	beq	.L41
	.loc 1 732 5 is_stmt 1
	.loc 1 732 10
	.loc 1 732 30 is_stmt 0
	ldr	r2, [sp, #12]
	ldr	r0, [sp, #8]
.LVL64:
	.loc 1 732 54
	ldr	r1, [r5, #12]
	.loc 1 732 35
	add	r3, r0, r2, lsl #5
	adds	r3, r3, #26
	add	r3, r4, r3, lsl #2
	str	r1, [r3, #4]
	.loc 1 732 61 is_stmt 1
	.loc 1 732 64 is_stmt 0
	cbz	r1, .L36
	.loc 1 732 89 is_stmt 1 discriminator 1
	.loc 1 732 133 is_stmt 0 discriminator 1
	movs	r3, #0
	str	r3, [r1, #8]
.L37:
	.loc 1 732 121 is_stmt 1 discriminator 6
	.loc 1 732 144 is_stmt 0 discriminator 6
	movs	r3, #0
	str	r3, [r5, #8]
	.loc 1 732 6 is_stmt 1 discriminator 6
	.loc 1 732 29 is_stmt 0 discriminator 6
	str	r3, [r5, #12]
	.loc 1 732 8 is_stmt 1 discriminator 6
	.loc 1 735 5 discriminator 6
	.loc 1 735 36 is_stmt 0 discriminator 6
	add	r6, r5, #8
	.loc 1 735 56 discriminator 6
	ldr	r3, [r5, #4]
	.loc 1 735 63 discriminator 6
	bic	r3, r3, #3
	.loc 1 735 12 discriminator 6
	adds	r2, r6, r3
.LVL65:
	.loc 1 737 5 is_stmt 1 discriminator 6
	.loc 1 737 64 is_stmt 0 discriminator 6
	ldr	r7, [sp, #4]
	.loc 1 737 14 discriminator 6
	subs	r0, r3, r7
.LVL66:
	.loc 1 738 5 is_stmt 1 discriminator 6
	.loc 1 738 8 is_stmt 0 discriminator 6
	cmp	r0, #15
	bhi	.L43
	.loc 1 748 9 is_stmt 1
	.loc 1 748 15 is_stmt 0
	ldr	r3, [r2, #4]
	.loc 1 748 22
	bic	r3, r3, #2
	str	r3, [r2, #4]
	.loc 1 749 9 is_stmt 1
	.loc 1 749 10 is_stmt 0
	ldr	r3, [r5, #4]
	.loc 1 749 17
	bic	r3, r3, #1
	str	r3, [r5, #4]
.LVL67:
.L33:
	.loc 1 755 1
	mov	r0, r6
	add	sp, sp, #20
	.cfi_remember_state
	.cfi_def_cfa_offset 20
	@ sp needed
	pop	{r4, r5, r6, r7, pc}
.LVL68:
.L36:
	.cfi_restore_state
	.loc 1 732 13 is_stmt 1 discriminator 2
	adds	r2, r2, #2
	add	r2, r4, r2, lsl #2
	adds	r2, r2, #4
.LVL69:
.LBB38:
.LBB39:
	.loc 1 307 5 discriminator 2
	.loc 1 307 9 is_stmt 0 discriminator 2
	asrs	r6, r0, #5
	ldr	r3, [r2, r6, lsl #2]
	.loc 1 307 33 discriminator 2
	and	r0, r0, #31
.LVL70:
	.loc 1 307 26 discriminator 2
	movs	r1, #1
	lsls	r1, r1, r0
	.loc 1 307 19 discriminator 2
	bic	r3, r3, r1
	str	r3, [r2, r6, lsl #2]
.LVL71:
.LBE39:
.LBE38:
	.loc 1 732 54 is_stmt 1 discriminator 2
	.loc 1 732 77 is_stmt 0 discriminator 2
	ldr	r2, [sp, #12]
	adds	r3, r2, #2
	add	r3, r4, r3, lsl #2
	ldr	r3, [r3, #4]
	.loc 1 732 57 discriminator 2
	cmp	r3, #0
	bne	.L37
	.loc 1 732 83 is_stmt 1 discriminator 4
	add	r0, r4, #8
.LVL72:
.LBB40:
.LBB41:
	.loc 1 307 5 discriminator 4
	.loc 1 307 9 is_stmt 0 discriminator 4
	asrs	r6, r2, #5
	ldr	r3, [r0, r6, lsl #2]
	.loc 1 307 33 discriminator 4
	and	r2, r2, #31
.LVL73:
	.loc 1 307 26 discriminator 4
	movs	r1, #1
	lsl	r2, r1, r2
	.loc 1 307 19 discriminator 4
	bic	r3, r3, r2
	str	r3, [r0, r6, lsl #2]
.LVL74:
	.loc 1 308 1 discriminator 4
	b	.L37
.LVL75:
.L43:
.LBE41:
.LBE40:
	.loc 1 739 9 is_stmt 1
	.loc 1 739 18 is_stmt 0
	subs	r0, r0, #8
.LVL76:
	.loc 1 740 9 is_stmt 1
	.loc 1 740 12 is_stmt 0
	add	r7, r7, r6
.LVL77:
	.loc 1 741 9 is_stmt 1
	.loc 1 741 37 is_stmt 0
	orr	r2, r0, #1
.LVL78:
	.loc 1 741 18
	str	r2, [r7, #4]
	.loc 1 742 9 is_stmt 1
	.loc 1 742 26 is_stmt 0
	str	r7, [r6, r3]
	.loc 1 743 9 is_stmt 1
	add	r2, sp, #8
	add	r1, sp, #12
	bl	MAPPING_INSERT
.LVL79:
	.loc 1 744 9
	.loc 1 744 14
	.loc 1 744 38 is_stmt 0
	movs	r3, #0
	str	r3, [r7, #8]
	.loc 1 744 10 is_stmt 1
	.loc 1 744 55 is_stmt 0
	ldr	r3, [sp, #12]
	ldr	r2, [sp, #8]
	add	r1, r2, r3, lsl #5
	adds	r1, r1, #26
	add	r1, r4, r1, lsl #2
	ldr	r1, [r1, #4]
	.loc 1 744 34
	str	r1, [r7, #12]
	.loc 1 744 61 is_stmt 1
	.loc 1 744 64 is_stmt 0
	cbz	r1, .L39
	.loc 1 744 90 is_stmt 1 discriminator 1
	.loc 1 744 135 is_stmt 0 discriminator 1
	str	r7, [r1, #8]
.L39:
	.loc 1 744 141 is_stmt 1 discriminator 3
	.loc 1 744 165 is_stmt 0 discriminator 3
	add	r1, r2, r3, lsl #5
	adds	r1, r1, #26
	add	r1, r4, r1, lsl #2
	str	r7, [r1, #4]
	.loc 1 744 171 is_stmt 1 discriminator 3
	adds	r3, r3, #2
	add	r3, r4, r3, lsl #2
	adds	r3, r3, #4
.LVL80:
.LBB42:
.LBB43:
	.loc 1 302 5 discriminator 3
	.loc 1 302 9 is_stmt 0 discriminator 3
	asrs	r7, r2, #5
.LVL81:
	ldr	r1, [r3, r7, lsl #2]
.LVL82:
	.loc 1 302 31 discriminator 3
	and	r2, r2, #31
.LVL83:
	.loc 1 302 24 discriminator 3
	movs	r0, #1
	lsl	r2, r0, r2
	.loc 1 302 19 discriminator 3
	orrs	r1, r1, r2
	str	r1, [r3, r7, lsl #2]
.LVL84:
.LBE43:
.LBE42:
	.loc 1 744 210 is_stmt 1 discriminator 3
	ldr	r3, [sp, #12]
	adds	r4, r4, #8
.LVL85:
.LBB44:
.LBB45:
	.loc 1 302 5 discriminator 3
	.loc 1 302 9 is_stmt 0 discriminator 3
	asrs	r1, r3, #5
	ldr	r2, [r4, r1, lsl #2]
	.loc 1 302 31 discriminator 3
	and	r3, r3, #31
.LVL86:
	.loc 1 302 24 discriminator 3
	lsls	r0, r0, r3
	.loc 1 302 19 discriminator 3
	orrs	r2, r2, r0
	str	r2, [r4, r1, lsl #2]
.LVL87:
.LBE45:
.LBE44:
	.loc 1 744 12 is_stmt 1 discriminator 3
	.loc 1 746 9 discriminator 3
	.loc 1 746 28 is_stmt 0 discriminator 3
	ldr	r3, [r5, #4]
	.loc 1 746 35 discriminator 3
	and	r3, r3, #2
	.loc 1 746 24 discriminator 3
	ldr	r2, [sp, #4]
	orrs	r3, r3, r2
	.loc 1 746 17 discriminator 3
	str	r3, [r5, #4]
	b	.L33
.LVL88:
.L41:
	.loc 1 730 15
	mov	r6, r0
	b	.L33
	.cfi_endproc
.LFE20:
	.size	malloc_ex, .-malloc_ex
	.section	.text.tlsf_malloc,"ax",%progbits
	.align	1
	.global	tlsf_malloc
	.syntax unified
	.thumb
	.thumb_func
	.type	tlsf_malloc, %function
tlsf_malloc:
.LFB16:
	.loc 1 619 1 is_stmt 1
	.cfi_startproc
	@ args = 0, pretend = 0, frame = 0
	@ frame_needed = 0, uses_anonymous_args = 0
.LVL89:
	push	{r3, lr}
	.cfi_def_cfa_offset 8
	.cfi_offset 3, -8
	.cfi_offset 14, -4
	.loc 1 621 5
	.loc 1 637 5
	.loc 1 637 8
	.loc 1 637 7
	.loc 1 639 5
	.loc 1 639 11 is_stmt 0
	ldr	r3, .L46
	ldr	r1, [r3]
	bl	malloc_ex
.LVL90:
	.loc 1 641 5 is_stmt 1
	.loc 1 641 8
	.loc 1 641 7
	.loc 1 643 5
	.loc 1 644 1 is_stmt 0
	pop	{r3, pc}
.L47:
	.align	2
.L46:
	.word	mp
	.cfi_endproc
.LFE16:
	.size	tlsf_malloc, .-tlsf_malloc
	.section	.text.free_ex,"ax",%progbits
	.align	1
	.global	free_ex
	.syntax unified
	.thumb
	.thumb_func
	.type	free_ex, %function
free_ex:
.LFB21:
	.loc 1 759 1 is_stmt 1
	.cfi_startproc
	@ args = 0, pretend = 0, frame = 8
	@ frame_needed = 0, uses_anonymous_args = 0
.LVL91:
	push	{r4, r5, r6, r7, lr}
	.cfi_def_cfa_offset 20
	.cfi_offset 4, -20
	.cfi_offset 5, -16
	.cfi_offset 6, -12
	.cfi_offset 7, -8
	.cfi_offset 14, -4
	sub	sp, sp, #12
	.cfi_def_cfa_offset 32
	.loc 1 761 5
.LVL92:
	.loc 1 762 5
	.loc 1 763 5
	.loc 1 763 9 is_stmt 0
	movs	r3, #0
	str	r3, [sp, #4]
	.loc 1 763 17
	str	r3, [sp]
	.loc 1 765 5 is_stmt 1
	.loc 1 765 8 is_stmt 0
	cmp	r0, #0
	beq	.L48
	mov	r5, r1
	mov	r6, r0
	.loc 1 768 5 is_stmt 1
	.loc 1 768 7 is_stmt 0
	sub	r4, r0, #8
.LVL93:
	.loc 1 769 5 is_stmt 1
	.loc 1 769 6 is_stmt 0
	ldr	r7, [r0, #-4]
	.loc 1 769 13
	orr	r3, r7, #1
	str	r3, [r0, #-4]
	.loc 1 771 5 is_stmt 1
	.loc 1 771 8
	.loc 1 771 7
	.loc 1 773 5
	.loc 1 773 26 is_stmt 0
	movs	r3, #0
	str	r3, [r0]
	.loc 1 774 5 is_stmt 1
	.loc 1 774 26 is_stmt 0
	str	r3, [r0, #4]
	.loc 1 775 5 is_stmt 1
	.loc 1 775 11 is_stmt 0
	bic	r7, r7, #3
	add	r7, r7, r0
.LVL94:
	.loc 1 776 5 is_stmt 1
	.loc 1 776 14 is_stmt 0
	ldr	r0, [r7, #4]
.LVL95:
	.loc 1 776 8
	tst	r0, #1
	bne	.L61
.LVL96:
.L51:
	.loc 1 781 5 is_stmt 1
	.loc 1 781 10 is_stmt 0
	ldr	r3, [r6, #-4]
	.loc 1 781 8
	tst	r3, #2
	bne	.L62
.LVL97:
.L55:
	.loc 1 788 5 is_stmt 1
	.loc 1 788 21 is_stmt 0
	ldr	r0, [r4, #4]
	.loc 1 788 5
	mov	r2, sp
	add	r1, sp, #4
	bic	r0, r0, #3
	bl	MAPPING_INSERT
.LVL98:
	.loc 1 789 5 is_stmt 1
	.loc 1 789 10
	.loc 1 789 33 is_stmt 0
	movs	r3, #0
	str	r3, [r4, #8]
	.loc 1 789 6 is_stmt 1
	.loc 1 789 50 is_stmt 0
	ldr	r3, [sp, #4]
	ldr	r2, [sp]
	add	r1, r2, r3, lsl #5
	adds	r1, r1, #26
	add	r1, r5, r1, lsl #2
	ldr	r1, [r1, #4]
	.loc 1 789 29
	str	r1, [r4, #12]
	.loc 1 789 56 is_stmt 1
	.loc 1 789 59 is_stmt 0
	cbz	r1, .L59
	.loc 1 789 85 is_stmt 1 discriminator 1
	.loc 1 789 130 is_stmt 0 discriminator 1
	str	r4, [r1, #8]
.L59:
	.loc 1 789 135 is_stmt 1 discriminator 3
	.loc 1 789 159 is_stmt 0 discriminator 3
	add	r1, r2, r3, lsl #5
	adds	r1, r1, #26
	add	r1, r5, r1, lsl #2
	str	r4, [r1, #4]
	.loc 1 789 164 is_stmt 1 discriminator 3
	adds	r3, r3, #2
	add	r3, r5, r3, lsl #2
	adds	r3, r3, #4
.LVL99:
.LBB46:
.LBB47:
	.loc 1 302 5 discriminator 3
	.loc 1 302 9 is_stmt 0 discriminator 3
	asrs	r6, r2, #5
.LVL100:
	ldr	r0, [r3, r6, lsl #2]
	.loc 1 302 31 discriminator 3
	and	r2, r2, #31
.LVL101:
	.loc 1 302 24 discriminator 3
	movs	r1, #1
	lsl	r2, r1, r2
	.loc 1 302 19 discriminator 3
	orrs	r0, r0, r2
	str	r0, [r3, r6, lsl #2]
.LVL102:
.LBE47:
.LBE46:
	.loc 1 789 203 is_stmt 1 discriminator 3
	ldr	r3, [sp, #4]
	adds	r5, r5, #8
.LVL103:
.LBB48:
.LBB49:
	.loc 1 302 5 discriminator 3
	.loc 1 302 9 is_stmt 0 discriminator 3
	asrs	r0, r3, #5
	ldr	r2, [r5, r0, lsl #2]
	.loc 1 302 31 discriminator 3
	and	r3, r3, #31
.LVL104:
	.loc 1 302 24 discriminator 3
	lsls	r1, r1, r3
	.loc 1 302 19 discriminator 3
	orrs	r2, r2, r1
	str	r2, [r5, r0, lsl #2]
.LVL105:
.LBE49:
.LBE48:
	.loc 1 789 8 is_stmt 1 discriminator 3
	.loc 1 791 5 discriminator 3
	.loc 1 791 35 is_stmt 0 discriminator 3
	add	r1, r4, #8
	.loc 1 791 55 discriminator 3
	ldr	r3, [r4, #4]
	.loc 1 791 62 discriminator 3
	bic	r3, r3, #3
	.loc 1 791 11 discriminator 3
	adds	r0, r1, r3
.LVL106:
	.loc 1 792 5 is_stmt 1 discriminator 3
	.loc 1 792 10 is_stmt 0 discriminator 3
	ldr	r2, [r0, #4]
	.loc 1 792 17 discriminator 3
	orr	r2, r2, #2
	str	r2, [r0, #4]
	.loc 1 793 5 is_stmt 1 discriminator 3
	.loc 1 793 21 is_stmt 0 discriminator 3
	str	r4, [r1, r3]
.LVL107:
.L48:
	.loc 1 794 1
	add	sp, sp, #12
	.cfi_remember_state
	.cfi_def_cfa_offset 20
	@ sp needed
	pop	{r4, r5, r6, r7, pc}
.LVL108:
.L61:
	.cfi_restore_state
	.loc 1 777 9 is_stmt 1
	mov	r2, sp
	add	r1, sp, #4
.LVL109:
	bic	r0, r0, #3
	bl	MAPPING_INSERT
.LVL110:
	.loc 1 778 9
	.loc 1 778 14
	.loc 1 778 39 is_stmt 0
	ldr	r3, [r7, #12]
	.loc 1 778 17
	cbz	r3, .L52
	.loc 1 778 46 is_stmt 1 discriminator 1
	.loc 1 778 117 is_stmt 0 discriminator 1
	ldr	r2, [r7, #8]
	.loc 1 778 94 discriminator 1
	str	r2, [r3, #8]
.L52:
	.loc 1 778 124 is_stmt 1 discriminator 3
	.loc 1 778 149 is_stmt 0 discriminator 3
	ldr	r3, [r7, #8]
	.loc 1 778 127 discriminator 3
	cbz	r3, .L53
	.loc 1 778 156 is_stmt 1 discriminator 4
	.loc 1 778 227 is_stmt 0 discriminator 4
	ldr	r2, [r7, #12]
	.loc 1 778 204 discriminator 4
	str	r2, [r3, #12]
.L53:
	.loc 1 778 234 is_stmt 1 discriminator 6
	.loc 1 778 257 is_stmt 0 discriminator 6
	ldr	r2, [sp, #4]
	ldr	r1, [sp]
	add	r3, r1, r2, lsl #5
	adds	r3, r3, #26
	add	r3, r5, r3, lsl #2
	ldr	r3, [r3, #4]
	.loc 1 778 237 discriminator 6
	cmp	r3, r7
	beq	.L63
.L54:
	.loc 1 778 469 is_stmt 1 discriminator 13
	.loc 1 778 496 is_stmt 0 discriminator 13
	movs	r3, #0
	str	r3, [r7, #8]
	.loc 1 778 10 is_stmt 1 discriminator 13
	.loc 1 778 37 is_stmt 0 discriminator 13
	str	r3, [r7, #12]
	.loc 1 778 12 is_stmt 1 discriminator 13
	.loc 1 779 9 discriminator 13
	.loc 1 779 10 is_stmt 0 discriminator 13
	ldr	r3, [r6, #-4]
	.loc 1 779 26 discriminator 13
	ldr	r2, [r7, #4]
	.loc 1 779 33 discriminator 13
	bic	r2, r2, #3
	.loc 1 779 17 discriminator 13
	add	r3, r3, r2
	adds	r3, r3, #8
	str	r3, [r6, #-4]
	b	.L51
.L63:
	.loc 1 778 274 is_stmt 1 discriminator 7
	.loc 1 778 321 is_stmt 0 discriminator 7
	ldr	r0, [r7, #12]
	.loc 1 778 298 discriminator 7
	add	r3, r1, r2, lsl #5
	adds	r3, r3, #26
	add	r3, r5, r3, lsl #2
	str	r0, [r3, #4]
	.loc 1 778 328 is_stmt 1 discriminator 7
	.loc 1 778 331 is_stmt 0 discriminator 7
	cmp	r0, #0
	bne	.L54
	.loc 1 778 360 is_stmt 1 discriminator 9
	adds	r3, r2, #2
	add	r3, r5, r3, lsl #2
	adds	r3, r3, #4
.LVL111:
.LBB50:
.LBB51:
	.loc 1 307 5 discriminator 9
	.loc 1 307 9 is_stmt 0 discriminator 9
	asr	ip, r1, #5
	ldr	r2, [r3, ip, lsl #2]
	.loc 1 307 33 discriminator 9
	and	r1, r1, #31
.LVL112:
	.loc 1 307 26 discriminator 9
	movs	r0, #1
	lsl	r1, r0, r1
	.loc 1 307 19 discriminator 9
	bic	r2, r2, r1
	str	r2, [r3, ip, lsl #2]
.LVL113:
.LBE51:
.LBE50:
	.loc 1 778 400 is_stmt 1 discriminator 9
	.loc 1 778 423 is_stmt 0 discriminator 9
	ldr	r3, [sp, #4]
	adds	r2, r3, #2
	add	r2, r5, r2, lsl #2
	ldr	r2, [r2, #4]
	.loc 1 778 403 discriminator 9
	cmp	r2, #0
	bne	.L54
	.loc 1 778 429 is_stmt 1 discriminator 11
	add	r0, r5, #8
.LVL114:
.LBB52:
.LBB53:
	.loc 1 307 5 discriminator 11
	.loc 1 307 9 is_stmt 0 discriminator 11
	asr	ip, r3, #5
	ldr	r2, [r0, ip, lsl #2]
	.loc 1 307 33 discriminator 11
	and	r3, r3, #31
.LVL115:
	.loc 1 307 26 discriminator 11
	movs	r1, #1
	lsl	r3, r1, r3
	.loc 1 307 19 discriminator 11
	bic	r2, r2, r3
	str	r2, [r0, ip, lsl #2]
.LVL116:
	.loc 1 308 1 discriminator 11
	b	.L54
.LVL117:
.L62:
.LBE53:
.LBE52:
	.loc 1 782 9 is_stmt 1
	.loc 1 782 15 is_stmt 0
	ldr	r4, [r6, #-8]
.LVL118:
	.loc 1 783 9 is_stmt 1
	.loc 1 783 29 is_stmt 0
	ldr	r0, [r4, #4]
	.loc 1 783 9
	mov	r2, sp
	add	r1, sp, #4
	bic	r0, r0, #3
	bl	MAPPING_INSERT
.LVL119:
	.loc 1 784 9 is_stmt 1
	.loc 1 784 14
	.loc 1 784 39 is_stmt 0
	ldr	r3, [r4, #12]
	.loc 1 784 17
	cbz	r3, .L56
	.loc 1 784 46 is_stmt 1 discriminator 1
	.loc 1 784 117 is_stmt 0 discriminator 1
	ldr	r2, [r4, #8]
	.loc 1 784 94 discriminator 1
	str	r2, [r3, #8]
.L56:
	.loc 1 784 124 is_stmt 1 discriminator 3
	.loc 1 784 149 is_stmt 0 discriminator 3
	ldr	r3, [r4, #8]
	.loc 1 784 127 discriminator 3
	cbz	r3, .L57
	.loc 1 784 156 is_stmt 1 discriminator 4
	.loc 1 784 227 is_stmt 0 discriminator 4
	ldr	r2, [r4, #12]
	.loc 1 784 204 discriminator 4
	str	r2, [r3, #12]
.L57:
	.loc 1 784 234 is_stmt 1 discriminator 6
	.loc 1 784 257 is_stmt 0 discriminator 6
	ldr	r2, [sp, #4]
	ldr	r1, [sp]
	add	r3, r1, r2, lsl #5
	adds	r3, r3, #26
	add	r3, r5, r3, lsl #2
	ldr	r3, [r3, #4]
	.loc 1 784 237 discriminator 6
	cmp	r3, r4
	beq	.L64
.L58:
	.loc 1 784 469 is_stmt 1 discriminator 13
	.loc 1 784 496 is_stmt 0 discriminator 13
	movs	r3, #0
	str	r3, [r4, #8]
	.loc 1 784 10 is_stmt 1 discriminator 13
	.loc 1 784 37 is_stmt 0 discriminator 13
	str	r3, [r4, #12]
	.loc 1 784 12 is_stmt 1 discriminator 13
	.loc 1 785 9 discriminator 13
	.loc 1 785 14 is_stmt 0 discriminator 13
	ldr	r3, [r4, #4]
	.loc 1 785 26 discriminator 13
	ldr	r2, [r6, #-4]
	.loc 1 785 33 discriminator 13
	bic	r2, r2, #3
	.loc 1 785 21 discriminator 13
	add	r3, r3, r2
	adds	r3, r3, #8
	str	r3, [r4, #4]
	.loc 1 786 9 is_stmt 1 discriminator 13
.LVL120:
	b	.L55
.LVL121:
.L64:
	.loc 1 784 274 discriminator 7
	.loc 1 784 321 is_stmt 0 discriminator 7
	ldr	r0, [r4, #12]
	.loc 1 784 298 discriminator 7
	add	r3, r1, r2, lsl #5
	adds	r3, r3, #26
	add	r3, r5, r3, lsl #2
	str	r0, [r3, #4]
	.loc 1 784 328 is_stmt 1 discriminator 7
	.loc 1 784 331 is_stmt 0 discriminator 7
	cmp	r0, #0
	bne	.L58
	.loc 1 784 360 is_stmt 1 discriminator 9
	adds	r3, r2, #2
	add	r3, r5, r3, lsl #2
	adds	r3, r3, #4
.LVL122:
.LBB54:
.LBB55:
	.loc 1 307 5 discriminator 9
	.loc 1 307 9 is_stmt 0 discriminator 9
	asrs	r7, r1, #5
	ldr	r2, [r3, r7, lsl #2]
	.loc 1 307 33 discriminator 9
	and	r1, r1, #31
.LVL123:
	.loc 1 307 26 discriminator 9
	movs	r0, #1
	lsl	r1, r0, r1
	.loc 1 307 19 discriminator 9
	bic	r2, r2, r1
	str	r2, [r3, r7, lsl #2]
.LVL124:
.LBE55:
.LBE54:
	.loc 1 784 400 is_stmt 1 discriminator 9
	.loc 1 784 423 is_stmt 0 discriminator 9
	ldr	r3, [sp, #4]
	adds	r2, r3, #2
	add	r2, r5, r2, lsl #2
	ldr	r2, [r2, #4]
	.loc 1 784 403 discriminator 9
	cmp	r2, #0
	bne	.L58
	.loc 1 784 429 is_stmt 1 discriminator 11
	add	r0, r5, #8
.LVL125:
.LBB56:
.LBB57:
	.loc 1 307 5 discriminator 11
	.loc 1 307 9 is_stmt 0 discriminator 11
	asrs	r7, r3, #5
	ldr	r2, [r0, r7, lsl #2]
	.loc 1 307 33 discriminator 11
	and	r3, r3, #31
.LVL126:
	.loc 1 307 26 discriminator 11
	movs	r1, #1
	lsl	r3, r1, r3
	.loc 1 307 19 discriminator 11
	bic	r2, r2, r3
	str	r2, [r0, r7, lsl #2]
.LVL127:
	.loc 1 308 1 discriminator 11
	b	.L58
.LBE57:
.LBE56:
	.cfi_endproc
.LFE21:
	.size	free_ex, .-free_ex
	.section	.rodata.init_memory_pool.str1.4,"aMS",%progbits,1
	.align	2
.LC0:
	.ascii	"init_memory_pool (): memory_pool invalid\012\000"
	.align	2
.LC1:
	.ascii	"init_memory_pool (): mem_pool must be aligned to a "
	.ascii	"word\012\000"
	.section	.text.init_memory_pool,"ax",%progbits
	.align	1
	.global	init_memory_pool
	.syntax unified
	.thumb
	.thumb_func
	.type	init_memory_pool, %function
init_memory_pool:
.LFB11:
	.loc 1 458 1 is_stmt 1
	.cfi_startproc
	@ args = 0, pretend = 0, frame = 0
	@ frame_needed = 0, uses_anonymous_args = 0
.LVL128:
	push	{r4, r5, r6, lr}
	.cfi_def_cfa_offset 16
	.cfi_offset 4, -16
	.cfi_offset 5, -12
	.cfi_offset 6, -8
	.cfi_offset 14, -4
	.loc 1 460 5
	.loc 1 461 5
	.loc 1 463 5
	.loc 1 463 8 is_stmt 0
	cmp	r0, #0
	it	ne
	cmpne	r1, #0
	beq	.L66
	mov	r4, r1
	mov	r5, r0
	.loc 1 463 37 discriminator 1
	movw	r3, #3243
	cmp	r0, r3
	bls	.L66
	.loc 1 468 5 is_stmt 1
	.loc 1 468 8 is_stmt 0
	tst	r1, #3
	bne	.L72
	.loc 1 472 5 is_stmt 1
.LVL129:
	.loc 1 474 5
	.loc 1 474 13 is_stmt 0
	ldr	r2, [r1]
	.loc 1 474 8
	ldr	r3, .L74
	cmp	r2, r3
	beq	.L73
	.loc 1 480 5 is_stmt 1
	.loc 1 480 8 is_stmt 0
	ldr	r3, .L74+4
	str	r1, [r3]
	.loc 1 483 5 is_stmt 1
	movw	r2, #3180
	movs	r1, #0
.LVL130:
	mov	r0, r4
.LVL131:
	bl	memset
.LVL132:
	.loc 1 485 5
	.loc 1 485 26 is_stmt 0
	ldr	r3, .L74
	str	r3, [r4]
	.loc 1 487 5 is_stmt 1
	.loc 1 487 8
	.loc 1 487 7
	.loc 1 489 5
	.loc 1 490 81 is_stmt 0
	subw	r1, r5, #3180
	.loc 1 489 10
	bic	r1, r1, #7
	add	r0, r4, #3184
	bl	process_area
.LVL133:
	.loc 1 491 5 is_stmt 1
	.loc 1 491 31 is_stmt 0
	add	r6, r0, #8
	.loc 1 491 53
	ldr	r5, [r0, #4]
.LVL134:
	.loc 1 491 60
	bic	r5, r5, #3
	.loc 1 491 7
	add	r5, r5, r6
.LVL135:
	.loc 1 492 5 is_stmt 1
	mov	r1, r4
	add	r0, r5, #8
.LVL136:
	bl	free_ex
.LVL137:
	.loc 1 493 5
	.loc 1 493 21 is_stmt 0
	str	r6, [r4, #4]
	.loc 1 500 5 is_stmt 1
	.loc 1 500 14 is_stmt 0
	ldr	r0, [r5, #4]
	.loc 1 500 21
	bic	r0, r0, #3
.LVL138:
.L65:
	.loc 1 501 1
	pop	{r4, r5, r6, pc}
.LVL139:
.L66:
	.loc 1 464 9 is_stmt 1
	ldr	r0, .L74+8
.LVL140:
	bl	printf
.LVL141:
	.loc 1 465 9
	.loc 1 465 16 is_stmt 0
	mov	r0, #-1
	b	.L65
.LVL142:
.L72:
	.loc 1 469 9 is_stmt 1
	ldr	r0, .L74+12
.LVL143:
	bl	printf
.LVL144:
	.loc 1 470 9
	.loc 1 470 16 is_stmt 0
	mov	r0, #-1
	b	.L65
.LVL145:
.L73:
	.loc 1 475 9 is_stmt 1
	.loc 1 475 12 is_stmt 0
	ldr	r3, .L74+4
	str	r1, [r3]
	.loc 1 476 9 is_stmt 1
.LVL146:
	.loc 1 477 9
	.loc 1 477 17 is_stmt 0
	ldr	r0, [r1, #3188]
.LVL147:
	.loc 1 477 24
	bic	r0, r0, #3
	b	.L65
.L75:
	.align	2
.L74:
	.word	710539865
	.word	mp
	.word	.LC0
	.word	.LC1
	.cfi_endproc
.LFE11:
	.size	init_memory_pool, .-init_memory_pool
	.section	.text.add_new_area,"ax",%progbits
	.align	1
	.global	add_new_area
	.syntax unified
	.thumb
	.thumb_func
	.type	add_new_area, %function
add_new_area:
.LFB12:
	.loc 1 505 1 is_stmt 1
	.cfi_startproc
	@ args = 0, pretend = 0, frame = 0
	@ frame_needed = 0, uses_anonymous_args = 0
.LVL148:
	push	{r3, r4, r5, r6, r7, lr}
	.cfi_def_cfa_offset 24
	.cfi_offset 3, -24
	.cfi_offset 4, -20
	.cfi_offset 5, -16
	.cfi_offset 6, -12
	.cfi_offset 7, -8
	.cfi_offset 14, -4
	mov	r7, r0
	mov	r6, r1
	mov	r5, r2
	.loc 1 507 5
.LVL149:
	.loc 1 508 5
	.loc 1 509 5
	.loc 1 511 5
	mov	r2, r1
.LVL150:
	movs	r1, #0
.LVL151:
	bl	memset
.LVL152:
	.loc 1 512 5
	.loc 1 512 9 is_stmt 0
	ldr	r4, [r5, #4]
.LVL153:
	.loc 1 513 5 is_stmt 1
	.loc 1 515 5
	.loc 1 515 11 is_stmt 0
	mov	r1, r6
	mov	r0, r7
	bl	process_area
.LVL154:
	.loc 1 516 5 is_stmt 1
	.loc 1 516 32 is_stmt 0
	add	r6, r0, #8
.LVL155:
	.loc 1 516 56
	ldr	r3, [r0, #4]
	.loc 1 516 63
	bic	r3, r3, #3
	.loc 1 516 8
	add	r6, r6, r3
.LVL156:
	.loc 1 517 5 is_stmt 1
	.loc 1 517 33 is_stmt 0
	add	r7, r6, #8
.LVL157:
	.loc 1 517 55
	ldr	r3, [r6, #4]
	.loc 1 517 62
	bic	r3, r3, #3
	.loc 1 517 9
	add	r7, r7, r3
.LVL158:
	.loc 1 522 5 is_stmt 1
	.loc 1 513 14 is_stmt 0
	mov	ip, #0
	.loc 1 522 11
	b	.L77
.LVL159:
.L89:
	.loc 1 529 13 is_stmt 1
	.loc 1 529 21 is_stmt 0
	ldr	r2, [r5, #4]
.LVL160:
	.loc 1 529 16
	cmp	r2, r4
	beq	.L87
	.loc 1 533 17 is_stmt 1
	.loc 1 533 37 is_stmt 0
	ldr	lr, [r4, #4]
	.loc 1 533 32
	str	lr, [ip, #4]
	.loc 1 534 17 is_stmt 1
.LVL161:
.L80:
	.loc 1 537 13
	.loc 1 538 22 is_stmt 0
	ldr	r2, [r6, #4]
	.loc 1 538 29
	bic	r2, r2, #3
	.loc 1 538 74
	ldr	r4, [r4, #-4]
.LVL162:
	.loc 1 538 81
	bic	r4, r4, #3
	.loc 1 538 68
	add	r2, r2, r4
	.loc 1 538 120
	adds	r2, r2, #16
	.loc 1 539 86
	bic	r2, r2, #7
	.loc 1 537 22
	str	r2, [r6, #4]
	.loc 1 541 13 is_stmt 1
	.loc 1 541 26 is_stmt 0
	str	r6, [r3]
	.loc 1 542 13 is_stmt 1
.LVL163:
	.loc 1 544 13
	.loc 1 542 17 is_stmt 0
	mov	r7, r1
	.loc 1 544 13
	mov	r4, lr
.LVL164:
.L77:
	.loc 1 522 12 is_stmt 1
	cmp	r4, #0
	beq	.L88
	.loc 1 523 9
	.loc 1 523 13 is_stmt 0
	sub	r2, r4, #8
.LVL165:
	.loc 1 524 9 is_stmt 1
	.loc 1 524 60 is_stmt 0
	ldr	r3, [r4, #-4]
	.loc 1 524 67
	bic	r3, r3, #3
	.loc 1 524 12
	add	r3, r3, r4
.LVL166:
	.loc 1 525 9 is_stmt 1
	.loc 1 525 13 is_stmt 0
	ldr	r1, [r4]
.LVL167:
	.loc 1 528 9 is_stmt 1
	.loc 1 528 56 is_stmt 0
	add	lr, r7, #8
	.loc 1 528 12
	cmp	lr, r2
	beq	.L89
	.loc 1 549 9 is_stmt 1
	.loc 1 549 29 is_stmt 0
	add	lr, r1, #8
	.loc 1 549 12
	cmp	lr, r0
	beq	.L90
	.loc 1 568 9 is_stmt 1
.LVL168:
	.loc 1 569 9
	.loc 1 568 18 is_stmt 0
	mov	ip, r4
	.loc 1 569 13
	ldr	r4, [r4, #4]
.LVL169:
	b	.L77
.LVL170:
.L87:
	.loc 1 530 17 is_stmt 1
	.loc 1 530 38 is_stmt 0
	ldr	lr, [r4, #4]
	.loc 1 530 33
	str	lr, [r5, #4]
	.loc 1 531 17 is_stmt 1
.LVL171:
	b	.L80
.LVL172:
.L90:
	.loc 1 550 13
	.loc 1 550 21 is_stmt 0
	ldr	r3, [r5, #4]
.LVL173:
	.loc 1 550 16
	cmp	r3, r4
	beq	.L91
	.loc 1 554 17 is_stmt 1
	.loc 1 554 37 is_stmt 0
	ldr	r4, [r4, #4]
.LVL174:
	.loc 1 554 32
	str	r4, [ip, #4]
.LVL175:
	.loc 1 555 17 is_stmt 1
.L84:
	.loc 1 558 13
	.loc 1 559 22 is_stmt 0
	ldr	r3, [r6, #4]
	.loc 1 559 29
	bic	r3, r3, #3
	.loc 1 559 74
	ldr	r0, [r0, #4]
.LVL176:
	.loc 1 559 81
	bic	r0, r0, #3
	.loc 1 559 68
	add	r3, r3, r0
	.loc 1 559 120
	adds	r3, r3, #16
	.loc 1 560 78
	bic	r3, r3, #7
	.loc 1 560 92
	ldr	r0, [r1, #4]
	.loc 1 560 99
	and	r0, r0, #2
	.loc 1 560 86
	orrs	r3, r3, r0
	.loc 1 558 23
	str	r3, [r1, #4]
	.loc 1 561 13 is_stmt 1
	.loc 1 561 75 is_stmt 0
	bic	r3, r3, #3
.LVL177:
	.loc 1 562 13 is_stmt 1
	.loc 1 562 30 is_stmt 0
	str	r1, [lr, r3]
	.loc 1 563 13 is_stmt 1
.LVL178:
	.loc 1 564 13
	.loc 1 566 13
	.loc 1 563 16 is_stmt 0
	mov	r6, r1
	.loc 1 564 17
	mov	r0, r2
	.loc 1 566 13
	b	.L77
.LVL179:
.L91:
	.loc 1 551 17 is_stmt 1
	.loc 1 551 38 is_stmt 0
	ldr	r4, [r4, #4]
.LVL180:
	.loc 1 551 33
	str	r4, [r5, #4]
.LVL181:
	.loc 1 552 17 is_stmt 1
	b	.L84
.LVL182:
.L88:
	.loc 1 573 5
	.loc 1 573 8 is_stmt 0
	add	r3, r0, #8
.LVL183:
	.loc 1 574 5 is_stmt 1
	.loc 1 574 20 is_stmt 0
	ldr	r2, [r5, #4]
	.loc 1 574 14
	str	r2, [r0, #12]
	.loc 1 575 5 is_stmt 1
	.loc 1 575 13 is_stmt 0
	str	r7, [r0, #8]
	.loc 1 576 5 is_stmt 1
	.loc 1 576 21 is_stmt 0
	str	r3, [r5, #4]
	.loc 1 577 5 is_stmt 1
	mov	r1, r5
	add	r0, r6, #8
.LVL184:
	bl	free_ex
.LVL185:
	.loc 1 578 5
	.loc 1 578 15 is_stmt 0
	ldr	r0, [r6, #4]
	.loc 1 579 1
	bic	r0, r0, #3
	pop	{r3, r4, r5, r6, r7, pc}
	.cfi_endproc
.LFE12:
	.size	add_new_area, .-add_new_area
	.section	.text.tlsf_free,"ax",%progbits
	.align	1
	.global	tlsf_free
	.syntax unified
	.thumb
	.thumb_func
	.type	tlsf_free, %function
tlsf_free:
.LFB17:
	.loc 1 648 1 is_stmt 1
	.cfi_startproc
	@ args = 0, pretend = 0, frame = 0
	@ frame_needed = 0, uses_anonymous_args = 0
.LVL186:
	push	{r3, lr}
	.cfi_def_cfa_offset 8
	.cfi_offset 3, -8
	.cfi_offset 14, -4
	.loc 1 651 5
	.loc 1 651 8
	.loc 1 651 7
	.loc 1 653 5
	ldr	r3, .L94
	ldr	r1, [r3]
	bl	free_ex
.LVL187:
	.loc 1 655 5
	.loc 1 655 8
	.loc 1 655 7
	.loc 1 657 1 is_stmt 0
	pop	{r3, pc}
.L95:
	.align	2
.L94:
	.word	mp
	.cfi_endproc
.LFE17:
	.size	tlsf_free, .-tlsf_free
	.section	.text.realloc_ex,"ax",%progbits
	.align	1
	.global	realloc_ex
	.syntax unified
	.thumb
	.thumb_func
	.type	realloc_ex, %function
realloc_ex:
.LFB22:
	.loc 1 798 1 is_stmt 1
	.cfi_startproc
	@ args = 0, pretend = 0, frame = 8
	@ frame_needed = 0, uses_anonymous_args = 0
.LVL188:
	push	{r4, r5, r6, r7, r8, r9, r10, lr}
	.cfi_def_cfa_offset 32
	.cfi_offset 4, -32
	.cfi_offset 5, -28
	.cfi_offset 6, -24
	.cfi_offset 7, -20
	.cfi_offset 8, -16
	.cfi_offset 9, -12
	.cfi_offset 10, -8
	.cfi_offset 14, -4
	sub	sp, sp, #8
	.cfi_def_cfa_offset 40
	mov	r3, r1
	mov	r7, r2
	.loc 1 800 5
.LVL189:
	.loc 1 801 5
	.loc 1 802 5
	.loc 1 803 5
	.loc 1 804 5
	.loc 1 805 5
	.loc 1 807 5
	.loc 1 807 8 is_stmt 0
	mov	r6, r0
	cbz	r0, .L117
	.loc 1 812 12 is_stmt 1
	.loc 1 812 15 is_stmt 0
	cbz	r1, .L118
	.loc 1 817 5 is_stmt 1
	.loc 1 817 7 is_stmt 0
	sub	r10, r0, #8
.LVL190:
	.loc 1 818 5 is_stmt 1
	.loc 1 818 36 is_stmt 0
	mov	r8, r0
	.loc 1 818 56
	ldr	r5, [r0, #-4]
	.loc 1 818 63
	bic	r5, r5, #3
	.loc 1 818 12
	add	r9, r0, r5
.LVL191:
	.loc 1 819 5 is_stmt 1
	.loc 1 819 75 is_stmt 0
	cmp	r1, #7
	bls	.L115
	.loc 1 819 90 discriminator 1
	adds	r3, r3, #7
	.loc 1 819 75 discriminator 1
	bic	r4, r3, #7
.L100:
.LVL192:
	.loc 1 820 5 is_stmt 1 discriminator 4
	.loc 1 821 5 discriminator 4
	.loc 1 821 8 is_stmt 0 discriminator 4
	cmp	r5, r4
	bcs	.L119
	.loc 1 845 5 is_stmt 1
	.loc 1 845 16 is_stmt 0
	ldr	r0, [r9, #4]
.LVL193:
	.loc 1 845 8
	tst	r0, #1
	beq	.L108
	.loc 1 846 9 is_stmt 1
	.loc 1 846 51 is_stmt 0
	bic	r0, r0, #3
	.loc 1 846 35
	add	r5, r5, r0
.LVL194:
	.loc 1 846 12
	cmp	r5, r4
	bcs	.L120
.L108:
	.loc 1 870 5 is_stmt 1
	.loc 1 870 21 is_stmt 0
	mov	r1, r7
	mov	r0, r4
	bl	malloc_ex
.LVL195:
	.loc 1 870 8
	mov	r8, r0
	cbz	r0, .L96
	.loc 1 874 5 is_stmt 1
	.loc 1 874 17 is_stmt 0
	ldr	r2, [r6, #-4]
	.loc 1 874 24
	bic	r2, r2, #3
.LVL196:
	.loc 1 876 5 is_stmt 1
	cmp	r2, r4
	it	cs
	movcs	r2, r4
.LVL197:
	mov	r1, r6
	bl	memcpy
.LVL198:
	.loc 1 878 5
	mov	r1, r7
	mov	r0, r6
	bl	free_ex
.LVL199:
	.loc 1 879 5
.L96:
	.loc 1 880 1 is_stmt 0
	mov	r0, r8
	add	sp, sp, #8
	.cfi_remember_state
	.cfi_def_cfa_offset 32
	@ sp needed
	pop	{r4, r5, r6, r7, r8, r9, r10, pc}
.LVL200:
.L117:
	.cfi_restore_state
	.loc 1 808 9 is_stmt 1
	.loc 1 808 12 is_stmt 0
	cmp	r1, #0
	beq	.L114
	.loc 1 809 13 is_stmt 1
	.loc 1 809 20 is_stmt 0
	mov	r1, r2
.LVL201:
	mov	r0, r3
.LVL202:
	bl	malloc_ex
.LVL203:
	mov	r8, r0
	b	.L96
.LVL204:
.L118:
	.loc 1 813 9 is_stmt 1
	mov	r1, r2
.LVL205:
	bl	free_ex
.LVL206:
	.loc 1 814 9
	.loc 1 814 15 is_stmt 0
	mov	r8, #0
	b	.L96
.LVL207:
.L115:
	.loc 1 819 75
	movs	r4, #8
	b	.L100
.LVL208:
.L119:
	.loc 1 822 2 is_stmt 1
	.loc 1 822 5
	.loc 1 822 4
	.loc 1 823 9
	.loc 1 823 19 is_stmt 0
	ldr	r0, [r9, #4]
.LVL209:
	.loc 1 823 12
	tst	r0, #1
	bne	.L121
.LVL210:
.L102:
	.loc 1 831 9 is_stmt 1
	.loc 1 831 18 is_stmt 0
	subs	r5, r5, r4
.LVL211:
	.loc 1 832 9 is_stmt 1
	.loc 1 832 12 is_stmt 0
	cmp	r5, #15
	bls	.L96
	.loc 1 833 13 is_stmt 1
	.loc 1 833 22 is_stmt 0
	sub	r0, r5, #8
.LVL212:
	.loc 1 834 13 is_stmt 1
	.loc 1 834 19 is_stmt 0
	adds	r5, r6, r4
.LVL213:
	.loc 1 835 13 is_stmt 1
	.loc 1 835 44 is_stmt 0
	orr	r3, r0, #1
	.loc 1 835 25
	str	r3, [r5, #4]
	.loc 1 836 13 is_stmt 1
	.loc 1 836 30 is_stmt 0
	str	r5, [r9]
	.loc 1 837 13 is_stmt 1
	.loc 1 837 19 is_stmt 0
	ldr	r3, [r9, #4]
	.loc 1 837 26
	orr	r3, r3, #2
	str	r3, [r9, #4]
	.loc 1 838 13 is_stmt 1
	mov	r2, sp
	add	r1, sp, #4
	bl	MAPPING_INSERT
.LVL214:
	.loc 1 839 13
	.loc 1 839 18
	.loc 1 839 45 is_stmt 0
	movs	r3, #0
	str	r3, [r5, #8]
	.loc 1 839 14 is_stmt 1
	.loc 1 839 62 is_stmt 0
	ldr	r3, [sp, #4]
	ldr	r2, [sp]
	add	r1, r2, r3, lsl #5
	adds	r1, r1, #26
	add	r1, r7, r1, lsl #2
	ldr	r1, [r1, #4]
	.loc 1 839 41
	str	r1, [r5, #12]
	.loc 1 839 68 is_stmt 1
	.loc 1 839 71 is_stmt 0
	cbz	r1, .L107
	.loc 1 839 97 is_stmt 1 discriminator 1
	.loc 1 839 142 is_stmt 0 discriminator 1
	str	r5, [r1, #8]
.L107:
	.loc 1 839 151 is_stmt 1 discriminator 3
	.loc 1 839 175 is_stmt 0 discriminator 3
	add	r1, r2, r3, lsl #5
	adds	r1, r1, #26
	add	r1, r7, r1, lsl #2
	str	r5, [r1, #4]
	.loc 1 839 184 is_stmt 1 discriminator 3
	adds	r3, r3, #2
	add	r3, r7, r3, lsl #2
	adds	r3, r3, #4
.LVL215:
.LBB58:
.LBB59:
	.loc 1 302 5 discriminator 3
	.loc 1 302 9 is_stmt 0 discriminator 3
	asrs	r5, r2, #5
.LVL216:
	ldr	r1, [r3, r5, lsl #2]
.LVL217:
	.loc 1 302 31 discriminator 3
	and	r2, r2, #31
.LVL218:
	.loc 1 302 24 discriminator 3
	movs	r0, #1
	lsl	r2, r0, r2
	.loc 1 302 19 discriminator 3
	orrs	r1, r1, r2
	str	r1, [r3, r5, lsl #2]
.LVL219:
.LBE59:
.LBE58:
	.loc 1 839 223 is_stmt 1 discriminator 3
	ldr	r3, [sp, #4]
	adds	r7, r7, #8
.LVL220:
.LBB60:
.LBB61:
	.loc 1 302 5 discriminator 3
	.loc 1 302 9 is_stmt 0 discriminator 3
	asrs	r1, r3, #5
	ldr	r2, [r7, r1, lsl #2]
	.loc 1 302 31 discriminator 3
	and	r3, r3, #31
.LVL221:
	.loc 1 302 24 discriminator 3
	lsls	r0, r0, r3
	.loc 1 302 19 discriminator 3
	orrs	r2, r2, r0
	str	r2, [r7, r1, lsl #2]
.LVL222:
.LBE61:
.LBE60:
	.loc 1 839 16 is_stmt 1 discriminator 3
	.loc 1 840 13 discriminator 3
	.loc 1 840 36 is_stmt 0 discriminator 3
	ldr	r3, [r6, #-4]
	.loc 1 840 43 discriminator 3
	and	r3, r3, #2
	.loc 1 840 32 discriminator 3
	orrs	r3, r3, r4
	.loc 1 840 21 discriminator 3
	str	r3, [r6, #-4]
	.loc 1 842 2 is_stmt 1 discriminator 3
	.loc 1 842 5 discriminator 3
	.loc 1 842 4 discriminator 3
	.loc 1 843 9 discriminator 3
	.loc 1 843 16 is_stmt 0 discriminator 3
	b	.L96
.LVL223:
.L121:
	.loc 1 824 13 is_stmt 1
	mov	r2, sp
.LVL224:
	add	r1, sp, #4
	bic	r0, r0, #3
	bl	MAPPING_INSERT
.LVL225:
	.loc 1 825 13
	.loc 1 825 18
	.loc 1 825 44 is_stmt 0
	ldr	r3, [r9, #12]
	.loc 1 825 21
	cbz	r3, .L103
	.loc 1 825 51 is_stmt 1 discriminator 1
	.loc 1 825 124 is_stmt 0 discriminator 1
	ldr	r2, [r9, #8]
	.loc 1 825 100 discriminator 1
	str	r2, [r3, #8]
.L103:
	.loc 1 825 131 is_stmt 1 discriminator 3
	.loc 1 825 157 is_stmt 0 discriminator 3
	ldr	r3, [r9, #8]
	.loc 1 825 134 discriminator 3
	cbz	r3, .L104
	.loc 1 825 164 is_stmt 1 discriminator 4
	.loc 1 825 237 is_stmt 0 discriminator 4
	ldr	r2, [r9, #12]
	.loc 1 825 213 discriminator 4
	str	r2, [r3, #12]
.L104:
	.loc 1 825 244 is_stmt 1 discriminator 6
	.loc 1 825 267 is_stmt 0 discriminator 6
	ldr	r2, [sp, #4]
	ldr	r1, [sp]
	add	r3, r1, r2, lsl #5
	adds	r3, r3, #26
	add	r3, r7, r3, lsl #2
	ldr	r3, [r3, #4]
	.loc 1 825 247 discriminator 6
	cmp	r3, r9
	beq	.L122
.L105:
	.loc 1 825 481 is_stmt 1 discriminator 13
	.loc 1 825 509 is_stmt 0 discriminator 13
	movs	r3, #0
	str	r3, [r9, #8]
	.loc 1 825 14 is_stmt 1 discriminator 13
	.loc 1 825 42 is_stmt 0 discriminator 13
	str	r3, [r9, #12]
	.loc 1 825 16 is_stmt 1 discriminator 13
	.loc 1 826 13 discriminator 13
	.loc 1 826 32 is_stmt 0 discriminator 13
	ldr	r3, [r9, #4]
	.loc 1 826 39 discriminator 13
	bic	r3, r3, #3
	.loc 1 826 22 discriminator 13
	add	r5, r5, r3
.LVL226:
	adds	r5, r5, #8
.LVL227:
	.loc 1 827 13 is_stmt 1 discriminator 13
	.loc 1 827 44 is_stmt 0 discriminator 13
	add	r9, r9, #8
.LVL228:
	.loc 1 827 20 discriminator 13
	add	r9, r9, r3
.LVL229:
	b	.L102
.L122:
	.loc 1 825 285 is_stmt 1 discriminator 7
	.loc 1 825 333 is_stmt 0 discriminator 7
	ldr	r0, [r9, #12]
	.loc 1 825 309 discriminator 7
	add	r3, r1, r2, lsl #5
	adds	r3, r3, #26
	add	r3, r7, r3, lsl #2
	str	r0, [r3, #4]
	.loc 1 825 340 is_stmt 1 discriminator 7
	.loc 1 825 343 is_stmt 0 discriminator 7
	cmp	r0, #0
	bne	.L105
	.loc 1 825 372 is_stmt 1 discriminator 9
	adds	r3, r2, #2
	add	r3, r7, r3, lsl #2
	adds	r3, r3, #4
.LVL230:
.LBB62:
.LBB63:
	.loc 1 307 5 discriminator 9
	.loc 1 307 9 is_stmt 0 discriminator 9
	asr	ip, r1, #5
	ldr	r2, [r3, ip, lsl #2]
	.loc 1 307 33 discriminator 9
	and	r1, r1, #31
.LVL231:
	.loc 1 307 26 discriminator 9
	movs	r0, #1
	lsl	r1, r0, r1
	.loc 1 307 19 discriminator 9
	bic	r2, r2, r1
	str	r2, [r3, ip, lsl #2]
.LVL232:
.LBE63:
.LBE62:
	.loc 1 825 412 is_stmt 1 discriminator 9
	.loc 1 825 435 is_stmt 0 discriminator 9
	ldr	r3, [sp, #4]
	adds	r2, r3, #2
	add	r2, r7, r2, lsl #2
	ldr	r2, [r2, #4]
	.loc 1 825 415 discriminator 9
	cmp	r2, #0
	bne	.L105
	.loc 1 825 441 is_stmt 1 discriminator 11
	add	r0, r7, #8
.LVL233:
.LBB64:
.LBB65:
	.loc 1 307 5 discriminator 11
	.loc 1 307 9 is_stmt 0 discriminator 11
	asr	ip, r3, #5
	ldr	r2, [r0, ip, lsl #2]
	.loc 1 307 33 discriminator 11
	and	r3, r3, #31
.LVL234:
	.loc 1 307 26 discriminator 11
	movs	r1, #1
	lsl	r3, r1, r3
	.loc 1 307 19 discriminator 11
	bic	r2, r2, r3
	str	r2, [r0, ip, lsl #2]
.LVL235:
	.loc 1 308 1 discriminator 11
	b	.L105
.LVL236:
.L120:
.LBE65:
.LBE64:
	.loc 1 847 4 is_stmt 1
	.loc 1 847 7
	.loc 1 847 6
	.loc 1 848 13
	mov	r2, sp
.LVL237:
	add	r1, sp, #4
	bl	MAPPING_INSERT
.LVL238:
	.loc 1 849 13
	.loc 1 849 18
	.loc 1 849 44 is_stmt 0
	ldr	r3, [r9, #12]
	.loc 1 849 21
	cbz	r3, .L109
	.loc 1 849 51 is_stmt 1 discriminator 1
	.loc 1 849 124 is_stmt 0 discriminator 1
	ldr	r2, [r9, #8]
	.loc 1 849 100 discriminator 1
	str	r2, [r3, #8]
.L109:
	.loc 1 849 131 is_stmt 1 discriminator 3
	.loc 1 849 157 is_stmt 0 discriminator 3
	ldr	r3, [r9, #8]
	.loc 1 849 134 discriminator 3
	cbz	r3, .L110
	.loc 1 849 164 is_stmt 1 discriminator 4
	.loc 1 849 237 is_stmt 0 discriminator 4
	ldr	r2, [r9, #12]
	.loc 1 849 213 discriminator 4
	str	r2, [r3, #12]
.L110:
	.loc 1 849 244 is_stmt 1 discriminator 6
	.loc 1 849 267 is_stmt 0 discriminator 6
	ldr	r2, [sp, #4]
	ldr	r1, [sp]
	add	r3, r1, r2, lsl #5
	adds	r3, r3, #26
	add	r3, r7, r3, lsl #2
	ldr	r3, [r3, #4]
	.loc 1 849 247 discriminator 6
	cmp	r3, r9
	beq	.L123
.L111:
	.loc 1 849 481 is_stmt 1 discriminator 13
	.loc 1 849 509 is_stmt 0 discriminator 13
	movs	r3, #0
	str	r3, [r9, #8]
	.loc 1 849 14 is_stmt 1 discriminator 13
	.loc 1 849 42 is_stmt 0 discriminator 13
	str	r3, [r9, #12]
	.loc 1 849 16 is_stmt 1 discriminator 13
	.loc 1 850 13 discriminator 13
	.loc 1 850 14 is_stmt 0 discriminator 13
	ldr	r3, [r6, #-4]
	.loc 1 850 31 discriminator 13
	ldr	r2, [r9, #4]
	.loc 1 850 38 discriminator 13
	bic	r2, r2, #3
	.loc 1 850 21 discriminator 13
	add	r3, r3, r2
	adds	r3, r3, #8
	str	r3, [r6, #-4]
	.loc 1 851 13 is_stmt 1 discriminator 13
	.loc 1 851 71 is_stmt 0 discriminator 13
	bic	r3, r3, #3
	.loc 1 851 20 discriminator 13
	adds	r1, r6, r3
.LVL239:
	.loc 1 852 13 is_stmt 1 discriminator 13
	.loc 1 852 30 is_stmt 0 discriminator 13
	str	r10, [r6, r3]
	.loc 1 853 13 is_stmt 1 discriminator 13
	.loc 1 853 19 is_stmt 0 discriminator 13
	ldr	r2, [r1, #4]
	.loc 1 853 26 discriminator 13
	bic	r2, r2, #2
	str	r2, [r1, #4]
	.loc 1 854 13 is_stmt 1 discriminator 13
	.loc 1 854 26 is_stmt 0 discriminator 13
	ldr	r0, [r6, #-4]
	.loc 1 854 33 discriminator 13
	bic	r0, r0, #3
	.loc 1 854 22 discriminator 13
	subs	r0, r0, r4
.LVL240:
	.loc 1 855 13 is_stmt 1 discriminator 13
	.loc 1 855 16 is_stmt 0 discriminator 13
	cmp	r0, #15
	bls	.L96
	.loc 1 856 17 is_stmt 1
	.loc 1 856 26 is_stmt 0
	subs	r0, r0, #8
.LVL241:
	.loc 1 857 17 is_stmt 1
	.loc 1 857 23 is_stmt 0
	adds	r5, r6, r4
.LVL242:
	.loc 1 858 17 is_stmt 1
	.loc 1 858 48 is_stmt 0
	orr	r2, r0, #1
	.loc 1 858 29
	str	r2, [r5, #4]
	.loc 1 859 17 is_stmt 1
	.loc 1 859 34 is_stmt 0
	str	r5, [r6, r3]
	.loc 1 860 17 is_stmt 1
	.loc 1 860 23 is_stmt 0
	ldr	r3, [r1, #4]
	.loc 1 860 30
	orr	r3, r3, #2
	str	r3, [r1, #4]
	.loc 1 861 17 is_stmt 1
	mov	r2, sp
	add	r1, sp, #4
.LVL243:
	bl	MAPPING_INSERT
.LVL244:
	.loc 1 862 17
	.loc 1 862 22
	.loc 1 862 49 is_stmt 0
	movs	r3, #0
	str	r3, [r5, #8]
	.loc 1 862 18 is_stmt 1
	.loc 1 862 66 is_stmt 0
	ldr	r3, [sp, #4]
	ldr	r2, [sp]
	add	r1, r2, r3, lsl #5
	adds	r1, r1, #26
	add	r1, r7, r1, lsl #2
	ldr	r1, [r1, #4]
	.loc 1 862 45
	str	r1, [r5, #12]
	.loc 1 862 72 is_stmt 1
	.loc 1 862 75 is_stmt 0
	cbz	r1, .L113
	.loc 1 862 101 is_stmt 1 discriminator 1
	.loc 1 862 146 is_stmt 0 discriminator 1
	str	r5, [r1, #8]
.L113:
	.loc 1 862 155 is_stmt 1 discriminator 3
	.loc 1 862 179 is_stmt 0 discriminator 3
	add	r1, r2, r3, lsl #5
	adds	r1, r1, #26
	add	r1, r7, r1, lsl #2
	str	r5, [r1, #4]
	.loc 1 862 188 is_stmt 1 discriminator 3
	adds	r3, r3, #2
	add	r3, r7, r3, lsl #2
	adds	r3, r3, #4
.LVL245:
.LBB66:
.LBB67:
	.loc 1 302 5 discriminator 3
	.loc 1 302 9 is_stmt 0 discriminator 3
	asrs	r5, r2, #5
.LVL246:
	ldr	r1, [r3, r5, lsl #2]
.LVL247:
	.loc 1 302 31 discriminator 3
	and	r2, r2, #31
.LVL248:
	.loc 1 302 24 discriminator 3
	movs	r0, #1
	lsl	r2, r0, r2
	.loc 1 302 19 discriminator 3
	orrs	r1, r1, r2
	str	r1, [r3, r5, lsl #2]
.LVL249:
.LBE67:
.LBE66:
	.loc 1 862 227 is_stmt 1 discriminator 3
	ldr	r3, [sp, #4]
	adds	r7, r7, #8
.LVL250:
.LBB68:
.LBB69:
	.loc 1 302 5 discriminator 3
	.loc 1 302 9 is_stmt 0 discriminator 3
	asrs	r1, r3, #5
	ldr	r2, [r7, r1, lsl #2]
	.loc 1 302 31 discriminator 3
	and	r3, r3, #31
.LVL251:
	.loc 1 302 24 discriminator 3
	lsls	r0, r0, r3
	.loc 1 302 19 discriminator 3
	orrs	r2, r2, r0
	str	r2, [r7, r1, lsl #2]
.LVL252:
.LBE69:
.LBE68:
	.loc 1 862 20 is_stmt 1 discriminator 3
	.loc 1 863 17 discriminator 3
	.loc 1 863 40 is_stmt 0 discriminator 3
	ldr	r3, [r6, #-4]
	.loc 1 863 47 discriminator 3
	and	r3, r3, #2
	.loc 1 863 36 discriminator 3
	orrs	r3, r3, r4
	.loc 1 863 25 discriminator 3
	str	r3, [r6, #-4]
	.loc 1 865 4 is_stmt 1 discriminator 3
	.loc 1 865 7 discriminator 3
	.loc 1 865 6 discriminator 3
	.loc 1 866 13 discriminator 3
	.loc 1 866 20 is_stmt 0 discriminator 3
	b	.L96
.LVL253:
.L123:
	.loc 1 849 285 is_stmt 1 discriminator 7
	.loc 1 849 333 is_stmt 0 discriminator 7
	ldr	r0, [r9, #12]
	.loc 1 849 309 discriminator 7
	add	r3, r1, r2, lsl #5
	adds	r3, r3, #26
	add	r3, r7, r3, lsl #2
	str	r0, [r3, #4]
	.loc 1 849 340 is_stmt 1 discriminator 7
	.loc 1 849 343 is_stmt 0 discriminator 7
	cmp	r0, #0
	bne	.L111
	.loc 1 849 372 is_stmt 1 discriminator 9
	adds	r3, r2, #2
	add	r3, r7, r3, lsl #2
	adds	r3, r3, #4
.LVL254:
.LBB70:
.LBB71:
	.loc 1 307 5 discriminator 9
	.loc 1 307 9 is_stmt 0 discriminator 9
	asrs	r5, r1, #5
	ldr	r2, [r3, r5, lsl #2]
	.loc 1 307 33 discriminator 9
	and	r1, r1, #31
.LVL255:
	.loc 1 307 26 discriminator 9
	movs	r0, #1
	lsl	r1, r0, r1
	.loc 1 307 19 discriminator 9
	bic	r2, r2, r1
	str	r2, [r3, r5, lsl #2]
.LVL256:
.LBE71:
.LBE70:
	.loc 1 849 412 is_stmt 1 discriminator 9
	.loc 1 849 435 is_stmt 0 discriminator 9
	ldr	r2, [sp, #4]
	adds	r3, r2, #2
	add	r3, r7, r3, lsl #2
	ldr	r3, [r3, #4]
	.loc 1 849 415 discriminator 9
	cmp	r3, #0
	bne	.L111
	.loc 1 849 441 is_stmt 1 discriminator 11
	add	r0, r7, #8
.LVL257:
.LBB72:
.LBB73:
	.loc 1 307 5 discriminator 11
	.loc 1 307 9 is_stmt 0 discriminator 11
	asrs	r5, r2, #5
	ldr	r3, [r0, r5, lsl #2]
	.loc 1 307 33 discriminator 11
	and	r2, r2, #31
.LVL258:
	.loc 1 307 26 discriminator 11
	movs	r1, #1
	lsl	r2, r1, r2
	.loc 1 307 19 discriminator 11
	bic	r3, r3, r2
	str	r3, [r0, r5, lsl #2]
.LVL259:
	.loc 1 308 1 discriminator 11
	b	.L111
.LVL260:
.L114:
.LBE73:
.LBE72:
	.loc 1 811 19
	mov	r8, r0
	b	.L96
	.cfi_endproc
.LFE22:
	.size	realloc_ex, .-realloc_ex
	.section	.text.tlsf_realloc,"ax",%progbits
	.align	1
	.global	tlsf_realloc
	.syntax unified
	.thumb
	.thumb_func
	.type	tlsf_realloc, %function
tlsf_realloc:
.LFB18:
	.loc 1 661 1 is_stmt 1
	.cfi_startproc
	@ args = 0, pretend = 0, frame = 0
	@ frame_needed = 0, uses_anonymous_args = 0
.LVL261:
	push	{r3, lr}
	.cfi_def_cfa_offset 8
	.cfi_offset 3, -8
	.cfi_offset 14, -4
	.loc 1 663 5
	.loc 1 671 5
	.loc 1 671 8
	.loc 1 671 7
	.loc 1 673 5
	.loc 1 673 11 is_stmt 0
	ldr	r3, .L126
	ldr	r2, [r3]
	bl	realloc_ex
.LVL262:
	.loc 1 675 5 is_stmt 1
	.loc 1 675 8
	.loc 1 675 7
	.loc 1 677 5
	.loc 1 678 1 is_stmt 0
	pop	{r3, pc}
.L127:
	.align	2
.L126:
	.word	mp
	.cfi_endproc
.LFE18:
	.size	tlsf_realloc, .-tlsf_realloc
	.section	.text.calloc_ex,"ax",%progbits
	.align	1
	.global	calloc_ex
	.syntax unified
	.thumb
	.thumb_func
	.type	calloc_ex, %function
calloc_ex:
.LFB23:
	.loc 1 885 1 is_stmt 1
	.cfi_startproc
	@ args = 0, pretend = 0, frame = 0
	@ frame_needed = 0, uses_anonymous_args = 0
.LVL263:
	push	{r3, r4, r5, lr}
	.cfi_def_cfa_offset 16
	.cfi_offset 3, -16
	.cfi_offset 4, -12
	.cfi_offset 5, -8
	.cfi_offset 14, -4
	.loc 1 887 5
	.loc 1 889 5
	.loc 1 889 8 is_stmt 0
	cmp	r1, #0
	it	ne
	cmpne	r0, #0
	beq	.L130
	mov	r4, r0
	.loc 1 892 5 is_stmt 1
	.loc 1 892 17 is_stmt 0
	mul	r4, r1, r4
	mov	r1, r2
.LVL264:
	mov	r0, r4
.LVL265:
	bl	malloc_ex
.LVL266:
	.loc 1 892 8
	mov	r5, r0
	cbz	r0, .L128
	.loc 1 894 5 is_stmt 1
	mov	r2, r4
	movs	r1, #0
	bl	memset
.LVL267:
	.loc 1 896 5
.L128:
	.loc 1 897 1 is_stmt 0
	mov	r0, r5
	pop	{r3, r4, r5, pc}
.LVL268:
.L130:
	.loc 1 890 15
	movs	r5, #0
	b	.L128
	.cfi_endproc
.LFE23:
	.size	calloc_ex, .-calloc_ex
	.section	.text.tlsf_calloc,"ax",%progbits
	.align	1
	.global	tlsf_calloc
	.syntax unified
	.thumb
	.thumb_func
	.type	tlsf_calloc, %function
tlsf_calloc:
.LFB19:
	.loc 1 682 1 is_stmt 1
	.cfi_startproc
	@ args = 0, pretend = 0, frame = 0
	@ frame_needed = 0, uses_anonymous_args = 0
.LVL269:
	push	{r3, lr}
	.cfi_def_cfa_offset 8
	.cfi_offset 3, -8
	.cfi_offset 14, -4
	.loc 1 684 5
	.loc 1 686 5
	.loc 1 686 8
	.loc 1 686 7
	.loc 1 688 5
	.loc 1 688 11 is_stmt 0
	ldr	r3, .L134
	ldr	r2, [r3]
	bl	calloc_ex
.LVL270:
	.loc 1 690 5 is_stmt 1
	.loc 1 690 8
	.loc 1 690 7
	.loc 1 692 5
	.loc 1 693 1 is_stmt 0
	pop	{r3, pc}
.L135:
	.align	2
.L134:
	.word	mp
	.cfi_endproc
.LFE19:
	.size	tlsf_calloc, .-tlsf_calloc
	.section	.bss.mp,"aw",%nobits
	.align	2
	.type	mp, %object
	.size	mp, 4
mp:
	.space	4
	.section	.rodata.table,"a"
	.align	2
	.type	table, %object
	.size	table, 1024
table:
	.word	-1
	.word	0
	.word	1
	.word	1
	.word	2
	.word	2
	.word	2
	.word	2
	.word	3
	.word	3
	.word	3
	.word	3
	.word	3
	.word	3
	.word	3
	.word	3
	.word	4
	.word	4
	.word	4
	.word	4
	.word	4
	.word	4
	.word	4
	.word	4
	.word	4
	.word	4
	.word	4
	.word	4
	.word	4
	.word	4
	.word	4
	.word	4
	.word	5
	.word	5
	.word	5
	.word	5
	.word	5
	.word	5
	.word	5
	.word	5
	.word	5
	.word	5
	.word	5
	.word	5
	.word	5
	.word	5
	.word	5
	.word	5
	.word	5
	.word	5
	.word	5
	.word	5
	.word	5
	.word	5
	.word	5
	.word	5
	.word	5
	.word	5
	.word	5
	.word	5
	.word	5
	.word	5
	.word	5
	.word	5
	.word	6
	.word	6
	.word	6
	.word	6
	.word	6
	.word	6
	.word	6
	.word	6
	.word	6
	.word	6
	.word	6
	.word	6
	.word	6
	.word	6
	.word	6
	.word	6
	.word	6
	.word	6
	.word	6
	.word	6
	.word	6
	.word	6
	.word	6
	.word	6
	.word	6
	.word	6
	.word	6
	.word	6
	.word	6
	.word	6
	.word	6
	.word	6
	.word	6
	.word	6
	.word	6
	.word	6
	.word	6
	.word	6
	.word	6
	.word	6
	.word	6
	.word	6
	.word	6
	.word	6
	.word	6
	.word	6
	.word	6
	.word	6
	.word	6
	.word	6
	.word	6
	.word	6
	.word	6
	.word	6
	.word	6
	.word	6
	.word	6
	.word	6
	.word	6
	.word	6
	.word	6
	.word	6
	.word	6
	.word	6
	.word	7
	.word	7
	.word	7
	.word	7
	.word	7
	.word	7
	.word	7
	.word	7
	.word	7
	.word	7
	.word	7
	.word	7
	.word	7
	.word	7
	.word	7
	.word	7
	.word	7
	.word	7
	.word	7
	.word	7
	.word	7
	.word	7
	.word	7
	.word	7
	.word	7
	.word	7
	.word	7
	.word	7
	.word	7
	.word	7
	.word	7
	.word	7
	.word	7
	.word	7
	.word	7
	.word	7
	.word	7
	.word	7
	.word	7
	.word	7
	.word	7
	.word	7
	.word	7
	.word	7
	.word	7
	.word	7
	.word	7
	.word	7
	.word	7
	.word	7
	.word	7
	.word	7
	.word	7
	.word	7
	.word	7
	.word	7
	.word	7
	.word	7
	.word	7
	.word	7
	.word	7
	.word	7
	.word	7
	.word	7
	.word	7
	.word	7
	.word	7
	.word	7
	.word	7
	.word	7
	.word	7
	.word	7
	.word	7
	.word	7
	.word	7
	.word	7
	.word	7
	.word	7
	.word	7
	.word	7
	.word	7
	.word	7
	.word	7
	.word	7
	.word	7
	.word	7
	.word	7
	.word	7
	.word	7
	.word	7
	.word	7
	.word	7
	.word	7
	.word	7
	.word	7
	.word	7
	.word	7
	.word	7
	.word	7
	.word	7
	.word	7
	.word	7
	.word	7
	.word	7
	.word	7
	.word	7
	.word	7
	.word	7
	.word	7
	.word	7
	.word	7
	.word	7
	.word	7
	.word	7
	.word	7
	.word	7
	.word	7
	.word	7
	.word	7
	.word	7
	.word	7
	.word	7
	.word	7
	.word	7
	.word	7
	.word	7
	.word	7
	.word	7
	.text
.Letext0:
	.file 2 "m:\\noinstall\\arm-gnu-toolchain-12.2.rel1-mingw-w64-i686-arm-none-eabi\\lib\\gcc\\arm-none-eabi\\12.2.1\\include\\stddef.h"
	.file 3 "m:\\noinstall\\arm-gnu-toolchain-12.2.rel1-mingw-w64-i686-arm-none-eabi\\arm-none-eabi\\include\\string.h"
	.file 4 "m:\\noinstall\\arm-gnu-toolchain-12.2.rel1-mingw-w64-i686-arm-none-eabi\\arm-none-eabi\\include\\stdio.h"