	.cpu cortex-m7
	.arch armv7e-m
	.fpu fpv5-d16
	.eabi_attribute 28, 1
	.eabi_attribute 20, 1
	.eabi_attribute 21, 1
	.eabi_attribute 23, 3
	.eabi_attribute 24, 1
	.eabi_attribute 25, 1
	.eabi_attribute 26, 1
	.eabi_attribute 30, 1
	.eabi_attribute 34, 1
	.eabi_attribute 18, 4
	.file	"cpu_stack.c"
	.text
.Ltext0:
	.cfi_sections	.debug_frame
	.file 1 "D:/RTOS/CPU/ARM_CortexM4/cpu_stack.c"
	.section	.text.cpu_stack_init,"ax",%progbits
	.align	1
	.global	cpu_stack_init
	.syntax unified
	.thumb
	.thumb_func
	.type	cpu_stack_init, %function
cpu_stack_init:
.LFB42:
	.loc 1 48 1
	.cfi_startproc
	@ args = 4, pretend = 0, frame = 0
	@ frame_needed = 0, uses_anonymous_args = 0
	@ link register save eliminated.
.LVL0:
	push	{r4, r5}
	.cfi_def_cfa_offset 8
	.cfi_offset 4, -8
	.cfi_offset 5, -4
	ldr	r4, [sp, #8]
	.loc 1 49 5
	.loc 1 49 8 is_stmt 0
	cmp	r3, #71
	ble	.L3
	.loc 1 51 5 is_stmt 1
	.loc 1 51 46 is_stmt 0
	add	r3, r3, r2
.LVL1:
	.loc 1 51 16
	sub	r5, r3, #72
.LVL2:
	.loc 1 53 5 is_stmt 1
	.loc 1 53 53 is_stmt 0
	mov	r2, #16777216
.LVL3:
	str	r2, [r3, #-4]
	.loc 1 54 5 is_stmt 1
	.loc 1 54 53 is_stmt 0
	str	r0, [r3, #-8]
	.loc 1 55 5 is_stmt 1
	.loc 1 55 53 is_stmt 0
	str	r1, [r3, #-32]
	.loc 1 56 5 is_stmt 1
	.loc 1 56 52 is_stmt 0
	movs	r2, #2
	str	r2, [r3, #-68]
	.loc 1 57 5 is_stmt 1
	.loc 1 57 41 is_stmt 0
	mvn	r2, #2
	str	r2, [r3, #-72]
	.loc 1 59 5 is_stmt 1
	.loc 1 59 8 is_stmt 0
	cbz	r4, .L4
	.loc 1 60 9 is_stmt 1
	.loc 1 60 20 is_stmt 0
	str	r5, [r4]
	.loc 1 63 12
	movs	r0, #0
.LVL4:
.L1:
	.loc 1 65 1
	pop	{r4, r5}
	.cfi_remember_state
	.cfi_restore 5
	.cfi_restore 4
	.cfi_def_cfa_offset 0
.LVL5:
	bx	lr
.LVL6:
.L3:
	.cfi_restore_state
	.loc 1 49 37
	mov	r0, #-1
.LVL7:
	b	.L1
.LVL8:
.L4:
	.loc 1 63 12
	movs	r0, #0
.LVL9:
	b	.L1
	.cfi_endproc
.LFE42:
	.size	cpu_stack_init, .-cpu_stack_init
	.section	.rodata.cpu_stack_switch.str1.4,"aMS",%progbits,1
	.align	2
.LC0:
	.ascii	"cpu_stack__switch_flag is on!!!\012\000"
	.section	.text.cpu_stack_switch,"ax",%progbits
	.align	1
	.global	cpu_stack_switch
	.syntax unified
	.thumb
	.thumb_func
	.type	cpu_stack_switch, %function
cpu_stack_switch:
.LFB43:
	.loc 1 74 1 is_stmt 1
	.cfi_startproc
	@ args = 0, pretend = 0, frame = 0
	@ frame_needed = 0, uses_anonymous_args = 0
.LVL10:
	push	{r3, lr}
	.cfi_def_cfa_offset 8
	.cfi_offset 3, -8
	.cfi_offset 14, -4
	.loc 1 75 5
	.loc 1 75 30 is_stmt 0
	ldr	r3, .L12
	ldrb	r3, [r3]	@ zero_extendqisi2
	uxtb	r3, r3
	.loc 1 75 7
	cmp	r3, #1
	beq	.L11
	.loc 1 80 5 is_stmt 1
.LVL11:
.LBB59:
.LBB60:
	.file 2 "D:/RTOS/CPU/ARM_CortexM4/cpu_lock.h"
	.loc 2 30 5
.LBB61:
.LBB62:
	.file 3 "D:/RTOS/CPU/ARM_CortexM4/cpu_interrupt.h"
	.loc 3 19 5
	.loc 3 20 5
.LBB63:
.LBB64:
	.file 4 "D:/RTOS/CPU/ARM_CortexM4/GCC/cpu_functions.h"
	.loc 4 165 5
	.loc 4 167 5
	.syntax unified
@ 167 "D:/RTOS/CPU/ARM_CortexM4/GCC/cpu_functions.h" 1
	MRS r2, primask
@ 0 "" 2
.LVL12:
	.loc 4 168 5
	.thumb
	.syntax unified
.LBE64:
.LBE63:
	.loc 3 21 5
.LBB65:
.LBB66:
	.loc 4 41 5
	.syntax unified
@ 41 "D:/RTOS/CPU/ARM_CortexM4/GCC/cpu_functions.h" 1
	cpsid i
@ 0 "" 2
	.thumb
	.syntax unified
.LBE66:
.LBE65:
	.loc 3 22 5
.LBB67:
.LBB68:
	.loc 4 335 5
	.syntax unified
@ 335 "D:/RTOS/CPU/ARM_CortexM4/GCC/cpu_functions.h" 1
	isb 0xF
@ 0 "" 2
	.thumb
	.syntax unified
.LBE68:
.LBE67:
	.loc 3 23 5
.LBB69:
.LBB70:
	.loc 4 357 5
	.syntax unified
@ 357 "D:/RTOS/CPU/ARM_CortexM4/GCC/cpu_functions.h" 1
	dmb 0xF
@ 0 "" 2
	.thumb
	.syntax unified
.LBE70:
.LBE69:
	.loc 3 24 5
.LBE62:
.LBE61:
	.loc 2 30 11 is_stmt 0
	ldr	r3, .L12+4
	str	r2, [r3]
.LVL13:
.LBE60:
.LBE59:
	.loc 1 81 5 is_stmt 1
	.loc 1 81 28 is_stmt 0
	ldr	r2, .L12
.LVL14:
	mov	ip, #1
	strb	ip, [r2]
.LVL15:
	.loc 1 82 5 is_stmt 1
	.loc 1 82 23 is_stmt 0
	ldr	r2, .L12+8
	str	r0, [r2]
	.loc 1 83 5 is_stmt 1
	.loc 1 83 23 is_stmt 0
	ldr	r2, .L12+12
	str	r1, [r2]
	.loc 1 84 5 is_stmt 1
.LVL16:
.LBB71:
.LBB72:
	.loc 2 34 5
	ldr	r3, [r3]
.LVL17:
.LBB73:
	.loc 3 28 5
.LBB74:
.LBB75:
	.loc 4 179 5
	.syntax unified
@ 179 "D:/RTOS/CPU/ARM_CortexM4/GCC/cpu_functions.h" 1
	MSR primask, r3
@ 0 "" 2
.LVL18:
	.thumb
	.syntax unified
.LBE75:
.LBE74:
	.loc 3 29 5
.LBB76:
.LBB77:
	.loc 4 335 5
	.syntax unified
@ 335 "D:/RTOS/CPU/ARM_CortexM4/GCC/cpu_functions.h" 1
	isb 0xF
@ 0 "" 2
.LVL19:
	.thumb
	.syntax unified
.LBE77:
.LBE76:
.LBE73:
.LBE72:
.LBE71:
	.loc 1 86 5
.LBB78:
.LBB79:
	.loc 4 516 5
.LBB80:
.LBB81:
	.loc 4 76 5
	.loc 4 78 5
	.syntax unified
@ 78 "D:/RTOS/CPU/ARM_CortexM4/GCC/cpu_functions.h" 1
	MRS r3, ipsr
@ 0 "" 2
.LVL20:
	.loc 4 79 5
	.thumb
	.syntax unified
.LBE81:
.LBE80:
	.loc 4 516 7 is_stmt 0
	cbnz	r3, .L8
	.loc 4 517 10 is_stmt 1
.LBB82:
.LBB83:
	.loc 4 51 5
	.loc 4 53 5
	.syntax unified
@ 53 "D:/RTOS/CPU/ARM_CortexM4/GCC/cpu_functions.h" 1
	MRS r3, control
@ 0 "" 2
.LVL21:
	.loc 4 54 5
	.thumb
	.syntax unified
.LBE83:
.LBE82:
	.loc 4 517 12 is_stmt 0
	tst	r3, #1
	beq	.L8
	.loc 4 518 10 is_stmt 1
.LBE79:
.LBE78:
	.loc 1 92 9
	.syntax unified
@ 92 "D:/RTOS/CPU/ARM_CortexM4/cpu_stack.c" 1
	svc 0
@ 0 "" 2
	.thumb
	.syntax unified
	b	.L6
.LVL22:
.L11:
	.loc 1 76 9
	ldr	r0, .L12+16
.LVL23:
	bl	printf
.LVL24:
	.loc 1 77 9
	.loc 1 77 16 is_stmt 0
	mov	r0, #-1
	b	.L6
.LVL25:
.L8:
	.loc 1 89 9 is_stmt 1
	.loc 1 89 10 is_stmt 0
	mov	r2, #-536813568
	ldr	r3, [r2, #3332]
	.loc 1 89 53
	orr	r3, r3, #268435456
	str	r3, [r2, #3332]
.LVL26:
.L6:
	.loc 1 94 1
	pop	{r3, pc}
.L13:
	.align	2
.L12:
	.word	cpu_stack__switch_flag
	.word	cpu_stack__lock
	.word	cpu_stack__curr_p
	.word	cpu_stack__next_p
	.word	.LC0
	.cfi_endproc
.LFE43:
	.size	cpu_stack_switch, .-cpu_stack_switch
	.section	.text.cpu_stack_is_switch_in_progress,"ax",%progbits
	.align	1
	.global	cpu_stack_is_switch_in_progress
	.syntax unified
	.thumb
	.thumb_func
	.type	cpu_stack_is_switch_in_progress, %function
cpu_stack_is_switch_in_progress:
.LFB44:
	.loc 1 97 1 is_stmt 1
	.cfi_startproc
	@ args = 0, pretend = 0, frame = 0
	@ frame_needed = 0, uses_anonymous_args = 0
	@ link register save eliminated.
	.loc 1 98 5
	.loc 1 98 41 is_stmt 0
	ldr	r3, .L15
	ldrb	r0, [r3]	@ zero_extendqisi2
	uxtb	r0, r0
	.loc 1 99 1
	cmp	r0, #1
	ite	ne
	movne	r0, #0
	moveq	r0, #1
	bx	lr
.L16:
	.align	2
.L15:
	.word	cpu_stack__switch_flag
	.cfi_endproc
.LFE44:
	.size	cpu_stack_is_switch_in_progress, .-cpu_stack_is_switch_in_progress
	.section	.bss.cpu_stack__lock,"aw",%nobits
	.align	2
	.type	cpu_stack__lock, %object
	.size	cpu_stack__lock, 4
cpu_stack__lock:
	.space	4
	.global	cpu_stack__next_p
	.section	.bss.cpu_stack__next_p,"aw",%nobits
	.align	2
	.type	cpu_stack__next_p, %object
	.size	cpu_stack__next_p, 4
cpu_stack__next_p:
	.space	4
	.global	cpu_stack__curr_p
	.section	.bss.cpu_stack__curr_p,"aw",%nobits
	.align	2
	.type	cpu_stack__curr_p, %object
	.size	cpu_stack__curr_p, 4
cpu_stack__curr_p:
	.space	4
	.global	cpu_stack__switch_flag
	.section	.bss.cpu_stack__switch_flag,"aw",%nobits
	.type	cpu_stack__switch_flag, %object
	.size	cpu_stack__switch_flag, 1
cpu_stack__switch_flag:
	.space	1
	.text
.Letext0:
	.file 5 "m:\\noinstall\\arm-gnu-toolchain-12.2.rel1-mingw-w64-i686-arm-none-eabi\\arm-none-eabi\\include\\machine\\_default_types.h"
	.file 6 "m:\\noinstall\\arm-gnu-toolchain-12.2.rel1-mingw-w64-i686-arm-none-eabi\\arm-none-eabi\\include\\sys\\_stdint.h"
	.file 7 "D:/RTOS/CPU/ARM_CortexM4/cpu_types.h"
	.file 8 "D:/RTOS/CPU/ARM_CortexM4/cpu_stack.h"
	.file 9 "m:\\noinstall\\arm-gnu-toolchain-12.2.rel1-mingw-w64-i686-arm-none-eabi\\arm-none-eabi\\include\\stdio.h"