	.cpu cortex-m7
	.arch armv7e-m
	.fpu fpv5-d16
	.eabi_attribute 28, 1
	.eabi_attribute 20, 1
	.eabi_attribute 21, 1
	.eabi_attribute 23, 3
	.eabi_attribute 24, 1
	.eabi_attribute 25, 1
	.eabi_attribute 26, 1
	.eabi_attribute 30, 1
	.eabi_attribute 34, 1
	.eabi_attribute 18, 4
	.file	"os_interrupt.c"
	.text
.Ltext0:
	.cfi_sections	.debug_frame
	.file 1 "D:/RTOS/Kernel/os_interrupt.c"
	.section	.text.os_interrupt_init,"ax",%progbits
	.align	1
	.global	os_interrupt_init
	.syntax unified
	.thumb
	.thumb_func
	.type	os_interrupt_init, %function
os_interrupt_init:
.LFB45:
	.loc 1 13 29
	.cfi_startproc
	@ args = 0, pretend = 0, frame = 0
	@ frame_needed = 0, uses_anonymous_args = 0
	@ link register save eliminated.
	.loc 1 14 5
	.loc 1 14 24 is_stmt 0
	ldr	r3, .L2
	movs	r2, #0
	str	r2, [r3]
	.loc 1 15 1
	bx	lr
.L3:
	.align	2
.L2:
	.word	os_interrupt__nest
	.cfi_endproc
.LFE45:
	.size	os_interrupt_init, .-os_interrupt_init
	.section	.text.os_interrupt_enter,"ax",%progbits
	.align	1
	.global	os_interrupt_enter
	.syntax unified
	.thumb
	.thumb_func
	.type	os_interrupt_enter, %function
os_interrupt_enter:
.LFB46:
	.loc 1 18 1 is_stmt 1
	.cfi_startproc
	@ args = 0, pretend = 0, frame = 0
	@ frame_needed = 0, uses_anonymous_args = 0
	@ link register save eliminated.
	.loc 1 19 5
.LVL0:
.LBB38:
.LBB39:
	.file 2 "D:/RTOS/CPU/ARM_CortexM4/cpu_atomic.h"
	.loc 2 16 5
	.loc 2 17 5
	.loc 2 18 5
.LBB40:
.LBB41:
	.file 3 "D:/RTOS/CPU/ARM_CortexM4/GCC/cpu_functions.h"
	.loc 3 357 5
	.syntax unified
@ 357 "D:/RTOS/CPU/ARM_CortexM4/GCC/cpu_functions.h" 1
	dmb 0xF
@ 0 "" 2
	.thumb
	.syntax unified
.L5:
.LBE41:
.LBE40:
	.loc 2 19 5
	.loc 2 20 9
.LVL1:
.LBB42:
.LBB43:
	.loc 3 445 5
	.loc 3 447 5
	ldr	r2, .L6
	.syntax unified
@ 447 "D:/RTOS/CPU/ARM_CortexM4/GCC/cpu_functions.h" 1
	ldrex r3, [r2]
@ 0 "" 2
.LVL2:
	.loc 3 448 5
	.thumb
	.syntax unified
.LBE43:
.LBE42:
	.loc 2 21 9
	.loc 2 21 16 is_stmt 0
	adds	r3, r3, #1
.LVL3:
	.loc 2 22 9 is_stmt 1
.LBB44:
.LBB45:
	.loc 3 496 1
	.loc 3 498 1
	.syntax unified
@ 498 "D:/RTOS/CPU/ARM_CortexM4/GCC/cpu_functions.h" 1
	strex r1, r3, [r2]
@ 0 "" 2
.LVL4:
	.loc 3 499 1
	.thumb
	.syntax unified
.LBE45:
.LBE44:
	.loc 2 23 15
	cmp	r1, #0
	bne	.L5
	.loc 2 24 5
.LBB46:
.LBB47:
	.loc 3 357 5
	.syntax unified
@ 357 "D:/RTOS/CPU/ARM_CortexM4/GCC/cpu_functions.h" 1
	dmb 0xF
@ 0 "" 2
	.thumb
	.syntax unified
.LBE47:
.LBE46:
	.loc 2 25 5
.LVL5:
.LBE39:
.LBE38:
	.loc 1 20 1 is_stmt 0
	bx	lr
.L7:
	.align	2
.L6:
	.word	os_interrupt__nest
	.cfi_endproc
.LFE46:
	.size	os_interrupt_enter, .-os_interrupt_enter
	.section	.text.os_interrupt_exit,"ax",%progbits
	.align	1
	.global	os_interrupt_exit
	.syntax unified
	.thumb
	.thumb_func
	.type	os_interrupt_exit, %function
os_interrupt_exit:
.LFB47:
	.loc 1 22 29 is_stmt 1
	.cfi_startproc
	@ args = 0, pretend = 0, frame = 0
	@ frame_needed = 0, uses_anonymous_args = 0
	@ link register save eliminated.
	.loc 1 23 5
.LVL6:
.LBB48:
.LBB49:
	.loc 2 30 5
.LBB50:
.LBB51:
	.loc 3 357 5
	.syntax unified
@ 357 "D:/RTOS/CPU/ARM_CortexM4/GCC/cpu_functions.h" 1
	dmb 0xF
@ 0 "" 2
	.thumb
	.syntax unified
.L9:
.LBE51:
.LBE50:
	.loc 2 31 5
	.loc 2 32 5
	.loc 2 33 5
	.loc 2 34 9
.LVL7:
.LBB52:
.LBB53:
	.loc 3 445 5
	.loc 3 447 5
	ldr	r2, .L10
	.syntax unified
@ 447 "D:/RTOS/CPU/ARM_CortexM4/GCC/cpu_functions.h" 1
	ldrex r3, [r2]
@ 0 "" 2
.LVL8:
	.loc 3 448 5
	.thumb
	.syntax unified
.LBE53:
.LBE52:
	.loc 2 35 9
	.loc 2 35 16 is_stmt 0
	subs	r3, r3, #1
.LVL9:
	.loc 2 36 9 is_stmt 1
.LBB54:
.LBB55:
	.loc 3 496 1
	.loc 3 498 1
	.syntax unified
@ 498 "D:/RTOS/CPU/ARM_CortexM4/GCC/cpu_functions.h" 1
	strex r1, r3, [r2]
@ 0 "" 2
.LVL10:
	.loc 3 499 1
	.thumb
	.syntax unified
.LBE55:
.LBE54:
	.loc 2 37 15
	cmp	r1, #0
	bne	.L9
	.loc 2 38 5
.LBB56:
.LBB57:
	.loc 3 357 5
	.syntax unified
@ 357 "D:/RTOS/CPU/ARM_CortexM4/GCC/cpu_functions.h" 1
	dmb 0xF
@ 0 "" 2
	.thumb
	.syntax unified
.LBE57:
.LBE56:
	.loc 2 39 5
.LVL11:
.LBE49:
.LBE48:
	.loc 1 34 1 is_stmt 0
	bx	lr
.L11:
	.align	2
.L10:
	.word	os_interrupt__nest
	.cfi_endproc
.LFE47:
	.size	os_interrupt_exit, .-os_interrupt_exit
	.section	.text.os_interrupt_nest,"ax",%progbits
	.align	1
	.global	os_interrupt_nest
	.syntax unified
	.thumb
	.thumb_func
	.type	os_interrupt_nest, %function
os_interrupt_nest:
.LFB48:
	.loc 1 36 34 is_stmt 1
	.cfi_startproc
	@ args = 0, pretend = 0, frame = 0
	@ frame_needed = 0, uses_anonymous_args = 0
	@ link register save eliminated.
	.loc 1 37 5
	.loc 1 37 12 is_stmt 0
	ldr	r3, .L13
	ldr	r0, [r3]
	.loc 1 38 1
	bx	lr
.L14:
	.align	2
.L13:
	.word	os_interrupt__nest
	.cfi_endproc
.LFE48:
	.size	os_interrupt_nest, .-os_interrupt_nest
	.section	.bss.os_interrupt__nest,"aw",%nobits
	.align	2
	.type	os_interrupt__nest, %object
	.size	os_interrupt__nest, 4
os_interrupt__nest:
	.space	4
	.text
.Letext0:
	.file 4 "m:\\noinstall\\arm-gnu-toolchain-12.2.rel1-mingw-w64-i686-arm-none-eabi\\arm-none-eabi\\include\\machine\\_default_types.h"
	.file 5 "m:\\noinstall\\arm-gnu-toolchain-12.2.rel1-mingw-w64-i686-arm-none-eabi\\arm-none-eabi\\include\\sys\\_stdint.h"
	.file 6 "D:/RTOS/CPU/ARM_CortexM4/cpu_types.h"
	.file 7 "D:/RTOS/Kernel/os_types.h"