	.cpu cortex-m7
	.arch armv7e-m
	.fpu fpv5-d16
	.eabi_attribute 28, 1
	.eabi_attribute 20, 1
	.eabi_attribute 21, 1
	.eabi_attribute 23, 3
	.eabi_attribute 24, 1
	.eabi_attribute 25, 1
	.eabi_attribute 26, 1
	.eabi_attribute 30, 1
	.eabi_attribute 34, 1
	.eabi_attribute 18, 4
	.file	"os_kernel.c"
	.text
.Ltext0:
	.cfi_sections	.debug_frame
	.file 1 "D:/RTOS/Kernel/os_kernel.c"
	.section	.text.os_kernel_init,"ax",%progbits
	.align	1
	.global	os_kernel_init
	.syntax unified
	.thumb
	.thumb_func
	.type	os_kernel_init, %function
os_kernel_init:
.LFB45:
	.loc 1 5 1
	.cfi_startproc
	@ args = 0, pretend = 0, frame = 0
	@ frame_needed = 0, uses_anonymous_args = 0
	push	{r3, lr}
	.cfi_def_cfa_offset 8
	.cfi_offset 3, -8
	.cfi_offset 14, -4
	.loc 1 6 5
	bl	os_memory_init
.LVL0:
	.loc 1 8 5
	bl	os_priority_init
.LVL1:
	.loc 1 10 5
	bl	os_timer_init
.LVL2:
	.loc 1 12 5
	bl	os_interrupt_init
.LVL3:
	.loc 1 14 5
	bl	os_scheduler_init
.LVL4:
	.loc 1 16 5
	bl	os_idle_init
.LVL5:
	.loc 1 18 5
	.loc 1 19 1 is_stmt 0
	movs	r0, #0
	pop	{r3, pc}
	.cfi_endproc
.LFE45:
	.size	os_kernel_init, .-os_kernel_init
	.section	.text.os_kernel_startup,"ax",%progbits
	.align	1
	.global	os_kernel_startup
	.syntax unified
	.thumb
	.thumb_func
	.type	os_kernel_startup, %function
os_kernel_startup:
.LFB46:
	.loc 1 22 1 is_stmt 1
	.cfi_startproc
	@ args = 0, pretend = 0, frame = 0
	@ frame_needed = 0, uses_anonymous_args = 0
	push	{r3, lr}
	.cfi_def_cfa_offset 8
	.cfi_offset 3, -8
	.cfi_offset 14, -4
	.loc 1 23 5
	.loc 1 23 12 is_stmt 0
	bl	os_scheduler_startup
.LVL6:
	.loc 1 24 1
	pop	{r3, pc}
	.cfi_endproc
.LFE46:
	.size	os_kernel_startup, .-os_kernel_startup
	.text
.Letext0:
	.file 2 "m:\\noinstall\\arm-gnu-toolchain-12.2.rel1-mingw-w64-i686-arm-none-eabi\\arm-none-eabi\\include\\machine\\_default_types.h"
	.file 3 "m:\\noinstall\\arm-gnu-toolchain-12.2.rel1-mingw-w64-i686-arm-none-eabi\\arm-none-eabi\\include\\sys\\_stdint.h"
	.file 4 "D:/RTOS/Kernel/os_types.h"
	.file 5 "D:/RTOS/Kernel/os_errors.h"
	.file 6 "D:/RTOS/Kernel/os_scheduler.h"
	.file 7 "D:/RTOS/Kernel/os_idle.h"
	.file 8 "D:/RTOS/Kernel/os_timer.h"
	.file 9 "D:/RTOS/Kernel/os_memory.h"
	.file 10 "D:/RTOS/Kernel/os_priority.h"