	.cpu cortex-m7
	.arch armv7e-m
	.fpu fpv5-d16
	.eabi_attribute 28, 1
	.eabi_attribute 20, 1
	.eabi_attribute 21, 1
	.eabi_attribute 23, 3
	.eabi_attribute 24, 1
	.eabi_attribute 25, 1
	.eabi_attribute 26, 1
	.eabi_attribute 30, 1
	.eabi_attribute 34, 1
	.eabi_attribute 18, 4
	.file	"os_memory.c"
	.text
.Ltext0:
	.cfi_sections	.debug_frame
	.file 1 "D:/RTOS/Kernel/os_memory.c"
	.section	.text.os_memory_init,"ax",%progbits
	.align	1
	.global	os_memory_init
	.syntax unified
	.thumb
	.thumb_func
	.type	os_memory_init, %function
os_memory_init:
.LFB45:
	.loc 1 12 1
	.cfi_startproc
	@ args = 0, pretend = 0, frame = 0
	@ frame_needed = 0, uses_anonymous_args = 0
	push	{r3, lr}
	.cfi_def_cfa_offset 8
	.cfi_offset 3, -8
	.cfi_offset 14, -4
	.loc 1 13 5
	.loc 1 13 22 is_stmt 0
	ldr	r1, .L6
	mov	r0, #10240
	bl	init_memory_pool
.LVL0:
	.loc 1 14 5 is_stmt 1
	.loc 1 14 7 is_stmt 0
	cbz	r0, .L5
	.loc 1 15 16
	movs	r0, #0
.LVL1:
.L1:
	.loc 1 18 1
	pop	{r3, pc}
.LVL2:
.L5:
	.loc 1 17 12
	mov	r0, #-1
.LVL3:
	b	.L1
.L7:
	.align	2
.L6:
	.word	os_memory__blocks
	.cfi_endproc
.LFE45:
	.size	os_memory_init, .-os_memory_init
	.section	.text.os_memory_destroy,"ax",%progbits
	.align	1
	.global	os_memory_destroy
	.syntax unified
	.thumb
	.thumb_func
	.type	os_memory_destroy, %function
os_memory_destroy:
.LFB46:
	.loc 1 21 1 is_stmt 1
	.cfi_startproc
	@ args = 0, pretend = 0, frame = 0
	@ frame_needed = 0, uses_anonymous_args = 0
	push	{r3, lr}
	.cfi_def_cfa_offset 8
	.cfi_offset 3, -8
	.cfi_offset 14, -4
	.loc 1 22 5
	ldr	r0, .L10
	bl	destroy_memory_pool
.LVL4:
	.loc 1 23 1 is_stmt 0
	pop	{r3, pc}
.L11:
	.align	2
.L10:
	.word	os_memory__blocks
	.cfi_endproc
.LFE46:
	.size	os_memory_destroy, .-os_memory_destroy
	.section	.text.os_memory_malloc,"ax",%progbits
	.align	1
	.global	os_memory_malloc
	.syntax unified
	.thumb
	.thumb_func
	.type	os_memory_malloc, %function
os_memory_malloc:
.LFB47:
	.loc 1 26 1 is_stmt 1
	.cfi_startproc
	@ args = 0, pretend = 0, frame = 0
	@ frame_needed = 0, uses_anonymous_args = 0
.LVL5:
	push	{r3, lr}
	.cfi_def_cfa_offset 8
	.cfi_offset 3, -8
	.cfi_offset 14, -4
	.loc 1 27 5
	.loc 1 27 12 is_stmt 0
	bl	tlsf_malloc
.LVL6:
	.loc 1 28 1
	pop	{r3, pc}
	.cfi_endproc
.LFE47:
	.size	os_memory_malloc, .-os_memory_malloc
	.section	.text.os_memory_calloc,"ax",%progbits
	.align	1
	.global	os_memory_calloc
	.syntax unified
	.thumb
	.thumb_func
	.type	os_memory_calloc, %function
os_memory_calloc:
.LFB48:
	.loc 1 31 1 is_stmt 1
	.cfi_startproc
	@ args = 0, pretend = 0, frame = 0
	@ frame_needed = 0, uses_anonymous_args = 0
.LVL7:
	push	{r3, lr}
	.cfi_def_cfa_offset 8
	.cfi_offset 3, -8
	.cfi_offset 14, -4
	.loc 1 32 5
	.loc 1 32 12 is_stmt 0
	bl	tlsf_calloc
.LVL8:
	.loc 1 33 1
	pop	{r3, pc}
	.cfi_endproc
.LFE48:
	.size	os_memory_calloc, .-os_memory_calloc
	.section	.text.os_memory_realloc,"ax",%progbits
	.align	1
	.global	os_memory_realloc
	.syntax unified
	.thumb
	.thumb_func
	.type	os_memory_realloc, %function
os_memory_realloc:
.LFB49:
	.loc 1 36 1 is_stmt 1
	.cfi_startproc
	@ args = 0, pretend = 0, frame = 0
	@ frame_needed = 0, uses_anonymous_args = 0
.LVL9:
	push	{r3, lr}
	.cfi_def_cfa_offset 8
	.cfi_offset 3, -8
	.cfi_offset 14, -4
	.loc 1 37 5
	.loc 1 37 12 is_stmt 0
	bl	tlsf_realloc
.LVL10:
	.loc 1 38 1
	pop	{r3, pc}
	.cfi_endproc
.LFE49:
	.size	os_memory_realloc, .-os_memory_realloc
	.section	.text.os_memory_free,"ax",%progbits
	.align	1
	.global	os_memory_free
	.syntax unified
	.thumb
	.thumb_func
	.type	os_memory_free, %function
os_memory_free:
.LFB50:
	.loc 1 41 1 is_stmt 1
	.cfi_startproc
	@ args = 0, pretend = 0, frame = 0
	@ frame_needed = 0, uses_anonymous_args = 0
.LVL11:
	.loc 1 42 5
	.loc 1 42 7 is_stmt 0
	cbz	r0, .L21
	.loc 1 41 1
	push	{r3, lr}
	.cfi_def_cfa_offset 8
	.cfi_offset 3, -8
	.cfi_offset 14, -4
	.loc 1 43 9 is_stmt 1
	bl	tlsf_free
.LVL12:
	.loc 1 45 1 is_stmt 0
	pop	{r3, pc}
.LVL13:
.L21:
	.cfi_def_cfa_offset 0
	.cfi_restore 3
	.cfi_restore 14
	bx	lr
	.cfi_endproc
.LFE50:
	.size	os_memory_free, .-os_memory_free
	.section	.bss.os_memory__blocks,"aw",%nobits
	.align	2
	.type	os_memory__blocks, %object
	.size	os_memory__blocks, 10240
os_memory__blocks:
	.space	10240
	.text
.Letext0:
	.file 2 "m:\\noinstall\\arm-gnu-toolchain-12.2.rel1-mingw-w64-i686-arm-none-eabi\\arm-none-eabi\\include\\machine\\_default_types.h"
	.file 3 "m:\\noinstall\\arm-gnu-toolchain-12.2.rel1-mingw-w64-i686-arm-none-eabi\\arm-none-eabi\\include\\sys\\_stdint.h"
	.file 4 "m:\\noinstall\\arm-gnu-toolchain-12.2.rel1-mingw-w64-i686-arm-none-eabi\\lib\\gcc\\arm-none-eabi\\12.2.1\\include\\stddef.h"
	.file 5 "D:/RTOS/Kernel/os_types.h"
	.file 6 "D:/RTOS/Kernel/os_errors.h"
	.file 7 "D:/RTOS/Board/YD-STM32H7xxVx_ClassicV19/cmake-build-debug/_deps/tlsf-src-src/src/tlsf.h"