	.cpu cortex-m7
	.arch armv7e-m
	.fpu fpv5-d16
	.eabi_attribute 28, 1
	.eabi_attribute 20, 1
	.eabi_attribute 21, 1
	.eabi_attribute 23, 3
	.eabi_attribute 24, 1
	.eabi_attribute 25, 1
	.eabi_attribute 26, 1
	.eabi_attribute 30, 1
	.eabi_attribute 34, 1
	.eabi_attribute 18, 4
	.file	"os_scheduler.c"
	.text
.Ltext0:
	.cfi_sections	.debug_frame
	.file 1 "D:/RTOS/Kernel/os_scheduler.c"
	.section	.rodata.os_scheduler__timer_timeout.str1.4,"aMS",%progbits,1
	.align	2
.LC0:
	.ascii	"[sch] invalid thread!\012\000"
	.section	.text.os_scheduler__timer_timeout,"ax",%progbits
	.align	1
	.syntax unified
	.thumb
	.thumb_func
	.type	os_scheduler__timer_timeout, %function
os_scheduler__timer_timeout:
.LFB51:
	.loc 1 85 76
	.cfi_startproc
	@ args = 0, pretend = 0, frame = 0
	@ frame_needed = 0, uses_anonymous_args = 0
.LVL0:
	push	{r3, r4, r5, lr}
	.cfi_def_cfa_offset 16
	.cfi_offset 3, -16
	.cfi_offset 4, -12
	.cfi_offset 5, -8
	.cfi_offset 14, -4
	mov	r4, r0
	.loc 1 87 5
	.loc 1 87 18 is_stmt 0
	sub	r5, r0, #44
.LVL1:
	.loc 1 89 5 is_stmt 1
	.loc 1 89 19 is_stmt 0
	mvn	r3, #5
	str	r3, [r0, #48]
	.loc 1 90 5 is_stmt 1
	.loc 1 90 8 is_stmt 0
	bl	os_interrupt_nest
.LVL2:
	.loc 1 90 7
	cbz	r0, .L2
	.loc 1 91 9 is_stmt 1
.LVL3:
.LBB294:
.LBB295:
	.loc 1 53 5
	.loc 1 54 5
	.loc 1 54 14 is_stmt 0
	ldr	r2, [r4, #-44]
	.loc 1 54 27
	ldr	r3, [r4, #-24]
	.loc 1 54 7
	cmp	r2, r3
	bcc	.L3
	.loc 1 54 83
	ldr	r1, [r4, #-20]
	.loc 1 54 75
	add	r3, r3, r1
	.loc 1 54 40
	cmp	r2, r3
	bcs	.L3
	.loc 1 58 5 is_stmt 1
	.loc 1 58 9
	.loc 1 58 31 is_stmt 0
	ldr	r3, [r4, #-16]
	.loc 1 58 68
	ldr	r2, [r4, #-12]
	.loc 1 58 45
	str	r2, [r3, #4]
	.loc 1 58 76 is_stmt 1
	.loc 1 58 135 is_stmt 0
	mov	r3, r4
	ldr	r1, [r3, #-16]!
	.loc 1 58 112
	str	r1, [r2]
	.loc 1 58 143 is_stmt 1
	.loc 1 58 201 is_stmt 0
	str	r3, [r4, #-16]
	.loc 1 58 171
	str	r3, [r4, #-12]
	.loc 1 58 7 is_stmt 1
	.loc 1 59 5
	.loc 1 59 9
	.loc 1 59 39 is_stmt 0
	ldr	r2, .L11
	ldr	r1, [r2]
	.loc 1 59 53
	str	r3, [r1, #4]
	.loc 1 59 78 is_stmt 1
	.loc 1 59 106 is_stmt 0
	str	r1, [r4, #-16]
	.loc 1 59 145 is_stmt 1
	.loc 1 59 181 is_stmt 0
	str	r3, [r2]
	.loc 1 59 206 is_stmt 1
	.loc 1 59 234 is_stmt 0
	str	r2, [r4, #-12]
.LVL4:
.L1:
.LBE295:
.LBE294:
	.loc 1 95 1
	pop	{r3, r4, r5, pc}
.LVL5:
.L3:
.LBB297:
.LBB296:
	.loc 1 55 9 is_stmt 1
	ldr	r0, .L11+4
	bl	printf
.LVL6:
	.loc 1 56 9
	b	.L1
.LVL7:
.L2:
.LBE296:
.LBE297:
	.loc 1 93 9
.LBB298:
.LBB299:
	.loc 1 63 5
	.loc 1 64 5
	.loc 1 64 19 is_stmt 0
	ldr	r0, [r4, #32]
.LVL8:
	.loc 1 65 5 is_stmt 1
	.loc 1 65 17 is_stmt 0
	ldr	r1, .L11+8
	add	r1, r1, r0, lsl #3
.LVL9:
	.loc 1 66 5 is_stmt 1
	.loc 1 67 5
	.loc 1 67 14 is_stmt 0
	ldr	r3, [r1, #4]
.LVL10:
	.loc 1 67 5
	b	.L6
.LVL11:
.L10:
.LBB300:
	.loc 1 72 9 is_stmt 1
	.loc 1 72 14 is_stmt 0
	ldr	r3, [r3, #4]
.LVL12:
.L6:
.LBE300:
	.loc 1 67 34 is_stmt 1
	cmp	r1, r3
	beq	.L9
.LBB301:
	.loc 1 68 9
	.loc 1 68 22 is_stmt 0
	sub	r2, r3, #28
.LVL13:
	.loc 1 69 9 is_stmt 1
	.loc 1 69 11 is_stmt 0
	cmp	r5, r2
	bne	.L10
	b	.L1
.LVL14:
.L9:
.LBE301:
	.loc 1 74 5 is_stmt 1
	.loc 1 74 9
	.loc 1 74 31 is_stmt 0
	ldr	r3, [r4, #-16]
.LVL15:
	.loc 1 74 68
	ldr	r2, [r4, #-12]
	.loc 1 74 45
	str	r2, [r3, #4]
	.loc 1 74 76 is_stmt 1
	.loc 1 74 135 is_stmt 0
	mov	r3, r4
	ldr	r5, [r3, #-16]!
.LVL16:
	.loc 1 74 112
	str	r5, [r2]
	.loc 1 74 143 is_stmt 1
	.loc 1 74 201 is_stmt 0
	str	r3, [r4, #-16]
	.loc 1 74 171
	str	r3, [r4, #-12]
	.loc 1 74 7 is_stmt 1
	.loc 1 75 5
	.loc 1 75 19 is_stmt 0
	movs	r2, #2
	str	r2, [r4, #44]
	.loc 1 76 5 is_stmt 1
	.loc 1 77 9
	.loc 1 77 13
	.loc 1 77 20 is_stmt 0
	ldr	r2, .L11+8
	ldr	r5, [r2, r0, lsl #3]
	.loc 1 77 34
	str	r3, [r5, #4]
	.loc 1 77 59 is_stmt 1
	.loc 1 77 95 is_stmt 0
	ldr	r5, [r2, r0, lsl #3]
	.loc 1 77 87
	str	r5, [r4, #-16]
	.loc 1 77 103 is_stmt 1
	.loc 1 77 116 is_stmt 0
	str	r3, [r2, r0, lsl #3]
	.loc 1 77 141 is_stmt 1
	.loc 1 77 169 is_stmt 0
	str	r1, [r4, #-12]
	.loc 1 77 11 is_stmt 1
	.loc 1 79 11
	.loc 1 81 5
	bl	os_priority_mark
.LVL17:
.LBE299:
.LBE298:
	.loc 1 95 1 is_stmt 0
	b	.L1
.L12:
	.align	2
.L11:
	.word	os_scheduler__pending_list
	.word	.LC0
	.word	os_scheduler__ready_list
	.cfi_endproc
.LFE51:
	.size	os_scheduler__timer_timeout, .-os_scheduler__timer_timeout
	.section	.text.os_scheduler_init,"ax",%progbits
	.align	1
	.global	os_scheduler_init
	.syntax unified
	.thumb
	.thumb_func
	.type	os_scheduler_init, %function
os_scheduler_init:
.LFB52:
	.loc 1 101 33 is_stmt 1
	.cfi_startproc
	@ args = 0, pretend = 0, frame = 0
	@ frame_needed = 0, uses_anonymous_args = 0
	@ link register save eliminated.
	.loc 1 102 5
	.loc 1 103 5
.LVL18:
	.loc 1 103 10 is_stmt 0
	movs	r3, #0
	.loc 1 103 5
	b	.L14
.LVL19:
.L15:
	.loc 1 104 9 is_stmt 1 discriminator 3
	.loc 1 104 13 discriminator 3
	.loc 1 104 92 is_stmt 0 discriminator 3
	ldr	r1, .L16
	add	r2, r1, r3, lsl #3
	.loc 1 104 89 discriminator 3
	str	r2, [r1, r3, lsl #3]
	.loc 1 104 50 discriminator 3
	str	r2, [r2, #4]
	.loc 1 104 11 is_stmt 1 discriminator 3
	.loc 1 103 92 discriminator 3
	adds	r3, r3, #1
.LVL20:
.L14:
	.loc 1 103 15 discriminator 1
	cmp	r3, #31
	bls	.L15
	.loc 1 106 5
	.loc 1 106 9
	.loc 1 106 79 is_stmt 0
	ldr	r3, .L16+4
.LVL21:
	str	r3, [r3]
	.loc 1 106 43
	str	r3, [r3, #4]
	.loc 1 106 7 is_stmt 1
	.loc 1 107 5
	.loc 1 107 9
	.loc 1 107 83 is_stmt 0
	ldr	r3, .L16+8
	str	r3, [r3]
	.loc 1 107 45
	str	r3, [r3, #4]
	.loc 1 107 7 is_stmt 1
	.loc 1 109 5
	.loc 1 109 32 is_stmt 0
	movs	r0, #0
	ldr	r3, .L16+12
	str	r0, [r3]
	.loc 1 110 5 is_stmt 1
	.loc 1 110 34 is_stmt 0
	ldr	r3, .L16+16
	str	r0, [r3]
	.loc 1 111 5 is_stmt 1
	.loc 1 111 33 is_stmt 0
	ldr	r3, .L16+20
	str	r0, [r3]
	.loc 1 112 5 is_stmt 1
.LVL22:
.LBB302:
.LBB303:
	.file 2 "D:/RTOS/CPU/ARM_CortexM4/cpu_lock.h"
	.loc 2 26 5
	.loc 2 26 11 is_stmt 0
	ldr	r3, .L16+24
	str	r0, [r3]
.LVL23:
.LBE303:
.LBE302:
	.loc 1 113 5 is_stmt 1
	.loc 1 113 25 is_stmt 0
	ldr	r3, .L16+28
	movs	r2, #1
	str	r2, [r3]
	.loc 1 115 5 is_stmt 1
	.loc 1 116 1 is_stmt 0
	bx	lr
.L17:
	.align	2
.L16:
	.word	os_scheduler__ready_list
	.word	os_scheduler__yield_list
	.word	os_scheduler__pending_list
	.word	os_scheduler__current_tick
	.word	os_scheduler__current_thread
	.word	os_scheduler__schedule_nest
	.word	os_scheduler__lock
	.word	os_scheduler__state
	.cfi_endproc
.LFE52:
	.size	os_scheduler_init, .-os_scheduler_init
	.section	.text.os_scheduler_state,"ax",%progbits
	.align	1
	.global	os_scheduler_state
	.syntax unified
	.thumb
	.thumb_func
	.type	os_scheduler_state, %function
os_scheduler_state:
.LFB53:
	.loc 1 119 1 is_stmt 1
	.cfi_startproc
	@ args = 0, pretend = 0, frame = 0
	@ frame_needed = 0, uses_anonymous_args = 0
	@ link register save eliminated.
	.loc 1 120 5
	.loc 1 121 1 is_stmt 0
	ldr	r3, .L19
	ldr	r0, [r3]
	bx	lr
.L20:
	.align	2
.L19:
	.word	os_scheduler__state
	.cfi_endproc
.LFE53:
	.size	os_scheduler_state, .-os_scheduler_state
	.section	.text.os_scheduler_timed_wait,"ax",%progbits
	.align	1
	.global	os_scheduler_timed_wait
	.syntax unified
	.thumb
	.thumb_func
	.type	os_scheduler_timed_wait, %function
os_scheduler_timed_wait:
.LFB54:
	.loc 1 124 68 is_stmt 1
	.cfi_startproc
	@ args = 0, pretend = 0, frame = 0
	@ frame_needed = 0, uses_anonymous_args = 0
.LVL24:
	.loc 1 125 5
	.loc 1 125 7 is_stmt 0
	cbz	r0, .L24
	.loc 1 124 68
	push	{r4, lr}
	.cfi_def_cfa_offset 8
	.cfi_offset 4, -8
	.cfi_offset 14, -4
	sub	sp, sp, #8
	.cfi_def_cfa_offset 16
	mov	r3, r1
	mov	r2, r0
	.loc 1 126 5 is_stmt 1
.LVL25:
.LBB304:
.LBB305:
	.loc 2 30 5
.LBB306:
.LBB307:
	.file 3 "D:/RTOS/CPU/ARM_CortexM4/cpu_interrupt.h"
	.loc 3 19 5
	.loc 3 20 5
.LBB308:
.LBB309:
	.file 4 "D:/RTOS/CPU/ARM_CortexM4/GCC/cpu_functions.h"
	.loc 4 165 5
	.loc 4 167 5
	.syntax unified
@ 167 "D:/RTOS/CPU/ARM_CortexM4/GCC/cpu_functions.h" 1
	MRS r1, primask
@ 0 "" 2
.LVL26:
	.loc 4 168 5
	.thumb
	.syntax unified
.LBE309:
.LBE308:
	.loc 3 21 5
.LBB310:
.LBB311:
	.loc 4 41 5
	.syntax unified
@ 41 "D:/RTOS/CPU/ARM_CortexM4/GCC/cpu_functions.h" 1
	cpsid i
@ 0 "" 2
	.thumb
	.syntax unified
.LBE311:
.LBE310:
	.loc 3 22 5
.LBB312:
.LBB313:
	.loc 4 335 5
	.syntax unified
@ 335 "D:/RTOS/CPU/ARM_CortexM4/GCC/cpu_functions.h" 1
	isb 0xF
@ 0 "" 2
	.thumb
	.syntax unified
.LBE313:
.LBE312:
	.loc 3 23 5
.LBB314:
.LBB315:
	.loc 4 357 5
	.syntax unified
@ 357 "D:/RTOS/CPU/ARM_CortexM4/GCC/cpu_functions.h" 1
	dmb 0xF
@ 0 "" 2
	.thumb
	.syntax unified
.LBE315:
.LBE314:
	.loc 3 24 5
.LBE307:
.LBE306:
	.loc 2 30 11 is_stmt 0
	ldr	r4, .L27
	str	r1, [r4]
.LVL27:
.LBE305:
.LBE304:
	.loc 1 127 5 is_stmt 1
	.loc 1 127 26 is_stmt 0
	movs	r1, #0
.LVL28:
	str	r1, [r0, #84]
	.loc 1 132 5 is_stmt 1
	.loc 1 132 19 is_stmt 0
	movs	r1, #6
	str	r1, [r0, #88]
	.loc 1 133 5 is_stmt 1
	movs	r1, #1
	str	r1, [sp]
	ldr	r1, .L27+4
	adds	r0, r0, #44
.LVL29:
	bl	os_timer_add
.LVL30:
	.loc 1 134 5
.LBB316:
.LBB317:
	.loc 2 34 5
	ldr	r3, [r4]
.LVL31:
.LBB318:
	.loc 3 28 5
.LBB319:
.LBB320:
	.loc 4 179 5
	.syntax unified
@ 179 "D:/RTOS/CPU/ARM_CortexM4/GCC/cpu_functions.h" 1
	MSR primask, r3
@ 0 "" 2
.LVL32:
	.thumb
	.syntax unified
.LBE320:
.LBE319:
	.loc 3 29 5
.LBB321:
.LBB322:
	.loc 4 335 5
	.syntax unified
@ 335 "D:/RTOS/CPU/ARM_CortexM4/GCC/cpu_functions.h" 1
	isb 0xF
@ 0 "" 2
.LVL33:
	.thumb
	.syntax unified
.LBE322:
.LBE321:
.LBE318:
.LBE317:
.LBE316:
	.loc 1 135 1 is_stmt 0
	add	sp, sp, #8
	.cfi_def_cfa_offset 8
	@ sp needed
	pop	{r4, pc}
.LVL34:
.L24:
	.cfi_def_cfa_offset 0
	.cfi_restore 4
	.cfi_restore 14
	bx	lr
.L28:
	.align	2
.L27:
	.word	os_scheduler__lock
	.word	os_scheduler__timer_timeout
	.cfi_endproc
.LFE54:
	.size	os_scheduler_timed_wait, .-os_scheduler_timed_wait
	.section	.text.os_scheduler_nest,"ax",%progbits
	.align	1
	.global	os_scheduler_nest
	.syntax unified
	.thumb
	.thumb_func
	.type	os_scheduler_nest, %function
os_scheduler_nest:
.LFB57:
	.loc 1 198 30 is_stmt 1
	.cfi_startproc
	@ args = 0, pretend = 0, frame = 0
	@ frame_needed = 0, uses_anonymous_args = 0
	@ link register save eliminated.
	.loc 1 199 5
	.loc 1 200 1 is_stmt 0
	ldr	r3, .L30
	ldr	r0, [r3]
	bx	lr
.L31:
	.align	2
.L30:
	.word	os_scheduler__schedule_nest
	.cfi_endproc
.LFE57:
	.size	os_scheduler_nest, .-os_scheduler_nest
	.section	.text.os_scheduler_startup,"ax",%progbits
	.align	1
	.global	os_scheduler_startup
	.syntax unified
	.thumb
	.thumb_func
	.type	os_scheduler_startup, %function
os_scheduler_startup:
.LFB58:
	.loc 1 202 36 is_stmt 1
	.cfi_startproc
	@ args = 0, pretend = 0, frame = 0
	@ frame_needed = 0, uses_anonymous_args = 0
	push	{r3, r4, r5, lr}
	.cfi_def_cfa_offset 16
	.cfi_offset 3, -16
	.cfi_offset 4, -12
	.cfi_offset 5, -8
	.cfi_offset 14, -4
	.loc 1 204 5
.LVL35:
.LBB323:
.LBB324:
	.loc 2 30 5
.LBB325:
.LBB326:
	.loc 3 19 5
	.loc 3 20 5
.LBB327:
.LBB328:
	.loc 4 165 5
	.loc 4 167 5
	.syntax unified
@ 167 "D:/RTOS/CPU/ARM_CortexM4/GCC/cpu_functions.h" 1
	MRS r2, primask
@ 0 "" 2
.LVL36:
	.loc 4 168 5
	.thumb
	.syntax unified
.LBE328:
.LBE327:
	.loc 3 21 5
.LBB329:
.LBB330:
	.loc 4 41 5
	.syntax unified
@ 41 "D:/RTOS/CPU/ARM_CortexM4/GCC/cpu_functions.h" 1
	cpsid i
@ 0 "" 2
	.thumb
	.syntax unified
.LBE330:
.LBE329:
	.loc 3 22 5
.LBB331:
.LBB332:
	.loc 4 335 5
	.syntax unified
@ 335 "D:/RTOS/CPU/ARM_CortexM4/GCC/cpu_functions.h" 1
	isb 0xF
@ 0 "" 2
	.thumb
	.syntax unified
.LBE332:
.LBE331:
	.loc 3 23 5
.LBB333:
.LBB334:
	.loc 4 357 5
	.syntax unified
@ 357 "D:/RTOS/CPU/ARM_CortexM4/GCC/cpu_functions.h" 1
	dmb 0xF
@ 0 "" 2
	.thumb
	.syntax unified
.LBE334:
.LBE333:
	.loc 3 24 5
.LBE326:
.LBE325:
	.loc 2 30 11 is_stmt 0
	ldr	r3, .L39
	str	r2, [r3]
.LVL37:
.LBE324:
.LBE323:
	.loc 1 205 5 is_stmt 1
.LBB335:
.LBB336:
	.loc 1 33 5
	.loc 1 33 38 is_stmt 0
	bl	os_priority_get_highest
.LVL38:
	.loc 1 34 5 is_stmt 1
	.loc 1 34 7 is_stmt 0
	cmp	r0, #-1
	beq	.L35
	.loc 1 38 5 is_stmt 1
	.loc 1 38 17 is_stmt 0
	ldr	r2, .L39+4
	add	r2, r2, r0, lsl #3
.LVL39:
	.loc 1 39 5 is_stmt 1
	.loc 1 39 15 is_stmt 0
	ldr	r3, [r2, #4]
	.loc 1 39 7
	cmp	r2, r3
	beq	.L37
	.loc 1 43 5 is_stmt 1
.LVL40:
	.loc 1 44 5
	.loc 1 44 19 is_stmt 0
	mov	r4, r3
.LVL41:
	.loc 1 45 5 is_stmt 1
	.loc 1 45 9
	.loc 1 45 31 is_stmt 0
	ldr	r5, [r4], #-28
.LVL42:
	.loc 1 45 68
	ldr	r1, [r3, #4]
	.loc 1 45 45
	str	r1, [r5, #4]
	.loc 1 45 76 is_stmt 1
	.loc 1 45 112 is_stmt 0
	ldr	r5, [r3]
	str	r5, [r1]
	.loc 1 45 143 is_stmt 1
	.loc 1 45 201 is_stmt 0
	str	r3, [r3]
	.loc 1 45 171
	str	r3, [r3, #4]
	.loc 1 45 7 is_stmt 1
	.loc 1 46 5
	.loc 1 46 15 is_stmt 0
	ldr	r3, .L39+4
.LVL43:
	add	r3, r3, r0, lsl #3
	ldr	r3, [r3, #4]
	.loc 1 46 7
	cmp	r2, r3
	beq	.L38
.LVL44:
.L33:
.LBE336:
.LBE335:
	.loc 1 206 5 is_stmt 1
	.loc 1 206 19 is_stmt 0
	movs	r3, #3
	str	r3, [r4, #88]
	.loc 1 207 5 is_stmt 1
	.loc 1 207 34 is_stmt 0
	ldr	r3, [r4, #80]
	.loc 1 207 26
	str	r3, [r4, #84]
	.loc 1 208 5 is_stmt 1
	.loc 1 208 34 is_stmt 0
	ldr	r3, .L39+8
	str	r4, [r3]
	.loc 1 209 5 is_stmt 1
	.loc 1 209 25 is_stmt 0
	ldr	r3, .L39+12
	movs	r2, #2
	str	r2, [r3]
	.loc 1 210 5 is_stmt 1
.LVL45:
.LBB338:
.LBB339:
	.loc 2 34 5
	ldr	r3, .L39
	ldr	r3, [r3]
.LVL46:
.LBB340:
	.loc 3 28 5
.LBB341:
.LBB342:
	.loc 4 179 5
	.syntax unified
@ 179 "D:/RTOS/CPU/ARM_CortexM4/GCC/cpu_functions.h" 1
	MSR primask, r3
@ 0 "" 2
.LVL47:
	.thumb
	.syntax unified
.LBE342:
.LBE341:
	.loc 3 29 5
.LBB343:
.LBB344:
	.loc 4 335 5
	.syntax unified
@ 335 "D:/RTOS/CPU/ARM_CortexM4/GCC/cpu_functions.h" 1
	isb 0xF
@ 0 "" 2
.LVL48:
	.thumb
	.syntax unified
.LBE344:
.LBE343:
.LBE340:
.LBE339:
.LBE338:
	.loc 1 212 5
	mov	r1, r4
	movs	r0, #0
	bl	cpu_stack_switch
.LVL49:
	.loc 1 214 5
	.loc 1 215 1 is_stmt 0
	movs	r0, #0
	pop	{r3, r4, r5, pc}
.LVL50:
.L37:
.LBB345:
.LBB337:
	.loc 1 40 9 is_stmt 1
	bl	os_priority_unmark
.LVL51:
	.loc 1 41 9
	.loc 1 41 16 is_stmt 0
	movs	r4, #0
	b	.L33
.LVL52:
.L38:
	.loc 1 47 9 is_stmt 1
	bl	os_priority_unmark
.LVL53:
	b	.L33
.LVL54:
.L35:
	.loc 1 36 16 is_stmt 0
	movs	r4, #0
	b	.L33
.L40:
	.align	2
.L39:
	.word	os_scheduler__lock
	.word	os_scheduler__ready_list
	.word	os_scheduler__current_thread
	.word	os_scheduler__state
.LBE337:
.LBE345:
	.cfi_endproc
.LFE58:
	.size	os_scheduler_startup, .-os_scheduler_startup
	.section	.rodata.os_scheduler_schedule.str1.4,"aMS",%progbits,1
	.align	2
.LC1:
	.ascii	"no next_thread!!!\012\000"
	.section	.text.os_scheduler_schedule,"ax",%progbits
	.align	1
	.global	os_scheduler_schedule
	.syntax unified
	.thumb
	.thumb_func
	.type	os_scheduler_schedule, %function
os_scheduler_schedule:
.LFB59:
	.loc 1 218 1 is_stmt 1
	.cfi_startproc
	@ args = 0, pretend = 0, frame = 0
	@ frame_needed = 0, uses_anonymous_args = 0
.LVL55:
	push	{r3, r4, r5, r6, r7, lr}
	.cfi_def_cfa_offset 24
	.cfi_offset 3, -24
	.cfi_offset 4, -20
	.cfi_offset 5, -16
	.cfi_offset 6, -12
	.cfi_offset 7, -8
	.cfi_offset 14, -4
	.loc 1 219 5
	.loc 1 220 5
	.loc 1 221 5
	.loc 1 222 5
	.loc 1 224 5
	.loc 1 224 27 is_stmt 0
	ldr	r3, .L101
	ldr	r3, [r3]
	.loc 1 224 7
	cmp	r3, #2
	bne	.L80
	mov	r6, r0
	.loc 1 228 5 is_stmt 1
	.loc 1 228 8 is_stmt 0
	bl	os_interrupt_nest
.LVL56:
	.loc 1 228 7
	cmp	r0, #0
	bne	.L85
	.loc 1 233 5 is_stmt 1
.LVL57:
.LBB346:
.LBB347:
	.loc 2 30 5
.LBB348:
.LBB349:
	.loc 3 19 5
	.loc 3 20 5
.LBB350:
.LBB351:
	.loc 4 165 5
	.loc 4 167 5
	.syntax unified
@ 167 "D:/RTOS/CPU/ARM_CortexM4/GCC/cpu_functions.h" 1
	MRS r2, primask
@ 0 "" 2
.LVL58:
	.loc 4 168 5
	.thumb
	.syntax unified
.LBE351:
.LBE350:
	.loc 3 21 5
.LBB352:
.LBB353:
	.loc 4 41 5
	.syntax unified
@ 41 "D:/RTOS/CPU/ARM_CortexM4/GCC/cpu_functions.h" 1
	cpsid i
@ 0 "" 2
	.thumb
	.syntax unified
.LBE353:
.LBE352:
	.loc 3 22 5
.LBB354:
.LBB355:
	.loc 4 335 5
	.syntax unified
@ 335 "D:/RTOS/CPU/ARM_CortexM4/GCC/cpu_functions.h" 1
	isb 0xF
@ 0 "" 2
	.thumb
	.syntax unified
.LBE355:
.LBE354:
	.loc 3 23 5
.LBB356:
.LBB357:
	.loc 4 357 5
	.syntax unified
@ 357 "D:/RTOS/CPU/ARM_CortexM4/GCC/cpu_functions.h" 1
	dmb 0xF
@ 0 "" 2
	.thumb
	.syntax unified
.LBE357:
.LBE356:
	.loc 3 24 5
.LBE349:
.LBE348:
	.loc 2 30 11 is_stmt 0
	ldr	r3, .L101+4
	str	r2, [r3]
.LVL59:
.LBE347:
.LBE346:
	.loc 1 235 5 is_stmt 1
.LBB358:
.LBB359:
	.loc 1 33 5
	.loc 1 33 38 is_stmt 0
	bl	os_priority_get_highest
.LVL60:
	.loc 1 34 5 is_stmt 1
	.loc 1 34 7 is_stmt 0
	cmp	r0, #-1
	beq	.L81
	.loc 1 38 5 is_stmt 1
	.loc 1 38 17 is_stmt 0
	ldr	r2, .L101+8
	add	r2, r2, r0, lsl #3
.LVL61:
	.loc 1 39 5 is_stmt 1
	.loc 1 39 15 is_stmt 0
	ldr	r3, [r2, #4]
	.loc 1 39 7
	cmp	r2, r3
	beq	.L86
	.loc 1 43 5 is_stmt 1
.LVL62:
	.loc 1 44 5
	.loc 1 44 19 is_stmt 0
	mov	r4, r3
.LVL63:
	.loc 1 45 5 is_stmt 1
	.loc 1 45 9
	.loc 1 45 31 is_stmt 0
	ldr	r5, [r4], #-28
.LVL64:
	.loc 1 45 68
	ldr	r1, [r3, #4]
	.loc 1 45 45
	str	r1, [r5, #4]
	.loc 1 45 76 is_stmt 1
	.loc 1 45 135 is_stmt 0
	ldr	r5, [r3]
	.loc 1 45 112
	str	r5, [r1]
	.loc 1 45 143 is_stmt 1
	.loc 1 45 201 is_stmt 0
	str	r3, [r3]
	.loc 1 45 171
	str	r3, [r3, #4]
	.loc 1 45 7 is_stmt 1
	.loc 1 46 5
	.loc 1 46 15 is_stmt 0
	ldr	r3, .L101+8
.LVL65:
	add	r3, r3, r0, lsl #3
	ldr	r3, [r3, #4]
	.loc 1 46 7
	cmp	r2, r3
	beq	.L87
.LVL66:
.L44:
.LBE359:
.LBE358:
	.loc 1 237 5 is_stmt 1
	.loc 1 237 17 is_stmt 0
	ldr	r3, .L101+12
	ldr	r5, [r3]
.LVL67:
	.loc 1 238 5 is_stmt 1
	.loc 1 238 7 is_stmt 0
	cbz	r5, .L46
	.loc 1 239 9 is_stmt 1
	.loc 1 239 23 is_stmt 0
	ldr	r3, [r5, #88]
	.loc 1 239 11
	cmp	r3, #3
	beq	.L88
.L47:
	.loc 1 254 9 is_stmt 1
	.loc 1 254 23 is_stmt 0
	ldr	r3, [r5, #88]
	.loc 1 254 11
	cmp	r3, #3
	beq	.L46
	.loc 1 255 13 is_stmt 1
	.loc 1 255 15 is_stmt 0
	cmp	r3, #4
	beq	.L89
.LVL68:
.L54:
	.loc 1 262 13 is_stmt 1
	.loc 1 262 42 is_stmt 0
	ldr	r3, .L101+12
	movs	r2, #0
	str	r2, [r3]
.L46:
	.loc 1 269 5 is_stmt 1
.LVL69:
	.loc 1 270 5
	.loc 1 270 16 is_stmt 0
	ldr	r3, .L101+16
	ldr	r2, [r3, #4]
	.loc 1 270 7
	cmp	r2, r3
	bne	.L60
.L61:
	.loc 1 280 5 is_stmt 1
.LVL70:
	.loc 1 281 5
	.loc 1 281 16 is_stmt 0
	ldr	r3, .L101+20
	ldr	r2, [r3, #4]
	.loc 1 281 7
	cmp	r2, r3
	bne	.L66
.L67:
	.loc 1 290 5 is_stmt 1
	.loc 1 290 7 is_stmt 0
	cmp	r4, #0
	beq	.L90
.LVL71:
.L72:
	.loc 1 300 5 is_stmt 1
	.loc 1 300 24 is_stmt 0
	movs	r3, #3
	str	r3, [r4, #88]
	.loc 1 301 5 is_stmt 1
	.loc 1 301 19 is_stmt 0
	ldr	r3, [r4, #84]
	.loc 1 301 7
	cbnz	r3, .L75
	.loc 1 302 9 is_stmt 1
	.loc 1 302 48 is_stmt 0
	ldr	r3, [r4, #80]
	.loc 1 302 35
	str	r3, [r4, #84]
.L75:
	.loc 1 304 5 is_stmt 1
	.loc 1 304 34 is_stmt 0
	ldr	r3, .L101+12
	str	r4, [r3]
	.loc 1 305 5 is_stmt 1
	.loc 1 305 27 is_stmt 0
	ldr	r3, .L101+24
	movs	r2, #0
	str	r2, [r3]
	.loc 1 307 5 is_stmt 1
.LVL72:
.LBB363:
.LBB364:
	.loc 2 34 5
	ldr	r3, .L101+4
	ldr	r3, [r3]
.LVL73:
.LBB365:
	.loc 3 28 5
.LBB366:
.LBB367:
	.loc 4 179 5
	.syntax unified
@ 179 "D:/RTOS/CPU/ARM_CortexM4/GCC/cpu_functions.h" 1
	MSR primask, r3
@ 0 "" 2
.LVL74:
	.thumb
	.syntax unified
.LBE367:
.LBE366:
	.loc 3 29 5
.LBB368:
.LBB369:
	.loc 4 335 5
	.syntax unified
@ 335 "D:/RTOS/CPU/ARM_CortexM4/GCC/cpu_functions.h" 1
	isb 0xF
@ 0 "" 2
.LVL75:
	.thumb
	.syntax unified
.LBE369:
.LBE368:
.LBE365:
.LBE364:
.LBE363:
	.loc 1 311 5
	.loc 1 311 8 is_stmt 0
	bl	cpu_stack_is_switch_in_progress
.LVL76:
	.loc 1 311 7
	mov	r6, r0
	cmp	r0, #0
	beq	.L76
	.loc 1 313 9 is_stmt 1
.LVL77:
.LBB370:
.LBB371:
	.loc 1 63 5
	.loc 1 63 7 is_stmt 0
	cmp	r4, #0
	beq	.L82
	.loc 1 64 5 is_stmt 1
	.loc 1 64 19 is_stmt 0
	ldr	r0, [r4, #76]
.LVL78:
	.loc 1 65 5 is_stmt 1
	.loc 1 65 17 is_stmt 0
	ldr	r1, .L101+8
	add	r1, r1, r0, lsl #3
.LVL79:
	.loc 1 66 5 is_stmt 1
	.loc 1 67 5
	.loc 1 67 14 is_stmt 0
	ldr	r3, [r1, #4]
.LVL80:
.L77:
	.loc 1 67 34 is_stmt 1
	cmp	r1, r3
	beq	.L91
.LBB372:
	.loc 1 68 9
	.loc 1 68 22 is_stmt 0
	sub	r2, r3, #28
.LVL81:
	.loc 1 69 9 is_stmt 1
	.loc 1 69 11 is_stmt 0
	cmp	r4, r2
	beq	.L83
	.loc 1 72 9 is_stmt 1
	.loc 1 72 14 is_stmt 0
	ldr	r3, [r3, #4]
.LVL82:
	b	.L77
.LVL83:
.L85:
.LBE372:
.LBE371:
.LBE370:
	.loc 1 229 9 is_stmt 1
.LBB374:
.LBB375:
	.loc 1 139 5
	.loc 1 139 26 is_stmt 0
	ldr	r2, .L101+24
	ldr	r3, [r2]
	adds	r3, r3, #1
	str	r3, [r2]
.LBE375:
.LBE374:
	.loc 1 230 9 is_stmt 1
	.loc 1 230 16 is_stmt 0
	mov	r6, #-1
.LVL84:
	b	.L41
.LVL85:
.L86:
.LBB376:
.LBB360:
	.loc 1 40 9 is_stmt 1
	bl	os_priority_unmark
.LVL86:
	.loc 1 41 9
	.loc 1 41 16 is_stmt 0
	movs	r4, #0
	b	.L44
.LVL87:
.L87:
	.loc 1 47 9 is_stmt 1
	bl	os_priority_unmark
.LVL88:
	b	.L44
.LVL89:
.L81:
	.loc 1 36 16 is_stmt 0
	movs	r4, #0
	b	.L44
.LVL90:
.L88:
.LBE360:
.LBE376:
	.loc 1 239 48 discriminator 1
	ldr	r3, [r5, #84]
	.loc 1 239 34 discriminator 1
	cmp	r3, #0
	beq	.L47
.LBB377:
	.loc 1 240 13 is_stmt 1
	.loc 1 240 23 is_stmt 0
	ldr	r1, [r5, #76]
	ldr	r0, [r4, #76]
	bl	os_priority_cmp
.LVL91:
	.loc 1 241 13 is_stmt 1
	.loc 1 241 15 is_stmt 0
	cmp	r0, #1
	bne	.L48
	.loc 1 243 17 is_stmt 1
.LVL92:
.LBB378:
.LBB379:
	.loc 1 63 5
	.loc 1 64 5
	.loc 1 64 19 is_stmt 0
	ldr	r0, [r5, #76]
.LVL93:
	.loc 1 65 5 is_stmt 1
	.loc 1 65 17 is_stmt 0
	ldr	r1, .L101+8
	add	r1, r1, r0, lsl #3
.LVL94:
	.loc 1 66 5 is_stmt 1
	.loc 1 67 5
	.loc 1 67 14 is_stmt 0
	ldr	r3, [r1, #4]
.LVL95:
.L49:
	.loc 1 67 34 is_stmt 1
	cmp	r1, r3
	beq	.L92
.LBB380:
	.loc 1 68 9
	.loc 1 68 22 is_stmt 0
	sub	r2, r3, #28
.LVL96:
	.loc 1 69 9 is_stmt 1
	.loc 1 69 11 is_stmt 0
	cmp	r5, r2
	beq	.L47
	.loc 1 72 9 is_stmt 1
	.loc 1 72 14 is_stmt 0
	ldr	r3, [r3, #4]
.LVL97:
	b	.L49
.LVL98:
.L92:
.LBE380:
	.loc 1 74 5 is_stmt 1
	.loc 1 74 9
	.loc 1 74 31 is_stmt 0
	ldr	r3, [r5, #28]
.LVL99:
	.loc 1 74 68
	ldr	r2, [r5, #32]
	.loc 1 74 45
	str	r2, [r3, #4]
	.loc 1 74 76 is_stmt 1
	.loc 1 74 135 is_stmt 0
	mov	r3, r5
	ldr	r7, [r3, #28]!
	.loc 1 74 112
	str	r7, [r2]
	.loc 1 74 143 is_stmt 1
	.loc 1 74 201 is_stmt 0
	str	r3, [r5, #28]
	.loc 1 74 171
	str	r3, [r5, #32]
	.loc 1 74 7 is_stmt 1
	.loc 1 75 5
	.loc 1 75 19 is_stmt 0
	movs	r2, #2
	str	r2, [r5, #88]
	.loc 1 76 5 is_stmt 1
	.loc 1 79 9
	.loc 1 79 13
	.loc 1 79 20 is_stmt 0
	ldr	r2, .L101+8
	add	r2, r2, r0, lsl #3
	ldr	r7, [r2, #4]
	.loc 1 79 34
	str	r3, [r7]
	.loc 1 79 59 is_stmt 1
	.loc 1 79 95 is_stmt 0
	ldr	r7, [r2, #4]
	.loc 1 79 87
	str	r7, [r5, #32]
	.loc 1 79 103 is_stmt 1
	.loc 1 79 116 is_stmt 0
	str	r3, [r2, #4]
	.loc 1 79 141 is_stmt 1
	.loc 1 79 169 is_stmt 0
	str	r1, [r5, #28]
	.loc 1 79 11 is_stmt 1
	.loc 1 81 5
	bl	os_priority_mark
.LVL100:
	b	.L47
.LVL101:
.L48:
.LBE379:
.LBE378:
	.loc 1 247 17
.LBB381:
.LBB382:
	.loc 1 63 5
	.loc 1 64 5
	.loc 1 64 19 is_stmt 0
	ldr	r0, [r4, #76]
.LVL102:
	.loc 1 65 5 is_stmt 1
	.loc 1 65 17 is_stmt 0
	ldr	r2, .L101+8
	add	r2, r2, r0, lsl #3
.LVL103:
	.loc 1 66 5 is_stmt 1
	.loc 1 67 5
	.loc 1 67 14 is_stmt 0
	ldr	r3, [r2, #4]
.LVL104:
.L51:
	.loc 1 67 34 is_stmt 1
	cmp	r2, r3
	beq	.L93
.LBB383:
	.loc 1 68 9
	.loc 1 68 22 is_stmt 0
	sub	r1, r3, #28
.LVL105:
	.loc 1 69 9 is_stmt 1
	.loc 1 69 11 is_stmt 0
	cmp	r4, r1
	beq	.L52
	.loc 1 72 9 is_stmt 1
	.loc 1 72 14 is_stmt 0
	ldr	r3, [r3, #4]
.LVL106:
	b	.L51
.LVL107:
.L93:
.LBE383:
	.loc 1 74 5 is_stmt 1
	.loc 1 74 9
	.loc 1 74 31 is_stmt 0
	ldr	r3, [r4, #28]
.LVL108:
	.loc 1 74 68
	ldr	r1, [r4, #32]
	.loc 1 74 45
	str	r1, [r3, #4]
	.loc 1 74 76 is_stmt 1
	.loc 1 74 135 is_stmt 0
	mov	r3, r4
	ldr	r5, [r3, #28]!
.LVL109:
	.loc 1 74 112
	str	r5, [r1]
	.loc 1 74 143 is_stmt 1
	.loc 1 74 201 is_stmt 0
	str	r3, [r4, #28]
	.loc 1 74 171
	str	r3, [r4, #32]
	.loc 1 74 7 is_stmt 1
	.loc 1 75 5
	.loc 1 75 19 is_stmt 0
	movs	r1, #2
	str	r1, [r4, #88]
	.loc 1 76 5 is_stmt 1
	.loc 1 79 9
	.loc 1 79 13
	.loc 1 79 20 is_stmt 0
	ldr	r1, .L101+8
	add	r1, r1, r0, lsl #3
	ldr	r5, [r1, #4]
	.loc 1 79 34
	str	r3, [r5]
	.loc 1 79 59 is_stmt 1
	.loc 1 79 95 is_stmt 0
	ldr	r5, [r1, #4]
	.loc 1 79 87
	str	r5, [r4, #32]
	.loc 1 79 103 is_stmt 1
	.loc 1 79 116 is_stmt 0
	str	r3, [r1, #4]
	.loc 1 79 141 is_stmt 1
	.loc 1 79 169 is_stmt 0
	str	r2, [r4, #28]
	.loc 1 79 11 is_stmt 1
	.loc 1 81 5
	bl	os_priority_mark
.LVL110:
.L52:
.LBE382:
.LBE381:
	.loc 1 249 17
.LBB384:
.LBB385:
	.loc 2 34 5
	ldr	r3, .L101+4
	ldr	r3, [r3]
.LVL111:
.LBB386:
	.loc 3 28 5
.LBB387:
.LBB388:
	.loc 4 179 5
	.syntax unified
@ 179 "D:/RTOS/CPU/ARM_CortexM4/GCC/cpu_functions.h" 1
	MSR primask, r3
@ 0 "" 2
.LVL112:
	.thumb
	.syntax unified
.LBE388:
.LBE387:
	.loc 3 29 5
.LBB389:
.LBB390:
	.loc 4 335 5
	.syntax unified
@ 335 "D:/RTOS/CPU/ARM_CortexM4/GCC/cpu_functions.h" 1
	isb 0xF
@ 0 "" 2
.LVL113:
	.thumb
	.syntax unified
.LBE390:
.LBE389:
.LBE386:
.LBE385:
.LBE384:
	.loc 1 250 17
	.loc 1 250 24 is_stmt 0
	movw	r6, #4097
.LVL114:
	b	.L41
.LVL115:
.L89:
.LBE377:
	.loc 1 256 17 is_stmt 1
	.loc 1 256 19 is_stmt 0
	cmp	r6, #2
	beq	.L94
	.loc 1 259 21 is_stmt 1
.LVL116:
.LBB391:
.LBB392:
	.loc 1 63 5
	.loc 1 64 5
	.loc 1 64 19 is_stmt 0
	ldr	r0, [r5, #76]
.LVL117:
	.loc 1 65 5 is_stmt 1
	.loc 1 65 17 is_stmt 0
	ldr	r1, .L101+8
	add	r1, r1, r0, lsl #3
.LVL118:
	.loc 1 66 5 is_stmt 1
	.loc 1 67 5
	.loc 1 67 14 is_stmt 0
	ldr	r3, [r1, #4]
.LVL119:
.L58:
	.loc 1 67 34 is_stmt 1
	cmp	r1, r3
	beq	.L95
.LBB393:
	.loc 1 68 9
	.loc 1 68 22 is_stmt 0
	sub	r2, r3, #28
.LVL120:
	.loc 1 69 9 is_stmt 1
	.loc 1 69 11 is_stmt 0
	cmp	r5, r2
	beq	.L54
	.loc 1 72 9 is_stmt 1
	.loc 1 72 14 is_stmt 0
	ldr	r3, [r3, #4]
.LVL121:
	b	.L58
.LVL122:
.L94:
.LBE393:
.LBE392:
.LBE391:
	.loc 1 257 21 is_stmt 1
.LBB395:
.LBB396:
	.loc 1 63 5
	.loc 1 64 5
	.loc 1 64 19 is_stmt 0
	ldr	r0, [r5, #76]
.LVL123:
	.loc 1 65 5 is_stmt 1
	.loc 1 65 17 is_stmt 0
	ldr	r1, .L101+8
	add	r1, r1, r0, lsl #3
.LVL124:
	.loc 1 66 5 is_stmt 1
	.loc 1 67 5
	.loc 1 67 14 is_stmt 0
	ldr	r3, [r1, #4]
.LVL125:
.L56:
	.loc 1 67 34 is_stmt 1
	cmp	r1, r3
	beq	.L96
.LBB397:
	.loc 1 68 9
	.loc 1 68 22 is_stmt 0
	sub	r2, r3, #28
.LVL126:
	.loc 1 69 9 is_stmt 1
	.loc 1 69 11 is_stmt 0
	cmp	r5, r2
	beq	.L54
	.loc 1 72 9 is_stmt 1
	.loc 1 72 14 is_stmt 0
	ldr	r3, [r3, #4]
.LVL127:
	b	.L56
.LVL128:
.L96:
.LBE397:
	.loc 1 74 5 is_stmt 1
	.loc 1 74 9
	.loc 1 74 31 is_stmt 0
	ldr	r3, [r5, #28]
.LVL129:
	.loc 1 74 68
	ldr	r2, [r5, #32]
	.loc 1 74 45
	str	r2, [r3, #4]
	.loc 1 74 76 is_stmt 1
	.loc 1 74 135 is_stmt 0
	mov	r3, r5
	ldr	r6, [r3, #28]!
.LVL130:
	.loc 1 74 112
	str	r6, [r2]
	.loc 1 74 143 is_stmt 1
	.loc 1 74 201 is_stmt 0
	str	r3, [r5, #28]
	.loc 1 74 171
	str	r3, [r5, #32]
	.loc 1 74 7 is_stmt 1
	.loc 1 75 5
	.loc 1 75 19 is_stmt 0
	movs	r2, #2
	str	r2, [r5, #88]
	.loc 1 76 5 is_stmt 1
	.loc 1 77 9
	.loc 1 77 13
	.loc 1 77 20 is_stmt 0
	ldr	r2, .L101+8
	ldr	r6, [r2, r0, lsl #3]
	.loc 1 77 34
	str	r3, [r6, #4]
	.loc 1 77 59 is_stmt 1
	.loc 1 77 95 is_stmt 0
	ldr	r6, [r2, r0, lsl #3]
	.loc 1 77 87
	str	r6, [r5, #28]
	.loc 1 77 103 is_stmt 1
	.loc 1 77 116 is_stmt 0
	str	r3, [r2, r0, lsl #3]
	.loc 1 77 141 is_stmt 1
	.loc 1 77 169 is_stmt 0
	str	r1, [r5, #32]
	.loc 1 77 11 is_stmt 1
	.loc 1 79 11
	.loc 1 81 5
	bl	os_priority_mark
.LVL131:
	b	.L54
.LVL132:
.L95:
.LBE396:
.LBE395:
.LBB398:
.LBB394:
	.loc 1 74 5
	.loc 1 74 9
	.loc 1 74 31 is_stmt 0
	ldr	r3, [r5, #28]
.LVL133:
	.loc 1 74 68
	ldr	r2, [r5, #32]
	.loc 1 74 45
	str	r2, [r3, #4]
	.loc 1 74 76 is_stmt 1
	.loc 1 74 135 is_stmt 0
	mov	r3, r5
	ldr	r6, [r3, #28]!
.LVL134:
	.loc 1 74 112
	str	r6, [r2]
	.loc 1 74 143 is_stmt 1
	.loc 1 74 201 is_stmt 0
	str	r3, [r5, #28]
	.loc 1 74 171
	str	r3, [r5, #32]
	.loc 1 74 7 is_stmt 1
	.loc 1 75 5
	.loc 1 75 19 is_stmt 0
	movs	r2, #2
	str	r2, [r5, #88]
	.loc 1 76 5 is_stmt 1
	.loc 1 79 9
	.loc 1 79 13
	.loc 1 79 20 is_stmt 0
	ldr	r2, .L101+8
	add	r2, r2, r0, lsl #3
	ldr	r6, [r2, #4]
	.loc 1 79 34
	str	r3, [r6]
	.loc 1 79 59 is_stmt 1
	.loc 1 79 95 is_stmt 0
	ldr	r6, [r2, #4]
	.loc 1 79 87
	str	r6, [r5, #32]
	.loc 1 79 103 is_stmt 1
	.loc 1 79 116 is_stmt 0
	str	r3, [r2, #4]
	.loc 1 79 141 is_stmt 1
	.loc 1 79 169 is_stmt 0
	str	r1, [r5, #28]
	.loc 1 79 11 is_stmt 1
	.loc 1 81 5
	bl	os_priority_mark
.LVL135:
	b	.L54
.LVL136:
.L98:
.LBE394:
.LBE398:
.LBB399:
.LBB400:
.LBB401:
.LBB402:
	.loc 1 72 9
	.loc 1 72 14 is_stmt 0
	ldr	r3, [r3, #4]
.LVL137:
.L63:
.LBE402:
	.loc 1 67 34 is_stmt 1
	cmp	r6, r3
	beq	.L97
.LBB403:
	.loc 1 68 9
	.loc 1 68 22 is_stmt 0
	sub	r1, r3, #28
.LVL138:
	.loc 1 69 9 is_stmt 1
	.loc 1 69 11 is_stmt 0
	cmp	ip, r1
	bne	.L98
	b	.L62
.L102:
	.align	2
.L101:
	.word	os_scheduler__state
	.word	os_scheduler__lock
	.word	os_scheduler__ready_list
	.word	os_scheduler__current_thread
	.word	os_scheduler__pending_list
	.word	os_scheduler__yield_list
	.word	os_scheduler__skipped
.LVL139:
.L97:
.LBE403:
	.loc 1 74 5 is_stmt 1
	.loc 1 74 9
	.loc 1 74 76
	.loc 1 74 143
	.loc 1 74 7
	.loc 1 75 5
	.loc 1 75 19 is_stmt 0
	movs	r3, #2
.LVL140:
	str	r3, [r2, #60]
	.loc 1 76 5 is_stmt 1
	.loc 1 77 9
	.loc 1 77 13
	.loc 1 77 20 is_stmt 0
	ldr	r1, .L103
	ldr	r3, [r1, r0, lsl #3]
	.loc 1 77 34
	str	lr, [r3, #4]
	.loc 1 77 59 is_stmt 1
	.loc 1 77 95 is_stmt 0
	ldr	r3, [r1, r0, lsl #3]
	.loc 1 77 87
	str	r3, [r2]
	.loc 1 77 103 is_stmt 1
	.loc 1 77 116 is_stmt 0
	str	lr, [r1, r0, lsl #3]
	.loc 1 77 141 is_stmt 1
	.loc 1 77 169 is_stmt 0
	str	r6, [r2, #4]
	.loc 1 77 11 is_stmt 1
	.loc 1 79 11
	.loc 1 81 5
	bl	os_priority_mark
.LVL141:
.L62:
.LBE401:
.LBE400:
.LBE399:
.LBB406:
.LBB361:
	.loc 1 41 16 is_stmt 0 discriminator 1
	mov	r2, r7
.LVL142:
.L60:
.LBE361:
.LBE406:
	.loc 1 271 38 is_stmt 1 discriminator 1
	ldr	r3, .L103+4
	cmp	r2, r3
	beq	.L61
.LBB407:
	.loc 1 272 13
.LVL143:
	.loc 1 273 13
	.loc 1 273 18 is_stmt 0
	ldr	r7, [r2, #4]
.LVL144:
	.loc 1 274 13 is_stmt 1
	.loc 1 274 17
	.loc 1 274 39 is_stmt 0
	ldr	r3, [r2]
	.loc 1 274 53
	str	r7, [r3, #4]
	.loc 1 274 84 is_stmt 1
	.loc 1 274 143 is_stmt 0
	ldr	r3, [r2]
	.loc 1 274 120
	str	r3, [r7]
	.loc 1 274 151 is_stmt 1
	.loc 1 274 212 is_stmt 0
	mov	lr, r2
	.loc 1 274 209
	str	r2, [r2]
	.loc 1 274 179
	str	r2, [r2, #4]
	.loc 1 274 15 is_stmt 1
	.loc 1 275 13
.LVL145:
.LBB405:
.LBB404:
	.loc 1 63 5
	.loc 1 63 7 is_stmt 0
	subs	ip, r2, #28
.LVL146:
	beq	.L62
	.loc 1 64 5 is_stmt 1
	.loc 1 64 19 is_stmt 0
	ldr	r0, [r2, #48]
.LVL147:
	.loc 1 65 5 is_stmt 1
	.loc 1 65 17 is_stmt 0
	ldr	r6, .L103
	add	r6, r6, r0, lsl #3
.LVL148:
	.loc 1 66 5 is_stmt 1
	.loc 1 67 5
	.loc 1 67 14 is_stmt 0
	ldr	r3, [r6, #4]
.LVL149:
	.loc 1 67 5
	b	.L63
.LVL150:
.L99:
.LBE404:
.LBE405:
.LBE407:
.LBB408:
.LBB409:
.LBB410:
	.loc 1 74 5 is_stmt 1
	.loc 1 74 9
	.loc 1 74 76
	.loc 1 74 143
	.loc 1 74 7
	.loc 1 75 5
	.loc 1 75 19 is_stmt 0
	movs	r3, #2
.LVL151:
	str	r3, [r2, #60]
	.loc 1 76 5 is_stmt 1
	.loc 1 77 9
	.loc 1 77 13
	.loc 1 77 20 is_stmt 0
	ldr	r1, .L103
	ldr	r3, [r1, r0, lsl #3]
	.loc 1 77 34
	str	lr, [r3, #4]
	.loc 1 77 59 is_stmt 1
	.loc 1 77 95 is_stmt 0
	ldr	r3, [r1, r0, lsl #3]
	.loc 1 77 87
	str	r3, [r2]
	.loc 1 77 103 is_stmt 1
	.loc 1 77 116 is_stmt 0
	str	lr, [r1, r0, lsl #3]
	.loc 1 77 141 is_stmt 1
	.loc 1 77 169 is_stmt 0
	str	r6, [r2, #4]
	.loc 1 77 11 is_stmt 1
	.loc 1 79 11
	.loc 1 81 5
	bl	os_priority_mark
.LVL152:
.L68:
.LBE410:
.LBE409:
.LBE408:
.LBB414:
.LBB362:
	.loc 1 41 16 is_stmt 0 discriminator 1
	mov	r2, r7
.LVL153:
.L66:
.LBE362:
.LBE414:
	.loc 1 282 38 is_stmt 1 discriminator 1
	ldr	r3, .L103+8
	cmp	r2, r3
	beq	.L67
.LBB415:
	.loc 1 283 13
.LVL154:
	.loc 1 284 13
	.loc 1 284 18 is_stmt 0
	ldr	r7, [r2, #4]
.LVL155:
	.loc 1 285 13 is_stmt 1
	.loc 1 285 17
	.loc 1 285 39 is_stmt 0
	ldr	r3, [r2]
	.loc 1 285 53
	str	r7, [r3, #4]
	.loc 1 285 84 is_stmt 1
	.loc 1 285 143 is_stmt 0
	ldr	r3, [r2]
	.loc 1 285 120
	str	r3, [r7]
	.loc 1 285 151 is_stmt 1
	.loc 1 285 212 is_stmt 0
	mov	lr, r2
	.loc 1 285 209
	str	r2, [r2]
	.loc 1 285 179
	str	r2, [r2, #4]
	.loc 1 285 15 is_stmt 1
	.loc 1 286 13
.LVL156:
.LBB413:
.LBB412:
	.loc 1 63 5
	.loc 1 63 7 is_stmt 0
	subs	ip, r2, #28
.LVL157:
	beq	.L68
	.loc 1 64 5 is_stmt 1
	.loc 1 64 19 is_stmt 0
	ldr	r0, [r2, #48]
.LVL158:
	.loc 1 65 5 is_stmt 1
	.loc 1 65 17 is_stmt 0
	ldr	r6, .L103
	add	r6, r6, r0, lsl #3
.LVL159:
	.loc 1 66 5 is_stmt 1
	.loc 1 67 5
	.loc 1 67 14 is_stmt 0
	ldr	r3, [r6, #4]
.LVL160:
.L69:
	.loc 1 67 34 is_stmt 1
	cmp	r6, r3
	beq	.L99
.LBB411:
	.loc 1 68 9
	.loc 1 68 22 is_stmt 0
	sub	r1, r3, #28
.LVL161:
	.loc 1 69 9 is_stmt 1
	.loc 1 69 11 is_stmt 0
	cmp	ip, r1
	beq	.L68
	.loc 1 72 9 is_stmt 1
	.loc 1 72 14 is_stmt 0
	ldr	r3, [r3, #4]
.LVL162:
	b	.L69
.LVL163:
.L90:
.LBE411:
.LBE412:
.LBE413:
.LBE415:
	.loc 1 291 9 is_stmt 1
.LBB416:
.LBB417:
	.loc 1 33 5
	.loc 1 33 38 is_stmt 0
	bl	os_priority_get_highest
.LVL164:
	.loc 1 34 5 is_stmt 1
	.loc 1 34 7 is_stmt 0
	cmp	r0, #-1
	beq	.L73
	.loc 1 38 5 is_stmt 1
	.loc 1 38 17 is_stmt 0
	ldr	r2, .L103
	add	r2, r2, r0, lsl #3
.LVL165:
	.loc 1 39 5 is_stmt 1
	.loc 1 39 15 is_stmt 0
	ldr	r3, [r2, #4]
	.loc 1 39 7
	cmp	r2, r3
	beq	.L100
	.loc 1 43 5 is_stmt 1
.LVL166:
	.loc 1 44 5
	.loc 1 44 19 is_stmt 0
	mov	r4, r3
.LVL167:
	.loc 1 45 5 is_stmt 1
	.loc 1 45 9
	.loc 1 45 31 is_stmt 0
	ldr	r6, [r4], #-28
.LVL168:
	.loc 1 45 68
	ldr	r1, [r3, #4]
	.loc 1 45 45
	str	r1, [r6, #4]
	.loc 1 45 76 is_stmt 1
	.loc 1 45 135 is_stmt 0
	ldr	r6, [r3]
	.loc 1 45 112
	str	r6, [r1]
	.loc 1 45 143 is_stmt 1
	.loc 1 45 201 is_stmt 0
	str	r3, [r3]
	.loc 1 45 171
	str	r3, [r3, #4]
	.loc 1 45 7 is_stmt 1
	.loc 1 46 5
	.loc 1 46 15 is_stmt 0
	ldr	r3, .L103
.LVL169:
	add	r3, r3, r0, lsl #3
	ldr	r3, [r3, #4]
	.loc 1 46 7
	cmp	r2, r3
	bne	.L72
	.loc 1 47 9 is_stmt 1
	bl	os_priority_unmark
.LVL170:
.LBE417:
.LBE416:
	.loc 1 294 5
	.loc 1 294 7 is_stmt 0
	cmp	r4, #0
	bne	.L72
	b	.L73
.LVL171:
.L100:
.LBB419:
.LBB418:
	.loc 1 40 9 is_stmt 1
	bl	os_priority_unmark
.LVL172:
	.loc 1 41 9
.LBE418:
.LBE419:
	.loc 1 294 5
.L73:
	.loc 1 295 9
	ldr	r0, .L103+12
	bl	printf
.LVL173:
	.loc 1 296 9
.LBB420:
.LBB421:
	.loc 2 34 5
	ldr	r3, .L103+16
	ldr	r3, [r3]
.LVL174:
.LBB422:
	.loc 3 28 5
.LBB423:
.LBB424:
	.loc 4 179 5
	.syntax unified
@ 179 "D:/RTOS/CPU/ARM_CortexM4/GCC/cpu_functions.h" 1
	MSR primask, r3
@ 0 "" 2
.LVL175:
	.thumb
	.syntax unified
.LBE424:
.LBE423:
	.loc 3 29 5
.LBB425:
.LBB426:
	.loc 4 335 5
	.syntax unified
@ 335 "D:/RTOS/CPU/ARM_CortexM4/GCC/cpu_functions.h" 1
	isb 0xF
@ 0 "" 2
.LVL176:
	.thumb
	.syntax unified
.LBE426:
.LBE425:
.LBE422:
.LBE421:
.LBE420:
	.loc 1 297 9
	.loc 1 297 16 is_stmt 0
	mov	r6, #-1
	b	.L41
.LVL177:
.L91:
.LBB427:
.LBB373:
	.loc 1 74 5 is_stmt 1
	.loc 1 74 9
	.loc 1 74 31 is_stmt 0
	ldr	r3, [r4, #28]
.LVL178:
	.loc 1 74 68
	ldr	r2, [r4, #32]
	.loc 1 74 45
	str	r2, [r3, #4]
	.loc 1 74 76 is_stmt 1
	.loc 1 74 135 is_stmt 0
	mov	r3, r4
	ldr	r5, [r3, #28]!
.LVL179:
	.loc 1 74 112
	str	r5, [r2]
	.loc 1 74 143 is_stmt 1
	.loc 1 74 201 is_stmt 0
	str	r3, [r4, #28]
	.loc 1 74 171
	str	r3, [r4, #32]
	.loc 1 74 7 is_stmt 1
	.loc 1 75 5
	.loc 1 75 19 is_stmt 0
	movs	r2, #2
	str	r2, [r4, #88]
	.loc 1 76 5 is_stmt 1
	.loc 1 79 9
	.loc 1 79 13
	.loc 1 79 20 is_stmt 0
	ldr	r2, .L103
	add	r2, r2, r0, lsl #3
	ldr	r5, [r2, #4]
	.loc 1 79 34
	str	r3, [r5]
	.loc 1 79 59 is_stmt 1
	.loc 1 79 95 is_stmt 0
	ldr	r5, [r2, #4]
	.loc 1 79 87
	str	r5, [r4, #32]
	.loc 1 79 103 is_stmt 1
	.loc 1 79 116 is_stmt 0
	str	r3, [r2, #4]
	.loc 1 79 141 is_stmt 1
	.loc 1 79 169 is_stmt 0
	str	r1, [r4, #28]
	.loc 1 79 11 is_stmt 1
	.loc 1 81 5
	bl	os_priority_mark
.LVL180:
.LBE373:
.LBE427:
	.loc 1 318 12 is_stmt 0
	movs	r6, #0
	b	.L41
.LVL181:
.L76:
	.loc 1 315 9 is_stmt 1
	mov	r1, r4
	mov	r0, r5
	bl	cpu_stack_switch
.LVL182:
.L41:
	.loc 1 319 1 is_stmt 0
	mov	r0, r6
	pop	{r3, r4, r5, r6, r7, pc}
.LVL183:
.L80:
	.loc 1 225 16
	mov	r6, #-1
	b	.L41
.LVL184:
.L82:
	.loc 1 318 12
	movs	r6, #0
	b	.L41
.LVL185:
.L83:
	movs	r6, #0
.LVL186:
	b	.L41
.L104:
	.align	2
.L103:
	.word	os_scheduler__ready_list
	.word	os_scheduler__pending_list
	.word	os_scheduler__yield_list
	.word	.LC1
	.word	os_scheduler__lock
	.cfi_endproc
.LFE59:
	.size	os_scheduler_schedule, .-os_scheduler_schedule
	.section	.text.os_scheduler_skipped,"ax",%progbits
	.align	1
	.global	os_scheduler_skipped
	.syntax unified
	.thumb
	.thumb_func
	.type	os_scheduler_skipped, %function
os_scheduler_skipped:
.LFB60:
	.loc 1 321 37 is_stmt 1
	.cfi_startproc
	@ args = 0, pretend = 0, frame = 0
	@ frame_needed = 0, uses_anonymous_args = 0
	@ link register save eliminated.
	.loc 1 322 5
	.loc 1 323 1 is_stmt 0
	ldr	r3, .L106
	ldr	r0, [r3]
	bx	lr
.L107:
	.align	2
.L106:
	.word	os_scheduler__skipped
	.cfi_endproc
.LFE60:
	.size	os_scheduler_skipped, .-os_scheduler_skipped
	.section	.text.os_scheduler_on_systick,"ax",%progbits
	.align	1
	.global	os_scheduler_on_systick
	.syntax unified
	.thumb
	.thumb_func
	.type	os_scheduler_on_systick, %function
os_scheduler_on_systick:
.LFB56:
	.loc 1 143 35 is_stmt 1
	.cfi_startproc
	@ args = 0, pretend = 0, frame = 0
	@ frame_needed = 0, uses_anonymous_args = 0
	push	{r4, r5, r6, lr}
	.cfi_def_cfa_offset 16
	.cfi_offset 4, -16
	.cfi_offset 5, -12
	.cfi_offset 6, -8
	.cfi_offset 14, -4
	.loc 1 144 5
	.loc 1 145 5
.LVL187:
	.loc 1 146 5
	.loc 1 148 5
.LBB428:
.LBB429:
	.loc 2 30 5
.LBB430:
.LBB431:
	.loc 3 19 5
	.loc 3 20 5
.LBB432:
.LBB433:
	.loc 4 165 5
	.loc 4 167 5
	.syntax unified
@ 167 "D:/RTOS/CPU/ARM_CortexM4/GCC/cpu_functions.h" 1
	MRS r2, primask
@ 0 "" 2
.LVL188:
	.loc 4 168 5
	.thumb
	.syntax unified
.LBE433:
.LBE432:
	.loc 3 21 5
.LBB434:
.LBB435:
	.loc 4 41 5
	.syntax unified
@ 41 "D:/RTOS/CPU/ARM_CortexM4/GCC/cpu_functions.h" 1
	cpsid i
@ 0 "" 2
	.thumb
	.syntax unified
.LBE435:
.LBE434:
	.loc 3 22 5
.LBB436:
.LBB437:
	.loc 4 335 5
	.syntax unified
@ 335 "D:/RTOS/CPU/ARM_CortexM4/GCC/cpu_functions.h" 1
	isb 0xF
@ 0 "" 2
	.thumb
	.syntax unified
.LBE437:
.LBE436:
	.loc 3 23 5
.LBB438:
.LBB439:
	.loc 4 357 5
	.syntax unified
@ 357 "D:/RTOS/CPU/ARM_CortexM4/GCC/cpu_functions.h" 1
	dmb 0xF
@ 0 "" 2
	.thumb
	.syntax unified
.LBE439:
.LBE438:
	.loc 3 24 5
.LBE431:
.LBE430:
	.loc 2 30 11 is_stmt 0
	ldr	r3, .L130
	str	r2, [r3]
.LVL189:
.LBE429:
.LBE428:
	.loc 1 149 5 is_stmt 1
	.loc 1 149 31 is_stmt 0
	ldr	r2, .L130+4
.LVL190:
	ldr	r3, [r2]
	adds	r3, r3, #1
	str	r3, [r2]
	.loc 1 150 5 is_stmt 1
	.loc 1 150 17 is_stmt 0
	ldr	r3, .L130+8
	ldr	r4, [r3]
.LVL191:
	.loc 1 152 5 is_stmt 1
	.loc 1 152 7 is_stmt 0
	cbz	r4, .L120
	.loc 1 153 9 is_stmt 1
	.loc 1 153 23 is_stmt 0
	ldr	r3, [r4, #88]
	.loc 1 153 11
	cmp	r3, #3
	beq	.L124
	.loc 1 145 23
	movs	r6, #0
.LVL192:
.L109:
	.loc 1 162 5 is_stmt 1
	.loc 1 162 27 is_stmt 0
	bl	os_timer_tick
.LVL193:
	mov	r5, r0
.LVL194:
	.loc 1 164 5 is_stmt 1
	.loc 1 164 8 is_stmt 0
	bl	os_scheduler_skipped
.LVL195:
	.loc 1 164 7
	cbnz	r0, .L125
.L110:
	.loc 1 174 5 is_stmt 1
	.loc 1 174 7 is_stmt 0
	cbnz	r6, .L126
.L113:
	.loc 1 185 5 is_stmt 1
	.loc 1 185 7 is_stmt 0
	cmp	r5, #0
	bne	.L127
.L118:
	.loc 1 195 5 is_stmt 1
.LVL196:
.LBB440:
.LBB441:
	.loc 2 34 5
	ldr	r3, .L130
	ldr	r3, [r3]
.LVL197:
.LBB442:
	.loc 3 28 5
.LBB443:
.LBB444:
	.loc 4 179 5
	.syntax unified
@ 179 "D:/RTOS/CPU/ARM_CortexM4/GCC/cpu_functions.h" 1
	MSR primask, r3
@ 0 "" 2
.LVL198:
	.thumb
	.syntax unified
.LBE444:
.LBE443:
	.loc 3 29 5
.LBB445:
.LBB446:
	.loc 4 335 5
	.syntax unified
@ 335 "D:/RTOS/CPU/ARM_CortexM4/GCC/cpu_functions.h" 1
	isb 0xF
@ 0 "" 2
.LVL199:
	.thumb
	.syntax unified
.L108:
.LBE446:
.LBE445:
.LBE442:
.LBE441:
.LBE440:
	.loc 1 196 1 is_stmt 0
	pop	{r4, r5, r6, pc}
.LVL200:
.L124:
	.loc 1 154 13 is_stmt 1
	.loc 1 154 24 is_stmt 0
	ldr	r3, [r4, #84]
	.loc 1 154 38
	subs	r3, r3, #1
	str	r3, [r4, #84]
	.loc 1 155 13 is_stmt 1
	.loc 1 155 15 is_stmt 0
	cbnz	r3, .L122
	.loc 1 156 17 is_stmt 1
	.loc 1 156 36 is_stmt 0
	movs	r3, #4
	str	r3, [r4, #88]
	.loc 1 157 17 is_stmt 1
.LVL201:
	.loc 1 157 43 is_stmt 0
	movs	r6, #1
	b	.L109
.LVL202:
.L120:
	.loc 1 145 23
	movs	r6, #0
	b	.L109
.L122:
	movs	r6, #0
	b	.L109
.LVL203:
.L125:
	.loc 1 164 37 discriminator 1
	bl	os_interrupt_nest
.LVL204:
	.loc 1 164 34 discriminator 1
	cmp	r0, #0
	bne	.L110
	.loc 1 166 9 is_stmt 1
	.loc 1 166 11 is_stmt 0
	cbz	r4, .L111
	.loc 1 166 41 discriminator 1
	ldr	r3, [r4, #88]
	.loc 1 166 27 discriminator 1
	cmp	r3, #3
	beq	.L128
.L111:
	.loc 1 169 9 is_stmt 1
.LVL205:
.LBB447:
.LBB448:
	.loc 2 34 5
	ldr	r3, .L130
	ldr	r3, [r3]
.LVL206:
.LBB449:
	.loc 3 28 5
.LBB450:
.LBB451:
	.loc 4 179 5
	.syntax unified
@ 179 "D:/RTOS/CPU/ARM_CortexM4/GCC/cpu_functions.h" 1
	MSR primask, r3
@ 0 "" 2
.LVL207:
	.thumb
	.syntax unified
.LBE451:
.LBE450:
	.loc 3 29 5
.LBB452:
.LBB453:
	.loc 4 335 5
	.syntax unified
@ 335 "D:/RTOS/CPU/ARM_CortexM4/GCC/cpu_functions.h" 1
	isb 0xF
@ 0 "" 2
.LVL208:
	.thumb
	.syntax unified
.LBE453:
.LBE452:
.LBE449:
.LBE448:
.LBE447:
	.loc 1 170 9
	movs	r0, #1
	bl	os_scheduler_schedule
.LVL209:
	.loc 1 171 9
	b	.L108
.L128:
	.loc 1 167 13
	.loc 1 167 32 is_stmt 0
	movs	r3, #4
	str	r3, [r4, #88]
	b	.L111
.L126:
	.loc 1 175 9 is_stmt 1
	.loc 1 175 12 is_stmt 0
	bl	os_interrupt_nest
.LVL210:
	.loc 1 175 11
	cbz	r0, .L114
	.loc 1 176 13 is_stmt 1
.LVL211:
.LBB454:
.LBB455:
	.loc 1 53 5
	.loc 1 53 7 is_stmt 0
	cbz	r4, .L115
	.loc 1 54 5 is_stmt 1
	.loc 1 54 14 is_stmt 0
	ldr	r2, [r4]
	.loc 1 54 27
	ldr	r3, [r4, #20]
	.loc 1 54 7
	cmp	r2, r3
	bcc	.L116
	.loc 1 54 83
	ldr	r1, [r4, #24]
	.loc 1 54 75
	add	r3, r3, r1
	.loc 1 54 40
	cmp	r2, r3
	bcs	.L116
	.loc 1 58 5 is_stmt 1
	.loc 1 58 9
	.loc 1 58 31 is_stmt 0
	ldr	r3, [r4, #28]
	.loc 1 58 68
	ldr	r2, [r4, #32]
	.loc 1 58 45
	str	r2, [r3, #4]
	.loc 1 58 76 is_stmt 1
	.loc 1 58 135 is_stmt 0
	mov	r3, r4
	ldr	r1, [r3, #28]!
	.loc 1 58 112
	str	r1, [r2]
	.loc 1 58 143 is_stmt 1
	.loc 1 58 201 is_stmt 0
	str	r3, [r4, #28]
	.loc 1 58 171
	str	r3, [r4, #32]
	.loc 1 58 7 is_stmt 1
	.loc 1 59 5
	.loc 1 59 9
	.loc 1 59 39 is_stmt 0
	ldr	r2, .L130+12
	ldr	r1, [r2]
	.loc 1 59 53
	str	r3, [r1, #4]
	.loc 1 59 78 is_stmt 1
	.loc 1 59 106 is_stmt 0
	str	r1, [r4, #28]
	.loc 1 59 145 is_stmt 1
	.loc 1 59 181 is_stmt 0
	str	r3, [r2]
	.loc 1 59 206 is_stmt 1
	.loc 1 59 234 is_stmt 0
	str	r2, [r4, #32]
.L115:
	.loc 1 59 7 is_stmt 1
.LVL212:
.LBE455:
.LBE454:
	.loc 1 177 13
.LBB457:
.LBB458:
	.loc 1 139 5
	.loc 1 139 26 is_stmt 0
	ldr	r2, .L130+16
	ldr	r3, [r2]
	adds	r3, r3, #1
	str	r3, [r2]
	.loc 1 140 1
	b	.L113
.LVL213:
.L116:
.LBE458:
.LBE457:
.LBB459:
.LBB456:
	.loc 1 55 9 is_stmt 1
	ldr	r0, .L130+20
	bl	printf
.LVL214:
	.loc 1 56 9
	b	.L115
.LVL215:
.L114:
.LBE456:
.LBE459:
	.loc 1 179 13
.LBB460:
.LBB461:
	.loc 2 34 5
	ldr	r3, .L130
	ldr	r3, [r3]
.LVL216:
.LBB462:
	.loc 3 28 5
.LBB463:
.LBB464:
	.loc 4 179 5
	.syntax unified
@ 179 "D:/RTOS/CPU/ARM_CortexM4/GCC/cpu_functions.h" 1
	MSR primask, r3
@ 0 "" 2
.LVL217:
	.thumb
	.syntax unified
.LBE464:
.LBE463:
	.loc 3 29 5
.LBB465:
.LBB466:
	.loc 4 335 5
	.syntax unified
@ 335 "D:/RTOS/CPU/ARM_CortexM4/GCC/cpu_functions.h" 1
	isb 0xF
@ 0 "" 2
.LVL218:
	.thumb
	.syntax unified
.LBE466:
.LBE465:
.LBE462:
.LBE461:
.LBE460:
	.loc 1 180 13
	movs	r0, #2
	bl	os_scheduler_schedule
.LVL219:
	.loc 1 181 13
	b	.L108
.L127:
	.loc 1 186 9
	.loc 1 186 12 is_stmt 0
	bl	os_interrupt_nest
.LVL220:
	.loc 1 186 11
	cbz	r0, .L129
	.loc 1 191 13 is_stmt 1
.LBB467:
.LBB468:
	.loc 1 139 5
	.loc 1 139 26 is_stmt 0
	ldr	r2, .L130+16
	ldr	r3, [r2]
	adds	r3, r3, #1
	str	r3, [r2]
	.loc 1 140 1
	b	.L118
.L129:
.LBE468:
.LBE467:
	.loc 1 187 13 is_stmt 1
.LVL221:
.LBB469:
.LBB470:
	.loc 2 34 5
	ldr	r3, .L130
	ldr	r3, [r3]
.LVL222:
.LBB471:
	.loc 3 28 5
.LBB472:
.LBB473:
	.loc 4 179 5
	.syntax unified
@ 179 "D:/RTOS/CPU/ARM_CortexM4/GCC/cpu_functions.h" 1
	MSR primask, r3
@ 0 "" 2
.LVL223:
	.thumb
	.syntax unified
.LBE473:
.LBE472:
	.loc 3 29 5
.LBB474:
.LBB475:
	.loc 4 335 5
	.syntax unified
@ 335 "D:/RTOS/CPU/ARM_CortexM4/GCC/cpu_functions.h" 1
	isb 0xF
@ 0 "" 2
.LVL224:
	.thumb
	.syntax unified
.LBE475:
.LBE474:
.LBE471:
.LBE470:
.LBE469:
	.loc 1 188 13
	movs	r0, #2
	bl	os_scheduler_schedule
.LVL225:
	.loc 1 189 13
	b	.L108
.L131:
	.align	2
.L130:
	.word	os_scheduler__lock
	.word	os_scheduler__current_tick
	.word	os_scheduler__current_thread
	.word	os_scheduler__pending_list
	.word	os_scheduler__skipped
	.word	.LC0
	.cfi_endproc
.LFE56:
	.size	os_scheduler_on_systick, .-os_scheduler_on_systick
	.section	.text.os_scheduler_push_back,"ax",%progbits
	.align	1
	.global	os_scheduler_push_back
	.syntax unified
	.thumb
	.thumb_func
	.type	os_scheduler_push_back, %function
os_scheduler_push_back:
.LFB61:
	.loc 1 326 1
	.cfi_startproc
	@ args = 0, pretend = 0, frame = 0
	@ frame_needed = 0, uses_anonymous_args = 0
.LVL226:
	.loc 1 327 5
	.loc 1 327 7 is_stmt 0
	cmp	r0, #0
	beq	.L137
	.loc 1 326 1
	push	{r3, r4, r5, lr}
	.cfi_def_cfa_offset 16
	.cfi_offset 3, -16
	.cfi_offset 4, -12
	.cfi_offset 5, -8
	.cfi_offset 14, -4
	mov	r1, r0
	.loc 1 329 5 is_stmt 1
.LVL227:
.LBB476:
.LBB477:
	.loc 2 30 5
.LBB478:
.LBB479:
	.loc 3 19 5
	.loc 3 20 5
.LBB480:
.LBB481:
	.loc 4 165 5
	.loc 4 167 5
	.syntax unified
@ 167 "D:/RTOS/CPU/ARM_CortexM4/GCC/cpu_functions.h" 1
	MRS r2, primask
@ 0 "" 2
.LVL228:
	.loc 4 168 5
	.thumb
	.syntax unified
.LBE481:
.LBE480:
	.loc 3 21 5
.LBB482:
.LBB483:
	.loc 4 41 5
	.syntax unified
@ 41 "D:/RTOS/CPU/ARM_CortexM4/GCC/cpu_functions.h" 1
	cpsid i
@ 0 "" 2
	.thumb
	.syntax unified
.LBE483:
.LBE482:
	.loc 3 22 5
.LBB484:
.LBB485:
	.loc 4 335 5
	.syntax unified
@ 335 "D:/RTOS/CPU/ARM_CortexM4/GCC/cpu_functions.h" 1
	isb 0xF
@ 0 "" 2
	.thumb
	.syntax unified
.LBE485:
.LBE484:
	.loc 3 23 5
.LBB486:
.LBB487:
	.loc 4 357 5
	.syntax unified
@ 357 "D:/RTOS/CPU/ARM_CortexM4/GCC/cpu_functions.h" 1
	dmb 0xF
@ 0 "" 2
	.thumb
	.syntax unified
.LBE487:
.LBE486:
	.loc 3 24 5
.LBE479:
.LBE478:
	.loc 2 30 11 is_stmt 0
	ldr	r3, .L143
	str	r2, [r3]
.LVL229:
.LBE477:
.LBE476:
	.loc 1 330 5 is_stmt 1
.LBB488:
.LBB489:
	.loc 1 63 5
	.loc 1 64 5
	.loc 1 64 19 is_stmt 0
	ldr	r0, [r0, #76]
.LVL230:
	.loc 1 65 5 is_stmt 1
	.loc 1 65 17 is_stmt 0
	ldr	r4, .L143+4
	add	r4, r4, r0, lsl #3
.LVL231:
	.loc 1 66 5 is_stmt 1
	.loc 1 67 5
	.loc 1 67 14 is_stmt 0
	ldr	r3, [r4, #4]
.LVL232:
.L134:
	.loc 1 67 34 is_stmt 1
	cmp	r4, r3
	beq	.L142
.LBB490:
	.loc 1 68 9
	.loc 1 68 22 is_stmt 0
	sub	r2, r3, #28
.LVL233:
	.loc 1 69 9 is_stmt 1
	.loc 1 69 11 is_stmt 0
	cmp	r1, r2
	beq	.L135
	.loc 1 72 9 is_stmt 1
	.loc 1 72 14 is_stmt 0
	ldr	r3, [r3, #4]
.LVL234:
	b	.L134
.LVL235:
.L142:
.LBE490:
	.loc 1 74 5 is_stmt 1
	.loc 1 74 9
	.loc 1 74 31 is_stmt 0
	ldr	r3, [r1, #28]
.LVL236:
	.loc 1 74 68
	ldr	r2, [r1, #32]
	.loc 1 74 45
	str	r2, [r3, #4]
	.loc 1 74 76 is_stmt 1
	.loc 1 74 135 is_stmt 0
	mov	r3, r1
	ldr	r5, [r3, #28]!
	.loc 1 74 112
	str	r5, [r2]
.LVL237:
	.loc 1 74 143 is_stmt 1
	.loc 1 74 201 is_stmt 0
	str	r3, [r1, #28]
	.loc 1 74 171
	str	r3, [r1, #32]
	.loc 1 74 7 is_stmt 1
	.loc 1 75 5
	.loc 1 75 19 is_stmt 0
	movs	r2, #2
	str	r2, [r1, #88]
	.loc 1 76 5 is_stmt 1
	.loc 1 77 9
	.loc 1 77 13
	.loc 1 77 20 is_stmt 0
	ldr	r2, .L143+4
	.loc 1 77 34
	ldr	r5, [r2, r0, lsl #3]
	str	r3, [r5, #4]
	.loc 1 77 59 is_stmt 1
	.loc 1 77 87 is_stmt 0
	ldr	r5, [r2, r0, lsl #3]
	str	r5, [r1, #28]
	.loc 1 77 103 is_stmt 1
	.loc 1 77 116 is_stmt 0
	str	r3, [r2, r0, lsl #3]
	.loc 1 77 141 is_stmt 1
	.loc 1 77 169 is_stmt 0
	str	r4, [r1, #32]
	.loc 1 77 11 is_stmt 1
	.loc 1 79 11
	.loc 1 81 5
	bl	os_priority_mark
.LVL238:
.L135:
.LBE489:
.LBE488:
	.loc 1 331 5
.LBB491:
.LBB492:
	.loc 2 34 5
	ldr	r3, .L143
	ldr	r3, [r3]
.LVL239:
.LBB493:
	.loc 3 28 5
.LBB494:
.LBB495:
	.loc 4 179 5
	.syntax unified
@ 179 "D:/RTOS/CPU/ARM_CortexM4/GCC/cpu_functions.h" 1
	MSR primask, r3
@ 0 "" 2
.LVL240:
	.thumb
	.syntax unified
.LBE495:
.LBE494:
	.loc 3 29 5
.LBB496:
.LBB497:
	.loc 4 335 5
	.syntax unified
@ 335 "D:/RTOS/CPU/ARM_CortexM4/GCC/cpu_functions.h" 1
	isb 0xF
@ 0 "" 2
.LVL241:
	.thumb
	.syntax unified
.LBE497:
.LBE496:
.LBE493:
.LBE492:
.LBE491:
	.loc 1 333 5
	.loc 1 333 12 is_stmt 0
	movs	r0, #0
	.loc 1 334 1
	pop	{r3, r4, r5, pc}
.LVL242:
.L137:
	.cfi_def_cfa_offset 0
	.cfi_restore 3
	.cfi_restore 4
	.cfi_restore 5
	.cfi_restore 14
	.loc 1 327 24
	mvn	r0, #2
.LVL243:
	.loc 1 334 1
	bx	lr
.L144:
	.align	2
.L143:
	.word	os_scheduler__lock
	.word	os_scheduler__ready_list
	.cfi_endproc
.LFE61:
	.size	os_scheduler_push_back, .-os_scheduler_push_back
	.section	.text.os_scheduler_push_front,"ax",%progbits
	.align	1
	.global	os_scheduler_push_front
	.syntax unified
	.thumb
	.thumb_func
	.type	os_scheduler_push_front, %function
os_scheduler_push_front:
.LFB62:
	.loc 1 336 55 is_stmt 1
	.cfi_startproc
	@ args = 0, pretend = 0, frame = 0
	@ frame_needed = 0, uses_anonymous_args = 0
.LVL244:
	push	{r3, r4, r5, lr}
	.cfi_def_cfa_offset 16
	.cfi_offset 3, -16
	.cfi_offset 4, -12
	.cfi_offset 5, -8
	.cfi_offset 14, -4
	.loc 1 337 5
.LVL245:
.LBB498:
.LBB499:
	.loc 2 30 5
.LBB500:
.LBB501:
	.loc 3 19 5
	.loc 3 20 5
.LBB502:
.LBB503:
	.loc 4 165 5
	.loc 4 167 5
	.syntax unified
@ 167 "D:/RTOS/CPU/ARM_CortexM4/GCC/cpu_functions.h" 1
	MRS r1, primask
@ 0 "" 2
.LVL246:
	.loc 4 168 5
	.thumb
	.syntax unified
.LBE503:
.LBE502:
	.loc 3 21 5
.LBB504:
.LBB505:
	.loc 4 41 5
	.syntax unified
@ 41 "D:/RTOS/CPU/ARM_CortexM4/GCC/cpu_functions.h" 1
	cpsid i
@ 0 "" 2
	.thumb
	.syntax unified
.LBE505:
.LBE504:
	.loc 3 22 5
.LBB506:
.LBB507:
	.loc 4 335 5
	.syntax unified
@ 335 "D:/RTOS/CPU/ARM_CortexM4/GCC/cpu_functions.h" 1
	isb 0xF
@ 0 "" 2
	.thumb
	.syntax unified
.LBE507:
.LBE506:
	.loc 3 23 5
.LBB508:
.LBB509:
	.loc 4 357 5
	.syntax unified
@ 357 "D:/RTOS/CPU/ARM_CortexM4/GCC/cpu_functions.h" 1
	dmb 0xF
@ 0 "" 2
	.thumb
	.syntax unified
.LBE509:
.LBE508:
	.loc 3 24 5
.LBE501:
.LBE500:
	.loc 2 30 11 is_stmt 0
	ldr	r3, .L151
	str	r1, [r3]
.LVL247:
.LBE499:
.LBE498:
	.loc 1 338 5 is_stmt 1
.LBB510:
.LBB511:
	.loc 1 63 5
	.loc 1 63 7 is_stmt 0
	cbz	r0, .L146
	mov	r2, r0
	.loc 1 64 5 is_stmt 1
	.loc 1 64 19 is_stmt 0
	ldr	r0, [r0, #76]
.LVL248:
	.loc 1 65 5 is_stmt 1
	.loc 1 65 17 is_stmt 0
	ldr	r4, .L151+4
	add	r4, r4, r0, lsl #3
.LVL249:
	.loc 1 66 5 is_stmt 1
	.loc 1 67 5
	.loc 1 67 14 is_stmt 0
	ldr	r3, [r4, #4]
.LVL250:
.L147:
	.loc 1 67 34 is_stmt 1
	cmp	r4, r3
	beq	.L150
.LBB512:
	.loc 1 68 9
	.loc 1 68 22 is_stmt 0
	sub	r1, r3, #28
.LVL251:
	.loc 1 69 9 is_stmt 1
	.loc 1 69 11 is_stmt 0
	cmp	r2, r1
	beq	.L146
	.loc 1 72 9 is_stmt 1
	.loc 1 72 14 is_stmt 0
	ldr	r3, [r3, #4]
.LVL252:
	b	.L147
.LVL253:
.L150:
.LBE512:
	.loc 1 74 5 is_stmt 1
	.loc 1 74 9
	.loc 1 74 31 is_stmt 0
	ldr	r3, [r2, #28]
.LVL254:
	.loc 1 74 68
	ldr	r1, [r2, #32]
	.loc 1 74 45
	str	r1, [r3, #4]
	.loc 1 74 76 is_stmt 1
	.loc 1 74 135 is_stmt 0
	mov	r3, r2
	ldr	r5, [r3, #28]!
	.loc 1 74 112
	str	r5, [r1]
.LVL255:
	.loc 1 74 143 is_stmt 1
	.loc 1 74 201 is_stmt 0
	str	r3, [r2, #28]
	.loc 1 74 171
	str	r3, [r2, #32]
	.loc 1 74 7 is_stmt 1
	.loc 1 75 5
	.loc 1 75 19 is_stmt 0
	movs	r1, #2
	str	r1, [r2, #88]
	.loc 1 76 5 is_stmt 1
	.loc 1 79 9
	.loc 1 79 13
	.loc 1 79 20 is_stmt 0
	ldr	r1, .L151+4
	add	r1, r1, r0, lsl #3
	.loc 1 79 34
	ldr	r5, [r1, #4]
	str	r3, [r5]
	.loc 1 79 59 is_stmt 1
	.loc 1 79 87 is_stmt 0
	ldr	r5, [r1, #4]
	str	r5, [r2, #32]
	.loc 1 79 103 is_stmt 1
	.loc 1 79 116 is_stmt 0
	str	r3, [r1, #4]
	.loc 1 79 141 is_stmt 1
	.loc 1 79 169 is_stmt 0
	str	r4, [r2, #28]
	.loc 1 79 11 is_stmt 1
	.loc 1 81 5
	bl	os_priority_mark
.LVL256:
.L146:
.LBE511:
.LBE510:
	.loc 1 339 5
.LBB513:
.LBB514:
	.loc 2 34 5
	ldr	r3, .L151
	ldr	r3, [r3]
.LVL257:
.LBB515:
	.loc 3 28 5
.LBB516:
.LBB517:
	.loc 4 179 5
	.syntax unified
@ 179 "D:/RTOS/CPU/ARM_CortexM4/GCC/cpu_functions.h" 1
	MSR primask, r3
@ 0 "" 2
.LVL258:
	.thumb
	.syntax unified
.LBE517:
.LBE516:
	.loc 3 29 5
.LBB518:
.LBB519:
	.loc 4 335 5
	.syntax unified
@ 335 "D:/RTOS/CPU/ARM_CortexM4/GCC/cpu_functions.h" 1
	isb 0xF
@ 0 "" 2
.LVL259:
	.thumb
	.syntax unified
.LBE519:
.LBE518:
.LBE515:
.LBE514:
.LBE513:
	.loc 1 341 5
	.loc 1 342 1 is_stmt 0
	movs	r0, #0
	pop	{r3, r4, r5, pc}
.L152:
	.align	2
.L151:
	.word	os_scheduler__lock
	.word	os_scheduler__ready_list
	.cfi_endproc
.LFE62:
	.size	os_scheduler_push_front, .-os_scheduler_push_front
	.section	.text.os_scheduler_suspend,"ax",%progbits
	.align	1
	.global	os_scheduler_suspend
	.syntax unified
	.thumb
	.thumb_func
	.type	os_scheduler_suspend, %function
os_scheduler_suspend:
.LFB63:
	.loc 1 344 52 is_stmt 1
	.cfi_startproc
	@ args = 0, pretend = 0, frame = 0
	@ frame_needed = 0, uses_anonymous_args = 0
.LVL260:
	push	{r3, r4, r5, lr}
	.cfi_def_cfa_offset 16
	.cfi_offset 3, -16
	.cfi_offset 4, -12
	.cfi_offset 5, -8
	.cfi_offset 14, -4
	.loc 1 345 5
.LVL261:
.LBB520:
.LBB521:
	.loc 2 30 5
.LBB522:
.LBB523:
	.loc 3 19 5
	.loc 3 20 5
.LBB524:
.LBB525:
	.loc 4 165 5
	.loc 4 167 5
	.syntax unified
@ 167 "D:/RTOS/CPU/ARM_CortexM4/GCC/cpu_functions.h" 1
	MRS r3, primask
@ 0 "" 2
.LVL262:
	.loc 4 168 5
	.thumb
	.syntax unified
.LBE525:
.LBE524:
	.loc 3 21 5
.LBB526:
.LBB527:
	.loc 4 41 5
	.syntax unified
@ 41 "D:/RTOS/CPU/ARM_CortexM4/GCC/cpu_functions.h" 1
	cpsid i
@ 0 "" 2
	.thumb
	.syntax unified
.LBE527:
.LBE526:
	.loc 3 22 5
.LBB528:
.LBB529:
	.loc 4 335 5
	.syntax unified
@ 335 "D:/RTOS/CPU/ARM_CortexM4/GCC/cpu_functions.h" 1
	isb 0xF
@ 0 "" 2
	.thumb
	.syntax unified
.LBE529:
.LBE528:
	.loc 3 23 5
.LBB530:
.LBB531:
	.loc 4 357 5
	.syntax unified
@ 357 "D:/RTOS/CPU/ARM_CortexM4/GCC/cpu_functions.h" 1
	dmb 0xF
@ 0 "" 2
	.thumb
	.syntax unified
.LBE531:
.LBE530:
	.loc 3 24 5
.LBE523:
.LBE522:
	.loc 2 30 11 is_stmt 0
	ldr	r5, .L155
	str	r3, [r5]
.LVL263:
.LBE521:
.LBE520:
	.loc 1 346 5 is_stmt 1
	.loc 1 346 19 is_stmt 0
	movs	r3, #1
.LVL264:
	str	r3, [r0, #88]
	.loc 1 347 5 is_stmt 1
	.loc 1 347 26 is_stmt 0
	movs	r4, #0
	str	r4, [r0, #84]
	.loc 1 348 5 is_stmt 1
	.loc 1 348 9
	.loc 1 348 31 is_stmt 0
	ldr	r3, [r0, #28]
	.loc 1 348 68
	ldr	r2, [r0, #32]
	.loc 1 348 45
	str	r2, [r3, #4]
	.loc 1 348 76 is_stmt 1
	.loc 1 348 135 is_stmt 0
	mov	r3, r0
	ldr	r1, [r3, #28]!
	.loc 1 348 112
	str	r1, [r2]
.LVL265:
	.loc 1 348 143 is_stmt 1
	.loc 1 348 201 is_stmt 0
	str	r3, [r0, #28]
	.loc 1 348 171
	str	r3, [r0, #32]
	.loc 1 348 7 is_stmt 1
	.loc 1 349 5
	.loc 1 349 9
	.loc 1 349 30 is_stmt 0
	ldr	r3, [r0, #36]
	.loc 1 349 66
	ldr	r2, [r0, #40]
	.loc 1 349 44
	str	r2, [r3, #4]
	.loc 1 349 74 is_stmt 1
	.loc 1 349 131 is_stmt 0
	mov	r3, r0
	ldr	r1, [r3, #36]!
	.loc 1 349 109
	str	r1, [r2]
	.loc 1 349 139 is_stmt 1
	.loc 1 349 195 is_stmt 0
	str	r3, [r0, #36]
	.loc 1 349 166
	str	r3, [r0, #40]
	.loc 1 349 7 is_stmt 1
	.loc 1 350 5
	adds	r0, r0, #44
.LVL266:
	bl	os_timer_remove
.LVL267:
	.loc 1 351 5
.LBB532:
.LBB533:
	.loc 2 34 5
	ldr	r3, [r5]
.LVL268:
.LBB534:
	.loc 3 28 5
.LBB535:
.LBB536:
	.loc 4 179 5
	.syntax unified
@ 179 "D:/RTOS/CPU/ARM_CortexM4/GCC/cpu_functions.h" 1
	MSR primask, r3
@ 0 "" 2
.LVL269:
	.thumb
	.syntax unified
.LBE536:
.LBE535:
	.loc 3 29 5
.LBB537:
.LBB538:
	.loc 4 335 5
	.syntax unified
@ 335 "D:/RTOS/CPU/ARM_CortexM4/GCC/cpu_functions.h" 1
	isb 0xF
@ 0 "" 2
.LVL270:
	.thumb
	.syntax unified
.LBE538:
.LBE537:
.LBE534:
.LBE533:
.LBE532:
	.loc 1 352 5
	.loc 1 353 1 is_stmt 0
	mov	r0, r4
	pop	{r3, r4, r5, pc}
.L156:
	.align	2
.L155:
	.word	os_scheduler__lock
	.cfi_endproc
.LFE63:
	.size	os_scheduler_suspend, .-os_scheduler_suspend
	.section	.text.os_scheduler_resume,"ax",%progbits
	.align	1
	.global	os_scheduler_resume
	.syntax unified
	.thumb
	.thumb_func
	.type	os_scheduler_resume, %function
os_scheduler_resume:
.LFB64:
	.loc 1 355 51 is_stmt 1
	.cfi_startproc
	@ args = 0, pretend = 0, frame = 0
	@ frame_needed = 0, uses_anonymous_args = 0
.LVL271:
	push	{r3, lr}
	.cfi_def_cfa_offset 8
	.cfi_offset 3, -8
	.cfi_offset 14, -4
	.loc 1 356 5
	.loc 1 356 12 is_stmt 0
	bl	os_scheduler_push_back
.LVL272:
	.loc 1 357 1
	pop	{r3, pc}
	.cfi_endproc
.LFE64:
	.size	os_scheduler_resume, .-os_scheduler_resume
	.section	.text.os_scheduler_yield,"ax",%progbits
	.align	1
	.global	os_scheduler_yield
	.syntax unified
	.thumb
	.thumb_func
	.type	os_scheduler_yield, %function
os_scheduler_yield:
.LFB65:
	.loc 1 360 1 is_stmt 1
	.cfi_startproc
	@ args = 0, pretend = 0, frame = 0
	@ frame_needed = 0, uses_anonymous_args = 0
	@ link register save eliminated.
.LVL273:
	push	{r4}
	.cfi_def_cfa_offset 4
	.cfi_offset 4, -4
	.loc 1 361 5
.LVL274:
.LBB539:
.LBB540:
	.loc 2 30 5
.LBB541:
.LBB542:
	.loc 3 19 5
	.loc 3 20 5
.LBB543:
.LBB544:
	.loc 4 165 5
	.loc 4 167 5
	.syntax unified
@ 167 "D:/RTOS/CPU/ARM_CortexM4/GCC/cpu_functions.h" 1
	MRS r3, primask
@ 0 "" 2
.LVL275:
	.loc 4 168 5
	.thumb
	.syntax unified
.LBE544:
.LBE543:
	.loc 3 21 5
.LBB545:
.LBB546:
	.loc 4 41 5
	.syntax unified
@ 41 "D:/RTOS/CPU/ARM_CortexM4/GCC/cpu_functions.h" 1
	cpsid i
@ 0 "" 2
	.thumb
	.syntax unified
.LBE546:
.LBE545:
	.loc 3 22 5
.LBB547:
.LBB548:
	.loc 4 335 5
	.syntax unified
@ 335 "D:/RTOS/CPU/ARM_CortexM4/GCC/cpu_functions.h" 1
	isb 0xF
@ 0 "" 2
	.thumb
	.syntax unified
.LBE548:
.LBE547:
	.loc 3 23 5
.LBB549:
.LBB550:
	.loc 4 357 5
	.syntax unified
@ 357 "D:/RTOS/CPU/ARM_CortexM4/GCC/cpu_functions.h" 1
	dmb 0xF
@ 0 "" 2
	.thumb
	.syntax unified
.LBE550:
.LBE549:
	.loc 3 24 5
.LBE542:
.LBE541:
	.loc 2 30 11 is_stmt 0
	ldr	r1, .L161
	str	r3, [r1]
.LVL276:
.LBE540:
.LBE539:
	.loc 1 362 5 is_stmt 1
	.loc 1 362 19 is_stmt 0
	movs	r3, #4
.LVL277:
	str	r3, [r0, #88]
	.loc 1 363 5 is_stmt 1
	.loc 1 363 9
	.loc 1 363 31 is_stmt 0
	ldr	r3, [r0, #28]
	.loc 1 363 68
	ldr	r2, [r0, #32]
	.loc 1 363 45
	str	r2, [r3, #4]
	.loc 1 363 76 is_stmt 1
	.loc 1 363 135 is_stmt 0
	mov	r3, r0
	ldr	r4, [r3, #28]!
	.loc 1 363 112
	str	r4, [r2]
.LVL278:
	.loc 1 363 143 is_stmt 1
	.loc 1 363 201 is_stmt 0
	str	r3, [r0, #28]
	.loc 1 363 171
	str	r3, [r0, #32]
	.loc 1 363 7 is_stmt 1
	.loc 1 364 5
	.loc 1 364 9
	.loc 1 364 37 is_stmt 0
	ldr	r2, .L161+4
	ldr	r4, [r2]
	.loc 1 364 51
	str	r3, [r4, #4]
	.loc 1 364 76 is_stmt 1
	.loc 1 364 104 is_stmt 0
	str	r4, [r0, #28]
	.loc 1 364 141 is_stmt 1
	.loc 1 364 175 is_stmt 0
	str	r3, [r2]
	.loc 1 364 200 is_stmt 1
	.loc 1 364 228 is_stmt 0
	str	r2, [r0, #32]
	.loc 1 364 7 is_stmt 1
	.loc 1 365 5
.LVL279:
.LBB551:
.LBB552:
	.loc 2 34 5
	ldr	r3, [r1]
.LVL280:
.LBB553:
	.loc 3 28 5
.LBB554:
.LBB555:
	.loc 4 179 5
	.syntax unified
@ 179 "D:/RTOS/CPU/ARM_CortexM4/GCC/cpu_functions.h" 1
	MSR primask, r3
@ 0 "" 2
.LVL281:
	.thumb
	.syntax unified
.LBE555:
.LBE554:
	.loc 3 29 5
.LBB556:
.LBB557:
	.loc 4 335 5
	.syntax unified
@ 335 "D:/RTOS/CPU/ARM_CortexM4/GCC/cpu_functions.h" 1
	isb 0xF
@ 0 "" 2
.LVL282:
	.thumb
	.syntax unified
.LBE557:
.LBE556:
.LBE553:
.LBE552:
.LBE551:
	.loc 1 366 5
	.loc 1 367 1 is_stmt 0
	movs	r0, #0
.LVL283:
	ldr	r4, [sp], #4
	.cfi_restore 4
	.cfi_def_cfa_offset 0
	bx	lr
.L162:
	.align	2
.L161:
	.word	os_scheduler__lock
	.word	os_scheduler__yield_list
	.cfi_endproc
.LFE65:
	.size	os_scheduler_yield, .-os_scheduler_yield
	.section	.text.os_scheduler_current_thread,"ax",%progbits
	.align	1
	.global	os_scheduler_current_thread
	.syntax unified
	.thumb
	.thumb_func
	.type	os_scheduler_current_thread, %function
os_scheduler_current_thread:
.LFB66:
	.loc 1 370 1 is_stmt 1
	.cfi_startproc
	@ args = 0, pretend = 0, frame = 0
	@ frame_needed = 0, uses_anonymous_args = 0
	@ link register save eliminated.
	.loc 1 371 5
	.loc 1 372 1 is_stmt 0
	ldr	r3, .L164
	ldr	r0, [r3]
	bx	lr
.L165:
	.align	2
.L164:
	.word	os_scheduler__current_thread
	.cfi_endproc
.LFE66:
	.size	os_scheduler_current_thread, .-os_scheduler_current_thread
	.section	.text.os_scheduler_push,"ax",%progbits
	.align	1
	.global	os_scheduler_push
	.syntax unified
	.thumb
	.thumb_func
	.type	os_scheduler_push, %function
os_scheduler_push:
.LFB67:
	.loc 1 375 1 is_stmt 1
	.cfi_startproc
	@ args = 0, pretend = 0, frame = 0
	@ frame_needed = 0, uses_anonymous_args = 0
.LVL284:
	.loc 1 376 5
	.loc 1 376 7 is_stmt 0
	cmp	r0, #0
	beq	.L175
	.loc 1 375 1
	push	{r3, r4, r5, lr}
	.cfi_def_cfa_offset 16
	.cfi_offset 3, -16
	.cfi_offset 4, -12
	.cfi_offset 5, -8
	.cfi_offset 14, -4
	mov	r4, r0
	.loc 1 378 5 is_stmt 1
.LVL285:
.LBB558:
.LBB559:
	.loc 2 30 5
.LBB560:
.LBB561:
	.loc 3 19 5
	.loc 3 20 5
.LBB562:
.LBB563:
	.loc 4 165 5
	.loc 4 167 5
	.syntax unified
@ 167 "D:/RTOS/CPU/ARM_CortexM4/GCC/cpu_functions.h" 1
	MRS r2, primask
@ 0 "" 2
.LVL286:
	.loc 4 168 5
	.thumb
	.syntax unified
.LBE563:
.LBE562:
	.loc 3 21 5
.LBB564:
.LBB565:
	.loc 4 41 5
	.syntax unified
@ 41 "D:/RTOS/CPU/ARM_CortexM4/GCC/cpu_functions.h" 1
	cpsid i
@ 0 "" 2
	.thumb
	.syntax unified
.LBE565:
.LBE564:
	.loc 3 22 5
.LBB566:
.LBB567:
	.loc 4 335 5
	.syntax unified
@ 335 "D:/RTOS/CPU/ARM_CortexM4/GCC/cpu_functions.h" 1
	isb 0xF
@ 0 "" 2
	.thumb
	.syntax unified
.LBE567:
.LBE566:
	.loc 3 23 5
.LBB568:
.LBB569:
	.loc 4 357 5
	.syntax unified
@ 357 "D:/RTOS/CPU/ARM_CortexM4/GCC/cpu_functions.h" 1
	dmb 0xF
@ 0 "" 2
	.thumb
	.syntax unified
.LBE569:
.LBE568:
	.loc 3 24 5
.LBE561:
.LBE560:
	.loc 2 30 11 is_stmt 0
	ldr	r3, .L179
	str	r2, [r3]
.LVL287:
.LBE559:
.LBE558:
	.loc 1 379 5 is_stmt 1
	.loc 1 379 8 is_stmt 0
	bl	os_interrupt_nest
.LVL288:
	.loc 1 379 7
	cbz	r0, .L168
	.loc 1 380 9 is_stmt 1
.LBB570:
.LBB571:
	.loc 1 139 5
	.loc 1 139 26 is_stmt 0
	ldr	r2, .L179+4
	ldr	r3, [r2]
	adds	r3, r3, #1
	str	r3, [r2]
.LBE571:
.LBE570:
	.loc 1 382 9 is_stmt 1
.LVL289:
.LBB572:
.LBB573:
	.loc 1 53 5
	.loc 1 54 5
	.loc 1 54 14 is_stmt 0
	ldr	r2, [r4]
	.loc 1 54 27
	ldr	r3, [r4, #20]
	.loc 1 54 7
	cmp	r2, r3
	bcc	.L169
	.loc 1 54 83
	ldr	r1, [r4, #24]
	.loc 1 54 75
	add	r3, r3, r1
	.loc 1 54 40
	cmp	r2, r3
	bcs	.L169
	.loc 1 58 5 is_stmt 1
	.loc 1 58 9
	.loc 1 58 31 is_stmt 0
	ldr	r3, [r4, #28]
	.loc 1 58 68
	ldr	r2, [r4, #32]
	.loc 1 58 45
	str	r2, [r3, #4]
	.loc 1 58 76 is_stmt 1
	.loc 1 58 135 is_stmt 0
	mov	r3, r4
	ldr	r1, [r3, #28]!
	.loc 1 58 112
	str	r1, [r2]
	.loc 1 58 143 is_stmt 1
	.loc 1 58 201 is_stmt 0
	str	r3, [r4, #28]
	.loc 1 58 171
	str	r3, [r4, #32]
	.loc 1 58 7 is_stmt 1
	.loc 1 59 5
	.loc 1 59 9
	.loc 1 59 39 is_stmt 0
	ldr	r2, .L179+8
	ldr	r1, [r2]
	.loc 1 59 53
	str	r3, [r1, #4]
	.loc 1 59 78 is_stmt 1
	.loc 1 59 106 is_stmt 0
	str	r1, [r4, #28]
	.loc 1 59 145 is_stmt 1
	.loc 1 59 181 is_stmt 0
	str	r3, [r2]
	.loc 1 59 206 is_stmt 1
	.loc 1 59 234 is_stmt 0
	str	r2, [r4, #32]
.LVL290:
.L171:
.LBE573:
.LBE572:
	.loc 1 387 5 is_stmt 1
.LBB575:
.LBB576:
	.loc 2 34 5
	ldr	r3, .L179
	ldr	r3, [r3]
.LVL291:
.LBB577:
	.loc 3 28 5
.LBB578:
.LBB579:
	.loc 4 179 5
	.syntax unified
@ 179 "D:/RTOS/CPU/ARM_CortexM4/GCC/cpu_functions.h" 1
	MSR primask, r3
@ 0 "" 2
.LVL292:
	.thumb
	.syntax unified
.LBE579:
.LBE578:
	.loc 3 29 5
.LBB580:
.LBB581:
	.loc 4 335 5
	.syntax unified
@ 335 "D:/RTOS/CPU/ARM_CortexM4/GCC/cpu_functions.h" 1
	isb 0xF
@ 0 "" 2
.LVL293:
	.thumb
	.syntax unified
.LBE581:
.LBE580:
.LBE577:
.LBE576:
.LBE575:
	.loc 1 388 1 is_stmt 0
	pop	{r3, r4, r5, pc}
.LVL294:
.L169:
.LBB582:
.LBB574:
	.loc 1 55 9 is_stmt 1
	ldr	r0, .L179+12
	bl	printf
.LVL295:
	.loc 1 56 9
	b	.L171
.LVL296:
.L168:
.LBE574:
.LBE582:
	.loc 1 385 9
.LBB583:
.LBB584:
	.loc 1 63 5
	.loc 1 64 5
	.loc 1 64 19 is_stmt 0
	ldr	r0, [r4, #76]
.LVL297:
	.loc 1 65 5 is_stmt 1
	.loc 1 65 17 is_stmt 0
	ldr	r1, .L179+16
	add	r1, r1, r0, lsl #3
.LVL298:
	.loc 1 66 5 is_stmt 1
	.loc 1 67 5
	.loc 1 67 14 is_stmt 0
	ldr	r3, [r1, #4]
.LVL299:
.L172:
	.loc 1 67 34 is_stmt 1
	cmp	r1, r3
	beq	.L178
.LBB585:
	.loc 1 68 9
	.loc 1 68 22 is_stmt 0
	sub	r2, r3, #28
.LVL300:
	.loc 1 69 9 is_stmt 1
	.loc 1 69 11 is_stmt 0
	cmp	r4, r2
	beq	.L171
	.loc 1 72 9 is_stmt 1
	.loc 1 72 14 is_stmt 0
	ldr	r3, [r3, #4]
.LVL301:
	b	.L172
.LVL302:
.L178:
.LBE585:
	.loc 1 74 5 is_stmt 1
	.loc 1 74 9
	.loc 1 74 31 is_stmt 0
	ldr	r3, [r4, #28]
.LVL303:
	.loc 1 74 68
	ldr	r2, [r4, #32]
	.loc 1 74 45
	str	r2, [r3, #4]
	.loc 1 74 76 is_stmt 1
	.loc 1 74 135 is_stmt 0
	mov	r3, r4
	ldr	r5, [r3, #28]!
	.loc 1 74 112
	str	r5, [r2]
	.loc 1 74 143 is_stmt 1
	.loc 1 74 201 is_stmt 0
	str	r3, [r4, #28]
	.loc 1 74 171
	str	r3, [r4, #32]
	.loc 1 74 7 is_stmt 1
	.loc 1 75 5
	.loc 1 75 19 is_stmt 0
	movs	r2, #2
	str	r2, [r4, #88]
	.loc 1 76 5 is_stmt 1
	.loc 1 77 9
	.loc 1 77 13
	.loc 1 77 20 is_stmt 0
	ldr	r2, .L179+16
	.loc 1 77 34
	ldr	r5, [r2, r0, lsl #3]
	str	r3, [r5, #4]
	.loc 1 77 59 is_stmt 1
	.loc 1 77 87 is_stmt 0
	ldr	r5, [r2, r0, lsl #3]
	str	r5, [r4, #28]
	.loc 1 77 103 is_stmt 1
	.loc 1 77 116 is_stmt 0
	str	r3, [r2, r0, lsl #3]
	.loc 1 77 141 is_stmt 1
	.loc 1 77 169 is_stmt 0
	str	r1, [r4, #32]
	.loc 1 77 11 is_stmt 1
	.loc 1 79 11
	.loc 1 81 5
	bl	os_priority_mark
.LVL304:
	b	.L171
.LVL305:
.L175:
	.cfi_def_cfa_offset 0
	.cfi_restore 3
	.cfi_restore 4
	.cfi_restore 5
	.cfi_restore 14
	bx	lr
.L180:
	.align	2
.L179:
	.word	os_scheduler__lock
	.word	os_scheduler__skipped
	.word	os_scheduler__pending_list
	.word	.LC0
	.word	os_scheduler__ready_list
.LBE584:
.LBE583:
	.cfi_endproc
.LFE67:
	.size	os_scheduler_push, .-os_scheduler_push
	.section	.text.os_scheduler_get_current_tick,"ax",%progbits
	.align	1
	.global	os_scheduler_get_current_tick
	.syntax unified
	.thumb
	.thumb_func
	.type	os_scheduler_get_current_tick, %function
os_scheduler_get_current_tick:
.LFB68:
	.loc 1 391 1
	.cfi_startproc
	@ args = 0, pretend = 0, frame = 0
	@ frame_needed = 0, uses_anonymous_args = 0
	@ link register save eliminated.
	.loc 1 392 5
	.loc 1 393 1 is_stmt 0
	ldr	r3, .L182
	ldr	r0, [r3]
	bx	lr
.L183:
	.align	2
.L182:
	.word	os_scheduler__current_tick
	.cfi_endproc
.LFE68:
	.size	os_scheduler_get_current_tick, .-os_scheduler_get_current_tick
	.section	.bss.os_scheduler__skipped,"aw",%nobits
	.align	2
	.type	os_scheduler__skipped, %object
	.size	os_scheduler__skipped, 4
os_scheduler__skipped:
	.space	4
	.section	.bss.os_scheduler__current_tick,"aw",%nobits
	.align	2
	.type	os_scheduler__current_tick, %object
	.size	os_scheduler__current_tick, 4
os_scheduler__current_tick:
	.space	4
	.section	.bss.os_scheduler__current_thread,"aw",%nobits
	.align	2
	.type	os_scheduler__current_thread, %object
	.size	os_scheduler__current_thread, 4
os_scheduler__current_thread:
	.space	4
	.section	.bss.os_scheduler__lock,"aw",%nobits
	.align	2
	.type	os_scheduler__lock, %object
	.size	os_scheduler__lock, 4
os_scheduler__lock:
	.space	4
	.section	.bss.os_scheduler__schedule_nest,"aw",%nobits
	.align	2
	.type	os_scheduler__schedule_nest, %object
	.size	os_scheduler__schedule_nest, 4
os_scheduler__schedule_nest:
	.space	4
	.section	.bss.os_scheduler__state,"aw",%nobits
	.align	2
	.type	os_scheduler__state, %object
	.size	os_scheduler__state, 4
os_scheduler__state:
	.space	4
	.section	.bss.os_scheduler__pending_list,"aw",%nobits
	.align	2
	.type	os_scheduler__pending_list, %object
	.size	os_scheduler__pending_list, 8
os_scheduler__pending_list:
	.space	8
	.section	.bss.os_scheduler__yield_list,"aw",%nobits
	.align	2
	.type	os_scheduler__yield_list, %object
	.size	os_scheduler__yield_list, 8
os_scheduler__yield_list:
	.space	8
	.section	.bss.os_scheduler__ready_list,"aw",%nobits
	.align	2
	.type	os_scheduler__ready_list, %object
	.size	os_scheduler__ready_list, 256
os_scheduler__ready_list:
	.space	256
	.text
.Letext0:
	.file 5 "m:\\noinstall\\arm-gnu-toolchain-12.2.rel1-mingw-w64-i686-arm-none-eabi\\arm-none-eabi\\include\\machine\\_default_types.h"
	.file 6 "m:\\noinstall\\arm-gnu-toolchain-12.2.rel1-mingw-w64-i686-arm-none-eabi\\arm-none-eabi\\include\\sys\\_stdint.h"
	.file 7 "D:/RTOS/CPU/ARM_CortexM4/cpu_types.h"
	.file 8 "D:/RTOS/Kernel/os_types.h"
	.file 9 "D:/RTOS/Kernel/os_errors.h"
	.file 10 "D:/RTOS/Kernel/os_priority.h"
	.file 11 "D:/RTOS/Kernel/os_tick.h"
	.file 12 "D:/RTOS/Kernel/os_list.h"
	.file 13 "D:/RTOS/Kernel/os_timer.h"
	.file 14 "D:/RTOS/Kernel/os_thread.h"
	.file 15 "D:/RTOS/CPU/ARM_CortexM4/cpu_stack.h"
	.file 16 "m:\\noinstall\\arm-gnu-toolchain-12.2.rel1-mingw-w64-i686-arm-none-eabi\\arm-none-eabi\\include\\stdio.h"
	.file 17 "D:/RTOS/Kernel/os_interrupt.h"