	.cpu cortex-m7
	.arch armv7e-m
	.fpu fpv5-d16
	.eabi_attribute 28, 1
	.eabi_attribute 20, 1
	.eabi_attribute 21, 1
	.eabi_attribute 23, 3
	.eabi_attribute 24, 1
	.eabi_attribute 25, 1
	.eabi_attribute 26, 1
	.eabi_attribute 30, 1
	.eabi_attribute 34, 1
	.eabi_attribute 18, 4
	.file	"os_thread.c"
	.text
.Ltext0:
	.cfi_sections	.debug_frame
	.file 1 "D:/RTOS/Kernel/os_thread.c"
	.section	.text.os_thread__exit,"ax",%progbits
	.align	1
	.syntax unified
	.thumb
	.thumb_func
	.type	os_thread__exit, %function
os_thread__exit:
.LFB48:
	.loc 1 11 50
	.cfi_startproc
	@ args = 0, pretend = 0, frame = 0
	@ frame_needed = 0, uses_anonymous_args = 0
	@ link register save eliminated.
.LVL0:
	.loc 1 12 5
	.loc 1 12 9
	.loc 1 12 31 is_stmt 0
	ldr	r3, [r0, #28]
	.loc 1 12 68
	ldr	r2, [r0, #32]
	.loc 1 12 45
	str	r2, [r3, #4]
	.loc 1 12 76 is_stmt 1
	.loc 1 12 135 is_stmt 0
	mov	r3, r0
	ldr	r1, [r3, #28]!
	.loc 1 12 112
	str	r1, [r2]
	.loc 1 12 143 is_stmt 1
	.loc 1 12 201 is_stmt 0
	str	r3, [r0, #28]
	.loc 1 12 171
	str	r3, [r0, #32]
	.loc 1 12 7 is_stmt 1
	.loc 1 13 5
	.loc 1 13 9
	.loc 1 13 30 is_stmt 0
	ldr	r3, [r0, #36]
	.loc 1 13 66
	ldr	r2, [r0, #40]
	.loc 1 13 44
	str	r2, [r3, #4]
	.loc 1 13 74 is_stmt 1
	.loc 1 13 131 is_stmt 0
	mov	r3, r0
	ldr	r1, [r3, #36]!
	.loc 1 13 109
	str	r1, [r2]
	.loc 1 13 139 is_stmt 1
	.loc 1 13 195 is_stmt 0
	str	r3, [r0, #36]
	.loc 1 13 166
	str	r3, [r0, #40]
	.loc 1 13 7 is_stmt 1
	.loc 1 14 5
	.loc 1 14 9
	.loc 1 14 41 is_stmt 0
	ldr	r3, [r0, #44]
	.loc 1 14 88
	ldr	r2, [r0, #48]
	.loc 1 14 55
	str	r2, [r3, #4]
	.loc 1 14 96 is_stmt 1
	.loc 1 14 175 is_stmt 0
	mov	r3, r0
	ldr	r1, [r3, #44]!
	.loc 1 14 142
	str	r1, [r2]
	.loc 1 14 183 is_stmt 1
	.loc 1 14 261 is_stmt 0
	str	r3, [r0, #44]
	.loc 1 14 221
	str	r3, [r0, #48]
	.loc 1 14 7 is_stmt 1
	.loc 1 15 1 is_stmt 0
	bx	lr
	.cfi_endproc
.LFE48:
	.size	os_thread__exit, .-os_thread__exit
	.section	.rodata.os_thread_init.str1.4,"aMS",%progbits,1
	.align	2
.LC0:
	.ascii	"name_size:%d\015\012\000"
	.section	.text.os_thread_init,"ax",%progbits
	.align	1
	.global	os_thread_init
	.syntax unified
	.thumb
	.thumb_func
	.type	os_thread_init, %function
os_thread_init:
.LFB49:
	.loc 1 25 1 is_stmt 1
	.cfi_startproc
	@ args = 16, pretend = 0, frame = 0
	@ frame_needed = 0, uses_anonymous_args = 0
.LVL1:
	push	{r4, r5, r6, r7, r8, r9, r10, fp, lr}
	.cfi_def_cfa_offset 36
	.cfi_offset 4, -36
	.cfi_offset 5, -32
	.cfi_offset 6, -28
	.cfi_offset 7, -24
	.cfi_offset 8, -20
	.cfi_offset 9, -16
	.cfi_offset 10, -12
	.cfi_offset 11, -8
	.cfi_offset 14, -4
	sub	sp, sp, #12
	.cfi_def_cfa_offset 48
	mov	r4, r0
	mov	r5, r2
	mov	r6, r3
	ldr	r8, [sp, #48]
	ldr	r10, [sp, #56]
	ldr	r9, [sp, #60]
	.loc 1 26 5
	.loc 1 26 7 is_stmt 0
	cbz	r1, .L3
	mov	fp, r1
.LBB2:
	.loc 1 27 9 is_stmt 1
	.loc 1 27 31 is_stmt 0
	mov	r0, r1
.LVL2:
	bl	strlen
.LVL3:
	.loc 1 28 9 is_stmt 1
	.loc 1 28 19 is_stmt 0
	cmp	r0, #7
	it	cs
	movcs	r0, #7
.LVL4:
	mov	r7, r0
.LVL5:
	.loc 1 29 9 is_stmt 1
	mov	r1, r0
	ldr	r0, .L5
.LVL6:
	bl	printf
.LVL7:
	.loc 1 30 9
	mov	r2, r7
	mov	r1, fp
	adds	r0, r4, #4
	bl	memcpy
.LVL8:
	.loc 1 31 9
	.loc 1 31 32 is_stmt 0
	add	r7, r7, r4
.LVL9:
	movs	r3, #0
	strb	r3, [r7, #4]
.LVL10:
.L3:
.LBE2:
	.loc 1 34 5 is_stmt 1
	.loc 1 34 9
	.loc 1 34 70 is_stmt 0
	add	r3, r4, #28
	.loc 1 34 67
	str	r3, [r4, #28]
	.loc 1 34 37
	str	r3, [r4, #32]
	.loc 1 34 7 is_stmt 1
	.loc 1 35 5
	.loc 1 35 9
	.loc 1 35 68 is_stmt 0
	add	r3, r4, #36
	.loc 1 35 65
	str	r3, [r4, #36]
	.loc 1 35 36
	str	r3, [r4, #40]
	.loc 1 35 7 is_stmt 1
	.loc 1 36 5
	add	r0, r4, #44
	bl	os_timer_node_init
.LVL11:
	.loc 1 38 5
	.loc 1 38 26 is_stmt 0
	str	r5, [r4, #12]
	.loc 1 39 5 is_stmt 1
	.loc 1 39 23 is_stmt 0
	str	r6, [r4, #16]
	.loc 1 40 5 is_stmt 1
	.loc 1 40 24 is_stmt 0
	str	r8, [r4, #20]
	.loc 1 41 5 is_stmt 1
	.loc 1 41 24 is_stmt 0
	ldr	r3, [sp, #52]
	str	r3, [r4, #24]
	.loc 1 42 5 is_stmt 1
	.loc 1 42 27 is_stmt 0
	str	r10, [r4, #72]
	.loc 1 43 5 is_stmt 1
	.loc 1 43 27 is_stmt 0
	str	r10, [r4, #76]
	.loc 1 44 5 is_stmt 1
	.loc 1 44 24 is_stmt 0
	str	r9, [r4, #80]
	.loc 1 45 5 is_stmt 1
	.loc 1 45 26 is_stmt 0
	str	r9, [r4, #84]
	.loc 1 46 5 is_stmt 1
	.loc 1 46 19 is_stmt 0
	movs	r3, #1
	str	r3, [r4, #88]
	.loc 1 47 5 is_stmt 1
	.loc 1 47 19 is_stmt 0
	movs	r7, #0
	str	r7, [r4, #92]
	.loc 1 48 5 is_stmt 1
	.loc 1 48 27 is_stmt 0
	ldr	r3, .L5+4
	str	r3, [r4, #96]
	.loc 1 50 5 is_stmt 1
	str	r4, [sp]
	ldr	r3, [sp, #52]
	mov	r2, r8
	mov	r1, r6
	mov	r0, r5
	bl	cpu_stack_init
.LVL12:
	.loc 1 52 5
	.loc 1 53 1 is_stmt 0
	mov	r0, r7
	add	sp, sp, #12
	.cfi_def_cfa_offset 36
	@ sp needed
	pop	{r4, r5, r6, r7, r8, r9, r10, fp, pc}
.LVL13:
.L6:
	.align	2
.L5:
	.word	.LC0
	.word	os_thread__exit
	.cfi_endproc
.LFE49:
	.size	os_thread_init, .-os_thread_init
	.section	.text.os_thread_startup,"ax",%progbits
	.align	1
	.global	os_thread_startup
	.syntax unified
	.thumb
	.thumb_func
	.type	os_thread_startup, %function
os_thread_startup:
.LFB50:
	.loc 1 55 49 is_stmt 1
	.cfi_startproc
	@ args = 0, pretend = 0, frame = 0
	@ frame_needed = 0, uses_anonymous_args = 0
.LVL14:
	push	{r3, lr}
	.cfi_def_cfa_offset 8
	.cfi_offset 3, -8
	.cfi_offset 14, -4
	.loc 1 56 5
	bl	os_scheduler_push_back
.LVL15:
	.loc 1 57 5
	.loc 1 57 12 is_stmt 0
	movs	r0, #2
	bl	os_scheduler_schedule
.LVL16:
	.loc 1 58 1
	pop	{r3, pc}
	.cfi_endproc
.LFE50:
	.size	os_thread_startup, .-os_thread_startup
	.section	.text.os_thread_suspend,"ax",%progbits
	.align	1
	.global	os_thread_suspend
	.syntax unified
	.thumb
	.thumb_func
	.type	os_thread_suspend, %function
os_thread_suspend:
.LFB51:
	.loc 1 60 49 is_stmt 1
	.cfi_startproc
	@ args = 0, pretend = 0, frame = 0
	@ frame_needed = 0, uses_anonymous_args = 0
.LVL17:
	push	{r3, lr}
	.cfi_def_cfa_offset 8
	.cfi_offset 3, -8
	.cfi_offset 14, -4
	.loc 1 61 5
	bl	os_scheduler_suspend
.LVL18:
	.loc 1 62 5
	.loc 1 62 12 is_stmt 0
	movs	r0, #2
	bl	os_scheduler_schedule
.LVL19:
	.loc 1 63 1
	pop	{r3, pc}
	.cfi_endproc
.LFE51:
	.size	os_thread_suspend, .-os_thread_suspend
	.section	.text.os_thread_resume,"ax",%progbits
	.align	1
	.global	os_thread_resume
	.syntax unified
	.thumb
	.thumb_func
	.type	os_thread_resume, %function
os_thread_resume:
.LFB52:
	.loc 1 66 1 is_stmt 1
	.cfi_startproc
	@ args = 0, pretend = 0, frame = 0
	@ frame_needed = 0, uses_anonymous_args = 0
.LVL20:
	push	{r3, lr}
	.cfi_def_cfa_offset 8
	.cfi_offset 3, -8
	.cfi_offset 14, -4
	.loc 1 67 5
	bl	os_scheduler_resume
.LVL21:
	.loc 1 68 5
	.loc 1 68 12 is_stmt 0
	movs	r0, #2
	bl	os_scheduler_schedule
.LVL22:
	.loc 1 69 1
	pop	{r3, pc}
	.cfi_endproc
.LFE52:
	.size	os_thread_resume, .-os_thread_resume
	.section	.text.os_thread_join,"ax",%progbits
	.align	1
	.global	os_thread_join
	.syntax unified
	.thumb
	.thumb_func
	.type	os_thread_join, %function
os_thread_join:
.LFB53:
	.loc 1 71 46 is_stmt 1
	.cfi_startproc
	@ args = 0, pretend = 0, frame = 0
	@ frame_needed = 0, uses_anonymous_args = 0
	@ link register save eliminated.
.LVL23:
	.loc 1 72 5
	.loc 1 73 1 is_stmt 0
	movs	r0, #0
.LVL24:
	bx	lr
	.cfi_endproc
.LFE53:
	.size	os_thread_join, .-os_thread_join
	.section	.text.os_thread_self,"ax",%progbits
	.align	1
	.global	os_thread_self
	.syntax unified
	.thumb
	.thumb_func
	.type	os_thread_self, %function
os_thread_self:
.LFB55:
	.loc 1 80 34 is_stmt 1
	.cfi_startproc
	@ args = 0, pretend = 0, frame = 0
	@ frame_needed = 0, uses_anonymous_args = 0
	push	{r3, lr}
	.cfi_def_cfa_offset 8
	.cfi_offset 3, -8
	.cfi_offset 14, -4
	.loc 1 81 5
	.loc 1 81 12 is_stmt 0
	bl	os_scheduler_current_thread
.LVL25:
	.loc 1 82 1
	pop	{r3, pc}
	.cfi_endproc
.LFE55:
	.size	os_thread_self, .-os_thread_self
	.section	.text.os_thread_yield,"ax",%progbits
	.align	1
	.global	os_thread_yield
	.syntax unified
	.thumb
	.thumb_func
	.type	os_thread_yield, %function
os_thread_yield:
.LFB54:
	.loc 1 75 31 is_stmt 1
	.cfi_startproc
	@ args = 0, pretend = 0, frame = 0
	@ frame_needed = 0, uses_anonymous_args = 0
	push	{r3, lr}
	.cfi_def_cfa_offset 8
	.cfi_offset 3, -8
	.cfi_offset 14, -4
	.loc 1 76 5
	bl	os_thread_self
.LVL26:
	bl	os_scheduler_yield
.LVL27:
	.loc 1 77 5
	.loc 1 77 12 is_stmt 0
	movs	r0, #2
	bl	os_scheduler_schedule
.LVL28:
	.loc 1 78 1
	pop	{r3, pc}
	.cfi_endproc
.LFE54:
	.size	os_thread_yield, .-os_thread_yield
	.section	.text.os_thread_exit,"ax",%progbits
	.align	1
	.global	os_thread_exit
	.syntax unified
	.thumb
	.thumb_func
	.type	os_thread_exit, %function
os_thread_exit:
.LFB56:
	.loc 1 84 30 is_stmt 1
	.cfi_startproc
	@ args = 0, pretend = 0, frame = 0
	@ frame_needed = 0, uses_anonymous_args = 0
	@ link register save eliminated.
	.loc 1 85 5
	.loc 1 86 1 is_stmt 0
	movs	r0, #0
	bx	lr
	.cfi_endproc
.LFE56:
	.size	os_thread_exit, .-os_thread_exit
	.section	.text.os_thread_delay,"ax",%progbits
	.align	1
	.global	os_thread_delay
	.syntax unified
	.thumb
	.thumb_func
	.type	os_thread_delay, %function
os_thread_delay:
.LFB57:
	.loc 1 88 42 is_stmt 1
	.cfi_startproc
	@ args = 0, pretend = 0, frame = 0
	@ frame_needed = 0, uses_anonymous_args = 0
.LVL29:
	push	{r4, lr}
	.cfi_def_cfa_offset 8
	.cfi_offset 4, -8
	.cfi_offset 14, -4
	mov	r4, r0
	.loc 1 89 5
	.loc 1 89 32 is_stmt 0
	bl	os_scheduler_current_thread
.LVL30:
	.loc 1 90 5 is_stmt 1
	mov	r1, r4
	bl	os_scheduler_timed_wait
.LVL31:
	.loc 1 91 5
	.loc 1 91 12 is_stmt 0
	movs	r0, #2
	bl	os_scheduler_schedule
.LVL32:
	.loc 1 92 1
	pop	{r4, pc}
	.cfi_endproc
.LFE57:
	.size	os_thread_delay, .-os_thread_delay
	.section	.text.os_thread_mdelay,"ax",%progbits
	.align	1
	.global	os_thread_mdelay
	.syntax unified
	.thumb
	.thumb_func
	.type	os_thread_mdelay, %function
os_thread_mdelay:
.LFB58:
	.loc 1 94 49 is_stmt 1
	.cfi_startproc
	@ args = 0, pretend = 0, frame = 0
	@ frame_needed = 0, uses_anonymous_args = 0
.LVL33:
	push	{r3, lr}
	.cfi_def_cfa_offset 8
	.cfi_offset 3, -8
	.cfi_offset 14, -4
	.loc 1 95 5
	.loc 1 95 12 is_stmt 0
	bl	os_tick_from_millisecond
.LVL34:
	bl	os_thread_delay
.LVL35:
	.loc 1 96 1
	pop	{r3, pc}
	.cfi_endproc
.LFE58:
	.size	os_thread_mdelay, .-os_thread_mdelay
	.text
.Letext0:
	.file 2 "m:\\noinstall\\arm-gnu-toolchain-12.2.rel1-mingw-w64-i686-arm-none-eabi\\arm-none-eabi\\include\\machine\\_default_types.h"
	.file 3 "m:\\noinstall\\arm-gnu-toolchain-12.2.rel1-mingw-w64-i686-arm-none-eabi\\arm-none-eabi\\include\\sys\\_stdint.h"
	.file 4 "m:\\noinstall\\arm-gnu-toolchain-12.2.rel1-mingw-w64-i686-arm-none-eabi\\lib\\gcc\\arm-none-eabi\\12.2.1\\include\\stddef.h"
	.file 5 "D:/RTOS/Kernel/os_types.h"
	.file 6 "D:/RTOS/Kernel/os_errors.h"
	.file 7 "D:/RTOS/Kernel/os_priority.h"
	.file 8 "D:/RTOS/Kernel/os_tick.h"
	.file 9 "D:/RTOS/Kernel/os_list.h"
	.file 10 "D:/RTOS/Kernel/os_timer.h"
	.file 11 "D:/RTOS/Kernel/os_thread.h"
	.file 12 "D:/RTOS/Kernel/os_scheduler.h"
	.file 13 "D:/RTOS/CPU/ARM_CortexM4/cpu_stack.h"
	.file 14 "m:\\noinstall\\arm-gnu-toolchain-12.2.rel1-mingw-w64-i686-arm-none-eabi\\arm-none-eabi\\include\\string.h"
	.file 15 "m:\\noinstall\\arm-gnu-toolchain-12.2.rel1-mingw-w64-i686-arm-none-eabi\\arm-none-eabi\\include\\stdio.h"