	.cpu cortex-m7
	.arch armv7e-m
	.fpu fpv5-d16
	.eabi_attribute 28, 1
	.eabi_attribute 20, 1
	.eabi_attribute 21, 1
	.eabi_attribute 23, 3
	.eabi_attribute 24, 1
	.eabi_attribute 25, 1
	.eabi_attribute 26, 1
	.eabi_attribute 30, 1
	.eabi_attribute 34, 1
	.eabi_attribute 18, 4
	.file	"os_timer.c"
	.text
.Ltext0:
	.cfi_sections	.debug_frame
	.file 1 "D:/RTOS/Kernel/os_timer.c"
	.section	.text.os_timer__add,"ax",%progbits
	.align	1
	.syntax unified
	.thumb
	.thumb_func
	.type	os_timer__add, %function
os_timer__add:
.LFB45:
	.loc 1 35 46
	.cfi_startproc
	@ args = 0, pretend = 0, frame = 0
	@ frame_needed = 0, uses_anonymous_args = 0
	@ link register save eliminated.
.LVL0:
	.loc 1 36 5
	.loc 1 37 5
	.loc 1 37 13 is_stmt 0
	ldr	r3, [r0, #20]
	.loc 1 37 7
	cmp	r3, #255
	bls	.L3
	.loc 1 39 11 is_stmt 1
	.loc 1 39 13 is_stmt 0
	cmp	r3, #16384
	bcc	.L4
	.loc 1 41 11 is_stmt 1
	.loc 1 41 13 is_stmt 0
	cmp	r3, #1048576
	bcc	.L5
	.loc 1 43 11 is_stmt 1
	.loc 1 43 13 is_stmt 0
	cmp	r3, #67108864
	bcs	.L6
	.loc 1 44 14
	ldr	r3, .L7
	b	.L2
.L3:
	.loc 1 38 14
	ldr	r3, .L7+4
.L2:
.LVL1:
	.loc 1 48 5 is_stmt 1
	.loc 1 48 9
	.loc 1 48 29 is_stmt 0
	ldr	r1, [r0]
	.loc 1 48 64
	ldr	r2, [r0, #4]
	.loc 1 48 43
	str	r2, [r1, #4]
	.loc 1 48 72 is_stmt 1
	.loc 1 48 127 is_stmt 0
	ldr	r1, [r0]
	.loc 1 48 106
	str	r1, [r2]
	.loc 1 48 135 is_stmt 1
	.loc 1 48 189 is_stmt 0
	str	r0, [r0]
	.loc 1 48 161
	str	r0, [r0, #4]
	.loc 1 48 7 is_stmt 1
	.loc 1 49 5
	.loc 1 49 9
	.loc 1 49 16 is_stmt 0
	ldr	r2, [r3]
	.loc 1 49 30
	str	r0, [r2, #4]
	.loc 1 49 53 is_stmt 1
	.loc 1 49 87 is_stmt 0
	ldr	r2, [r3]
	.loc 1 49 79
	str	r2, [r0]
	.loc 1 49 95 is_stmt 1
	.loc 1 49 108 is_stmt 0
	str	r0, [r3]
	.loc 1 49 131 is_stmt 1
	.loc 1 49 157 is_stmt 0
	str	r3, [r0, #4]
	.loc 1 49 7 is_stmt 1
	.loc 1 50 1 is_stmt 0
	bx	lr
.LVL2:
.L4:
	.loc 1 40 14
	ldr	r3, .L7+8
	b	.L2
.L5:
	.loc 1 42 14
	ldr	r3, .L7+12
	b	.L2
.L6:
	.loc 1 46 14
	ldr	r3, .L7+16
	b	.L2
.L8:
	.align	2
.L7:
	.word	os_timer__tv+16
	.word	os_timer__tvroot
	.word	os_timer__tv
	.word	os_timer__tv+8
	.word	os_timer__tv+24
	.cfi_endproc
.LFE45:
	.size	os_timer__add, .-os_timer__add
	.section	.text.os_timer_init,"ax",%progbits
	.align	1
	.global	os_timer_init
	.syntax unified
	.thumb
	.thumb_func
	.type	os_timer_init, %function
os_timer_init:
.LFB46:
	.loc 1 64 1 is_stmt 1
	.cfi_startproc
	@ args = 0, pretend = 0, frame = 0
	@ frame_needed = 0, uses_anonymous_args = 0
	@ link register save eliminated.
	.loc 1 65 5
	.loc 1 66 5
	.loc 1 66 28 is_stmt 0
	movs	r3, #0
	ldr	r2, .L12
	str	r3, [r2]
	.loc 1 67 5 is_stmt 1
	.loc 1 67 9
	.loc 1 67 63 is_stmt 0
	ldr	r2, .L12+4
	str	r2, [r2]
	.loc 1 67 35
	str	r2, [r2, #4]
	.loc 1 67 7 is_stmt 1
	.loc 1 68 5
.LVL3:
	b	.L10
.LVL4:
.L11:
	.loc 1 69 9 discriminator 3
	.loc 1 69 13 discriminator 3
	.loc 1 69 68 is_stmt 0 discriminator 3
	ldr	r1, .L12+8
	add	r2, r1, r3, lsl #3
	.loc 1 69 65 discriminator 3
	str	r2, [r1, r3, lsl #3]
	.loc 1 69 38 discriminator 3
	str	r2, [r2, #4]
	.loc 1 69 11 is_stmt 1 discriminator 3
	.loc 1 68 68 discriminator 3
	adds	r3, r3, #1
.LVL5:
.L10:
	.loc 1 68 15 discriminator 1
	cmp	r3, #3
	bls	.L11
	.loc 1 71 5
.LVL6:
.LBB96:
.LBB97:
	.file 2 "D:/RTOS/CPU/ARM_CortexM4/cpu_lock.h"
	.loc 2 26 5
	.loc 2 26 11 is_stmt 0
	movs	r0, #0
	ldr	r3, .L12+12
.LVL7:
	str	r0, [r3]
.LVL8:
.LBE97:
.LBE96:
	.loc 1 72 5 is_stmt 1
	.loc 1 73 1 is_stmt 0
	bx	lr
.L13:
	.align	2
.L12:
	.word	os_timer__current_tick
	.word	os_timer__tvroot
	.word	os_timer__tv
	.word	os_timer__lock
	.cfi_endproc
.LFE46:
	.size	os_timer_init, .-os_timer_init
	.section	.text.os_timer_add,"ax",%progbits
	.align	1
	.global	os_timer_add
	.syntax unified
	.thumb
	.thumb_func
	.type	os_timer_add, %function
os_timer_add:
.LFB47:
	.loc 1 76 1 is_stmt 1
	.cfi_startproc
	@ args = 4, pretend = 0, frame = 0
	@ frame_needed = 0, uses_anonymous_args = 0
.LVL9:
	push	{r3, r4, r5, lr}
	.cfi_def_cfa_offset 16
	.cfi_offset 3, -16
	.cfi_offset 4, -12
	.cfi_offset 5, -8
	.cfi_offset 14, -4
	.loc 1 77 5
.LVL10:
.LBB98:
.LBB99:
	.loc 2 30 5
.LBB100:
.LBB101:
	.file 3 "D:/RTOS/CPU/ARM_CortexM4/cpu_interrupt.h"
	.loc 3 19 5
	.loc 3 20 5
.LBB102:
.LBB103:
	.file 4 "D:/RTOS/CPU/ARM_CortexM4/GCC/cpu_functions.h"
	.loc 4 165 5
	.loc 4 167 5
	.syntax unified
@ 167 "D:/RTOS/CPU/ARM_CortexM4/GCC/cpu_functions.h" 1
	MRS r5, primask
@ 0 "" 2
.LVL11:
	.loc 4 168 5
	.thumb
	.syntax unified
.LBE103:
.LBE102:
	.loc 3 21 5
.LBB104:
.LBB105:
	.loc 4 41 5
	.syntax unified
@ 41 "D:/RTOS/CPU/ARM_CortexM4/GCC/cpu_functions.h" 1
	cpsid i
@ 0 "" 2
	.thumb
	.syntax unified
.LBE105:
.LBE104:
	.loc 3 22 5
.LBB106:
.LBB107:
	.loc 4 335 5
	.syntax unified
@ 335 "D:/RTOS/CPU/ARM_CortexM4/GCC/cpu_functions.h" 1
	isb 0xF
@ 0 "" 2
	.thumb
	.syntax unified
.LBE107:
.LBE106:
	.loc 3 23 5
.LBB108:
.LBB109:
	.loc 4 357 5
	.syntax unified
@ 357 "D:/RTOS/CPU/ARM_CortexM4/GCC/cpu_functions.h" 1
	dmb 0xF
@ 0 "" 2
	.thumb
	.syntax unified
.LBE109:
.LBE108:
	.loc 3 24 5
.LBE101:
.LBE100:
	.loc 2 30 11 is_stmt 0
	ldr	r4, .L16
	str	r5, [r4]
.LVL12:
.LBE99:
.LBE98:
	.loc 1 77 36 is_stmt 1
	.loc 1 79 5
	.loc 1 79 20 is_stmt 0
	str	r1, [r0, #8]
	.loc 1 80 5 is_stmt 1
	.loc 1 80 21 is_stmt 0
	str	r2, [r0, #12]
	.loc 1 81 5 is_stmt 1
	.loc 1 81 18 is_stmt 0
	str	r3, [r0, #16]
	.loc 1 82 5 is_stmt 1
	.loc 1 82 49 is_stmt 0
	ldr	r2, .L16+4
.LVL13:
	ldr	r2, [r2]
	add	r3, r3, r2
.LVL14:
	.loc 1 82 24
	str	r3, [r0, #20]
	.loc 1 83 5 is_stmt 1
	.loc 1 83 18 is_stmt 0
	ldr	r3, [sp, #16]
	str	r3, [r0, #24]
	.loc 1 85 5 is_stmt 1
	bl	os_timer__add
.LVL15:
	.loc 1 87 5
.LBB110:
.LBB111:
	.loc 2 34 5
	ldr	r3, [r4]
.LVL16:
.LBB112:
	.loc 3 28 5
.LBB113:
.LBB114:
	.loc 4 179 5
	.syntax unified
@ 179 "D:/RTOS/CPU/ARM_CortexM4/GCC/cpu_functions.h" 1
	MSR primask, r3
@ 0 "" 2
.LVL17:
	.thumb
	.syntax unified
.LBE114:
.LBE113:
	.loc 3 29 5
.LBB115:
.LBB116:
	.loc 4 335 5
	.syntax unified
@ 335 "D:/RTOS/CPU/ARM_CortexM4/GCC/cpu_functions.h" 1
	isb 0xF
@ 0 "" 2
.LVL18:
	.thumb
	.syntax unified
.LBE116:
.LBE115:
.LBE112:
.LBE111:
.LBE110:
	.loc 1 87 38
	.loc 1 89 5
	.loc 1 90 1 is_stmt 0
	movs	r0, #0
	pop	{r3, r4, r5, pc}
.LVL19:
.L17:
	.align	2
.L16:
	.word	os_timer__lock
	.word	os_timer__current_tick
	.cfi_endproc
.LFE47:
	.size	os_timer_add, .-os_timer_add
	.section	.text.os_timer_remove,"ax",%progbits
	.align	1
	.global	os_timer_remove
	.syntax unified
	.thumb
	.thumb_func
	.type	os_timer_remove, %function
os_timer_remove:
.LFB48:
	.loc 1 93 1 is_stmt 1
	.cfi_startproc
	@ args = 0, pretend = 0, frame = 0
	@ frame_needed = 0, uses_anonymous_args = 0
	@ link register save eliminated.
.LVL20:
	.loc 1 94 5
.LBB117:
.LBB118:
	.loc 2 30 5
.LBB119:
.LBB120:
	.loc 3 19 5
	.loc 3 20 5
.LBB121:
.LBB122:
	.loc 4 165 5
	.loc 4 167 5
	.syntax unified
@ 167 "D:/RTOS/CPU/ARM_CortexM4/GCC/cpu_functions.h" 1
	MRS r2, primask
@ 0 "" 2
.LVL21:
	.loc 4 168 5
	.thumb
	.syntax unified
.LBE122:
.LBE121:
	.loc 3 21 5
.LBB123:
.LBB124:
	.loc 4 41 5
	.syntax unified
@ 41 "D:/RTOS/CPU/ARM_CortexM4/GCC/cpu_functions.h" 1
	cpsid i
@ 0 "" 2
	.thumb
	.syntax unified
.LBE124:
.LBE123:
	.loc 3 22 5
.LBB125:
.LBB126:
	.loc 4 335 5
	.syntax unified
@ 335 "D:/RTOS/CPU/ARM_CortexM4/GCC/cpu_functions.h" 1
	isb 0xF
@ 0 "" 2
	.thumb
	.syntax unified
.LBE126:
.LBE125:
	.loc 3 23 5
.LBB127:
.LBB128:
	.loc 4 357 5
	.syntax unified
@ 357 "D:/RTOS/CPU/ARM_CortexM4/GCC/cpu_functions.h" 1
	dmb 0xF
@ 0 "" 2
	.thumb
	.syntax unified
.LBE128:
.LBE127:
	.loc 3 24 5
.LBE120:
.LBE119:
	.loc 2 30 11 is_stmt 0
	ldr	r3, .L19
	str	r2, [r3]
.LVL22:
.LBE118:
.LBE117:
	.loc 1 94 36 is_stmt 1
	.loc 1 95 5
	.loc 1 95 9
	.loc 1 95 29 is_stmt 0
	ldr	r1, [r0]
	.loc 1 95 64
	ldr	r2, [r0, #4]
.LVL23:
	.loc 1 95 43
	str	r2, [r1, #4]
	.loc 1 95 72 is_stmt 1
	.loc 1 95 127 is_stmt 0
	ldr	r1, [r0]
	.loc 1 95 106
	str	r1, [r2]
.LVL24:
	.loc 1 95 135 is_stmt 1
	.loc 1 95 189 is_stmt 0
	str	r0, [r0]
	.loc 1 95 161
	str	r0, [r0, #4]
	.loc 1 95 7 is_stmt 1
	.loc 1 96 5
.LVL25:
.LBB129:
.LBB130:
	.loc 2 34 5
	ldr	r3, [r3]
.LVL26:
.LBB131:
	.loc 3 28 5
.LBB132:
.LBB133:
	.loc 4 179 5
	.syntax unified
@ 179 "D:/RTOS/CPU/ARM_CortexM4/GCC/cpu_functions.h" 1
	MSR primask, r3
@ 0 "" 2
.LVL27:
	.thumb
	.syntax unified
.LBE133:
.LBE132:
	.loc 3 29 5
.LBB134:
.LBB135:
	.loc 4 335 5
	.syntax unified
@ 335 "D:/RTOS/CPU/ARM_CortexM4/GCC/cpu_functions.h" 1
	isb 0xF
@ 0 "" 2
.LVL28:
	.thumb
	.syntax unified
.LBE135:
.LBE134:
.LBE131:
.LBE130:
.LBE129:
	.loc 1 96 38
	.loc 1 98 5
	.loc 1 99 1 is_stmt 0
	movs	r0, #0
.LVL29:
	bx	lr
.L20:
	.align	2
.L19:
	.word	os_timer__lock
	.cfi_endproc
.LFE48:
	.size	os_timer_remove, .-os_timer_remove
	.section	.text.os_timer_tick,"ax",%progbits
	.align	1
	.global	os_timer_tick
	.syntax unified
	.thumb
	.thumb_func
	.type	os_timer_tick, %function
os_timer_tick:
.LFB49:
	.loc 1 101 29 is_stmt 1
	.cfi_startproc
	@ args = 0, pretend = 0, frame = 0
	@ frame_needed = 0, uses_anonymous_args = 0
	push	{r3, r4, r5, r6, r7, lr}
	.cfi_def_cfa_offset 24
	.cfi_offset 3, -24
	.cfi_offset 4, -20
	.cfi_offset 5, -16
	.cfi_offset 6, -12
	.cfi_offset 7, -8
	.cfi_offset 14, -4
	.loc 1 102 5
.LVL30:
.LBB136:
.LBB137:
	.loc 2 30 5
.LBB138:
.LBB139:
	.loc 3 19 5
	.loc 3 20 5
.LBB140:
.LBB141:
	.loc 4 165 5
	.loc 4 167 5
	.syntax unified
@ 167 "D:/RTOS/CPU/ARM_CortexM4/GCC/cpu_functions.h" 1
	MRS r2, primask
@ 0 "" 2
.LVL31:
	.loc 4 168 5
	.thumb
	.syntax unified
.LBE141:
.LBE140:
	.loc 3 21 5
.LBB142:
.LBB143:
	.loc 4 41 5
	.syntax unified
@ 41 "D:/RTOS/CPU/ARM_CortexM4/GCC/cpu_functions.h" 1
	cpsid i
@ 0 "" 2
	.thumb
	.syntax unified
.LBE143:
.LBE142:
	.loc 3 22 5
.LBB144:
.LBB145:
	.loc 4 335 5
	.syntax unified
@ 335 "D:/RTOS/CPU/ARM_CortexM4/GCC/cpu_functions.h" 1
	isb 0xF
@ 0 "" 2
	.thumb
	.syntax unified
.LBE145:
.LBE144:
	.loc 3 23 5
.LBB146:
.LBB147:
	.loc 4 357 5
	.syntax unified
@ 357 "D:/RTOS/CPU/ARM_CortexM4/GCC/cpu_functions.h" 1
	dmb 0xF
@ 0 "" 2
	.thumb
	.syntax unified
.LBE147:
.LBE146:
	.loc 3 24 5
.LBE139:
.LBE138:
	.loc 2 30 11 is_stmt 0
	ldr	r3, .L38
	str	r2, [r3]
.LVL32:
.LBE137:
.LBE136:
	.loc 1 102 36 is_stmt 1
	.loc 1 104 5
	.loc 1 105 5
	.loc 1 106 5
	.loc 1 107 5
	.loc 1 108 5
	.loc 1 110 5
	.loc 1 110 27 is_stmt 0
	ldr	r3, .L38+4
	ldr	r5, [r3]
	adds	r5, r5, #1
	str	r5, [r3]
	.loc 1 112 5 is_stmt 1
.LVL33:
	.loc 1 114 5
	.loc 1 114 7 is_stmt 0
	cmp	r5, #255
	bls	.L29
	.loc 1 116 11 is_stmt 1
	.loc 1 116 13 is_stmt 0
	cmp	r5, #16384
	bcc	.L30
	.loc 1 118 11 is_stmt 1
	.loc 1 118 13 is_stmt 0
	cmp	r5, #1048576
	bcc	.L31
	.loc 1 120 11 is_stmt 1
	.loc 1 120 13 is_stmt 0
	cmp	r5, #67108864
	bcs	.L32
	.loc 1 121 14
	ldr	r7, .L38+8
	b	.L22
.L29:
	.loc 1 115 14
	ldr	r7, .L38+12
.L22:
.LVL34:
	.loc 1 126 5 is_stmt 1
	.loc 1 126 15 is_stmt 0
	ldr	r4, [r7, #4]
	.loc 1 126 7
	cmp	r4, r7
	beq	.L35
	.loc 1 104 23
	movs	r0, #0
	b	.L23
.LVL35:
.L30:
	.loc 1 117 14
	ldr	r7, .L38+16
	b	.L22
.L31:
	.loc 1 119 14
	ldr	r7, .L38+20
	b	.L22
.L32:
	.loc 1 123 14
	ldr	r7, .L38+24
	b	.L22
.LVL36:
.L35:
	.loc 1 127 9 is_stmt 1
.LBB148:
.LBB149:
	.loc 2 34 5
	ldr	r3, .L38
	ldr	r3, [r3]
.LVL37:
.LBB150:
	.loc 3 28 5
.LBB151:
.LBB152:
	.loc 4 179 5
	.syntax unified
@ 179 "D:/RTOS/CPU/ARM_CortexM4/GCC/cpu_functions.h" 1
	MSR primask, r3
@ 0 "" 2
.LVL38:
	.thumb
	.syntax unified
.LBE152:
.LBE151:
	.loc 3 29 5
.LBB153:
.LBB154:
	.loc 4 335 5
	.syntax unified
@ 335 "D:/RTOS/CPU/ARM_CortexM4/GCC/cpu_functions.h" 1
	isb 0xF
@ 0 "" 2
.LVL39:
	.thumb
	.syntax unified
.LBE154:
.LBE153:
.LBE150:
.LBE149:
.LBE148:
	.loc 1 127 42
	.loc 1 128 9
	.loc 1 128 16 is_stmt 0
	movs	r0, #0
	b	.L24
.LVL40:
.L37:
	.loc 1 140 17 is_stmt 1
	.loc 1 140 58 is_stmt 0
	ldr	r3, [r4, #16]
	.loc 1 140 51
	add	r3, r3, r5
	.loc 1 140 36
	str	r3, [r4, #20]
	.loc 1 141 17 is_stmt 1
	mov	r0, r4
	bl	os_timer__add
.LVL41:
	.loc 1 135 26 is_stmt 0
	movs	r0, #1
.LVL42:
.L25:
	.loc 1 135 26 discriminator 1
	mov	r4, r6
.LVL43:
.L23:
	.loc 1 143 19 is_stmt 1 discriminator 1
	.loc 1 131 34 discriminator 1
	cmp	r7, r4
	beq	.L36
	.loc 1 132 9
.LVL44:
	.loc 1 133 9
	.loc 1 133 14 is_stmt 0
	ldr	r6, [r4, #4]
.LVL45:
	.loc 1 134 9 is_stmt 1
	.loc 1 134 17 is_stmt 0
	ldr	r3, [r4, #20]
	.loc 1 134 11
	cmp	r5, r3
	bcc	.L25
	.loc 1 135 13 is_stmt 1
.LVL46:
	.loc 1 136 13
	.loc 1 136 21 is_stmt 0
	ldr	r3, [r4, #8]
	.loc 1 136 15
	cbz	r3, .L26
	.loc 1 137 17 is_stmt 1
	ldr	r1, [r4, #12]
	mov	r0, r4
	blx	r3
.LVL47:
.L26:
	.loc 1 139 13
	.loc 1 139 21 is_stmt 0
	ldr	r3, [r4, #24]
	.loc 1 139 15
	tst	r3, #2
	bne	.L37
	.loc 1 143 17 is_stmt 1 discriminator 1
	.loc 1 143 21 discriminator 1
	.loc 1 143 41 is_stmt 0 discriminator 1
	ldr	r2, [r4]
	.loc 1 143 76 discriminator 1
	ldr	r3, [r4, #4]
	.loc 1 143 55 discriminator 1
	str	r3, [r2, #4]
	.loc 1 143 84 is_stmt 1 discriminator 1
	.loc 1 143 139 is_stmt 0 discriminator 1
	ldr	r2, [r4]
	.loc 1 143 118 discriminator 1
	str	r2, [r3]
	.loc 1 143 147 is_stmt 1 discriminator 1
	.loc 1 143 201 is_stmt 0 discriminator 1
	str	r4, [r4]
	.loc 1 143 173 discriminator 1
	str	r4, [r4, #4]
	.loc 1 135 26 discriminator 1
	movs	r0, #1
	b	.L25
.LVL48:
.L36:
	.loc 1 148 5 is_stmt 1
.LBB155:
.LBB156:
	.loc 2 34 5
	ldr	r3, .L38
	ldr	r3, [r3]
.LVL49:
.LBB157:
	.loc 3 28 5
.LBB158:
.LBB159:
	.loc 4 179 5
	.syntax unified
@ 179 "D:/RTOS/CPU/ARM_CortexM4/GCC/cpu_functions.h" 1
	MSR primask, r3
@ 0 "" 2
.LVL50:
	.thumb
	.syntax unified
.LBE159:
.LBE158:
	.loc 3 29 5
.LBB160:
.LBB161:
	.loc 4 335 5
	.syntax unified
@ 335 "D:/RTOS/CPU/ARM_CortexM4/GCC/cpu_functions.h" 1
	isb 0xF
@ 0 "" 2
.LVL51:
	.thumb
	.syntax unified
.LBE161:
.LBE160:
.LBE157:
.LBE156:
.LBE155:
	.loc 1 148 38
	.loc 1 150 5
.L24:
	.loc 1 152 1 is_stmt 0
	pop	{r3, r4, r5, r6, r7, pc}
.LVL52:
.L39:
	.align	2
.L38:
	.word	os_timer__lock
	.word	os_timer__current_tick
	.word	os_timer__tv+16
	.word	os_timer__tvroot
	.word	os_timer__tv
	.word	os_timer__tv+8
	.word	os_timer__tv+24
	.cfi_endproc
.LFE49:
	.size	os_timer_tick, .-os_timer_tick
	.section	.text.os_timer_node_init,"ax",%progbits
	.align	1
	.global	os_timer_node_init
	.syntax unified
	.thumb
	.thumb_func
	.type	os_timer_node_init, %function
os_timer_node_init:
.LFB50:
	.loc 1 156 1 is_stmt 1
	.cfi_startproc
	@ args = 0, pretend = 0, frame = 0
	@ frame_needed = 0, uses_anonymous_args = 0
	@ link register save eliminated.
.LVL53:
	mov	r3, r0
	.loc 1 157 5
	.loc 1 157 9
	.loc 1 157 63 is_stmt 0
	str	r0, [r0]
	.loc 1 157 35
	str	r0, [r0, #4]
	.loc 1 157 7 is_stmt 1
	.loc 1 158 5
	.loc 1 158 24 is_stmt 0
	movs	r0, #0
.LVL54:
	str	r0, [r3, #20]
	.loc 1 159 5 is_stmt 1
	.loc 1 159 18 is_stmt 0
	str	r0, [r3, #16]
	.loc 1 160 5 is_stmt 1
	.loc 1 160 18 is_stmt 0
	str	r0, [r3, #24]
	.loc 1 161 5 is_stmt 1
	.loc 1 161 21 is_stmt 0
	str	r0, [r3, #12]
	.loc 1 162 5 is_stmt 1
	.loc 1 162 20 is_stmt 0
	str	r0, [r3, #8]
	.loc 1 164 5 is_stmt 1
	.loc 1 165 1 is_stmt 0
	bx	lr
	.cfi_endproc
.LFE50:
	.size	os_timer_node_init, .-os_timer_node_init
	.section	.bss.os_timer__lock,"aw",%nobits
	.align	2
	.type	os_timer__lock, %object
	.size	os_timer__lock, 4
os_timer__lock:
	.space	4
	.section	.bss.os_timer__tv,"aw",%nobits
	.align	2
	.type	os_timer__tv, %object
	.size	os_timer__tv, 32
os_timer__tv:
	.space	32
	.section	.bss.os_timer__tvroot,"aw",%nobits
	.align	2
	.type	os_timer__tvroot, %object
	.size	os_timer__tvroot, 8
os_timer__tvroot:
	.space	8
	.section	.bss.os_timer__current_tick,"aw",%nobits
	.align	2
	.type	os_timer__current_tick, %object
	.size	os_timer__current_tick, 4
os_timer__current_tick:
	.space	4
	.text
.Letext0:
	.file 5 "m:\\noinstall\\arm-gnu-toolchain-12.2.rel1-mingw-w64-i686-arm-none-eabi\\arm-none-eabi\\include\\machine\\_default_types.h"
	.file 6 "m:\\noinstall\\arm-gnu-toolchain-12.2.rel1-mingw-w64-i686-arm-none-eabi\\arm-none-eabi\\include\\sys\\_stdint.h"
	.file 7 "D:/RTOS/CPU/ARM_CortexM4/cpu_types.h"
	.file 8 "D:/RTOS/Kernel/os_types.h"
	.file 9 "D:/RTOS/Kernel/os_errors.h"
	.file 10 "D:/RTOS/Kernel/os_list.h"
	.file 11 "D:/RTOS/Kernel/os_tick.h"
	.file 12 "D:/RTOS/Kernel/os_timer.h"