	.cpu cortex-m7
	.arch armv7e-m
	.fpu fpv5-d16
	.eabi_attribute 28, 1
	.eabi_attribute 20, 1
	.eabi_attribute 21, 1
	.eabi_attribute 23, 3
	.eabi_attribute 24, 1
	.eabi_attribute 25, 1
	.eabi_attribute 26, 1
	.eabi_attribute 30, 1
	.eabi_attribute 34, 1
	.eabi_attribute 18, 4
	.file	"board.c"
	.text
.Ltext0:
	.cfi_sections	.debug_frame
	.file 1 "D:/RTOS/Board/YD-STM32H7xxVx_ClassicV19/board.c"
	.section	.text.CPU_CACHE_Enable,"ax",%progbits
	.align	1
	.syntax unified
	.thumb
	.thumb_func
	.type	CPU_CACHE_Enable, %function
CPU_CACHE_Enable:
.LFB386:
	.loc 1 97 1
	.cfi_startproc
	@ args = 0, pretend = 0, frame = 0
	@ frame_needed = 0, uses_anonymous_args = 0
	@ link register save eliminated.
	.loc 1 99 5
.LBB82:
.LBB83:
	.file 2 "d:\\rtos\\board\\yd-stm32h7xxvx_classicv19\\cmake-build-debug\\_deps\\stm32h7xx_cmsis_include\\drivers\\cmsis\\include\\core_cm7.h"
	.loc 2 2244 5
	.loc 2 2244 52 is_stmt 0
	ldr	r3, .L11
	ldr	r3, [r3, #20]
	.loc 2 2244 8
	tst	r3, #131072
	bne	.L2
	.loc 2 2246 5 is_stmt 1
.LBB84:
.LBB85:
	.file 3 "d:\\rtos\\board\\yd-stm32h7xxvx_classicv19\\cmake-build-debug\\_deps\\stm32h7xx_cmsis_include\\drivers\\cmsis\\include\\cmsis_gcc.h"
	.loc 3 946 3
	.syntax unified
@ 946 "d:\rtos\board\yd-stm32h7xxvx_classicv19\cmake-build-debug\_deps\stm32h7xx_cmsis_include\drivers\cmsis\include\cmsis_gcc.h" 1
	dsb 0xF
@ 0 "" 2
	.thumb
	.syntax unified
.LBE85:
.LBE84:
	.loc 2 2247 5
.LBB86:
.LBB87:
	.loc 3 935 3
	.syntax unified
@ 935 "d:\rtos\board\yd-stm32h7xxvx_classicv19\cmake-build-debug\_deps\stm32h7xx_cmsis_include\drivers\cmsis\include\cmsis_gcc.h" 1
	isb 0xF
@ 0 "" 2
	.thumb
	.syntax unified
.LBE87:
.LBE86:
	.loc 2 2248 5
	.loc 2 2248 58 is_stmt 0
	ldr	r3, .L11
	movs	r2, #0
	str	r2, [r3, #592]
	.loc 2 2249 5 is_stmt 1
.LBB88:
.LBB89:
	.loc 3 946 3
	.syntax unified
@ 946 "d:\rtos\board\yd-stm32h7xxvx_classicv19\cmake-build-debug\_deps\stm32h7xx_cmsis_include\drivers\cmsis\include\cmsis_gcc.h" 1
	dsb 0xF
@ 0 "" 2
	.thumb
	.syntax unified
.LBE89:
.LBE88:
	.loc 2 2250 5
.LBB90:
.LBB91:
	.loc 3 935 3
	.syntax unified
@ 935 "d:\rtos\board\yd-stm32h7xxvx_classicv19\cmake-build-debug\_deps\stm32h7xx_cmsis_include\drivers\cmsis\include\cmsis_gcc.h" 1
	isb 0xF
@ 0 "" 2
	.thumb
	.syntax unified
.LBE91:
.LBE90:
	.loc 2 2251 5
	.loc 2 2251 48 is_stmt 0
	ldr	r2, [r3, #20]
	.loc 2 2251 54
	orr	r2, r2, #131072
	str	r2, [r3, #20]
	.loc 2 2252 5 is_stmt 1
.LBB92:
.LBB93:
	.loc 3 946 3
	.syntax unified
@ 946 "d:\rtos\board\yd-stm32h7xxvx_classicv19\cmake-build-debug\_deps\stm32h7xx_cmsis_include\drivers\cmsis\include\cmsis_gcc.h" 1
	dsb 0xF
@ 0 "" 2
	.thumb
	.syntax unified
.LBE93:
.LBE92:
	.loc 2 2253 5
.LBB94:
.LBB95:
	.loc 3 935 3
	.syntax unified
@ 935 "d:\rtos\board\yd-stm32h7xxvx_classicv19\cmake-build-debug\_deps\stm32h7xx_cmsis_include\drivers\cmsis\include\cmsis_gcc.h" 1
	isb 0xF
@ 0 "" 2
	.thumb
	.syntax unified
.L2:
.LBE95:
.LBE94:
.LBE83:
.LBE82:
	.loc 1 102 5
.LBB96:
.LBB97:
	.loc 2 2328 5
	.loc 2 2329 5
	.loc 2 2330 5
	.loc 2 2332 5
	.loc 2 2332 52 is_stmt 0
	ldr	r3, .L11
	ldr	r3, [r3, #20]
	.loc 2 2332 8
	tst	r3, #65536
	bne	.L8
.LBE97:
.LBE96:
	.loc 1 97 1
	push	{r4}
	.cfi_def_cfa_offset 4
	.cfi_offset 4, -4
.LBB107:
.LBB106:
	.loc 2 2334 5 is_stmt 1
	.loc 2 2334 57 is_stmt 0
	ldr	r3, .L11
	movs	r2, #0
	str	r2, [r3, #132]
	.loc 2 2335 5 is_stmt 1
.LBB98:
.LBB99:
	.loc 3 946 3
	.syntax unified
@ 946 "d:\rtos\board\yd-stm32h7xxvx_classicv19\cmake-build-debug\_deps\stm32h7xx_cmsis_include\drivers\cmsis\include\cmsis_gcc.h" 1
	dsb 0xF
@ 0 "" 2
	.thumb
	.syntax unified
.LBE99:
.LBE98:
	.loc 2 2337 5
	.loc 2 2337 12 is_stmt 0
	ldr	r4, [r3, #128]
.LVL0:
	.loc 2 2340 5 is_stmt 1
	.loc 2 2340 10 is_stmt 0
	ubfx	r0, r4, #13, #15
.LVL1:
	b	.L5
.LVL2:
.L6:
	.loc 2 2350 17
	mov	r0, r3
.LVL3:
.L5:
	.loc 2 2341 5 is_stmt 1
	.loc 2 2342 7
	.loc 2 2342 12 is_stmt 0
	ubfx	r2, r4, #3, #10
.LVL4:
.L4:
	.loc 2 2343 7 is_stmt 1
	.loc 2 2344 9
	.loc 2 2344 77 is_stmt 0
	movw	r3, #16352
	and	r3, r3, r0, lsl #5
	.loc 2 2344 96
	orr	r3, r3, r2, lsl #30
	.loc 2 2344 60
	ldr	r1, .L11
	str	r3, [r1, #608]
	.loc 2 2349 23 is_stmt 1
	mov	r3, r2
	.loc 2 2349 20 is_stmt 0
	subs	r2, r2, #1
.LVL5:
	.loc 2 2349 23
	cmp	r3, #0
	bne	.L4
	.loc 2 2350 20 is_stmt 1
	.loc 2 2350 17 is_stmt 0
	subs	r3, r0, #1
.LVL6:
	.loc 2 2350 20
	cmp	r0, #0
	bne	.L6
	.loc 2 2351 5 is_stmt 1
.LBB100:
.LBB101:
	.loc 3 946 3
	.syntax unified
@ 946 "d:\rtos\board\yd-stm32h7xxvx_classicv19\cmake-build-debug\_deps\stm32h7xx_cmsis_include\drivers\cmsis\include\cmsis_gcc.h" 1
	dsb 0xF
@ 0 "" 2
	.thumb
	.syntax unified
.LBE101:
.LBE100:
	.loc 2 2353 5
	.loc 2 2353 48 is_stmt 0
	ldr	r3, [r1, #20]
.LVL7:
	.loc 2 2353 54
	orr	r3, r3, #65536
	str	r3, [r1, #20]
	.loc 2 2355 5 is_stmt 1
.LBB102:
.LBB103:
	.loc 3 946 3
	.syntax unified
@ 946 "d:\rtos\board\yd-stm32h7xxvx_classicv19\cmake-build-debug\_deps\stm32h7xx_cmsis_include\drivers\cmsis\include\cmsis_gcc.h" 1
	dsb 0xF
@ 0 "" 2
	.thumb
	.syntax unified
.LBE103:
.LBE102:
	.loc 2 2356 5
.LBB104:
.LBB105:
	.loc 3 935 3
	.syntax unified
@ 935 "d:\rtos\board\yd-stm32h7xxvx_classicv19\cmake-build-debug\_deps\stm32h7xx_cmsis_include\drivers\cmsis\include\cmsis_gcc.h" 1
	isb 0xF
@ 0 "" 2
.LVL8:
	.thumb
	.syntax unified
.LBE105:
.LBE104:
.LBE106:
.LBE107:
	.loc 1 103 1 is_stmt 0
	ldr	r4, [sp], #4
	.cfi_restore 4
	.cfi_def_cfa_offset 0
	bx	lr
.L8:
	bx	lr
.L12:
	.align	2
.L11:
	.word	-536810240
	.cfi_endproc
.LFE386:
	.size	CPU_CACHE_Enable, .-CPU_CACHE_Enable
	.section	.text.SystemClock_Config,"ax",%progbits
	.align	1
	.syntax unified
	.thumb
	.thumb_func
	.type	SystemClock_Config, %function
SystemClock_Config:
.LFB387:
	.loc 1 128 1 is_stmt 1
	.cfi_startproc
	@ args = 0, pretend = 0, frame = 112
	@ frame_needed = 0, uses_anonymous_args = 0
	push	{lr}
	.cfi_def_cfa_offset 4
	.cfi_offset 14, -4
	sub	sp, sp, #116
	.cfi_def_cfa_offset 120
	.loc 1 129 5
	.loc 1 129 24 is_stmt 0
	movs	r2, #32
	movs	r1, #0
	add	r0, sp, #4
	bl	memset
.LVL9:
	.loc 1 130 5 is_stmt 1
	.loc 1 130 24 is_stmt 0
	movs	r2, #76
	movs	r1, #0
	add	r0, sp, #36
	bl	memset
.LVL10:
	.loc 1 131 5 is_stmt 1
	.loc 1 134 5
	movs	r0, #2
	bl	HAL_PWREx_ConfigSupply
.LVL11:
	.loc 1 139 5
.LBB108:
	.loc 1 139 10
	.loc 1 139 28 is_stmt 0
	movs	r3, #0
	str	r3, [sp]
	.loc 1 139 43 is_stmt 1
	.loc 1 139 64
	.loc 1 139 208 is_stmt 0
	ldr	r3, .L20
	ldr	r2, [r3, #24]
	.loc 1 139 243
	orr	r2, r2, #49152
	.loc 1 139 138
	str	r2, [r3, #24]
	.loc 1 139 289 is_stmt 1
	.loc 1 139 362 is_stmt 0
	ldr	r3, [r3, #24]
	.loc 1 139 370
	and	r3, r3, #49152
	.loc 1 139 296
	str	r3, [sp]
	.loc 1 139 393 is_stmt 1
	.loc 1 139 460 is_stmt 0
	ldr	r3, .L20+4
	ldr	r2, [r3, #44]
	.loc 1 139 469
	orr	r2, r2, #1
	str	r2, [r3, #44]
	.loc 1 139 492 is_stmt 1
	.loc 1 139 568 is_stmt 0
	ldr	r3, [r3, #44]
	.loc 1 139 577
	and	r3, r3, #1
	.loc 1 139 499
	str	r3, [sp]
	.loc 1 139 1115 is_stmt 1
	.loc 1 139 1116 is_stmt 0
	ldr	r3, [sp]
.LBE108:
	.loc 1 139 8 is_stmt 1
	.loc 1 141 5
.L14:
	.loc 1 141 2059 discriminator 1
	.loc 1 141 11 discriminator 1
	.loc 1 141 517 is_stmt 0 discriminator 1
	ldr	r3, .L20
	ldr	r3, [r3, #24]
	.loc 1 141 11 discriminator 1
	tst	r3, #8192
	beq	.L14
	.loc 1 144 5 is_stmt 1
	.loc 1 144 38 is_stmt 0
	movs	r3, #1
	str	r3, [sp, #36]
	.loc 1 145 5 is_stmt 1
	.loc 1 145 32 is_stmt 0
	mov	r3, #65536
	str	r3, [sp, #40]
	.loc 1 146 5 is_stmt 1
	.loc 1 146 32 is_stmt 0
	movs	r2, #0
	str	r2, [sp, #48]
	.loc 1 147 5 is_stmt 1
	.loc 1 147 32 is_stmt 0
	str	r2, [sp, #64]
	.loc 1 148 5 is_stmt 1
	.loc 1 148 36 is_stmt 0
	movs	r3, #2
	str	r3, [sp, #72]
	.loc 1 149 5 is_stmt 1
	.loc 1 149 37 is_stmt 0
	str	r3, [sp, #76]
	.loc 1 151 5 is_stmt 1
	.loc 1 151 32 is_stmt 0
	movs	r1, #5
	str	r1, [sp, #80]
	.loc 1 152 5 is_stmt 1
	.loc 1 152 32 is_stmt 0
	movs	r1, #192
	str	r1, [sp, #84]
	.loc 1 153 5 is_stmt 1
	.loc 1 153 36 is_stmt 0
	str	r2, [sp, #108]
	.loc 1 154 5 is_stmt 1
	.loc 1 154 32 is_stmt 0
	str	r3, [sp, #88]
	.loc 1 155 5 is_stmt 1
	.loc 1 155 32 is_stmt 0
	str	r3, [sp, #92]
	.loc 1 156 5 is_stmt 1
	.loc 1 156 32 is_stmt 0
	str	r3, [sp, #96]
	.loc 1 158 5 is_stmt 1
	.loc 1 158 37 is_stmt 0
	str	r2, [sp, #104]
	.loc 1 159 5 is_stmt 1
	.loc 1 159 34 is_stmt 0
	movs	r3, #8
	str	r3, [sp, #100]
	.loc 1 160 5 is_stmt 1
	.loc 1 160 11 is_stmt 0
	add	r0, sp, #36
	bl	HAL_RCC_OscConfig
.LVL12:
	.loc 1 161 5 is_stmt 1
	.loc 1 161 7 is_stmt 0
	cbz	r0, .L15
.L16:
	.loc 1 163 9 is_stmt 1 discriminator 1
	.loc 1 163 20 discriminator 1
	.loc 1 163 14 discriminator 1
	b	.L16
.L15:
	.loc 1 167 5
	.loc 1 167 33 is_stmt 0
	movs	r3, #63
	str	r3, [sp, #4]
	.loc 1 174 5 is_stmt 1
	.loc 1 174 36 is_stmt 0
	movs	r3, #3
	str	r3, [sp, #8]
	.loc 1 175 5 is_stmt 1
	.loc 1 175 37 is_stmt 0
	movs	r3, #0
	str	r3, [sp, #12]
	.loc 1 176 5 is_stmt 1
	.loc 1 176 37 is_stmt 0
	movs	r3, #8
	str	r3, [sp, #16]
	.loc 1 177 5 is_stmt 1
	.loc 1 177 38 is_stmt 0
	movs	r3, #64
	str	r3, [sp, #20]
	.loc 1 178 5 is_stmt 1
	.loc 1 178 38 is_stmt 0
	str	r3, [sp, #24]
	.loc 1 179 5 is_stmt 1
	.loc 1 179 38 is_stmt 0
	mov	r2, #1024
	str	r2, [sp, #28]
	.loc 1 180 5 is_stmt 1
	.loc 1 180 38 is_stmt 0
	str	r3, [sp, #32]
	.loc 1 181 5 is_stmt 1
	.loc 1 181 11 is_stmt 0
	movs	r1, #4
	add	r0, sp, r1
.LVL13:
	bl	HAL_RCC_ClockConfig
.LVL14:
	.loc 1 182 5 is_stmt 1
	.loc 1 182 7 is_stmt 0
	cbz	r0, .L13
.L18:
	.loc 1 184 9 is_stmt 1 discriminator 2
	.loc 1 184 20 discriminator 2
	.loc 1 184 14 discriminator 2
	b	.L18
.L13:
	.loc 1 186 1 is_stmt 0
	add	sp, sp, #116
	.cfi_def_cfa_offset 4
	@ sp needed
	ldr	pc, [sp], #4
.L21:
	.align	2
.L20:
	.word	1476544512
	.word	1476396032
	.cfi_endproc
.LFE387:
	.size	SystemClock_Config, .-SystemClock_Config
	.section	.text.MPU_Set_Protection,"ax",%progbits
	.align	1
	.global	MPU_Set_Protection
	.syntax unified
	.thumb
	.thumb_func
	.type	MPU_Set_Protection, %function
MPU_Set_Protection:
.LFB383:
	.loc 1 27 1 is_stmt 1
	.cfi_startproc
	@ args = 20, pretend = 0, frame = 16
	@ frame_needed = 0, uses_anonymous_args = 0
.LVL15:
	push	{r4, r5, r6, r7, lr}
	.cfi_def_cfa_offset 20
	.cfi_offset 4, -20
	.cfi_offset 5, -16
	.cfi_offset 6, -12
	.cfi_offset 7, -8
	.cfi_offset 14, -4
	sub	sp, sp, #20
	.cfi_def_cfa_offset 40
	mov	r6, r0
	mov	r5, r1
	mov	r7, r2
	mov	r4, r3
	.loc 1 28 5
	.loc 1 29 5
	bl	HAL_MPU_Disable
.LVL16:
	.loc 1 31 5
	.loc 1 31 23 is_stmt 0
	movs	r3, #1
	strb	r3, [sp]
	.loc 1 32 5 is_stmt 1
	.loc 1 32 23 is_stmt 0
	strb	r7, [sp, #1]
	.loc 1 33 5 is_stmt 1
	.loc 1 33 28 is_stmt 0
	str	r6, [sp, #4]
	.loc 1 34 5 is_stmt 1
	.loc 1 34 21 is_stmt 0
	strb	r5, [sp, #8]
	.loc 1 35 5 is_stmt 1
	.loc 1 35 33 is_stmt 0
	movs	r5, #0
.LVL17:
	strb	r5, [sp, #9]
	.loc 1 36 5 is_stmt 1
	.loc 1 36 29 is_stmt 0
	ldrb	r3, [sp, #56]	@ zero_extendqisi2
	strb	r3, [sp, #10]
	.loc 1 37 5 is_stmt 1
	.loc 1 37 33 is_stmt 0
	strb	r4, [sp, #11]
	.loc 1 38 5 is_stmt 1
	.loc 1 38 28 is_stmt 0
	ldrb	r3, [sp, #40]	@ zero_extendqisi2
	strb	r3, [sp, #12]
	.loc 1 39 5 is_stmt 1
	.loc 1 39 28 is_stmt 0
	ldrb	r3, [sp, #44]	@ zero_extendqisi2
	strb	r3, [sp, #13]
	.loc 1 40 5 is_stmt 1
	.loc 1 40 28 is_stmt 0
	ldrb	r3, [sp, #48]	@ zero_extendqisi2
	strb	r3, [sp, #14]
	.loc 1 41 5 is_stmt 1
	.loc 1 41 29 is_stmt 0
	ldrb	r3, [sp, #52]	@ zero_extendqisi2
	strb	r3, [sp, #15]
	.loc 1 42 5 is_stmt 1
	mov	r0, sp
	bl	HAL_MPU_ConfigRegion
.LVL18:
	.loc 1 43 5
	movs	r0, #4
	bl	HAL_MPU_Enable
.LVL19:
	.loc 1 44 5
	.loc 1 45 1 is_stmt 0
	mov	r0, r5
	add	sp, sp, #20
	.cfi_def_cfa_offset 20
	@ sp needed
	pop	{r4, r5, r6, r7, pc}
	.cfi_endproc
.LFE383:
	.size	MPU_Set_Protection, .-MPU_Set_Protection
	.section	.text.MPU_Config0,"ax",%progbits
	.align	1
	.global	MPU_Config0
	.syntax unified
	.thumb
	.thumb_func
	.type	MPU_Config0, %function
MPU_Config0:
.LFB384:
	.loc 1 51 1 is_stmt 1
	.cfi_startproc
	@ args = 0, pretend = 0, frame = 0
	@ frame_needed = 0, uses_anonymous_args = 0
	push	{r4, r5, lr}
	.cfi_def_cfa_offset 12
	.cfi_offset 4, -12
	.cfi_offset 5, -8
	.cfi_offset 14, -4
	sub	sp, sp, #28
	.cfi_def_cfa_offset 40
	.loc 1 52 5
	movs	r5, #0
	str	r5, [sp, #16]
	movs	r4, #1
	str	r4, [sp, #12]
	str	r4, [sp, #8]
	str	r5, [sp, #4]
	str	r4, [sp]
	movs	r3, #3
	mov	r2, r4
	movs	r1, #16
	mov	r0, #536870912
	bl	MPU_Set_Protection
.LVL20:
	.loc 1 53 5
	str	r5, [sp, #16]
	str	r4, [sp, #12]
	str	r4, [sp, #8]
	str	r5, [sp, #4]
	str	r4, [sp]
	movs	r3, #3
	movs	r2, #2
	movs	r1, #18
	mov	r0, #603979776
	bl	MPU_Set_Protection
.LVL21:
	.loc 1 54 5
	str	r5, [sp, #16]
	str	r4, [sp, #12]
	str	r4, [sp, #8]
	str	r5, [sp, #4]
	str	r4, [sp]
	movs	r3, #3
	mov	r2, r3
	movs	r1, #18
	mov	r0, #805306368
	bl	MPU_Set_Protection
.LVL22:
	.loc 1 55 5
	str	r5, [sp, #16]
	str	r4, [sp, #12]
	str	r5, [sp, #8]
	str	r5, [sp, #4]
	str	r4, [sp]
	movs	r3, #3
	movs	r2, #4
	movs	r1, #15
	mov	r0, #939524096
	bl	MPU_Set_Protection
.LVL23:
	.loc 1 59 1 is_stmt 0
	add	sp, sp, #28
	.cfi_def_cfa_offset 12
	@ sp needed
	pop	{r4, r5, pc}
	.cfi_endproc
.LFE384:
	.size	MPU_Config0, .-MPU_Config0
	.section	.text.MPU_Config,"ax",%progbits
	.align	1
	.global	MPU_Config
	.syntax unified
	.thumb
	.thumb_func
	.type	MPU_Config, %function
MPU_Config:
.LFB385:
	.loc 1 62 1 is_stmt 1
	.cfi_startproc
	@ args = 0, pretend = 0, frame = 16
	@ frame_needed = 0, uses_anonymous_args = 0
	push	{r4, lr}
	.cfi_def_cfa_offset 8
	.cfi_offset 4, -8
	.cfi_offset 14, -4
	sub	sp, sp, #16
	.cfi_def_cfa_offset 24
	.loc 1 63 5
	.loc 1 63 28 is_stmt 0
	movs	r4, #0
	str	r4, [sp]
	str	r4, [sp, #4]
	str	r4, [sp, #8]
	str	r4, [sp, #12]
	.loc 1 66 5 is_stmt 1
	bl	HAL_MPU_Disable
.LVL24:
	.loc 1 70 5
	.loc 1 70 27 is_stmt 0
	movs	r3, #1
	strb	r3, [sp]
	.loc 1 71 5 is_stmt 1
	.loc 1 71 27 is_stmt 0
	strb	r4, [sp, #1]
	.loc 1 72 5 is_stmt 1
	.loc 1 72 32 is_stmt 0
	str	r4, [sp, #4]
	.loc 1 73 5 is_stmt 1
	.loc 1 73 25 is_stmt 0
	movs	r2, #31
	strb	r2, [sp, #8]
	.loc 1 74 5 is_stmt 1
	.loc 1 74 37 is_stmt 0
	movs	r2, #135
	strb	r2, [sp, #9]
	.loc 1 75 5 is_stmt 1
	.loc 1 75 33 is_stmt 0
	strb	r4, [sp, #10]
	.loc 1 76 5 is_stmt 1
	.loc 1 76 37 is_stmt 0
	movs	r2, #3
	strb	r2, [sp, #11]
	.loc 1 77 5 is_stmt 1
	.loc 1 77 32 is_stmt 0
	strb	r4, [sp, #12]
	.loc 1 78 5 is_stmt 1
	.loc 1 78 32 is_stmt 0
	strb	r4, [sp, #13]
	.loc 1 79 5 is_stmt 1
	.loc 1 79 32 is_stmt 0
	strb	r3, [sp, #14]
	.loc 1 80 5 is_stmt 1
	.loc 1 80 33 is_stmt 0
	strb	r3, [sp, #15]
	.loc 1 82 5 is_stmt 1
	mov	r0, sp
	bl	HAL_MPU_ConfigRegion
.LVL25:
	.loc 1 87 5
	movs	r0, #4
	bl	HAL_MPU_Enable
.LVL26:
	.loc 1 89 1 is_stmt 0
	add	sp, sp, #16
	.cfi_def_cfa_offset 8
	@ sp needed
	pop	{r4, pc}
	.cfi_endproc
.LFE385:
	.size	MPU_Config, .-MPU_Config
	.section	.text._sys_exit,"ax",%progbits
	.align	1
	.global	_sys_exit
	.syntax unified
	.thumb
	.thumb_func
	.type	_sys_exit, %function
_sys_exit:
.LFB388:
	.loc 1 205 1 is_stmt 1
	.cfi_startproc
	@ args = 0, pretend = 0, frame = 0
	@ frame_needed = 0, uses_anonymous_args = 0
	@ link register save eliminated.
.LVL27:
	.loc 1 206 5
.LVL28:
	.loc 1 207 1 is_stmt 0
	bx	lr
	.cfi_endproc
.LFE388:
	.size	_sys_exit, .-_sys_exit
	.section	.text.__io_putchar,"ax",%progbits
	.align	1
	.global	__io_putchar
	.syntax unified
	.thumb
	.thumb_func
	.type	__io_putchar, %function
__io_putchar:
.LFB389:
	.loc 1 215 1 is_stmt 1
	.cfi_startproc
	@ args = 0, pretend = 0, frame = 8
	@ frame_needed = 0, uses_anonymous_args = 0
.LVL29:
	push	{r4, lr}
	.cfi_def_cfa_offset 8
	.cfi_offset 4, -8
	.cfi_offset 14, -4
	sub	sp, sp, #8
	.cfi_def_cfa_offset 16
	str	r0, [sp, #4]
	.loc 1 218 5
.LBB109:
.LBB110:
	.file 4 "D:/RTOS/CPU/ARM_CortexM4/cpu_interrupt.h"
	.loc 4 19 5
	.loc 4 20 5
.LBB111:
.LBB112:
	.file 5 "D:/RTOS/CPU/ARM_CortexM4/GCC/cpu_functions.h"
	.loc 5 165 5
	.loc 5 167 5
	.syntax unified
@ 167 "D:/RTOS/CPU/ARM_CortexM4/GCC/cpu_functions.h" 1
	MRS r4, primask
@ 0 "" 2
.LVL30:
	.loc 5 168 5
	.thumb
	.syntax unified
.LBE112:
.LBE111:
	.loc 4 21 5
.LBB113:
.LBB114:
	.loc 5 41 5
	.syntax unified
@ 41 "D:/RTOS/CPU/ARM_CortexM4/GCC/cpu_functions.h" 1
	cpsid i
@ 0 "" 2
	.thumb
	.syntax unified
.LBE114:
.LBE113:
	.loc 4 22 5
.LBB115:
.LBB116:
	.loc 5 335 5
	.syntax unified
@ 335 "D:/RTOS/CPU/ARM_CortexM4/GCC/cpu_functions.h" 1
	isb 0xF
@ 0 "" 2
	.thumb
	.syntax unified
.LBE116:
.LBE115:
	.loc 4 23 5
.LBB117:
.LBB118:
	.loc 5 357 5
	.syntax unified
@ 357 "D:/RTOS/CPU/ARM_CortexM4/GCC/cpu_functions.h" 1
	dmb 0xF
@ 0 "" 2
	.thumb
	.syntax unified
.LBE118:
.LBE117:
	.loc 4 24 5
.LVL31:
.LBE110:
.LBE109:
	.loc 1 219 5
	mov	r3, #256
	movs	r2, #1
	add	r1, sp, #4
	ldr	r0, .L31
.LVL32:
	bl	HAL_UART_Transmit
.LVL33:
	.loc 1 220 5
.LBB119:
	.loc 4 28 5
.LBB120:
.LBB121:
	.loc 5 179 5
	.syntax unified
@ 179 "D:/RTOS/CPU/ARM_CortexM4/GCC/cpu_functions.h" 1
	MSR primask, r4
@ 0 "" 2
.LVL34:
	.thumb
	.syntax unified
.LBE121:
.LBE120:
	.loc 4 29 5
.LBB122:
.LBB123:
	.loc 5 335 5
	.syntax unified
@ 335 "D:/RTOS/CPU/ARM_CortexM4/GCC/cpu_functions.h" 1
	isb 0xF
@ 0 "" 2
.LVL35:
	.thumb
	.syntax unified
.LBE123:
.LBE122:
.LBE119:
	.loc 1 223 5
	.loc 1 224 1 is_stmt 0
	ldr	r0, [sp, #4]
	add	sp, sp, #8
	.cfi_def_cfa_offset 8
	@ sp needed
	pop	{r4, pc}
.LVL36:
.L32:
	.align	2
.L31:
	.word	BSP_USART1_Handle
	.cfi_endproc
.LFE389:
	.size	__io_putchar, .-__io_putchar
	.section	.text.Board_Init,"ax",%progbits
	.align	1
	.global	Board_Init
	.syntax unified
	.thumb
	.thumb_func
	.type	Board_Init, %function
Board_Init:
.LFB390:
	.loc 1 242 1 is_stmt 1
	.cfi_startproc
	@ args = 0, pretend = 0, frame = 8
	@ frame_needed = 0, uses_anonymous_args = 0
	push	{lr}
	.cfi_def_cfa_offset 4
	.cfi_offset 14, -4
	sub	sp, sp, #12
	.cfi_def_cfa_offset 16
	.loc 1 243 5
	.loc 1 243 48 is_stmt 0
	ldr	r2, .L36
	ldr	r3, [r2, #20]
	.loc 1 243 53
	orr	r3, r3, #512
	str	r3, [r2, #20]
	.loc 1 245 5 is_stmt 1
.LBB124:
	.loc 1 245 10
	.loc 1 245 36
	.loc 1 245 100 is_stmt 0
	ldr	r3, .L36+4
	ldr	r2, [r3, #224]
	.loc 1 245 111
	orr	r2, r2, #128
	str	r2, [r3, #224]
	.loc 1 245 134 is_stmt 1
	.loc 1 245 207 is_stmt 0
	ldr	r2, [r3, #224]
	.loc 1 245 218
	and	r2, r2, #128
	.loc 1 245 141
	str	r2, [sp]
	.loc 1 245 240 is_stmt 1
	.loc 1 245 241 is_stmt 0
	ldr	r2, [sp]
.LBE124:
	.loc 1 245 8 is_stmt 1
	.loc 1 246 5
.LBB125:
	.loc 1 246 10
	.loc 1 246 36
	.loc 1 246 100 is_stmt 0
	ldr	r2, [r3, #244]
	.loc 1 246 111
	orr	r2, r2, #2
	str	r2, [r3, #244]
	.loc 1 246 134 is_stmt 1
	.loc 1 246 207 is_stmt 0
	ldr	r3, [r3, #244]
	.loc 1 246 218
	and	r3, r3, #2
	.loc 1 246 141
	str	r3, [sp, #4]
	.loc 1 246 240 is_stmt 1
	.loc 1 246 241 is_stmt 0
	ldr	r3, [sp, #4]
.LBE125:
	.loc 1 246 8 is_stmt 1
	.loc 1 249 5
	bl	MPU_Config
.LVL37:
	.loc 1 252 5
	bl	CPU_CACHE_Enable
.LVL38:
	.loc 1 254 5
	bl	os_kernel_init
.LVL39:
	.loc 1 265 5
	bl	HAL_Init
.LVL40:
	.loc 1 267 5
	bl	SystemClock_Config
.LVL41:
	.loc 1 269 5
	movs	r0, #0
	bl	HAL_SYSTICK_CLKSourceConfig
.LVL42:
	.loc 1 270 5
	ldr	r3, .L36+8
	ldr	r3, [r3]
	ldr	r2, .L36+12
	umull	r2, r3, r2, r3
	lsrs	r3, r3, #6
.LVL43:
.LBB126:
.LBB127:
	.loc 2 2620 3
	.loc 2 2620 14 is_stmt 0
	subs	r3, r3, #1
.LVL44:
	.loc 2 2620 6
	cmp	r3, #16777216
	bcs	.L34
	.loc 2 2625 3 is_stmt 1
	.loc 2 2625 57 is_stmt 0
	mov	r2, #-536813568
	str	r3, [r2, #20]
	.loc 2 2626 3 is_stmt 1
.LVL45:
.LBB128:
.LBB129:
	.loc 2 2034 3
	.loc 2 2040 5
	.loc 2 2040 87 is_stmt 0
	ldr	r3, .L36
.LVL46:
	movs	r1, #240
	strb	r1, [r3, #35]
.LVL47:
.LBE129:
.LBE128:
	.loc 2 2627 3 is_stmt 1
	.loc 2 2627 56 is_stmt 0
	movs	r3, #0
	str	r3, [r2, #24]
	.loc 2 2628 3 is_stmt 1
	.loc 2 2628 57 is_stmt 0
	movs	r3, #7
	str	r3, [r2, #16]
	.loc 2 2631 3 is_stmt 1
.L34:
.LVL48:
.LBE127:
.LBE126:
	.loc 1 271 5
	movs	r2, #0
	movs	r1, #254
	mov	r0, #-1
	bl	HAL_NVIC_SetPriority
.LVL49:
	.loc 1 272 5
	movs	r2, #0
	movs	r1, #255
	mvn	r0, #1
	bl	HAL_NVIC_SetPriority
.LVL50:
	.loc 1 274 5
	bl	BSP_USART1_Init
.LVL51:
	.loc 1 275 5
	bl	BSP_USART1_EnableDMATx
.LVL52:
	.loc 1 278 5
	bl	BSP_TIMDelay_Init
.LVL53:
	.loc 1 282 5
	bl	BSP_LED4_Init
.LVL54:
	.loc 1 283 5
	bl	BSP_LED5_Init
.LVL55:
	.loc 1 284 1 is_stmt 0
	add	sp, sp, #12
	.cfi_def_cfa_offset 4
	@ sp needed
	ldr	pc, [sp], #4
.L37:
	.align	2
.L36:
	.word	-536810240
	.word	1476543488
	.word	SystemCoreClock
	.word	274877907
	.cfi_endproc
.LFE390:
	.size	Board_Init, .-Board_Init
	.global	__stdout
	.section	.bss.__stdout,"aw",%nobits
	.align	2
	.type	__stdout, %object
	.size	__stdout, 104
__stdout:
	.space	104
	.text
.Letext0:
	.file 6 "D:/RTOS/Board/YD-STM32H7xxVx_ClassicV19/cmake-build-debug/_deps/stm32h7xx_cmsis_device-src/Include/stm32h743xx.h"
	.file 7 "m:\\noinstall\\arm-gnu-toolchain-12.2.rel1-mingw-w64-i686-arm-none-eabi\\arm-none-eabi\\include\\machine\\_default_types.h"
	.file 8 "m:\\noinstall\\arm-gnu-toolchain-12.2.rel1-mingw-w64-i686-arm-none-eabi\\arm-none-eabi\\include\\sys\\_stdint.h"
	.file 9 "m:\\noinstall\\arm-gnu-toolchain-12.2.rel1-mingw-w64-i686-arm-none-eabi\\lib\\gcc\\arm-none-eabi\\12.2.1\\include\\stddef.h"
	.file 10 "m:\\noinstall\\arm-gnu-toolchain-12.2.rel1-mingw-w64-i686-arm-none-eabi\\arm-none-eabi\\include\\sys\\_types.h"
	.file 11 "m:\\noinstall\\arm-gnu-toolchain-12.2.rel1-mingw-w64-i686-arm-none-eabi\\arm-none-eabi\\include\\sys\\reent.h"
	.file 12 "m:\\noinstall\\arm-gnu-toolchain-12.2.rel1-mingw-w64-i686-arm-none-eabi\\arm-none-eabi\\include\\sys\\lock.h"
	.file 13 "D:/RTOS/Board/YD-STM32H7xxVx_ClassicV19/cmake-build-debug/_deps/stm32h7xx_hal_driver-src/Inc/stm32h7xx_hal_def.h"
	.file 14 "D:/RTOS/Board/YD-STM32H7xxVx_ClassicV19/cmake-build-debug/_deps/stm32h7xx_hal_driver-src/Inc/stm32h7xx_hal_rcc.h"
	.file 15 "D:/RTOS/Board/YD-STM32H7xxVx_ClassicV19/cmake-build-debug/_deps/stm32h7xx_hal_driver-src/Inc/stm32h7xx_hal_dma.h"
	.file 16 "D:/RTOS/Board/YD-STM32H7xxVx_ClassicV19/cmake-build-debug/_deps/stm32h7xx_hal_driver-src/Inc/stm32h7xx_hal_cortex.h"
	.file 17 "D:/RTOS/Board/YD-STM32H7xxVx_ClassicV19/cmake-build-debug/_deps/stm32h7xx_hal_driver-src/Inc/stm32h7xx_hal_uart.h"
	.file 18 "D:/RTOS/Board/YD-STM32H7xxVx_ClassicV19/cmake-build-debug/_deps/stm32h7xx_cmsis_device-src/Include/system_stm32h7xx.h"
	.file 19 "D:/RTOS/Board/YD-STM32H7xxVx_ClassicV19/BSP/bsp_usart1.h"
	.file 20 "D:/RTOS/CPU/ARM_CortexM4/cpu_types.h"
	.file 21 "D:/RTOS/Kernel/os_types.h"
	.file 22 "D:/RTOS/Kernel/os_errors.h"
	.file 23 "m:\\noinstall\\arm-gnu-toolchain-12.2.rel1-mingw-w64-i686-arm-none-eabi\\arm-none-eabi\\include\\stdio.h"
	.file 24 "D:/RTOS/Board/YD-STM32H7xxVx_ClassicV19/cmake-build-debug/_deps/stm32h7xx_hal_driver-src/Inc/stm32h7xx_hal_pwr_ex.h"
	.file 25 "D:/RTOS/Board/YD-STM32H7xxVx_ClassicV19/BSP/bsp_led5.h"
	.file 26 "D:/RTOS/Board/YD-STM32H7xxVx_ClassicV19/BSP/bsp_led4.h"
	.file 27 "D:/RTOS/Board/YD-STM32H7xxVx_ClassicV19/BSP/bsp_timdelay.h"
	.file 28 "D:/RTOS/Board/YD-STM32H7xxVx_ClassicV19/cmake-build-debug/_deps/stm32h7xx_hal_driver-src/Inc/stm32h7xx_hal.h"
	.file 29 "D:/RTOS/Kernel/os_kernel.h"
	.file 30 "<built-in>"