	.cpu cortex-m7
	.arch armv7e-m
	.fpu fpv5-d16
	.eabi_attribute 28, 1
	.eabi_attribute 20, 1
	.eabi_attribute 21, 1
	.eabi_attribute 23, 3
	.eabi_attribute 24, 1
	.eabi_attribute 25, 1
	.eabi_attribute 26, 1
	.eabi_attribute 30, 1
	.eabi_attribute 34, 1
	.eabi_attribute 18, 4
	.file	"stm32h7xx_it.c"
	.text
.Ltext0:
	.cfi_sections	.debug_frame
	.file 1 "D:/RTOS/Board/YD-STM32H7xxVx_ClassicV19/stm32h7xx_it.c"
	.section	.rodata.NMI_Handler.str1.4,"aMS",%progbits,1
	.align	2
.LC0:
	.ascii	"NMI_Handler\015\012\000"
	.section	.text.NMI_Handler,"ax",%progbits
	.align	1
	.global	NMI_Handler
	.syntax unified
	.thumb
	.thumb_func
	.type	NMI_Handler, %function
NMI_Handler:
.LFB383:
	.loc 1 49 1
	.cfi_startproc
	@ args = 0, pretend = 0, frame = 0
	@ frame_needed = 0, uses_anonymous_args = 0
	push	{r3, lr}
	.cfi_def_cfa_offset 8
	.cfi_offset 3, -8
	.cfi_offset 14, -4
	.loc 1 50 5
	ldr	r0, .L3
	bl	BSP_USART1_Printf
.LVL0:
	.loc 1 51 1 is_stmt 0
	pop	{r3, pc}
.L4:
	.align	2
.L3:
	.word	.LC0
	.cfi_endproc
.LFE383:
	.size	NMI_Handler, .-NMI_Handler
	.section	.rodata.MemManage_Handler.str1.4,"aMS",%progbits,1
	.align	2
.LC1:
	.ascii	"MemManage_Handler\015\012\000"
	.section	.text.MemManage_Handler,"ax",%progbits
	.align	1
	.global	MemManage_Handler
	.syntax unified
	.thumb
	.thumb_func
	.type	MemManage_Handler, %function
MemManage_Handler:
.LFB384:
	.loc 1 72 1 is_stmt 1
	.cfi_startproc
	@ Volatile: function does not return.
	@ args = 0, pretend = 0, frame = 0
	@ frame_needed = 0, uses_anonymous_args = 0
	push	{r3, lr}
	.cfi_def_cfa_offset 8
	.cfi_offset 3, -8
	.cfi_offset 14, -4
	.loc 1 73 5
	ldr	r0, .L8
	bl	BSP_USART1_Printf
.LVL1:
	.loc 1 74 5
	bl	HardFault_Handler
.LVL2:
.L6:
	.loc 1 76 3 discriminator 1
	.loc 1 78 3 discriminator 1
	.loc 1 76 9 discriminator 1
	b	.L6
.L9:
	.align	2
.L8:
	.word	.LC1
	.cfi_endproc
.LFE384:
	.size	MemManage_Handler, .-MemManage_Handler
	.section	.rodata.BusFault_Handler.str1.4,"aMS",%progbits,1
	.align	2
.LC2:
	.ascii	"BusFault_Handler\015\012\000"
	.section	.text.BusFault_Handler,"ax",%progbits
	.align	1
	.global	BusFault_Handler
	.syntax unified
	.thumb
	.thumb_func
	.type	BusFault_Handler, %function
BusFault_Handler:
.LFB385:
	.loc 1 87 1
	.cfi_startproc
	@ Volatile: function does not return.
	@ args = 0, pretend = 0, frame = 0
	@ frame_needed = 0, uses_anonymous_args = 0
	push	{r3, lr}
	.cfi_def_cfa_offset 8
	.cfi_offset 3, -8
	.cfi_offset 14, -4
	.loc 1 88 5
	ldr	r0, .L13
	bl	BSP_USART1_Printf
.LVL3:
.L11:
	.loc 1 90 3 discriminator 1
	.loc 1 92 3 discriminator 1
	.loc 1 90 9 discriminator 1
	b	.L11
.L14:
	.align	2
.L13:
	.word	.LC2
	.cfi_endproc
.LFE385:
	.size	BusFault_Handler, .-BusFault_Handler
	.section	.rodata.UsageFault_Handler.str1.4,"aMS",%progbits,1
	.align	2
.LC3:
	.ascii	"UsageFault_Handler\015\012\000"
	.section	.text.UsageFault_Handler,"ax",%progbits
	.align	1
	.global	UsageFault_Handler
	.syntax unified
	.thumb
	.thumb_func
	.type	UsageFault_Handler, %function
UsageFault_Handler:
.LFB386:
	.loc 1 101 1
	.cfi_startproc
	@ Volatile: function does not return.
	@ args = 0, pretend = 0, frame = 0
	@ frame_needed = 0, uses_anonymous_args = 0
	push	{r3, lr}
	.cfi_def_cfa_offset 8
	.cfi_offset 3, -8
	.cfi_offset 14, -4
	.loc 1 102 5
	ldr	r0, .L18
	bl	BSP_USART1_Printf
.LVL4:
.L16:
	.loc 1 104 3 discriminator 1
	.loc 1 106 3 discriminator 1
	.loc 1 104 9 discriminator 1
	b	.L16
.L19:
	.align	2
.L18:
	.word	.LC3
	.cfi_endproc
.LFE386:
	.size	UsageFault_Handler, .-UsageFault_Handler
	.section	.rodata.DebugMon_Handler.str1.4,"aMS",%progbits,1
	.align	2
.LC4:
	.ascii	"DebugMon_Handler\015\012\000"
	.section	.text.DebugMon_Handler,"ax",%progbits
	.align	1
	.global	DebugMon_Handler
	.syntax unified
	.thumb
	.thumb_func
	.type	DebugMon_Handler, %function
DebugMon_Handler:
.LFB387:
	.loc 1 124 1
	.cfi_startproc
	@ args = 0, pretend = 0, frame = 0
	@ frame_needed = 0, uses_anonymous_args = 0
	push	{r3, lr}
	.cfi_def_cfa_offset 8
	.cfi_offset 3, -8
	.cfi_offset 14, -4
	.loc 1 125 5
	ldr	r0, .L22
	bl	BSP_USART1_Printf
.LVL5:
	.loc 1 126 1 is_stmt 0
	pop	{r3, pc}
.L23:
	.align	2
.L22:
	.word	.LC4
	.cfi_endproc
.LFE387:
	.size	DebugMon_Handler, .-DebugMon_Handler
	.section	.text.SysTick_Handler,"ax",%progbits
	.align	1
	.global	SysTick_Handler
	.syntax unified
	.thumb
	.thumb_func
	.type	SysTick_Handler, %function
SysTick_Handler:
.LFB388:
	.loc 1 143 1 is_stmt 1
	.cfi_startproc
	@ args = 0, pretend = 0, frame = 0
	@ frame_needed = 0, uses_anonymous_args = 0
	push	{r3, lr}
	.cfi_def_cfa_offset 8
	.cfi_offset 3, -8
	.cfi_offset 14, -4
	.loc 1 145 5
	bl	os_scheduler_on_systick
.LVL6:
	.loc 1 147 1 is_stmt 0
	pop	{r3, pc}
	.cfi_endproc
.LFE388:
	.size	SysTick_Handler, .-SysTick_Handler
	.text
.Letext0:
	.file 2 "D:/RTOS/Kernel/os_scheduler.h"
	.file 3 "D:/RTOS/Board/YD-STM32H7xxVx_ClassicV19/stm32h7xx_it.h"
	.file 4 "m:\\noinstall\\arm-gnu-toolchain-12.2.rel1-mingw-w64-i686-arm-none-eabi\\arm-none-eabi\\include\\stdio.h"