	.cpu cortex-m7
	.arch armv7e-m
	.fpu fpv5-d16
	.eabi_attribute 28, 1
	.eabi_attribute 20, 1
	.eabi_attribute 21, 1
	.eabi_attribute 23, 3
	.eabi_attribute 24, 1
	.eabi_attribute 25, 1
	.eabi_attribute 26, 1
	.eabi_attribute 30, 1
	.eabi_attribute 34, 1
	.eabi_attribute 18, 4
	.file	"bsp_timdelay.c"
	.text
.Ltext0:
	.cfi_sections	.debug_frame
	.file 1 "D:/RTOS/Board/YD-STM32H7xxVx_ClassicV19/BSP/bsp_timdelay.c"
	.section	.text.BSP_TIMDelay_Init,"ax",%progbits
	.align	1
	.global	BSP_TIMDelay_Init
	.syntax unified
	.thumb
	.thumb_func
	.type	BSP_TIMDelay_Init, %function
BSP_TIMDelay_Init:
.LFB335:
	.loc 1 19 1
	.cfi_startproc
	@ args = 0, pretend = 0, frame = 8
	@ frame_needed = 0, uses_anonymous_args = 0
	push	{lr}
	.cfi_def_cfa_offset 4
	.cfi_offset 14, -4
	sub	sp, sp, #12
	.cfi_def_cfa_offset 16
	.loc 1 20 5
	.loc 1 20 24 is_stmt 0
	ldr	r0, .L3
	ldr	r3, .L3+4
	str	r3, [r0]
	.loc 1 21 5 is_stmt 1
.LBB2:
	.loc 1 21 10
	.loc 1 21 36
	.loc 1 21 100 is_stmt 0
	ldr	r3, .L3+8
	ldr	r2, [r3, #232]
	.loc 1 21 112
	orr	r2, r2, #2
	str	r2, [r3, #232]
	.loc 1 21 135 is_stmt 1
	.loc 1 21 208 is_stmt 0
	ldr	r3, [r3, #232]
	.loc 1 21 220
	and	r3, r3, #2
	.loc 1 21 142
	str	r3, [sp, #4]
	.loc 1 21 242 is_stmt 1
	.loc 1 21 243 is_stmt 0
	ldr	r3, [sp, #4]
.LBE2:
	.loc 1 21 8 is_stmt 1
	.loc 1 23 5
	.loc 1 23 27 is_stmt 0
	movs	r3, #99
	str	r3, [r0, #12]
	.loc 1 24 5 is_stmt 1
	.loc 1 24 51 is_stmt 0
	ldr	r3, .L3+12
	ldr	r3, [r3]
	ldr	r2, .L3+16
	umull	r2, r3, r2, r3
	lsrs	r3, r3, #19
	.loc 1 24 60
	subs	r3, r3, #1
	.loc 1 24 30
	str	r3, [r0, #4]
	.loc 1 25 5 is_stmt 1
	.loc 1 25 34 is_stmt 0
	movs	r3, #0
	str	r3, [r0, #16]
	.loc 1 26 5 is_stmt 1
	.loc 1 26 32 is_stmt 0
	movs	r2, #16
	str	r2, [r0, #8]
	.loc 1 27 5 is_stmt 1
	.loc 1 27 38 is_stmt 0
	str	r3, [r0, #20]
	.loc 1 28 5 is_stmt 1
	.loc 1 28 38 is_stmt 0
	str	r3, [r0, #24]
	.loc 1 29 5 is_stmt 1
	bl	HAL_TIM_Base_Init
.LVL0:
	.loc 1 30 1 is_stmt 0
	add	sp, sp, #12
	.cfi_def_cfa_offset 4
	@ sp needed
	ldr	pc, [sp], #4
.L4:
	.align	2
.L3:
	.word	TimHandle
	.word	1073742848
	.word	1476543488
	.word	SystemCoreClock
	.word	1125899907
	.cfi_endproc
.LFE335:
	.size	BSP_TIMDelay_Init, .-BSP_TIMDelay_Init
	.section	.text.BSP_TIMDelay_DeInit,"ax",%progbits
	.align	1
	.global	BSP_TIMDelay_DeInit
	.syntax unified
	.thumb
	.thumb_func
	.type	BSP_TIMDelay_DeInit, %function
BSP_TIMDelay_DeInit:
.LFB336:
	.loc 1 33 1 is_stmt 1
	.cfi_startproc
	@ args = 0, pretend = 0, frame = 0
	@ frame_needed = 0, uses_anonymous_args = 0
	push	{r4, lr}
	.cfi_def_cfa_offset 8
	.cfi_offset 4, -8
	.cfi_offset 14, -4
	.loc 1 37 5
	ldr	r4, .L7
	mov	r0, r4
	bl	HAL_TIM_Base_Stop_IT
.LVL1:
	.loc 1 38 5
	movs	r0, #29
	bl	HAL_NVIC_DisableIRQ
.LVL2:
	.loc 1 39 5
	mov	r0, r4
	bl	HAL_TIM_Base_DeInit
.LVL3:
	.loc 1 40 5
	.loc 1 40 68 is_stmt 0
	ldr	r2, .L7+4
	ldr	r3, [r2, #232]
	.loc 1 40 80
	bic	r3, r3, #2
	str	r3, [r2, #232]
	.loc 1 41 1
	pop	{r4, pc}
.L8:
	.align	2
.L7:
	.word	TimHandle
	.word	1476543488
	.cfi_endproc
.LFE336:
	.size	BSP_TIMDelay_DeInit, .-BSP_TIMDelay_DeInit
	.section	.text.BSP_TIMDelay_Us,"ax",%progbits
	.align	1
	.global	BSP_TIMDelay_Us
	.syntax unified
	.thumb
	.thumb_func
	.type	BSP_TIMDelay_Us, %function
BSP_TIMDelay_Us:
.LFB337:
	.loc 1 44 1 is_stmt 1
	.cfi_startproc
	@ args = 0, pretend = 0, frame = 8
	@ frame_needed = 0, uses_anonymous_args = 0
	@ link register save eliminated.
.LVL4:
	sub	sp, sp, #8
	.cfi_def_cfa_offset 8
	str	r0, [sp, #4]
	.loc 1 45 5
	.loc 1 45 60 is_stmt 0
	ldr	r2, [sp, #4]
	subs	r2, r2, #1
	.loc 1 45 56
	ldr	r3, .L12
	str	r2, [r3, #36]
	.loc 1 46 5 is_stmt 1
	.loc 1 46 50 is_stmt 0
	ldr	r2, [r3]
	.loc 1 46 56
	orr	r2, r2, #1
	str	r2, [r3]
	.loc 1 47 5 is_stmt 1
.L10:
	.loc 1 47 80 discriminator 1
	.loc 1 47 57 is_stmt 0 discriminator 1
	ldr	r3, .L12
	ldr	r3, [r3, #16]
	.loc 1 47 80 discriminator 1
	tst	r3, #1
	beq	.L10
	.loc 1 48 5 is_stmt 1
	.loc 1 48 55 is_stmt 0
	ldr	r3, .L12
	movw	r2, #65534
	str	r2, [r3, #16]
	.loc 1 49 5 is_stmt 1
	.loc 1 49 50 is_stmt 0
	ldr	r2, [r3]
	.loc 1 49 56
	bic	r2, r2, #1
	str	r2, [r3]
	.loc 1 50 1
	add	sp, sp, #8
	.cfi_def_cfa_offset 0
	@ sp needed
	bx	lr
.L13:
	.align	2
.L12:
	.word	1073742848
	.cfi_endproc
.LFE337:
	.size	BSP_TIMDelay_Us, .-BSP_TIMDelay_Us
	.section	.text.BSP_TIMDelay_Ms,"ax",%progbits
	.align	1
	.global	BSP_TIMDelay_Ms
	.syntax unified
	.thumb
	.thumb_func
	.type	BSP_TIMDelay_Ms, %function
BSP_TIMDelay_Ms:
.LFB338:
	.loc 1 53 1 is_stmt 1
	.cfi_startproc
	@ args = 0, pretend = 0, frame = 16
	@ frame_needed = 0, uses_anonymous_args = 0
.LVL5:
	push	{lr}
	.cfi_def_cfa_offset 4
	.cfi_offset 14, -4
	sub	sp, sp, #20
	.cfi_def_cfa_offset 24
	str	r0, [sp, #4]
	.loc 1 54 5
	.loc 1 54 23 is_stmt 0
	ldr	r3, [sp, #4]
	str	r3, [sp, #12]
	.loc 1 55 5 is_stmt 1
	.loc 1 55 10 is_stmt 0
	b	.L15
.LVL6:
.L16:
	.loc 1 57 9 is_stmt 1
	mov	r0, #1000
	bl	BSP_TIMDelay_Us
.LVL7:
.L15:
	.loc 1 55 11
	.loc 1 55 13 is_stmt 0
	ldr	r3, [sp, #12]
	subs	r2, r3, #1
	str	r2, [sp, #12]
	.loc 1 55 11
	cmp	r3, #0
	bne	.L16
	.loc 1 59 1
	add	sp, sp, #20
	.cfi_def_cfa_offset 4
	@ sp needed
	ldr	pc, [sp], #4
	.cfi_endproc
.LFE338:
	.size	BSP_TIMDelay_Ms, .-BSP_TIMDelay_Ms
	.section	.bss.TimHandle,"aw",%nobits
	.align	2
	.type	TimHandle, %object
	.size	TimHandle, 76
TimHandle:
	.space	76
	.text
.Letext0:
	.file 2 "D:/RTOS/Board/YD-STM32H7xxVx_ClassicV19/cmake-build-debug/_deps/stm32h7xx_cmsis_device-src/Include/stm32h743xx.h"
	.file 3 "m:\\noinstall\\arm-gnu-toolchain-12.2.rel1-mingw-w64-i686-arm-none-eabi\\arm-none-eabi\\include\\machine\\_default_types.h"
	.file 4 "m:\\noinstall\\arm-gnu-toolchain-12.2.rel1-mingw-w64-i686-arm-none-eabi\\arm-none-eabi\\include\\sys\\_stdint.h"
	.file 5 "D:/RTOS/Board/YD-STM32H7xxVx_ClassicV19/cmake-build-debug/_deps/stm32h7xx_cmsis_device-src/Include/stm32h7xx.h"
	.file 6 "D:/RTOS/Board/YD-STM32H7xxVx_ClassicV19/cmake-build-debug/_deps/stm32h7xx_hal_driver-src/Inc/stm32h7xx_hal_def.h"
	.file 7 "D:/RTOS/Board/YD-STM32H7xxVx_ClassicV19/cmake-build-debug/_deps/stm32h7xx_hal_driver-src/Inc/stm32h7xx_hal_dma.h"
	.file 8 "D:/RTOS/Board/YD-STM32H7xxVx_ClassicV19/cmake-build-debug/_deps/stm32h7xx_hal_driver-src/Inc/stm32h7xx_hal_tim.h"
	.file 9 "D:/RTOS/Board/YD-STM32H7xxVx_ClassicV19/cmake-build-debug/_deps/stm32h7xx_cmsis_device-src/Include/system_stm32h7xx.h"
	.file 10 "D:/RTOS/Board/YD-STM32H7xxVx_ClassicV19/cmake-build-debug/_deps/stm32h7xx_hal_driver-src/Inc/stm32h7xx_hal_cortex.h"