	.cpu cortex-m7
	.arch armv7e-m
	.fpu fpv5-d16
	.eabi_attribute 28, 1
	.eabi_attribute 20, 1
	.eabi_attribute 21, 1
	.eabi_attribute 23, 3
	.eabi_attribute 24, 1
	.eabi_attribute 25, 1
	.eabi_attribute 26, 1
	.eabi_attribute 30, 1
	.eabi_attribute 34, 1
	.eabi_attribute 18, 4
	.file	"stm32h7xx_ll_utils.c"
	.text
.Ltext0:
	.cfi_sections	.debug_frame
	.file 1 "D:/RTOS/Board/YD-STM32H7xxVx_ClassicV19/cmake-build-debug/_deps/stm32h7xx_hal_driver-src/Src/stm32h7xx_ll_utils.c"
	.section	.text.UTILS_IsPLLsReady,"ax",%progbits
	.align	1
	.syntax unified
	.thumb
	.thumb_func
	.type	UTILS_IsPLLsReady, %function
UTILS_IsPLLsReady:
.LFB867:
	.loc 1 942 1
	.cfi_startproc
	@ args = 0, pretend = 0, frame = 0
	@ frame_needed = 0, uses_anonymous_args = 0
	@ link register save eliminated.
	.loc 1 943 3
.LVL0:
	.loc 1 946 3
.LBB100:
.LBB101:
	.file 2 "D:/RTOS/Board/YD-STM32H7xxVx_ClassicV19/cmake-build-debug/_deps/stm32h7xx_hal_driver-src/Inc/stm32h7xx_ll_rcc.h"
	.loc 2 4345 3
	.loc 2 4345 76 is_stmt 0
	ldr	r3, .L8
	ldr	r3, [r3]
	.loc 2 4345 133
	tst	r3, #33554432
	beq	.L5
.LBE101:
.LBE100:
	.loc 1 949 12
	movs	r0, #1
.L2:
.LVL1:
	.loc 1 953 3 is_stmt 1
.LBB102:
.LBB103:
	.loc 2 4659 3
	.loc 2 4659 76 is_stmt 0
	ldr	r3, .L8
	ldr	r3, [r3]
	.loc 2 4659 133
	tst	r3, #134217728
	beq	.L3
.LBE103:
.LBE102:
	.loc 1 956 12
	movs	r0, #1
.LVL2:
.L3:
	.loc 1 960 3 is_stmt 1
.LBB104:
.LBB105:
	.loc 2 4971 3
	.loc 2 4971 76 is_stmt 0
	ldr	r3, .L8
	ldr	r3, [r3]
	.loc 2 4971 133
	tst	r3, #536870912
	beq	.L4
.LBE105:
.LBE104:
	.loc 1 963 12
	movs	r0, #1
.LVL3:
.L4:
	.loc 1 966 3 is_stmt 1
	.loc 1 967 1 is_stmt 0
	bx	lr
.LVL4:
.L5:
	.loc 1 943 15
	movs	r0, #0
	b	.L2
.L9:
	.align	2
.L8:
	.word	1476543488
	.cfi_endproc
.LFE867:
	.size	UTILS_IsPLLsReady, .-UTILS_IsPLLsReady
	.section	.text.UTILS_CalcPLLClockFreq,"ax",%progbits
	.align	1
	.syntax unified
	.thumb
	.thumb_func
	.type	UTILS_CalcPLLClockFreq, %function
UTILS_CalcPLLClockFreq:
.LFB868:
	.loc 1 980 1 is_stmt 1
	.cfi_startproc
	@ args = 4, pretend = 0, frame = 0
	@ frame_needed = 0, uses_anonymous_args = 0
	@ link register save eliminated.
.LVL5:
	vmov	s11, r0	@ int
	vmov	s12, r1	@ int
	vmov	s15, r2	@ int
	vmov	s14, r3	@ int
	.loc 1 981 3
	.loc 1 983 3
	.loc 1 983 11 is_stmt 0
	vcvt.f32.u32	s11, s11
	.loc 1 983 35
	vcvt.f32.u32	s12, s12
	.loc 1 983 33
	vdiv.f32	s13, s11, s12
	.loc 1 983 50
	vcvt.f32.u32	s15, s15
	.loc 1 983 64
	vcvt.f32.u32	s14, s14
	.loc 1 983 79
	vldr.32	s12, .L11
	vmul.f32	s14, s14, s12
	.loc 1 983 61
	vadd.f32	s15, s15, s14
	.loc 1 983 8
	vmul.f32	s14, s13, s15
.LVL6:
	.loc 1 985 3 is_stmt 1
	.loc 1 985 17 is_stmt 0
	vldr.32	s15, [sp]	@ int
	vcvt.f32.u32	s15, s15
	.loc 1 985 8
	vdiv.f32	s13, s14, s15
.LVL7:
	.loc 1 987 3 is_stmt 1
	.loc 1 988 1 is_stmt 0
	vcvt.u32.f32	s15, s13
	vmov	r0, s15	@ int
.LVL8:
	bx	lr
.L12:
	.align	2
.L11:
	.word	956301312
	.cfi_endproc
.LFE868:
	.size	UTILS_CalcPLLClockFreq, .-UTILS_CalcPLLClockFreq
	.section	.text.UTILS_GetPLLOutputFrequency,"ax",%progbits
	.align	1
	.syntax unified
	.thumb
	.thumb_func
	.type	UTILS_GetPLLOutputFrequency, %function
UTILS_GetPLLOutputFrequency:
.LFB866:
	.loc 1 921 1 is_stmt 1
	.cfi_startproc
	@ args = 0, pretend = 0, frame = 0
	@ frame_needed = 0, uses_anonymous_args = 0
.LVL9:
	push	{lr}
	.cfi_def_cfa_offset 4
	.cfi_offset 14, -4
	sub	sp, sp, #12
	.cfi_def_cfa_offset 16
	.loc 1 922 3
	.loc 1 925 3
	.loc 1 926 3
	.loc 1 927 3
	.loc 1 928 3
	.loc 1 930 3
	.loc 1 930 13 is_stmt 0
	ldr	r3, [r1, #8]
	str	r3, [sp]
	ldr	r3, [r1, #12]
	ldr	r2, [r1, #4]
	ldr	r1, [r1]
.LVL10:
	bl	UTILS_CalcPLLClockFreq
.LVL11:
	.loc 1 932 3 is_stmt 1
	.loc 1 933 1 is_stmt 0
	add	sp, sp, #12
	.cfi_def_cfa_offset 4
	@ sp needed
	ldr	pc, [sp], #4
	.cfi_endproc
.LFE866:
	.size	UTILS_GetPLLOutputFrequency, .-UTILS_GetPLLOutputFrequency
	.section	.text.LL_Init1msTick,"ax",%progbits
	.align	1
	.global	LL_Init1msTick
	.syntax unified
	.thumb
	.thumb_func
	.type	LL_Init1msTick, %function
LL_Init1msTick:
.LFB860:
	.loc 1 290 1 is_stmt 1
	.cfi_startproc
	@ args = 0, pretend = 0, frame = 0
	@ frame_needed = 0, uses_anonymous_args = 0
	@ link register save eliminated.
.LVL12:
	.loc 1 292 3
.LBB106:
.LBB107:
	.file 3 "D:/RTOS/Board/YD-STM32H7xxVx_ClassicV19/cmake-build-debug/_deps/stm32h7xx_hal_driver-src/Inc/stm32h7xx_ll_utils.h"
	.loc 3 354 3
	.loc 3 354 85 is_stmt 0
	ldr	r3, .L16
	umull	r2, r3, r3, r0
	lsrs	r3, r3, #6
	.loc 3 354 59
	subs	r3, r3, #1
	.loc 3 354 57
	mov	r2, #-536813568
	str	r3, [r2, #20]
	.loc 3 355 3 is_stmt 1
	.loc 3 355 56 is_stmt 0
	movs	r3, #0
	str	r3, [r2, #24]
	.loc 3 356 3 is_stmt 1
	.loc 3 356 57 is_stmt 0
	movs	r3, #5
	str	r3, [r2, #16]
.LVL13:
.LBE107:
.LBE106:
	.loc 1 293 1
	bx	lr
.L17:
	.align	2
.L16:
	.word	274877907
	.cfi_endproc
.LFE860:
	.size	LL_Init1msTick, .-LL_Init1msTick
	.section	.text.LL_mDelay,"ax",%progbits
	.align	1
	.global	LL_mDelay
	.syntax unified
	.thumb
	.thumb_func
	.type	LL_mDelay, %function
LL_mDelay:
.LFB861:
	.loc 1 307 1 is_stmt 1
	.cfi_startproc
	@ args = 0, pretend = 0, frame = 8
	@ frame_needed = 0, uses_anonymous_args = 0
	@ link register save eliminated.
.LVL14:
	sub	sp, sp, #8
	.cfi_def_cfa_offset 8
	.loc 1 308 3
.LVL15:
	.loc 1 309 3
	.loc 1 309 74 is_stmt 0
	mov	r3, #-536813568
	ldr	r3, [r3, #16]
	.loc 1 309 21
	str	r3, [sp, #4]
	.loc 1 311 3 is_stmt 1
	.loc 1 311 4 is_stmt 0
	ldr	r3, [sp, #4]
	.loc 1 314 3 is_stmt 1
	.loc 1 314 5 is_stmt 0
	cmp	r0, #-1
	beq	.L21
	.loc 1 316 5 is_stmt 1
	.loc 1 316 10 is_stmt 0
	adds	r0, r0, #1
.LVL16:
.L21:
	.loc 1 319 16 is_stmt 1
	cbz	r0, .L24
	.loc 1 321 5
	.loc 1 321 56 is_stmt 0
	mov	r3, #-536813568
	ldr	r3, [r3, #16]
	.loc 1 321 7
	tst	r3, #65536
	beq	.L21
	.loc 1 323 7 is_stmt 1
	.loc 1 323 12 is_stmt 0
	subs	r0, r0, #1
.LVL17:
	b	.L21
.L24:
	.loc 1 326 1
	add	sp, sp, #8
	.cfi_def_cfa_offset 0
	@ sp needed
	bx	lr
	.cfi_endproc
.LFE861:
	.size	LL_mDelay, .-LL_mDelay
	.section	.text.LL_SetSystemCoreClock,"ax",%progbits
	.align	1
	.global	LL_SetSystemCoreClock
	.syntax unified
	.thumb
	.thumb_func
	.type	LL_SetSystemCoreClock, %function
LL_SetSystemCoreClock:
.LFB862:
	.loc 1 475 1 is_stmt 1
	.cfi_startproc
	@ args = 0, pretend = 0, frame = 0
	@ frame_needed = 0, uses_anonymous_args = 0
	@ link register save eliminated.
.LVL18:
	.loc 1 477 3
	.loc 1 477 19 is_stmt 0
	ldr	r3, .L26
	str	r0, [r3]
	.loc 1 478 1
	bx	lr
.L27:
	.align	2
.L26:
	.word	SystemCoreClock
	.cfi_endproc
.LFE862:
	.size	LL_SetSystemCoreClock, .-LL_SetSystemCoreClock
	.section	.text.LL_SetFlashLatency,"ax",%progbits
	.align	1
	.global	LL_SetFlashLatency
	.syntax unified
	.thumb
	.thumb_func
	.type	LL_SetFlashLatency, %function
LL_SetFlashLatency:
.LFB865:
	.loc 1 692 1 is_stmt 1
	.cfi_startproc
	@ args = 0, pretend = 0, frame = 0
	@ frame_needed = 0, uses_anonymous_args = 0
	@ link register save eliminated.
.LVL19:
	.loc 1 693 3
	.loc 1 694 3
	.loc 1 695 3
	.loc 1 696 3
	.loc 1 701 3
	.loc 1 701 6 is_stmt 0
	cmp	r0, #0
	beq	.L35
	.loc 1 778 5 is_stmt 1
.LBB108:
.LBB109:
	.file 4 "D:/RTOS/Board/YD-STM32H7xxVx_ClassicV19/cmake-build-debug/_deps/stm32h7xx_hal_driver-src/Inc/stm32h7xx_ll_pwr.h"
	.loc 4 1598 3
	.loc 4 1598 85 is_stmt 0
	ldr	r3, .L53
	ldr	r3, [r3, #24]
	.loc 4 1598 10
	and	r3, r3, #49152
.LBE109:
.LBE108:
	.loc 1 778 7
	cmp	r3, #49152
	beq	.L50
	.loc 1 800 10 is_stmt 1
.LBB110:
.LBB111:
	.loc 4 1598 3
	.loc 4 1598 85 is_stmt 0
	ldr	r3, .L53
	ldr	r3, [r3, #24]
	.loc 4 1598 10
	and	r3, r3, #49152
.LBE111:
.LBE110:
	.loc 1 800 12
	cmp	r3, #32768
	beq	.L51
	.loc 1 843 7 is_stmt 1
	.loc 1 843 40 is_stmt 0
	ldr	r3, .L53+4
	add	r3, r3, r0
	.loc 1 843 9
	ldr	r1, .L53+8
	cmp	r3, r1
	bls	.L43
	.loc 1 848 12 is_stmt 1
	.loc 1 848 45 is_stmt 0
	ldr	r3, .L53+12
	add	r3, r3, r0
	.loc 1 848 14
	cmp	r3, r1
	bls	.L44
	.loc 1 856 12 is_stmt 1
	.loc 1 856 44 is_stmt 0
	ldr	r3, .L53+16
	add	r3, r3, r0
	.loc 1 856 14
	cmp	r3, r1
	bls	.L45
	.loc 1 864 12 is_stmt 1
	.loc 1 864 44 is_stmt 0
	ldr	r3, .L53+20
	add	r3, r3, r0
	.loc 1 864 14
	cmp	r3, r1
	bls	.L46
	.loc 1 869 12 is_stmt 1
	.loc 1 869 14 is_stmt 0
	ldr	r3, .L53+24
	cmp	r0, r3
	bhi	.L47
	.loc 1 696 12
	movs	r0, #0
.LVL20:
	b	.L31
.LVL21:
.L50:
	.loc 1 780 7 is_stmt 1
	.loc 1 780 40 is_stmt 0
	ldr	r3, .L53+28
	add	r3, r3, r0
	.loc 1 780 9
	ldr	r1, .L53+32
	cmp	r3, r1
	bls	.L36
	.loc 1 786 12 is_stmt 1
	.loc 1 786 44 is_stmt 0
	ldr	r3, .L53+36
	add	r3, r3, r0
	.loc 1 786 14
	ldr	r1, .L53+40
	cmp	r3, r1
	bls	.L37
	.loc 1 791 12 is_stmt 1
	.loc 1 791 14 is_stmt 0
	ldr	r3, .L53+44
	cmp	r0, r3
	bls	.L38
	.loc 1 797 16
	movs	r0, #1
.LVL22:
	bx	lr
.LVL23:
.L51:
	.loc 1 811 7 is_stmt 1
	.loc 1 811 40 is_stmt 0
	ldr	r3, .L53+48
	add	r3, r3, r0
	.loc 1 811 9
	ldr	r1, .L53+52
	cmp	r3, r1
	bls	.L39
	.loc 1 817 12 is_stmt 1
	.loc 1 817 45 is_stmt 0
	ldr	r3, .L53+56
	add	r3, r3, r0
	.loc 1 817 14
	cmp	r3, r1
	bls	.L40
	.loc 1 825 12 is_stmt 1
	.loc 1 825 44 is_stmt 0
	ldr	r3, .L53+60
	add	r3, r3, r0
	.loc 1 825 14
	cmp	r3, r1
	bls	.L41
	.loc 1 830 12 is_stmt 1
	.loc 1 830 14 is_stmt 0
	ldr	r3, .L53+64
	cmp	r0, r3
	bls	.L42
	.loc 1 836 16
	movs	r0, #1
.LVL24:
	bx	lr
.LVL25:
.L36:
	.loc 1 784 17
	movs	r0, #2
.LVL26:
	b	.L31
.LVL27:
.L37:
	.loc 1 789 17
	movs	r0, #1
.LVL28:
	b	.L31
.LVL29:
.L38:
	.loc 1 696 12
	movs	r0, #0
.LVL30:
	b	.L31
.LVL31:
.L39:
	.loc 1 815 17
	movs	r0, #3
.LVL32:
	b	.L31
.LVL33:
.L40:
	.loc 1 823 17
	movs	r0, #2
.LVL34:
	b	.L31
.LVL35:
.L41:
	.loc 1 828 17
	movs	r0, #1
.LVL36:
	b	.L31
.LVL37:
.L42:
	.loc 1 696 12
	movs	r0, #0
.LVL38:
	b	.L31
.LVL39:
.L43:
	.loc 1 846 17
	movs	r0, #4
.LVL40:
.L31:
	.loc 1 881 7 is_stmt 1
.LBB112:
.LBB113:
	.file 5 "D:/RTOS/Board/YD-STM32H7xxVx_ClassicV19/cmake-build-debug/_deps/stm32h7xx_hal_driver-src/Inc/stm32h7xx_ll_system.h"
	.loc 5 2335 3
	.loc 5 2335 150 is_stmt 0
	ldr	r2, .L53+68
	ldr	r3, [r2]
	.loc 5 2335 159
	bic	r3, r3, #15
	.loc 5 2335 183
	orrs	r3, r3, r0
	.loc 5 2335 78
	str	r3, [r2]
.LVL41:
.LBE113:
.LBE112:
	.loc 1 885 7 is_stmt 1
	.loc 1 885 15 is_stmt 0
	movs	r2, #2
.LVL42:
.L33:
	.loc 1 886 7 is_stmt 1 discriminator 1
	.loc 1 889 9 discriminator 1
.LBB114:
.LBB115:
	.loc 5 2353 3 discriminator 1
	.loc 5 2353 87 is_stmt 0 discriminator 1
	ldr	r3, .L53+68
	ldr	r3, [r3]
	.loc 5 2353 10 discriminator 1
	and	r3, r3, #15
.LVL43:
.LBE115:
.LBE114:
	.loc 1 890 9 is_stmt 1 discriminator 1
	.loc 1 891 40 discriminator 1
	.loc 1 891 52 is_stmt 0 discriminator 1
	subs	r2, r2, #1
.LVL44:
	ite	ne
	movne	r1, #1
	moveq	r1, #0
	.loc 1 891 40 discriminator 1
	cmp	r0, r3
	beq	.L49
	cmp	r1, #0
	bne	.L33
.L49:
	.loc 1 893 7 is_stmt 1
	.loc 1 893 9 is_stmt 0
	cmp	r0, r3
	beq	.L52
	.loc 1 895 16
	movs	r0, #1
.LVL45:
	.loc 1 900 3 is_stmt 1
	.loc 1 901 1 is_stmt 0
	bx	lr
.LVL46:
.L44:
	.loc 1 854 17
	movs	r0, #3
.LVL47:
	b	.L31
.LVL48:
.L45:
	.loc 1 862 17
	movs	r0, #2
.LVL49:
	b	.L31
.LVL50:
.L46:
	.loc 1 867 17
	movs	r0, #1
.LVL51:
	b	.L31
.LVL52:
.L52:
	.loc 1 893 9
	movs	r0, #0
	bx	lr
.LVL53:
.L35:
	.loc 1 703 12
	movs	r0, #1
.LVL54:
	bx	lr
.LVL55:
.L47:
	.loc 1 875 16
	movs	r0, #1
.LVL56:
	bx	lr
.L54:
	.align	2
.L53:
	.word	1476544512
	.word	-180000001
	.word	44999999
	.word	-135000001
	.word	-90000001
	.word	-45000001
	.word	45000000
	.word	-140000001
	.word	99999999
	.word	-70000001
	.word	69999999
	.word	70000000
	.word	-165000001
	.word	54999999
	.word	-110000001
	.word	-55000001
	.word	55000000
	.word	1375739904
	.cfi_endproc
.LFE865:
	.size	LL_SetFlashLatency, .-LL_SetFlashLatency
	.section	.text.UTILS_EnablePLLAndSwitchSystem,"ax",%progbits
	.align	1
	.syntax unified
	.thumb
	.thumb_func
	.type	UTILS_EnablePLLAndSwitchSystem, %function
UTILS_EnablePLLAndSwitchSystem:
.LFB869:
	.loc 1 1000 1 is_stmt 1
	.cfi_startproc
	@ args = 0, pretend = 0, frame = 0
	@ frame_needed = 0, uses_anonymous_args = 0
.LVL57:
	push	{r3, r4, r5, r6, r7, lr}
	.cfi_def_cfa_offset 24
	.cfi_offset 3, -24
	.cfi_offset 4, -20
	.cfi_offset 5, -16
	.cfi_offset 6, -12
	.cfi_offset 7, -8
	.cfi_offset 14, -4
	mov	r6, r0
	mov	r4, r1
	.loc 1 1001 3
.LVL58:
	.loc 1 1002 3
	.loc 1 1004 3
	.loc 1 1005 3
	.loc 1 1006 3
	.loc 1 1007 3
	.loc 1 1008 3
	.loc 1 1009 3
	.loc 1 1012 3
	.loc 1 1012 88 is_stmt 0
	ldr	r3, [r1, #4]
	.loc 1 1012 124
	and	r3, r3, #15
	.loc 1 1012 66
	ldr	r2, .L67
	ldrb	r5, [r2, r3]	@ zero_extendqisi2
	.loc 1 1012 134
	and	r5, r5, #31
	.loc 1 1012 22
	lsr	r5, r0, r5
.LVL59:
	.loc 1 1015 3 is_stmt 1
	.loc 1 1015 21 is_stmt 0
	ldr	r3, .L67+4
	ldr	r3, [r3]
	.loc 1 1015 6
	cmp	r3, r5
	bcc	.L64
	.loc 1 1001 15
	movs	r7, #0
.LVL60:
.L56:
	.loc 1 1025 5 is_stmt 1
.LBB116:
.LBB117:
	.loc 2 4324 3
	.loc 2 4324 67 is_stmt 0
	ldr	r2, .L67+8
	ldr	r3, [r2]
	.loc 2 4324 73
	orr	r3, r3, #16777216
	str	r3, [r2]
	.loc 2 4325 1
	b	.L59
.LVL61:
.L64:
.LBE117:
.LBE116:
	.loc 1 1018 5 is_stmt 1
	.loc 1 1018 14 is_stmt 0
	mov	r0, r5
.LVL62:
	bl	LL_SetFlashLatency
.LVL63:
	.loc 1 1022 3 is_stmt 1
	.loc 1 1022 5 is_stmt 0
	mov	r7, r0
	cmp	r0, #0
	bne	.L57
	b	.L56
.LVL64:
.L58:
	.loc 1 1026 34
	cmp	r3, #1
	beq	.L65
.L59:
	.loc 1 1029 5 is_stmt 1 discriminator 1
	.loc 1 1026 34 discriminator 1
.LBB118:
.LBB119:
	.loc 2 4345 3 discriminator 1
	.loc 2 4345 76 is_stmt 0 discriminator 1
	ldr	r3, .L67+8
	ldr	r3, [r3]
	.loc 2 4345 133 discriminator 1
	ands	r3, r3, #33554432
	beq	.L58
	.loc 2 4345 133
	movs	r3, #1
	b	.L58
.L65:
.LBE119:
.LBE118:
	.loc 1 1032 5 is_stmt 1
.LVL65:
.LBB120:
.LBB121:
	.loc 2 2536 3
	.loc 2 2536 149 is_stmt 0
	ldr	r3, .L67+8
	ldr	r2, [r3, #28]
	.loc 2 2536 185
	orr	r2, r2, #112
	.loc 2 2536 79
	str	r2, [r3, #28]
.LVL66:
.LBE121:
.LBE120:
	.loc 1 1033 5 is_stmt 1
.LBB122:
.LBB123:
	.loc 2 2556 3
	.loc 2 2556 149 is_stmt 0
	ldr	r2, [r3, #28]
	.loc 2 2556 185
	orr	r2, r2, #1792
	.loc 2 2556 79
	str	r2, [r3, #28]
.LVL67:
.LBE123:
.LBE122:
	.loc 1 1034 5 is_stmt 1
.LBB124:
.LBB125:
	.loc 2 2576 3
	.loc 2 2576 149 is_stmt 0
	ldr	r2, [r3, #24]
	.loc 2 2576 185
	orr	r2, r2, #112
	.loc 2 2576 79
	str	r2, [r3, #24]
.LVL68:
.LBE125:
.LBE124:
	.loc 1 1035 5 is_stmt 1
.LBB126:
.LBB127:
	.loc 2 2596 3
	.loc 2 2596 149 is_stmt 0
	ldr	r2, [r3, #32]
	.loc 2 2596 185
	orr	r2, r2, #112
	.loc 2 2596 79
	str	r2, [r3, #32]
.LVL69:
.LBE127:
.LBE126:
	.loc 1 1038 5 is_stmt 1
	ldr	r2, [r4]
.LVL70:
.LBB128:
.LBB129:
	.loc 2 2492 3
	.loc 2 2492 149 is_stmt 0
	ldr	r1, [r3, #24]
	.loc 2 2492 161
	bic	r1, r1, #3840
	.loc 2 2492 185
	orrs	r2, r2, r1
.LVL71:
	.loc 2 2492 79
	str	r2, [r3, #24]
.LVL72:
.LBE129:
.LBE128:
	.loc 1 1041 5 is_stmt 1
	ldr	r2, [r4, #4]
.LVL73:
.LBB130:
.LBB131:
	.loc 2 2516 3
	.loc 2 2516 149 is_stmt 0
	ldr	r1, [r3, #24]
	.loc 2 2516 161
	bic	r1, r1, #15
	.loc 2 2516 185
	orrs	r2, r2, r1
.LVL74:
	.loc 2 2516 79
	str	r2, [r3, #24]
.LVL75:
.LBE131:
.LBE130:
	.loc 1 1044 5 is_stmt 1
.LBB132:
.LBB133:
	.loc 2 2407 3
	.loc 2 2407 147 is_stmt 0
	ldr	r2, [r3, #16]
	.loc 2 2407 157
	bic	r2, r2, #7
	.loc 2 2407 181
	orr	r2, r2, #3
	.loc 2 2407 77
	str	r2, [r3, #16]
.LVL76:
.L60:
.LBE133:
.LBE132:
	.loc 1 1048 5 is_stmt 1 discriminator 1
	.loc 1 1045 37 discriminator 1
.LBB134:
.LBB135:
	.loc 2 2421 3 discriminator 1
	.loc 2 2421 85 is_stmt 0 discriminator 1
	ldr	r3, .L67+8
	ldr	r3, [r3, #16]
	.loc 2 2421 10 discriminator 1
	and	r3, r3, #56
.LBE135:
.LBE134:
	.loc 1 1045 37 discriminator 1
	cmp	r3, #24
	bne	.L60
	.loc 1 1051 5 is_stmt 1
	ldr	r2, [r4, #8]
.LVL77:
.LBB136:
.LBB137:
	.loc 2 2536 3
	.loc 2 2536 149 is_stmt 0
	ldr	r3, .L67+8
	ldr	r1, [r3, #28]
	.loc 2 2536 161
	bic	r1, r1, #112
	.loc 2 2536 185
	orrs	r2, r2, r1
.LVL78:
	.loc 2 2536 79
	str	r2, [r3, #28]
.LVL79:
.LBE137:
.LBE136:
	.loc 1 1052 5 is_stmt 1
	ldr	r2, [r4, #12]
.LVL80:
.LBB138:
.LBB139:
	.loc 2 2556 3
	.loc 2 2556 149 is_stmt 0
	ldr	r1, [r3, #28]
	.loc 2 2556 161
	bic	r1, r1, #1792
	.loc 2 2556 185
	orrs	r2, r2, r1
.LVL81:
	.loc 2 2556 79
	str	r2, [r3, #28]
.LVL82:
.LBE139:
.LBE138:
	.loc 1 1053 5 is_stmt 1
	ldr	r2, [r4, #16]
.LVL83:
.LBB140:
.LBB141:
	.loc 2 2576 3
	.loc 2 2576 149 is_stmt 0
	ldr	r1, [r3, #24]
	.loc 2 2576 161
	bic	r1, r1, #112
	.loc 2 2576 185
	orrs	r2, r2, r1
.LVL84:
	.loc 2 2576 79
	str	r2, [r3, #24]
.LVL85:
.LBE141:
.LBE140:
	.loc 1 1054 5 is_stmt 1
	ldr	r2, [r4, #20]
.LVL86:
.LBB142:
.LBB143:
	.loc 2 2596 3
	.loc 2 2596 149 is_stmt 0
	ldr	r1, [r3, #32]
	.loc 2 2596 161
	bic	r1, r1, #112
	.loc 2 2596 185
	orrs	r2, r2, r1
.LVL87:
	.loc 2 2596 79
	str	r2, [r3, #32]
.LVL88:
.LBE143:
.LBE142:
	.loc 1 1057 3 is_stmt 1
	.loc 1 1057 21 is_stmt 0
	ldr	r3, .L67+4
	ldr	r3, [r3]
	.loc 1 1057 6
	cmp	r3, r5
	bhi	.L66
.L61:
.LVL89:
	.loc 1 1065 7 is_stmt 1
	.loc 1 1065 126 is_stmt 0
	ldr	r3, .L67+8
	ldr	r3, [r3, #24]
	.loc 1 1065 153
	and	r3, r3, #15
	.loc 1 1065 62
	ldr	r2, .L67+12
	ldrb	r3, [r2, r3]	@ zero_extendqisi2
	.loc 1 1065 163
	and	r3, r3, #31
	.loc 1 1065 41
	lsr	r3, r6, r3
	.loc 1 1065 21
	ldr	r2, .L67+4
	str	r3, [r2]
	.loc 1 1074 7 is_stmt 1
	mov	r0, r6
	bl	LL_SetSystemCoreClock
.LVL90:
.L57:
	.loc 1 1080 3
	.loc 1 1081 1 is_stmt 0
	mov	r0, r7
	pop	{r3, r4, r5, r6, r7, pc}
.LVL91:
.L66:
	.loc 1 1060 5 is_stmt 1
	.loc 1 1060 14 is_stmt 0
	mov	r0, r5
	bl	LL_SetFlashLatency
.LVL92:
	mov	r7, r0
.LVL93:
	b	.L61
.L68:
	.align	2
.L67:
	.word	LL_RCC_PrescTable
	.word	SystemD2Clock
	.word	1476543488
	.word	D1CorePrescTable
	.cfi_endproc
.LFE869:
	.size	UTILS_EnablePLLAndSwitchSystem, .-UTILS_EnablePLLAndSwitchSystem
	.section	.text.LL_PLL_ConfigSystemClock_HSI,"ax",%progbits
	.align	1
	.global	LL_PLL_ConfigSystemClock_HSI
	.syntax unified
	.thumb
	.thumb_func
	.type	LL_PLL_ConfigSystemClock_HSI, %function
LL_PLL_ConfigSystemClock_HSI:
.LFB863:
	.loc 1 503 1 is_stmt 1
	.cfi_startproc
	@ args = 0, pretend = 0, frame = 0
	@ frame_needed = 0, uses_anonymous_args = 0
.LVL94:
	push	{r4, r5, r6, lr}
	.cfi_def_cfa_offset 16
	.cfi_offset 4, -16
	.cfi_offset 5, -12
	.cfi_offset 6, -8
	.cfi_offset 14, -4
	mov	r4, r0
	mov	r5, r1
	.loc 1 504 3
	.loc 1 508 3
	.loc 1 511 3
	.loc 1 512 3
	.loc 1 513 3
	.loc 1 514 3
	.loc 1 516 3
.LBB144:
.LBB145:
	.loc 2 1765 3
	.loc 2 1765 75 is_stmt 0
	ldr	r3, .L76
	ldr	r3, [r3]
.LBE145:
.LBE144:
	.loc 1 516 55
	ubfx	r3, r3, #3, #2
	.loc 1 516 11
	ldr	r6, .L76+4
	lsrs	r6, r6, r3
.LVL95:
	.loc 1 522 3 is_stmt 1
	.loc 1 528 3
	.loc 1 531 3
	.loc 1 534 3
	.loc 1 534 6 is_stmt 0
	bl	UTILS_IsPLLsReady
.LVL96:
	.loc 1 534 5
	cmp	r0, #0
	bne	.L74
	.loc 1 537 5 is_stmt 1
	.loc 1 537 15 is_stmt 0
	mov	r1, r4
	mov	r0, r6
	bl	UTILS_GetPLLOutputFrequency
.LVL97:
	.loc 1 540 5 is_stmt 1
.LBB146:
.LBB147:
	.loc 2 1726 3
	.loc 2 1726 76 is_stmt 0
	ldr	r3, .L76
	ldr	r3, [r3]
	.loc 2 1726 131
	tst	r3, #4
	bne	.L71
.LBE147:
.LBE146:
	.loc 1 542 7 is_stmt 1
.LBB148:
.LBB149:
	.loc 2 1706 3
	.loc 2 1706 67 is_stmt 0
	ldr	r2, .L76
	ldr	r3, [r2]
	.loc 2 1706 73
	orr	r3, r3, #1
	str	r3, [r2]
	.loc 2 1707 1
	b	.L73
.L72:
.LBE149:
.LBE148:
	.loc 1 543 35
	cmp	r3, #1
	beq	.L71
.L73:
	.loc 1 546 7 is_stmt 1 discriminator 1
	.loc 1 543 35 discriminator 1
.LBB150:
.LBB151:
	.loc 2 1726 3 discriminator 1
	.loc 2 1726 76 is_stmt 0 discriminator 1
	ldr	r3, .L76
	ldr	r3, [r3]
	.loc 2 1726 131 discriminator 1
	ands	r3, r3, #4
	beq	.L72
	.loc 2 1726 131
	movs	r3, #1
	b	.L72
.L71:
.LBE151:
.LBE150:
	.loc 1 550 5 is_stmt 1
.LBB152:
.LBB153:
	.loc 2 4356 3
	.loc 2 4356 67 is_stmt 0
	ldr	r3, .L76
	ldr	r2, [r3, #44]
	.loc 2 4356 78
	orr	r2, r2, #65536
	str	r2, [r3, #44]
.LBE153:
.LBE152:
	.loc 1 551 5 is_stmt 1
.LBB154:
.LBB155:
	.loc 2 4388 3
	.loc 2 4388 67 is_stmt 0
	ldr	r2, [r3, #44]
	.loc 2 4388 78
	orr	r2, r2, #1
	str	r2, [r3, #44]
.LBE155:
.LBE154:
	.loc 1 552 5 is_stmt 1
.LVL98:
.LBB156:
.LBB157:
	.loc 2 4300 3
	.loc 2 4300 152 is_stmt 0
	ldr	r2, [r3, #40]
	.loc 2 4300 167
	bic	r2, r2, #3
	.loc 2 4300 82
	str	r2, [r3, #40]
.LVL99:
.LBE157:
.LBE156:
	.loc 1 553 5 is_stmt 1
	ldr	r1, [r4, #16]
.LVL100:
.LBB158:
.LBB159:
	.loc 2 4501 3
	.loc 2 4501 150 is_stmt 0
	ldr	r2, [r3, #44]
	.loc 2 4501 163
	bic	r2, r2, #12
	.loc 2 4501 187
	orr	r2, r2, r1, lsl #2
	.loc 2 4501 80
	str	r2, [r3, #44]
.LVL101:
.LBE159:
.LBE158:
	.loc 1 554 5 is_stmt 1
	ldr	r1, [r4, #20]
.LVL102:
.LBB160:
.LBB161:
	.loc 2 4485 3
	.loc 2 4485 150 is_stmt 0
	ldr	r2, [r3, #44]
	.loc 2 4485 163
	bic	r2, r2, #2
	.loc 2 4485 187
	orr	r2, r2, r1, lsl #1
	.loc 2 4485 80
	str	r2, [r3, #44]
.LVL103:
.LBE161:
.LBE160:
	.loc 1 555 5 is_stmt 1
	ldr	r1, [r4]
.LVL104:
.LBB162:
.LBB163:
	.loc 2 4583 3
	.loc 2 4583 152 is_stmt 0
	ldr	r2, [r3, #40]
	.loc 2 4583 167
	bic	r2, r2, #1008
	.loc 2 4583 192
	orr	r2, r2, r1, lsl #4
	.loc 2 4583 82
	str	r2, [r3, #40]
.LVL105:
.LBE163:
.LBE162:
	.loc 1 556 5 is_stmt 1
	ldr	r1, [r4, #4]
.LVL106:
.LBB164:
.LBB165:
	.loc 2 4572 3
	.loc 2 4572 151 is_stmt 0
	ldr	r6, [r3, #48]
.LVL107:
	.loc 2 4572 165
	ldr	r2, .L76+8
	ands	r2, r2, r6
	.loc 2 4572 204
	subs	r1, r1, #1
.LVL108:
	.loc 2 4572 191
	orrs	r2, r2, r1
	.loc 2 4572 81
	str	r2, [r3, #48]
.LVL109:
.LBE165:
.LBE164:
	.loc 1 557 5 is_stmt 1
	ldr	r1, [r4, #8]
.LVL110:
.LBB166:
.LBB167:
	.loc 2 4596 3
	.loc 2 4596 151 is_stmt 0
	ldr	r2, [r3, #48]
	.loc 2 4596 165
	bic	r2, r2, #65024
	.loc 2 4596 196
	subs	r1, r1, #1
.LVL111:
	.loc 2 4596 190
	orr	r2, r2, r1, lsl #9
	.loc 2 4596 81
	str	r2, [r3, #48]
.LVL112:
.LBE167:
.LBE166:
	.loc 1 558 5 is_stmt 1
	ldr	r1, [r4, #12]
.LVL113:
.LBB168:
.LBB169:
	.loc 2 4628 3
	.loc 2 4628 152 is_stmt 0
	ldr	r4, [r3, #52]
.LVL114:
	.loc 2 4628 167
	ldr	r2, .L76+12
	ands	r2, r2, r4
	.loc 2 4628 194
	orr	r2, r2, r1, lsl #3
	.loc 2 4628 82
	str	r2, [r3, #52]
.LVL115:
.LBE169:
.LBE168:
	.loc 1 561 5 is_stmt 1
	.loc 1 561 14 is_stmt 0
	mov	r1, r5
	bl	UTILS_EnablePLLAndSwitchSystem
.LVL116:
.L70:
	.loc 1 569 3 is_stmt 1
	.loc 1 570 1 is_stmt 0
	pop	{r4, r5, r6, pc}
.LVL117:
.L74:
	.loc 1 566 12
	movs	r0, #1
	b	.L70
.L77:
	.align	2
.L76:
	.word	1476543488
	.word	64000000
	.word	-512
	.word	-65529
	.cfi_endproc
.LFE863:
	.size	LL_PLL_ConfigSystemClock_HSI, .-LL_PLL_ConfigSystemClock_HSI
	.section	.text.LL_PLL_ConfigSystemClock_HSE,"ax",%progbits
	.align	1
	.global	LL_PLL_ConfigSystemClock_HSE
	.syntax unified
	.thumb
	.thumb_func
	.type	LL_PLL_ConfigSystemClock_HSE, %function
LL_PLL_ConfigSystemClock_HSE:
.LFB864:
	.loc 1 599 1 is_stmt 1
	.cfi_startproc
	@ args = 0, pretend = 0, frame = 0
	@ frame_needed = 0, uses_anonymous_args = 0
.LVL118:
	push	{r3, r4, r5, r6, r7, lr}
	.cfi_def_cfa_offset 24
	.cfi_offset 3, -24
	.cfi_offset 4, -20
	.cfi_offset 5, -16
	.cfi_offset 6, -12
	.cfi_offset 7, -8
	.cfi_offset 14, -4
	mov	r4, r0
	mov	r7, r1
	mov	r5, r2
	mov	r6, r3
	.loc 1 600 3
	.loc 1 604 3
	.loc 1 607 3
	.loc 1 608 3
	.loc 1 609 3
	.loc 1 610 3
	.loc 1 611 3
	.loc 1 612 3
	.loc 1 618 3
	.loc 1 624 3
	.loc 1 627 3
	.loc 1 630 3
	.loc 1 630 6 is_stmt 0
	bl	UTILS_IsPLLsReady
.LVL119:
	.loc 1 630 5
	cmp	r0, #0
	bne	.L85
	.loc 1 633 5 is_stmt 1
	.loc 1 633 15 is_stmt 0
	mov	r1, r5
	mov	r0, r4
	bl	UTILS_GetPLLOutputFrequency
.LVL120:
	.loc 1 636 5 is_stmt 1
.LBB170:
.LBB171:
	.loc 2 1688 3
	.loc 2 1688 76 is_stmt 0
	ldr	r3, .L88
	ldr	r3, [r3]
	.loc 2 1688 133
	tst	r3, #131072
	bne	.L80
.LBE171:
.LBE170:
	.loc 1 639 7 is_stmt 1
	.loc 1 639 9 is_stmt 0
	cmp	r7, #1
	beq	.L87
	.loc 1 645 9 is_stmt 1
.LBB172:
.LBB173:
	.loc 2 1636 3
	.loc 2 1636 67 is_stmt 0
	ldr	r2, .L88
	ldr	r3, [r2]
	.loc 2 1636 73
	bic	r3, r3, #262144
	str	r3, [r2]
.L82:
.LBE173:
.LBE172:
	.loc 1 649 7 is_stmt 1
.LBB174:
.LBB175:
	.loc 2 1668 3
	.loc 2 1668 67 is_stmt 0
	ldr	r2, .L88
	ldr	r3, [r2]
	.loc 2 1668 73
	orr	r3, r3, #65536
	str	r3, [r2]
	.loc 2 1669 1
	b	.L84
.L87:
.LBE175:
.LBE174:
	.loc 1 641 9 is_stmt 1
.LBB176:
.LBB177:
	.loc 2 1626 3
	.loc 2 1626 67 is_stmt 0
	ldr	r2, .L88
	ldr	r3, [r2]
	.loc 2 1626 73
	orr	r3, r3, #262144
	str	r3, [r2]
	.loc 2 1627 1
	b	.L82
.LVL121:
.L83:
.LBE177:
.LBE176:
	.loc 1 650 35
	cmp	r4, #1
	beq	.L80
.L84:
	.loc 1 653 7 is_stmt 1 discriminator 1
	.loc 1 650 35 discriminator 1
.LBB178:
.LBB179:
	.loc 2 1688 3 discriminator 1
	.loc 2 1688 76 is_stmt 0 discriminator 1
	ldr	r2, .L88
	ldr	r4, [r2]
	.loc 2 1688 133 discriminator 1
	ands	r4, r4, #131072
	beq	.L83
	.loc 2 1688 133
	movs	r4, #1
	b	.L83
.L80:
.LBE179:
.LBE178:
	.loc 1 657 5 is_stmt 1
.LBB180:
.LBB181:
	.loc 2 4356 3
	.loc 2 4356 67 is_stmt 0
	ldr	r4, .L88
	ldr	r3, [r4, #44]
	.loc 2 4356 78
	orr	r3, r3, #65536
	str	r3, [r4, #44]
.LBE181:
.LBE180:
	.loc 1 658 5 is_stmt 1
.LBB182:
.LBB183:
	.loc 2 4388 3
	.loc 2 4388 67 is_stmt 0
	ldr	r3, [r4, #44]
	.loc 2 4388 78
	orr	r3, r3, #1
	str	r3, [r4, #44]
.LBE183:
.LBE182:
	.loc 1 659 5 is_stmt 1
.LVL122:
.LBB184:
.LBB185:
	.loc 2 4300 3
	.loc 2 4300 152 is_stmt 0
	ldr	r3, [r4, #40]
	.loc 2 4300 167
	bic	r3, r3, #3
	.loc 2 4300 191
	orr	r3, r3, #2
	.loc 2 4300 82
	str	r3, [r4, #40]
.LVL123:
.LBE185:
.LBE184:
	.loc 1 660 5 is_stmt 1
	ldr	r2, [r5, #16]
.LVL124:
.LBB186:
.LBB187:
	.loc 2 4501 3
	.loc 2 4501 150 is_stmt 0
	ldr	r3, [r4, #44]
	.loc 2 4501 163
	bic	r3, r3, #12
	.loc 2 4501 187
	orr	r3, r3, r2, lsl #2
	.loc 2 4501 80
	str	r3, [r4, #44]
.LVL125:
.LBE187:
.LBE186:
	.loc 1 661 5 is_stmt 1
	ldr	r2, [r5, #20]
.LVL126:
.LBB188:
.LBB189:
	.loc 2 4485 3
	.loc 2 4485 150 is_stmt 0
	ldr	r3, [r4, #44]
	.loc 2 4485 163
	bic	r3, r3, #2
	.loc 2 4485 187
	orr	r3, r3, r2, lsl #1
	.loc 2 4485 80
	str	r3, [r4, #44]
.LVL127:
.LBE189:
.LBE188:
	.loc 1 662 5 is_stmt 1
	ldr	r2, [r5]
.LVL128:
.LBB190:
.LBB191:
	.loc 2 4583 3
	.loc 2 4583 152 is_stmt 0
	ldr	r3, [r4, #40]
	.loc 2 4583 167
	bic	r3, r3, #1008
	.loc 2 4583 192
	orr	r3, r3, r2, lsl #4
	.loc 2 4583 82
	str	r3, [r4, #40]
.LVL129:
.LBE191:
.LBE190:
	.loc 1 663 5 is_stmt 1
	ldr	r2, [r5, #4]
.LVL130:
.LBB192:
.LBB193:
	.loc 2 4572 3
	.loc 2 4572 151 is_stmt 0
	ldr	r1, [r4, #48]
	.loc 2 4572 165
	ldr	r3, .L88+4
	ands	r3, r3, r1
	.loc 2 4572 204
	subs	r2, r2, #1
.LVL131:
	.loc 2 4572 191
	orrs	r3, r3, r2
	.loc 2 4572 81
	str	r3, [r4, #48]
.LVL132:
.LBE193:
.LBE192:
	.loc 1 664 5 is_stmt 1
	ldr	r2, [r5, #8]
.LVL133:
.LBB194:
.LBB195:
	.loc 2 4596 3
	.loc 2 4596 151 is_stmt 0
	ldr	r3, [r4, #48]
	.loc 2 4596 165
	bic	r3, r3, #65024
	.loc 2 4596 196
	subs	r2, r2, #1
.LVL134:
	.loc 2 4596 190
	orr	r3, r3, r2, lsl #9
	.loc 2 4596 81
	str	r3, [r4, #48]
.LVL135:
.LBE195:
.LBE194:
	.loc 1 665 5 is_stmt 1
	ldr	r2, [r5, #12]
.LVL136:
.LBB196:
.LBB197:
	.loc 2 4628 3
	.loc 2 4628 152 is_stmt 0
	ldr	r1, [r4, #52]
	.loc 2 4628 167
	ldr	r3, .L88+8
	ands	r3, r3, r1
	.loc 2 4628 194
	orr	r3, r3, r2, lsl #3
	.loc 2 4628 82
	str	r3, [r4, #52]
.LVL137:
.LBE197:
.LBE196:
	.loc 1 668 5 is_stmt 1
	.loc 1 668 14 is_stmt 0
	mov	r1, r6
	bl	UTILS_EnablePLLAndSwitchSystem
.LVL138:
.L79:
	.loc 1 676 3 is_stmt 1
	.loc 1 677 1 is_stmt 0
	pop	{r3, r4, r5, r6, r7, pc}
.LVL139:
.L85:
	.loc 1 673 12
	movs	r0, #1
	b	.L79
.L89:
	.align	2
.L88:
	.word	1476543488
	.word	-512
	.word	-65529
	.cfi_endproc
.LFE864:
	.size	LL_PLL_ConfigSystemClock_HSE, .-LL_PLL_ConfigSystemClock_HSE
	.text
.Letext0:
	.file 6 "m:\\noinstall\\arm-gnu-toolchain-12.2.rel1-mingw-w64-i686-arm-none-eabi\\arm-none-eabi\\include\\machine\\_default_types.h"
	.file 7 "m:\\noinstall\\arm-gnu-toolchain-12.2.rel1-mingw-w64-i686-arm-none-eabi\\arm-none-eabi\\include\\sys\\_stdint.h"
	.file 8 "d:\\rtos\\board\\yd-stm32h7xxvx_classicv19\\cmake-build-debug\\_deps\\stm32h7xx_cmsis_include\\drivers\\cmsis\\include\\core_cm7.h"
	.file 9 "D:/RTOS/Board/YD-STM32H7xxVx_ClassicV19/cmake-build-debug/_deps/stm32h7xx_cmsis_device-src/Include/system_stm32h7xx.h"
	.file 10 "D:/RTOS/Board/YD-STM32H7xxVx_ClassicV19/cmake-build-debug/_deps/stm32h7xx_cmsis_device-src/Include/stm32h743xx.h"
	.file 11 "D:/RTOS/Board/YD-STM32H7xxVx_ClassicV19/cmake-build-debug/_deps/stm32h7xx_cmsis_device-src/Include/stm32h7xx.h"
	.file 12 "m:\\noinstall\\arm-gnu-toolchain-12.2.rel1-mingw-w64-i686-arm-none-eabi\\arm-none-eabi\\include\\math.h"