	.cpu cortex-m7
	.arch armv7e-m
	.fpu fpv5-d16
	.eabi_attribute 28, 1
	.eabi_attribute 20, 1
	.eabi_attribute 21, 1
	.eabi_attribute 23, 3
	.eabi_attribute 24, 1
	.eabi_attribute 25, 1
	.eabi_attribute 26, 1
	.eabi_attribute 30, 1
	.eabi_attribute 34, 1
	.eabi_attribute 18, 4
	.file	"stm32h7xx_hal_comp.c"
	.text
.Ltext0:
	.cfi_sections	.debug_frame
	.file 1 "D:/RTOS/Board/YD-STM32H7xxVx_ClassicV19/cmake-build-debug/_deps/stm32h7xx_hal_driver-src/Src/stm32h7xx_hal_comp.c"
	.section	.text.HAL_COMP_MspInit,"ax",%progbits
	.align	1
	.weak	HAL_COMP_MspInit
	.syntax unified
	.thumb
	.thumb_func
	.type	HAL_COMP_MspInit, %function
HAL_COMP_MspInit:
.LFB337:
	.loc 1 543 1
	.cfi_startproc
	@ args = 0, pretend = 0, frame = 0
	@ frame_needed = 0, uses_anonymous_args = 0
	@ link register save eliminated.
.LVL0:
	.loc 1 545 3
	.loc 1 549 1 is_stmt 0
	bx	lr
	.cfi_endproc
.LFE337:
	.size	HAL_COMP_MspInit, .-HAL_COMP_MspInit
	.section	.text.HAL_COMP_Init,"ax",%progbits
	.align	1
	.global	HAL_COMP_Init
	.syntax unified
	.thumb
	.thumb_func
	.type	HAL_COMP_Init, %function
HAL_COMP_Init:
.LFB335:
	.loc 1 263 1 is_stmt 1
	.cfi_startproc
	@ args = 0, pretend = 0, frame = 8
	@ frame_needed = 0, uses_anonymous_args = 0
.LVL1:
	push	{r4, r5, lr}
	.cfi_def_cfa_offset 12
	.cfi_offset 4, -12
	.cfi_offset 5, -8
	.cfi_offset 14, -4
	sub	sp, sp, #12
	.cfi_def_cfa_offset 24
	.loc 1 264 3
	.loc 1 265 3
	.loc 1 266 3
	.loc 1 267 3
	.loc 1 267 21 is_stmt 0
	movs	r3, #0
	str	r3, [sp, #4]
	.loc 1 269 3 is_stmt 1
.LVL2:
	.loc 1 272 3
	.loc 1 272 5 is_stmt 0
	cmp	r0, #0
	beq	.L20
	mov	r4, r0
	.loc 1 276 8 is_stmt 1
	.loc 1 276 21 is_stmt 0
	ldr	r3, [r0]
	.loc 1 276 31
	ldr	r3, [r3]
	.loc 1 276 10
	cmp	r3, #0
	blt	.L21
	.loc 1 283 5 is_stmt 1
	.loc 1 284 5
	.loc 1 285 5
	.loc 1 286 5
	.loc 1 287 5
	.loc 1 288 5
	.loc 1 289 5
	.loc 1 290 5
	.loc 1 291 5
	.loc 1 293 5
	.loc 1 293 13 is_stmt 0
	ldrb	r3, [r0, #37]	@ zero_extendqisi2
	.loc 1 293 7
	cmp	r3, #0
	beq	.L25
.LVL3:
.L4:
	.loc 1 318 5 is_stmt 1
	.loc 1 318 46 is_stmt 0
	ldr	r1, [r4]
	.loc 1 318 56
	ldr	r0, [r1]
	.loc 1 318 37
	and	r0, r0, #4
.LVL4:
	.loc 1 328 5 is_stmt 1
	.loc 1 328 27 is_stmt 0
	ldr	r3, [r4, #16]
	.loc 1 329 26
	ldr	r2, [r4, #12]
	.loc 1 328 43
	orrs	r3, r3, r2
	.loc 1 330 26
	ldr	r2, [r4, #28]
	.loc 1 329 45
	orrs	r3, r3, r2
	.loc 1 331 26
	ldr	r2, [r4, #20]
	.loc 1 330 40
	orrs	r3, r3, r2
	.loc 1 332 26
	ldr	r2, [r4, #24]
	.loc 1 331 38
	orrs	r3, r3, r2
	.loc 1 333 26
	ldr	r2, [r4, #8]
	.loc 1 328 13
	orrs	r3, r3, r2
.LVL5:
	.loc 1 345 5 is_stmt 1
	.loc 1 345 55 is_stmt 0
	ldr	r5, [r1]
	.loc 1 345 65
	ldr	r2, .L28
	ands	r2, r2, r5
	.loc 1 345 237
	orrs	r2, r2, r3
	.loc 1 345 32
	str	r2, [r1]
	.loc 1 356 5 is_stmt 1
	.loc 1 356 19 is_stmt 0
	ldr	r3, [r4, #4]
.LVL6:
	.loc 1 356 7
	cmp	r3, #16
	beq	.L26
	.loc 1 362 7 is_stmt 1
	.loc 1 362 14 is_stmt 0
	ldr	r2, [r4]
	.loc 1 362 24
	ldr	r3, [r2]
	.loc 1 362 32
	bic	r3, r3, #16
	str	r3, [r2]
.L6:
	.loc 1 366 5 is_stmt 1
	.loc 1 366 17 is_stmt 0
	ldr	r2, [r4]
	.loc 1 366 27
	ldr	r3, [r2]
	.loc 1 366 8
	tst	r3, #4
	beq	.L7
	.loc 1 366 64 discriminator 1
	cbz	r0, .L7
	.loc 1 373 6 is_stmt 1
	.loc 1 373 62 is_stmt 0
	ldr	r3, .L28+4
	ldr	r3, [r3]
	lsrs	r3, r3, #6
	ldr	r1, .L28+8
	umull	r1, r3, r1, r3
	lsrs	r3, r3, #6
	.loc 1 373 42
	adds	r3, r3, #1
	add	r3, r3, r3, lsl #2
	lsls	r3, r3, #2
	.loc 1 373 22
	str	r3, [sp, #4]
	.loc 1 375 6 is_stmt 1
	.loc 1 375 11 is_stmt 0
	b	.L8
.LVL7:
.L25:
	.loc 1 296 7 is_stmt 1
	.loc 1 296 19 is_stmt 0
	strb	r3, [r0, #36]
	.loc 1 299 7 is_stmt 1
	.loc 1 299 27 is_stmt 0
	str	r3, [r0, #40]
	.loc 1 314 7 is_stmt 1
	bl	HAL_COMP_MspInit
.LVL8:
	b	.L4
.LVL9:
.L26:
	.loc 1 358 7
	.loc 1 358 14 is_stmt 0
	ldr	r2, [r4]
	.loc 1 358 24
	ldr	r3, [r2]
	.loc 1 358 32
	orr	r3, r3, #16
	str	r3, [r2]
	b	.L6
.L9:
	.loc 1 377 8 is_stmt 1
	.loc 1 377 24 is_stmt 0
	ldr	r3, [sp, #4]
	subs	r3, r3, #1
	str	r3, [sp, #4]
.L8:
	.loc 1 375 28 is_stmt 1
	ldr	r3, [sp, #4]
	cmp	r3, #0
	bne	.L9
.L7:
	.loc 1 382 5
	.loc 1 382 137 is_stmt 0
	ldr	r3, .L28+12
	cmp	r2, r3
	beq	.L27
	mov	r3, #2097152
.L10:
.LVL10:
	.loc 1 385 5 is_stmt 1 discriminator 4
	.loc 1 385 20 is_stmt 0 discriminator 4
	ldr	r2, [r4, #32]
	.loc 1 385 7 discriminator 4
	tst	r2, #3
	beq	.L11
	.loc 1 388 7 is_stmt 1
	.loc 1 388 9 is_stmt 0
	tst	r2, #16
	beq	.L12
	.loc 1 390 9 is_stmt 1
	.loc 1 390 74 is_stmt 0
	mov	r1, #1476395008
	ldr	r2, [r1]
	.loc 1 390 83
	orrs	r2, r2, r3
	str	r2, [r1]
.L13:
	.loc 1 398 7 is_stmt 1
	.loc 1 398 22 is_stmt 0
	ldr	r2, [r4, #32]
	.loc 1 398 9
	tst	r2, #32
	beq	.L14
	.loc 1 400 9 is_stmt 1
	.loc 1 400 74 is_stmt 0
	mov	r1, #1476395008
	ldr	r2, [r1, #4]
	.loc 1 400 83
	orrs	r2, r2, r3
	str	r2, [r1, #4]
.L15:
	.loc 1 409 7 is_stmt 1
	.loc 1 409 79 is_stmt 0
	mov	r2, #1476395008
	str	r3, [r2, #136]
	.loc 1 412 7 is_stmt 1
	.loc 1 412 22 is_stmt 0
	ldr	r2, [r4, #32]
	.loc 1 412 9
	tst	r2, #2
	beq	.L16
	.loc 1 414 9 is_stmt 1
	.loc 1 414 74 is_stmt 0
	mov	r1, #1476395008
	ldr	r2, [r1, #132]
	.loc 1 414 82
	orrs	r2, r2, r3
	str	r2, [r1, #132]
.L17:
	.loc 1 422 7 is_stmt 1
	.loc 1 422 22 is_stmt 0
	ldr	r2, [r4, #32]
	.loc 1 422 9
	tst	r2, #1
	beq	.L18
	.loc 1 424 9 is_stmt 1
	.loc 1 424 74 is_stmt 0
	mov	r1, #1476395008
	ldr	r2, [r1, #128]
	.loc 1 424 82
	orrs	r3, r3, r2
.LVL11:
	str	r3, [r1, #128]
	b	.L19
.LVL12:
.L27:
	.loc 1 382 137
	mov	r3, #1048576
	b	.L10
.LVL13:
.L12:
	.loc 1 394 9 is_stmt 1
	.loc 1 394 74 is_stmt 0
	mov	r1, #1476395008
	ldr	r2, [r1]
	.loc 1 394 83
	bic	r2, r2, r3
	str	r2, [r1]
	b	.L13
.L14:
	.loc 1 404 9 is_stmt 1
	.loc 1 404 74 is_stmt 0
	mov	r1, #1476395008
	ldr	r2, [r1, #4]
	.loc 1 404 83
	bic	r2, r2, r3
	str	r2, [r1, #4]
	b	.L15
.L16:
	.loc 1 418 9 is_stmt 1
	.loc 1 418 74 is_stmt 0
	mov	r1, #1476395008
	ldr	r2, [r1, #132]
	.loc 1 418 82
	bic	r2, r2, r3
	str	r2, [r1, #132]
	b	.L17
.L18:
	.loc 1 428 9 is_stmt 1
	.loc 1 428 74 is_stmt 0
	mov	r1, #1476395008
	ldr	r2, [r1, #128]
	.loc 1 428 82
	bic	r3, r2, r3
.LVL14:
	str	r3, [r1, #128]
	b	.L19
.LVL15:
.L11:
	.loc 1 434 7 is_stmt 1
	.loc 1 434 72 is_stmt 0
	mov	r2, #1476395008
	ldr	r1, [r2, #132]
	.loc 1 434 80
	bic	r1, r1, r3
	str	r1, [r2, #132]
	.loc 1 437 7 is_stmt 1
	.loc 1 437 72 is_stmt 0
	ldr	r1, [r2, #128]
	.loc 1 437 80
	bic	r3, r1, r3
.LVL16:
	str	r3, [r2, #128]
.L19:
	.loc 1 475 5 is_stmt 1
	.loc 1 475 14 is_stmt 0
	ldrb	r3, [r4, #37]	@ zero_extendqisi2
	.loc 1 475 8
	and	r0, r3, #255
.LVL17:
	cbnz	r3, .L23
	.loc 1 478 7 is_stmt 1
	.loc 1 478 20 is_stmt 0
	movs	r3, #1
	strb	r3, [r4, #37]
	b	.L3
.LVL18:
.L20:
	.loc 1 274 12
	movs	r0, #1
.LVL19:
.L3:
	.loc 1 483 3 is_stmt 1
	.loc 1 484 1 is_stmt 0
	add	sp, sp, #12
	.cfi_remember_state
	.cfi_def_cfa_offset 12
	@ sp needed
	pop	{r4, r5, pc}
.LVL20:
.L21:
	.cfi_restore_state
	.loc 1 278 12
	movs	r0, #1
.LVL21:
	b	.L3
.LVL22:
.L23:
	.loc 1 269 21
	movs	r0, #0
	b	.L3
.L29:
	.align	2
.L28:
	.word	-253178655
	.word	SystemCoreClock
	.word	87960931
	.word	1476409356
	.cfi_endproc
.LFE335:
	.size	HAL_COMP_Init, .-HAL_COMP_Init
	.section	.text.HAL_COMP_MspDeInit,"ax",%progbits
	.align	1
	.weak	HAL_COMP_MspDeInit
	.syntax unified
	.thumb
	.thumb_func
	.type	HAL_COMP_MspDeInit, %function
HAL_COMP_MspDeInit:
.LFB338:
	.loc 1 557 1 is_stmt 1
	.cfi_startproc
	@ args = 0, pretend = 0, frame = 0
	@ frame_needed = 0, uses_anonymous_args = 0
	@ link register save eliminated.
.LVL23:
	.loc 1 559 4
	.loc 1 563 1 is_stmt 0
	bx	lr
	.cfi_endproc
.LFE338:
	.size	HAL_COMP_MspDeInit, .-HAL_COMP_MspDeInit
	.section	.text.HAL_COMP_DeInit,"ax",%progbits
	.align	1
	.global	HAL_COMP_DeInit
	.syntax unified
	.thumb
	.thumb_func
	.type	HAL_COMP_DeInit, %function
HAL_COMP_DeInit:
.LFB336:
	.loc 1 494 1 is_stmt 1
	.cfi_startproc
	@ args = 0, pretend = 0, frame = 0
	@ frame_needed = 0, uses_anonymous_args = 0
.LVL24:
	.loc 1 495 3
	.loc 1 498 3
	.loc 1 498 5 is_stmt 0
	cbz	r0, .L33
	.loc 1 494 1
	push	{r3, r4, r5, lr}
	.cfi_def_cfa_offset 16
	.cfi_offset 3, -16
	.cfi_offset 4, -12
	.cfi_offset 5, -8
	.cfi_offset 14, -4
	mov	r5, r0
	.loc 1 502 8 is_stmt 1
	.loc 1 502 21 is_stmt 0
	ldr	r3, [r0]
	.loc 1 502 31
	ldr	r2, [r3]
	.loc 1 502 10
	cmp	r2, #0
	bge	.L39
	.loc 1 504 12
	movs	r0, #1
.LVL25:
.L32:
	.loc 1 531 7 is_stmt 1 discriminator 1
	.loc 1 534 3 discriminator 1
	.loc 1 535 1 is_stmt 0 discriminator 1
	pop	{r3, r4, r5, pc}
.LVL26:
.L39:
	.loc 1 509 5 is_stmt 1
	.loc 1 512 5
	.loc 1 512 30 is_stmt 0
	movs	r4, #0
	str	r4, [r3]
	.loc 1 524 5 is_stmt 1
	bl	HAL_COMP_MspDeInit
.LVL27:
	.loc 1 528 5
	.loc 1 528 18 is_stmt 0
	strb	r4, [r5, #37]
	.loc 1 531 5 is_stmt 1
	.loc 1 531 9
	.loc 1 531 23 is_stmt 0
	strb	r4, [r5, #36]
	.loc 1 495 21
	mov	r0, r4
	b	.L32
.LVL28:
.L33:
	.cfi_def_cfa_offset 0
	.cfi_restore 3
	.cfi_restore 4
	.cfi_restore 5
	.cfi_restore 14
	.loc 1 500 12
	movs	r0, #1
.LVL29:
	.loc 1 531 7 is_stmt 1
	.loc 1 534 3
	.loc 1 535 1 is_stmt 0
	bx	lr
	.cfi_endproc
.LFE336:
	.size	HAL_COMP_DeInit, .-HAL_COMP_DeInit
	.section	.text.HAL_COMP_Start,"ax",%progbits
	.align	1
	.global	HAL_COMP_Start
	.syntax unified
	.thumb
	.thumb_func
	.type	HAL_COMP_Start, %function
HAL_COMP_Start:
.LFB339:
	.loc 1 751 1 is_stmt 1
	.cfi_startproc
	@ args = 0, pretend = 0, frame = 8
	@ frame_needed = 0, uses_anonymous_args = 0
	@ link register save eliminated.
.LVL30:
	sub	sp, sp, #8
	.cfi_def_cfa_offset 8
	.loc 1 752 3
	.loc 1 752 21 is_stmt 0
	movs	r3, #0
	str	r3, [sp, #4]
	.loc 1 754 3 is_stmt 1
.LVL31:
	.loc 1 757 3
	.loc 1 757 5 is_stmt 0
	cbz	r0, .L44
	.loc 1 761 8 is_stmt 1
	.loc 1 761 21 is_stmt 0
	ldr	r2, [r0]
	.loc 1 761 31
	ldr	r1, [r2]
	.loc 1 761 10
	cmp	r1, #0
	blt	.L45
	.loc 1 768 5 is_stmt 1
	.loc 1 770 5
	.loc 1 770 13 is_stmt 0
	ldrb	r1, [r0, #37]	@ zero_extendqisi2
	uxtb	r1, r1
	.loc 1 770 7
	cmp	r1, #1
	beq	.L48
	.loc 1 791 14
	movs	r0, #1
.LVL32:
	b	.L41
.LVL33:
.L48:
	.loc 1 773 7 is_stmt 1
	.loc 1 773 24 is_stmt 0
	ldr	r1, [r2]
	.loc 1 773 32
	orr	r1, r1, #1
	str	r1, [r2]
	.loc 1 776 7 is_stmt 1
	.loc 1 776 20 is_stmt 0
	movs	r2, #2
	strb	r2, [r0, #37]
	.loc 1 783 6 is_stmt 1
	.loc 1 783 61 is_stmt 0
	ldr	r3, .L49
	ldr	r3, [r3]
	lsrs	r3, r3, #6
	ldr	r2, .L49+4
	umull	r2, r3, r2, r3
	lsrs	r3, r3, #6
	.loc 1 783 81
	adds	r3, r3, #1
	.loc 1 783 41
	lsls	r3, r3, #3
	.loc 1 783 22
	str	r3, [sp, #4]
	.loc 1 784 6 is_stmt 1
	.loc 1 784 11 is_stmt 0
	b	.L42
.L43:
	.loc 1 786 8 is_stmt 1
	.loc 1 786 23 is_stmt 0
	ldr	r3, [sp, #4]
	subs	r3, r3, #1
	str	r3, [sp, #4]
.L42:
	.loc 1 784 28 is_stmt 1
	ldr	r3, [sp, #4]
	cmp	r3, #0
	bne	.L43
	.loc 1 754 21 is_stmt 0
	movs	r0, #0
.LVL34:
	b	.L41
.LVL35:
.L44:
	.loc 1 759 12
	movs	r0, #1
.LVL36:
.L41:
	.loc 1 795 3 is_stmt 1
	.loc 1 796 1 is_stmt 0
	add	sp, sp, #8
	.cfi_remember_state
	.cfi_def_cfa_offset 0
	@ sp needed
	bx	lr
.LVL37:
.L45:
	.cfi_restore_state
	.loc 1 763 12
	movs	r0, #1
.LVL38:
	b	.L41
.L50:
	.align	2
.L49:
	.word	SystemCoreClock
	.word	87960931
	.cfi_endproc
.LFE339:
	.size	HAL_COMP_Start, .-HAL_COMP_Start
	.section	.text.HAL_COMP_Stop,"ax",%progbits
	.align	1
	.global	HAL_COMP_Stop
	.syntax unified
	.thumb
	.thumb_func
	.type	HAL_COMP_Stop, %function
HAL_COMP_Stop:
.LFB340:
	.loc 1 804 1 is_stmt 1
	.cfi_startproc
	@ args = 0, pretend = 0, frame = 0
	@ frame_needed = 0, uses_anonymous_args = 0
	@ link register save eliminated.
.LVL39:
	.loc 1 805 3
	.loc 1 808 3
	.loc 1 808 5 is_stmt 0
	cbz	r0, .L53
	.loc 1 812 8 is_stmt 1
	.loc 1 812 21 is_stmt 0
	ldr	r2, [r0]
	.loc 1 812 31
	ldr	r1, [r2]
	.loc 1 812 10
	cmp	r1, #0
	blt	.L54
	.loc 1 819 5 is_stmt 1
	.loc 1 823 5
	.loc 1 823 13 is_stmt 0
	ldrb	r1, [r0, #37]	@ zero_extendqisi2
	.loc 1 823 7
	cbz	r1, .L55
	.loc 1 827 7 is_stmt 1
	.loc 1 827 24 is_stmt 0
	ldr	r1, [r2]
	.loc 1 827 32
	bic	r1, r1, #1
	str	r1, [r2]
	.loc 1 830 7 is_stmt 1
	.loc 1 830 20 is_stmt 0
	movs	r2, #1
	strb	r2, [r0, #37]
	.loc 1 805 21
	movs	r0, #0
.LVL40:
	bx	lr
.LVL41:
.L53:
	.loc 1 810 12
	movs	r0, #1
.LVL42:
	bx	lr
.LVL43:
.L54:
	.loc 1 814 12
	movs	r0, #1
.LVL44:
	bx	lr
.LVL45:
.L55:
	.loc 1 834 14
	movs	r0, #1
.LVL46:
	.loc 1 838 3 is_stmt 1
	.loc 1 839 1 is_stmt 0
	bx	lr
	.cfi_endproc
.LFE340:
	.size	HAL_COMP_Stop, .-HAL_COMP_Stop
	.section	.text.HAL_COMP_Start_IT,"ax",%progbits
	.align	1
	.global	HAL_COMP_Start_IT
	.syntax unified
	.thumb
	.thumb_func
	.type	HAL_COMP_Start_IT, %function
HAL_COMP_Start_IT:
.LFB341:
	.loc 1 847 1 is_stmt 1
	.cfi_startproc
	@ args = 0, pretend = 0, frame = 8
	@ frame_needed = 0, uses_anonymous_args = 0
	@ link register save eliminated.
.LVL47:
	sub	sp, sp, #8
	.cfi_def_cfa_offset 8
	.loc 1 849 2
	.loc 1 849 20 is_stmt 0
	movs	r3, #0
	str	r3, [sp, #4]
	.loc 1 850 2 is_stmt 1
.LVL48:
	.loc 1 853 3
	.loc 1 853 5 is_stmt 0
	cbz	r0, .L60
	.loc 1 857 8 is_stmt 1
	.loc 1 857 21 is_stmt 0
	ldr	r2, [r0]
	.loc 1 857 31
	ldr	r1, [r2]
	.loc 1 857 10
	cmp	r1, #0
	blt	.L61
	.loc 1 864 5 is_stmt 1
	.loc 1 866 5
	.loc 1 866 13 is_stmt 0
	ldrb	r1, [r0, #37]	@ zero_extendqisi2
	uxtb	r1, r1
	.loc 1 866 7
	cmp	r1, #1
	beq	.L64
	.loc 1 889 15
	movs	r0, #1
.LVL49:
	b	.L57
.LVL50:
.L64:
	.loc 1 870 5 is_stmt 1
	.loc 1 870 22 is_stmt 0
	ldr	r1, [r2]
	.loc 1 870 30
	orr	r1, r1, #1
	str	r1, [r2]
	.loc 1 872 5 is_stmt 1
	.loc 1 872 12 is_stmt 0
	ldr	r1, [r0]
	.loc 1 872 22
	ldr	r2, [r1]
	.loc 1 872 30
	orr	r2, r2, #64
	str	r2, [r1]
	.loc 1 874 5 is_stmt 1
	.loc 1 874 18 is_stmt 0
	movs	r2, #2
	strb	r2, [r0, #37]
	.loc 1 880 6 is_stmt 1
	.loc 1 880 61 is_stmt 0
	ldr	r3, .L65
	ldr	r3, [r3]
	lsrs	r3, r3, #6
	ldr	r2, .L65+4
	umull	r2, r3, r2, r3
	lsrs	r3, r3, #6
	.loc 1 880 81
	adds	r3, r3, #1
	.loc 1 880 41
	lsls	r3, r3, #3
	.loc 1 880 22
	str	r3, [sp, #4]
	.loc 1 881 6 is_stmt 1
	.loc 1 881 11 is_stmt 0
	b	.L58
.L59:
	.loc 1 883 8 is_stmt 1
	.loc 1 883 23 is_stmt 0
	ldr	r3, [sp, #4]
	subs	r3, r3, #1
	str	r3, [sp, #4]
.L58:
	.loc 1 881 28 is_stmt 1
	ldr	r3, [sp, #4]
	cmp	r3, #0
	bne	.L59
	.loc 1 850 20 is_stmt 0
	movs	r0, #0
.LVL51:
	b	.L57
.LVL52:
.L60:
	.loc 1 855 12
	movs	r0, #1
.LVL53:
.L57:
	.loc 1 893 3 is_stmt 1
	.loc 1 894 1 is_stmt 0
	add	sp, sp, #8
	.cfi_remember_state
	.cfi_def_cfa_offset 0
	@ sp needed
	bx	lr
.LVL54:
.L61:
	.cfi_restore_state
	.loc 1 859 12
	movs	r0, #1
.LVL55:
	b	.L57
.L66:
	.align	2
.L65:
	.word	SystemCoreClock
	.word	87960931
	.cfi_endproc
.LFE341:
	.size	HAL_COMP_Start_IT, .-HAL_COMP_Start_IT
	.section	.text.HAL_COMP_Stop_IT,"ax",%progbits
	.align	1
	.global	HAL_COMP_Stop_IT
	.syntax unified
	.thumb
	.thumb_func
	.type	HAL_COMP_Stop_IT, %function
HAL_COMP_Stop_IT:
.LFB342:
	.loc 1 902 1 is_stmt 1
	.cfi_startproc
	@ args = 0, pretend = 0, frame = 0
	@ frame_needed = 0, uses_anonymous_args = 0
.LVL56:
	push	{r3, lr}
	.cfi_def_cfa_offset 8
	.cfi_offset 3, -8
	.cfi_offset 14, -4
	.loc 1 903 3
	.loc 1 906 4
	.loc 1 906 69 is_stmt 0
	mov	r3, #1476395008
	ldr	r3, [r3, #128]
	.loc 1 906 90
	ldr	r1, [r0]
	.loc 1 906 80
	ldr	r2, .L72
	cmp	r1, r2
	beq	.L71
	mvn	r2, #2097152
.L68:
	.loc 1 906 77 discriminator 4
	ands	r3, r3, r2
	mov	r2, #1476395008
	str	r3, [r2, #128]
	.loc 1 911 4 is_stmt 1 discriminator 4
	.loc 1 911 11 is_stmt 0 discriminator 4
	ldr	r2, [r0]
	.loc 1 911 21 discriminator 4
	ldr	r3, [r2]
	.loc 1 911 29 discriminator 4
	bic	r3, r3, #64
	str	r3, [r2]
	.loc 1 913 3 is_stmt 1 discriminator 4
	.loc 1 913 12 is_stmt 0 discriminator 4
	bl	HAL_COMP_Stop
.LVL57:
	.loc 1 915 3 is_stmt 1 discriminator 4
	.loc 1 917 1 is_stmt 0 discriminator 4
	pop	{r3, pc}
.LVL58:
.L71:
	.loc 1 906 80
	mvn	r2, #1048576
	b	.L68
.L73:
	.align	2
.L72:
	.word	1476409356
	.cfi_endproc
.LFE342:
	.size	HAL_COMP_Stop_IT, .-HAL_COMP_Stop_IT
	.section	.text.HAL_COMP_Lock,"ax",%progbits
	.align	1
	.global	HAL_COMP_Lock
	.syntax unified
	.thumb
	.thumb_func
	.type	HAL_COMP_Lock, %function
HAL_COMP_Lock:
.LFB344:
	.loc 1 1091 1 is_stmt 1
	.cfi_startproc
	@ args = 0, pretend = 0, frame = 0
	@ frame_needed = 0, uses_anonymous_args = 0
	@ link register save eliminated.
.LVL59:
	.loc 1 1092 2
	.loc 1 1095 3
	.loc 1 1095 5 is_stmt 0
	mov	r3, r0
	cbz	r0, .L80
	.loc 1 1099 8 is_stmt 1
	.loc 1 1099 21 is_stmt 0
	ldr	r2, [r0]
	.loc 1 1099 31
	ldr	r1, [r2]
	.loc 1 1099 10
	cmp	r1, #0
	blt	.L81
	.loc 1 1106 5 is_stmt 1
	.loc 1 1109 5
	.loc 1 1109 17 is_stmt 0
	ldrb	r1, [r0, #37]	@ zero_extendqisi2
	.loc 1 1109 5
	and	r0, r1, #255
.LVL60:
	cbz	r1, .L76
	cmp	r0, #1
	beq	.L77
	.loc 1 1118 9 is_stmt 1
	.loc 1 1118 22 is_stmt 0
	movs	r1, #18
	strb	r1, [r3, #37]
	.loc 1 1119 9 is_stmt 1
	.loc 1 1123 3
	b	.L79
.L76:
	.loc 1 1112 9
	.loc 1 1112 22 is_stmt 0
	movs	r1, #16
	strb	r1, [r3, #37]
	.loc 1 1113 9 is_stmt 1
	.loc 1 1123 3
.L79:
	.loc 1 1126 5
	.loc 1 1126 24 is_stmt 0
	ldr	r3, [r2]
.LVL61:
	.loc 1 1126 32
	orr	r3, r3, #-2147483648
	str	r3, [r2]
	movs	r0, #0
	bx	lr
.LVL62:
.L77:
	.loc 1 1115 9 is_stmt 1
	.loc 1 1115 22 is_stmt 0
	movs	r1, #17
	strb	r1, [r3, #37]
	.loc 1 1116 9 is_stmt 1
	.loc 1 1123 3
	b	.L79
.LVL63:
.L80:
	.loc 1 1097 12 is_stmt 0
	movs	r0, #1
.LVL64:
	bx	lr
.LVL65:
.L81:
	.loc 1 1101 12
	movs	r0, #1
.LVL66:
	.loc 1 1129 3 is_stmt 1
	.loc 1 1130 1 is_stmt 0
	bx	lr
	.cfi_endproc
.LFE344:
	.size	HAL_COMP_Lock, .-HAL_COMP_Lock
	.section	.text.HAL_COMP_GetOutputLevel,"ax",%progbits
	.align	1
	.global	HAL_COMP_GetOutputLevel
	.syntax unified
	.thumb
	.thumb_func
	.type	HAL_COMP_GetOutputLevel, %function
HAL_COMP_GetOutputLevel:
.LFB345:
	.loc 1 1152 1 is_stmt 1
	.cfi_startproc
	@ args = 0, pretend = 0, frame = 0
	@ frame_needed = 0, uses_anonymous_args = 0
	@ link register save eliminated.
.LVL67:
	.loc 1 1154 3
	.loc 1 1156 3
	.loc 1 1156 12 is_stmt 0
	ldr	r2, [r0]
	.loc 1 1156 6
	ldr	r3, .L87
	cmp	r2, r3
	beq	.L86
	.loc 1 1162 5 is_stmt 1
	.loc 1 1162 92 is_stmt 0
	ldr	r3, .L87+4
	ldr	r0, [r3]
.LVL68:
	.loc 1 1162 12
	ubfx	r0, r0, #1, #1
	.loc 1 1164 1
	bx	lr
.LVL69:
.L86:
	.loc 1 1158 5 is_stmt 1
	.loc 1 1158 91 is_stmt 0
	subs	r3, r3, #12
	ldr	r0, [r3]
.LVL70:
	.loc 1 1158 12
	and	r0, r0, #1
	bx	lr
.L88:
	.align	2
.L87:
	.word	1476409356
	.word	1476409344
	.cfi_endproc
.LFE345:
	.size	HAL_COMP_GetOutputLevel, .-HAL_COMP_GetOutputLevel
	.section	.text.HAL_COMP_TriggerCallback,"ax",%progbits
	.align	1
	.weak	HAL_COMP_TriggerCallback
	.syntax unified
	.thumb
	.thumb_func
	.type	HAL_COMP_TriggerCallback, %function
HAL_COMP_TriggerCallback:
.LFB346:
	.loc 1 1172 1 is_stmt 1
	.cfi_startproc
	@ args = 0, pretend = 0, frame = 0
	@ frame_needed = 0, uses_anonymous_args = 0
	@ link register save eliminated.
.LVL71:
	.loc 1 1174 4
	.loc 1 1178 1 is_stmt 0
	bx	lr
	.cfi_endproc
.LFE346:
	.size	HAL_COMP_TriggerCallback, .-HAL_COMP_TriggerCallback
	.section	.text.HAL_COMP_IRQHandler,"ax",%progbits
	.align	1
	.global	HAL_COMP_IRQHandler
	.syntax unified
	.thumb
	.thumb_func
	.type	HAL_COMP_IRQHandler, %function
HAL_COMP_IRQHandler:
.LFB343:
	.loc 1 925 1 is_stmt 1
	.cfi_startproc
	@ args = 0, pretend = 0, frame = 0
	@ frame_needed = 0, uses_anonymous_args = 0
.LVL72:
	push	{r4, lr}
	.cfi_def_cfa_offset 8
	.cfi_offset 4, -8
	.cfi_offset 14, -4
	mov	r4, r0
	.loc 1 927 3
	.loc 1 927 32 is_stmt 0
	ldr	r2, [r0]
	.loc 1 927 144
	ldr	r3, .L101
	cmp	r2, r3
	beq	.L100
	mov	r3, #2097152
.L91:
.LVL73:
	.loc 1 1000 5 is_stmt 1 discriminator 4
	.loc 1 1000 73 is_stmt 0 discriminator 4
	mov	r2, #1476395008
	ldr	r2, [r2, #136]
	.loc 1 1000 7 discriminator 4
	tst	r2, r3
	beq	.L92
	.loc 1 1003 9 is_stmt 1
	.loc 1 1003 95 is_stmt 0
	ldr	r2, .L101+4
	ldr	r2, [r2, #2064]
	.loc 1 1003 11
	tst	r2, #16
	beq	.L93
	.loc 1 1012 11 is_stmt 1
	.loc 1 1012 83 is_stmt 0
	mov	r3, #1476395008
.LVL74:
	mov	r2, #3145728
	str	r2, [r3, #136]
.L94:
	.loc 1 1024 5 is_stmt 1
	mov	r0, r4
.LVL75:
	bl	HAL_COMP_TriggerCallback
.LVL76:
.L92:
	.loc 1 1030 3
	.loc 1 1030 17 is_stmt 0
	ldr	r3, [r4]
	.loc 1 1030 27
	ldr	r3, [r3]
	.loc 1 1030 6
	tst	r3, #64
	beq	.L90
	.loc 1 1033 5 is_stmt 1
	.loc 1 1033 77 is_stmt 0
	ldr	r3, .L101+8
	ldr	r3, [r3]
	.loc 1 1033 128
	tst	r3, #65536
	beq	.L96
	.loc 1 1036 10 is_stmt 1
	.loc 1 1036 84 is_stmt 0
	ldr	r3, .L101+8
	mov	r2, #65536
	str	r2, [r3, #4]
	.loc 1 1039 8 is_stmt 1
	.loc 1 1039 17 is_stmt 0
	ldr	r2, [r4]
	.loc 1 1039 27
	ldr	r3, [r2]
	.loc 1 1039 35
	bic	r3, r3, #64
	str	r3, [r2]
.L96:
	.loc 1 1042 5 is_stmt 1
	.loc 1 1042 77 is_stmt 0
	ldr	r3, .L101+8
	ldr	r3, [r3]
	.loc 1 1042 128
	tst	r3, #131072
	beq	.L97
	.loc 1 1045 8 is_stmt 1
	.loc 1 1045 82 is_stmt 0
	ldr	r3, .L101+8
	mov	r2, #131072
	str	r2, [r3, #4]
	.loc 1 1048 6 is_stmt 1
	.loc 1 1048 15 is_stmt 0
	ldr	r2, [r4]
	.loc 1 1048 25
	ldr	r3, [r2]
	.loc 1 1048 33
	bic	r3, r3, #64
	str	r3, [r2]
.L97:
	.loc 1 1053 5 is_stmt 1
	.loc 1 1053 18 is_stmt 0
	movs	r3, #1
	strb	r3, [r4, #37]
	.loc 1 1059 5 is_stmt 1
	mov	r0, r4
	bl	HAL_COMP_TriggerCallback
.LVL77:
.L90:
	.loc 1 1064 1 is_stmt 0
	pop	{r4, pc}
.LVL78:
.L100:
	.loc 1 927 144
	mov	r3, #1048576
	b	.L91
.LVL79:
.L93:
	.loc 1 1017 11 is_stmt 1
	.loc 1 1017 83 is_stmt 0
	mov	r2, #1476395008
	str	r3, [r2, #136]
	b	.L94
.L102:
	.align	2
.L101:
	.word	1476409356
	.word	1476407296
	.word	1476409344
	.cfi_endproc
.LFE343:
	.size	HAL_COMP_IRQHandler, .-HAL_COMP_IRQHandler
	.section	.text.HAL_COMP_GetState,"ax",%progbits
	.align	1
	.global	HAL_COMP_GetState
	.syntax unified
	.thumb
	.thumb_func
	.type	HAL_COMP_GetState, %function
HAL_COMP_GetState:
.LFB347:
	.loc 1 1205 1 is_stmt 1
	.cfi_startproc
	@ args = 0, pretend = 0, frame = 0
	@ frame_needed = 0, uses_anonymous_args = 0
	@ link register save eliminated.
.LVL80:
	.loc 1 1207 3
	.loc 1 1207 5 is_stmt 0
	cbz	r0, .L105
	.loc 1 1213 3 is_stmt 1
	.loc 1 1216 3
	.loc 1 1216 15 is_stmt 0
	ldrb	r0, [r0, #37]	@ zero_extendqisi2
.LVL81:
	uxtb	r0, r0
	bx	lr
.LVL82:
.L105:
	.loc 1 1209 12
	movs	r0, #0
.LVL83:
	.loc 1 1217 1
	bx	lr
	.cfi_endproc
.LFE347:
	.size	HAL_COMP_GetState, .-HAL_COMP_GetState
	.section	.text.HAL_COMP_GetError,"ax",%progbits
	.align	1
	.global	HAL_COMP_GetError
	.syntax unified
	.thumb
	.thumb_func
	.type	HAL_COMP_GetError, %function
HAL_COMP_GetError:
.LFB348:
	.loc 1 1225 1 is_stmt 1
	.cfi_startproc
	@ args = 0, pretend = 0, frame = 0
	@ frame_needed = 0, uses_anonymous_args = 0
	@ link register save eliminated.
.LVL84:
	.loc 1 1227 3
	.loc 1 1229 3
	.loc 1 1229 15 is_stmt 0
	ldr	r0, [r0, #40]
.LVL85:
	.loc 1 1230 1
	bx	lr
	.cfi_endproc
.LFE348:
	.size	HAL_COMP_GetError, .-HAL_COMP_GetError
	.text
.Letext0:
	.file 2 "m:\\noinstall\\arm-gnu-toolchain-12.2.rel1-mingw-w64-i686-arm-none-eabi\\arm-none-eabi\\include\\machine\\_default_types.h"
	.file 3 "m:\\noinstall\\arm-gnu-toolchain-12.2.rel1-mingw-w64-i686-arm-none-eabi\\arm-none-eabi\\include\\sys\\_stdint.h"
	.file 4 "D:/RTOS/Board/YD-STM32H7xxVx_ClassicV19/cmake-build-debug/_deps/stm32h7xx_cmsis_device-src/Include/stm32h743xx.h"
	.file 5 "D:/RTOS/Board/YD-STM32H7xxVx_ClassicV19/cmake-build-debug/_deps/stm32h7xx_cmsis_device-src/Include/stm32h7xx.h"
	.file 6 "D:/RTOS/Board/YD-STM32H7xxVx_ClassicV19/cmake-build-debug/_deps/stm32h7xx_hal_driver-src/Inc/stm32h7xx_hal_def.h"
	.file 7 "D:/RTOS/Board/YD-STM32H7xxVx_ClassicV19/cmake-build-debug/_deps/stm32h7xx_hal_driver-src/Inc/stm32h7xx_hal_comp.h"
	.file 8 "D:/RTOS/Board/YD-STM32H7xxVx_ClassicV19/cmake-build-debug/_deps/stm32h7xx_cmsis_device-src/Include/system_stm32h7xx.h"