	.cpu cortex-m7
	.arch armv7e-m
	.fpu fpv5-d16
	.eabi_attribute 28, 1
	.eabi_attribute 20, 1
	.eabi_attribute 21, 1
	.eabi_attribute 23, 3
	.eabi_attribute 24, 1
	.eabi_attribute 25, 1
	.eabi_attribute 26, 1
	.eabi_attribute 30, 1
	.eabi_attribute 34, 1
	.eabi_attribute 18, 4
	.file	"stm32h7xx_hal_flash.c"
	.text
.Ltext0:
	.cfi_sections	.debug_frame
	.file 1 "D:/RTOS/Board/YD-STM32H7xxVx_ClassicV19/cmake-build-debug/_deps/stm32h7xx_hal_driver-src/Src/stm32h7xx_hal_flash.c"
	.section	.text.HAL_FLASH_EndOfOperationCallback,"ax",%progbits
	.align	1
	.weak	HAL_FLASH_EndOfOperationCallback
	.syntax unified
	.thumb
	.thumb_func
	.type	HAL_FLASH_EndOfOperationCallback, %function
HAL_FLASH_EndOfOperationCallback:
.LFB338:
	.loc 1 811 1
	.cfi_startproc
	@ args = 0, pretend = 0, frame = 0
	@ frame_needed = 0, uses_anonymous_args = 0
	@ link register save eliminated.
.LVL0:
	.loc 1 813 3
	.loc 1 818 1 is_stmt 0
	bx	lr
	.cfi_endproc
.LFE338:
	.size	HAL_FLASH_EndOfOperationCallback, .-HAL_FLASH_EndOfOperationCallback
	.section	.text.HAL_FLASH_OperationErrorCallback,"ax",%progbits
	.align	1
	.weak	HAL_FLASH_OperationErrorCallback
	.syntax unified
	.thumb
	.thumb_func
	.type	HAL_FLASH_OperationErrorCallback, %function
HAL_FLASH_OperationErrorCallback:
.LFB339:
	.loc 1 829 1 is_stmt 1
	.cfi_startproc
	@ args = 0, pretend = 0, frame = 0
	@ frame_needed = 0, uses_anonymous_args = 0
	@ link register save eliminated.
.LVL1:
	.loc 1 831 3
	.loc 1 836 1 is_stmt 0
	bx	lr
	.cfi_endproc
.LFE339:
	.size	HAL_FLASH_OperationErrorCallback, .-HAL_FLASH_OperationErrorCallback
	.section	.text.HAL_FLASH_IRQHandler,"ax",%progbits
	.align	1
	.global	HAL_FLASH_IRQHandler
	.syntax unified
	.thumb
	.thumb_func
	.type	HAL_FLASH_IRQHandler, %function
HAL_FLASH_IRQHandler:
.LFB337:
	.loc 1 476 1 is_stmt 1
	.cfi_startproc
	@ args = 0, pretend = 0, frame = 0
	@ frame_needed = 0, uses_anonymous_args = 0
	push	{r4, lr}
	.cfi_def_cfa_offset 8
	.cfi_offset 4, -8
	.cfi_offset 14, -4
	.loc 1 477 3
	.loc 1 478 3
	.loc 1 479 3
	.loc 1 482 3
	.loc 1 482 73 is_stmt 0
	ldr	r3, .L32
	ldr	r3, [r3, #16]
	.loc 1 482 5
	tst	r3, #65536
	beq	.L4
	.loc 1 484 5 is_stmt 1
	.loc 1 484 14 is_stmt 0
	ldr	r3, .L32+4
	ldrb	r3, [r3]	@ zero_extendqisi2
	uxtb	r3, r3
	.loc 1 484 7
	cmp	r3, #1
	beq	.L24
	.loc 1 519 7 is_stmt 1
	.loc 1 519 17 is_stmt 0
	ldr	r3, .L32+4
	ldrb	r4, [r3]	@ zero_extendqisi2
	uxtb	r4, r4
.LVL2:
	.loc 1 521 7 is_stmt 1
	.loc 1 521 9 is_stmt 0
	cmp	r4, #7
	it	ne
	cmpne	r4, #2
	beq	.L25
	.loc 1 527 12 is_stmt 1
	.loc 1 527 14 is_stmt 0
	cmp	r4, #3
	beq	.L26
.L8:
	.loc 1 536 7 is_stmt 1
	.loc 1 538 7
	.loc 1 539 52 is_stmt 0
	subs	r4, r4, #4
.LVL3:
	uxtb	r4, r4
.LVL4:
	.loc 1 538 9
	cmp	r4, #2
	bls	.L4
	.loc 1 542 9 is_stmt 1
	.loc 1 542 33 is_stmt 0
	ldr	r3, .L32+4
	movs	r2, #0
	strb	r2, [r3]
	.loc 1 544 9 is_stmt 1
	.loc 1 544 83 is_stmt 0
	ldr	r3, .L32
	mov	r2, #65536
	str	r2, [r3, #20]
.LVL5:
.L4:
	.loc 1 551 3 is_stmt 1
	.loc 1 551 73 is_stmt 0
	ldr	r3, .L32
	ldr	r3, [r3, #272]
	.loc 1 551 5
	tst	r3, #65536
	beq	.L9
	.loc 1 553 5 is_stmt 1
	.loc 1 553 14 is_stmt 0
	ldr	r3, .L32+4
	ldrb	r3, [r3]	@ zero_extendqisi2
	uxtb	r3, r3
	.loc 1 553 7
	cmp	r3, #4
	beq	.L27
	.loc 1 588 7 is_stmt 1
	.loc 1 588 17 is_stmt 0
	ldr	r3, .L32+4
	ldrb	r4, [r3]	@ zero_extendqisi2
	uxtb	r4, r4
.LVL6:
	.loc 1 590 7 is_stmt 1
	.loc 1 590 9 is_stmt 0
	cmp	r4, #7
	it	ne
	cmpne	r4, #5
	beq	.L28
	.loc 1 596 12 is_stmt 1
	.loc 1 596 14 is_stmt 0
	cmp	r4, #6
	beq	.L29
.L13:
	.loc 1 605 7 is_stmt 1
	.loc 1 607 7
	.loc 1 608 52 is_stmt 0
	subs	r4, r4, #1
.LVL7:
	uxtb	r4, r4
.LVL8:
	.loc 1 607 9
	cmp	r4, #2
	bls	.L9
	.loc 1 611 9 is_stmt 1
	.loc 1 611 33 is_stmt 0
	ldr	r3, .L32+4
	movs	r2, #0
	strb	r2, [r3]
	.loc 1 613 9 is_stmt 1
	.loc 1 613 83 is_stmt 0
	ldr	r3, .L32
	mov	r2, #65536
	str	r2, [r3, #276]
.LVL9:
.L9:
	.loc 1 621 3 is_stmt 1
	.loc 1 621 79 is_stmt 0
	ldr	r3, .L32
	ldr	r3, [r3, #16]
.LVL10:
	.loc 1 628 3 is_stmt 1
	.loc 1 628 5 is_stmt 0
	ands	r3, r3, #7208960
.LVL11:
	beq	.L14
	.loc 1 631 5 is_stmt 1
	.loc 1 631 11 is_stmt 0
	ldr	r2, .L32+4
	ldr	r1, [r2, #24]
	.loc 1 631 22
	orrs	r1, r1, r3
	str	r1, [r2, #24]
	.loc 1 634 5 is_stmt 1
	.loc 1 634 79 is_stmt 0
	ldr	r1, .L32
	str	r3, [r1, #20]
	.loc 1 636 5 is_stmt 1
	.loc 1 636 15 is_stmt 0
	ldrb	r3, [r2]	@ zero_extendqisi2
.LVL12:
	uxtb	r3, r3
.LVL13:
	.loc 1 638 5 is_stmt 1
	.loc 1 638 7 is_stmt 0
	cmp	r3, #1
	beq	.L30
	.loc 1 644 10 is_stmt 1
	.loc 1 644 12 is_stmt 0
	cmp	r3, #7
	it	ne
	cmpne	r3, #2
	beq	.L21
	.loc 1 652 7 is_stmt 1
	.loc 1 652 12 is_stmt 0
	ldr	r3, .L32+4
.LVL14:
	ldr	r0, [r3, #16]
.LVL15:
	b	.L16
.LVL16:
.L24:
	.loc 1 487 7 is_stmt 1
	.loc 1 487 13 is_stmt 0
	ldr	r3, .L32+4
	ldr	r2, [r3, #4]
	.loc 1 487 30
	subs	r2, r2, #1
	str	r2, [r3, #4]
	.loc 1 490 7 is_stmt 1
	.loc 1 490 16 is_stmt 0
	ldr	r3, [r3, #4]
	.loc 1 490 9
	cbz	r3, .L6
	.loc 1 493 9 is_stmt 1
	.loc 1 493 48 is_stmt 0
	ldr	r4, .L32+4
	ldr	r0, [r4, #12]
	.loc 1 493 9
	bl	HAL_FLASH_EndOfOperationCallback
.LVL17:
	.loc 1 496 9 is_stmt 1
	.loc 1 496 83 is_stmt 0
	ldr	r3, .L32
	mov	r2, #65536
	str	r2, [r3, #20]
	.loc 1 499 9 is_stmt 1
	.loc 1 499 15 is_stmt 0
	ldr	r3, [r4, #12]
	.loc 1 499 22
	adds	r3, r3, #1
	str	r3, [r4, #12]
	.loc 1 500 9 is_stmt 1
	.loc 1 500 14 is_stmt 0
	ldr	r0, [r4, #12]
.LVL18:
	.loc 1 501 9 is_stmt 1
	.loc 1 501 47 is_stmt 0
	ldr	r2, [r4, #8]
	.loc 1 501 9
	movs	r1, #1
	bl	FLASH_Erase_Sector
.LVL19:
	b	.L4
.LVL20:
.L6:
	.loc 1 507 9 is_stmt 1
	.loc 1 507 23 is_stmt 0
	ldr	r3, .L32+4
	mov	r2, #-1
	str	r2, [r3, #12]
	.loc 1 508 9 is_stmt 1
	.loc 1 508 33 is_stmt 0
	movs	r2, #0
	strb	r2, [r3]
	.loc 1 511 9 is_stmt 1
	.loc 1 511 48 is_stmt 0
	ldr	r0, [r3, #12]
	.loc 1 511 9
	bl	HAL_FLASH_EndOfOperationCallback
.LVL21:
	.loc 1 514 9 is_stmt 1
	.loc 1 514 83 is_stmt 0
	ldr	r3, .L32
	mov	r2, #65536
	str	r2, [r3, #20]
	b	.L4
.LVL22:
.L25:
	.loc 1 525 9 is_stmt 1
	movs	r0, #1
	bl	HAL_FLASH_EndOfOperationCallback
.LVL23:
	b	.L8
.L26:
	.loc 1 531 9
	.loc 1 531 48 is_stmt 0
	ldr	r3, .L32+4
	ldr	r0, [r3, #16]
	.loc 1 531 9
	bl	HAL_FLASH_EndOfOperationCallback
.LVL24:
	b	.L8
.LVL25:
.L27:
	.loc 1 556 7 is_stmt 1
	.loc 1 556 13 is_stmt 0
	ldr	r3, .L32+4
	ldr	r2, [r3, #4]
	.loc 1 556 30
	subs	r2, r2, #1
	str	r2, [r3, #4]
	.loc 1 559 7 is_stmt 1
	.loc 1 559 16 is_stmt 0
	ldr	r3, [r3, #4]
	.loc 1 559 9
	cbz	r3, .L11
	.loc 1 562 9 is_stmt 1
	.loc 1 562 48 is_stmt 0
	ldr	r4, .L32+4
	ldr	r0, [r4, #12]
	.loc 1 562 9
	bl	HAL_FLASH_EndOfOperationCallback
.LVL26:
	.loc 1 565 9 is_stmt 1
	.loc 1 565 83 is_stmt 0
	ldr	r3, .L32
	mov	r2, #65536
	str	r2, [r3, #276]
	.loc 1 568 9 is_stmt 1
	.loc 1 568 15 is_stmt 0
	ldr	r3, [r4, #12]
	.loc 1 568 22
	adds	r3, r3, #1
	str	r3, [r4, #12]
	.loc 1 569 9 is_stmt 1
	.loc 1 569 14 is_stmt 0
	ldr	r0, [r4, #12]
.LVL27:
	.loc 1 570 9 is_stmt 1
	.loc 1 570 47 is_stmt 0
	ldr	r2, [r4, #8]
	.loc 1 570 9
	movs	r1, #2
	bl	FLASH_Erase_Sector
.LVL28:
	b	.L9
.LVL29:
.L11:
	.loc 1 576 9 is_stmt 1
	.loc 1 576 23 is_stmt 0
	ldr	r3, .L32+4
	mov	r2, #-1
	str	r2, [r3, #12]
	.loc 1 577 9 is_stmt 1
	.loc 1 577 33 is_stmt 0
	movs	r2, #0
	strb	r2, [r3]
	.loc 1 580 9 is_stmt 1
	.loc 1 580 48 is_stmt 0
	ldr	r0, [r3, #12]
	.loc 1 580 9
	bl	HAL_FLASH_EndOfOperationCallback
.LVL30:
	.loc 1 583 9 is_stmt 1
	.loc 1 583 83 is_stmt 0
	ldr	r3, .L32
	mov	r2, #65536
	str	r2, [r3, #276]
	b	.L9
.LVL31:
.L28:
	.loc 1 594 9 is_stmt 1
	movs	r0, #2
	bl	HAL_FLASH_EndOfOperationCallback
.LVL32:
	b	.L13
.L29:
	.loc 1 600 9
	.loc 1 600 48 is_stmt 0
	ldr	r3, .L32+4
	ldr	r0, [r3, #16]
	.loc 1 600 9
	bl	HAL_FLASH_EndOfOperationCallback
.LVL33:
	b	.L13
.LVL34:
.L30:
	.loc 1 641 7 is_stmt 1
	.loc 1 641 12 is_stmt 0
	mov	r3, r2
.LVL35:
	ldr	r0, [r2, #12]
.LVL36:
	.loc 1 642 7 is_stmt 1
	.loc 1 642 21 is_stmt 0
	mov	r2, #-1
	str	r2, [r3, #12]
.LVL37:
.L16:
	.loc 1 656 5 is_stmt 1
	.loc 1 656 29 is_stmt 0
	ldr	r3, .L32+4
	movs	r2, #0
	strb	r2, [r3]
.LVL38:
	.loc 1 659 5 is_stmt 1
	bl	HAL_FLASH_OperationErrorCallback
.LVL39:
.L14:
	.loc 1 697 3
	.loc 1 697 79 is_stmt 0
	ldr	r3, .L32
	ldr	r3, [r3, #272]
.LVL40:
	.loc 1 704 3 is_stmt 1
	.loc 1 704 5 is_stmt 0
	ands	r3, r3, #7208960
.LVL41:
	beq	.L17
	.loc 1 707 5 is_stmt 1
	.loc 1 707 11 is_stmt 0
	ldr	r1, .L32+4
	ldr	r2, [r1, #24]
	.loc 1 707 22
	orrs	r2, r2, r3
	orr	r2, r2, #-2147483648
	str	r2, [r1, #24]
	.loc 1 710 5 is_stmt 1
	.loc 1 710 79 is_stmt 0
	ldr	r2, .L32
	str	r3, [r2, #276]
	.loc 1 712 5 is_stmt 1
	.loc 1 712 15 is_stmt 0
	ldrb	r3, [r1]	@ zero_extendqisi2
.LVL42:
	uxtb	r3, r3
.LVL43:
	.loc 1 714 5 is_stmt 1
	.loc 1 714 7 is_stmt 0
	cmp	r3, #4
	beq	.L31
	.loc 1 720 10 is_stmt 1
	.loc 1 720 12 is_stmt 0
	cmp	r3, #7
	it	ne
	cmpne	r3, #5
	beq	.L22
	.loc 1 728 7 is_stmt 1
	.loc 1 728 12 is_stmt 0
	ldr	r3, .L32+4
.LVL44:
	ldr	r0, [r3, #16]
.LVL45:
	b	.L19
.LVL46:
.L21:
	.loc 1 647 12
	movs	r0, #1
	b	.L16
.LVL47:
.L31:
	.loc 1 717 7 is_stmt 1
	.loc 1 717 12 is_stmt 0
	ldr	r0, [r1, #12]
.LVL48:
	.loc 1 718 7 is_stmt 1
	.loc 1 718 21 is_stmt 0
	mov	r2, #-1
.LVL49:
	str	r2, [r1, #12]
.LVL50:
.L19:
	.loc 1 732 5 is_stmt 1
	.loc 1 732 29 is_stmt 0
	ldr	r3, .L32+4
	movs	r2, #0
	strb	r2, [r3]
.LVL51:
	.loc 1 735 5 is_stmt 1
	bl	HAL_FLASH_OperationErrorCallback
.LVL52:
.L17:
	.loc 1 772 3
	.loc 1 772 12 is_stmt 0
	ldr	r3, .L32+4
	ldrb	r3, [r3]	@ zero_extendqisi2
	.loc 1 772 5
	cbnz	r3, .L3
	.loc 1 776 5 is_stmt 1
	.loc 1 776 70 is_stmt 0
	ldr	r3, .L32
	ldr	r2, [r3, #12]
	.loc 1 776 76
	bic	r2, r2, #7274496
	str	r2, [r3, #12]
	.loc 1 781 5 is_stmt 1
	.loc 1 781 70 is_stmt 0
	ldr	r2, [r3, #268]
	.loc 1 781 76
	bic	r2, r2, #7274496
	str	r2, [r3, #268]
	.loc 1 797 5 is_stmt 1
	.loc 1 797 9
	.loc 1 797 25 is_stmt 0
	ldr	r3, .L32+4
	movs	r2, #0
	strb	r2, [r3, #20]
	.loc 1 797 7 is_stmt 1
.L3:
	.loc 1 799 1 is_stmt 0
	pop	{r4, pc}
.LVL53:
.L22:
	.loc 1 723 12
	movs	r0, #2
	b	.L19
.L33:
	.align	2
.L32:
	.word	1375739904
	.word	pFlash
	.cfi_endproc
.LFE337:
	.size	HAL_FLASH_IRQHandler, .-HAL_FLASH_IRQHandler
	.section	.text.HAL_FLASH_Unlock,"ax",%progbits
	.align	1
	.global	HAL_FLASH_Unlock
	.syntax unified
	.thumb
	.thumb_func
	.type	HAL_FLASH_Unlock, %function
HAL_FLASH_Unlock:
.LFB340:
	.loc 1 862 1 is_stmt 1
	.cfi_startproc
	@ args = 0, pretend = 0, frame = 0
	@ frame_needed = 0, uses_anonymous_args = 0
	@ link register save eliminated.
	.loc 1 863 3
	.loc 1 863 72 is_stmt 0
	ldr	r3, .L40
	ldr	r3, [r3, #12]
	.loc 1 863 5
	tst	r3, #1
	beq	.L35
	.loc 1 866 5 is_stmt 1
	.loc 1 866 80 is_stmt 0
	ldr	r3, .L40
	ldr	r2, .L40+4
	str	r2, [r3, #4]
	.loc 1 867 5 is_stmt 1
	.loc 1 867 80 is_stmt 0
	add	r2, r2, #-2004318072
	str	r2, [r3, #4]
	.loc 1 870 5 is_stmt 1
	.loc 1 870 75 is_stmt 0
	ldr	r3, [r3, #12]
	.loc 1 870 8
	tst	r3, #1
	bne	.L37
.L35:
	.loc 1 877 3 is_stmt 1
	.loc 1 877 72 is_stmt 0
	ldr	r3, .L40
	ldr	r3, [r3, #268]
	.loc 1 877 5
	tst	r3, #1
	beq	.L38
	.loc 1 880 5 is_stmt 1
	.loc 1 880 80 is_stmt 0
	ldr	r3, .L40
	ldr	r2, .L40+4
	str	r2, [r3, #260]
	.loc 1 881 5 is_stmt 1
	.loc 1 881 80 is_stmt 0
	add	r2, r2, #-2004318072
	str	r2, [r3, #260]
	.loc 1 884 5 is_stmt 1
	.loc 1 884 75 is_stmt 0
	ldr	r3, [r3, #268]
	.loc 1 884 8
	tst	r3, #1
	bne	.L39
	.loc 1 891 10
	movs	r0, #0
	bx	lr
.L37:
	.loc 1 872 14
	movs	r0, #1
	bx	lr
.L38:
	.loc 1 891 10
	movs	r0, #0
	bx	lr
.L39:
	.loc 1 886 14
	movs	r0, #1
	.loc 1 892 1
	bx	lr
.L41:
	.align	2
.L40:
	.word	1375739904
	.word	1164378403
	.cfi_endproc
.LFE340:
	.size	HAL_FLASH_Unlock, .-HAL_FLASH_Unlock
	.section	.text.HAL_FLASH_Lock,"ax",%progbits
	.align	1
	.global	HAL_FLASH_Lock
	.syntax unified
	.thumb
	.thumb_func
	.type	HAL_FLASH_Lock, %function
HAL_FLASH_Lock:
.LFB341:
	.loc 1 899 1 is_stmt 1
	.cfi_startproc
	@ args = 0, pretend = 0, frame = 0
	@ frame_needed = 0, uses_anonymous_args = 0
	@ link register save eliminated.
	.loc 1 901 3
	.loc 1 901 69 is_stmt 0
	ldr	r3, .L46
	ldr	r2, [r3, #12]
	.loc 1 901 76
	orr	r2, r2, #1
	str	r2, [r3, #12]
	.loc 1 904 3 is_stmt 1
	.loc 1 904 73 is_stmt 0
	ldr	r3, [r3, #12]
	.loc 1 904 6
	tst	r3, #1
	beq	.L44
	.loc 1 911 3 is_stmt 1
	.loc 1 911 69 is_stmt 0
	ldr	r3, .L46
	ldr	r2, [r3, #268]
	.loc 1 911 76
	orr	r2, r2, #1
	str	r2, [r3, #268]
	.loc 1 914 3 is_stmt 1
	.loc 1 914 73 is_stmt 0
	ldr	r3, [r3, #268]
	.loc 1 914 6
	tst	r3, #1
	beq	.L45
	.loc 1 920 10
	movs	r0, #0
	bx	lr
.L44:
	.loc 1 906 12
	movs	r0, #1
	bx	lr
.L45:
	.loc 1 916 12
	movs	r0, #1
	.loc 1 921 1
	bx	lr
.L47:
	.align	2
.L46:
	.word	1375739904
	.cfi_endproc
.LFE341:
	.size	HAL_FLASH_Lock, .-HAL_FLASH_Lock
	.section	.text.HAL_FLASH_OB_Unlock,"ax",%progbits
	.align	1
	.global	HAL_FLASH_OB_Unlock
	.syntax unified
	.thumb
	.thumb_func
	.type	HAL_FLASH_OB_Unlock, %function
HAL_FLASH_OB_Unlock:
.LFB342:
	.loc 1 928 1 is_stmt 1
	.cfi_startproc
	@ args = 0, pretend = 0, frame = 0
	@ frame_needed = 0, uses_anonymous_args = 0
	@ link register save eliminated.
	.loc 1 929 3
	.loc 1 929 72 is_stmt 0
	ldr	r3, .L52
	ldr	r3, [r3, #24]
	.loc 1 929 5
	tst	r3, #1
	beq	.L50
	.loc 1 932 5 is_stmt 1
	.loc 1 932 82 is_stmt 0
	ldr	r3, .L52
	ldr	r2, .L52+4
	str	r2, [r3, #8]
	.loc 1 933 5 is_stmt 1
	.loc 1 933 82 is_stmt 0
	add	r2, r2, #1145324612
	str	r2, [r3, #8]
	.loc 1 936 5 is_stmt 1
	.loc 1 936 75 is_stmt 0
	ldr	r3, [r3, #24]
	.loc 1 936 8
	tst	r3, #1
	bne	.L51
	.loc 1 942 10
	movs	r0, #0
	bx	lr
.L50:
	movs	r0, #0
	bx	lr
.L51:
	.loc 1 938 14
	movs	r0, #1
	.loc 1 943 1
	bx	lr
.L53:
	.align	2
.L52:
	.word	1375739904
	.word	135866939
	.cfi_endproc
.LFE342:
	.size	HAL_FLASH_OB_Unlock, .-HAL_FLASH_OB_Unlock
	.section	.text.HAL_FLASH_OB_Lock,"ax",%progbits
	.align	1
	.global	HAL_FLASH_OB_Lock
	.syntax unified
	.thumb
	.thumb_func
	.type	HAL_FLASH_OB_Lock, %function
HAL_FLASH_OB_Lock:
.LFB343:
	.loc 1 950 1 is_stmt 1
	.cfi_startproc
	@ args = 0, pretend = 0, frame = 0
	@ frame_needed = 0, uses_anonymous_args = 0
	@ link register save eliminated.
	.loc 1 952 3
	.loc 1 952 69 is_stmt 0
	ldr	r3, .L57
	ldr	r2, [r3, #24]
	.loc 1 952 78
	orr	r2, r2, #1
	str	r2, [r3, #24]
	.loc 1 955 3 is_stmt 1
	.loc 1 955 73 is_stmt 0
	ldr	r3, [r3, #24]
	.loc 1 955 6
	tst	r3, #1
	beq	.L56
	.loc 1 960 10
	movs	r0, #0
	bx	lr
.L56:
	.loc 1 957 12
	movs	r0, #1
	.loc 1 961 1
	bx	lr
.L58:
	.align	2
.L57:
	.word	1375739904
	.cfi_endproc
.LFE343:
	.size	HAL_FLASH_OB_Lock, .-HAL_FLASH_OB_Lock
	.section	.text.HAL_FLASH_GetError,"ax",%progbits
	.align	1
	.global	HAL_FLASH_GetError
	.syntax unified
	.thumb
	.thumb_func
	.type	HAL_FLASH_GetError, %function
HAL_FLASH_GetError:
.LFB345:
	.loc 1 1046 1 is_stmt 1
	.cfi_startproc
	@ args = 0, pretend = 0, frame = 0
	@ frame_needed = 0, uses_anonymous_args = 0
	@ link register save eliminated.
	.loc 1 1047 4
	.loc 1 1047 17 is_stmt 0
	ldr	r3, .L60
	ldr	r0, [r3, #24]
	.loc 1 1048 1
	bx	lr
.L61:
	.align	2
.L60:
	.word	pFlash
	.cfi_endproc
.LFE345:
	.size	HAL_FLASH_GetError, .-HAL_FLASH_GetError
	.section	.text.FLASH_WaitForLastOperation,"ax",%progbits
	.align	1
	.global	FLASH_WaitForLastOperation
	.syntax unified
	.thumb
	.thumb_func
	.type	FLASH_WaitForLastOperation, %function
FLASH_WaitForLastOperation:
.LFB346:
	.loc 1 1071 1 is_stmt 1
	.cfi_startproc
	@ args = 0, pretend = 0, frame = 0
	@ frame_needed = 0, uses_anonymous_args = 0
.LVL54:
	push	{r3, r4, r5, r6, r7, lr}
	.cfi_def_cfa_offset 24
	.cfi_offset 3, -24
	.cfi_offset 4, -20
	.cfi_offset 5, -16
	.cfi_offset 6, -12
	.cfi_offset 7, -8
	.cfi_offset 14, -4
	mov	r5, r0
	mov	r6, r1
	.loc 1 1076 3
.LVL55:
	.loc 1 1077 3
	.loc 1 1078 3
	.loc 1 1078 24 is_stmt 0
	bl	HAL_GetTick
.LVL56:
	mov	r7, r0
.LVL57:
	.loc 1 1080 3 is_stmt 1
	.loc 1 1084 3
	.loc 1 1084 6 is_stmt 0
	cmp	r6, #2
	beq	.L84
	.loc 1 1076 12
	movs	r4, #4
	b	.L65
.LVL58:
.L86:
	.loc 1 1095 7 is_stmt 1
	.loc 1 1095 12 is_stmt 0
	bl	HAL_GetTick
.LVL59:
	.loc 1 1095 26
	subs	r0, r0, r7
	.loc 1 1095 9
	cmp	r0, r5
	bhi	.L78
	.loc 1 1095 50 discriminator 1
	cbnz	r5, .L65
	.loc 1 1097 16
	movs	r0, #3
	b	.L66
.LVL60:
.L84:
	.loc 1 1087 13
	ldr	r4, .L91
.LVL61:
	b	.L65
.LVL62:
.L87:
	.loc 1 1091 410 discriminator 1
	ldr	r3, .L91+4
	ldr	r3, [r3, #16]
	.loc 1 1091 9 discriminator 1
	bics	r3, r4, r3
	ite	eq
	moveq	r3, #1
	movne	r3, #0
.L69:
	.loc 1 1091 9 discriminator 4
	cbz	r3, .L85
	.loc 1 1093 5 is_stmt 1
	.loc 1 1093 7 is_stmt 0
	cmp	r5, #-1
	bne	.L86
.LVL63:
.L65:
	.loc 1 1091 9 is_stmt 1
	cmp	r4, #0
	bge	.L87
	.loc 1 1091 515 is_stmt 0 discriminator 2
	ldr	r3, .L91+4
	ldr	r3, [r3, #272]
	.loc 1 1091 553 discriminator 2
	bic	r3, r4, r3
	.loc 1 1091 9 discriminator 2
	bics	r3, r3, #-2147483648
	ite	eq
	moveq	r3, #1
	movne	r3, #0
	b	.L69
.L85:
	.loc 1 1103 3 is_stmt 1
	.loc 1 1103 6 is_stmt 0
	cmp	r6, #1
	beq	.L88
	.loc 1 1110 5 is_stmt 1
	.loc 1 1110 82 is_stmt 0
	ldr	r3, .L91+4
	ldr	r3, [r3, #272]
	.loc 1 1110 441
	bic	r3, r3, #-402653184
	bic	r3, r3, #1048576
	lsrs	r3, r3, #17
	lsls	r3, r3, #17
	.loc 1 1110 15
	orr	r3, r3, #-2147483648
.LVL64:
.L72:
	.loc 1 1115 3 is_stmt 1
	.loc 1 1115 5 is_stmt 0
	bics	r1, r3, #-2147483648
	bne	.L89
	.loc 1 1127 3 is_stmt 1
	.loc 1 1127 5 is_stmt 0
	cmp	r6, #1
	beq	.L90
	.loc 1 1138 5 is_stmt 1
	.loc 1 1138 76 is_stmt 0
	ldr	r3, .L91+4
.LVL65:
	ldr	r3, [r3, #272]
	.loc 1 1138 8
	tst	r3, #65536
	beq	.L81
	.loc 1 1141 7 is_stmt 1
	.loc 1 1141 81 is_stmt 0
	ldr	r3, .L91+4
	mov	r2, #65536
	str	r2, [r3, #276]
	.loc 1 1146 10
	movs	r0, #0
	b	.L66
.LVL66:
.L88:
	.loc 1 1105 5 is_stmt 1
	.loc 1 1105 81 is_stmt 0
	ldr	r3, .L91+4
	ldr	r3, [r3, #16]
	.loc 1 1105 15
	bic	r3, r3, #-402653184
	bic	r3, r3, #1048576
	lsrs	r3, r3, #17
	lsls	r3, r3, #17
.LVL67:
	b	.L72
.L89:
	.loc 1 1118 5 is_stmt 1
	.loc 1 1118 11 is_stmt 0
	ldr	r0, .L91+8
	ldr	r2, [r0, #24]
	.loc 1 1118 22
	orrs	r2, r2, r3
	str	r2, [r0, #24]
	.loc 1 1121 5 is_stmt 1
	.loc 1 1121 434 is_stmt 0
	cmp	r3, #0
	blt	.L74
	.loc 1 1121 417 discriminator 1
	ldr	r2, .L91+4
	str	r3, [r2, #20]
.LVL68:
.L75:
	.loc 1 1123 5 is_stmt 1
	.loc 1 1123 12 is_stmt 0
	movs	r0, #1
.LVL69:
.L66:
	.loc 1 1147 1
	pop	{r3, r4, r5, r6, r7, pc}
.LVL70:
.L74:
	.loc 1 1121 510 discriminator 2
	ldr	r3, .L91+4
.LVL71:
	str	r1, [r3, #276]
	b	.L75
.LVL72:
.L90:
	.loc 1 1129 5 is_stmt 1
	.loc 1 1129 76 is_stmt 0
	ldr	r3, .L91+4
.LVL73:
	ldr	r3, [r3, #16]
	.loc 1 1129 8
	tst	r3, #65536
	beq	.L80
	.loc 1 1132 7 is_stmt 1
	.loc 1 1132 81 is_stmt 0
	ldr	r3, .L91+4
	mov	r2, #65536
	str	r2, [r3, #20]
	.loc 1 1146 10
	movs	r0, #0
	b	.L66
.LVL74:
.L78:
	.loc 1 1097 16
	movs	r0, #3
	b	.L66
.LVL75:
.L80:
	.loc 1 1146 10
	movs	r0, #0
	b	.L66
.L81:
	movs	r0, #0
	b	.L66
.L92:
	.align	2
.L91:
	.word	-2147483644
	.word	1375739904
	.word	pFlash
	.cfi_endproc
.LFE346:
	.size	FLASH_WaitForLastOperation, .-FLASH_WaitForLastOperation
	.section	.text.HAL_FLASH_Program,"ax",%progbits
	.align	1
	.global	HAL_FLASH_Program
	.syntax unified
	.thumb
	.thumb_func
	.type	HAL_FLASH_Program, %function
HAL_FLASH_Program:
.LFB335:
	.loc 1 155 1 is_stmt 1
	.cfi_startproc
	@ args = 0, pretend = 0, frame = 0
	@ frame_needed = 0, uses_anonymous_args = 0
.LVL76:
	.loc 1 156 3
	.loc 1 157 3
	.loc 1 158 3
	.loc 1 159 3
	.loc 1 160 3
	.loc 1 163 3
	.loc 1 164 3
	.loc 1 167 3
	.loc 1 167 7
	.loc 1 167 19 is_stmt 0
	ldr	r3, .L110
	ldrb	r3, [r3, #20]	@ zero_extendqisi2
	.loc 1 167 9
	cmp	r3, #1
	beq	.L101
	.loc 1 155 1 discriminator 2
	push	{r4, r5, r6, lr}
	.cfi_def_cfa_offset 16
	.cfi_offset 4, -16
	.cfi_offset 5, -12
	.cfi_offset 6, -8
	.cfi_offset 14, -4
	mov	r5, r1
	mov	r4, r2
	.loc 1 167 69 is_stmt 1 discriminator 2
	.loc 1 167 85 is_stmt 0 discriminator 2
	ldr	r3, .L110
	movs	r2, #1
.LVL77:
	strb	r2, [r3, #20]
	.loc 1 167 5 is_stmt 1 discriminator 2
	.loc 1 172 3 discriminator 2
	.loc 1 172 42 is_stmt 0 discriminator 2
	add	r3, r1, #-134217728
	.loc 1 172 5 discriminator 2
	cmp	r3, #1048576
	bcc	.L102
	.loc 1 180 8 is_stmt 1
	.loc 1 180 48 is_stmt 0
	sub	r1, r1, #135266304
.LVL78:
	.loc 1 180 10
	cmp	r1, #1048576
	bcs	.L103
	.loc 1 182 10
	movs	r6, #2
.L95:
.LVL79:
	.loc 1 191 3 is_stmt 1
	.loc 1 191 20 is_stmt 0
	ldr	r3, .L110
	movs	r2, #0
	str	r2, [r3, #24]
	.loc 1 194 3 is_stmt 1
	.loc 1 194 12 is_stmt 0
	mov	r1, r6
	movw	r0, #50000
.LVL80:
	bl	FLASH_WaitForLastOperation
.LVL81:
	.loc 1 196 3 is_stmt 1
	.loc 1 196 5 is_stmt 0
	cbnz	r0, .L96
	.loc 1 199 5 is_stmt 1
	.loc 1 199 7 is_stmt 0
	cmp	r6, #1
	beq	.L108
	.loc 1 217 7 is_stmt 1
	.loc 1 217 73 is_stmt 0
	ldr	r2, .L110+4
	ldr	r3, [r2, #268]
	.loc 1 217 80
	orr	r3, r3, #2
	str	r3, [r2, #268]
.L98:
	.loc 1 234 5 is_stmt 1
.LBB18:
.LBB19:
	.file 2 "d:\\rtos\\board\\yd-stm32h7xxvx_classicv19\\cmake-build-debug\\_deps\\stm32h7xx_cmsis_include\\drivers\\cmsis\\include\\cmsis_gcc.h"
	.loc 2 935 3
	.syntax unified
@ 935 "d:\rtos\board\yd-stm32h7xxvx_classicv19\cmake-build-debug\_deps\stm32h7xx_cmsis_include\drivers\cmsis\include\cmsis_gcc.h" 1
	isb 0xF
@ 0 "" 2
	.thumb
	.syntax unified
.LBE19:
.LBE18:
	.loc 1 235 5
.LBB20:
.LBB21:
	.loc 2 946 3
	.syntax unified
@ 946 "d:\rtos\board\yd-stm32h7xxvx_classicv19\cmake-build-debug\_deps\stm32h7xx_cmsis_include\drivers\cmsis\include\cmsis_gcc.h" 1
	dsb 0xF
@ 0 "" 2
	.thumb
	.syntax unified
.LBE21:
.LBE20:
	.loc 1 160 11 is_stmt 0
	movs	r3, #8
.LVL82:
.L99:
	.loc 1 247 7 is_stmt 1 discriminator 1
	.loc 1 249 9 discriminator 1
	.loc 1 249 22 is_stmt 0 discriminator 1
	ldr	r2, [r4], #4
.LVL83:
	.loc 1 249 20 discriminator 1
	str	r2, [r5], #4
.LVL84:
	.loc 1 250 9 is_stmt 1 discriminator 1
	.loc 1 251 9 discriminator 1
	.loc 1 252 9 discriminator 1
	.loc 1 252 18 is_stmt 0 discriminator 1
	subs	r3, r3, #1
.LVL85:
	.loc 1 253 25 is_stmt 1 discriminator 1
	ands	r3, r3, #255
.LVL86:
	bne	.L99
	.loc 1 256 5
.LBB22:
.LBB23:
	.loc 2 935 3
	.syntax unified
@ 935 "d:\rtos\board\yd-stm32h7xxvx_classicv19\cmake-build-debug\_deps\stm32h7xx_cmsis_include\drivers\cmsis\include\cmsis_gcc.h" 1
	isb 0xF
@ 0 "" 2
	.thumb
	.syntax unified
.LBE23:
.LBE22:
	.loc 1 257 5
.LBB24:
.LBB25:
	.loc 2 946 3
	.syntax unified
@ 946 "d:\rtos\board\yd-stm32h7xxvx_classicv19\cmake-build-debug\_deps\stm32h7xx_cmsis_include\drivers\cmsis\include\cmsis_gcc.h" 1
	dsb 0xF
@ 0 "" 2
	.thumb
	.syntax unified
.LBE25:
.LBE24:
	.loc 1 260 5
	.loc 1 260 14 is_stmt 0
	mov	r1, r6
	movw	r0, #50000
.LVL87:
	bl	FLASH_WaitForLastOperation
.LVL88:
	.loc 1 272 7 is_stmt 1
	.loc 1 272 9 is_stmt 0
	cmp	r6, #1
	beq	.L109
	.loc 1 280 9 is_stmt 1
	.loc 1 280 75 is_stmt 0
	ldr	r2, .L110+4
	ldr	r3, [r2, #268]
	.loc 1 280 82
	bic	r3, r3, #2
	str	r3, [r2, #268]
.LVL89:
.L96:
	.loc 1 300 3 is_stmt 1
	.loc 1 300 7
	.loc 1 300 23 is_stmt 0
	ldr	r3, .L110
	movs	r2, #0
	strb	r2, [r3, #20]
	.loc 1 300 5 is_stmt 1
	.loc 1 302 3
.LVL90:
.L94:
	.loc 1 303 1 is_stmt 0
	pop	{r4, r5, r6, pc}
.LVL91:
.L102:
	.loc 1 175 10
	movs	r6, #1
	b	.L95
.LVL92:
.L108:
	.loc 1 211 9 is_stmt 1
	.loc 1 211 75 is_stmt 0
	ldr	r2, .L110+4
	ldr	r3, [r2, #12]
	.loc 1 211 82
	orr	r3, r3, #2
	str	r3, [r2, #12]
	b	.L98
.LVL93:
.L109:
	.loc 1 275 9 is_stmt 1
	.loc 1 275 75 is_stmt 0
	ldr	r2, .L110+4
	ldr	r3, [r2, #12]
	.loc 1 275 82
	bic	r3, r3, #2
	str	r3, [r2, #12]
	b	.L96
.LVL94:
.L101:
	.cfi_def_cfa_offset 0
	.cfi_restore 4
	.cfi_restore 5
	.cfi_restore 6
	.cfi_restore 14
	.loc 1 167 50
	movs	r0, #2
.LVL95:
	.loc 1 303 1
	bx	lr
.LVL96:
.L103:
	.cfi_def_cfa_offset 16
	.cfi_offset 4, -16
	.cfi_offset 5, -12
	.cfi_offset 6, -8
	.cfi_offset 14, -4
	.loc 1 187 12
	movs	r0, #1
.LVL97:
	b	.L94
.L111:
	.align	2
.L110:
	.word	pFlash
	.word	1375739904
	.cfi_endproc
.LFE335:
	.size	HAL_FLASH_Program, .-HAL_FLASH_Program
	.section	.text.HAL_FLASH_Program_IT,"ax",%progbits
	.align	1
	.global	HAL_FLASH_Program_IT
	.syntax unified
	.thumb
	.thumb_func
	.type	HAL_FLASH_Program_IT, %function
HAL_FLASH_Program_IT:
.LFB336:
	.loc 1 320 1 is_stmt 1
	.cfi_startproc
	@ args = 0, pretend = 0, frame = 0
	@ frame_needed = 0, uses_anonymous_args = 0
.LVL98:
	push	{r3, r4, r5, r6, r7, lr}
	.cfi_def_cfa_offset 24
	.cfi_offset 3, -24
	.cfi_offset 4, -20
	.cfi_offset 5, -16
	.cfi_offset 6, -12
	.cfi_offset 7, -8
	.cfi_offset 14, -4
	.loc 1 321 3
	.loc 1 322 3
.LVL99:
	.loc 1 323 3
	.loc 1 324 3
	.loc 1 325 3
	.loc 1 328 3
	.loc 1 329 3
	.loc 1 332 3
	.loc 1 332 7
	.loc 1 332 19 is_stmt 0
	ldr	r3, .L124
	ldrb	r3, [r3, #20]	@ zero_extendqisi2
	.loc 1 332 9
	cmp	r3, #1
	beq	.L119
	mov	r6, r1
	mov	r5, r1
	mov	r4, r2
	.loc 1 332 69 is_stmt 1 discriminator 2
	.loc 1 332 85 is_stmt 0 discriminator 2
	ldr	r3, .L124
	movs	r2, #1
.LVL100:
	strb	r2, [r3, #20]
	.loc 1 332 5 is_stmt 1 discriminator 2
	.loc 1 335 3 discriminator 2
	.loc 1 335 20 is_stmt 0 discriminator 2
	movs	r2, #0
	str	r2, [r3, #24]
	.loc 1 340 3 is_stmt 1 discriminator 2
	.loc 1 340 42 is_stmt 0 discriminator 2
	add	r3, r1, #-134217728
	.loc 1 340 5 discriminator 2
	cmp	r3, #1048576
	bcc	.L120
	.loc 1 348 8 is_stmt 1
	.loc 1 348 48 is_stmt 0
	sub	r3, r1, #135266304
	.loc 1 348 10
	cmp	r3, #1048576
	bcs	.L121
	.loc 1 350 10
	movs	r7, #2
.L114:
.LVL101:
	.loc 1 359 3 is_stmt 1
	.loc 1 359 12 is_stmt 0
	mov	r1, r7
.LVL102:
	movw	r0, #50000
.LVL103:
	bl	FLASH_WaitForLastOperation
.LVL104:
	.loc 1 361 3 is_stmt 1
	.loc 1 361 6 is_stmt 0
	cbz	r0, .L115
	.loc 1 364 5 is_stmt 1
	.loc 1 364 9
	.loc 1 364 25 is_stmt 0
	ldr	r3, .L124
	movs	r2, #0
	strb	r2, [r3, #20]
	.loc 1 364 7 is_stmt 1
.LVL105:
.L113:
	.loc 1 469 1 is_stmt 0
	pop	{r3, r4, r5, r6, r7, pc}
.LVL106:
.L120:
	.loc 1 343 10
	movs	r7, #1
	b	.L114
.LVL107:
.L115:
	.loc 1 368 5 is_stmt 1
	.loc 1 368 20 is_stmt 0
	ldr	r3, .L124
	str	r6, [r3, #16]
	.loc 1 371 5 is_stmt 1
	.loc 1 371 7 is_stmt 0
	cmp	r7, #1
	beq	.L123
	.loc 1 401 7 is_stmt 1
	.loc 1 401 31 is_stmt 0
	ldr	r3, .L124
	movs	r2, #6
	strb	r2, [r3]
	.loc 1 404 7 is_stmt 1
	.loc 1 404 73 is_stmt 0
	ldr	r3, .L124+4
	ldr	r2, [r3, #268]
	.loc 1 404 80
	orr	r2, r2, #2
	str	r2, [r3, #268]
	.loc 1 408 7 is_stmt 1
	.loc 1 408 72 is_stmt 0
	ldr	r2, [r3, #268]
	.loc 1 408 78
	orr	r2, r2, #7274496
	str	r2, [r3, #268]
.L117:
	.loc 1 442 5 is_stmt 1
.LBB26:
.LBB27:
	.loc 2 935 3
	.syntax unified
@ 935 "d:\rtos\board\yd-stm32h7xxvx_classicv19\cmake-build-debug\_deps\stm32h7xx_cmsis_include\drivers\cmsis\include\cmsis_gcc.h" 1
	isb 0xF
@ 0 "" 2
	.thumb
	.syntax unified
.LBE27:
.LBE26:
	.loc 1 443 5
.LBB28:
.LBB29:
	.loc 2 946 3
	.syntax unified
@ 946 "d:\rtos\board\yd-stm32h7xxvx_classicv19\cmake-build-debug\_deps\stm32h7xx_cmsis_include\drivers\cmsis\include\cmsis_gcc.h" 1
	dsb 0xF
@ 0 "" 2
	.thumb
	.syntax unified
.LBE29:
.LBE28:
	.loc 1 325 11 is_stmt 0
	movs	r3, #8
.LVL108:
.L118:
	.loc 1 455 7 is_stmt 1 discriminator 1
	.loc 1 457 9 discriminator 1
	.loc 1 457 22 is_stmt 0 discriminator 1
	ldr	r2, [r4], #4
.LVL109:
	.loc 1 457 20 discriminator 1
	str	r2, [r5], #4
.LVL110:
	.loc 1 458 9 is_stmt 1 discriminator 1
	.loc 1 459 9 discriminator 1
	.loc 1 460 9 discriminator 1
	.loc 1 460 18 is_stmt 0 discriminator 1
	subs	r3, r3, #1
.LVL111:
	.loc 1 461 26 is_stmt 1 discriminator 1
	ands	r3, r3, #255
.LVL112:
	bne	.L118
	.loc 1 464 5
.LBB30:
.LBB31:
	.loc 2 935 3
	.syntax unified
@ 935 "d:\rtos\board\yd-stm32h7xxvx_classicv19\cmake-build-debug\_deps\stm32h7xx_cmsis_include\drivers\cmsis\include\cmsis_gcc.h" 1
	isb 0xF
@ 0 "" 2
	.thumb
	.syntax unified
.LBE31:
.LBE30:
	.loc 1 465 5
.LBB32:
.LBB33:
	.loc 2 946 3
	.syntax unified
@ 946 "d:\rtos\board\yd-stm32h7xxvx_classicv19\cmake-build-debug\_deps\stm32h7xx_cmsis_include\drivers\cmsis\include\cmsis_gcc.h" 1
	dsb 0xF
@ 0 "" 2
	.loc 2 947 1 is_stmt 0
	.thumb
	.syntax unified
	b	.L113
.LVL113:
.L123:
.LBE33:
.LBE32:
	.loc 1 374 7 is_stmt 1
	.loc 1 374 31 is_stmt 0
	movs	r2, #3
	strb	r2, [r3]
	.loc 1 386 9 is_stmt 1
	.loc 1 386 75 is_stmt 0
	ldr	r3, .L124+4
	ldr	r2, [r3, #12]
	.loc 1 386 82
	orr	r2, r2, #2
	str	r2, [r3, #12]
	.loc 1 391 7 is_stmt 1
	.loc 1 391 72 is_stmt 0
	ldr	r2, [r3, #12]
	.loc 1 391 78
	orr	r2, r2, #7274496
	str	r2, [r3, #12]
	b	.L117
.LVL114:
.L119:
	.loc 1 332 50
	movs	r0, #2
.LVL115:
	b	.L113
.LVL116:
.L121:
	.loc 1 355 12
	movs	r0, #1
.LVL117:
	b	.L113
.L125:
	.align	2
.L124:
	.word	pFlash
	.word	1375739904
	.cfi_endproc
.LFE336:
	.size	HAL_FLASH_Program_IT, .-HAL_FLASH_Program_IT
	.section	.text.FLASH_OB_WaitForLastOperation,"ax",%progbits
	.align	1
	.global	FLASH_OB_WaitForLastOperation
	.syntax unified
	.thumb
	.thumb_func
	.type	FLASH_OB_WaitForLastOperation, %function
FLASH_OB_WaitForLastOperation:
.LFB347:
	.loc 1 1155 1 is_stmt 1
	.cfi_startproc
	@ args = 0, pretend = 0, frame = 0
	@ frame_needed = 0, uses_anonymous_args = 0
.LVL118:
	push	{r3, r4, r5, lr}
	.cfi_def_cfa_offset 16
	.cfi_offset 3, -16
	.cfi_offset 4, -12
	.cfi_offset 5, -8
	.cfi_offset 14, -4
	mov	r4, r0
	.loc 1 1157 3
	.loc 1 1157 24 is_stmt 0
	bl	HAL_GetTick
.LVL119:
	mov	r5, r0
.LVL120:
	.loc 1 1160 3 is_stmt 1
.L128:
	.loc 1 1160 109
	.loc 1 1160 75 is_stmt 0
	ldr	r3, .L137
	ldr	r3, [r3, #28]
	.loc 1 1160 109
	tst	r3, #1
	beq	.L135
	.loc 1 1162 5 is_stmt 1
	.loc 1 1162 7 is_stmt 0
	cmp	r4, #-1
	beq	.L128
	.loc 1 1164 7 is_stmt 1
	.loc 1 1164 12 is_stmt 0
	bl	HAL_GetTick
.LVL121:
	.loc 1 1164 26
	subs	r0, r0, r5
	.loc 1 1164 9
	cmp	r0, r4
	bhi	.L131
	.loc 1 1164 50 discriminator 1
	cmp	r4, #0
	bne	.L128
	.loc 1 1166 16
	movs	r0, #3
	b	.L129
.L135:
	.loc 1 1172 3 is_stmt 1
	.loc 1 1172 72 is_stmt 0
	ldr	r3, .L137
	ldr	r3, [r3, #28]
	.loc 1 1172 5
	tst	r3, #1073741824
	bne	.L136
	.loc 1 1184 10
	movs	r0, #0
.L129:
	.loc 1 1185 1
	pop	{r3, r4, r5, pc}
.LVL122:
.L136:
	.loc 1 1175 5 is_stmt 1
	.loc 1 1175 11 is_stmt 0
	ldr	r2, .L137+4
	ldr	r3, [r2, #24]
	.loc 1 1175 22
	orr	r3, r3, #1073741824
	str	r3, [r2, #24]
	.loc 1 1178 5 is_stmt 1
	.loc 1 1178 69 is_stmt 0
	ldr	r2, .L137
	ldr	r3, [r2, #36]
	.loc 1 1178 78
	orr	r3, r3, #1073741824
	str	r3, [r2, #36]
	.loc 1 1180 5 is_stmt 1
	.loc 1 1180 12 is_stmt 0
	movs	r0, #1
	b	.L129
.L131:
	.loc 1 1166 16
	movs	r0, #3
	b	.L129
.L138:
	.align	2
.L137:
	.word	1375739904
	.word	pFlash
	.cfi_endproc
.LFE347:
	.size	FLASH_OB_WaitForLastOperation, .-FLASH_OB_WaitForLastOperation
	.section	.text.FLASH_CRC_WaitForLastOperation,"ax",%progbits
	.align	1
	.global	FLASH_CRC_WaitForLastOperation
	.syntax unified
	.thumb
	.thumb_func
	.type	FLASH_CRC_WaitForLastOperation, %function
FLASH_CRC_WaitForLastOperation:
.LFB348:
	.loc 1 1194 1 is_stmt 1
	.cfi_startproc
	@ args = 0, pretend = 0, frame = 0
	@ frame_needed = 0, uses_anonymous_args = 0
.LVL123:
	push	{r3, r4, r5, r6, r7, lr}
	.cfi_def_cfa_offset 24
	.cfi_offset 3, -24
	.cfi_offset 4, -20
	.cfi_offset 5, -16
	.cfi_offset 6, -12
	.cfi_offset 7, -8
	.cfi_offset 14, -4
	mov	r5, r0
	mov	r6, r1
	.loc 1 1195 3
	.loc 1 1196 3
	.loc 1 1196 24 is_stmt 0
	bl	HAL_GetTick
.LVL124:
	mov	r7, r0
.LVL125:
	.loc 1 1198 3 is_stmt 1
	.loc 1 1201 3
	.loc 1 1201 5 is_stmt 0
	cmp	r6, #1
	beq	.L140
	.loc 1 1207 13
	ldr	r4, .L160
	b	.L142
.LVL126:
.L155:
	.loc 1 1215 7 is_stmt 1
	.loc 1 1215 12 is_stmt 0
	bl	HAL_GetTick
.LVL127:
	.loc 1 1215 26
	subs	r0, r0, r7
	.loc 1 1215 9
	cmp	r0, r5
	bhi	.L149
	.loc 1 1215 50 discriminator 1
	cbnz	r5, .L142
	.loc 1 1217 16
	movs	r0, #3
	b	.L143
.LVL128:
.L140:
	.loc 1 1203 13
	movs	r4, #8
	b	.L142
.LVL129:
.L156:
	.loc 1 1211 410 discriminator 1
	ldr	r3, .L160+4
	ldr	r3, [r3, #16]
	.loc 1 1211 9 discriminator 1
	bics	r3, r4, r3
	ite	eq
	moveq	r3, #1
	movne	r3, #0
.L146:
	.loc 1 1211 9 discriminator 4
	cbz	r3, .L154
	.loc 1 1213 5 is_stmt 1
	.loc 1 1213 7 is_stmt 0
	cmp	r5, #-1
	bne	.L155
.LVL130:
.L142:
	.loc 1 1211 9 is_stmt 1
	cmp	r4, #0
	bge	.L156
	.loc 1 1211 515 is_stmt 0 discriminator 2
	ldr	r3, .L160+4
	ldr	r3, [r3, #272]
	.loc 1 1211 553 discriminator 2
	bic	r3, r4, r3
	.loc 1 1211 9 discriminator 2
	bics	r3, r3, #-2147483648
	ite	eq
	moveq	r3, #1
	movne	r3, #0
	b	.L146
.L154:
	.loc 1 1223 3 is_stmt 1
	.loc 1 1223 5 is_stmt 0
	cmp	r6, #1
	beq	.L157
	.loc 1 1239 5 is_stmt 1
	.loc 1 1239 76 is_stmt 0
	ldr	r3, .L160+4
	ldr	r3, [r3, #272]
	.loc 1 1239 8
	tst	r3, #268435456
	bne	.L158
	.loc 1 1253 10
	movs	r0, #0
.L143:
	.loc 1 1254 1
	pop	{r3, r4, r5, r6, r7, pc}
.LVL131:
.L157:
	.loc 1 1225 5 is_stmt 1
	.loc 1 1225 76 is_stmt 0
	ldr	r3, .L160+4
	ldr	r3, [r3, #16]
	.loc 1 1225 8
	tst	r3, #268435456
	bne	.L159
	.loc 1 1253 10
	movs	r0, #0
	b	.L143
.L159:
	.loc 1 1228 7 is_stmt 1
	.loc 1 1228 13 is_stmt 0
	ldr	r2, .L160+8
	ldr	r3, [r2, #24]
	.loc 1 1228 24
	orr	r3, r3, #268435456
	str	r3, [r2, #24]
	.loc 1 1231 7 is_stmt 1
	.loc 1 1231 81 is_stmt 0
	ldr	r3, .L160+4
	mov	r2, #268435456
	str	r2, [r3, #20]
	.loc 1 1233 7 is_stmt 1
	.loc 1 1233 14 is_stmt 0
	movs	r0, #1
	b	.L143
.L158:
	.loc 1 1242 7 is_stmt 1
	.loc 1 1242 13 is_stmt 0
	ldr	r2, .L160+8
	ldr	r3, [r2, #24]
	.loc 1 1242 24
	orr	r3, r3, #-1879048192
	str	r3, [r2, #24]
	.loc 1 1245 7 is_stmt 1
	.loc 1 1245 81 is_stmt 0
	ldr	r3, .L160+4
	mov	r2, #268435456
	str	r2, [r3, #276]
	.loc 1 1247 7 is_stmt 1
	.loc 1 1247 14 is_stmt 0
	movs	r0, #1
	b	.L143
.L149:
	.loc 1 1217 16
	movs	r0, #3
	b	.L143
.L161:
	.align	2
.L160:
	.word	-2147483640
	.word	1375739904
	.word	pFlash
	.cfi_endproc
.LFE348:
	.size	FLASH_CRC_WaitForLastOperation, .-FLASH_CRC_WaitForLastOperation
	.section	.text.HAL_FLASH_OB_Launch,"ax",%progbits
	.align	1
	.global	HAL_FLASH_OB_Launch
	.syntax unified
	.thumb
	.thumb_func
	.type	HAL_FLASH_OB_Launch, %function
HAL_FLASH_OB_Launch:
.LFB344:
	.loc 1 968 1 is_stmt 1
	.cfi_startproc
	@ args = 0, pretend = 0, frame = 0
	@ frame_needed = 0, uses_anonymous_args = 0
	push	{r3, lr}
	.cfi_def_cfa_offset 8
	.cfi_offset 3, -8
	.cfi_offset 14, -4
	.loc 1 969 3
	.loc 1 972 3
	.loc 1 972 7 is_stmt 0
	movs	r1, #1
	movw	r0, #50000
	bl	FLASH_CRC_WaitForLastOperation
.LVL132:
	.loc 1 972 6
	cbz	r0, .L167
	.loc 1 974 12
	movs	r0, #1
.L163:
.LVL133:
	.loc 1 996 3 is_stmt 1
	.loc 1 997 1 is_stmt 0
	pop	{r3, pc}
.LVL134:
.L167:
	.loc 1 977 8 is_stmt 1
	.loc 1 977 12 is_stmt 0
	movs	r1, #2
	movw	r0, #50000
	bl	FLASH_CRC_WaitForLastOperation
.LVL135:
	.loc 1 977 11
	cbz	r0, .L168
	.loc 1 979 12
	movs	r0, #1
	b	.L163
.L168:
	.loc 1 984 5 is_stmt 1
.LVL136:
	.loc 1 987 3
	.loc 1 990 5
	.loc 1 990 71 is_stmt 0
	ldr	r2, .L169
	ldr	r3, [r2, #24]
	.loc 1 990 80
	orr	r3, r3, #2
	str	r3, [r2, #24]
	.loc 1 993 5 is_stmt 1
	.loc 1 993 14 is_stmt 0
	movw	r0, #50000
	bl	FLASH_OB_WaitForLastOperation
.LVL137:
	b	.L163
.L170:
	.align	2
.L169:
	.word	1375739904
	.cfi_endproc
.LFE344:
	.size	HAL_FLASH_OB_Launch, .-HAL_FLASH_OB_Launch
	.global	pFlash
	.section	.bss.pFlash,"aw",%nobits
	.align	2
	.type	pFlash, %object
	.size	pFlash, 28
pFlash:
	.space	28
	.text
.Letext0:
	.file 3 "m:\\noinstall\\arm-gnu-toolchain-12.2.rel1-mingw-w64-i686-arm-none-eabi\\arm-none-eabi\\include\\machine\\_default_types.h"
	.file 4 "m:\\noinstall\\arm-gnu-toolchain-12.2.rel1-mingw-w64-i686-arm-none-eabi\\arm-none-eabi\\include\\sys\\_stdint.h"
	.file 5 "D:/RTOS/Board/YD-STM32H7xxVx_ClassicV19/cmake-build-debug/_deps/stm32h7xx_cmsis_device-src/Include/stm32h743xx.h"
	.file 6 "D:/RTOS/Board/YD-STM32H7xxVx_ClassicV19/cmake-build-debug/_deps/stm32h7xx_cmsis_device-src/Include/stm32h7xx.h"
	.file 7 "D:/RTOS/Board/YD-STM32H7xxVx_ClassicV19/cmake-build-debug/_deps/stm32h7xx_hal_driver-src/Inc/stm32h7xx_hal_def.h"
	.file 8 "D:/RTOS/Board/YD-STM32H7xxVx_ClassicV19/cmake-build-debug/_deps/stm32h7xx_hal_driver-src/Inc/stm32h7xx_hal_flash.h"
	.file 9 "D:/RTOS/Board/YD-STM32H7xxVx_ClassicV19/cmake-build-debug/_deps/stm32h7xx_hal_driver-src/Inc/stm32h7xx_hal.h"
	.file 10 "D:/RTOS/Board/YD-STM32H7xxVx_ClassicV19/cmake-build-debug/_deps/stm32h7xx_hal_driver-src/Inc/stm32h7xx_hal_flash_ex.h"