	.cpu cortex-m7
	.arch armv7e-m
	.fpu fpv5-d16
	.eabi_attribute 28, 1
	.eabi_attribute 20, 1
	.eabi_attribute 21, 1
	.eabi_attribute 23, 3
	.eabi_attribute 24, 1
	.eabi_attribute 25, 1
	.eabi_attribute 26, 1
	.eabi_attribute 30, 1
	.eabi_attribute 34, 1
	.eabi_attribute 18, 4
	.file	"stm32h7xx_hal_smbus.c"
	.text
.Ltext0:
	.cfi_sections	.debug_frame
	.file 1 "D:/RTOS/Board/YD-STM32H7xxVx_ClassicV19/cmake-build-debug/_deps/stm32h7xx_hal_driver-src/Src/stm32h7xx_hal_smbus.c"
	.section	.text.SMBUS_Enable_IRQ,"ax",%progbits
	.align	1
	.syntax unified
	.thumb
	.thumb_func
	.type	SMBUS_Enable_IRQ, %function
SMBUS_Enable_IRQ:
.LFB364:
	.loc 1 2444 1
	.cfi_startproc
	@ args = 0, pretend = 0, frame = 0
	@ frame_needed = 0, uses_anonymous_args = 0
	@ link register save eliminated.
.LVL0:
	.loc 1 2445 3
	.loc 1 2447 3
	.loc 1 2447 6 is_stmt 0
	ands	r3, r1, #128
	beq	.L2
	.loc 1 2450 12
	movs	r3, #128
.L2:
.LVL1:
	.loc 1 2453 3 is_stmt 1
	.loc 1 2453 25 is_stmt 0
	and	r2, r1, #56
	.loc 1 2453 6
	cmp	r2, #56
	beq	.L7
.L3:
	.loc 1 2459 3 is_stmt 1
	.loc 1 2459 25 is_stmt 0
	and	r2, r1, #242
	.loc 1 2459 6
	cmp	r2, #242
	beq	.L8
.L4:
	.loc 1 2465 3 is_stmt 1
	.loc 1 2465 25 is_stmt 0
	and	r1, r1, #212
.LVL2:
	.loc 1 2465 6
	cmp	r1, #212
	beq	.L9
.L5:
	.loc 1 2474 3 is_stmt 1
	.loc 1 2474 12 is_stmt 0
	ldr	r1, [r0]
	.loc 1 2474 22
	ldr	r2, [r1]
	.loc 1 2474 28
	orrs	r3, r3, r2
.LVL3:
	str	r3, [r1]
	.loc 1 2475 1
	bx	lr
.LVL4:
.L7:
	.loc 1 2456 5 is_stmt 1
	.loc 1 2456 12 is_stmt 0
	orr	r3, r3, #184
.LVL5:
	b	.L3
.L8:
	.loc 1 2462 5 is_stmt 1
	.loc 1 2462 12 is_stmt 0
	orr	r3, r3, #242
.LVL6:
	b	.L4
.LVL7:
.L9:
	.loc 1 2468 5 is_stmt 1
	.loc 1 2468 12 is_stmt 0
	orr	r3, r3, #244
.LVL8:
	b	.L5
	.cfi_endproc
.LFE364:
	.size	SMBUS_Enable_IRQ, .-SMBUS_Enable_IRQ
	.section	.text.SMBUS_Disable_IRQ,"ax",%progbits
	.align	1
	.syntax unified
	.thumb
	.thumb_func
	.type	SMBUS_Disable_IRQ, %function
SMBUS_Disable_IRQ:
.LFB365:
	.loc 1 2484 1 is_stmt 1
	.cfi_startproc
	@ args = 0, pretend = 0, frame = 0
	@ frame_needed = 0, uses_anonymous_args = 0
	@ link register save eliminated.
.LVL9:
	push	{r4}
	.cfi_def_cfa_offset 4
	.cfi_offset 4, -4
	.loc 1 2485 3
.LVL10:
	.loc 1 2486 3
	.loc 1 2486 12 is_stmt 0
	ldr	r2, [r0, #72]
.LVL11:
	.loc 1 2488 3 is_stmt 1
	.loc 1 2488 6 is_stmt 0
	cmp	r2, #1
	beq	.L23
	.loc 1 2485 12
	movs	r3, #0
.L11:
.LVL12:
	.loc 1 2494 3 is_stmt 1
	.loc 1 2494 25 is_stmt 0
	and	ip, r1, #242
	.loc 1 2494 6
	cmp	ip, #242
	beq	.L24
.L12:
	.loc 1 2513 3 is_stmt 1
	.loc 1 2513 25 is_stmt 0
	and	ip, r1, #212
	.loc 1 2513 6
	cmp	ip, #212
	beq	.L25
.L14:
	.loc 1 2532 3 is_stmt 1
	.loc 1 2532 25 is_stmt 0
	and	r1, r1, #56
.LVL13:
	.loc 1 2532 6
	cmp	r1, #56
	beq	.L26
.LVL14:
.L16:
	.loc 1 2547 3 is_stmt 1
	.loc 1 2547 12 is_stmt 0
	ldr	r1, [r0]
	.loc 1 2547 22
	ldr	r2, [r1]
	.loc 1 2547 28
	bic	r3, r2, r3
.LVL15:
	str	r3, [r1]
	.loc 1 2548 1
	ldr	r4, [sp], #4
	.cfi_remember_state
	.cfi_restore 4
	.cfi_def_cfa_offset 0
	bx	lr
.LVL16:
.L23:
	.cfi_restore_state
	.loc 1 2488 35 discriminator 1
	ands	r3, r1, #128
	beq	.L11
	.loc 1 2491 12
	movs	r3, #128
	b	.L11
.LVL17:
.L24:
	.loc 1 2497 5 is_stmt 1
	.loc 1 2497 12 is_stmt 0
	orr	ip, r3, #66
.LVL18:
	.loc 1 2499 5 is_stmt 1
	.loc 1 2499 19 is_stmt 0
	ldr	r4, [r0]
	.loc 1 2499 29
	ldr	r4, [r4]
	.loc 1 2499 8
	tst	r4, #4194304
	bne	.L13
	.loc 1 2500 9
	tst	r2, #8
	bne	.L13
	.loc 1 2503 7 is_stmt 1
	.loc 1 2503 14 is_stmt 0
	orr	ip, r3, #194
.LVL19:
.L13:
	.loc 1 2506 5 is_stmt 1
	.loc 1 2506 8 is_stmt 0
	tst	r2, #8
	bne	.L19
	.loc 1 2509 7 is_stmt 1
	.loc 1 2509 14 is_stmt 0
	orr	r3, ip, #48
.LVL20:
	b	.L12
.LVL21:
.L19:
	mov	r3, ip
	b	.L12
.LVL22:
.L25:
	.loc 1 2516 5 is_stmt 1
	.loc 1 2516 12 is_stmt 0
	orr	ip, r3, #68
.LVL23:
	.loc 1 2518 5 is_stmt 1
	.loc 1 2518 19 is_stmt 0
	ldr	r4, [r0]
	.loc 1 2518 29
	ldr	r4, [r4]
	.loc 1 2518 8
	tst	r4, #4194304
	bne	.L15
	.loc 1 2519 9
	tst	r2, #8
	bne	.L15
	.loc 1 2522 7 is_stmt 1
	.loc 1 2522 14 is_stmt 0
	orr	ip, r3, #196
.LVL24:
.L15:
	.loc 1 2525 5 is_stmt 1
	.loc 1 2525 8 is_stmt 0
	tst	r2, #8
	bne	.L20
	.loc 1 2528 7 is_stmt 1
	.loc 1 2528 14 is_stmt 0
	orr	r3, ip, #48
.LVL25:
	b	.L14
.LVL26:
.L20:
	mov	r3, ip
	b	.L14
.LVL27:
.L26:
	.loc 1 2535 5 is_stmt 1
	.loc 1 2535 12 is_stmt 0
	orr	r1, r3, #56
.LVL28:
	.loc 1 2537 5 is_stmt 1
	.loc 1 2537 18 is_stmt 0
	ldr	r2, [r0]
.LVL29:
	.loc 1 2537 28
	ldr	r2, [r2]
	.loc 1 2537 8
	tst	r2, #4194304
	bne	.L21
	.loc 1 2540 7 is_stmt 1
	.loc 1 2540 14 is_stmt 0
	orr	r3, r3, #184
.LVL30:
	b	.L16
.LVL31:
.L21:
	.loc 1 2535 12
	mov	r3, r1
	b	.L16
	.cfi_endproc
.LFE365:
	.size	SMBUS_Disable_IRQ, .-SMBUS_Disable_IRQ
	.section	.text.SMBUS_Flush_TXDR,"ax",%progbits
	.align	1
	.syntax unified
	.thumb
	.thumb_func
	.type	SMBUS_Flush_TXDR, %function
SMBUS_Flush_TXDR:
.LFB368:
	.loc 1 2704 1 is_stmt 1
	.cfi_startproc
	@ args = 0, pretend = 0, frame = 0
	@ frame_needed = 0, uses_anonymous_args = 0
	@ link register save eliminated.
.LVL32:
	.loc 1 2707 3
	.loc 1 2707 19 is_stmt 0
	ldr	r3, [r0]
	.loc 1 2707 29
	ldr	r2, [r3, #24]
	.loc 1 2707 6
	tst	r2, #2
	beq	.L28
	.loc 1 2709 5 is_stmt 1
	.loc 1 2709 28 is_stmt 0
	movs	r2, #0
	str	r2, [r3, #40]
.L28:
	.loc 1 2713 3 is_stmt 1
	.loc 1 2713 19 is_stmt 0
	ldr	r3, [r0]
	.loc 1 2713 29
	ldr	r2, [r3, #24]
	.loc 1 2713 6
	tst	r2, #1
	bne	.L27
	.loc 1 2715 5 is_stmt 1
	.loc 1 2715 66 is_stmt 0
	ldr	r2, [r3, #24]
	.loc 1 2715 72
	orr	r2, r2, #1
	.loc 1 2715 94
	str	r2, [r3, #24]
.L27:
	.loc 1 2717 1
	bx	lr
	.cfi_endproc
.LFE368:
	.size	SMBUS_Flush_TXDR, .-SMBUS_Flush_TXDR
	.section	.text.SMBUS_TransferConfig,"ax",%progbits
	.align	1
	.syntax unified
	.thumb
	.thumb_func
	.type	SMBUS_TransferConfig, %function
SMBUS_TransferConfig:
.LFB369:
	.loc 1 2741 1 is_stmt 1
	.cfi_startproc
	@ args = 4, pretend = 0, frame = 0
	@ frame_needed = 0, uses_anonymous_args = 0
	@ link register save eliminated.
.LVL33:
	push	{r4, r5}
	.cfi_def_cfa_offset 8
	.cfi_offset 4, -8
	.cfi_offset 5, -4
	ldr	r5, [sp, #8]
	.loc 1 2743 3
	.loc 1 2744 3
	.loc 1 2745 3
	.loc 1 2748 3
	.loc 1 2748 44 is_stmt 0
	ldr	r4, [r0]
	.loc 1 2748 54
	ldr	r0, [r4, #4]
.LVL34:
	.loc 1 2748 187
	lsr	ip, r5, #21
	.loc 1 2748 166
	and	ip, ip, #1024
	.loc 1 2748 245
	orr	ip, ip, #133693440
	orr	ip, ip, #483328
	orr	ip, ip, #1020
	orr	ip, ip, #3
	.loc 1 2748 63
	bic	r0, r0, ip
	.loc 1 2748 305
	ubfx	r1, r1, #0, #10
.LVL35:
	.loc 1 2748 326
	orr	r1, r1, r2, lsl #16
	.loc 1 2748 376
	orrs	r1, r1, r3
	.loc 1 2748 272
	orrs	r1, r1, r5
	.loc 1 2748 269
	orrs	r0, r0, r1
	.loc 1 2748 30
	str	r0, [r4, #4]
	.loc 1 2755 1
	pop	{r4, r5}
	.cfi_restore 5
	.cfi_restore 4
	.cfi_def_cfa_offset 0
.LVL36:
	bx	lr
	.cfi_endproc
.LFE369:
	.size	SMBUS_TransferConfig, .-SMBUS_TransferConfig
	.section	.text.SMBUS_ConvertOtherXferOptions,"ax",%progbits
	.align	1
	.syntax unified
	.thumb
	.thumb_func
	.type	SMBUS_ConvertOtherXferOptions, %function
SMBUS_ConvertOtherXferOptions:
.LFB370:
	.loc 1 2763 1 is_stmt 1
	.cfi_startproc
	@ args = 0, pretend = 0, frame = 0
	@ frame_needed = 0, uses_anonymous_args = 0
	@ link register save eliminated.
.LVL37:
	.loc 1 2767 3
	.loc 1 2767 13 is_stmt 0
	ldr	r3, [r0, #60]
	.loc 1 2767 6
	cmp	r3, #170
	beq	.L37
	.loc 1 2774 8 is_stmt 1
	.loc 1 2774 18 is_stmt 0
	ldr	r3, [r0, #60]
	.loc 1 2774 11
	cmp	r3, #43520
	beq	.L38
	.loc 1 2782 8 is_stmt 1
	.loc 1 2782 18 is_stmt 0
	ldr	r3, [r0, #60]
	.loc 1 2782 11
	cmp	r3, #11141120
	beq	.L39
	.loc 1 2790 8 is_stmt 1
	.loc 1 2790 18 is_stmt 0
	ldr	r3, [r0, #60]
	.loc 1 2790 11
	cmp	r3, #-1442840576
	beq	.L40
.L32:
	.loc 1 2798 1
	bx	lr
.L37:
	.loc 1 2769 5 is_stmt 1
	.loc 1 2769 25 is_stmt 0
	movs	r3, #0
	str	r3, [r0, #60]
	bx	lr
.L38:
	.loc 1 2776 5 is_stmt 1
	.loc 1 2776 25 is_stmt 0
	mov	r3, #67108864
	str	r3, [r0, #60]
	bx	lr
.L39:
	.loc 1 2784 5 is_stmt 1
	.loc 1 2784 25 is_stmt 0
	mov	r3, #33554432
	str	r3, [r0, #60]
	bx	lr
.L40:
	.loc 1 2792 5 is_stmt 1
	.loc 1 2792 25 is_stmt 0
	mov	r3, #100663296
	str	r3, [r0, #60]
	.loc 1 2797 3 is_stmt 1
	.loc 1 2798 1 is_stmt 0
	b	.L32
	.cfi_endproc
.LFE370:
	.size	SMBUS_ConvertOtherXferOptions, .-SMBUS_ConvertOtherXferOptions
	.section	.text.SMBUS_WaitOnFlagUntilTimeout,"ax",%progbits
	.align	1
	.syntax unified
	.thumb
	.thumb_func
	.type	SMBUS_WaitOnFlagUntilTimeout, %function
SMBUS_WaitOnFlagUntilTimeout:
.LFB367:
	.loc 1 2670 1 is_stmt 1
	.cfi_startproc
	@ args = 0, pretend = 0, frame = 0
	@ frame_needed = 0, uses_anonymous_args = 0
.LVL38:
	push	{r4, r5, r6, r7, r8, lr}
	.cfi_def_cfa_offset 24
	.cfi_offset 4, -24
	.cfi_offset 5, -20
	.cfi_offset 6, -16
	.cfi_offset 7, -12
	.cfi_offset 8, -8
	.cfi_offset 14, -4
	mov	r5, r0
	mov	r7, r1
	mov	r6, r2
	mov	r4, r3
	.loc 1 2671 3
	.loc 1 2671 24 is_stmt 0
	bl	HAL_GetTick
.LVL39:
	mov	r8, r0
.LVL40:
	.loc 1 2674 3 is_stmt 1
.L43:
	.loc 1 2674 125
	.loc 1 2674 35 is_stmt 0
	ldr	r3, [r5]
	.loc 1 2674 45
	ldr	r3, [r3, #24]
	.loc 1 2674 10
	bic	ip, r7, r3
	ubfx	ip, ip, #0, #17
	clz	ip, ip
	lsr	ip, ip, #5
	.loc 1 2674 125
	cmp	ip, r6
	bne	.L48
	.loc 1 2677 5 is_stmt 1
	.loc 1 2677 8 is_stmt 0
	cmp	r4, #-1
	beq	.L43
	.loc 1 2679 7 is_stmt 1
	.loc 1 2679 13 is_stmt 0
	bl	HAL_GetTick
.LVL41:
	.loc 1 2679 27
	sub	r0, r0, r8
	.loc 1 2679 10
	cmp	r0, r4
	bhi	.L44
	.loc 1 2679 51 discriminator 1
	cmp	r4, #0
	bne	.L43
.L44:
	.loc 1 2681 9 is_stmt 1
	.loc 1 2681 39 is_stmt 0
	ldr	r3, [r5, #72]
	.loc 1 2681 31
	str	r3, [r5, #64]
	.loc 1 2682 9 is_stmt 1
	.loc 1 2682 23 is_stmt 0
	movs	r0, #1
	str	r0, [r5, #72]
	.loc 1 2685 9 is_stmt 1
	.loc 1 2685 15 is_stmt 0
	ldr	r3, [r5, #76]
	.loc 1 2685 27
	orr	r3, r3, #16
	str	r3, [r5, #76]
	.loc 1 2688 9 is_stmt 1
	.loc 1 2688 13
	.loc 1 2688 28 is_stmt 0
	movs	r3, #0
	strb	r3, [r5, #68]
	.loc 1 2688 11 is_stmt 1
	.loc 1 2690 9
	.loc 1 2690 16 is_stmt 0
	b	.L45
.L48:
	.loc 1 2695 10
	movs	r0, #0
.L45:
	.loc 1 2696 1
	pop	{r4, r5, r6, r7, r8, pc}
	.cfi_endproc
.LFE367:
	.size	SMBUS_WaitOnFlagUntilTimeout, .-SMBUS_WaitOnFlagUntilTimeout
	.section	.text.HAL_SMBUS_MspInit,"ax",%progbits
	.align	1
	.weak	HAL_SMBUS_MspInit
	.syntax unified
	.thumb
	.thumb_func
	.type	HAL_SMBUS_MspInit, %function
HAL_SMBUS_MspInit:
.LFB337:
	.loc 1 460 1 is_stmt 1
	.cfi_startproc
	@ args = 0, pretend = 0, frame = 0
	@ frame_needed = 0, uses_anonymous_args = 0
	@ link register save eliminated.
.LVL42:
	.loc 1 462 3
	.loc 1 467 1 is_stmt 0
	bx	lr
	.cfi_endproc
.LFE337:
	.size	HAL_SMBUS_MspInit, .-HAL_SMBUS_MspInit
	.section	.text.HAL_SMBUS_Init,"ax",%progbits
	.align	1
	.global	HAL_SMBUS_Init
	.syntax unified
	.thumb
	.thumb_func
	.type	HAL_SMBUS_Init, %function
HAL_SMBUS_Init:
.LFB335:
	.loc 1 290 1 is_stmt 1
	.cfi_startproc
	@ args = 0, pretend = 0, frame = 0
	@ frame_needed = 0, uses_anonymous_args = 0
.LVL43:
	.loc 1 292 3
	.loc 1 292 6 is_stmt 0
	cmp	r0, #0
	beq	.L57
	.loc 1 290 1
	push	{r4, lr}
	.cfi_def_cfa_offset 8
	.cfi_offset 4, -8
	.cfi_offset 14, -4
	mov	r4, r0
	.loc 1 298 3 is_stmt 1
	.loc 1 299 3
	.loc 1 300 3
	.loc 1 301 3
	.loc 1 302 3
	.loc 1 303 3
	.loc 1 304 3
	.loc 1 305 3
	.loc 1 306 3
	.loc 1 307 3
	.loc 1 308 3
	.loc 1 310 3
	.loc 1 310 13 is_stmt 0
	ldr	r3, [r0, #72]
	.loc 1 310 6
	cmp	r3, #0
	beq	.L62
.LVL44:
.L52:
	.loc 1 337 3 is_stmt 1
	.loc 1 337 17 is_stmt 0
	movs	r3, #2
	str	r3, [r4, #72]
	.loc 1 340 3 is_stmt 1
	.loc 1 340 14 is_stmt 0
	ldr	r2, [r4]
	.loc 1 340 24
	ldr	r3, [r2]
	.loc 1 340 31
	bic	r3, r3, #1
	str	r3, [r2]
	.loc 1 344 3 is_stmt 1
	.loc 1 344 43 is_stmt 0
	ldr	r3, [r4, #4]
	.loc 1 344 9
	ldr	r2, [r4]
	.loc 1 344 51
	bic	r3, r3, #251658240
	.loc 1 344 29
	str	r3, [r2, #16]
	.loc 1 348 3 is_stmt 1
	.loc 1 348 9 is_stmt 0
	ldr	r2, [r4]
	.loc 1 348 19
	ldr	r3, [r2, #20]
	.loc 1 348 30
	bic	r3, r3, #32768
	str	r3, [r2, #20]
	.loc 1 349 3 is_stmt 1
	.loc 1 349 9 is_stmt 0
	ldr	r2, [r4]
	.loc 1 349 19
	ldr	r3, [r2, #20]
	.loc 1 349 30
	bic	r3, r3, #-2147483648
	str	r3, [r2, #20]
	.loc 1 350 3 is_stmt 1
	.loc 1 350 9 is_stmt 0
	ldr	r3, [r4]
	.loc 1 350 44
	ldr	r2, [r4, #48]
	.loc 1 350 30
	str	r2, [r3, #20]
	.loc 1 354 3 is_stmt 1
	.loc 1 354 9 is_stmt 0
	ldr	r2, [r4]
	.loc 1 354 19
	ldr	r3, [r2, #8]
	.loc 1 354 26
	bic	r3, r3, #32768
	str	r3, [r2, #8]
	.loc 1 356 3 is_stmt 1
	.loc 1 356 19 is_stmt 0
	ldr	r3, [r4, #12]
	.loc 1 356 6
	cbz	r3, .L53
	.loc 1 358 5 is_stmt 1
	.loc 1 358 21 is_stmt 0
	ldr	r2, [r4, #16]
	.loc 1 358 8
	cmp	r2, #1
	beq	.L63
	.loc 1 364 7 is_stmt 1
	.loc 1 364 13 is_stmt 0
	ldr	r2, [r4]
	.loc 1 364 69
	orr	r3, r3, #33792
	.loc 1 364 30
	str	r3, [r2, #8]
.L53:
	.loc 1 370 3 is_stmt 1
	.loc 1 370 19 is_stmt 0
	ldr	r3, [r4, #16]
	.loc 1 370 6
	cmp	r3, #2
	beq	.L64
.L55:
	.loc 1 376 3 is_stmt 1
	.loc 1 376 9 is_stmt 0
	ldr	r2, [r4]
	.loc 1 376 19
	ldr	r1, [r2, #4]
	.loc 1 376 25
	ldr	r3, .L66
	orrs	r3, r3, r1
	str	r3, [r2, #4]
	.loc 1 380 3 is_stmt 1
	.loc 1 380 41 is_stmt 0
	ldr	r3, [r4, #20]
	.loc 1 380 72
	ldr	r2, [r4, #24]
	.loc 1 380 58
	orrs	r3, r3, r2
	.loc 1 381 42
	ldr	r1, [r4, #28]
	.loc 1 380 9
	ldr	r2, [r4]
	.loc 1 380 85
	orr	r3, r3, r1, lsl #8
	.loc 1 380 26
	str	r3, [r2, #12]
	.loc 1 385 3 is_stmt 1
	.loc 1 385 40 is_stmt 0
	ldr	r3, [r4, #32]
	.loc 1 385 71
	ldr	r2, [r4, #36]
	.loc 1 385 57
	orrs	r3, r3, r2
	.loc 1 386 40
	ldr	r2, [r4, #40]
	.loc 1 385 86
	orrs	r3, r3, r2
	.loc 1 386 76
	ldr	r2, [r4, #44]
	.loc 1 386 62
	orrs	r3, r3, r2
	.loc 1 387 40
	ldr	r1, [r4, #8]
	.loc 1 385 9
	ldr	r2, [r4]
	.loc 1 386 92
	orrs	r3, r3, r1
	.loc 1 385 25
	str	r3, [r2]
	.loc 1 391 3 is_stmt 1
	.loc 1 391 20 is_stmt 0
	ldr	r3, [r4, #40]
	.loc 1 391 6
	cmp	r3, #8388608
	beq	.L65
.L56:
	.loc 1 399 3 is_stmt 1
	.loc 1 399 14 is_stmt 0
	ldr	r2, [r4]
	.loc 1 399 24
	ldr	r3, [r2]
	.loc 1 399 31
	orr	r3, r3, #1
	str	r3, [r2]
	.loc 1 401 3 is_stmt 1
	.loc 1 401 21 is_stmt 0
	movs	r0, #0
	str	r0, [r4, #76]
	.loc 1 402 3 is_stmt 1
	.loc 1 402 25 is_stmt 0
	movs	r3, #1
	str	r3, [r4, #64]
	.loc 1 403 3 is_stmt 1
	.loc 1 403 17 is_stmt 0
	str	r3, [r4, #72]
	.loc 1 405 3 is_stmt 1
	.loc 1 406 1 is_stmt 0
	pop	{r4, pc}
.LVL45:
.L62:
	.loc 1 313 5 is_stmt 1
	.loc 1 313 18 is_stmt 0
	strb	r3, [r0, #68]
	.loc 1 333 5 is_stmt 1
	bl	HAL_SMBUS_MspInit
.LVL46:
	b	.L52
.L63:
	.loc 1 360 7
	.loc 1 360 13 is_stmt 0
	ldr	r2, [r4]
	.loc 1 360 50
	orr	r3, r3, #32768
	.loc 1 360 30
	str	r3, [r2, #8]
	b	.L53
.L64:
	.loc 1 372 5 is_stmt 1
	.loc 1 372 11 is_stmt 0
	ldr	r3, [r4]
	.loc 1 372 27
	mov	r2, #2048
	str	r2, [r3, #4]
	b	.L55
.L65:
	.loc 1 392 21 discriminator 1
	ldr	r3, [r4, #44]
	.loc 1 391 63 discriminator 1
	cmp	r3, #2097152
	it	ne
	cmpne	r3, #0
	bne	.L56
	.loc 1 395 5 is_stmt 1
	.loc 1 395 11 is_stmt 0
	ldr	r2, [r4]
	.loc 1 395 21
	ldr	r3, [r2]
	.loc 1 395 27
	orr	r3, r3, #65536
	str	r3, [r2]
	b	.L56
.LVL47:
.L57:
	.cfi_def_cfa_offset 0
	.cfi_restore 4
	.cfi_restore 14
	.loc 1 294 12
	movs	r0, #1
.LVL48:
	.loc 1 406 1
	bx	lr
.L67:
	.align	2
.L66:
	.word	33587200
	.cfi_endproc
.LFE335:
	.size	HAL_SMBUS_Init, .-HAL_SMBUS_Init
	.section	.text.HAL_SMBUS_MspDeInit,"ax",%progbits
	.align	1
	.weak	HAL_SMBUS_MspDeInit
	.syntax unified
	.thumb
	.thumb_func
	.type	HAL_SMBUS_MspDeInit, %function
HAL_SMBUS_MspDeInit:
.LFB338:
	.loc 1 476 1 is_stmt 1
	.cfi_startproc
	@ args = 0, pretend = 0, frame = 0
	@ frame_needed = 0, uses_anonymous_args = 0
	@ link register save eliminated.
.LVL49:
	.loc 1 478 3
	.loc 1 483 1 is_stmt 0
	bx	lr
	.cfi_endproc
.LFE338:
	.size	HAL_SMBUS_MspDeInit, .-HAL_SMBUS_MspDeInit
	.section	.text.HAL_SMBUS_DeInit,"ax",%progbits
	.align	1
	.global	HAL_SMBUS_DeInit
	.syntax unified
	.thumb
	.thumb_func
	.type	HAL_SMBUS_DeInit, %function
HAL_SMBUS_DeInit:
.LFB336:
	.loc 1 415 1 is_stmt 1
	.cfi_startproc
	@ args = 0, pretend = 0, frame = 0
	@ frame_needed = 0, uses_anonymous_args = 0
.LVL50:
	.loc 1 417 3
	.loc 1 417 6 is_stmt 0
	cbz	r0, .L71
	.loc 1 415 1
	push	{r4, lr}
	.cfi_def_cfa_offset 8
	.cfi_offset 4, -8
	.cfi_offset 14, -4
	mov	r4, r0
	.loc 1 423 3 is_stmt 1
	.loc 1 425 3
	.loc 1 425 17 is_stmt 0
	movs	r3, #2
	str	r3, [r0, #72]
	.loc 1 428 3 is_stmt 1
	.loc 1 428 14 is_stmt 0
	ldr	r2, [r0]
	.loc 1 428 24
	ldr	r3, [r2]
	.loc 1 428 31
	bic	r3, r3, #1
	str	r3, [r2]
	.loc 1 440 3 is_stmt 1
	bl	HAL_SMBUS_MspDeInit
.LVL51:
	.loc 1 443 3
	.loc 1 443 21 is_stmt 0
	movs	r0, #0
	str	r0, [r4, #76]
	.loc 1 444 3 is_stmt 1
	.loc 1 444 25 is_stmt 0
	str	r0, [r4, #64]
	.loc 1 445 3 is_stmt 1
	.loc 1 445 17 is_stmt 0
	str	r0, [r4, #72]
	.loc 1 448 3 is_stmt 1
	.loc 1 448 7
	.loc 1 448 22 is_stmt 0
	strb	r0, [r4, #68]
	.loc 1 448 5 is_stmt 1
	.loc 1 450 3
	.loc 1 451 1 is_stmt 0
	pop	{r4, pc}
.LVL52:
.L71:
	.cfi_def_cfa_offset 0
	.cfi_restore 4
	.cfi_restore 14
	.loc 1 419 12
	movs	r0, #1
.LVL53:
	.loc 1 451 1
	bx	lr
	.cfi_endproc
.LFE336:
	.size	HAL_SMBUS_DeInit, .-HAL_SMBUS_DeInit
	.section	.text.HAL_SMBUS_ConfigAnalogFilter,"ax",%progbits
	.align	1
	.global	HAL_SMBUS_ConfigAnalogFilter
	.syntax unified
	.thumb
	.thumb_func
	.type	HAL_SMBUS_ConfigAnalogFilter, %function
HAL_SMBUS_ConfigAnalogFilter:
.LFB339:
	.loc 1 495 1 is_stmt 1
	.cfi_startproc
	@ args = 0, pretend = 0, frame = 0
	@ frame_needed = 0, uses_anonymous_args = 0
	@ link register save eliminated.
.LVL54:
	.loc 1 497 3
	.loc 1 498 3
	.loc 1 500 3
	.loc 1 500 13 is_stmt 0
	ldr	r2, [r0, #72]
	.loc 1 500 6
	cmp	r2, #1
	bne	.L78
	mov	r3, r0
	.loc 1 503 5 is_stmt 1
	.loc 1 503 9
	.loc 1 503 20 is_stmt 0
	ldrb	r2, [r0, #68]	@ zero_extendqisi2
	.loc 1 503 11
	cmp	r2, #1
	beq	.L79
	.loc 1 495 1 discriminator 2
	push	{r4}
	.cfi_def_cfa_offset 4
	.cfi_offset 4, -4
	.loc 1 503 70 is_stmt 1 discriminator 2
	.loc 1 503 85 is_stmt 0 discriminator 2
	movs	r0, #1
.LVL55:
	strb	r0, [r3, #68]
	.loc 1 503 7 is_stmt 1 discriminator 2
	.loc 1 505 5 discriminator 2
	.loc 1 505 19 is_stmt 0 discriminator 2
	movs	r2, #2
	str	r2, [r3, #72]
	.loc 1 508 5 is_stmt 1 discriminator 2
	.loc 1 508 16 is_stmt 0 discriminator 2
	ldr	r4, [r3]
	.loc 1 508 26 discriminator 2
	ldr	r2, [r4]
	.loc 1 508 33 discriminator 2
	bic	r2, r2, #1
	str	r2, [r4]
	.loc 1 511 5 is_stmt 1 discriminator 2
	.loc 1 511 11 is_stmt 0 discriminator 2
	ldr	r4, [r3]
	.loc 1 511 21 discriminator 2
	ldr	r2, [r4]
	.loc 1 511 27 discriminator 2
	bic	r2, r2, #4096
	str	r2, [r4]
	.loc 1 514 5 is_stmt 1 discriminator 2
	.loc 1 514 11 is_stmt 0 discriminator 2
	ldr	r4, [r3]
	.loc 1 514 21 discriminator 2
	ldr	r2, [r4]
	.loc 1 514 27 discriminator 2
	orrs	r2, r2, r1
	str	r2, [r4]
	.loc 1 516 5 is_stmt 1 discriminator 2
	.loc 1 516 16 is_stmt 0 discriminator 2
	ldr	r1, [r3]
.LVL56:
	.loc 1 516 26 discriminator 2
	ldr	r2, [r1]
	.loc 1 516 33 discriminator 2
	orrs	r2, r2, r0
	str	r2, [r1]
	.loc 1 518 5 is_stmt 1 discriminator 2
	.loc 1 518 19 is_stmt 0 discriminator 2
	str	r0, [r3, #72]
	.loc 1 521 5 is_stmt 1 discriminator 2
	.loc 1 521 9 discriminator 2
	.loc 1 521 24 is_stmt 0 discriminator 2
	movs	r0, #0
	strb	r0, [r3, #68]
	.loc 1 521 7 is_stmt 1 discriminator 2
	.loc 1 523 5 discriminator 2
	.loc 1 529 1 is_stmt 0 discriminator 2
	ldr	r4, [sp], #4
	.cfi_restore 4
	.cfi_def_cfa_offset 0
	bx	lr
.LVL57:
.L78:
	.loc 1 527 12
	movs	r0, #2
.LVL58:
	bx	lr
.LVL59:
.L79:
	.loc 1 503 51
	movs	r0, #2
.LVL60:
	.loc 1 529 1
	bx	lr
	.cfi_endproc
.LFE339:
	.size	HAL_SMBUS_ConfigAnalogFilter, .-HAL_SMBUS_ConfigAnalogFilter
	.section	.text.HAL_SMBUS_ConfigDigitalFilter,"ax",%progbits
	.align	1
	.global	HAL_SMBUS_ConfigDigitalFilter
	.syntax unified
	.thumb
	.thumb_func
	.type	HAL_SMBUS_ConfigDigitalFilter, %function
HAL_SMBUS_ConfigDigitalFilter:
.LFB340:
	.loc 1 539 1 is_stmt 1
	.cfi_startproc
	@ args = 0, pretend = 0, frame = 0
	@ frame_needed = 0, uses_anonymous_args = 0
	@ link register save eliminated.
.LVL61:
	.loc 1 540 3
	.loc 1 543 3
	.loc 1 544 3
	.loc 1 546 3
	.loc 1 546 13 is_stmt 0
	ldr	r2, [r0, #72]
	.loc 1 546 6
	cmp	r2, #1
	bne	.L86
	mov	r3, r0
	.loc 1 549 5 is_stmt 1
	.loc 1 549 9
	.loc 1 549 20 is_stmt 0
	ldrb	r2, [r0, #68]	@ zero_extendqisi2
	.loc 1 549 11
	cmp	r2, #1
	beq	.L87
	.loc 1 539 1 discriminator 2
	push	{r4}
	.cfi_def_cfa_offset 4
	.cfi_offset 4, -4
	.loc 1 549 70 is_stmt 1 discriminator 2
	.loc 1 549 85 is_stmt 0 discriminator 2
	movs	r0, #1
.LVL62:
	strb	r0, [r3, #68]
	.loc 1 549 7 is_stmt 1 discriminator 2
	.loc 1 551 5 discriminator 2
	.loc 1 551 19 is_stmt 0 discriminator 2
	movs	r2, #2
	str	r2, [r3, #72]
	.loc 1 554 5 is_stmt 1 discriminator 2
	.loc 1 554 16 is_stmt 0 discriminator 2
	ldr	r4, [r3]
	.loc 1 554 26 discriminator 2
	ldr	r2, [r4]
	.loc 1 554 33 discriminator 2
	bic	r2, r2, #1
	str	r2, [r4]
	.loc 1 557 5 is_stmt 1 discriminator 2
	.loc 1 557 20 is_stmt 0 discriminator 2
	ldr	r4, [r3]
	.loc 1 557 12 discriminator 2
	ldr	r2, [r4]
.LVL63:
	.loc 1 560 5 is_stmt 1 discriminator 2
	.loc 1 560 12 is_stmt 0 discriminator 2
	bic	r2, r2, #3840
.LVL64:
	.loc 1 563 5 is_stmt 1 discriminator 2
	.loc 1 563 12 is_stmt 0 discriminator 2
	orr	r2, r2, r1, lsl #8
.LVL65:
	.loc 1 566 5 is_stmt 1 discriminator 2
	.loc 1 566 27 is_stmt 0 discriminator 2
	str	r2, [r4]
	.loc 1 568 5 is_stmt 1 discriminator 2
	.loc 1 568 16 is_stmt 0 discriminator 2
	ldr	r1, [r3]
.LVL66:
	.loc 1 568 26 discriminator 2
	ldr	r2, [r1]
.LVL67:
	.loc 1 568 33 discriminator 2
	orrs	r2, r2, r0
	str	r2, [r1]
.LVL68:
	.loc 1 570 5 is_stmt 1 discriminator 2
	.loc 1 570 19 is_stmt 0 discriminator 2
	str	r0, [r3, #72]
	.loc 1 573 5 is_stmt 1 discriminator 2
	.loc 1 573 9 discriminator 2
	.loc 1 573 24 is_stmt 0 discriminator 2
	movs	r0, #0
	strb	r0, [r3, #68]
	.loc 1 573 7 is_stmt 1 discriminator 2
	.loc 1 575 5 discriminator 2
	.loc 1 581 1 is_stmt 0 discriminator 2
	ldr	r4, [sp], #4
	.cfi_restore 4
	.cfi_def_cfa_offset 0
	bx	lr
.LVL69:
.L86:
	.loc 1 579 12
	movs	r0, #2
.LVL70:
	bx	lr
.LVL71:
.L87:
	.loc 1 549 51
	movs	r0, #2
.LVL72:
	.loc 1 581 1
	bx	lr
	.cfi_endproc
.LFE340:
	.size	HAL_SMBUS_ConfigDigitalFilter, .-HAL_SMBUS_ConfigDigitalFilter
	.section	.text.HAL_SMBUS_Master_Transmit_IT,"ax",%progbits
	.align	1
	.global	HAL_SMBUS_Master_Transmit_IT
	.syntax unified
	.thumb
	.thumb_func
	.type	HAL_SMBUS_Master_Transmit_IT, %function
HAL_SMBUS_Master_Transmit_IT:
.LFB341:
	.loc 1 927 1 is_stmt 1
	.cfi_startproc
	@ args = 4, pretend = 0, frame = 0
	@ frame_needed = 0, uses_anonymous_args = 0
.LVL73:
	push	{r4, r5, r6, lr}
	.cfi_def_cfa_offset 16
	.cfi_offset 4, -16
	.cfi_offset 5, -12
	.cfi_offset 6, -8
	.cfi_offset 14, -4
	sub	sp, sp, #8
	.cfi_def_cfa_offset 24
	mov	r4, r0
	mov	r5, r1
	ldr	r1, [sp, #24]
.LVL74:
	.loc 1 928 3
	.loc 1 929 3
	.loc 1 932 3
	.loc 1 934 3
	.loc 1 934 13 is_stmt 0
	ldr	r0, [r0, #72]
.LVL75:
	.loc 1 934 6
	cmp	r0, #1
	bne	.L104
	.loc 1 937 5 is_stmt 1
	.loc 1 937 9
	.loc 1 937 20 is_stmt 0
	ldrb	r0, [r4, #68]	@ zero_extendqisi2
	.loc 1 937 11
	cmp	r0, #1
	beq	.L105
	.loc 1 937 70 is_stmt 1 discriminator 2
	.loc 1 937 85 is_stmt 0 discriminator 2
	movs	r0, #1
	strb	r0, [r4, #68]
	.loc 1 937 7 is_stmt 1 discriminator 2
	.loc 1 939 5 discriminator 2
	.loc 1 939 19 is_stmt 0 discriminator 2
	movs	r0, #18
	str	r0, [r4, #72]
	.loc 1 940 5 is_stmt 1 discriminator 2
	.loc 1 940 23 is_stmt 0 discriminator 2
	movs	r0, #0
	str	r0, [r4, #76]
	.loc 1 942 5 is_stmt 1 discriminator 2
	.loc 1 942 22 is_stmt 0 discriminator 2
	str	r2, [r4, #52]
	.loc 1 943 5 is_stmt 1 discriminator 2
	.loc 1 943 23 is_stmt 0 discriminator 2
	strh	r3, [r4, #58]	@ movhi
	.loc 1 944 5 is_stmt 1 discriminator 2
	.loc 1 944 25 is_stmt 0 discriminator 2
	str	r1, [r4, #60]
	.loc 1 948 5 is_stmt 1 discriminator 2
	.loc 1 948 8 is_stmt 0 discriminator 2
	cmp	r2, #0
	beq	.L109
.L94:
	.loc 1 953 5 is_stmt 1
	.loc 1 953 8 is_stmt 0
	cmp	r3, #255
	bls	.L95
	.loc 1 955 7 is_stmt 1
	.loc 1 955 24 is_stmt 0
	movs	r3, #255
.LVL76:
	strh	r3, [r4, #56]	@ movhi
.L96:
	.loc 1 962 5 is_stmt 1
	.loc 1 962 24 is_stmt 0
	ldrh	r6, [r4, #56]
.LVL77:
	.loc 1 963 5 is_stmt 1
	.loc 1 963 8 is_stmt 0
	cbz	r6, .L97
	.loc 1 963 27 discriminator 1
	cmp	r1, #33554432
	it	ne
	cmpne	r1, #0
	beq	.L98
	.loc 1 966 44
	cmp	r1, #100663296
	ite	ne
	movne	r3, #0
	moveq	r3, #1
	.loc 1 965 95
	cmp	r1, #67108864
	beq	.L98
	cbz	r3, .L97
.L98:
	.loc 1 968 7 is_stmt 1
	.loc 1 968 10 is_stmt 0
	cmp	r2, #0
	beq	.L106
	.loc 1 972 9 is_stmt 1
	.loc 1 972 15 is_stmt 0
	ldr	r3, [r4]
	.loc 1 972 34
	ldrb	r2, [r2]	@ zero_extendqisi2
.LVL78:
	.loc 1 972 32
	str	r2, [r3, #40]
.LVL79:
	.loc 1 975 9 is_stmt 1
	.loc 1 975 15 is_stmt 0
	ldr	r3, [r4, #52]
	.loc 1 975 25
	adds	r3, r3, #1
	str	r3, [r4, #52]
	.loc 1 977 9 is_stmt 1
	.loc 1 977 15 is_stmt 0
	ldrh	r3, [r4, #58]
	uxth	r3, r3
	.loc 1 977 26
	subs	r3, r3, #1
	uxth	r3, r3
	strh	r3, [r4, #58]	@ movhi
	.loc 1 978 9 is_stmt 1
	.loc 1 978 15 is_stmt 0
	ldrh	r3, [r4, #56]
	.loc 1 978 25
	subs	r3, r3, #1
	strh	r3, [r4, #56]	@ movhi
.L97:
	.loc 1 988 5 is_stmt 1
	.loc 1 988 29 is_stmt 0
	ldrh	r3, [r4, #58]
	uxth	r3, r3
	.loc 1 988 8
	cmp	r6, r3
	bcs	.L100
	.loc 1 988 42 discriminator 1
	cmp	r6, #255
	beq	.L110
.L100:
	.loc 1 1000 7 is_stmt 1
	.loc 1 1000 11 is_stmt 0
	ldr	r3, [r4, #60]
.LVL80:
	.loc 1 1002 7 is_stmt 1
	.loc 1 1002 18 is_stmt 0
	ldr	r2, [r4, #64]
	.loc 1 1002 10
	cmp	r2, #18
	bne	.L102
	.loc 1 1003 94
	cmp	r3, #11141120
	it	ne
	cmpne	r3, #170
	beq	.L102
	.loc 1 1003 104 discriminator 2
	cmp	r3, #-1442840576
	ite	ne
	movne	r2, #0
	moveq	r2, #1
	.loc 1 1003 94 discriminator 2
	cmp	r3, #43520
	beq	.L102
	cmp	r2, #0
	beq	.L111
.L102:
	.loc 1 1012 9 is_stmt 1
	mov	r0, r4
	bl	SMBUS_ConvertOtherXferOptions
.LVL81:
	.loc 1 1015 9
	.loc 1 1016 36 is_stmt 0
	ldr	r3, [r4, #60]
	.loc 1 1015 9
	ldr	r2, .L112
	str	r2, [sp]
	uxtb	r2, r6
	mov	r1, r5
	mov	r0, r4
	bl	SMBUS_TransferConfig
.LVL82:
.L103:
	.loc 1 1022 7 is_stmt 1
	.loc 1 1022 20 is_stmt 0
	ldr	r3, [r4]
	.loc 1 1022 30
	ldr	r3, [r3, #4]
	.loc 1 1022 10
	tst	r3, #67108864
	beq	.L101
	.loc 1 1024 9 is_stmt 1
	.loc 1 1024 19 is_stmt 0
	ldrh	r3, [r4, #56]
	.loc 1 1024 12
	cmp	r3, #0
	beq	.L107
	.loc 1 1026 11 is_stmt 1
	.loc 1 1026 27 is_stmt 0
	subs	r3, r3, #1
	strh	r3, [r4, #56]	@ movhi
	.loc 1 1027 11 is_stmt 1
	.loc 1 1027 17 is_stmt 0
	ldrh	r3, [r4, #58]
	uxth	r3, r3
	.loc 1 1027 28
	subs	r3, r3, #1
	uxth	r3, r3
	strh	r3, [r4, #58]	@ movhi
.LVL83:
.L101:
	.loc 1 1037 5 is_stmt 1
	.loc 1 1037 9
	.loc 1 1037 24 is_stmt 0
	movs	r5, #0
	strb	r5, [r4, #68]
	.loc 1 1037 7 is_stmt 1
	.loc 1 1042 5
	movs	r1, #242
	mov	r0, r4
	bl	SMBUS_Enable_IRQ
.LVL84:
	.loc 1 1044 5
	.loc 1 1044 12 is_stmt 0
	mov	r0, r5
.LVL85:
.L93:
	.loc 1 1050 1
	add	sp, sp, #8
	.cfi_remember_state
	.cfi_def_cfa_offset 16
	@ sp needed
	pop	{r4, r5, r6, pc}
.LVL86:
.L109:
	.cfi_restore_state
	.loc 1 950 7 is_stmt 1
	.loc 1 950 13 is_stmt 0
	ldr	r0, [r4, #60]
	.loc 1 950 27
	bic	r0, r0, #33554432
	str	r0, [r4, #60]
	b	.L94
.L95:
	.loc 1 959 7 is_stmt 1
	.loc 1 959 24 is_stmt 0
	strh	r3, [r4, #56]	@ movhi
	b	.L96
.LVL87:
.L110:
	.loc 1 990 7 is_stmt 1
	.loc 1 991 54 is_stmt 0
	ldr	r3, [r4, #60]
	.loc 1 991 68
	and	r3, r3, #67108864
	.loc 1 990 7
	ldr	r2, .L112
	str	r2, [sp]
	orr	r3, r3, #16777216
	uxtb	r2, r6
	mov	r1, r5
	mov	r0, r4
	bl	SMBUS_TransferConfig
.LVL88:
	b	.L101
.LVL89:
.L111:
	.loc 1 1005 9 is_stmt 1
	.loc 1 1005 77 is_stmt 0
	ldr	r3, [r4, #60]
.LVL90:
	.loc 1 1005 9
	str	r2, [sp]
	uxtb	r2, r6
	mov	r1, r5
	mov	r0, r4
	bl	SMBUS_TransferConfig
.LVL91:
	b	.L103
.LVL92:
.L104:
	.loc 1 1048 12
	movs	r0, #2
	b	.L93
.L105:
	.loc 1 937 51
	movs	r0, #2
	b	.L93
.LVL93:
.L106:
	.loc 1 982 16
	movs	r0, #1
	b	.L93
.LVL94:
.L107:
	.loc 1 1031 18
	movs	r0, #1
	b	.L93
.L113:
	.align	2
.L112:
	.word	-2147475456
	.cfi_endproc
.LFE341:
	.size	HAL_SMBUS_Master_Transmit_IT, .-HAL_SMBUS_Master_Transmit_IT
	.section	.text.HAL_SMBUS_Master_Receive_IT,"ax",%progbits
	.align	1
	.global	HAL_SMBUS_Master_Receive_IT
	.syntax unified
	.thumb
	.thumb_func
	.type	HAL_SMBUS_Master_Receive_IT, %function
HAL_SMBUS_Master_Receive_IT:
.LFB342:
	.loc 1 1065 1 is_stmt 1
	.cfi_startproc
	@ args = 4, pretend = 0, frame = 0
	@ frame_needed = 0, uses_anonymous_args = 0
.LVL95:
	push	{r4, r5, lr}
	.cfi_def_cfa_offset 12
	.cfi_offset 4, -12
	.cfi_offset 5, -8
	.cfi_offset 14, -4
	sub	sp, sp, #12
	.cfi_def_cfa_offset 24
	mov	r5, r1
	.loc 1 1066 3
	.loc 1 1069 3
	.loc 1 1071 3
	.loc 1 1071 13 is_stmt 0
	ldr	r1, [r0, #72]
.LVL96:
	.loc 1 1071 6
	cmp	r1, #1
	bne	.L122
	mov	r4, r0
	.loc 1 1074 5 is_stmt 1
	.loc 1 1074 9
	.loc 1 1074 20 is_stmt 0
	ldrb	r1, [r0, #68]	@ zero_extendqisi2
	.loc 1 1074 11
	cmp	r1, #1
	beq	.L123
	.loc 1 1074 70 is_stmt 1 discriminator 2
	.loc 1 1074 85 is_stmt 0 discriminator 2
	movs	r1, #1
	strb	r1, [r0, #68]
	.loc 1 1074 7 is_stmt 1 discriminator 2
	.loc 1 1076 5 discriminator 2
	.loc 1 1076 19 is_stmt 0 discriminator 2
	movs	r1, #34
	str	r1, [r0, #72]
	.loc 1 1077 5 is_stmt 1 discriminator 2
	.loc 1 1077 23 is_stmt 0 discriminator 2
	movs	r1, #0
	str	r1, [r0, #76]
	.loc 1 1080 5 is_stmt 1 discriminator 2
	.loc 1 1080 22 is_stmt 0 discriminator 2
	str	r2, [r0, #52]
	.loc 1 1081 5 is_stmt 1 discriminator 2
	.loc 1 1081 23 is_stmt 0 discriminator 2
	strh	r3, [r0, #58]	@ movhi
	.loc 1 1082 5 is_stmt 1 discriminator 2
	.loc 1 1082 25 is_stmt 0 discriminator 2
	ldr	r1, [sp, #24]
	str	r1, [r0, #60]
	.loc 1 1086 5 is_stmt 1 discriminator 2
	.loc 1 1086 8 is_stmt 0 discriminator 2
	cbz	r2, .L125
.LVL97:
.L116:
	.loc 1 1091 5 is_stmt 1
	.loc 1 1091 8 is_stmt 0
	cmp	r3, #255
	bls	.L117
	.loc 1 1093 7 is_stmt 1
	.loc 1 1093 24 is_stmt 0
	movs	r3, #255
.LVL98:
	strh	r3, [r4, #56]	@ movhi
.L118:
	.loc 1 1102 5 is_stmt 1
	.loc 1 1102 16 is_stmt 0
	ldrh	r2, [r4, #56]
	.loc 1 1102 35
	ldrh	r3, [r4, #58]
	uxth	r3, r3
	.loc 1 1102 8
	cmp	r2, r3
	bcs	.L119
	.loc 1 1102 48 discriminator 1
	cmp	r2, #255
	beq	.L126
.L119:
	.loc 1 1114 7 is_stmt 1
	.loc 1 1114 11 is_stmt 0
	ldr	r3, [r4, #60]
.LVL99:
	.loc 1 1116 7 is_stmt 1
	.loc 1 1116 18 is_stmt 0
	ldr	r1, [r4, #64]
	.loc 1 1116 10
	cmp	r1, #34
	bne	.L121
	.loc 1 1117 94
	cmp	r3, #11141120
	it	ne
	cmpne	r3, #170
	beq	.L121
	.loc 1 1117 104 discriminator 2
	cmp	r3, #-1442840576
	ite	ne
	movne	r1, #0
	moveq	r1, #1
	.loc 1 1117 94 discriminator 2
	cmp	r3, #43520
	beq	.L121
	cbz	r1, .L127
.L121:
	.loc 1 1126 9 is_stmt 1
	mov	r0, r4
.LVL100:
	bl	SMBUS_ConvertOtherXferOptions
.LVL101:
	.loc 1 1129 9
	.loc 1 1130 36 is_stmt 0
	ldr	r3, [r4, #60]
	.loc 1 1129 9
	ldr	r2, .L128
	str	r2, [sp]
	ldrb	r2, [r4, #56]	@ zero_extendqisi2
	mov	r1, r5
	mov	r0, r4
	bl	SMBUS_TransferConfig
.LVL102:
.L120:
	.loc 1 1136 5 is_stmt 1
	.loc 1 1136 9
	.loc 1 1136 24 is_stmt 0
	movs	r5, #0
	strb	r5, [r4, #68]
	.loc 1 1136 7 is_stmt 1
	.loc 1 1141 5
	movs	r1, #212
	mov	r0, r4
	bl	SMBUS_Enable_IRQ
.LVL103:
	.loc 1 1143 5
	.loc 1 1143 12 is_stmt 0
	mov	r0, r5
.LVL104:
.L115:
	.loc 1 1149 1
	add	sp, sp, #12
	.cfi_remember_state
	.cfi_def_cfa_offset 12
	@ sp needed
	pop	{r4, r5, pc}
.LVL105:
.L125:
	.cfi_restore_state
	.loc 1 1088 7 is_stmt 1
	.loc 1 1088 13 is_stmt 0
	ldr	r2, [r0, #60]
.LVL106:
	.loc 1 1088 27
	bic	r2, r2, #33554432
	str	r2, [r0, #60]
	b	.L116
.L117:
	.loc 1 1097 7 is_stmt 1
	.loc 1 1097 24 is_stmt 0
	strh	r3, [r4, #56]	@ movhi
	b	.L118
.LVL107:
.L126:
	.loc 1 1104 7 is_stmt 1
	.loc 1 1105 54 is_stmt 0
	ldr	r3, [r4, #60]
	.loc 1 1105 68
	and	r3, r3, #67108864
	.loc 1 1104 7
	ldr	r1, .L128
	str	r1, [sp]
.LVL108:
	orr	r3, r3, #16777216
	uxtb	r2, r2
	mov	r1, r5
	mov	r0, r4
.LVL109:
	bl	SMBUS_TransferConfig
.LVL110:
	b	.L120
.LVL111:
.L127:
	.loc 1 1119 9 is_stmt 1
	.loc 1 1119 83 is_stmt 0
	ldr	r3, [r4, #60]
.LVL112:
	.loc 1 1119 9
	str	r1, [sp]
.LVL113:
	uxtb	r2, r2
	mov	r1, r5
	mov	r0, r4
.LVL114:
	bl	SMBUS_TransferConfig
.LVL115:
	b	.L120
.LVL116:
.L122:
	.loc 1 1147 12
	movs	r0, #2
.LVL117:
	b	.L115
.LVL118:
.L123:
	.loc 1 1074 51
	movs	r0, #2
.LVL119:
	b	.L115
.L129:
	.align	2
.L128:
	.word	-2147474432
	.cfi_endproc
.LFE342:
	.size	HAL_SMBUS_Master_Receive_IT, .-HAL_SMBUS_Master_Receive_IT
	.section	.text.HAL_SMBUS_Master_Abort_IT,"ax",%progbits
	.align	1
	.global	HAL_SMBUS_Master_Abort_IT
	.syntax unified
	.thumb
	.thumb_func
	.type	HAL_SMBUS_Master_Abort_IT, %function
HAL_SMBUS_Master_Abort_IT:
.LFB343:
	.loc 1 1161 1 is_stmt 1
	.cfi_startproc
	@ args = 0, pretend = 0, frame = 0
	@ frame_needed = 0, uses_anonymous_args = 0
.LVL120:
	.loc 1 1162 3
	.loc 1 1162 13 is_stmt 0
	ldr	r3, [r0, #72]
	.loc 1 1162 6
	cmp	r3, #1
	bne	.L136
	.loc 1 1161 1
	push	{r4, r5, lr}
	.cfi_def_cfa_offset 12
	.cfi_offset 4, -12
	.cfi_offset 5, -8
	.cfi_offset 14, -4
	sub	sp, sp, #12
	.cfi_def_cfa_offset 24
	mov	r4, r0
	.loc 1 1165 5 is_stmt 1
	.loc 1 1165 9
	.loc 1 1165 20 is_stmt 0
	ldrb	r3, [r0, #68]	@ zero_extendqisi2
	.loc 1 1165 11
	cmp	r3, #1
	beq	.L137
	.loc 1 1165 70 is_stmt 1 discriminator 2
	.loc 1 1165 85 is_stmt 0 discriminator 2
	movs	r3, #1
	strb	r3, [r0, #68]
	.loc 1 1165 7 is_stmt 1 discriminator 2
	.loc 1 1169 5 discriminator 2
	.loc 1 1169 15 is_stmt 0 discriminator 2
	ldr	r3, [r0, #64]
	.loc 1 1169 8 discriminator 2
	cmp	r3, #18
	beq	.L143
	.loc 1 1173 10 is_stmt 1
	.loc 1 1173 20 is_stmt 0
	ldr	r3, [r0, #64]
	.loc 1 1173 13
	cmp	r3, #34
	beq	.L144
	.loc 1 1181 14
	movs	r0, #1
.LVL121:
.L131:
	.loc 1 1214 1
	add	sp, sp, #12
	.cfi_remember_state
	.cfi_def_cfa_offset 12
	@ sp needed
	pop	{r4, r5, pc}
.LVL122:
.L143:
	.cfi_restore_state
	.loc 1 1171 7 is_stmt 1
	.loc 1 1171 21 is_stmt 0
	str	r3, [r0, #72]
	b	.L133
.L144:
	.loc 1 1175 7 is_stmt 1
	.loc 1 1175 21 is_stmt 0
	str	r3, [r0, #72]
.L133:
	.loc 1 1183 5 is_stmt 1
	.loc 1 1183 23 is_stmt 0
	movs	r5, #0
	str	r5, [r4, #76]
	.loc 1 1187 5 is_stmt 1
	str	r5, [sp]
	mov	r3, #33554432
	movs	r2, #1
	mov	r0, r4
.LVL123:
	bl	SMBUS_TransferConfig
.LVL124:
	.loc 1 1190 5
	.loc 1 1190 9
	.loc 1 1190 24 is_stmt 0
	strb	r5, [r4, #68]
	.loc 1 1190 7 is_stmt 1
	.loc 1 1195 5
	.loc 1 1195 15 is_stmt 0
	ldr	r3, [r4, #72]
	.loc 1 1195 8
	cmp	r3, #18
	beq	.L145
	.loc 1 1199 10 is_stmt 1
	.loc 1 1199 20 is_stmt 0
	ldr	r3, [r4, #72]
	.loc 1 1199 13
	cmp	r3, #34
	beq	.L146
.L135:
	.loc 1 1206 5 is_stmt 1
	.loc 1 1208 5
	.loc 1 1208 12 is_stmt 0
	movs	r0, #0
	b	.L131
.L145:
	.loc 1 1197 7 is_stmt 1
	movs	r1, #242
	mov	r0, r4
	bl	SMBUS_Enable_IRQ
.LVL125:
	b	.L135
.L146:
	.loc 1 1201 7
	movs	r1, #212
	mov	r0, r4
	bl	SMBUS_Enable_IRQ
.LVL126:
	b	.L135
.LVL127:
.L136:
	.cfi_def_cfa_offset 0
	.cfi_restore 4
	.cfi_restore 5
	.cfi_restore 14
	.loc 1 1212 12 is_stmt 0
	movs	r0, #2
.LVL128:
	.loc 1 1214 1
	bx	lr
.LVL129:
.L137:
	.cfi_def_cfa_offset 24
	.cfi_offset 4, -12
	.cfi_offset 5, -8
	.cfi_offset 14, -4
	.loc 1 1165 51
	movs	r0, #2
.LVL130:
	b	.L131
	.cfi_endproc
.LFE343:
	.size	HAL_SMBUS_Master_Abort_IT, .-HAL_SMBUS_Master_Abort_IT
	.section	.text.HAL_SMBUS_Slave_Transmit_IT,"ax",%progbits
	.align	1
	.global	HAL_SMBUS_Slave_Transmit_IT
	.syntax unified
	.thumb
	.thumb_func
	.type	HAL_SMBUS_Slave_Transmit_IT, %function
HAL_SMBUS_Slave_Transmit_IT:
.LFB344:
	.loc 1 1227 1 is_stmt 1
	.cfi_startproc
	@ args = 0, pretend = 0, frame = 0
	@ frame_needed = 0, uses_anonymous_args = 0
.LVL131:
	push	{r4, r5, r6, r7, lr}
	.cfi_def_cfa_offset 20
	.cfi_offset 4, -20
	.cfi_offset 5, -16
	.cfi_offset 6, -12
	.cfi_offset 7, -8
	.cfi_offset 14, -4
	sub	sp, sp, #12
	.cfi_def_cfa_offset 32
	mov	r5, r2
	.loc 1 1229 3
	.loc 1 1231 3
	.loc 1 1231 14 is_stmt 0
	ldr	r2, [r0, #72]
.LVL132:
	.loc 1 1231 6
	tst	r2, #8
	beq	.L154
	mov	r4, r0
	mov	r7, r1
	mov	r6, r3
	.loc 1 1233 5 is_stmt 1
	.loc 1 1233 8 is_stmt 0
	cmp	r5, #0
	it	ne
	cmpne	r1, #0
	bne	.L149
	.loc 1 1235 7 is_stmt 1
	.loc 1 1235 25 is_stmt 0
	mov	r3, #512
.LVL133:
	str	r3, [r0, #76]
	.loc 1 1236 7 is_stmt 1
	.loc 1 1236 14 is_stmt 0
	movs	r0, #1
.LVL134:
.L148:
	.loc 1 1312 1
	add	sp, sp, #12
	.cfi_remember_state
	.cfi_def_cfa_offset 20
	@ sp needed
	pop	{r4, r5, r6, r7, pc}
.LVL135:
.L149:
	.cfi_restore_state
	.loc 1 1240 5 is_stmt 1
	movs	r1, #250
.LVL136:
	bl	SMBUS_Disable_IRQ
.LVL137:
	.loc 1 1243 5
	.loc 1 1243 9
	.loc 1 1243 20 is_stmt 0
	ldrb	r3, [r4, #68]	@ zero_extendqisi2
	.loc 1 1243 11
	cmp	r3, #1
	beq	.L155
	.loc 1 1243 70 is_stmt 1 discriminator 2
	.loc 1 1243 85 is_stmt 0 discriminator 2
	movs	r3, #1
	strb	r3, [r4, #68]
	.loc 1 1243 7 is_stmt 1 discriminator 2
	.loc 1 1245 5 discriminator 2
	.loc 1 1245 19 is_stmt 0 discriminator 2
	movs	r3, #58
	str	r3, [r4, #72]
	.loc 1 1246 5 is_stmt 1 discriminator 2
	.loc 1 1246 23 is_stmt 0 discriminator 2
	movs	r3, #0
	str	r3, [r4, #76]
	.loc 1 1249 5 is_stmt 1 discriminator 2
	.loc 1 1249 11 is_stmt 0 discriminator 2
	ldr	r2, [r4]
	.loc 1 1249 21 discriminator 2
	ldr	r3, [r2]
	.loc 1 1249 27 discriminator 2
	orr	r3, r3, #65536
	str	r3, [r2]
	.loc 1 1252 5 is_stmt 1 discriminator 2
	.loc 1 1252 11 is_stmt 0 discriminator 2
	ldr	r2, [r4]
	.loc 1 1252 21 discriminator 2
	ldr	r3, [r2, #4]
	.loc 1 1252 27 discriminator 2
	bic	r3, r3, #32768
	str	r3, [r2, #4]
	.loc 1 1255 5 is_stmt 1 discriminator 2
	.loc 1 1255 22 is_stmt 0 discriminator 2
	str	r7, [r4, #52]
	.loc 1 1256 5 is_stmt 1 discriminator 2
	.loc 1 1256 23 is_stmt 0 discriminator 2
	strh	r5, [r4, #58]	@ movhi
	.loc 1 1257 5 is_stmt 1 discriminator 2
	.loc 1 1257 25 is_stmt 0 discriminator 2
	str	r6, [r4, #60]
	.loc 1 1260 5 is_stmt 1 discriminator 2
	mov	r0, r4
	bl	SMBUS_ConvertOtherXferOptions
.LVL138:
	.loc 1 1262 5 discriminator 2
	.loc 1 1262 8 is_stmt 0 discriminator 2
	cmp	r5, #255
	bls	.L150
	.loc 1 1264 7 is_stmt 1
	.loc 1 1264 24 is_stmt 0
	movs	r3, #255
	strh	r3, [r4, #56]	@ movhi
.L151:
	.loc 1 1272 5 is_stmt 1
	.loc 1 1272 16 is_stmt 0
	ldrh	r2, [r4, #56]
	.loc 1 1272 35
	ldrh	r3, [r4, #58]
	uxth	r3, r3
	.loc 1 1272 8
	cmp	r2, r3
	bcs	.L152
	.loc 1 1272 48 discriminator 1
	cmp	r2, #255
	beq	.L157
.L152:
	.loc 1 1281 7 is_stmt 1
	.loc 1 1281 72 is_stmt 0
	ldr	r3, [r4, #60]
	.loc 1 1281 7
	movs	r1, #0
	str	r1, [sp]
	uxtb	r2, r2
	mov	r0, r4
	bl	SMBUS_TransferConfig
.LVL139:
	.loc 1 1286 7 is_stmt 1
	.loc 1 1286 20 is_stmt 0
	ldr	r3, [r4]
	.loc 1 1286 30
	ldr	r3, [r3, #4]
	.loc 1 1286 10
	tst	r3, #67108864
	beq	.L153
	.loc 1 1288 9 is_stmt 1
	.loc 1 1288 15 is_stmt 0
	ldrh	r3, [r4, #56]
	.loc 1 1288 25
	subs	r3, r3, #1
	strh	r3, [r4, #56]	@ movhi
	.loc 1 1289 9 is_stmt 1
	.loc 1 1289 15 is_stmt 0
	ldrh	r3, [r4, #58]
	uxth	r3, r3
	.loc 1 1289 26
	subs	r3, r3, #1
	uxth	r3, r3
	strh	r3, [r4, #58]	@ movhi
.L153:
	.loc 1 1295 5 is_stmt 1
	.loc 1 1295 105 is_stmt 0
	ldr	r3, [r4]
	.loc 1 1295 94
	movs	r2, #8
	str	r2, [r3, #28]
	.loc 1 1298 5 is_stmt 1
	.loc 1 1298 9
	.loc 1 1298 24 is_stmt 0
	movs	r5, #0
	strb	r5, [r4, #68]
	.loc 1 1298 7 is_stmt 1
	.loc 1 1304 5
	movs	r1, #250
	mov	r0, r4
	bl	SMBUS_Enable_IRQ
.LVL140:
	.loc 1 1306 5
	.loc 1 1306 12 is_stmt 0
	mov	r0, r5
	b	.L148
.L150:
	.loc 1 1268 7 is_stmt 1
	.loc 1 1268 24 is_stmt 0
	strh	r5, [r4, #56]	@ movhi
	b	.L151
.L157:
	.loc 1 1274 7 is_stmt 1
	.loc 1 1275 54 is_stmt 0
	ldr	r3, [r4, #60]
	.loc 1 1275 68
	and	r3, r3, #67108864
	.loc 1 1274 7
	movs	r1, #0
	str	r1, [sp]
	orr	r3, r3, #16777216
	uxtb	r2, r2
	mov	r0, r4
	bl	SMBUS_TransferConfig
.LVL141:
	b	.L153
.LVL142:
.L154:
	.loc 1 1310 12
	movs	r0, #2
.LVL143:
	b	.L148
.LVL144:
.L155:
	.loc 1 1243 51
	movs	r0, #2
	b	.L148
	.cfi_endproc
.LFE344:
	.size	HAL_SMBUS_Slave_Transmit_IT, .-HAL_SMBUS_Slave_Transmit_IT
	.section	.text.HAL_SMBUS_Slave_Receive_IT,"ax",%progbits
	.align	1
	.global	HAL_SMBUS_Slave_Receive_IT
	.syntax unified
	.thumb
	.thumb_func
	.type	HAL_SMBUS_Slave_Receive_IT, %function
HAL_SMBUS_Slave_Receive_IT:
.LFB345:
	.loc 1 1325 1 is_stmt 1
	.cfi_startproc
	@ args = 0, pretend = 0, frame = 0
	@ frame_needed = 0, uses_anonymous_args = 0
.LVL145:
	push	{r4, r5, r6, r7, lr}
	.cfi_def_cfa_offset 20
	.cfi_offset 4, -20
	.cfi_offset 5, -16
	.cfi_offset 6, -12
	.cfi_offset 7, -8
	.cfi_offset 14, -4
	sub	sp, sp, #12
	.cfi_def_cfa_offset 32
	mov	r5, r2
	.loc 1 1327 3
	.loc 1 1329 3
	.loc 1 1329 14 is_stmt 0
	ldr	r2, [r0, #72]
.LVL146:
	.loc 1 1329 6
	tst	r2, #8
	beq	.L165
	mov	r4, r0
	mov	r7, r1
	mov	r6, r3
	.loc 1 1331 5 is_stmt 1
	.loc 1 1331 8 is_stmt 0
	cmp	r5, #0
	it	ne
	cmpne	r1, #0
	bne	.L160
	.loc 1 1333 7 is_stmt 1
	.loc 1 1333 25 is_stmt 0
	mov	r3, #512
.LVL147:
	str	r3, [r0, #76]
	.loc 1 1334 7 is_stmt 1
	.loc 1 1334 14 is_stmt 0
	movs	r0, #1
.LVL148:
.L159:
	.loc 1 1395 1
	add	sp, sp, #12
	.cfi_remember_state
	.cfi_def_cfa_offset 20
	@ sp needed
	pop	{r4, r5, r6, r7, pc}
.LVL149:
.L160:
	.cfi_restore_state
	.loc 1 1338 5 is_stmt 1
	movs	r1, #252
.LVL150:
	bl	SMBUS_Disable_IRQ
.LVL151:
	.loc 1 1341 5
	.loc 1 1341 9
	.loc 1 1341 20 is_stmt 0
	ldrb	r3, [r4, #68]	@ zero_extendqisi2
	.loc 1 1341 11
	cmp	r3, #1
	beq	.L166
	.loc 1 1341 70 is_stmt 1 discriminator 2
	.loc 1 1341 85 is_stmt 0 discriminator 2
	movs	r3, #1
	strb	r3, [r4, #68]
	.loc 1 1341 7 is_stmt 1 discriminator 2
	.loc 1 1343 5 discriminator 2
	.loc 1 1343 19 is_stmt 0 discriminator 2
	movs	r3, #74
	str	r3, [r4, #72]
	.loc 1 1344 5 is_stmt 1 discriminator 2
	.loc 1 1344 23 is_stmt 0 discriminator 2
	movs	r3, #0
	str	r3, [r4, #76]
	.loc 1 1347 5 is_stmt 1 discriminator 2
	.loc 1 1347 11 is_stmt 0 discriminator 2
	ldr	r2, [r4]
	.loc 1 1347 21 discriminator 2
	ldr	r3, [r2]
	.loc 1 1347 27 discriminator 2
	orr	r3, r3, #65536
	str	r3, [r2]
	.loc 1 1350 5 is_stmt 1 discriminator 2
	.loc 1 1350 11 is_stmt 0 discriminator 2
	ldr	r2, [r4]
	.loc 1 1350 21 discriminator 2
	ldr	r3, [r2, #4]
	.loc 1 1350 27 discriminator 2
	bic	r3, r3, #32768
	str	r3, [r2, #4]
	.loc 1 1353 5 is_stmt 1 discriminator 2
	.loc 1 1353 22 is_stmt 0 discriminator 2
	str	r7, [r4, #52]
	.loc 1 1354 5 is_stmt 1 discriminator 2
	.loc 1 1354 22 is_stmt 0 discriminator 2
	strh	r5, [r4, #56]	@ movhi
	.loc 1 1355 5 is_stmt 1 discriminator 2
	.loc 1 1355 23 is_stmt 0 discriminator 2
	strh	r5, [r4, #58]	@ movhi
	.loc 1 1356 5 is_stmt 1 discriminator 2
	.loc 1 1356 25 is_stmt 0 discriminator 2
	str	r6, [r4, #60]
	.loc 1 1359 5 is_stmt 1 discriminator 2
	mov	r0, r4
	bl	SMBUS_ConvertOtherXferOptions
.LVL152:
	.loc 1 1366 5 discriminator 2
	.loc 1 1366 20 is_stmt 0 discriminator 2
	ldr	r3, [r4]
	.loc 1 1366 30 discriminator 2
	ldr	r3, [r3, #4]
	.loc 1 1366 8 discriminator 2
	tst	r3, #67108864
	beq	.L161
	.loc 1 1366 74 discriminator 1
	ldrh	r3, [r4, #56]
	.loc 1 1366 64 discriminator 1
	cmp	r3, #2
	beq	.L162
.L161:
	.loc 1 1366 103 discriminator 3
	ldrh	r3, [r4, #56]
	.loc 1 1366 93 discriminator 3
	cmp	r3, #1
	bne	.L163
.L162:
	.loc 1 1368 7 is_stmt 1
	.loc 1 1368 72 is_stmt 0
	ldr	r3, [r4, #60]
	.loc 1 1368 7
	movs	r1, #0
	str	r1, [sp]
	ldrb	r2, [r4, #56]	@ zero_extendqisi2
	mov	r0, r4
	bl	SMBUS_TransferConfig
.LVL153:
.L164:
	.loc 1 1378 5 is_stmt 1
	.loc 1 1378 105 is_stmt 0
	ldr	r3, [r4]
	.loc 1 1378 94
	movs	r2, #8
	str	r2, [r3, #28]
	.loc 1 1381 5 is_stmt 1
	.loc 1 1381 9
	.loc 1 1381 24 is_stmt 0
	movs	r5, #0
	strb	r5, [r4, #68]
	.loc 1 1381 7 is_stmt 1
	.loc 1 1387 5
	movs	r1, #252
	mov	r0, r4
	bl	SMBUS_Enable_IRQ
.LVL154:
	.loc 1 1389 5
	.loc 1 1389 12 is_stmt 0
	mov	r0, r5
	b	.L159
.L163:
	.loc 1 1373 7 is_stmt 1
	.loc 1 1373 48 is_stmt 0
	ldr	r3, [r4, #60]
	.loc 1 1373 7
	movs	r1, #0
	str	r1, [sp]
	orr	r3, r3, #16777216
	movs	r2, #1
	mov	r0, r4
	bl	SMBUS_TransferConfig
.LVL155:
	b	.L164
.LVL156:
.L165:
	.loc 1 1393 12
	movs	r0, #2
.LVL157:
	b	.L159
.LVL158:
.L166:
	.loc 1 1341 51
	movs	r0, #2
	b	.L159
	.cfi_endproc
.LFE345:
	.size	HAL_SMBUS_Slave_Receive_IT, .-HAL_SMBUS_Slave_Receive_IT
	.section	.text.HAL_SMBUS_EnableListen_IT,"ax",%progbits
	.align	1
	.global	HAL_SMBUS_EnableListen_IT
	.syntax unified
	.thumb
	.thumb_func
	.type	HAL_SMBUS_EnableListen_IT, %function
HAL_SMBUS_EnableListen_IT:
.LFB346:
	.loc 1 1404 1 is_stmt 1
	.cfi_startproc
	@ args = 0, pretend = 0, frame = 0
	@ frame_needed = 0, uses_anonymous_args = 0
.LVL159:
	push	{r3, lr}
	.cfi_def_cfa_offset 8
	.cfi_offset 3, -8
	.cfi_offset 14, -4
	.loc 1 1405 3
	.loc 1 1405 17 is_stmt 0
	movs	r2, #8
	str	r2, [r0, #72]
	.loc 1 1408 3 is_stmt 1
	movs	r1, #56
	bl	SMBUS_Enable_IRQ
.LVL160:
	.loc 1 1410 3
	.loc 1 1411 1 is_stmt 0
	movs	r0, #0
	pop	{r3, pc}
	.cfi_endproc
.LFE346:
	.size	HAL_SMBUS_EnableListen_IT, .-HAL_SMBUS_EnableListen_IT
	.section	.text.HAL_SMBUS_DisableListen_IT,"ax",%progbits
	.align	1
	.global	HAL_SMBUS_DisableListen_IT
	.syntax unified
	.thumb
	.thumb_func
	.type	HAL_SMBUS_DisableListen_IT, %function
HAL_SMBUS_DisableListen_IT:
.LFB347:
	.loc 1 1420 1 is_stmt 1
	.cfi_startproc
	@ args = 0, pretend = 0, frame = 0
	@ frame_needed = 0, uses_anonymous_args = 0
.LVL161:
	push	{r3, lr}
	.cfi_def_cfa_offset 8
	.cfi_offset 3, -8
	.cfi_offset 14, -4
	.loc 1 1422 3
	.loc 1 1422 13 is_stmt 0
	ldr	r3, [r0, #72]
	.loc 1 1422 6
	cmp	r3, #8
	beq	.L174
	.loc 1 1433 12
	movs	r0, #2
.LVL162:
.L171:
	.loc 1 1435 1
	pop	{r3, pc}
.LVL163:
.L174:
	.loc 1 1424 5 is_stmt 1
	.loc 1 1424 19 is_stmt 0
	movs	r3, #1
	str	r3, [r0, #72]
	.loc 1 1427 5 is_stmt 1
	movs	r1, #56
	bl	SMBUS_Disable_IRQ
.LVL164:
	.loc 1 1429 5
	.loc 1 1429 12 is_stmt 0
	movs	r0, #0
	b	.L171
	.cfi_endproc
.LFE347:
	.size	HAL_SMBUS_DisableListen_IT, .-HAL_SMBUS_DisableListen_IT
	.section	.text.HAL_SMBUS_EnableAlert_IT,"ax",%progbits
	.align	1
	.global	HAL_SMBUS_EnableAlert_IT
	.syntax unified
	.thumb
	.thumb_func
	.type	HAL_SMBUS_EnableAlert_IT, %function
HAL_SMBUS_EnableAlert_IT:
.LFB348:
	.loc 1 1444 1 is_stmt 1
	.cfi_startproc
	@ args = 0, pretend = 0, frame = 0
	@ frame_needed = 0, uses_anonymous_args = 0
.LVL165:
	push	{r3, lr}
	.cfi_def_cfa_offset 8
	.cfi_offset 3, -8
	.cfi_offset 14, -4
	.loc 1 1446 3
	.loc 1 1446 9 is_stmt 0
	ldr	r1, [r0]
	.loc 1 1446 19
	ldr	r2, [r1]
	.loc 1 1446 25
	orr	r2, r2, #4194304
	str	r2, [r1]
	.loc 1 1449 3 is_stmt 1
	.loc 1 1449 105 is_stmt 0
	ldr	r3, [r0]
	.loc 1 1449 94
	mov	r2, #8192
	str	r2, [r3, #28]
	.loc 1 1452 3 is_stmt 1
	movs	r1, #128
	bl	SMBUS_Enable_IRQ
.LVL166:
	.loc 1 1454 3
	.loc 1 1455 1 is_stmt 0
	movs	r0, #0
	pop	{r3, pc}
	.cfi_endproc
.LFE348:
	.size	HAL_SMBUS_EnableAlert_IT, .-HAL_SMBUS_EnableAlert_IT
	.section	.text.HAL_SMBUS_DisableAlert_IT,"ax",%progbits
	.align	1
	.global	HAL_SMBUS_DisableAlert_IT
	.syntax unified
	.thumb
	.thumb_func
	.type	HAL_SMBUS_DisableAlert_IT, %function
HAL_SMBUS_DisableAlert_IT:
.LFB349:
	.loc 1 1463 1 is_stmt 1
	.cfi_startproc
	@ args = 0, pretend = 0, frame = 0
	@ frame_needed = 0, uses_anonymous_args = 0
.LVL167:
	push	{r3, lr}
	.cfi_def_cfa_offset 8
	.cfi_offset 3, -8
	.cfi_offset 14, -4
	.loc 1 1465 3
	.loc 1 1465 9 is_stmt 0
	ldr	r2, [r0]
	.loc 1 1465 19
	ldr	r3, [r2]
	.loc 1 1465 25
	bic	r3, r3, #4194304
	str	r3, [r2]
	.loc 1 1468 3 is_stmt 1
	movs	r1, #128
	bl	SMBUS_Disable_IRQ
.LVL168:
	.loc 1 1470 3
	.loc 1 1471 1 is_stmt 0
	movs	r0, #0
	pop	{r3, pc}
	.cfi_endproc
.LFE349:
	.size	HAL_SMBUS_DisableAlert_IT, .-HAL_SMBUS_DisableAlert_IT
	.section	.text.HAL_SMBUS_IsDeviceReady,"ax",%progbits
	.align	1
	.global	HAL_SMBUS_IsDeviceReady
	.syntax unified
	.thumb
	.thumb_func
	.type	HAL_SMBUS_IsDeviceReady, %function
HAL_SMBUS_IsDeviceReady:
.LFB350:
	.loc 1 1485 1 is_stmt 1
	.cfi_startproc
	@ args = 0, pretend = 0, frame = 8
	@ frame_needed = 0, uses_anonymous_args = 0
.LVL169:
	push	{r4, r5, r6, r7, r8, r9, lr}
	.cfi_def_cfa_offset 28
	.cfi_offset 4, -28
	.cfi_offset 5, -24
	.cfi_offset 6, -20
	.cfi_offset 7, -16
	.cfi_offset 8, -12
	.cfi_offset 9, -8
	.cfi_offset 14, -4
	sub	sp, sp, #12
	.cfi_def_cfa_offset 40
	mov	r5, r3
	.loc 1 1486 3
	.loc 1 1488 3
	.loc 1 1488 21 is_stmt 0
	movs	r3, #0
.LVL170:
	str	r3, [sp, #4]
	.loc 1 1490 3 is_stmt 1
	.loc 1 1491 3
	.loc 1 1493 3
	.loc 1 1493 13 is_stmt 0
	ldr	r3, [r0, #72]
	.loc 1 1493 6
	cmp	r3, #1
	bne	.L190
	mov	r6, r0
	mov	r9, r1
	mov	r8, r2
	.loc 1 1495 5 is_stmt 1
	.loc 1 1495 21 is_stmt 0
	ldr	r3, [r0]
	.loc 1 1495 31
	ldr	r3, [r3, #24]
	.loc 1 1495 8
	tst	r3, #32768
	bne	.L191
	.loc 1 1501 5 is_stmt 1
	.loc 1 1501 9
	.loc 1 1501 20 is_stmt 0
	ldrb	r3, [r0, #68]	@ zero_extendqisi2
	.loc 1 1501 11
	cmp	r3, #1
	beq	.L192
	.loc 1 1501 70 is_stmt 1 discriminator 2
	.loc 1 1501 85 is_stmt 0 discriminator 2
	movs	r3, #1
	strb	r3, [r0, #68]
	.loc 1 1501 7 is_stmt 1 discriminator 2
	.loc 1 1503 5 discriminator 2
	.loc 1 1503 19 is_stmt 0 discriminator 2
	movs	r3, #2
	str	r3, [r0, #72]
	.loc 1 1504 5 is_stmt 1 discriminator 2
	.loc 1 1504 23 is_stmt 0 discriminator 2
	movs	r3, #0
	str	r3, [r0, #76]
.LVL171:
.L189:
	.loc 1 1506 5 is_stmt 1
	.loc 1 1509 7
	.loc 1 1509 46 is_stmt 0
	ldr	r3, [r6, #16]
	.loc 1 1509 208
	cmp	r3, #1
	beq	.L197
	.loc 1 1509 208 discriminator 2
	ubfx	r3, r9, #0, #10
	orr	r3, r3, #10240
.L182:
	.loc 1 1509 13 discriminator 4
	ldr	r2, [r6]
	.loc 1 1509 29 discriminator 4
	str	r3, [r2, #4]
	.loc 1 1513 7 is_stmt 1 discriminator 4
	.loc 1 1513 19 is_stmt 0 discriminator 4
	bl	HAL_GetTick
.LVL172:
	mov	r7, r0
.LVL173:
	.loc 1 1515 7 is_stmt 1 discriminator 4
	.loc 1 1515 26 is_stmt 0 discriminator 4
	ldr	r2, [r6]
	.loc 1 1515 36 discriminator 4
	ldr	r3, [r2, #24]
	.loc 1 1515 128 discriminator 4
	ubfx	ip, r3, #5, #1
.LVL174:
	.loc 1 1516 7 is_stmt 1 discriminator 4
	.loc 1 1516 36 is_stmt 0 discriminator 4
	ldr	r3, [r2, #24]
	.loc 1 1516 128 discriminator 4
	ubfx	r3, r3, #4, #1
.LVL175:
	.loc 1 1518 7 is_stmt 1 discriminator 4
	.loc 1 1518 13 is_stmt 0 discriminator 4
	b	.L183
.LVL176:
.L197:
	.loc 1 1509 83 discriminator 1
	ubfx	r2, r9, #0, #10
	.loc 1 1509 208 discriminator 1
	ldr	r3, .L201
	orrs	r3, r3, r2
	b	.L182
.LVL177:
.L184:
	.loc 1 1536 9 is_stmt 1
	.loc 1 1536 28 is_stmt 0
	ldr	r3, [r6]
	.loc 1 1536 38
	ldr	r4, [r3, #24]
	.loc 1 1536 130
	ubfx	ip, r4, #5, #1
.LVL178:
	.loc 1 1537 9 is_stmt 1
	.loc 1 1537 38 is_stmt 0
	ldr	r3, [r3, #24]
	.loc 1 1537 130
	ubfx	r3, r3, #4, #1
.LVL179:
.L183:
	.loc 1 1518 30 is_stmt 1
	orrs	ip, ip, r3
.LVL180:
	bne	.L198
	.loc 1 1520 9
	.loc 1 1520 12 is_stmt 0
	cmp	r5, #-1
	beq	.L184
	.loc 1 1522 11 is_stmt 1
	.loc 1 1522 17 is_stmt 0
	bl	HAL_GetTick
.LVL181:
	.loc 1 1522 31
	subs	r0, r0, r7
	.loc 1 1522 14
	cmp	r0, r5
	bhi	.L185
	.loc 1 1522 55 discriminator 1
	cmp	r5, #0
	bne	.L184
.L185:
	.loc 1 1525 13 is_stmt 1
	.loc 1 1525 27 is_stmt 0
	movs	r0, #1
	str	r0, [r6, #72]
	.loc 1 1528 13 is_stmt 1
	.loc 1 1528 19 is_stmt 0
	ldr	r3, [r6, #76]
	.loc 1 1528 31
	orr	r3, r3, #16
	str	r3, [r6, #76]
	.loc 1 1531 13 is_stmt 1
	.loc 1 1531 17
	.loc 1 1531 32 is_stmt 0
	movs	r3, #0
	strb	r3, [r6, #68]
	.loc 1 1531 15 is_stmt 1
	.loc 1 1532 13
.LVL182:
.L180:
	.loc 1 1609 1 is_stmt 0
	add	sp, sp, #12
	.cfi_remember_state
	.cfi_def_cfa_offset 28
	@ sp needed
	pop	{r4, r5, r6, r7, r8, r9, pc}
.LVL183:
.L198:
	.cfi_restore_state
	.loc 1 1541 7 is_stmt 1
	.loc 1 1541 23 is_stmt 0
	ldr	r3, [r6]
.LVL184:
	.loc 1 1541 33
	ldr	r3, [r3, #24]
	.loc 1 1541 10
	tst	r3, #16
	beq	.L199
	.loc 1 1563 9 is_stmt 1
	.loc 1 1563 13 is_stmt 0
	mov	r3, r5
	movs	r2, #0
	movs	r1, #32
	mov	r0, r6
	bl	SMBUS_WaitOnFlagUntilTimeout
.LVL185:
	.loc 1 1563 12
	cmp	r0, #0
	bne	.L194
	.loc 1 1569 9 is_stmt 1
	.loc 1 1569 109 is_stmt 0
	ldr	r3, [r6]
	.loc 1 1569 98
	movs	r2, #16
	str	r2, [r3, #28]
	.loc 1 1572 9 is_stmt 1
	.loc 1 1572 109 is_stmt 0
	ldr	r3, [r6]
	.loc 1 1572 98
	movs	r2, #32
	str	r2, [r3, #28]
	.loc 1 1576 7 is_stmt 1
	.loc 1 1576 24 is_stmt 0
	ldr	r3, [sp, #4]
	.loc 1 1576 10
	cmp	r3, r8
	beq	.L200
.L188:
	.loc 1 1592 7 is_stmt 1
	.loc 1 1592 19 is_stmt 0
	ldr	r3, [sp, #4]
	adds	r3, r3, #1
	str	r3, [sp, #4]
	.loc 1 1593 27 is_stmt 1
	ldr	r3, [sp, #4]
	cmp	r3, r8
	bcc	.L189
	.loc 1 1595 5
	.loc 1 1595 19 is_stmt 0
	movs	r0, #1
	str	r0, [r6, #72]
	.loc 1 1598 5 is_stmt 1
	.loc 1 1598 11 is_stmt 0
	ldr	r3, [r6, #76]
	.loc 1 1598 23
	orr	r3, r3, #16
	str	r3, [r6, #76]
	.loc 1 1601 5 is_stmt 1
	.loc 1 1601 9
	.loc 1 1601 24 is_stmt 0
	movs	r3, #0
	strb	r3, [r6, #68]
	.loc 1 1601 7 is_stmt 1
	.loc 1 1603 5
	.loc 1 1603 12 is_stmt 0
	b	.L180
.L199:
	.loc 1 1544 9 is_stmt 1
	.loc 1 1544 13 is_stmt 0
	mov	r3, r5
	movs	r2, #0
	movs	r1, #32
	mov	r0, r6
	bl	SMBUS_WaitOnFlagUntilTimeout
.LVL186:
	.loc 1 1544 12
	cbnz	r0, .L193
	.loc 1 1550 9 is_stmt 1
	.loc 1 1550 109 is_stmt 0
	ldr	r3, [r6]
	.loc 1 1550 98
	movs	r2, #32
	str	r2, [r3, #28]
	.loc 1 1553 9 is_stmt 1
	.loc 1 1553 23 is_stmt 0
	movs	r3, #1
	str	r3, [r6, #72]
	.loc 1 1556 9 is_stmt 1
	.loc 1 1556 13
	.loc 1 1556 28 is_stmt 0
	movs	r3, #0
	strb	r3, [r6, #68]
	.loc 1 1556 11 is_stmt 1
	.loc 1 1558 9
	.loc 1 1558 16 is_stmt 0
	b	.L180
.L200:
	.loc 1 1579 9 is_stmt 1
	.loc 1 1579 15 is_stmt 0
	ldr	r2, [r6]
	.loc 1 1579 25
	ldr	r3, [r2, #4]
	.loc 1 1579 31
	orr	r3, r3, #16384
	str	r3, [r2, #4]
	.loc 1 1582 9 is_stmt 1
	.loc 1 1582 13 is_stmt 0
	mov	r3, r5
	movs	r2, #0
	movs	r1, #32
	mov	r0, r6
	bl	SMBUS_WaitOnFlagUntilTimeout
.LVL187:
	.loc 1 1582 12
	cbnz	r0, .L195
	.loc 1 1588 9 is_stmt 1
	.loc 1 1588 109 is_stmt 0
	ldr	r3, [r6]
	.loc 1 1588 98
	movs	r2, #32
	str	r2, [r3, #28]
	b	.L188
.LVL188:
.L190:
	.loc 1 1607 12
	movs	r0, #2
.LVL189:
	b	.L180
.LVL190:
.L191:
	.loc 1 1497 14
	movs	r0, #2
.LVL191:
	b	.L180
.LVL192:
.L192:
	.loc 1 1501 51
	movs	r0, #2
.LVL193:
	b	.L180
.LVL194:
.L193:
	.loc 1 1546 18
	movs	r0, #1
	b	.L180
.L194:
	.loc 1 1565 18
	movs	r0, #1
	b	.L180
.L195:
	.loc 1 1584 18
	movs	r0, #1
	b	.L180
.L202:
	.align	2
.L201:
	.word	33562624
	.cfi_endproc
.LFE350:
	.size	HAL_SMBUS_IsDeviceReady, .-HAL_SMBUS_IsDeviceReady
	.section	.text.HAL_SMBUS_MasterTxCpltCallback,"ax",%progbits
	.align	1
	.weak	HAL_SMBUS_MasterTxCpltCallback
	.syntax unified
	.thumb
	.thumb_func
	.type	HAL_SMBUS_MasterTxCpltCallback, %function
HAL_SMBUS_MasterTxCpltCallback:
.LFB353:
	.loc 1 1714 1 is_stmt 1
	.cfi_startproc
	@ args = 0, pretend = 0, frame = 0
	@ frame_needed = 0, uses_anonymous_args = 0
	@ link register save eliminated.
.LVL195:
	.loc 1 1716 3
	.loc 1 1721 1 is_stmt 0
	bx	lr
	.cfi_endproc
.LFE353:
	.size	HAL_SMBUS_MasterTxCpltCallback, .-HAL_SMBUS_MasterTxCpltCallback
	.section	.text.HAL_SMBUS_MasterRxCpltCallback,"ax",%progbits
	.align	1
	.weak	HAL_SMBUS_MasterRxCpltCallback
	.syntax unified
	.thumb
	.thumb_func
	.type	HAL_SMBUS_MasterRxCpltCallback, %function
HAL_SMBUS_MasterRxCpltCallback:
.LFB354:
	.loc 1 1730 1 is_stmt 1
	.cfi_startproc
	@ args = 0, pretend = 0, frame = 0
	@ frame_needed = 0, uses_anonymous_args = 0
	@ link register save eliminated.
.LVL196:
	.loc 1 1732 3
	.loc 1 1737 1 is_stmt 0
	bx	lr
	.cfi_endproc
.LFE354:
	.size	HAL_SMBUS_MasterRxCpltCallback, .-HAL_SMBUS_MasterRxCpltCallback
	.section	.text.HAL_SMBUS_SlaveTxCpltCallback,"ax",%progbits
	.align	1
	.weak	HAL_SMBUS_SlaveTxCpltCallback
	.syntax unified
	.thumb
	.thumb_func
	.type	HAL_SMBUS_SlaveTxCpltCallback, %function
HAL_SMBUS_SlaveTxCpltCallback:
.LFB355:
	.loc 1 1745 1 is_stmt 1
	.cfi_startproc
	@ args = 0, pretend = 0, frame = 0
	@ frame_needed = 0, uses_anonymous_args = 0
	@ link register save eliminated.
.LVL197:
	.loc 1 1747 3
	.loc 1 1752 1 is_stmt 0
	bx	lr
	.cfi_endproc
.LFE355:
	.size	HAL_SMBUS_SlaveTxCpltCallback, .-HAL_SMBUS_SlaveTxCpltCallback
	.section	.text.HAL_SMBUS_SlaveRxCpltCallback,"ax",%progbits
	.align	1
	.weak	HAL_SMBUS_SlaveRxCpltCallback
	.syntax unified
	.thumb
	.thumb_func
	.type	HAL_SMBUS_SlaveRxCpltCallback, %function
HAL_SMBUS_SlaveRxCpltCallback:
.LFB356:
	.loc 1 1761 1 is_stmt 1
	.cfi_startproc
	@ args = 0, pretend = 0, frame = 0
	@ frame_needed = 0, uses_anonymous_args = 0
	@ link register save eliminated.
.LVL198:
	.loc 1 1763 3
	.loc 1 1768 1 is_stmt 0
	bx	lr
	.cfi_endproc
.LFE356:
	.size	HAL_SMBUS_SlaveRxCpltCallback, .-HAL_SMBUS_SlaveRxCpltCallback
	.section	.text.HAL_SMBUS_AddrCallback,"ax",%progbits
	.align	1
	.weak	HAL_SMBUS_AddrCallback
	.syntax unified
	.thumb
	.thumb_func
	.type	HAL_SMBUS_AddrCallback, %function
HAL_SMBUS_AddrCallback:
.LFB357:
	.loc 1 1780 1 is_stmt 1
	.cfi_startproc
	@ args = 0, pretend = 0, frame = 0
	@ frame_needed = 0, uses_anonymous_args = 0
	@ link register save eliminated.
.LVL199:
	.loc 1 1782 3
	.loc 1 1783 3
	.loc 1 1784 3
	.loc 1 1789 1 is_stmt 0
	bx	lr
	.cfi_endproc
.LFE357:
	.size	HAL_SMBUS_AddrCallback, .-HAL_SMBUS_AddrCallback
	.section	.text.HAL_SMBUS_ListenCpltCallback,"ax",%progbits
	.align	1
	.weak	HAL_SMBUS_ListenCpltCallback
	.syntax unified
	.thumb
	.thumb_func
	.type	HAL_SMBUS_ListenCpltCallback, %function
HAL_SMBUS_ListenCpltCallback:
.LFB358:
	.loc 1 1798 1 is_stmt 1
	.cfi_startproc
	@ args = 0, pretend = 0, frame = 0
	@ frame_needed = 0, uses_anonymous_args = 0
	@ link register save eliminated.
.LVL200:
	.loc 1 1800 3
	.loc 1 1805 1 is_stmt 0
	bx	lr
	.cfi_endproc
.LFE358:
	.size	HAL_SMBUS_ListenCpltCallback, .-HAL_SMBUS_ListenCpltCallback
	.section	.text.HAL_SMBUS_ErrorCallback,"ax",%progbits
	.align	1
	.weak	HAL_SMBUS_ErrorCallback
	.syntax unified
	.thumb
	.thumb_func
	.type	HAL_SMBUS_ErrorCallback, %function
HAL_SMBUS_ErrorCallback:
.LFB359:
	.loc 1 1814 1 is_stmt 1
	.cfi_startproc
	@ args = 0, pretend = 0, frame = 0
	@ frame_needed = 0, uses_anonymous_args = 0
	@ link register save eliminated.
.LVL201:
	.loc 1 1816 3
	.loc 1 1821 1 is_stmt 0
	bx	lr
	.cfi_endproc
.LFE359:
	.size	HAL_SMBUS_ErrorCallback, .-HAL_SMBUS_ErrorCallback
	.section	.text.SMBUS_ITErrorHandler,"ax",%progbits
	.align	1
	.syntax unified
	.thumb
	.thumb_func
	.type	SMBUS_ITErrorHandler, %function
SMBUS_ITErrorHandler:
.LFB366:
	.loc 1 2556 1 is_stmt 1
	.cfi_startproc
	@ args = 0, pretend = 0, frame = 0
	@ frame_needed = 0, uses_anonymous_args = 0
.LVL202:
	push	{r4, lr}
	.cfi_def_cfa_offset 8
	.cfi_offset 4, -8
	.cfi_offset 14, -4
	mov	r4, r0
	.loc 1 2557 3
	.loc 1 2557 30 is_stmt 0
	ldr	r1, [r0]
	.loc 1 2557 12
	ldr	r3, [r1, #24]
.LVL203:
	.loc 1 2558 3 is_stmt 1
	.loc 1 2558 12 is_stmt 0
	ldr	r2, [r1]
.LVL204:
	.loc 1 2559 3 is_stmt 1
	.loc 1 2560 3
	.loc 1 2563 3
	.loc 1 2563 6 is_stmt 0
	tst	r3, #256
	beq	.L211
	.loc 1 2563 56 discriminator 1
	tst	r2, #128
	beq	.L211
	.loc 1 2566 5 is_stmt 1
	.loc 1 2566 11 is_stmt 0
	ldr	r0, [r0, #76]
.LVL205:
	.loc 1 2566 23
	orr	r0, r0, #1
	str	r0, [r4, #76]
	.loc 1 2569 5 is_stmt 1
	.loc 1 2569 94 is_stmt 0
	mov	r0, #256
	str	r0, [r1, #28]
.L211:
	.loc 1 2573 3 is_stmt 1
	.loc 1 2573 6 is_stmt 0
	tst	r3, #1024
	beq	.L212
	.loc 1 2573 58 discriminator 1
	tst	r2, #128
	beq	.L212
	.loc 1 2576 5 is_stmt 1
	.loc 1 2576 11 is_stmt 0
	ldr	r1, [r4, #76]
	.loc 1 2576 23
	orr	r1, r1, #8
	str	r1, [r4, #76]
	.loc 1 2579 5 is_stmt 1
	.loc 1 2579 107 is_stmt 0
	ldr	r1, [r4]
	.loc 1 2579 96
	mov	r0, #1024
	str	r0, [r1, #28]
.L212:
	.loc 1 2583 3 is_stmt 1
	.loc 1 2583 6 is_stmt 0
	tst	r3, #512
	beq	.L213
	.loc 1 2583 56 discriminator 1
	tst	r2, #128
	beq	.L213
	.loc 1 2586 5 is_stmt 1
	.loc 1 2586 11 is_stmt 0
	ldr	r1, [r4, #76]
	.loc 1 2586 23
	orr	r1, r1, #2
	str	r1, [r4, #76]
	.loc 1 2589 5 is_stmt 1
	.loc 1 2589 105 is_stmt 0
	ldr	r1, [r4]
	.loc 1 2589 94
	mov	r0, #512
	str	r0, [r1, #28]
.L213:
	.loc 1 2593 3 is_stmt 1
	.loc 1 2593 6 is_stmt 0
	tst	r3, #4096
	beq	.L214
	.loc 1 2593 58 discriminator 1
	tst	r2, #128
	beq	.L214
	.loc 1 2596 5 is_stmt 1
	.loc 1 2596 11 is_stmt 0
	ldr	r1, [r4, #76]
	.loc 1 2596 23
	orr	r1, r1, #32
	str	r1, [r4, #76]
	.loc 1 2599 5 is_stmt 1
	.loc 1 2599 107 is_stmt 0
	ldr	r1, [r4]
	.loc 1 2599 96
	mov	r0, #4096
	str	r0, [r1, #28]
.L214:
	.loc 1 2603 3 is_stmt 1
	.loc 1 2603 6 is_stmt 0
	tst	r3, #8192
	beq	.L215
	.loc 1 2603 58 discriminator 1
	tst	r2, #128
	beq	.L215
	.loc 1 2606 5 is_stmt 1
	.loc 1 2606 11 is_stmt 0
	ldr	r1, [r4, #76]
	.loc 1 2606 23
	orr	r1, r1, #64
	str	r1, [r4, #76]
	.loc 1 2609 5 is_stmt 1
	.loc 1 2609 107 is_stmt 0
	ldr	r1, [r4]
	.loc 1 2609 96
	mov	r0, #8192
	str	r0, [r1, #28]
.L215:
	.loc 1 2613 3 is_stmt 1
	.loc 1 2613 6 is_stmt 0
	tst	r3, #2048
	beq	.L216
	.loc 1 2613 58 discriminator 1
	tst	r2, #128
	beq	.L216
	.loc 1 2616 5 is_stmt 1
	.loc 1 2616 11 is_stmt 0
	ldr	r3, [r4, #76]
.LVL206:
	.loc 1 2616 23
	orr	r3, r3, #128
	str	r3, [r4, #76]
	.loc 1 2619 5 is_stmt 1
	.loc 1 2619 107 is_stmt 0
	ldr	r3, [r4]
	.loc 1 2619 96
	mov	r2, #2048
.LVL207:
	str	r2, [r3, #28]
.L216:
	.loc 1 2622 3 is_stmt 1
	.loc 1 2622 13 is_stmt 0
	ldr	r3, [r4, #76]
	.loc 1 2622 6
	cbnz	r3, .L222
.L217:
	.loc 1 2629 3 is_stmt 1
	.loc 1 2629 12 is_stmt 0
	ldr	r3, [r4, #76]
.LVL208:
	.loc 1 2632 3 is_stmt 1
	.loc 1 2632 6 is_stmt 0
	cmp	r3, #0
	it	ne
	cmpne	r3, #4
	beq	.L210
	.loc 1 2635 5 is_stmt 1
	.loc 1 2635 8 is_stmt 0
	tst	r3, #64
	bne	.L219
	.loc 1 2638 7 is_stmt 1
	.loc 1 2638 16 is_stmt 0
	ldr	r3, [r4, #72]
.LVL209:
	.loc 1 2640 7 is_stmt 1
	.loc 1 2640 22 is_stmt 0
	and	r2, r3, #50
	.loc 1 2640 10
	cmp	r2, #50
	beq	.L220
	.loc 1 2641 25
	and	r3, r3, #66
.LVL210:
	.loc 1 2641 11
	cmp	r3, #66
	bne	.L219
.L220:
	.loc 1 2645 9 is_stmt 1
	.loc 1 2645 31 is_stmt 0
	movs	r3, #1
	str	r3, [r4, #64]
	.loc 1 2646 9 is_stmt 1
	.loc 1 2646 23 is_stmt 0
	movs	r3, #8
	str	r3, [r4, #72]
.LVL211:
.L219:
	.loc 1 2654 5 is_stmt 1
	mov	r0, r4
	bl	HAL_SMBUS_ErrorCallback
.LVL212:
.L210:
	.loc 1 2657 1 is_stmt 0
	pop	{r4, pc}
.LVL213:
.L222:
	.loc 1 2625 5 is_stmt 1
	mov	r0, r4
	bl	SMBUS_Flush_TXDR
.LVL214:
	b	.L217
	.cfi_endproc
.LFE366:
	.size	SMBUS_ITErrorHandler, .-SMBUS_ITErrorHandler
	.section	.text.HAL_SMBUS_ER_IRQHandler,"ax",%progbits
	.align	1
	.global	HAL_SMBUS_ER_IRQHandler
	.syntax unified
	.thumb
	.thumb_func
	.type	HAL_SMBUS_ER_IRQHandler, %function
HAL_SMBUS_ER_IRQHandler:
.LFB352:
	.loc 1 1703 1
	.cfi_startproc
	@ args = 0, pretend = 0, frame = 0
	@ frame_needed = 0, uses_anonymous_args = 0
.LVL215:
	push	{r3, lr}
	.cfi_def_cfa_offset 8
	.cfi_offset 3, -8
	.cfi_offset 14, -4
	.loc 1 1704 3
	bl	SMBUS_ITErrorHandler
.LVL216:
	.loc 1 1705 1 is_stmt 0
	pop	{r3, pc}
	.cfi_endproc
.LFE352:
	.size	HAL_SMBUS_ER_IRQHandler, .-HAL_SMBUS_ER_IRQHandler
	.section	.text.SMBUS_Master_ISR,"ax",%progbits
	.align	1
	.syntax unified
	.thumb
	.thumb_func
	.type	SMBUS_Master_ISR, %function
SMBUS_Master_ISR:
.LFB362:
	.loc 1 1886 1 is_stmt 1
	.cfi_startproc
	@ args = 0, pretend = 0, frame = 0
	@ frame_needed = 0, uses_anonymous_args = 0
.LVL217:
	.loc 1 1887 3
	.loc 1 1890 3
	.loc 1 1890 7
	.loc 1 1890 18 is_stmt 0
	ldrb	r3, [r0, #68]	@ zero_extendqisi2
	.loc 1 1890 9
	cmp	r3, #1
	beq	.L240
	.loc 1 1886 1 discriminator 2
	push	{r4, r5, lr}
	.cfi_def_cfa_offset 12
	.cfi_offset 4, -12
	.cfi_offset 5, -8
	.cfi_offset 14, -4
	sub	sp, sp, #12
	.cfi_def_cfa_offset 24
	mov	r4, r0
	mov	r5, r1
	.loc 1 1890 68 is_stmt 1 discriminator 2
	.loc 1 1890 83 is_stmt 0 discriminator 2
	movs	r3, #1
	strb	r3, [r0, #68]
	.loc 1 1890 5 is_stmt 1 discriminator 2
	.loc 1 1892 3 discriminator 2
	.loc 1 1892 6 is_stmt 0 discriminator 2
	tst	r1, #16
	bne	.L245
	.loc 1 1914 8 is_stmt 1
	.loc 1 1914 11 is_stmt 0
	tst	r1, #32
	bne	.L246
	.loc 1 1996 8 is_stmt 1
	.loc 1 1996 11 is_stmt 0
	tst	r1, #4
	beq	.L232
	.loc 1 1999 5 is_stmt 1
	.loc 1 1999 41 is_stmt 0
	ldr	r3, [r0]
	.loc 1 1999 51
	ldr	r2, [r3, #36]
	.loc 1 1999 12
	ldr	r3, [r0, #52]
	.loc 1 1999 23
	strb	r2, [r3]
	.loc 1 2002 5 is_stmt 1
	.loc 1 2002 11 is_stmt 0
	ldr	r3, [r0, #52]
	.loc 1 2002 21
	adds	r3, r3, #1
	str	r3, [r0, #52]
	.loc 1 2005 5 is_stmt 1
	.loc 1 2005 11 is_stmt 0
	ldrh	r3, [r0, #56]
	.loc 1 2005 21
	subs	r3, r3, #1
	strh	r3, [r0, #56]	@ movhi
	.loc 1 2006 5 is_stmt 1
	.loc 1 2006 11 is_stmt 0
	ldrh	r3, [r0, #58]
	uxth	r3, r3
	.loc 1 2006 22
	subs	r3, r3, #1
	uxth	r3, r3
	strh	r3, [r0, #58]	@ movhi
	b	.L228
.L245:
	.loc 1 1895 5 is_stmt 1
	.loc 1 1895 105 is_stmt 0
	ldr	r3, [r0]
	.loc 1 1895 94
	movs	r2, #16
	str	r2, [r3, #28]
	.loc 1 1899 5 is_stmt 1
	.loc 1 1899 11 is_stmt 0
	ldr	r3, [r0, #76]
	.loc 1 1899 23
	orr	r3, r3, #4
	str	r3, [r0, #76]
	.loc 1 1902 5 is_stmt 1
	bl	SMBUS_Flush_TXDR
.LVL218:
	.loc 1 1905 5
	.loc 1 1905 9
	.loc 1 1905 24 is_stmt 0
	movs	r3, #0
	strb	r3, [r4, #68]
	.loc 1 1905 7 is_stmt 1
	.loc 1 1911 5
	mov	r0, r4
	bl	HAL_SMBUS_ErrorCallback
.LVL219:
.L228:
	.loc 1 2161 3
	.loc 1 2164 3
	.loc 1 2164 7
	.loc 1 2164 22 is_stmt 0
	movs	r0, #0
	strb	r0, [r4, #68]
	.loc 1 2164 5 is_stmt 1
	.loc 1 2166 3
	.loc 1 2167 1 is_stmt 0
	add	sp, sp, #12
	.cfi_remember_state
	.cfi_def_cfa_offset 12
	@ sp needed
	pop	{r4, r5, pc}
.LVL220:
.L246:
	.cfi_restore_state
	.loc 1 1917 5 is_stmt 1
	bl	SMBUS_ITErrorHandler
.LVL221:
	.loc 1 1920 5
	.loc 1 1920 15 is_stmt 0
	ldr	r3, [r4, #72]
	.loc 1 1920 8
	cmp	r3, #18
	beq	.L247
	.loc 1 1951 10 is_stmt 1
	.loc 1 1951 20 is_stmt 0
	ldr	r3, [r4, #72]
	.loc 1 1951 13
	cmp	r3, #34
	bne	.L228
	.loc 1 1954 7 is_stmt 1
	.loc 1 1954 10 is_stmt 0
	tst	r5, #4
	beq	.L231
	.loc 1 1957 9 is_stmt 1
	.loc 1 1957 45 is_stmt 0
	ldr	r3, [r4]
	.loc 1 1957 55
	ldr	r2, [r3, #36]
	.loc 1 1957 16
	ldr	r3, [r4, #52]
	.loc 1 1957 27
	strb	r2, [r3]
	.loc 1 1960 9 is_stmt 1
	.loc 1 1960 15 is_stmt 0
	ldr	r3, [r4, #52]
	.loc 1 1960 25
	adds	r3, r3, #1
	str	r3, [r4, #52]
	.loc 1 1962 9 is_stmt 1
	.loc 1 1962 20 is_stmt 0
	ldrh	r3, [r4, #56]
	.loc 1 1962 12
	cbz	r3, .L231
	.loc 1 1964 11 is_stmt 1
	.loc 1 1964 27 is_stmt 0
	subs	r3, r3, #1
	strh	r3, [r4, #56]	@ movhi
	.loc 1 1965 11 is_stmt 1
	.loc 1 1965 17 is_stmt 0
	ldrh	r3, [r4, #58]
	uxth	r3, r3
	.loc 1 1965 28
	subs	r3, r3, #1
	uxth	r3, r3
	strh	r3, [r4, #58]	@ movhi
.L231:
	.loc 1 1970 7 is_stmt 1
	movs	r1, #212
	mov	r0, r4
	bl	SMBUS_Disable_IRQ
.LVL222:
	.loc 1 1973 7
	.loc 1 1973 107 is_stmt 0
	ldr	r3, [r4]
	.loc 1 1973 96
	movs	r2, #32
	str	r2, [r3, #28]
	.loc 1 1976 7 is_stmt 1
	.loc 1 1976 16 is_stmt 0
	ldr	r2, [r4]
	.loc 1 1976 26
	ldr	r3, [r2, #4]
	.loc 1 1976 32
	bic	r3, r3, #33423360
	bic	r3, r3, #71168
	bic	r3, r3, #510
	bic	r3, r3, #1
	str	r3, [r2, #4]
	.loc 1 1978 7 is_stmt 1
	.loc 1 1978 29 is_stmt 0
	movs	r3, #1
	str	r3, [r4, #64]
	.loc 1 1979 7 is_stmt 1
	.loc 1 1979 21 is_stmt 0
	str	r3, [r4, #72]
	.loc 1 1982 7 is_stmt 1
	.loc 1 1982 11
	.loc 1 1982 26 is_stmt 0
	movs	r3, #0
	strb	r3, [r4, #68]
	.loc 1 1982 9 is_stmt 1
	.loc 1 1988 7
	mov	r0, r4
	bl	HAL_SMBUS_MasterRxCpltCallback
.LVL223:
	b	.L228
.L247:
	.loc 1 1923 7
	movs	r1, #242
	mov	r0, r4
	bl	SMBUS_Disable_IRQ
.LVL224:
	.loc 1 1926 7
	.loc 1 1926 107 is_stmt 0
	ldr	r3, [r4]
	.loc 1 1926 96
	movs	r2, #32
	str	r2, [r3, #28]
	.loc 1 1929 7 is_stmt 1
	.loc 1 1929 16 is_stmt 0
	ldr	r2, [r4]
	.loc 1 1929 26
	ldr	r3, [r2, #4]
	.loc 1 1929 32
	bic	r3, r3, #33423360
	bic	r3, r3, #71168
	bic	r3, r3, #510
	bic	r3, r3, #1
	str	r3, [r2, #4]
	.loc 1 1933 7 is_stmt 1
	.loc 1 1933 18 is_stmt 0
	ldr	r2, [r4]
	.loc 1 1933 28
	ldr	r3, [r2]
	.loc 1 1933 35
	bic	r3, r3, #1
	str	r3, [r2]
	.loc 1 1935 7 is_stmt 1
	.loc 1 1935 29 is_stmt 0
	movs	r3, #1
	str	r3, [r4, #64]
	.loc 1 1936 7 is_stmt 1
	.loc 1 1936 21 is_stmt 0
	str	r3, [r4, #72]
	.loc 1 1939 7 is_stmt 1
	.loc 1 1939 11
	.loc 1 1939 26 is_stmt 0
	movs	r3, #0
	strb	r3, [r4, #68]
	.loc 1 1939 9 is_stmt 1
	.loc 1 1942 7
	.loc 1 1942 18 is_stmt 0
	ldr	r2, [r4]
	.loc 1 1942 28
	ldr	r3, [r2]
	.loc 1 1942 35
	orr	r3, r3, #1
	str	r3, [r2]
	.loc 1 1948 7 is_stmt 1
	mov	r0, r4
	bl	HAL_SMBUS_MasterTxCpltCallback
.LVL225:
	b	.L228
.LVL226:
.L232:
	.loc 1 2008 8
	.loc 1 2008 11 is_stmt 0
	tst	r1, #2
	beq	.L233
	.loc 1 2011 5 is_stmt 1
	.loc 1 2011 37 is_stmt 0
	ldr	r2, [r0, #52]
	.loc 1 2011 11
	ldr	r3, [r0]
	.loc 1 2011 30
	ldrb	r2, [r2]	@ zero_extendqisi2
	.loc 1 2011 28
	str	r2, [r3, #40]
	.loc 1 2014 5 is_stmt 1
	.loc 1 2014 11 is_stmt 0
	ldr	r3, [r0, #52]
	.loc 1 2014 21
	adds	r3, r3, #1
	str	r3, [r0, #52]
	.loc 1 2017 5 is_stmt 1
	.loc 1 2017 11 is_stmt 0
	ldrh	r3, [r0, #56]
	.loc 1 2017 21
	subs	r3, r3, #1
	strh	r3, [r0, #56]	@ movhi
	.loc 1 2018 5 is_stmt 1
	.loc 1 2018 11 is_stmt 0
	ldrh	r3, [r0, #58]
	uxth	r3, r3
	.loc 1 2018 22
	subs	r3, r3, #1
	uxth	r3, r3
	strh	r3, [r0, #58]	@ movhi
	b	.L228
.L233:
	.loc 1 2020 8 is_stmt 1
	.loc 1 2020 11 is_stmt 0
	tst	r1, #128
	beq	.L234
	.loc 1 2022 5 is_stmt 1
	.loc 1 2022 16 is_stmt 0
	ldrh	r3, [r0, #58]
	uxth	r3, r3
	.loc 1 2022 8
	cmp	r3, #0
	beq	.L235
	.loc 1 2022 45 discriminator 1
	ldrh	r3, [r0, #56]
	.loc 1 2022 35 discriminator 1
	cmp	r3, #0
	bne	.L235
	.loc 1 2024 7 is_stmt 1
	.loc 1 2024 37 is_stmt 0
	ldr	r3, [r0]
	.loc 1 2024 47
	ldr	r1, [r3, #4]
.LVL227:
	.loc 1 2024 18
	ubfx	r1, r1, #0, #10
.LVL228:
	.loc 1 2026 7 is_stmt 1
	.loc 1 2026 17 is_stmt 0
	ldrh	r3, [r0, #58]
	uxth	r3, r3
	.loc 1 2026 10
	cmp	r3, #255
	bls	.L236
	.loc 1 2028 9 is_stmt 1
	.loc 1 2029 57 is_stmt 0
	ldr	r3, [r0, #60]
	.loc 1 2029 71
	and	r3, r3, #67108864
	.loc 1 2028 9
	movs	r2, #0
	str	r2, [sp]
	orr	r3, r3, #16777216
	movs	r2, #255
	bl	SMBUS_TransferConfig
.LVL229:
	.loc 1 2031 9 is_stmt 1
	.loc 1 2031 26 is_stmt 0
	movs	r3, #255
	strh	r3, [r4, #56]	@ movhi
	b	.L228
.LVL230:
.L236:
	.loc 1 2035 9 is_stmt 1
	.loc 1 2035 34 is_stmt 0
	ldrh	r2, [r0, #58]
	uxth	r2, r2
	.loc 1 2035 26
	strh	r2, [r0, #56]	@ movhi
	.loc 1 2036 9 is_stmt 1
	.loc 1 2036 83 is_stmt 0
	ldr	r3, [r0, #60]
	.loc 1 2036 9
	movs	r0, #0
.LVL231:
	str	r0, [sp]
	uxtb	r2, r2
	mov	r0, r4
	bl	SMBUS_TransferConfig
.LVL232:
	.loc 1 2040 9 is_stmt 1
	.loc 1 2040 22 is_stmt 0
	ldr	r3, [r4]
	.loc 1 2040 32
	ldr	r3, [r3, #4]
	.loc 1 2040 12
	tst	r3, #67108864
	beq	.L228
	.loc 1 2042 11 is_stmt 1
	.loc 1 2042 17 is_stmt 0
	ldrh	r3, [r4, #56]
	.loc 1 2042 27
	subs	r3, r3, #1
	strh	r3, [r4, #56]	@ movhi
	.loc 1 2043 11 is_stmt 1
	.loc 1 2043 17 is_stmt 0
	ldrh	r3, [r4, #58]
	uxth	r3, r3
	.loc 1 2043 28
	subs	r3, r3, #1
	uxth	r3, r3
	strh	r3, [r4, #58]	@ movhi
	b	.L228
.LVL233:
.L235:
	.loc 1 2047 10 is_stmt 1
	.loc 1 2047 21 is_stmt 0
	ldrh	r3, [r4, #58]
	uxth	r3, r3
	.loc 1 2047 13
	cmp	r3, #0
	bne	.L228
	.loc 1 2047 50 discriminator 1
	ldrh	r3, [r4, #56]
	.loc 1 2047 40 discriminator 1
	cmp	r3, #0
	bne	.L228
	.loc 1 2050 7 is_stmt 1
	.loc 1 2050 20 is_stmt 0
	ldr	r3, [r4]
	.loc 1 2050 30
	ldr	r3, [r3, #4]
	.loc 1 2050 10
	tst	r3, #33554432
	bne	.L228
	.loc 1 2053 9 is_stmt 1
	.loc 1 2053 19 is_stmt 0
	ldr	r3, [r4, #72]
	.loc 1 2053 12
	cmp	r3, #18
	beq	.L248
	.loc 1 2070 14 is_stmt 1
	.loc 1 2070 24 is_stmt 0
	ldr	r3, [r4, #72]
	.loc 1 2070 17
	cmp	r3, #34
	bne	.L228
	.loc 1 2072 11 is_stmt 1
	movs	r1, #212
.LVL234:
	mov	r0, r4
.LVL235:
	bl	SMBUS_Disable_IRQ
.LVL236:
	.loc 1 2073 11
	.loc 1 2073 41 is_stmt 0
	ldr	r3, [r4, #72]
	.loc 1 2073 33
	str	r3, [r4, #64]
	.loc 1 2074 11 is_stmt 1
	.loc 1 2074 25 is_stmt 0
	movs	r3, #1
	str	r3, [r4, #72]
	.loc 1 2077 11 is_stmt 1
	.loc 1 2077 15
	.loc 1 2077 30 is_stmt 0
	movs	r3, #0
	strb	r3, [r4, #68]
	.loc 1 2077 13 is_stmt 1
	.loc 1 2083 11
	mov	r0, r4
	bl	HAL_SMBUS_MasterRxCpltCallback
.LVL237:
	b	.L228
.LVL238:
.L248:
	.loc 1 2056 11
	movs	r1, #242
.LVL239:
	mov	r0, r4
.LVL240:
	bl	SMBUS_Disable_IRQ
.LVL241:
	.loc 1 2057 11
	.loc 1 2057 41 is_stmt 0
	ldr	r3, [r4, #72]
	.loc 1 2057 33
	str	r3, [r4, #64]
	.loc 1 2058 11 is_stmt 1
	.loc 1 2058 25 is_stmt 0
	movs	r3, #1
	str	r3, [r4, #72]
	.loc 1 2061 11 is_stmt 1
	.loc 1 2061 15
	.loc 1 2061 30 is_stmt 0
	movs	r3, #0
	strb	r3, [r4, #68]
	.loc 1 2061 13 is_stmt 1
	.loc 1 2067 11
	mov	r0, r4
	bl	HAL_SMBUS_MasterTxCpltCallback
.LVL242:
	b	.L228
.LVL243:
.L234:
	.loc 1 2097 8
	.loc 1 2097 11 is_stmt 0
	tst	r1, #64
	beq	.L228
	.loc 1 2099 5 is_stmt 1
	.loc 1 2099 15 is_stmt 0
	ldrh	r3, [r0, #58]
	uxth	r3, r3
	.loc 1 2099 8
	cmp	r3, #0
	bne	.L228
	.loc 1 2102 7 is_stmt 1
	.loc 1 2102 17 is_stmt 0
	ldr	r3, [r0, #52]
	.loc 1 2102 10
	cbz	r3, .L249
	.loc 1 2108 12 is_stmt 1
	.loc 1 2108 25 is_stmt 0
	ldr	r3, [r0]
	.loc 1 2108 35
	ldr	r3, [r3, #4]
	.loc 1 2108 15
	tst	r3, #33554432
	bne	.L228
	.loc 1 2114 9 is_stmt 1
	.loc 1 2114 19 is_stmt 0
	ldr	r3, [r0, #72]
	.loc 1 2114 12
	cmp	r3, #18
	beq	.L250
	.loc 1 2131 14 is_stmt 1
	.loc 1 2131 24 is_stmt 0
	ldr	r3, [r0, #72]
	.loc 1 2131 17
	cmp	r3, #34
	bne	.L228
	.loc 1 2133 11 is_stmt 1
	movs	r1, #212
.LVL244:
	bl	SMBUS_Disable_IRQ
.LVL245:
	.loc 1 2134 11
	.loc 1 2134 41 is_stmt 0
	ldr	r3, [r4, #72]
	.loc 1 2134 33
	str	r3, [r4, #64]
	.loc 1 2135 11 is_stmt 1
	.loc 1 2135 25 is_stmt 0
	movs	r3, #1
	str	r3, [r4, #72]
	.loc 1 2138 11 is_stmt 1
	.loc 1 2138 15
	.loc 1 2138 30 is_stmt 0
	movs	r3, #0
	strb	r3, [r4, #68]
	.loc 1 2138 13 is_stmt 1
	.loc 1 2144 11
	mov	r0, r4
	bl	HAL_SMBUS_MasterRxCpltCallback
.LVL246:
	b	.L228
.LVL247:
.L249:
	.loc 1 2105 9
	.loc 1 2105 15 is_stmt 0
	ldr	r2, [r0]
	.loc 1 2105 25
	ldr	r3, [r2, #4]
	.loc 1 2105 31
	orr	r3, r3, #16384
	str	r3, [r2, #4]
	b	.L228
.L250:
	.loc 1 2117 11 is_stmt 1
	movs	r1, #242
.LVL248:
	bl	SMBUS_Disable_IRQ
.LVL249:
	.loc 1 2118 11
	.loc 1 2118 41 is_stmt 0
	ldr	r3, [r4, #72]
	.loc 1 2118 33
	str	r3, [r4, #64]
	.loc 1 2119 11 is_stmt 1
	.loc 1 2119 25 is_stmt 0
	movs	r3, #1
	str	r3, [r4, #72]
	.loc 1 2122 11 is_stmt 1
	.loc 1 2122 15
	.loc 1 2122 30 is_stmt 0
	movs	r3, #0
	strb	r3, [r4, #68]
	.loc 1 2122 13 is_stmt 1
	.loc 1 2128 11
	mov	r0, r4
	bl	HAL_SMBUS_MasterTxCpltCallback
.LVL250:
	b	.L228
.LVL251:
.L240:
	.cfi_def_cfa_offset 0
	.cfi_restore 4
	.cfi_restore 5
	.cfi_restore 14
	.loc 1 1890 49 is_stmt 0
	movs	r0, #2
.LVL252:
	.loc 1 2167 1
	bx	lr
	.cfi_endproc
.LFE362:
	.size	SMBUS_Master_ISR, .-SMBUS_Master_ISR
	.section	.text.SMBUS_Slave_ISR,"ax",%progbits
	.align	1
	.syntax unified
	.thumb
	.thumb_func
	.type	SMBUS_Slave_ISR, %function
SMBUS_Slave_ISR:
.LFB363:
	.loc 1 2176 1 is_stmt 1
	.cfi_startproc
	@ args = 0, pretend = 0, frame = 0
	@ frame_needed = 0, uses_anonymous_args = 0
.LVL253:
	.loc 1 2177 3
	.loc 1 2178 3
	.loc 1 2181 3
	.loc 1 2181 7
	.loc 1 2181 18 is_stmt 0
	ldrb	r3, [r0, #68]	@ zero_extendqisi2
	.loc 1 2181 9
	cmp	r3, #1
	beq	.L265
	.loc 1 2176 1 discriminator 2
	push	{r4, r5, lr}
	.cfi_def_cfa_offset 12
	.cfi_offset 4, -12
	.cfi_offset 5, -8
	.cfi_offset 14, -4
	sub	sp, sp, #12
	.cfi_def_cfa_offset 24
	mov	r4, r0
	mov	r5, r1
	.loc 1 2181 68 is_stmt 1 discriminator 2
	.loc 1 2181 83 is_stmt 0 discriminator 2
	movs	r3, #1
	strb	r3, [r0, #68]
	.loc 1 2181 5 is_stmt 1 discriminator 2
	.loc 1 2183 3 discriminator 2
	.loc 1 2183 6 is_stmt 0 discriminator 2
	tst	r1, #16
	beq	.L253
	.loc 1 2189 5 is_stmt 1
	.loc 1 2189 15 is_stmt 0
	ldrh	r3, [r0, #58]
	uxth	r3, r3
	.loc 1 2189 8
	cmp	r3, #0
	bne	.L254
	.loc 1 2192 7 is_stmt 1
	.loc 1 2192 107 is_stmt 0
	ldr	r3, [r0]
	.loc 1 2192 96
	movs	r2, #16
	str	r2, [r3, #28]
	.loc 1 2195 7 is_stmt 1
	bl	SMBUS_Flush_TXDR
.LVL254:
	.loc 1 2198 7
	.loc 1 2198 11
	.loc 1 2198 26 is_stmt 0
	movs	r3, #0
	strb	r3, [r4, #68]
	.loc 1 2198 9 is_stmt 1
.L255:
	.loc 1 2374 3
	.loc 1 2377 3
	.loc 1 2377 6 is_stmt 0
	tst	r5, #32
	beq	.L263
	.loc 1 2379 5 is_stmt 1
	.loc 1 2379 16 is_stmt 0
	ldr	r3, [r4, #72]
	.loc 1 2379 8
	tst	r3, #8
	beq	.L263
	.loc 1 2382 7 is_stmt 1
	.loc 1 2382 23 is_stmt 0
	ldr	r3, [r4]
	.loc 1 2382 33
	ldr	r2, [r3, #24]
	.loc 1 2382 10
	tst	r2, #4
	beq	.L264
	.loc 1 2385 9 is_stmt 1
	.loc 1 2385 55 is_stmt 0
	ldr	r2, [r3, #36]
	.loc 1 2385 16
	ldr	r3, [r4, #52]
	.loc 1 2385 27
	strb	r2, [r3]
	.loc 1 2388 9 is_stmt 1
	.loc 1 2388 15 is_stmt 0
	ldr	r3, [r4, #52]
	.loc 1 2388 25
	adds	r3, r3, #1
	str	r3, [r4, #52]
	.loc 1 2390 9 is_stmt 1
	.loc 1 2390 20 is_stmt 0
	ldrh	r3, [r4, #56]
	.loc 1 2390 12
	cbz	r3, .L264
	.loc 1 2392 11 is_stmt 1
	.loc 1 2392 27 is_stmt 0
	subs	r3, r3, #1
	strh	r3, [r4, #56]	@ movhi
	.loc 1 2393 11 is_stmt 1
	.loc 1 2393 17 is_stmt 0
	ldrh	r3, [r4, #58]
	uxth	r3, r3
	.loc 1 2393 28
	subs	r3, r3, #1
	uxth	r3, r3
	strh	r3, [r4, #58]	@ movhi
.L264:
	.loc 1 2398 7 is_stmt 1
	movs	r1, #246
	mov	r0, r4
	bl	SMBUS_Disable_IRQ
.LVL255:
	.loc 1 2401 7
	movs	r1, #56
	mov	r0, r4
	bl	SMBUS_Disable_IRQ
.LVL256:
	.loc 1 2404 7
	.loc 1 2404 13 is_stmt 0
	ldr	r2, [r4]
	.loc 1 2404 23
	ldr	r3, [r2, #4]
	.loc 1 2404 29
	orr	r3, r3, #32768
	str	r3, [r2, #4]
	.loc 1 2407 7 is_stmt 1
	.loc 1 2407 16 is_stmt 0
	ldr	r2, [r4]
	.loc 1 2407 26
	ldr	r3, [r2, #4]
	.loc 1 2407 32
	bic	r3, r3, #33423360
	bic	r3, r3, #71168
	bic	r3, r3, #510
	bic	r3, r3, #1
	str	r3, [r2, #4]
	.loc 1 2410 7 is_stmt 1
	.loc 1 2410 107 is_stmt 0
	ldr	r3, [r4]
	.loc 1 2410 96
	movs	r2, #32
	str	r2, [r3, #28]
	.loc 1 2413 7 is_stmt 1
	.loc 1 2413 107 is_stmt 0
	ldr	r3, [r4]
	.loc 1 2413 96
	movs	r2, #8
	str	r2, [r3, #28]
	.loc 1 2415 7 is_stmt 1
	.loc 1 2415 27 is_stmt 0
	movs	r3, #0
	str	r3, [r4, #60]
	.loc 1 2416 7 is_stmt 1
	.loc 1 2416 37 is_stmt 0
	ldr	r2, [r4, #72]
	.loc 1 2416 29
	str	r2, [r4, #64]
	.loc 1 2417 7 is_stmt 1
	.loc 1 2417 21 is_stmt 0
	movs	r2, #1
	str	r2, [r4, #72]
	.loc 1 2420 7 is_stmt 1
	.loc 1 2420 11
	.loc 1 2420 26 is_stmt 0
	strb	r3, [r4, #68]
	.loc 1 2420 9 is_stmt 1
	.loc 1 2426 7
	mov	r0, r4
	bl	HAL_SMBUS_ListenCpltCallback
.LVL257:
.L263:
	.loc 1 2432 3
	.loc 1 2432 7
	.loc 1 2432 22 is_stmt 0
	movs	r0, #0
	strb	r0, [r4, #68]
	.loc 1 2432 5 is_stmt 1
	.loc 1 2434 3
	.loc 1 2435 1 is_stmt 0
	add	sp, sp, #12
	.cfi_remember_state
	.cfi_def_cfa_offset 12
	@ sp needed
	pop	{r4, r5, pc}
.LVL258:
.L254:
	.cfi_restore_state
	.loc 1 2204 7 is_stmt 1
	.loc 1 2204 107 is_stmt 0
	ldr	r3, [r0]
	.loc 1 2204 96
	movs	r2, #16
	str	r2, [r3, #28]
	.loc 1 2208 7 is_stmt 1
	.loc 1 2208 37 is_stmt 0
	ldr	r3, [r0, #72]
	.loc 1 2208 29
	str	r3, [r0, #64]
	.loc 1 2209 7 is_stmt 1
	.loc 1 2209 13 is_stmt 0
	ldr	r3, [r0, #72]
	.loc 1 2209 21
	bic	r3, r3, #50
	str	r3, [r0, #72]
	.loc 1 2210 7 is_stmt 1
	.loc 1 2210 13 is_stmt 0
	ldr	r3, [r0, #72]
	.loc 1 2210 21
	bic	r3, r3, #66
	str	r3, [r0, #72]
	.loc 1 2213 7 is_stmt 1
	movs	r1, #246
.LVL259:
	bl	SMBUS_Disable_IRQ
.LVL260:
	.loc 1 2216 7
	.loc 1 2216 13 is_stmt 0
	ldr	r3, [r4, #76]
	.loc 1 2216 25
	orr	r3, r3, #4
	str	r3, [r4, #76]
	.loc 1 2219 7 is_stmt 1
	mov	r0, r4
	bl	SMBUS_Flush_TXDR
.LVL261:
	.loc 1 2222 7
	.loc 1 2222 11
	.loc 1 2222 26 is_stmt 0
	movs	r3, #0
	strb	r3, [r4, #68]
	.loc 1 2222 9 is_stmt 1
	.loc 1 2228 7
	mov	r0, r4
	bl	HAL_SMBUS_ErrorCallback
.LVL262:
	b	.L255
.LVL263:
.L253:
	.loc 1 2232 8
	.loc 1 2232 11 is_stmt 0
	tst	r1, #8
	bne	.L270
	.loc 1 2251 8 is_stmt 1
	.loc 1 2251 11 is_stmt 0
	tst	r1, #132
	beq	.L257
	.loc 1 2254 5 is_stmt 1
	.loc 1 2254 16 is_stmt 0
	ldr	r3, [r0, #72]
	.loc 1 2254 24
	and	r3, r3, #66
	.loc 1 2254 8
	cmp	r3, #66
	beq	.L271
	.loc 1 2303 10 is_stmt 1
	.loc 1 2303 21 is_stmt 0
	ldr	r3, [r0, #72]
	.loc 1 2303 29
	and	r3, r3, #50
	.loc 1 2303 13
	cmp	r3, #50
	bne	.L255
	.loc 1 2305 7 is_stmt 1
	.loc 1 2305 18 is_stmt 0
	ldrh	r3, [r0, #58]
	uxth	r3, r3
	.loc 1 2305 10
	cmp	r3, #0
	beq	.L255
	.loc 1 2305 47 discriminator 1
	ldrh	r3, [r0, #56]
	.loc 1 2305 37 discriminator 1
	cmp	r3, #0
	bne	.L255
	.loc 1 2307 9 is_stmt 1
	.loc 1 2307 19 is_stmt 0
	ldrh	r3, [r0, #58]
	uxth	r3, r3
	.loc 1 2307 12
	cmp	r3, #255
	bls	.L261
	.loc 1 2309 11 is_stmt 1
	.loc 1 2310 59 is_stmt 0
	ldr	r3, [r0, #60]
	.loc 1 2310 73
	and	r3, r3, #67108864
	.loc 1 2309 11
	movs	r1, #0
.LVL264:
	str	r1, [sp]
	orr	r3, r3, #16777216
	movs	r2, #255
	bl	SMBUS_TransferConfig
.LVL265:
	.loc 1 2312 11 is_stmt 1
	.loc 1 2312 28 is_stmt 0
	movs	r3, #255
	strh	r3, [r4, #56]	@ movhi
	b	.L255
.LVL266:
.L270:
	.loc 1 2234 5 is_stmt 1
	.loc 1 2234 45 is_stmt 0
	ldr	r3, [r0]
	.loc 1 2234 55
	ldr	r1, [r3, #24]
.LVL267:
	.loc 1 2235 5 is_stmt 1
	.loc 1 2235 52 is_stmt 0
	ldr	r2, [r3, #24]
.LVL268:
	.loc 1 2239 5 is_stmt 1
	.loc 1 2239 24 is_stmt 0
	ldr	r0, [r3]
.LVL269:
	.loc 1 2239 30
	bic	r0, r0, #8
	str	r0, [r3]
	.loc 1 2242 5 is_stmt 1
	.loc 1 2242 9
	.loc 1 2242 24 is_stmt 0
	movs	r3, #0
	strb	r3, [r4, #68]
	.loc 1 2242 7 is_stmt 1
	.loc 1 2248 5
	ubfx	r2, r2, #17, #7
.LVL270:
	ubfx	r1, r1, #16, #1
.LVL271:
	mov	r0, r4
	bl	HAL_SMBUS_AddrCallback
.LVL272:
	b	.L255
.LVL273:
.L271:
	.loc 1 2257 7
	.loc 1 2257 43 is_stmt 0
	ldr	r3, [r0]
	.loc 1 2257 53
	ldr	r2, [r3, #36]
	.loc 1 2257 14
	ldr	r3, [r0, #52]
	.loc 1 2257 25
	strb	r2, [r3]
	.loc 1 2260 7 is_stmt 1
	.loc 1 2260 13 is_stmt 0
	ldr	r3, [r0, #52]
	.loc 1 2260 23
	adds	r3, r3, #1
	str	r3, [r0, #52]
	.loc 1 2262 7 is_stmt 1
	.loc 1 2262 13 is_stmt 0
	ldrh	r3, [r0, #56]
	.loc 1 2262 23
	subs	r3, r3, #1
	strh	r3, [r0, #56]	@ movhi
	.loc 1 2263 7 is_stmt 1
	.loc 1 2263 13 is_stmt 0
	ldrh	r3, [r0, #58]
	uxth	r3, r3
	.loc 1 2263 24
	subs	r3, r3, #1
	uxth	r3, r3
	strh	r3, [r0, #58]	@ movhi
	.loc 1 2265 7 is_stmt 1
	.loc 1 2265 17 is_stmt 0
	ldrh	r3, [r0, #58]
	uxth	r3, r3
	.loc 1 2265 10
	cmp	r3, #1
	beq	.L272
	.loc 1 2273 12 is_stmt 1
	.loc 1 2273 22 is_stmt 0
	ldrh	r3, [r0, #58]
	uxth	r3, r3
	.loc 1 2273 15
	cbnz	r3, .L260
	.loc 1 2276 9 is_stmt 1
	movs	r1, #212
.LVL274:
	bl	SMBUS_Disable_IRQ
.LVL275:
	.loc 1 2279 9
	.loc 1 2279 39 is_stmt 0
	ldr	r3, [r4, #72]
	.loc 1 2279 31
	str	r3, [r4, #64]
	.loc 1 2280 9 is_stmt 1
	.loc 1 2280 15 is_stmt 0
	ldr	r3, [r4, #72]
	.loc 1 2280 23
	bic	r3, r3, #66
	str	r3, [r4, #72]
	.loc 1 2283 9 is_stmt 1
	.loc 1 2283 13
	.loc 1 2283 28 is_stmt 0
	movs	r3, #0
	strb	r3, [r4, #68]
	.loc 1 2283 11 is_stmt 1
	.loc 1 2289 9
	mov	r0, r4
	bl	HAL_SMBUS_SlaveRxCpltCallback
.LVL276:
	b	.L255
.LVL277:
.L272:
	.loc 1 2270 9
	.loc 1 2270 15 is_stmt 0
	ldr	r3, [r0, #60]
	.loc 1 2270 29
	bic	r3, r3, #16777216
	str	r3, [r0, #60]
	.loc 1 2271 9 is_stmt 1
	.loc 1 2271 50 is_stmt 0
	ldr	r3, [r0, #60]
	.loc 1 2271 9
	movs	r1, #0
.LVL278:
	str	r1, [sp]
	movs	r2, #1
	bl	SMBUS_TransferConfig
.LVL279:
	b	.L255
.LVL280:
.L260:
	.loc 1 2295 9 is_stmt 1
	.loc 1 2296 56 is_stmt 0
	ldr	r3, [r0, #60]
	.loc 1 2296 70
	and	r3, r3, #67108864
	.loc 1 2295 9
	movs	r1, #0
.LVL281:
	str	r1, [sp]
	orr	r3, r3, #16777216
	movs	r2, #1
	bl	SMBUS_TransferConfig
.LVL282:
	.loc 1 2300 9 is_stmt 1
	.loc 1 2300 15 is_stmt 0
	ldr	r2, [r4]
	.loc 1 2300 25
	ldr	r3, [r2, #4]
	.loc 1 2300 31
	bic	r3, r3, #32768
	str	r3, [r2, #4]
	b	.L255
.LVL283:
.L261:
	.loc 1 2316 11 is_stmt 1
	.loc 1 2316 36 is_stmt 0
	ldrh	r2, [r0, #58]
	uxth	r2, r2
	.loc 1 2316 28
	strh	r2, [r0, #56]	@ movhi
	.loc 1 2317 11 is_stmt 1
	.loc 1 2317 76 is_stmt 0
	ldr	r3, [r0, #60]
	.loc 1 2317 11
	movs	r1, #0
.LVL284:
	str	r1, [sp]
	uxtb	r2, r2
	bl	SMBUS_TransferConfig
.LVL285:
	.loc 1 2321 11 is_stmt 1
	.loc 1 2321 24 is_stmt 0
	ldr	r3, [r4]
	.loc 1 2321 34
	ldr	r3, [r3, #4]
	.loc 1 2321 14
	tst	r3, #67108864
	beq	.L255
	.loc 1 2323 13 is_stmt 1
	.loc 1 2323 19 is_stmt 0
	ldrh	r3, [r4, #56]
	.loc 1 2323 29
	subs	r3, r3, #1
	strh	r3, [r4, #56]	@ movhi
	.loc 1 2324 13 is_stmt 1
	.loc 1 2324 19 is_stmt 0
	ldrh	r3, [r4, #58]
	uxth	r3, r3
	.loc 1 2324 30
	subs	r3, r3, #1
	uxth	r3, r3
	strh	r3, [r4, #58]	@ movhi
	b	.L255
.LVL286:
.L257:
	.loc 1 2334 8 is_stmt 1
	.loc 1 2334 11 is_stmt 0
	tst	r1, #2
	beq	.L255
	.loc 1 2340 5 is_stmt 1
	.loc 1 2340 15 is_stmt 0
	ldrh	r3, [r0, #58]
	uxth	r3, r3
	.loc 1 2340 8
	cbz	r3, .L262
	.loc 1 2343 7 is_stmt 1
	.loc 1 2343 39 is_stmt 0
	ldr	r2, [r0, #52]
	.loc 1 2343 13
	ldr	r3, [r0]
	.loc 1 2343 32
	ldrb	r2, [r2]	@ zero_extendqisi2
	.loc 1 2343 30
	str	r2, [r3, #40]
	.loc 1 2346 7 is_stmt 1
	.loc 1 2346 13 is_stmt 0
	ldr	r3, [r0, #52]
	.loc 1 2346 23
	adds	r3, r3, #1
	str	r3, [r0, #52]
	.loc 1 2348 7 is_stmt 1
	.loc 1 2348 13 is_stmt 0
	ldrh	r3, [r0, #58]
	uxth	r3, r3
	.loc 1 2348 24
	subs	r3, r3, #1
	uxth	r3, r3
	strh	r3, [r0, #58]	@ movhi
	.loc 1 2349 7 is_stmt 1
	.loc 1 2349 13 is_stmt 0
	ldrh	r3, [r0, #56]
	.loc 1 2349 23
	subs	r3, r3, #1
	strh	r3, [r0, #56]	@ movhi
.L262:
	.loc 1 2352 5 is_stmt 1
	.loc 1 2352 15 is_stmt 0
	ldrh	r3, [r4, #58]
	uxth	r3, r3
	.loc 1 2352 8
	cmp	r3, #0
	bne	.L255
	.loc 1 2356 7 is_stmt 1
	movs	r1, #242
.LVL287:
	mov	r0, r4
.LVL288:
	bl	SMBUS_Disable_IRQ
.LVL289:
	.loc 1 2357 7
	.loc 1 2357 37 is_stmt 0
	ldr	r3, [r4, #72]
	.loc 1 2357 29
	str	r3, [r4, #64]
	.loc 1 2358 7 is_stmt 1
	.loc 1 2358 13 is_stmt 0
	ldr	r3, [r4, #72]
	.loc 1 2358 21
	bic	r3, r3, #50
	str	r3, [r4, #72]
	.loc 1 2361 7 is_stmt 1
	.loc 1 2361 11
	.loc 1 2361 26 is_stmt 0
	movs	r3, #0
	strb	r3, [r4, #68]
	.loc 1 2361 9 is_stmt 1
	.loc 1 2367 7
	mov	r0, r4
	bl	HAL_SMBUS_SlaveTxCpltCallback
.LVL290:
	b	.L255
.LVL291:
.L265:
	.cfi_def_cfa_offset 0
	.cfi_restore 4
	.cfi_restore 5
	.cfi_restore 14
	.loc 1 2181 49 is_stmt 0
	movs	r0, #2
.LVL292:
	.loc 1 2435 1
	bx	lr
	.cfi_endproc
.LFE363:
	.size	SMBUS_Slave_ISR, .-SMBUS_Slave_ISR
	.section	.text.HAL_SMBUS_EV_IRQHandler,"ax",%progbits
	.align	1
	.global	HAL_SMBUS_EV_IRQHandler
	.syntax unified
	.thumb
	.thumb_func
	.type	HAL_SMBUS_EV_IRQHandler, %function
HAL_SMBUS_EV_IRQHandler:
.LFB351:
	.loc 1 1625 1 is_stmt 1
	.cfi_startproc
	@ args = 0, pretend = 0, frame = 0
	@ frame_needed = 0, uses_anonymous_args = 0
.LVL293:
	push	{r4, r5, r6, lr}
	.cfi_def_cfa_offset 16
	.cfi_offset 4, -16
	.cfi_offset 5, -12
	.cfi_offset 6, -8
	.cfi_offset 14, -4
	mov	r4, r0
	.loc 1 1628 3
	.loc 1 1628 34 is_stmt 0
	ldr	r3, [r0]
	.loc 1 1628 12
	ldr	r6, [r3, #24]
.LVL294:
	.loc 1 1629 3 is_stmt 1
	.loc 1 1629 12 is_stmt 0
	ldr	r5, [r3]
.LVL295:
	.loc 1 1632 3 is_stmt 1
	.loc 1 1632 25 is_stmt 0
	and	r3, r5, #114
	.loc 1 1632 6
	cmp	r3, #114
	beq	.L280
.LVL296:
.L274:
	.loc 1 1653 5 is_stmt 1
	.loc 1 1657 3
	.loc 1 1657 25 is_stmt 0
	and	r3, r5, #116
	.loc 1 1657 6
	cmp	r3, #116
	beq	.L281
.L276:
	.loc 1 1678 5 is_stmt 1
	.loc 1 1682 3
	.loc 1 1682 6 is_stmt 0
	tst	r5, #56
	beq	.L273
	.loc 1 1684 95
	tst	r6, #56
	beq	.L273
	.loc 1 1689 5 is_stmt 1
	.loc 1 1689 16 is_stmt 0
	ldr	r3, [r4, #72]
	.loc 1 1689 8
	tst	r3, #8
	bne	.L282
.L273:
	.loc 1 1694 1
	pop	{r4, r5, r6, pc}
.LVL297:
.L280:
	.loc 1 1633 86
	tst	r6, #242
	beq	.L274
	.loc 1 1641 5 is_stmt 1
	.loc 1 1641 16 is_stmt 0
	ldr	r3, [r0, #72]
	.loc 1 1641 24
	and	r3, r3, #50
	.loc 1 1641 8
	cmp	r3, #50
	beq	.L283
	.loc 1 1646 10 is_stmt 1
	.loc 1 1646 21 is_stmt 0
	ldr	r3, [r0, #72]
	.loc 1 1646 29
	and	r3, r3, #18
	.loc 1 1646 13
	cmp	r3, #18
	bne	.L274
	.loc 1 1648 7 is_stmt 1
	.loc 1 1648 13 is_stmt 0
	mov	r1, r6
	bl	SMBUS_Master_ISR
.LVL298:
	b	.L274
.LVL299:
.L283:
	.loc 1 1643 7 is_stmt 1
	.loc 1 1643 13 is_stmt 0
	mov	r1, r6
	bl	SMBUS_Slave_ISR
.LVL300:
	b	.L274
.L281:
	.loc 1 1658 86
	tst	r6, #244
	beq	.L276
	.loc 1 1666 5 is_stmt 1
	.loc 1 1666 16 is_stmt 0
	ldr	r3, [r4, #72]
	.loc 1 1666 24
	and	r3, r3, #66
	.loc 1 1666 8
	cmp	r3, #66
	beq	.L284
	.loc 1 1671 10 is_stmt 1
	.loc 1 1671 21 is_stmt 0
	ldr	r3, [r4, #72]
	.loc 1 1671 29
	and	r3, r3, #34
	.loc 1 1671 13
	cmp	r3, #34
	bne	.L276
	.loc 1 1673 7 is_stmt 1
	.loc 1 1673 13 is_stmt 0
	mov	r1, r6
	mov	r0, r4
	bl	SMBUS_Master_ISR
.LVL301:
	b	.L276
.L284:
	.loc 1 1668 7 is_stmt 1
	.loc 1 1668 13 is_stmt 0
	mov	r1, r6
	mov	r0, r4
	bl	SMBUS_Slave_ISR
.LVL302:
	b	.L276
.L282:
	.loc 1 1691 7 is_stmt 1
	.loc 1 1691 13 is_stmt 0
	mov	r1, r6
	mov	r0, r4
	bl	SMBUS_Slave_ISR
.LVL303:
	.loc 1 1694 1
	b	.L273
	.cfi_endproc
.LFE351:
	.size	HAL_SMBUS_EV_IRQHandler, .-HAL_SMBUS_EV_IRQHandler
	.section	.text.HAL_SMBUS_GetState,"ax",%progbits
	.align	1
	.global	HAL_SMBUS_GetState
	.syntax unified
	.thumb
	.thumb_func
	.type	HAL_SMBUS_GetState, %function
HAL_SMBUS_GetState:
.LFB360:
	.loc 1 1849 1 is_stmt 1
	.cfi_startproc
	@ args = 0, pretend = 0, frame = 0
	@ frame_needed = 0, uses_anonymous_args = 0
	@ link register save eliminated.
.LVL304:
	.loc 1 1851 3
	.loc 1 1851 16 is_stmt 0
	ldr	r0, [r0, #72]
.LVL305:
	.loc 1 1852 1
	bx	lr
	.cfi_endproc
.LFE360:
	.size	HAL_SMBUS_GetState, .-HAL_SMBUS_GetState
	.section	.text.HAL_SMBUS_GetError,"ax",%progbits
	.align	1
	.global	HAL_SMBUS_GetError
	.syntax unified
	.thumb
	.thumb_func
	.type	HAL_SMBUS_GetError, %function
HAL_SMBUS_GetError:
.LFB361:
	.loc 1 1861 1 is_stmt 1
	.cfi_startproc
	@ args = 0, pretend = 0, frame = 0
	@ frame_needed = 0, uses_anonymous_args = 0
	@ link register save eliminated.
.LVL306:
	.loc 1 1862 3
	.loc 1 1862 16 is_stmt 0
	ldr	r0, [r0, #76]
.LVL307:
	.loc 1 1863 1
	bx	lr
	.cfi_endproc
.LFE361:
	.size	HAL_SMBUS_GetError, .-HAL_SMBUS_GetError
	.text
.Letext0:
	.file 2 "m:\\noinstall\\arm-gnu-toolchain-12.2.rel1-mingw-w64-i686-arm-none-eabi\\arm-none-eabi\\include\\machine\\_default_types.h"
	.file 3 "m:\\noinstall\\arm-gnu-toolchain-12.2.rel1-mingw-w64-i686-arm-none-eabi\\arm-none-eabi\\include\\sys\\_stdint.h"
	.file 4 "D:/RTOS/Board/YD-STM32H7xxVx_ClassicV19/cmake-build-debug/_deps/stm32h7xx_cmsis_device-src/Include/stm32h743xx.h"
	.file 5 "D:/RTOS/Board/YD-STM32H7xxVx_ClassicV19/cmake-build-debug/_deps/stm32h7xx_cmsis_device-src/Include/stm32h7xx.h"
	.file 6 "D:/RTOS/Board/YD-STM32H7xxVx_ClassicV19/cmake-build-debug/_deps/stm32h7xx_hal_driver-src/Inc/stm32h7xx_hal_def.h"
	.file 7 "D:/RTOS/Board/YD-STM32H7xxVx_ClassicV19/cmake-build-debug/_deps/stm32h7xx_hal_driver-src/Inc/stm32h7xx_hal_smbus.h"
	.file 8 "D:/RTOS/Board/YD-STM32H7xxVx_ClassicV19/cmake-build-debug/_deps/stm32h7xx_hal_driver-src/Inc/stm32h7xx_hal.h"