	.cpu cortex-m7
	.arch armv7e-m
	.fpu fpv5-d16
	.eabi_attribute 28, 1
	.eabi_attribute 20, 1
	.eabi_attribute 21, 1
	.eabi_attribute 23, 3
	.eabi_attribute 24, 1
	.eabi_attribute 25, 1
	.eabi_attribute 26, 1
	.eabi_attribute 30, 1
	.eabi_attribute 34, 1
	.eabi_attribute 18, 4
	.file	"stm32h7xx_hal.c"
	.text
.Ltext0:
	.cfi_sections	.debug_frame
	.file 1 "D:/RTOS/Board/YD-STM32H7xxVx_ClassicV19/cmake-build-debug/_deps/stm32h7xx_hal_driver-src/Src/stm32h7xx_hal.c"
	.section	.text.HAL_MspInit,"ax",%progbits
	.align	1
	.weak	HAL_MspInit
	.syntax unified
	.thumb
	.thumb_func
	.type	HAL_MspInit, %function
HAL_MspInit:
.LFB337:
	.loc 1 229 1
	.cfi_startproc
	@ args = 0, pretend = 0, frame = 0
	@ frame_needed = 0, uses_anonymous_args = 0
	@ link register save eliminated.
	.loc 1 233 1
	bx	lr
	.cfi_endproc
.LFE337:
	.size	HAL_MspInit, .-HAL_MspInit
	.section	.text.HAL_MspDeInit,"ax",%progbits
	.align	1
	.weak	HAL_MspDeInit
	.syntax unified
	.thumb
	.thumb_func
	.type	HAL_MspDeInit, %function
HAL_MspDeInit:
.LFB338:
	.loc 1 240 1
	.cfi_startproc
	@ args = 0, pretend = 0, frame = 0
	@ frame_needed = 0, uses_anonymous_args = 0
	@ link register save eliminated.
	.loc 1 244 1
	bx	lr
	.cfi_endproc
.LFE338:
	.size	HAL_MspDeInit, .-HAL_MspDeInit
	.section	.text.HAL_DeInit,"ax",%progbits
	.align	1
	.global	HAL_DeInit
	.syntax unified
	.thumb
	.thumb_func
	.type	HAL_DeInit, %function
HAL_DeInit:
.LFB336:
	.loc 1 188 1
	.cfi_startproc
	@ args = 0, pretend = 0, frame = 0
	@ frame_needed = 0, uses_anonymous_args = 0
	push	{r4, lr}
	.cfi_def_cfa_offset 8
	.cfi_offset 4, -8
	.cfi_offset 14, -4
	.loc 1 190 3
	.loc 1 190 77 is_stmt 0
	ldr	r3, .L5
	ldr	r2, .L5+4
	str	r2, [r3, #124]
	.loc 1 191 3 is_stmt 1
	.loc 1 191 77 is_stmt 0
	movs	r4, #0
	str	r4, [r3, #124]
	.loc 1 193 3 is_stmt 1
	.loc 1 193 77 is_stmt 0
	ldr	r2, .L5+8
	str	r2, [r3, #128]
	.loc 1 194 3 is_stmt 1
	.loc 1 194 77 is_stmt 0
	str	r4, [r3, #128]
	.loc 1 196 3 is_stmt 1
	.loc 1 196 77 is_stmt 0
	movw	r2, #625
	str	r2, [r3, #132]
	.loc 1 197 3 is_stmt 1
	.loc 1 197 77 is_stmt 0
	str	r4, [r3, #132]
	.loc 1 199 3 is_stmt 1
	.loc 1 199 77 is_stmt 0
	ldr	r2, .L5+12
	str	r2, [r3, #136]
	.loc 1 200 2 is_stmt 1
	.loc 1 200 76 is_stmt 0
	str	r4, [r3, #136]
	.loc 1 202 3 is_stmt 1
	.loc 1 202 77 is_stmt 0
	movs	r2, #24
	str	r2, [r3, #140]
	.loc 1 203 3 is_stmt 1
	.loc 1 203 77 is_stmt 0
	str	r4, [r3, #140]
	.loc 1 205 3 is_stmt 1
	.loc 1 205 78 is_stmt 0
	ldr	r2, .L5+16
	str	r2, [r3, #144]
	.loc 1 206 3 is_stmt 1
	.loc 1 206 78 is_stmt 0
	str	r4, [r3, #144]
	.loc 1 208 3 is_stmt 1
	.loc 1 208 78 is_stmt 0
	mov	r2, #310
	str	r2, [r3, #148]
	.loc 1 209 3 is_stmt 1
	.loc 1 209 78 is_stmt 0
	str	r4, [r3, #148]
	.loc 1 211 4 is_stmt 1
	.loc 1 211 78 is_stmt 0
	ldr	r2, .L5+20
	str	r2, [r3, #152]
	.loc 1 212 4 is_stmt 1
	.loc 1 212 78 is_stmt 0
	str	r4, [r3, #152]
	.loc 1 214 3 is_stmt 1
	.loc 1 214 77 is_stmt 0
	ldr	r2, .L5+24
	str	r2, [r3, #156]
	.loc 1 215 3 is_stmt 1
	.loc 1 215 77 is_stmt 0
	str	r4, [r3, #156]
	.loc 1 218 3 is_stmt 1
	bl	HAL_MspDeInit
.LVL0:
	.loc 1 221 3
	.loc 1 222 1 is_stmt 0
	mov	r0, r4
	pop	{r4, pc}
.L6:
	.align	2
.L5:
	.word	1476543488
	.word	86065
	.word	167821347
	.word	52955135
	.word	-385891329
	.word	836186163
	.word	2154154
	.cfi_endproc
.LFE336:
	.size	HAL_DeInit, .-HAL_DeInit
	.section	.text.HAL_InitTick,"ax",%progbits
	.align	1
	.weak	HAL_InitTick
	.syntax unified
	.thumb
	.thumb_func
	.type	HAL_InitTick, %function
HAL_InitTick:
.LFB339:
	.loc 1 263 1 is_stmt 1
	.cfi_startproc
	@ args = 0, pretend = 0, frame = 0
	@ frame_needed = 0, uses_anonymous_args = 0
.LVL1:
	.loc 1 265 3
	.loc 1 265 27 is_stmt 0
	ldr	r3, .L18
	ldrb	r3, [r3]	@ zero_extendqisi2
	.loc 1 265 5
	cbnz	r3, .L16
	.loc 1 267 12
	movs	r0, #1
.LVL2:
	.loc 1 289 1
	bx	lr
.LVL3:
.L16:
	.loc 1 263 1
	push	{r4, lr}
	.cfi_def_cfa_offset 8
	.cfi_offset 4, -8
	.cfi_offset 14, -4
	mov	r4, r0
	.loc 1 271 5 is_stmt 1
	.loc 1 271 54 is_stmt 0
	mov	r0, #1000
.LVL4:
	udiv	r3, r0, r3
	.loc 1 271 9
	ldr	r2, .L18+4
	ldr	r0, [r2]
	udiv	r0, r0, r3
	bl	HAL_SYSTICK_Config
.LVL5:
	.loc 1 271 8
	cbnz	r0, .L10
	.loc 1 277 3 is_stmt 1
	.loc 1 277 6 is_stmt 0
	cmp	r4, #15
	bls	.L17
	.loc 1 284 12
	movs	r0, #1
	b	.L8
.L17:
	.loc 1 279 5 is_stmt 1
	movs	r2, #0
	mov	r1, r4
	mov	r0, #-1
	bl	HAL_NVIC_SetPriority
.LVL6:
	.loc 1 280 5
	.loc 1 280 16 is_stmt 0
	ldr	r3, .L18+8
	str	r4, [r3]
	.loc 1 288 3 is_stmt 1
	.loc 1 288 10 is_stmt 0
	movs	r0, #0
	b	.L8
.L10:
	.loc 1 273 14
	movs	r0, #1
.L8:
	.loc 1 289 1
	pop	{r4, pc}
.LVL7:
.L19:
	.align	2
.L18:
	.word	uwTickFreq
	.word	SystemCoreClock
	.word	uwTickPrio
	.cfi_endproc
.LFE339:
	.size	HAL_InitTick, .-HAL_InitTick
	.section	.text.HAL_Init,"ax",%progbits
	.align	1
	.global	HAL_Init
	.syntax unified
	.thumb
	.thumb_func
	.type	HAL_Init, %function
HAL_Init:
.LFB335:
	.loc 1 135 1 is_stmt 1
	.cfi_startproc
	@ args = 0, pretend = 0, frame = 0
	@ frame_needed = 0, uses_anonymous_args = 0
	push	{r4, lr}
	.cfi_def_cfa_offset 8
	.cfi_offset 4, -8
	.cfi_offset 14, -4
	.loc 1 137 1
	.loc 1 147 3
	movs	r0, #3
	bl	HAL_NVIC_SetPriorityGrouping
.LVL8:
	.loc 1 151 3
	.loc 1 151 25 is_stmt 0
	bl	HAL_RCC_GetSysClockFreq
.LVL9:
	.loc 1 151 136
	ldr	r1, .L25
	ldr	r3, [r1, #24]
	.loc 1 151 163
	ubfx	r3, r3, #8, #4
	.loc 1 151 72
	ldr	r2, .L25+4
	ldrb	r3, [r2, r3]	@ zero_extendqisi2
	.loc 1 151 173
	and	r3, r3, #31
	.loc 1 151 23
	lsrs	r0, r0, r3
.LVL10:
	.loc 1 158 3 is_stmt 1
	.loc 1 158 125 is_stmt 0
	ldr	r3, [r1, #24]
	.loc 1 158 152
	and	r3, r3, #15
	.loc 1 158 61
	ldrb	r3, [r2, r3]	@ zero_extendqisi2
	.loc 1 158 162
	and	r3, r3, #31
	.loc 1 158 40
	lsr	r3, r0, r3
	.loc 1 158 17
	ldr	r2, .L25+8
	str	r3, [r2]
	.loc 1 166 3 is_stmt 1
	.loc 1 166 19 is_stmt 0
	ldr	r3, .L25+12
	str	r0, [r3]
	.loc 1 170 3 is_stmt 1
	.loc 1 170 6 is_stmt 0
	movs	r0, #15
.LVL11:
	bl	HAL_InitTick
.LVL12:
	.loc 1 170 5
	cbz	r0, .L24
	.loc 1 172 12
	movs	r4, #1
.L21:
	.loc 1 180 1
	mov	r0, r4
	pop	{r4, pc}
.L24:
	mov	r4, r0
	.loc 1 176 3 is_stmt 1
	bl	HAL_MspInit
.LVL13:
	.loc 1 179 3
	.loc 1 179 10 is_stmt 0
	b	.L21
.L26:
	.align	2
.L25:
	.word	1476543488
	.word	D1CorePrescTable
	.word	SystemD2Clock
	.word	SystemCoreClock
	.cfi_endproc
.LFE335:
	.size	HAL_Init, .-HAL_Init
	.section	.text.HAL_IncTick,"ax",%progbits
	.align	1
	.weak	HAL_IncTick
	.syntax unified
	.thumb
	.thumb_func
	.type	HAL_IncTick, %function
HAL_IncTick:
.LFB340:
	.loc 1 328 1 is_stmt 1
	.cfi_startproc
	@ args = 0, pretend = 0, frame = 0
	@ frame_needed = 0, uses_anonymous_args = 0
	@ link register save eliminated.
	.loc 1 329 3
	.loc 1 329 13 is_stmt 0
	ldr	r3, .L28
	ldrb	r3, [r3]	@ zero_extendqisi2
	.loc 1 329 10
	ldr	r2, .L28+4
	ldr	r1, [r2]
	add	r3, r3, r1
	str	r3, [r2]
	.loc 1 330 1
	bx	lr
.L29:
	.align	2
.L28:
	.word	uwTickFreq
	.word	uwTick
	.cfi_endproc
.LFE340:
	.size	HAL_IncTick, .-HAL_IncTick
	.section	.text.HAL_GetTick,"ax",%progbits
	.align	1
	.weak	HAL_GetTick
	.syntax unified
	.thumb
	.thumb_func
	.type	HAL_GetTick, %function
HAL_GetTick:
.LFB341:
	.loc 1 339 1 is_stmt 1
	.cfi_startproc
	@ args = 0, pretend = 0, frame = 0
	@ frame_needed = 0, uses_anonymous_args = 0
	@ link register save eliminated.
	.loc 1 340 3
	.loc 1 340 10 is_stmt 0
	ldr	r3, .L31
	ldr	r0, [r3]
	.loc 1 341 1
	bx	lr
.L32:
	.align	2
.L31:
	.word	uwTick
	.cfi_endproc
.LFE341:
	.size	HAL_GetTick, .-HAL_GetTick
	.section	.text.HAL_GetTickPrio,"ax",%progbits
	.align	1
	.global	HAL_GetTickPrio
	.syntax unified
	.thumb
	.thumb_func
	.type	HAL_GetTickPrio, %function
HAL_GetTickPrio:
.LFB342:
	.loc 1 348 1 is_stmt 1
	.cfi_startproc
	@ args = 0, pretend = 0, frame = 0
	@ frame_needed = 0, uses_anonymous_args = 0
	@ link register save eliminated.
	.loc 1 349 3
	.loc 1 350 1 is_stmt 0
	ldr	r3, .L34
	ldr	r0, [r3]
	bx	lr
.L35:
	.align	2
.L34:
	.word	uwTickPrio
	.cfi_endproc
.LFE342:
	.size	HAL_GetTickPrio, .-HAL_GetTickPrio
	.section	.text.HAL_SetTickFreq,"ax",%progbits
	.align	1
	.global	HAL_SetTickFreq
	.syntax unified
	.thumb
	.thumb_func
	.type	HAL_SetTickFreq, %function
HAL_SetTickFreq:
.LFB343:
	.loc 1 357 1 is_stmt 1
	.cfi_startproc
	@ args = 0, pretend = 0, frame = 0
	@ frame_needed = 0, uses_anonymous_args = 0
.LVL14:
	push	{r4, lr}
	.cfi_def_cfa_offset 8
	.cfi_offset 4, -8
	.cfi_offset 14, -4
	.loc 1 358 3
.LVL15:
	.loc 1 359 3
	.loc 1 361 3
	.loc 1 363 3
	.loc 1 363 18 is_stmt 0
	ldr	r3, .L41
	ldrb	r4, [r3]	@ zero_extendqisi2
	.loc 1 363 6
	cmp	r4, r0
	bne	.L40
	.loc 1 358 21
	movs	r0, #0
.LVL16:
.L37:
	.loc 1 381 3 is_stmt 1
	.loc 1 382 1 is_stmt 0
	pop	{r4, pc}
.LVL17:
.L40:
	.loc 1 367 5 is_stmt 1
	.loc 1 370 5
	.loc 1 370 16 is_stmt 0
	strb	r0, [r3]
	.loc 1 373 5 is_stmt 1
	.loc 1 373 14 is_stmt 0
	ldr	r3, .L41+4
	ldr	r0, [r3]
.LVL18:
	bl	HAL_InitTick
.LVL19:
	.loc 1 374 5 is_stmt 1
	.loc 1 374 8 is_stmt 0
	cmp	r0, #0
	beq	.L37
	.loc 1 377 7 is_stmt 1
	.loc 1 377 18 is_stmt 0
	ldr	r3, .L41
	strb	r4, [r3]
	b	.L37
.L42:
	.align	2
.L41:
	.word	uwTickFreq
	.word	uwTickPrio
	.cfi_endproc
.LFE343:
	.size	HAL_SetTickFreq, .-HAL_SetTickFreq
	.section	.text.HAL_GetTickFreq,"ax",%progbits
	.align	1
	.global	HAL_GetTickFreq
	.syntax unified
	.thumb
	.thumb_func
	.type	HAL_GetTickFreq, %function
HAL_GetTickFreq:
.LFB344:
	.loc 1 390 1 is_stmt 1
	.cfi_startproc
	@ args = 0, pretend = 0, frame = 0
	@ frame_needed = 0, uses_anonymous_args = 0
	@ link register save eliminated.
	.loc 1 391 3
	.loc 1 392 1 is_stmt 0
	ldr	r3, .L44
	ldrb	r0, [r3]	@ zero_extendqisi2
	bx	lr
.L45:
	.align	2
.L44:
	.word	uwTickFreq
	.cfi_endproc
.LFE344:
	.size	HAL_GetTickFreq, .-HAL_GetTickFreq
	.section	.text.HAL_Delay,"ax",%progbits
	.align	1
	.weak	HAL_Delay
	.syntax unified
	.thumb
	.thumb_func
	.type	HAL_Delay, %function
HAL_Delay:
.LFB345:
	.loc 1 406 1 is_stmt 1
	.cfi_startproc
	@ args = 0, pretend = 0, frame = 0
	@ frame_needed = 0, uses_anonymous_args = 0
.LVL20:
	push	{r3, r4, r5, lr}
	.cfi_def_cfa_offset 16
	.cfi_offset 3, -16
	.cfi_offset 4, -12
	.cfi_offset 5, -8
	.cfi_offset 14, -4
	mov	r4, r0
	.loc 1 407 3
	.loc 1 407 24 is_stmt 0
	bl	HAL_GetTick
.LVL21:
	mov	r5, r0
.LVL22:
	.loc 1 408 3 is_stmt 1
	.loc 1 411 3
	.loc 1 411 6 is_stmt 0
	cmp	r4, #-1
	beq	.L48
	.loc 1 413 5 is_stmt 1
	.loc 1 413 13 is_stmt 0
	ldr	r3, .L50
	ldrb	r3, [r3]	@ zero_extendqisi2
	.loc 1 413 10
	add	r4, r4, r3
.LVL23:
.L48:
	.loc 1 418 3 is_stmt 1 discriminator 1
	.loc 1 416 38 discriminator 1
	.loc 1 416 11 is_stmt 0 discriminator 1
	bl	HAL_GetTick
.LVL24:
	.loc 1 416 25 discriminator 1
	subs	r0, r0, r5
	.loc 1 416 38 discriminator 1
	cmp	r0, r4
	bcc	.L48
	.loc 1 419 1
	pop	{r3, r4, r5, pc}
.LVL25:
.L51:
	.align	2
.L50:
	.word	uwTickFreq
	.cfi_endproc
.LFE345:
	.size	HAL_Delay, .-HAL_Delay
	.section	.text.HAL_SuspendTick,"ax",%progbits
	.align	1
	.weak	HAL_SuspendTick
	.syntax unified
	.thumb
	.thumb_func
	.type	HAL_SuspendTick, %function
HAL_SuspendTick:
.LFB346:
	.loc 1 432 1 is_stmt 1
	.cfi_startproc
	@ args = 0, pretend = 0, frame = 0
	@ frame_needed = 0, uses_anonymous_args = 0
	@ link register save eliminated.
	.loc 1 434 3
	.loc 1 434 50 is_stmt 0
	mov	r2, #-536813568
	ldr	r3, [r2, #16]
	.loc 1 434 57
	bic	r3, r3, #2
	str	r3, [r2, #16]
	.loc 1 435 1
	bx	lr
	.cfi_endproc
.LFE346:
	.size	HAL_SuspendTick, .-HAL_SuspendTick
	.section	.text.HAL_ResumeTick,"ax",%progbits
	.align	1
	.weak	HAL_ResumeTick
	.syntax unified
	.thumb
	.thumb_func
	.type	HAL_ResumeTick, %function
HAL_ResumeTick:
.LFB347:
	.loc 1 448 1 is_stmt 1
	.cfi_startproc
	@ args = 0, pretend = 0, frame = 0
	@ frame_needed = 0, uses_anonymous_args = 0
	@ link register save eliminated.
	.loc 1 450 3
	.loc 1 450 50 is_stmt 0
	mov	r2, #-536813568
	ldr	r3, [r2, #16]
	.loc 1 450 57
	orr	r3, r3, #2
	str	r3, [r2, #16]
	.loc 1 451 1
	bx	lr
	.cfi_endproc
.LFE347:
	.size	HAL_ResumeTick, .-HAL_ResumeTick
	.section	.text.HAL_GetHalVersion,"ax",%progbits
	.align	1
	.global	HAL_GetHalVersion
	.syntax unified
	.thumb
	.thumb_func
	.type	HAL_GetHalVersion, %function
HAL_GetHalVersion:
.LFB348:
	.loc 1 458 1 is_stmt 1
	.cfi_startproc
	@ args = 0, pretend = 0, frame = 0
	@ frame_needed = 0, uses_anonymous_args = 0
	@ link register save eliminated.
	.loc 1 459 2
	.loc 1 460 1 is_stmt 0
	ldr	r0, .L55
	bx	lr
.L56:
	.align	2
.L55:
	.word	17498880
	.cfi_endproc
.LFE348:
	.size	HAL_GetHalVersion, .-HAL_GetHalVersion
	.section	.text.HAL_GetREVID,"ax",%progbits
	.align	1
	.global	HAL_GetREVID
	.syntax unified
	.thumb
	.thumb_func
	.type	HAL_GetREVID, %function
HAL_GetREVID:
.LFB349:
	.loc 1 467 1 is_stmt 1
	.cfi_startproc
	@ args = 0, pretend = 0, frame = 0
	@ frame_needed = 0, uses_anonymous_args = 0
	@ link register save eliminated.
	.loc 1 468 4
	.loc 1 468 47 is_stmt 0
	ldr	r3, .L58
	ldr	r0, [r3]
	.loc 1 469 1
	lsrs	r0, r0, #16
	bx	lr
.L59:
	.align	2
.L58:
	.word	1543507968
	.cfi_endproc
.LFE349:
	.size	HAL_GetREVID, .-HAL_GetREVID
	.section	.text.HAL_GetDEVID,"ax",%progbits
	.align	1
	.global	HAL_GetDEVID
	.syntax unified
	.thumb
	.thumb_func
	.type	HAL_GetDEVID, %function
HAL_GetDEVID:
.LFB350:
	.loc 1 476 1 is_stmt 1
	.cfi_startproc
	@ args = 0, pretend = 0, frame = 0
	@ frame_needed = 0, uses_anonymous_args = 0
	@ link register save eliminated.
	.loc 1 477 4
	.loc 1 477 47 is_stmt 0
	ldr	r3, .L61
	ldr	r0, [r3]
	.loc 1 478 1
	ubfx	r0, r0, #0, #12
	bx	lr
.L62:
	.align	2
.L61:
	.word	1543507968
	.cfi_endproc
.LFE350:
	.size	HAL_GetDEVID, .-HAL_GetDEVID
	.section	.text.HAL_GetUIDw0,"ax",%progbits
	.align	1
	.global	HAL_GetUIDw0
	.syntax unified
	.thumb
	.thumb_func
	.type	HAL_GetUIDw0, %function
HAL_GetUIDw0:
.LFB351:
	.loc 1 485 1 is_stmt 1
	.cfi_startproc
	@ args = 0, pretend = 0, frame = 0
	@ frame_needed = 0, uses_anonymous_args = 0
	@ link register save eliminated.
	.loc 1 486 3
	.loc 1 487 1 is_stmt 0
	ldr	r3, .L64
	ldr	r0, [r3, #2048]
	bx	lr
.L65:
	.align	2
.L64:
	.word	535945216
	.cfi_endproc
.LFE351:
	.size	HAL_GetUIDw0, .-HAL_GetUIDw0
	.section	.text.HAL_GetUIDw1,"ax",%progbits
	.align	1
	.global	HAL_GetUIDw1
	.syntax unified
	.thumb
	.thumb_func
	.type	HAL_GetUIDw1, %function
HAL_GetUIDw1:
.LFB352:
	.loc 1 494 1 is_stmt 1
	.cfi_startproc
	@ args = 0, pretend = 0, frame = 0
	@ frame_needed = 0, uses_anonymous_args = 0
	@ link register save eliminated.
	.loc 1 495 3
	.loc 1 496 1 is_stmt 0
	ldr	r3, .L67
	ldr	r0, [r3, #2052]
	bx	lr
.L68:
	.align	2
.L67:
	.word	535945216
	.cfi_endproc
.LFE352:
	.size	HAL_GetUIDw1, .-HAL_GetUIDw1
	.section	.text.HAL_GetUIDw2,"ax",%progbits
	.align	1
	.global	HAL_GetUIDw2
	.syntax unified
	.thumb
	.thumb_func
	.type	HAL_GetUIDw2, %function
HAL_GetUIDw2:
.LFB353:
	.loc 1 503 1 is_stmt 1
	.cfi_startproc
	@ args = 0, pretend = 0, frame = 0
	@ frame_needed = 0, uses_anonymous_args = 0
	@ link register save eliminated.
	.loc 1 504 3
	.loc 1 505 1 is_stmt 0
	ldr	r3, .L70
	ldr	r0, [r3, #2056]
	bx	lr
.L71:
	.align	2
.L70:
	.word	535945216
	.cfi_endproc
.LFE353:
	.size	HAL_GetUIDw2, .-HAL_GetUIDw2
	.section	.text.HAL_SYSCFG_VREFBUF_VoltageScalingConfig,"ax",%progbits
	.align	1
	.global	HAL_SYSCFG_VREFBUF_VoltageScalingConfig
	.syntax unified
	.thumb
	.thumb_func
	.type	HAL_SYSCFG_VREFBUF_VoltageScalingConfig, %function
HAL_SYSCFG_VREFBUF_VoltageScalingConfig:
.LFB354:
	.loc 1 522 1 is_stmt 1
	.cfi_startproc
	@ args = 0, pretend = 0, frame = 0
	@ frame_needed = 0, uses_anonymous_args = 0
	@ link register save eliminated.
.LVL26:
	.loc 1 524 3
	.loc 1 526 3
	.loc 1 526 154 is_stmt 0
	ldr	r2, .L73
	ldr	r3, [r2]
	.loc 1 526 163
	bic	r3, r3, #112
	.loc 1 526 187
	orrs	r3, r3, r0
	.loc 1 526 80
	str	r3, [r2]
	.loc 1 527 1
	bx	lr
.L74:
	.align	2
.L73:
	.word	1476410368
	.cfi_endproc
.LFE354:
	.size	HAL_SYSCFG_VREFBUF_VoltageScalingConfig, .-HAL_SYSCFG_VREFBUF_VoltageScalingConfig
	.section	.text.HAL_SYSCFG_VREFBUF_HighImpedanceConfig,"ax",%progbits
	.align	1
	.global	HAL_SYSCFG_VREFBUF_HighImpedanceConfig
	.syntax unified
	.thumb
	.thumb_func
	.type	HAL_SYSCFG_VREFBUF_HighImpedanceConfig, %function
HAL_SYSCFG_VREFBUF_HighImpedanceConfig:
.LFB355:
	.loc 1 538 1 is_stmt 1
	.cfi_startproc
	@ args = 0, pretend = 0, frame = 0
	@ frame_needed = 0, uses_anonymous_args = 0
	@ link register save eliminated.
.LVL27:
	.loc 1 540 3
	.loc 1 542 3
	.loc 1 542 154 is_stmt 0
	ldr	r2, .L76
	ldr	r3, [r2]
	.loc 1 542 163
	bic	r3, r3, #2
	.loc 1 542 187
	orrs	r3, r3, r0
	.loc 1 542 80
	str	r3, [r2]
	.loc 1 543 1
	bx	lr
.L77:
	.align	2
.L76:
	.word	1476410368
	.cfi_endproc
.LFE355:
	.size	HAL_SYSCFG_VREFBUF_HighImpedanceConfig, .-HAL_SYSCFG_VREFBUF_HighImpedanceConfig
	.section	.text.HAL_SYSCFG_VREFBUF_TrimmingConfig,"ax",%progbits
	.align	1
	.global	HAL_SYSCFG_VREFBUF_TrimmingConfig
	.syntax unified
	.thumb
	.thumb_func
	.type	HAL_SYSCFG_VREFBUF_TrimmingConfig, %function
HAL_SYSCFG_VREFBUF_TrimmingConfig:
.LFB356:
	.loc 1 550 1 is_stmt 1
	.cfi_startproc
	@ args = 0, pretend = 0, frame = 0
	@ frame_needed = 0, uses_anonymous_args = 0
	@ link register save eliminated.
.LVL28:
	.loc 1 552 3
	.loc 1 554 3
	.loc 1 554 154 is_stmt 0
	ldr	r2, .L79
	ldr	r3, [r2, #4]
	.loc 1 554 163
	bic	r3, r3, #63
	.loc 1 554 188
	orrs	r3, r3, r0
	.loc 1 554 80
	str	r3, [r2, #4]
	.loc 1 555 1
	bx	lr
.L80:
	.align	2
.L79:
	.word	1476410368
	.cfi_endproc
.LFE356:
	.size	HAL_SYSCFG_VREFBUF_TrimmingConfig, .-HAL_SYSCFG_VREFBUF_TrimmingConfig
	.section	.text.HAL_SYSCFG_EnableVREFBUF,"ax",%progbits
	.align	1
	.global	HAL_SYSCFG_EnableVREFBUF
	.syntax unified
	.thumb
	.thumb_func
	.type	HAL_SYSCFG_EnableVREFBUF, %function
HAL_SYSCFG_EnableVREFBUF:
.LFB357:
	.loc 1 562 1 is_stmt 1
	.cfi_startproc
	@ args = 0, pretend = 0, frame = 0
	@ frame_needed = 0, uses_anonymous_args = 0
	push	{r4, lr}
	.cfi_def_cfa_offset 8
	.cfi_offset 4, -8
	.cfi_offset 14, -4
	.loc 1 563 3
	.loc 1 565 3
	.loc 1 565 71 is_stmt 0
	ldr	r2, .L88
	ldr	r3, [r2]
	.loc 1 565 78
	orr	r3, r3, #1
	str	r3, [r2]
	.loc 1 568 3 is_stmt 1
	.loc 1 568 15 is_stmt 0
	bl	HAL_GetTick
.LVL29:
	mov	r4, r0
.LVL30:
	.loc 1 571 3 is_stmt 1
.L82:
	.loc 1 571 105
	.loc 1 571 77 is_stmt 0
	ldr	r3, .L88
	ldr	r3, [r3]
	.loc 1 571 105
	tst	r3, #8
	bne	.L87
	.loc 1 573 5 is_stmt 1
	.loc 1 573 9 is_stmt 0
	bl	HAL_GetTick
.LVL31:
	.loc 1 573 23
	subs	r0, r0, r4
	.loc 1 573 7
	cmp	r0, #10
	bls	.L82
	.loc 1 575 14
	movs	r0, #3
	b	.L83
.L87:
	.loc 1 579 10
	movs	r0, #0
.L83:
	.loc 1 580 1
	pop	{r4, pc}
.LVL32:
.L89:
	.align	2
.L88:
	.word	1476410368
	.cfi_endproc
.LFE357:
	.size	HAL_SYSCFG_EnableVREFBUF, .-HAL_SYSCFG_EnableVREFBUF
	.section	.text.HAL_SYSCFG_DisableVREFBUF,"ax",%progbits
	.align	1
	.global	HAL_SYSCFG_DisableVREFBUF
	.syntax unified
	.thumb
	.thumb_func
	.type	HAL_SYSCFG_DisableVREFBUF, %function
HAL_SYSCFG_DisableVREFBUF:
.LFB358:
	.loc 1 588 1 is_stmt 1
	.cfi_startproc
	@ args = 0, pretend = 0, frame = 0
	@ frame_needed = 0, uses_anonymous_args = 0
	@ link register save eliminated.
	.loc 1 589 3
	.loc 1 589 71 is_stmt 0
	ldr	r2, .L91
	ldr	r3, [r2]
	.loc 1 589 78
	bic	r3, r3, #1
	str	r3, [r2]
	.loc 1 590 1
	bx	lr
.L92:
	.align	2
.L91:
	.word	1476410368
	.cfi_endproc
.LFE358:
	.size	HAL_SYSCFG_DisableVREFBUF, .-HAL_SYSCFG_DisableVREFBUF
	.section	.text.HAL_SYSCFG_ETHInterfaceSelect,"ax",%progbits
	.align	1
	.global	HAL_SYSCFG_ETHInterfaceSelect
	.syntax unified
	.thumb
	.thumb_func
	.type	HAL_SYSCFG_ETHInterfaceSelect, %function
HAL_SYSCFG_ETHInterfaceSelect:
.LFB359:
	.loc 1 602 1 is_stmt 1
	.cfi_startproc
	@ args = 0, pretend = 0, frame = 0
	@ frame_needed = 0, uses_anonymous_args = 0
	@ link register save eliminated.
.LVL33:
	.loc 1 604 3
	.loc 1 606 3
	.loc 1 606 153 is_stmt 0
	ldr	r2, .L94
	ldr	r3, [r2, #4]
	.loc 1 606 163
	bic	r3, r3, #14680064
	.loc 1 606 188
	orrs	r3, r3, r0
	.loc 1 606 80
	str	r3, [r2, #4]
	.loc 1 607 1
	bx	lr
.L95:
	.align	2
.L94:
	.word	1476396032
	.cfi_endproc
.LFE359:
	.size	HAL_SYSCFG_ETHInterfaceSelect, .-HAL_SYSCFG_ETHInterfaceSelect
	.section	.text.HAL_SYSCFG_AnalogSwitchConfig,"ax",%progbits
	.align	1
	.global	HAL_SYSCFG_AnalogSwitchConfig
	.syntax unified
	.thumb
	.thumb_func
	.type	HAL_SYSCFG_AnalogSwitchConfig, %function
HAL_SYSCFG_AnalogSwitchConfig:
.LFB360:
	.loc 1 632 1 is_stmt 1
	.cfi_startproc
	@ args = 0, pretend = 0, frame = 0
	@ frame_needed = 0, uses_anonymous_args = 0
	@ link register save eliminated.
.LVL34:
	.loc 1 634 3
	.loc 1 635 3
	.loc 1 637 3
	.loc 1 637 153 is_stmt 0
	ldr	r2, .L97
	ldr	r3, [r2, #4]
	.loc 1 637 163
	bic	r3, r3, r0
	.loc 1 637 202
	orrs	r3, r3, r1
	.loc 1 637 80
	str	r3, [r2, #4]
	.loc 1 638 1
	bx	lr
.L98:
	.align	2
.L97:
	.word	1476396032
	.cfi_endproc
.LFE360:
	.size	HAL_SYSCFG_AnalogSwitchConfig, .-HAL_SYSCFG_AnalogSwitchConfig
	.section	.text.HAL_SYSCFG_EnableBOOST,"ax",%progbits
	.align	1
	.global	HAL_SYSCFG_EnableBOOST
	.syntax unified
	.thumb
	.thumb_func
	.type	HAL_SYSCFG_EnableBOOST, %function
HAL_SYSCFG_EnableBOOST:
.LFB361:
	.loc 1 650 1 is_stmt 1
	.cfi_startproc
	@ args = 0, pretend = 0, frame = 0
	@ frame_needed = 0, uses_anonymous_args = 0
	@ link register save eliminated.
	.loc 1 651 2
	.loc 1 651 69 is_stmt 0
	ldr	r2, .L100
	ldr	r3, [r2, #4]
	.loc 1 651 77
	orr	r3, r3, #256
	str	r3, [r2, #4]
	.loc 1 652 1
	bx	lr
.L101:
	.align	2
.L100:
	.word	1476396032
	.cfi_endproc
.LFE361:
	.size	HAL_SYSCFG_EnableBOOST, .-HAL_SYSCFG_EnableBOOST
	.section	.text.HAL_SYSCFG_DisableBOOST,"ax",%progbits
	.align	1
	.global	HAL_SYSCFG_DisableBOOST
	.syntax unified
	.thumb
	.thumb_func
	.type	HAL_SYSCFG_DisableBOOST, %function
HAL_SYSCFG_DisableBOOST:
.LFB362:
	.loc 1 662 1 is_stmt 1
	.cfi_startproc
	@ args = 0, pretend = 0, frame = 0
	@ frame_needed = 0, uses_anonymous_args = 0
	@ link register save eliminated.
	.loc 1 663 2
	.loc 1 663 69 is_stmt 0
	ldr	r2, .L103
	ldr	r3, [r2, #4]
	.loc 1 663 77
	bic	r3, r3, #256
	str	r3, [r2, #4]
	.loc 1 664 1
	bx	lr
.L104:
	.align	2
.L103:
	.word	1476396032
	.cfi_endproc
.LFE362:
	.size	HAL_SYSCFG_DisableBOOST, .-HAL_SYSCFG_DisableBOOST
	.section	.text.HAL_SYSCFG_CM7BootAddConfig,"ax",%progbits
	.align	1
	.global	HAL_SYSCFG_CM7BootAddConfig
	.syntax unified
	.thumb
	.thumb_func
	.type	HAL_SYSCFG_CM7BootAddConfig, %function
HAL_SYSCFG_CM7BootAddConfig:
.LFB363:
	.loc 1 678 1 is_stmt 1
	.cfi_startproc
	@ args = 0, pretend = 0, frame = 0
	@ frame_needed = 0, uses_anonymous_args = 0
	@ link register save eliminated.
.LVL35:
	.loc 1 680 3
	.loc 1 681 3
	.loc 1 682 3
	.loc 1 682 6 is_stmt 0
	cbnz	r0, .L106
	.loc 1 688 5 is_stmt 1
	.loc 1 688 154 is_stmt 0
	ldr	r0, .L108
.LVL36:
	ldr	r3, [r0, #776]
	.loc 1 688 163
	uxth	r3, r3
	.loc 1 688 215
	ldr	r2, .L108+4
	ands	r2, r2, r1
	.loc 1 688 191
	orrs	r3, r3, r2
	.loc 1 688 81
	str	r3, [r0, #776]
	bx	lr
.LVL37:
.L106:
	.loc 1 697 5 is_stmt 1
	.loc 1 697 154 is_stmt 0
	ldr	r2, .L108
	ldr	r0, [r2, #780]
.LVL38:
	.loc 1 697 163
	ldr	r3, .L108+4
	ands	r3, r3, r0
	.loc 1 697 190
	orr	r3, r3, r1, lsr #16
	.loc 1 697 81
	str	r3, [r2, #780]
	.loc 1 700 1
	bx	lr
.L109:
	.align	2
.L108:
	.word	1476396032
	.word	-65536
	.cfi_endproc
.LFE363:
	.size	HAL_SYSCFG_CM7BootAddConfig, .-HAL_SYSCFG_CM7BootAddConfig
	.section	.text.HAL_EnableCompensationCell,"ax",%progbits
	.align	1
	.global	HAL_EnableCompensationCell
	.syntax unified
	.thumb
	.thumb_func
	.type	HAL_EnableCompensationCell, %function
HAL_EnableCompensationCell:
.LFB364:
	.loc 1 777 1 is_stmt 1
	.cfi_startproc
	@ args = 0, pretend = 0, frame = 0
	@ frame_needed = 0, uses_anonymous_args = 0
	@ link register save eliminated.
	.loc 1 778 3
	.loc 1 778 70 is_stmt 0
	ldr	r2, .L111
	ldr	r3, [r2, #32]
	.loc 1 778 79
	orr	r3, r3, #1
	str	r3, [r2, #32]
	.loc 1 779 1
	bx	lr
.L112:
	.align	2
.L111:
	.word	1476396032
	.cfi_endproc
.LFE364:
	.size	HAL_EnableCompensationCell, .-HAL_EnableCompensationCell
	.section	.text.HAL_DisableCompensationCell,"ax",%progbits
	.align	1
	.global	HAL_DisableCompensationCell
	.syntax unified
	.thumb
	.thumb_func
	.type	HAL_DisableCompensationCell, %function
HAL_DisableCompensationCell:
.LFB365:
	.loc 1 788 1 is_stmt 1
	.cfi_startproc
	@ args = 0, pretend = 0, frame = 0
	@ frame_needed = 0, uses_anonymous_args = 0
	@ link register save eliminated.
	.loc 1 789 3
	.loc 1 789 70 is_stmt 0
	ldr	r2, .L114
	ldr	r3, [r2, #32]
	.loc 1 789 79
	bic	r3, r3, #1
	str	r3, [r2, #32]
	.loc 1 790 1
	bx	lr
.L115:
	.align	2
.L114:
	.word	1476396032
	.cfi_endproc
.LFE365:
	.size	HAL_DisableCompensationCell, .-HAL_DisableCompensationCell
	.section	.text.HAL_SYSCFG_EnableIOSpeedOptimize,"ax",%progbits
	.align	1
	.global	HAL_SYSCFG_EnableIOSpeedOptimize
	.syntax unified
	.thumb
	.thumb_func
	.type	HAL_SYSCFG_EnableIOSpeedOptimize, %function
HAL_SYSCFG_EnableIOSpeedOptimize:
.LFB366:
	.loc 1 801 1 is_stmt 1
	.cfi_startproc
	@ args = 0, pretend = 0, frame = 0
	@ frame_needed = 0, uses_anonymous_args = 0
	@ link register save eliminated.
	.loc 1 803 3
	.loc 1 803 70 is_stmt 0
	ldr	r2, .L117
	ldr	r3, [r2, #32]
	.loc 1 803 79
	orr	r3, r3, #65536
	str	r3, [r2, #32]
	.loc 1 807 1
	bx	lr
.L118:
	.align	2
.L117:
	.word	1476396032
	.cfi_endproc
.LFE366:
	.size	HAL_SYSCFG_EnableIOSpeedOptimize, .-HAL_SYSCFG_EnableIOSpeedOptimize
	.section	.text.HAL_SYSCFG_DisableIOSpeedOptimize,"ax",%progbits
	.align	1
	.global	HAL_SYSCFG_DisableIOSpeedOptimize
	.syntax unified
	.thumb
	.thumb_func
	.type	HAL_SYSCFG_DisableIOSpeedOptimize, %function
HAL_SYSCFG_DisableIOSpeedOptimize:
.LFB367:
	.loc 1 817 1 is_stmt 1
	.cfi_startproc
	@ args = 0, pretend = 0, frame = 0
	@ frame_needed = 0, uses_anonymous_args = 0
	@ link register save eliminated.
	.loc 1 819 3
	.loc 1 819 70 is_stmt 0
	ldr	r2, .L120
	ldr	r3, [r2, #32]
	.loc 1 819 79
	bic	r3, r3, #65536
	str	r3, [r2, #32]
	.loc 1 823 1
	bx	lr
.L121:
	.align	2
.L120:
	.word	1476396032
	.cfi_endproc
.LFE367:
	.size	HAL_SYSCFG_DisableIOSpeedOptimize, .-HAL_SYSCFG_DisableIOSpeedOptimize
	.section	.text.HAL_SYSCFG_CompensationCodeSelect,"ax",%progbits
	.align	1
	.global	HAL_SYSCFG_CompensationCodeSelect
	.syntax unified
	.thumb
	.thumb_func
	.type	HAL_SYSCFG_CompensationCodeSelect, %function
HAL_SYSCFG_CompensationCodeSelect:
.LFB368:
	.loc 1 834 1 is_stmt 1
	.cfi_startproc
	@ args = 0, pretend = 0, frame = 0
	@ frame_needed = 0, uses_anonymous_args = 0
	@ link register save eliminated.
.LVL39:
	.loc 1 836 3
	.loc 1 837 3
	.loc 1 837 154 is_stmt 0
	ldr	r2, .L123
	ldr	r3, [r2, #32]
	.loc 1 837 165
	bic	r3, r3, #2
	.loc 1 837 189
	orrs	r3, r3, r0
	.loc 1 837 81
	str	r3, [r2, #32]
	.loc 1 838 1
	bx	lr
.L124:
	.align	2
.L123:
	.word	1476396032
	.cfi_endproc
.LFE368:
	.size	HAL_SYSCFG_CompensationCodeSelect, .-HAL_SYSCFG_CompensationCodeSelect
	.section	.text.HAL_SYSCFG_CompensationCodeConfig,"ax",%progbits
	.align	1
	.global	HAL_SYSCFG_CompensationCodeConfig
	.syntax unified
	.thumb
	.thumb_func
	.type	HAL_SYSCFG_CompensationCodeConfig, %function
HAL_SYSCFG_CompensationCodeConfig:
.LFB369:
	.loc 1 851 1 is_stmt 1
	.cfi_startproc
	@ args = 0, pretend = 0, frame = 0
	@ frame_needed = 0, uses_anonymous_args = 0
	@ link register save eliminated.
.LVL40:
	.loc 1 853 3
	.loc 1 854 3
	.loc 1 855 3
	.loc 1 855 153 is_stmt 0
	ldr	r2, .L126
	ldr	r3, [r2, #40]
	.loc 1 855 163
	bic	r3, r3, #255
	.loc 1 855 240
	orr	r1, r1, r0, lsl #4
.LVL41:
	.loc 1 855 203
	orrs	r3, r3, r1
	.loc 1 855 80
	str	r3, [r2, #40]
	.loc 1 856 1
	bx	lr
.L127:
	.align	2
.L126:
	.word	1476396032
	.cfi_endproc
.LFE369:
	.size	HAL_SYSCFG_CompensationCodeConfig, .-HAL_SYSCFG_CompensationCodeConfig
	.section	.text.HAL_DBGMCU_EnableDBGSleepMode,"ax",%progbits
	.align	1
	.global	HAL_DBGMCU_EnableDBGSleepMode
	.syntax unified
	.thumb
	.thumb_func
	.type	HAL_DBGMCU_EnableDBGSleepMode, %function
HAL_DBGMCU_EnableDBGSleepMode:
.LFB370:
	.loc 1 913 1 is_stmt 1
	.cfi_startproc
	@ args = 0, pretend = 0, frame = 0
	@ frame_needed = 0, uses_anonymous_args = 0
	@ link register save eliminated.
	.loc 1 914 3
	.loc 1 914 40 is_stmt 0
	ldr	r2, .L129
	ldr	r3, [r2, #4]
	.loc 1 914 46
	orr	r3, r3, #1
	str	r3, [r2, #4]
	.loc 1 915 1
	bx	lr
.L130:
	.align	2
.L129:
	.word	1543507968
	.cfi_endproc
.LFE370:
	.size	HAL_DBGMCU_EnableDBGSleepMode, .-HAL_DBGMCU_EnableDBGSleepMode
	.section	.text.HAL_DBGMCU_DisableDBGSleepMode,"ax",%progbits
	.align	1
	.global	HAL_DBGMCU_DisableDBGSleepMode
	.syntax unified
	.thumb
	.thumb_func
	.type	HAL_DBGMCU_DisableDBGSleepMode, %function
HAL_DBGMCU_DisableDBGSleepMode:
.LFB371:
	.loc 1 922 1 is_stmt 1
	.cfi_startproc
	@ args = 0, pretend = 0, frame = 0
	@ frame_needed = 0, uses_anonymous_args = 0
	@ link register save eliminated.
	.loc 1 923 3
	.loc 1 923 40 is_stmt 0
	ldr	r2, .L132
	ldr	r3, [r2, #4]
	.loc 1 923 46
	bic	r3, r3, #1
	str	r3, [r2, #4]
	.loc 1 924 1
	bx	lr
.L133:
	.align	2
.L132:
	.word	1543507968
	.cfi_endproc
.LFE371:
	.size	HAL_DBGMCU_DisableDBGSleepMode, .-HAL_DBGMCU_DisableDBGSleepMode
	.section	.text.HAL_DBGMCU_EnableDBGStopMode,"ax",%progbits
	.align	1
	.global	HAL_DBGMCU_EnableDBGStopMode
	.syntax unified
	.thumb
	.thumb_func
	.type	HAL_DBGMCU_EnableDBGStopMode, %function
HAL_DBGMCU_EnableDBGStopMode:
.LFB372:
	.loc 1 932 1 is_stmt 1
	.cfi_startproc
	@ args = 0, pretend = 0, frame = 0
	@ frame_needed = 0, uses_anonymous_args = 0
	@ link register save eliminated.
	.loc 1 933 3
	.loc 1 933 40 is_stmt 0
	ldr	r2, .L135
	ldr	r3, [r2, #4]
	.loc 1 933 46
	orr	r3, r3, #2
	str	r3, [r2, #4]
	.loc 1 934 1
	bx	lr
.L136:
	.align	2
.L135:
	.word	1543507968
	.cfi_endproc
.LFE372:
	.size	HAL_DBGMCU_EnableDBGStopMode, .-HAL_DBGMCU_EnableDBGStopMode
	.section	.text.HAL_DBGMCU_DisableDBGStopMode,"ax",%progbits
	.align	1
	.global	HAL_DBGMCU_DisableDBGStopMode
	.syntax unified
	.thumb
	.thumb_func
	.type	HAL_DBGMCU_DisableDBGStopMode, %function
HAL_DBGMCU_DisableDBGStopMode:
.LFB373:
	.loc 1 941 1 is_stmt 1
	.cfi_startproc
	@ args = 0, pretend = 0, frame = 0
	@ frame_needed = 0, uses_anonymous_args = 0
	@ link register save eliminated.
	.loc 1 942 3
	.loc 1 942 40 is_stmt 0
	ldr	r2, .L138
	ldr	r3, [r2, #4]
	.loc 1 942 46
	bic	r3, r3, #2
	str	r3, [r2, #4]
	.loc 1 943 1
	bx	lr
.L139:
	.align	2
.L138:
	.word	1543507968
	.cfi_endproc
.LFE373:
	.size	HAL_DBGMCU_DisableDBGStopMode, .-HAL_DBGMCU_DisableDBGStopMode
	.section	.text.HAL_DBGMCU_EnableDBGStandbyMode,"ax",%progbits
	.align	1
	.global	HAL_DBGMCU_EnableDBGStandbyMode
	.syntax unified
	.thumb
	.thumb_func
	.type	HAL_DBGMCU_EnableDBGStandbyMode, %function
HAL_DBGMCU_EnableDBGStandbyMode:
.LFB374:
	.loc 1 950 1 is_stmt 1
	.cfi_startproc
	@ args = 0, pretend = 0, frame = 0
	@ frame_needed = 0, uses_anonymous_args = 0
	@ link register save eliminated.
	.loc 1 951 3
	.loc 1 951 40 is_stmt 0
	ldr	r2, .L141
	ldr	r3, [r2, #4]
	.loc 1 951 46
	orr	r3, r3, #4
	str	r3, [r2, #4]
	.loc 1 952 1
	bx	lr
.L142:
	.align	2
.L141:
	.word	1543507968
	.cfi_endproc
.LFE374:
	.size	HAL_DBGMCU_EnableDBGStandbyMode, .-HAL_DBGMCU_EnableDBGStandbyMode
	.section	.text.HAL_DBGMCU_DisableDBGStandbyMode,"ax",%progbits
	.align	1
	.global	HAL_DBGMCU_DisableDBGStandbyMode
	.syntax unified
	.thumb
	.thumb_func
	.type	HAL_DBGMCU_DisableDBGStandbyMode, %function
HAL_DBGMCU_DisableDBGStandbyMode:
.LFB375:
	.loc 1 959 1 is_stmt 1
	.cfi_startproc
	@ args = 0, pretend = 0, frame = 0
	@ frame_needed = 0, uses_anonymous_args = 0
	@ link register save eliminated.
	.loc 1 960 3
	.loc 1 960 40 is_stmt 0
	ldr	r2, .L144
	ldr	r3, [r2, #4]
	.loc 1 960 46
	bic	r3, r3, #4
	str	r3, [r2, #4]
	.loc 1 961 1
	bx	lr
.L145:
	.align	2
.L144:
	.word	1543507968
	.cfi_endproc
.LFE375:
	.size	HAL_DBGMCU_DisableDBGStandbyMode, .-HAL_DBGMCU_DisableDBGStandbyMode
	.section	.text.HAL_SetFMCMemorySwappingConfig,"ax",%progbits
	.align	1
	.global	HAL_SetFMCMemorySwappingConfig
	.syntax unified
	.thumb
	.thumb_func
	.type	HAL_SetFMCMemorySwappingConfig, %function
HAL_SetFMCMemorySwappingConfig:
.LFB376:
	.loc 1 1066 1 is_stmt 1
	.cfi_startproc
	@ args = 0, pretend = 0, frame = 0
	@ frame_needed = 0, uses_anonymous_args = 0
	@ link register save eliminated.
.LVL42:
	.loc 1 1068 3
	.loc 1 1069 3
	.loc 1 1069 194 is_stmt 0
	ldr	r2, .L147
	ldr	r3, [r2]
	.loc 1 1069 201
	bic	r3, r3, #50331648
	.loc 1 1069 226
	orrs	r3, r3, r0
	.loc 1 1069 99
	str	r3, [r2]
	.loc 1 1070 1
	bx	lr
.L148:
	.align	2
.L147:
	.word	1375748096
	.cfi_endproc
.LFE376:
	.size	HAL_SetFMCMemorySwappingConfig, .-HAL_SetFMCMemorySwappingConfig
	.section	.text.HAL_GetFMCMemorySwappingConfig,"ax",%progbits
	.align	1
	.global	HAL_GetFMCMemorySwappingConfig
	.syntax unified
	.thumb
	.thumb_func
	.type	HAL_GetFMCMemorySwappingConfig, %function
HAL_GetFMCMemorySwappingConfig:
.LFB377:
	.loc 1 1078 1 is_stmt 1
	.cfi_startproc
	@ args = 0, pretend = 0, frame = 0
	@ frame_needed = 0, uses_anonymous_args = 0
	@ link register save eliminated.
	.loc 1 1079 3
	.loc 1 1079 99 is_stmt 0
	ldr	r3, .L150
	ldr	r0, [r3]
	.loc 1 1080 1
	and	r0, r0, #50331648
	bx	lr
.L151:
	.align	2
.L150:
	.word	1375748096
	.cfi_endproc
.LFE377:
	.size	HAL_GetFMCMemorySwappingConfig, .-HAL_GetFMCMemorySwappingConfig
	.section	.text.HAL_EXTI_EdgeConfig,"ax",%progbits
	.align	1
	.global	HAL_EXTI_EdgeConfig
	.syntax unified
	.thumb
	.thumb_func
	.type	HAL_EXTI_EdgeConfig, %function
HAL_EXTI_EdgeConfig:
.LFB378:
	.loc 1 1095 1 is_stmt 1
	.cfi_startproc
	@ args = 0, pretend = 0, frame = 0
	@ frame_needed = 0, uses_anonymous_args = 0
	@ link register save eliminated.
.LVL43:
	push	{r4, r5}
	.cfi_def_cfa_offset 8
	.cfi_offset 4, -8
	.cfi_offset 5, -4
	.loc 1 1097 3
	.loc 1 1098 3
	.loc 1 1101 3
	.loc 1 1101 5 is_stmt 0
	lsrs	r3, r0, #5
	bic	ip, r0, #31
	ldr	r4, .L156
	ldr	r5, [ip, r4]
	.loc 1 1101 183
	and	r0, r0, #31
.LVL44:
	.loc 1 1101 154
	movs	r2, #1
	lsls	r2, r2, r0
	.loc 1 1101 149
	bic	r5, r5, r2
	str	r5, [ip, r4]
	.loc 1 1102 3 is_stmt 1
	.loc 1 1102 5 is_stmt 0
	add	r3, r3, #46137344
	lsls	r3, r3, #5
	ldr	r0, [r3]
	.loc 1 1102 149
	bic	r0, r0, r2
	str	r0, [r3]
	.loc 1 1104 3 is_stmt 1
	.loc 1 1104 5 is_stmt 0
	tst	r1, #1048576
	beq	.L153
	.loc 1 1106 4 is_stmt 1
	.loc 1 1106 6 is_stmt 0
	ldr	r0, [r3]
	.loc 1 1106 150
	orrs	r0, r0, r2
	str	r0, [r3]
.L153:
	.loc 1 1108 3 is_stmt 1
	.loc 1 1108 5 is_stmt 0
	tst	r1, #2097152
	beq	.L152
	.loc 1 1110 4 is_stmt 1
	.loc 1 1110 6 is_stmt 0
	ldr	r3, [ip, r4]
	.loc 1 1110 150
	orrs	r2, r2, r3
	str	r2, [ip, r4]
.L152:
	.loc 1 1112 1
	pop	{r4, r5}
	.cfi_restore 5
	.cfi_restore 4
	.cfi_def_cfa_offset 0
	bx	lr
.L157:
	.align	2
.L156:
	.word	1476395012
	.cfi_endproc
.LFE378:
	.size	HAL_EXTI_EdgeConfig, .-HAL_EXTI_EdgeConfig
	.section	.text.HAL_EXTI_GenerateSWInterrupt,"ax",%progbits
	.align	1
	.global	HAL_EXTI_GenerateSWInterrupt
	.syntax unified
	.thumb
	.thumb_func
	.type	HAL_EXTI_GenerateSWInterrupt, %function
HAL_EXTI_GenerateSWInterrupt:
.LFB379:
	.loc 1 1121 1 is_stmt 1
	.cfi_startproc
	@ args = 0, pretend = 0, frame = 0
	@ frame_needed = 0, uses_anonymous_args = 0
	@ link register save eliminated.
.LVL45:
	.loc 1 1123 3
	.loc 1 1125 3
	.loc 1 1125 5 is_stmt 0
	bic	ip, r0, #31
	ldr	r1, .L159
	ldr	r3, [ip, r1]
	.loc 1 1125 183
	and	r0, r0, #31
.LVL46:
	.loc 1 1125 154
	movs	r2, #1
	lsls	r2, r2, r0
	.loc 1 1125 150
	orrs	r3, r3, r2
	str	r3, [ip, r1]
	.loc 1 1126 1
	bx	lr
.L160:
	.align	2
.L159:
	.word	1476395016
	.cfi_endproc
.LFE379:
	.size	HAL_EXTI_GenerateSWInterrupt, .-HAL_EXTI_GenerateSWInterrupt
	.section	.text.HAL_EXTI_D1_ClearFlag,"ax",%progbits
	.align	1
	.global	HAL_EXTI_D1_ClearFlag
	.syntax unified
	.thumb
	.thumb_func
	.type	HAL_EXTI_D1_ClearFlag, %function
HAL_EXTI_D1_ClearFlag:
.LFB380:
	.loc 1 1136 1 is_stmt 1
	.cfi_startproc
	@ args = 0, pretend = 0, frame = 0
	@ frame_needed = 0, uses_anonymous_args = 0
	@ link register save eliminated.
.LVL47:
	.loc 1 1138 2
	.loc 1 1139 2
	.loc 1 1139 196 is_stmt 0
	and	r2, r0, #31
	.loc 1 1139 145
	lsrs	r0, r0, #5
.LVL48:
	.loc 1 1139 152
	lsls	r0, r0, #4
	.loc 1 1139 167
	movs	r3, #1
	lsls	r3, r3, r2
	.loc 1 1139 164
	ldr	r2, .L162
	str	r3, [r0, r2]
	.loc 1 1141 1
	bx	lr
.L163:
	.align	2
.L162:
	.word	1476395144
	.cfi_endproc
.LFE380:
	.size	HAL_EXTI_D1_ClearFlag, .-HAL_EXTI_D1_ClearFlag
	.section	.text.HAL_EXTI_D1_EventInputConfig,"ax",%progbits
	.align	1
	.global	HAL_EXTI_D1_EventInputConfig
	.syntax unified
	.thumb
	.thumb_func
	.type	HAL_EXTI_D1_EventInputConfig, %function
HAL_EXTI_D1_EventInputConfig:
.LFB381:
	.loc 1 1171 1 is_stmt 1
	.cfi_startproc
	@ args = 0, pretend = 0, frame = 0
	@ frame_needed = 0, uses_anonymous_args = 0
.LVL49:
	push	{r4, lr}
	.cfi_def_cfa_offset 8
	.cfi_offset 4, -8
	.cfi_offset 14, -4
	.loc 1 1173 3
	.loc 1 1174 3
	.loc 1 1176 3
	.loc 1 1176 5 is_stmt 0
	tst	r1, #65536
	beq	.L165
	.loc 1 1178 6 is_stmt 1
	.loc 1 1178 8 is_stmt 0
	cbnz	r2, .L166
	.loc 1 1181 9 is_stmt 1
	.loc 1 1181 11 is_stmt 0
	ldr	r3, .L170
	add	r3, r3, r0, lsr #5
	lsls	r3, r3, #4
	ldr	r4, [r3]
	.loc 1 1181 206
	and	lr, r0, #31
	.loc 1 1181 177
	mov	ip, #1
	lsl	ip, ip, lr
	.loc 1 1181 172
	bic	r4, r4, ip
	str	r4, [r3]
.L165:
	.loc 1 1189 3 is_stmt 1
	.loc 1 1189 5 is_stmt 0
	tst	r1, #131072
	beq	.L164
	.loc 1 1191 5 is_stmt 1
	.loc 1 1191 7 is_stmt 0
	cbnz	r2, .L168
	.loc 1 1194 7 is_stmt 1
	.loc 1 1194 9 is_stmt 0
	lsrs	r3, r0, #5
	lsls	r3, r3, #4
	ldr	r4, .L170+4
	ldr	r2, [r3, r4]
.LVL50:
	.loc 1 1194 204
	and	r0, r0, #31
.LVL51:
	.loc 1 1194 175
	movs	r1, #1
.LVL52:
	lsls	r1, r1, r0
	.loc 1 1194 170
	bic	r2, r2, r1
	str	r2, [r3, r4]
.L164:
	.loc 1 1201 1
	pop	{r4, pc}
.LVL53:
.L166:
	.loc 1 1185 9 is_stmt 1
	.loc 1 1185 11 is_stmt 0
	ldr	r3, .L170
	add	r3, r3, r0, lsr #5
	lsls	r3, r3, #4
	ldr	r4, [r3]
	.loc 1 1185 205
	and	lr, r0, #31
	.loc 1 1185 176
	mov	ip, #1
	lsl	ip, ip, lr
	.loc 1 1185 172
	orr	r4, r4, ip
	str	r4, [r3]
	b	.L165
.L168:
	.loc 1 1198 7 is_stmt 1
	.loc 1 1198 9 is_stmt 0
	lsrs	r3, r0, #5
	lsls	r3, r3, #4
	ldr	r4, .L170+4
	ldr	r2, [r3, r4]
.LVL54:
	.loc 1 1198 203
	and	r0, r0, #31
.LVL55:
	.loc 1 1198 174
	movs	r1, #1
.LVL56:
	lsls	r1, r1, r0
	.loc 1 1198 170
	orrs	r2, r2, r1
	str	r2, [r3, r4]
	.loc 1 1201 1
	b	.L164
.L171:
	.align	2
.L170:
	.word	92274696
	.word	1476395140
	.cfi_endproc
.LFE381:
	.size	HAL_EXTI_D1_EventInputConfig, .-HAL_EXTI_D1_EventInputConfig
	.section	.text.HAL_EXTI_D3_EventInputConfig,"ax",%progbits
	.align	1
	.global	HAL_EXTI_D3_EventInputConfig
	.syntax unified
	.thumb
	.thumb_func
	.type	HAL_EXTI_D3_EventInputConfig, %function
HAL_EXTI_D3_EventInputConfig:
.LFB382:
	.loc 1 1265 1 is_stmt 1
	.cfi_startproc
	@ args = 0, pretend = 0, frame = 0
	@ frame_needed = 0, uses_anonymous_args = 0
.LVL57:
	push	{r4, lr}
	.cfi_def_cfa_offset 8
	.cfi_offset 4, -8
	.cfi_offset 14, -4
	.loc 1 1266 3
	.loc 1 1269 3
	.loc 1 1270 3
	.loc 1 1272 3
	.loc 1 1272 5 is_stmt 0
	cbnz	r1, .L173
	.loc 1 1275 5 is_stmt 1
	.loc 1 1275 7 is_stmt 0
	bic	r3, r0, #31
	ldr	r4, .L178
	ldr	r1, [r3, r4]
.LVL58:
	.loc 1 1275 186
	and	lr, r0, #31
	.loc 1 1275 157
	mov	ip, #1
	lsl	ip, ip, lr
	.loc 1 1275 152
	bic	r1, r1, ip
	str	r1, [r3, r4]
.L174:
	.loc 1 1282 3 is_stmt 1
	.loc 1 1282 5 is_stmt 0
	tst	r0, #16
	bne	.L175
	.loc 1 1284 5 is_stmt 1
	.loc 1 1284 146 is_stmt 0
	bic	r3, r0, #31
	.loc 1 1284 125
	ldr	r1, .L178+4
	add	r1, r1, r3
.LVL59:
.L176:
	.loc 1 1290 3 is_stmt 1
	.loc 1 1290 23 is_stmt 0
	ldr	r3, [r1]
	.loc 1 1290 67
	lsls	r0, r0, #1
.LVL60:
	.loc 1 1290 73
	and	r0, r0, #30
	.loc 1 1290 38
	mov	ip, #3
	lsl	ip, ip, r0
	.loc 1 1290 33
	bic	r3, r3, ip
	.loc 1 1290 115
	lsls	r2, r2, r0
.LVL61:
	.loc 1 1290 87
	orrs	r2, r2, r3
	.loc 1 1290 15
	str	r2, [r1]
	.loc 1 1292 1
	pop	{r4, pc}
.LVL62:
.L173:
	.loc 1 1279 5 is_stmt 1
	.loc 1 1279 7 is_stmt 0
	bic	r3, r0, #31
	ldr	r4, .L178
	ldr	r1, [r3, r4]
.LVL63:
	.loc 1 1279 184
	and	lr, r0, #31
	.loc 1 1279 155
	mov	ip, #1
	lsl	ip, ip, lr
	.loc 1 1279 151
	orr	r1, r1, ip
	str	r1, [r3, r4]
	b	.L174
.L175:
	.loc 1 1288 5 is_stmt 1
	.loc 1 1288 146 is_stmt 0
	bic	r3, r0, #31
	.loc 1 1288 125
	ldr	r1, .L178+8
	add	r1, r1, r3
.LVL64:
	b	.L176
.L179:
	.align	2
.L178:
	.word	1476395020
	.word	1476395024
	.word	1476395028
	.cfi_endproc
.LFE382:
	.size	HAL_EXTI_D3_EventInputConfig, .-HAL_EXTI_D3_EventInputConfig
	.global	uwTickFreq
	.section	.data.uwTickFreq,"aw"
	.type	uwTickFreq, %object
	.size	uwTickFreq, 1
uwTickFreq:
	.byte	1
	.global	uwTickPrio
	.section	.data.uwTickPrio,"aw"
	.align	2
	.type	uwTickPrio, %object
	.size	uwTickPrio, 4
uwTickPrio:
	.word	16
	.global	uwTick
	.section	.bss.uwTick,"aw",%nobits
	.align	2
	.type	uwTick, %object
	.size	uwTick, 4
uwTick:
	.space	4
	.text
.Letext0:
	.file 2 "D:/RTOS/Board/YD-STM32H7xxVx_ClassicV19/cmake-build-debug/_deps/stm32h7xx_cmsis_device-src/Include/stm32h743xx.h"
	.file 3 "m:\\noinstall\\arm-gnu-toolchain-12.2.rel1-mingw-w64-i686-arm-none-eabi\\arm-none-eabi\\include\\machine\\_default_types.h"
	.file 4 "m:\\noinstall\\arm-gnu-toolchain-12.2.rel1-mingw-w64-i686-arm-none-eabi\\arm-none-eabi\\include\\sys\\_stdint.h"
	.file 5 "d:\\rtos\\board\\yd-stm32h7xxvx_classicv19\\cmake-build-debug\\_deps\\stm32h7xx_cmsis_include\\drivers\\cmsis\\include\\core_cm7.h"
	.file 6 "D:/RTOS/Board/YD-STM32H7xxVx_ClassicV19/cmake-build-debug/_deps/stm32h7xx_cmsis_device-src/Include/system_stm32h7xx.h"
	.file 7 "D:/RTOS/Board/YD-STM32H7xxVx_ClassicV19/cmake-build-debug/_deps/stm32h7xx_hal_driver-src/Inc/stm32h7xx_hal_def.h"
	.file 8 "D:/RTOS/Board/YD-STM32H7xxVx_ClassicV19/cmake-build-debug/_deps/stm32h7xx_hal_driver-src/Inc/stm32h7xx_hal.h"
	.file 9 "D:/RTOS/Board/YD-STM32H7xxVx_ClassicV19/cmake-build-debug/_deps/stm32h7xx_hal_driver-src/Inc/stm32h7xx_hal_cortex.h"
	.file 10 "D:/RTOS/Board/YD-STM32H7xxVx_ClassicV19/cmake-build-debug/_deps/stm32h7xx_hal_driver-src/Inc/stm32h7xx_hal_rcc.h"