	.cpu cortex-m7
	.arch armv7e-m
	.fpu fpv5-d16
	.eabi_attribute 28, 1
	.eabi_attribute 20, 1
	.eabi_attribute 21, 1
	.eabi_attribute 23, 3
	.eabi_attribute 24, 1
	.eabi_attribute 25, 1
	.eabi_attribute 26, 1
	.eabi_attribute 30, 1
	.eabi_attribute 34, 1
	.eabi_attribute 18, 4
	.file	"stm32h7xx_hal_mdma.c"
	.text
.Ltext0:
	.cfi_sections	.debug_frame
	.file 1 "D:/RTOS/Board/YD-STM32H7xxVx_ClassicV19/cmake-build-debug/_deps/stm32h7xx_hal_driver-src/Src/stm32h7xx_hal_mdma.c"
	.section	.text.MDMA_SetConfig,"ax",%progbits
	.align	1
	.syntax unified
	.thumb
	.thumb_func
	.type	MDMA_SetConfig, %function
MDMA_SetConfig:
.LFB354:
	.loc 1 1761 1
	.cfi_startproc
	@ args = 4, pretend = 0, frame = 0
	@ frame_needed = 0, uses_anonymous_args = 0
	@ link register save eliminated.
.LVL0:
	push	{r4, r5, r6}
	.cfi_def_cfa_offset 12
	.cfi_offset 4, -12
	.cfi_offset 5, -8
	.cfi_offset 6, -4
	.loc 1 1762 3
	.loc 1 1765 3
	.loc 1 1765 45 is_stmt 0
	ldr	r5, [r0]
	.loc 1 1765 55
	ldr	r6, [r5, #20]
	.loc 1 1765 67
	ldr	r4, .L7
	ands	r4, r4, r6
	.loc 1 1765 115
	ubfx	r3, r3, #0, #17
.LVL1:
	.loc 1 1765 95
	orrs	r4, r4, r3
	.loc 1 1765 32
	str	r4, [r5, #20]
	.loc 1 1768 3 is_stmt 1
	.loc 1 1768 45 is_stmt 0
	ldr	r5, [r0]
	.loc 1 1768 55
	ldr	r3, [r5, #20]
	.loc 1 1768 67
	ubfx	r3, r3, #0, #20
	.loc 1 1768 110
	ldr	r4, [sp, #12]
	subs	r4, r4, #1
	.loc 1 1768 94
	orr	r3, r3, r4, lsl #20
	.loc 1 1768 32
	str	r3, [r5, #20]
	.loc 1 1771 3 is_stmt 1
	.loc 1 1771 11 is_stmt 0
	ldr	r3, [r0]
	.loc 1 1771 29
	movs	r4, #31
	str	r4, [r3, #4]
	.loc 1 1774 3 is_stmt 1
	.loc 1 1774 8 is_stmt 0
	ldr	r3, [r0]
	.loc 1 1774 25
	str	r2, [r3, #28]
	.loc 1 1777 3 is_stmt 1
	.loc 1 1777 8 is_stmt 0
	ldr	r3, [r0]
	.loc 1 1777 25
	str	r1, [r3, #24]
	.loc 1 1779 3 is_stmt 1
	.loc 1 1779 15 is_stmt 0
	and	r1, r1, #-16777216
.LVL2:
	.loc 1 1780 3 is_stmt 1
	.loc 1 1780 5 is_stmt 0
	cmp	r1, #0
	it	ne
	cmpne	r1, #536870912
	bne	.L2
	.loc 1 1783 5 is_stmt 1
	.loc 1 1783 10 is_stmt 0
	ldr	r1, [r0]
.LVL3:
	.loc 1 1783 20
	ldr	r3, [r1, #40]
.LVL4:
	.loc 1 1783 27
	orr	r3, r3, #65536
	str	r3, [r1, #40]
.L3:
	.loc 1 1791 3 is_stmt 1
	.loc 1 1791 15 is_stmt 0
	and	r2, r2, #-16777216
.LVL5:
	.loc 1 1792 3 is_stmt 1
	.loc 1 1792 5 is_stmt 0
	cmp	r2, #0
	it	ne
	cmpne	r2, #536870912
	bne	.L4
	.loc 1 1795 5 is_stmt 1
	.loc 1 1795 10 is_stmt 0
	ldr	r2, [r0]
.LVL6:
	.loc 1 1795 20
	ldr	r3, [r2, #40]
	.loc 1 1795 27
	orr	r3, r3, #131072
	str	r3, [r2, #40]
.L5:
	.loc 1 1804 3 is_stmt 1
	.loc 1 1804 42 is_stmt 0
	ldr	r2, [r0, #92]
	.loc 1 1804 8
	ldr	r3, [r0]
	.loc 1 1804 25
	str	r2, [r3, #36]
	.loc 1 1805 1
	pop	{r4, r5, r6}
	.cfi_remember_state
	.cfi_restore 6
	.cfi_restore 5
	.cfi_restore 4
	.cfi_def_cfa_offset 0
.LVL7:
	bx	lr
.LVL8:
.L2:
	.cfi_restore_state
	.loc 1 1788 5 is_stmt 1
	.loc 1 1788 10 is_stmt 0
	ldr	r1, [r0]
.LVL9:
	.loc 1 1788 20
	ldr	r3, [r1, #40]
.LVL10:
	.loc 1 1788 27
	bic	r3, r3, #65536
	str	r3, [r1, #40]
	b	.L3
.LVL11:
.L4:
	.loc 1 1800 5 is_stmt 1
	.loc 1 1800 10 is_stmt 0
	ldr	r2, [r0]
.LVL12:
	.loc 1 1800 20
	ldr	r3, [r2, #40]
	.loc 1 1800 27
	bic	r3, r3, #131072
	str	r3, [r2, #40]
	b	.L5
.L8:
	.align	2
.L7:
	.word	-131072
	.cfi_endproc
.LFE354:
	.size	MDMA_SetConfig, .-MDMA_SetConfig
	.section	.text.MDMA_Init,"ax",%progbits
	.align	1
	.syntax unified
	.thumb
	.thumb_func
	.type	MDMA_Init, %function
MDMA_Init:
.LFB355:
	.loc 1 1815 1 is_stmt 1
	.cfi_startproc
	@ args = 0, pretend = 0, frame = 0
	@ frame_needed = 0, uses_anonymous_args = 0
	@ link register save eliminated.
.LVL13:
	.loc 1 1816 3
	.loc 1 1819 3
	.loc 1 1819 37 is_stmt 0
	ldr	r3, [r0, #12]
	.loc 1 1819 60
	ldr	r1, [r0, #16]
	.loc 1 1819 8
	ldr	r2, [r0]
	.loc 1 1819 47
	orrs	r3, r3, r1
	.loc 1 1819 24
	str	r3, [r2, #12]
	.loc 1 1822 3 is_stmt 1
	.loc 1 1822 38 is_stmt 0
	ldr	r3, [r0, #20]
	.loc 1 1822 62
	ldr	r2, [r0, #24]
	.loc 1 1822 49
	orrs	r3, r3, r2
	.loc 1 1823 39
	ldr	r2, [r0, #28]
	.loc 1 1822 78
	orrs	r3, r3, r2
	.loc 1 1823 68
	ldr	r2, [r0, #32]
	.loc 1 1823 55
	orrs	r3, r3, r2
	.loc 1 1824 39
	ldr	r2, [r0, #36]
	.loc 1 1823 82
	orrs	r3, r3, r2
	.loc 1 1824 67
	ldr	r2, [r0, #44]
	.loc 1 1824 54
	orrs	r3, r3, r2
	.loc 1 1825 39
	ldr	r2, [r0, #48]
	.loc 1 1824 80
	orrs	r3, r3, r2
	.loc 1 1826 41
	ldr	r2, [r0, #40]
	.loc 1 1826 63
	subs	r2, r2, #1
	.loc 1 1825 50
	orr	r3, r3, r2, lsl #18
	.loc 1 1827 39
	ldr	r1, [r0, #8]
	.loc 1 1822 8
	ldr	r2, [r0]
	.loc 1 1826 79
	orrs	r3, r3, r1
	.loc 1 1822 25
	str	r3, [r2, #16]
	.loc 1 1830 3 is_stmt 1
	.loc 1 1830 17 is_stmt 0
	ldr	r3, [r0, #4]
	.loc 1 1830 5
	cmp	r3, #1073741824
	beq	.L17
.L10:
	.loc 1 1842 3 is_stmt 1
	.loc 1 1842 8 is_stmt 0
	ldr	r3, [r0]
	.loc 1 1842 27
	movs	r2, #0
	str	r2, [r3, #20]
	.loc 1 1845 3 is_stmt 1
	.loc 1 1845 17 is_stmt 0
	ldr	r3, [r0, #52]
	.loc 1 1845 5
	cmp	r3, r2
	blt	.L18
	.loc 1 1855 5 is_stmt 1
	.loc 1 1855 10 is_stmt 0
	ldr	r2, [r0]
	.loc 1 1855 80
	uxth	r3, r3
	.loc 1 1855 28
	str	r3, [r2, #32]
.L12:
	.loc 1 1859 3 is_stmt 1
	.loc 1 1859 17 is_stmt 0
	ldr	r3, [r0, #56]
	.loc 1 1859 5
	cmp	r3, #0
	blt	.L19
	.loc 1 1869 5 is_stmt 1
	.loc 1 1869 10 is_stmt 0
	ldr	r1, [r0]
	.loc 1 1869 20
	ldr	r2, [r1, #32]
	.loc 1 1869 28
	orr	r3, r2, r3, lsl #16
	str	r3, [r1, #32]
.L14:
	.loc 1 1873 3 is_stmt 1
	.loc 1 1873 17 is_stmt 0
	ldr	r3, [r0, #4]
	.loc 1 1873 5
	cmp	r3, #1073741824
	beq	.L15
	.loc 1 1876 5 is_stmt 1
	.loc 1 1876 10 is_stmt 0
	ldr	r2, [r0]
	.loc 1 1876 49
	uxtb	r3, r3
	.loc 1 1876 27
	str	r3, [r2, #40]
.L16:
	.loc 1 1884 3 is_stmt 1
	.loc 1 1884 8 is_stmt 0
	ldr	r3, [r0]
	.loc 1 1884 25
	movs	r2, #0
	str	r2, [r3, #36]
	.loc 1 1885 1
	bx	lr
.L17:
	.loc 1 1838 5 is_stmt 1
	.loc 1 1838 10 is_stmt 0
	ldr	r2, [r0]
	.loc 1 1838 20
	ldr	r3, [r2, #16]
	.loc 1 1838 27
	orr	r3, r3, #-1073741824
	str	r3, [r2, #16]
	b	.L10
.L18:
	.loc 1 1847 5 is_stmt 1
	.loc 1 1847 10 is_stmt 0
	ldr	r2, [r0]
	.loc 1 1847 20
	ldr	r3, [r2, #20]
	.loc 1 1847 29
	orr	r3, r3, #262144
	str	r3, [r2, #20]
	.loc 1 1849 5 is_stmt 1
	.loc 1 1849 43 is_stmt 0
	ldr	r3, [r0, #52]
	.loc 1 1849 30
	rsbs	r3, r3, #0
.LVL14:
	.loc 1 1850 5 is_stmt 1
	.loc 1 1850 10 is_stmt 0
	ldr	r2, [r0]
	.loc 1 1850 43
	uxth	r3, r3
.LVL15:
	.loc 1 1850 28
	str	r3, [r2, #32]
.LVL16:
	b	.L12
.LVL17:
.L19:
	.loc 1 1861 5 is_stmt 1
	.loc 1 1861 10 is_stmt 0
	ldr	r2, [r0]
	.loc 1 1861 20
	ldr	r3, [r2, #20]
	.loc 1 1861 29
	orr	r3, r3, #524288
	str	r3, [r2, #20]
	.loc 1 1863 5 is_stmt 1
	.loc 1 1863 43 is_stmt 0
	ldr	r3, [r0, #56]
	.loc 1 1863 30
	rsbs	r2, r3, #0
.LVL18:
	.loc 1 1864 5 is_stmt 1
	.loc 1 1864 10 is_stmt 0
	ldr	r1, [r0]
	.loc 1 1864 20
	ldr	r3, [r1, #32]
	.loc 1 1864 28
	orr	r3, r3, r2, lsl #16
	str	r3, [r1, #32]
	b	.L14
.LVL19:
.L15:
	.loc 1 1880 5 is_stmt 1
	.loc 1 1880 10 is_stmt 0
	ldr	r3, [r0]
	.loc 1 1880 27
	movs	r2, #0
	str	r2, [r3, #40]
	b	.L16
	.cfi_endproc
.LFE355:
	.size	MDMA_Init, .-MDMA_Init
	.section	.text.HAL_MDMA_Init,"ax",%progbits
	.align	1
	.global	HAL_MDMA_Init
	.syntax unified
	.thumb
	.thumb_func
	.type	HAL_MDMA_Init, %function
HAL_MDMA_Init:
.LFB335:
	.loc 1 219 1 is_stmt 1
	.cfi_startproc
	@ args = 0, pretend = 0, frame = 0
	@ frame_needed = 0, uses_anonymous_args = 0
.LVL20:
	push	{r3, r4, r5, lr}
	.cfi_def_cfa_offset 16
	.cfi_offset 3, -16
	.cfi_offset 4, -12
	.cfi_offset 5, -8
	.cfi_offset 14, -4
	mov	r4, r0
	.loc 1 220 3
	.loc 1 220 24 is_stmt 0
	bl	HAL_GetTick
.LVL21:
	.loc 1 223 3 is_stmt 1
	.loc 1 223 5 is_stmt 0
	cbz	r4, .L24
	mov	r5, r0
	.loc 1 229 3 is_stmt 1
	.loc 1 230 3
	.loc 1 231 3
	.loc 1 232 3
	.loc 1 233 3
	.loc 1 234 3
	.loc 1 235 3
	.loc 1 236 3
	.loc 1 237 3
	.loc 1 238 3
	.loc 1 239 3
	.loc 1 240 3
	.loc 1 241 3
	.loc 1 242 3
	.loc 1 243 3
	.loc 1 247 3
	.loc 1 247 7
	.loc 1 247 21 is_stmt 0
	movs	r3, #0
	strb	r3, [r4, #60]
	.loc 1 247 5 is_stmt 1
	.loc 1 250 3
	.loc 1 250 16 is_stmt 0
	movs	r3, #2
	strb	r3, [r4, #61]
	.loc 1 253 3 is_stmt 1
	.loc 1 253 11 is_stmt 0
	ldr	r2, [r4]
	.loc 1 253 21
	ldr	r3, [r2, #12]
	.loc 1 253 27
	bic	r3, r3, #1
	str	r3, [r2, #12]
	.loc 1 256 3 is_stmt 1
.LVL22:
.L22:
	.loc 1 256 50
	.loc 1 256 15 is_stmt 0
	ldr	r3, [r4]
	.loc 1 256 25
	ldr	r3, [r3, #12]
	.loc 1 256 50
	tst	r3, #1
	beq	.L26
	.loc 1 259 5 is_stmt 1
	.loc 1 259 9 is_stmt 0
	bl	HAL_GetTick
.LVL23:
	.loc 1 259 23
	subs	r3, r0, r5
	.loc 1 259 7
	cmp	r3, #5
	bls	.L22
	.loc 1 262 7 is_stmt 1
	.loc 1 262 24 is_stmt 0
	movs	r3, #64
	str	r3, [r4, #104]
	.loc 1 265 7 is_stmt 1
	.loc 1 265 20 is_stmt 0
	movs	r3, #3
	strb	r3, [r4, #61]
	.loc 1 267 7 is_stmt 1
	.loc 1 267 14 is_stmt 0
	movs	r0, #1
	b	.L21
.L26:
	.loc 1 272 3 is_stmt 1
	mov	r0, r4
	bl	MDMA_Init
.LVL24:
	.loc 1 275 3
	.loc 1 275 37 is_stmt 0
	movs	r0, #0
	str	r0, [r4, #92]
	.loc 1 276 3 is_stmt 1
	.loc 1 276 36 is_stmt 0
	str	r0, [r4, #96]
	.loc 1 277 3 is_stmt 1
	.loc 1 277 32 is_stmt 0
	str	r0, [r4, #100]
	.loc 1 280 3 is_stmt 1
	.loc 1 280 20 is_stmt 0
	str	r0, [r4, #104]
	.loc 1 283 3 is_stmt 1
	.loc 1 283 16 is_stmt 0
	movs	r3, #1
	strb	r3, [r4, #61]
	.loc 1 285 3 is_stmt 1
.LVL25:
.L21:
	.loc 1 286 1 is_stmt 0
	pop	{r3, r4, r5, pc}
.LVL26:
.L24:
	.loc 1 225 12
	movs	r0, #1
.LVL27:
	b	.L21
	.cfi_endproc
.LFE335:
	.size	HAL_MDMA_Init, .-HAL_MDMA_Init
	.section	.text.HAL_MDMA_DeInit,"ax",%progbits
	.align	1
	.global	HAL_MDMA_DeInit
	.syntax unified
	.thumb
	.thumb_func
	.type	HAL_MDMA_DeInit, %function
HAL_MDMA_DeInit:
.LFB336:
	.loc 1 295 1 is_stmt 1
	.cfi_startproc
	@ args = 0, pretend = 0, frame = 0
	@ frame_needed = 0, uses_anonymous_args = 0
	@ link register save eliminated.
.LVL28:
	.loc 1 298 3
	.loc 1 298 5 is_stmt 0
	mov	r3, r0
	cmp	r0, #0
	beq	.L29
	.loc 1 304 3 is_stmt 1
	.loc 1 304 11 is_stmt 0
	ldr	r1, [r0]
	.loc 1 304 21
	ldr	r2, [r1, #12]
	.loc 1 304 27
	bic	r2, r2, #1
	str	r2, [r1, #12]
	.loc 1 307 3 is_stmt 1
	.loc 1 307 8 is_stmt 0
	ldr	r2, [r0]
	.loc 1 307 24
	movs	r0, #0
.LVL29:
	str	r0, [r2, #12]
	.loc 1 308 3 is_stmt 1
	.loc 1 308 8 is_stmt 0
	ldr	r2, [r3]
	.loc 1 308 25
	str	r0, [r2, #16]
	.loc 1 309 3 is_stmt 1
	.loc 1 309 8 is_stmt 0
	ldr	r2, [r3]
	.loc 1 309 27
	str	r0, [r2, #20]
	.loc 1 310 3 is_stmt 1
	.loc 1 310 8 is_stmt 0
	ldr	r2, [r3]
	.loc 1 310 25
	str	r0, [r2, #24]
	.loc 1 311 3 is_stmt 1
	.loc 1 311 8 is_stmt 0
	ldr	r2, [r3]
	.loc 1 311 25
	str	r0, [r2, #28]
	.loc 1 312 3 is_stmt 1
	.loc 1 312 8 is_stmt 0
	ldr	r2, [r3]
	.loc 1 312 26
	str	r0, [r2, #32]
	.loc 1 313 3 is_stmt 1
	.loc 1 313 8 is_stmt 0
	ldr	r2, [r3]
	.loc 1 313 25
	str	r0, [r2, #36]
	.loc 1 314 3 is_stmt 1
	.loc 1 314 8 is_stmt 0
	ldr	r2, [r3]
	.loc 1 314 25
	str	r0, [r2, #40]
	.loc 1 315 3 is_stmt 1
	.loc 1 315 8 is_stmt 0
	ldr	r2, [r3]
	.loc 1 315 25
	str	r0, [r2, #48]
	.loc 1 316 3 is_stmt 1
	.loc 1 316 8 is_stmt 0
	ldr	r2, [r3]
	.loc 1 316 25
	str	r0, [r2, #52]
	.loc 1 319 3 is_stmt 1
	.loc 1 319 11 is_stmt 0
	ldr	r2, [r3]
	.loc 1 319 29
	movs	r1, #31
	str	r1, [r2, #4]
	.loc 1 322 3 is_stmt 1
	.loc 1 322 37 is_stmt 0
	str	r0, [r3, #92]
	.loc 1 323 3 is_stmt 1
	.loc 1 323 36 is_stmt 0
	str	r0, [r3, #96]
	.loc 1 324 3 is_stmt 1
	.loc 1 324 32 is_stmt 0
	str	r0, [r3, #100]
	.loc 1 327 3 is_stmt 1
	.loc 1 327 20 is_stmt 0
	str	r0, [r3, #104]
	.loc 1 330 3 is_stmt 1
	.loc 1 330 16 is_stmt 0
	strb	r0, [r3, #61]
	.loc 1 333 3 is_stmt 1
	.loc 1 333 7
	.loc 1 333 21 is_stmt 0
	strb	r0, [r3, #60]
	.loc 1 333 5 is_stmt 1
	.loc 1 335 3
	.loc 1 335 10 is_stmt 0
	bx	lr
.LVL30:
.L29:
	.loc 1 300 12
	movs	r0, #1
.LVL31:
	.loc 1 336 1
	bx	lr
	.cfi_endproc
.LFE336:
	.size	HAL_MDMA_DeInit, .-HAL_MDMA_DeInit
	.section	.text.HAL_MDMA_ConfigPostRequestMask,"ax",%progbits
	.align	1
	.global	HAL_MDMA_ConfigPostRequestMask
	.syntax unified
	.thumb
	.thumb_func
	.type	HAL_MDMA_ConfigPostRequestMask, %function
HAL_MDMA_ConfigPostRequestMask:
.LFB337:
	.loc 1 348 1 is_stmt 1
	.cfi_startproc
	@ args = 0, pretend = 0, frame = 0
	@ frame_needed = 0, uses_anonymous_args = 0
	@ link register save eliminated.
.LVL32:
	.loc 1 349 3
	.loc 1 352 3
	.loc 1 352 5 is_stmt 0
	cbz	r0, .L34
	mov	r3, r0
	.loc 1 358 3 is_stmt 1
	.loc 1 358 7
	.loc 1 358 17 is_stmt 0
	ldrb	r0, [r0, #60]	@ zero_extendqisi2
.LVL33:
	.loc 1 358 9
	cmp	r0, #1
	beq	.L35
	.loc 1 358 67 is_stmt 1 discriminator 2
	.loc 1 358 81 is_stmt 0 discriminator 2
	movs	r0, #1
	strb	r0, [r3, #60]
	.loc 1 358 5 is_stmt 1 discriminator 2
	.loc 1 360 3 discriminator 2
	.loc 1 360 35 is_stmt 0 discriminator 2
	ldrb	r0, [r3, #61]	@ zero_extendqisi2
	uxtb	r0, r0
	.loc 1 360 5 discriminator 2
	cmp	r0, #1
	beq	.L42
	.loc 1 393 12
	movs	r0, #1
.LVL34:
	.loc 1 396 3 is_stmt 1
	.loc 1 396 7
	.loc 1 396 21 is_stmt 0
	movs	r2, #0
.LVL35:
	strb	r2, [r3, #60]
	.loc 1 396 5 is_stmt 1
	.loc 1 398 3
	.loc 1 399 1 is_stmt 0
	bx	lr
.LVL36:
.L42:
	.loc 1 348 1
	push	{r4, r5}
	.cfi_def_cfa_offset 8
	.cfi_offset 4, -8
	.cfi_offset 5, -4
	.loc 1 363 5 is_stmt 1
	.loc 1 363 14 is_stmt 0
	ldr	r4, [r3]
	.loc 1 363 24
	ldr	r5, [r4, #16]
	.loc 1 363 7
	tst	r5, #1073741824
	bne	.L32
	.loc 1 366 7 is_stmt 1
	.loc 1 366 29 is_stmt 0
	str	r1, [r4, #48]
	.loc 1 367 7 is_stmt 1
	.loc 1 367 12 is_stmt 0
	ldr	r0, [r3]
	.loc 1 367 29
	str	r2, [r0, #52]
	.loc 1 375 7 is_stmt 1
	.loc 1 375 9 is_stmt 0
	cbnz	r1, .L33
	.loc 1 377 9 is_stmt 1
	.loc 1 377 14 is_stmt 0
	ldr	r1, [r3]
.LVL37:
	.loc 1 377 24
	ldr	r2, [r1, #16]
.LVL38:
	.loc 1 377 31
	bic	r2, r2, #-2147483648
	str	r2, [r1, #16]
.LVL39:
	.loc 1 349 21
	movs	r0, #0
.L32:
.LVL40:
	.loc 1 396 3 is_stmt 1
	.loc 1 396 7
	.loc 1 396 21 is_stmt 0
	movs	r2, #0
	strb	r2, [r3, #60]
	.loc 1 396 5 is_stmt 1
	.loc 1 398 3
	.loc 1 399 1 is_stmt 0
	pop	{r4, r5}
	.cfi_remember_state
	.cfi_restore 5
	.cfi_restore 4
	.cfi_def_cfa_offset 0
	bx	lr
.LVL41:
.L33:
	.cfi_restore_state
	.loc 1 381 9 is_stmt 1
	.loc 1 381 14 is_stmt 0
	ldr	r1, [r3]
.LVL42:
	.loc 1 381 24
	ldr	r2, [r1, #16]
.LVL43:
	.loc 1 381 31
	orr	r2, r2, #-2147483648
	str	r2, [r1, #16]
.LVL44:
	.loc 1 349 21
	movs	r0, #0
	b	.L32
.LVL45:
.L34:
	.cfi_def_cfa_offset 0
	.cfi_restore 4
	.cfi_restore 5
	.loc 1 354 12
	movs	r0, #1
.LVL46:
	bx	lr
.LVL47:
.L35:
	.loc 1 358 48
	movs	r0, #2
	bx	lr
	.cfi_endproc
.LFE337:
	.size	HAL_MDMA_ConfigPostRequestMask, .-HAL_MDMA_ConfigPostRequestMask
	.section	.text.HAL_MDMA_RegisterCallback,"ax",%progbits
	.align	1
	.global	HAL_MDMA_RegisterCallback
	.syntax unified
	.thumb
	.thumb_func
	.type	HAL_MDMA_RegisterCallback, %function
HAL_MDMA_RegisterCallback:
.LFB338:
	.loc 1 410 1 is_stmt 1
	.cfi_startproc
	@ args = 0, pretend = 0, frame = 0
	@ frame_needed = 0, uses_anonymous_args = 0
	@ link register save eliminated.
.LVL48:
	.loc 1 411 3
	.loc 1 414 3
	.loc 1 414 5 is_stmt 0
	mov	r3, r0
	cbz	r0, .L53
	.loc 1 420 3 is_stmt 1
	.loc 1 420 7
	.loc 1 420 17 is_stmt 0
	ldrb	r0, [r0, #60]	@ zero_extendqisi2
.LVL49:
	.loc 1 420 9
	cmp	r0, #1
	beq	.L54
	.loc 1 420 67 is_stmt 1 discriminator 2
	.loc 1 420 81 is_stmt 0 discriminator 2
	movs	r0, #1
	strb	r0, [r3, #60]
	.loc 1 420 5 is_stmt 1 discriminator 2
	.loc 1 422 3 discriminator 2
	.loc 1 422 35 is_stmt 0 discriminator 2
	ldrb	r0, [r3, #61]	@ zero_extendqisi2
	uxtb	r0, r0
	.loc 1 422 5 discriminator 2
	cmp	r0, #1
	beq	.L57
	.loc 1 457 12
	movs	r0, #1
.L45:
.LVL50:
	.loc 1 461 3 is_stmt 1
	.loc 1 461 7
	.loc 1 461 21 is_stmt 0
	movs	r2, #0
.LVL51:
	strb	r2, [r3, #60]
	.loc 1 461 5 is_stmt 1
	.loc 1 463 3
	.loc 1 463 10 is_stmt 0
	bx	lr
.LVL52:
.L57:
	.loc 1 424 5 is_stmt 1
	cmp	r1, #5
	bhi	.L56
	tbb	[pc, r1]
.L47:
	.byte	(.L52-.L47)/2
	.byte	(.L51-.L47)/2
	.byte	(.L50-.L47)/2
	.byte	(.L49-.L47)/2
	.byte	(.L48-.L47)/2
	.byte	(.L46-.L47)/2
	.p2align 1
.L52:
	.loc 1 427 7
	.loc 1 427 31 is_stmt 0
	str	r2, [r3, #68]
	.loc 1 428 7 is_stmt 1
	.loc 1 411 21 is_stmt 0
	mov	r0, r1
	.loc 1 428 7
	b	.L45
.L51:
	.loc 1 431 7 is_stmt 1
	.loc 1 431 37 is_stmt 0
	str	r2, [r3, #72]
	.loc 1 432 7 is_stmt 1
	.loc 1 411 21 is_stmt 0
	movs	r0, #0
	.loc 1 432 7
	b	.L45
.L50:
	.loc 1 435 7 is_stmt 1
	.loc 1 435 36 is_stmt 0
	str	r2, [r3, #76]
	.loc 1 436 7 is_stmt 1
	.loc 1 411 21 is_stmt 0
	movs	r0, #0
	.loc 1 436 7
	b	.L45
.L49:
	.loc 1 439 7 is_stmt 1
	.loc 1 439 42 is_stmt 0
	str	r2, [r3, #80]
	.loc 1 440 7 is_stmt 1
	.loc 1 411 21 is_stmt 0
	movs	r0, #0
	.loc 1 440 7
	b	.L45
.L48:
	.loc 1 443 7 is_stmt 1
	.loc 1 443 32 is_stmt 0
	str	r2, [r3, #84]
	.loc 1 444 7 is_stmt 1
	.loc 1 411 21 is_stmt 0
	movs	r0, #0
	.loc 1 444 7
	b	.L45
.L46:
	.loc 1 447 7 is_stmt 1
	.loc 1 447 32 is_stmt 0
	str	r2, [r3, #88]
	.loc 1 448 7 is_stmt 1
	.loc 1 411 21 is_stmt 0
	movs	r0, #0
	.loc 1 448 7
	b	.L45
.L56:
	.loc 1 424 5
	movs	r0, #0
	b	.L45
.LVL53:
.L53:
	.loc 1 416 12
	movs	r0, #1
.LVL54:
	bx	lr
.L54:
	.loc 1 420 48
	movs	r0, #2
	.loc 1 464 1
	bx	lr
	.cfi_endproc
.LFE338:
	.size	HAL_MDMA_RegisterCallback, .-HAL_MDMA_RegisterCallback
	.section	.text.HAL_MDMA_UnRegisterCallback,"ax",%progbits
	.align	1
	.global	HAL_MDMA_UnRegisterCallback
	.syntax unified
	.thumb
	.thumb_func
	.type	HAL_MDMA_UnRegisterCallback, %function
HAL_MDMA_UnRegisterCallback:
.LFB339:
	.loc 1 475 1 is_stmt 1
	.cfi_startproc
	@ args = 0, pretend = 0, frame = 0
	@ frame_needed = 0, uses_anonymous_args = 0
	@ link register save eliminated.
.LVL55:
	.loc 1 476 3
	.loc 1 479 3
	.loc 1 479 5 is_stmt 0
	mov	r3, r0
	cmp	r0, #0
	beq	.L69
	.loc 1 485 3 is_stmt 1
	.loc 1 485 7
	.loc 1 485 17 is_stmt 0
	ldrb	r2, [r0, #60]	@ zero_extendqisi2
	.loc 1 485 9
	cmp	r2, #1
	beq	.L70
	.loc 1 485 67 is_stmt 1 discriminator 2
	.loc 1 485 81 is_stmt 0 discriminator 2
	movs	r2, #1
	strb	r2, [r0, #60]
	.loc 1 485 5 is_stmt 1 discriminator 2
	.loc 1 487 3 discriminator 2
	.loc 1 487 35 is_stmt 0 discriminator 2
	ldrb	r0, [r0, #61]	@ zero_extendqisi2
.LVL56:
	uxtb	r0, r0
	.loc 1 487 5 discriminator 2
	cmp	r0, r2
	beq	.L73
	.loc 1 531 12
	movs	r0, #1
.L60:
.LVL57:
	.loc 1 535 3 is_stmt 1
	.loc 1 535 7
	.loc 1 535 21 is_stmt 0
	movs	r2, #0
	strb	r2, [r3, #60]
	.loc 1 535 5 is_stmt 1
	.loc 1 537 3
	.loc 1 537 10 is_stmt 0
	bx	lr
.LVL58:
.L73:
	.loc 1 489 5 is_stmt 1
	cmp	r1, #6
	bhi	.L60
	tbb	[pc, r1]
.L62:
	.byte	(.L68-.L62)/2
	.byte	(.L67-.L62)/2
	.byte	(.L66-.L62)/2
	.byte	(.L65-.L62)/2
	.byte	(.L64-.L62)/2
	.byte	(.L63-.L62)/2
	.byte	(.L61-.L62)/2
	.p2align 1
.L68:
	.loc 1 492 7
	.loc 1 492 31 is_stmt 0
	movs	r2, #0
	str	r2, [r3, #68]
	.loc 1 493 7 is_stmt 1
	.loc 1 476 21 is_stmt 0
	mov	r0, r1
	.loc 1 493 7
	b	.L60
.L67:
	.loc 1 496 7 is_stmt 1
	.loc 1 496 37 is_stmt 0
	movs	r0, #0
	str	r0, [r3, #72]
	.loc 1 497 7 is_stmt 1
	b	.L60
.L66:
	.loc 1 500 7
	.loc 1 500 36 is_stmt 0
	movs	r0, #0
	str	r0, [r3, #76]
	.loc 1 501 7 is_stmt 1
	b	.L60
.L65:
	.loc 1 504 7
	.loc 1 504 42 is_stmt 0
	movs	r0, #0
	str	r0, [r3, #80]
	.loc 1 505 7 is_stmt 1
	b	.L60
.L64:
	.loc 1 508 7
	.loc 1 508 32 is_stmt 0
	movs	r0, #0
	str	r0, [r3, #84]
	.loc 1 509 7 is_stmt 1
	b	.L60
.L63:
	.loc 1 512 7
	.loc 1 512 32 is_stmt 0
	movs	r0, #0
	str	r0, [r3, #88]
	.loc 1 513 7 is_stmt 1
	b	.L60
.L61:
	.loc 1 516 7
	.loc 1 516 31 is_stmt 0
	movs	r0, #0
	str	r0, [r3, #68]
	.loc 1 517 7 is_stmt 1
	.loc 1 517 37 is_stmt 0
	str	r0, [r3, #72]
	.loc 1 518 7 is_stmt 1
	.loc 1 518 36 is_stmt 0
	str	r0, [r3, #76]
	.loc 1 519 7 is_stmt 1
	.loc 1 519 42 is_stmt 0
	str	r0, [r3, #80]
	.loc 1 520 7 is_stmt 1
	.loc 1 520 32 is_stmt 0
	str	r0, [r3, #84]
	.loc 1 521 7 is_stmt 1
	.loc 1 521 32 is_stmt 0
	str	r0, [r3, #88]
	.loc 1 522 7 is_stmt 1
	b	.L60
.LVL59:
.L69:
	.loc 1 481 12 is_stmt 0
	movs	r0, #1
.LVL60:
	bx	lr
.LVL61:
.L70:
	.loc 1 485 48
	movs	r0, #2
.LVL62:
	.loc 1 538 1
	bx	lr
	.cfi_endproc
.LFE339:
	.size	HAL_MDMA_UnRegisterCallback, .-HAL_MDMA_UnRegisterCallback
	.section	.text.HAL_MDMA_LinkedList_CreateNode,"ax",%progbits
	.align	1
	.global	HAL_MDMA_LinkedList_CreateNode
	.syntax unified
	.thumb
	.thumb_func
	.type	HAL_MDMA_LinkedList_CreateNode, %function
HAL_MDMA_LinkedList_CreateNode:
.LFB340:
	.loc 1 569 1 is_stmt 1
	.cfi_startproc
	@ args = 0, pretend = 0, frame = 0
	@ frame_needed = 0, uses_anonymous_args = 0
	@ link register save eliminated.
.LVL63:
	.loc 1 570 3
	.loc 1 571 3
	.loc 1 574 3
	.loc 1 574 13 is_stmt 0
	mov	r2, r0
	.loc 1 574 37
	mov	r3, r1
	.loc 1 574 5
	cmp	r1, #0
	it	ne
	cmpne	r0, #0
	beq	.L85
	.loc 1 580 3 is_stmt 1
	.loc 1 581 3
	.loc 1 582 3
	.loc 1 583 3
	.loc 1 584 3
	.loc 1 585 3
	.loc 1 586 3
	.loc 1 587 3
	.loc 1 588 3
	.loc 1 589 3
	.loc 1 590 3
	.loc 1 591 3
	.loc 1 592 3
	.loc 1 593 3
	.loc 1 595 3
	.loc 1 596 3
	.loc 1 600 3
	.loc 1 600 15 is_stmt 0
	movs	r1, #0
.LVL64:
	str	r1, [r0, #20]
	.loc 1 603 3 is_stmt 1
	.loc 1 603 15 is_stmt 0
	str	r1, [r0, #24]
	.loc 1 604 3 is_stmt 1
	.loc 1 604 15 is_stmt 0
	str	r1, [r0, #32]
	.loc 1 605 3 is_stmt 1
	.loc 1 605 15 is_stmt 0
	str	r1, [r0, #36]
	.loc 1 606 3 is_stmt 1
	.loc 1 606 19 is_stmt 0
	str	r1, [r0, #28]
	.loc 1 609 3 is_stmt 1
	.loc 1 609 34 is_stmt 0
	ldr	r1, [r3, #16]
	.loc 1 609 64
	ldr	r0, [r3, #20]
.LVL65:
	.loc 1 609 45
	orrs	r1, r1, r0
	.loc 1 610 22
	ldr	r0, [r3, #24]
	.loc 1 609 80
	orrs	r1, r1, r0
	.loc 1 610 57
	ldr	r0, [r3, #28]
	.loc 1 610 38
	orrs	r1, r1, r0
	.loc 1 611 24
	ldr	r0, [r3, #32]
	.loc 1 610 71
	orrs	r1, r1, r0
	.loc 1 611 57
	ldr	r0, [r3, #40]
	.loc 1 611 38
	orrs	r1, r1, r0
	.loc 1 612 26
	ldr	r0, [r3, #44]
	.loc 1 611 70
	orrs	r1, r1, r0
	.loc 1 613 30
	ldr	r0, [r3, #36]
	.loc 1 613 52
	subs	r0, r0, #1
	.loc 1 612 37
	orr	r1, r1, r0, lsl #18
	.loc 1 614 30
	ldr	r0, [r3, #4]
	.loc 1 613 68
	orrs	r1, r1, r0
	.loc 1 609 15
	str	r1, [r2]
	.loc 1 617 3 is_stmt 1
	.loc 1 617 23 is_stmt 0
	ldr	r1, [r3]
	.loc 1 617 5
	cmp	r1, #1073741824
	beq	.L87
.L76:
	.loc 1 628 3 is_stmt 1
	.loc 1 628 24 is_stmt 0
	ldr	r1, [r3]
	.loc 1 628 5
	cmp	r1, #1073741824
	beq	.L77
	.loc 1 628 76 discriminator 1
	ldr	r1, [r3, #72]
	.loc 1 628 61 discriminator 1
	cbz	r1, .L78
.L77:
	.loc 1 630 5 is_stmt 1
	.loc 1 630 10 is_stmt 0
	ldr	r1, [r2]
	.loc 1 630 17
	orr	r1, r1, #-2147483648
	str	r1, [r2]
.L78:
	.loc 1 634 3 is_stmt 1
	.loc 1 634 32 is_stmt 0
	ldr	r1, [r3, #68]
	.loc 1 634 45
	subs	r1, r1, #1
	.loc 1 634 61
	lsls	r1, r1, #20
	.loc 1 634 17
	str	r1, [r2, #4]
	.loc 1 637 3 is_stmt 1
	.loc 1 637 23 is_stmt 0
	ldr	r1, [r3, #48]
	.loc 1 637 5
	cmp	r1, #0
	blt	.L88
	.loc 1 647 5 is_stmt 1
	.loc 1 647 77 is_stmt 0
	uxth	r1, r1
	.loc 1 647 18
	str	r1, [r2, #16]
.L80:
	.loc 1 651 3 is_stmt 1
	.loc 1 651 23 is_stmt 0
	ldr	r1, [r3, #52]
	.loc 1 651 5
	cmp	r1, #0
	blt	.L89
	.loc 1 661 5 is_stmt 1
	.loc 1 661 10 is_stmt 0
	ldr	r0, [r2, #16]
	.loc 1 661 18
	orr	r1, r0, r1, lsl #16
	str	r1, [r2, #16]
.L82:
	.loc 1 665 3 is_stmt 1
	.loc 1 665 8 is_stmt 0
	ldr	r1, [r2, #4]
	.loc 1 665 31
	ldr	r0, [r3, #64]
	.loc 1 665 17
	orrs	r1, r1, r0
	str	r1, [r2, #4]
	.loc 1 668 3 is_stmt 1
	.loc 1 668 28 is_stmt 0
	ldr	r1, [r3, #60]
	.loc 1 668 15
	str	r1, [r2, #12]
	.loc 1 671 3 is_stmt 1
	.loc 1 671 28 is_stmt 0
	ldr	r1, [r3, #56]
	.loc 1 671 15
	str	r1, [r2, #8]
	.loc 1 674 3 is_stmt 1
	.loc 1 674 23 is_stmt 0
	ldr	r1, [r3]
	.loc 1 674 5
	cmp	r1, #1073741824
	beq	.L83
	.loc 1 677 5 is_stmt 1
	.loc 1 677 45 is_stmt 0
	uxtb	r1, r1
	.loc 1 677 17
	str	r1, [r2, #24]
	.loc 1 679 5 is_stmt 1
	.loc 1 679 30 is_stmt 0
	ldr	r1, [r3, #72]
	.loc 1 679 17
	str	r1, [r2, #32]
	.loc 1 680 5 is_stmt 1
	.loc 1 680 30 is_stmt 0
	ldr	r1, [r3, #76]
	.loc 1 680 17
	str	r1, [r2, #36]
.L83:
	.loc 1 683 3 is_stmt 1
	.loc 1 683 28 is_stmt 0
	ldr	r1, [r3, #56]
	.loc 1 683 15
	and	r1, r1, #-16777216
.LVL66:
	.loc 1 684 3 is_stmt 1
	.loc 1 684 5 is_stmt 0
	cmp	r1, #0
	it	ne
	cmpne	r1, #536870912
	bne	.L84
	.loc 1 687 5 is_stmt 1
	.loc 1 687 10 is_stmt 0
	ldr	r1, [r2, #24]
.LVL67:
	.loc 1 687 17
	orr	r1, r1, #65536
	str	r1, [r2, #24]
.LVL68:
.L84:
	.loc 1 690 3 is_stmt 1
	.loc 1 690 28 is_stmt 0
	ldr	r3, [r3, #60]
.LVL69:
	.loc 1 690 15
	and	r3, r3, #-16777216
.LVL70:
	.loc 1 691 3 is_stmt 1
	.loc 1 691 5 is_stmt 0
	cmp	r3, #0
	it	ne
	cmpne	r3, #536870912
	bne	.L86
	.loc 1 694 5 is_stmt 1
	.loc 1 694 10 is_stmt 0
	ldr	r3, [r2, #24]
.LVL71:
	.loc 1 694 17
	orr	r3, r3, #131072
	str	r3, [r2, #24]
.LVL72:
	.loc 1 697 10
	movs	r0, #0
	bx	lr
.LVL73:
.L87:
	.loc 1 619 5 is_stmt 1
	.loc 1 619 10 is_stmt 0
	ldr	r1, [r2]
	.loc 1 619 17
	orr	r1, r1, #1073741824
	str	r1, [r2]
	b	.L76
.L88:
	.loc 1 639 5 is_stmt 1
	.loc 1 639 10 is_stmt 0
	ldr	r1, [r2, #4]
	.loc 1 639 19
	orr	r1, r1, #262144
	str	r1, [r2, #4]
	.loc 1 641 5 is_stmt 1
	.loc 1 641 49 is_stmt 0
	ldr	r1, [r3, #48]
	.loc 1 641 30
	rsbs	r1, r1, #0
.LVL74:
	.loc 1 642 5 is_stmt 1
	.loc 1 642 32 is_stmt 0
	uxth	r1, r1
.LVL75:
	.loc 1 642 18
	str	r1, [r2, #16]
.LVL76:
	b	.L80
.LVL77:
.L89:
	.loc 1 653 5 is_stmt 1
	.loc 1 653 10 is_stmt 0
	ldr	r1, [r2, #4]
	.loc 1 653 19
	orr	r1, r1, #524288
	str	r1, [r2, #4]
	.loc 1 655 5 is_stmt 1
	.loc 1 655 49 is_stmt 0
	ldr	r1, [r3, #52]
	.loc 1 655 30
	rsbs	r0, r1, #0
.LVL78:
	.loc 1 656 5 is_stmt 1
	.loc 1 656 10 is_stmt 0
	ldr	r1, [r2, #16]
	.loc 1 656 18
	orr	r1, r1, r0, lsl #16
	str	r1, [r2, #16]
	b	.L82
.LVL79:
.L85:
	.loc 1 576 12
	movs	r0, #1
.LVL80:
	bx	lr
.LVL81:
.L86:
	.loc 1 697 10
	movs	r0, #0
	.loc 1 698 1
	bx	lr
	.cfi_endproc
.LFE340:
	.size	HAL_MDMA_LinkedList_CreateNode, .-HAL_MDMA_LinkedList_CreateNode
	.section	.text.HAL_MDMA_LinkedList_AddNode,"ax",%progbits
	.align	1
	.global	HAL_MDMA_LinkedList_AddNode
	.syntax unified
	.thumb
	.thumb_func
	.type	HAL_MDMA_LinkedList_AddNode, %function
HAL_MDMA_LinkedList_AddNode:
.LFB341:
	.loc 1 712 1 is_stmt 1
	.cfi_startproc
	@ args = 0, pretend = 0, frame = 0
	@ frame_needed = 0, uses_anonymous_args = 0
	@ link register save eliminated.
.LVL82:
	.loc 1 713 3
	.loc 1 714 3
	.loc 1 715 3
	.loc 1 718 3
	.loc 1 718 5 is_stmt 0
	cmp	r1, #0
	it	ne
	cmpne	r0, #0
	beq	.L105
	mov	r3, r0
	mov	ip, r1
	.loc 1 724 3 is_stmt 1
	.loc 1 724 7
	.loc 1 724 17 is_stmt 0
	ldrb	r1, [r0, #60]	@ zero_extendqisi2
.LVL83:
	.loc 1 724 9
	cmp	r1, #1
	beq	.L106
	.loc 1 724 67 is_stmt 1 discriminator 2
	.loc 1 724 81 is_stmt 0 discriminator 2
	movs	r1, #1
	strb	r1, [r0, #60]
	.loc 1 724 5 is_stmt 1 discriminator 2
	.loc 1 726 3 discriminator 2
	.loc 1 726 35 is_stmt 0 discriminator 2
	ldrb	r0, [r0, #61]	@ zero_extendqisi2
.LVL84:
	uxtb	r0, r0
	.loc 1 726 5 discriminator 2
	cmp	r0, r1
	beq	.L115
	.loc 1 828 5 is_stmt 1
	.loc 1 828 9
	.loc 1 828 23 is_stmt 0
	movs	r2, #0
.LVL85:
	strb	r2, [r3, #60]
	.loc 1 828 7 is_stmt 1
	.loc 1 831 5
	.loc 1 831 12 is_stmt 0
	movs	r0, #2
	bx	lr
.LVL86:
.L115:
	.loc 1 712 1
	push	{r4, r5, r6, r7}
	.cfi_def_cfa_offset 16
	.cfi_offset 4, -16
	.cfi_offset 5, -12
	.cfi_offset 6, -8
	.cfi_offset 7, -4
	.loc 1 729 5 is_stmt 1
	.loc 1 729 18 is_stmt 0
	movs	r1, #2
	strb	r1, [r3, #61]
	.loc 1 732 5 is_stmt 1
	.loc 1 732 23 is_stmt 0
	ldr	r7, [r3, #92]
	.loc 1 732 7
	cbz	r7, .L116
	.loc 1 756 10 is_stmt 1
	.loc 1 756 12 is_stmt 0
	cmp	r7, ip
	beq	.L94
	.loc 1 759 13
	mov	r4, r7
	.loc 1 715 21
	movs	r6, #0
	.loc 1 714 12
	mov	r1, r6
	b	.L95
.L116:
	.loc 1 734 7 is_stmt 1
	.loc 1 734 9 is_stmt 0
	cmp	r2, #0
	bne	.L94
	.loc 1 739 9 is_stmt 1
	.loc 1 739 14 is_stmt 0
	ldr	r2, [r3]
.LVL87:
	.loc 1 739 31
	str	ip, [r2, #36]
	.loc 1 741 9 is_stmt 1
	.loc 1 741 43 is_stmt 0
	str	ip, [r3, #92]
	.loc 1 744 9 is_stmt 1
	.loc 1 744 24 is_stmt 0
	movs	r0, #0
	str	r0, [ip, #20]
	.loc 1 747 9 is_stmt 1
	.loc 1 747 42 is_stmt 0
	str	ip, [r3, #96]
	.loc 1 749 9 is_stmt 1
	.loc 1 749 38 is_stmt 0
	movs	r2, #1
	str	r2, [r3, #100]
	b	.L94
.LVL88:
.L96:
	.loc 1 766 9 is_stmt 1
	.loc 1 766 46 is_stmt 0
	ldr	r4, [r4, #20]
.LVL89:
	.loc 1 767 9 is_stmt 1
	.loc 1 767 16 is_stmt 0
	adds	r1, r1, #1
.LVL90:
.L95:
	.loc 1 760 54 is_stmt 1
	.loc 1 760 29 is_stmt 0
	ldr	r5, [r3, #100]
	.loc 1 760 54
	cmp	r5, r1
	bls	.L97
	.loc 1 760 54 discriminator 1
	cbnz	r6, .L97
	.loc 1 762 9 is_stmt 1
	.loc 1 762 17 is_stmt 0
	ldr	r5, [r4, #20]
	.loc 1 762 11
	cmp	r5, ip
	bne	.L96
	.loc 1 764 22
	mov	r6, r0
.LVL91:
	b	.L96
.LVL92:
.L97:
	.loc 1 770 7 is_stmt 1
	.loc 1 770 9 is_stmt 0
	cbnz	r6, .L109
	.loc 1 773 9 is_stmt 1
	.loc 1 773 31 is_stmt 0
	ldr	r1, [r3, #96]
.LVL93:
	.loc 1 773 11
	cmp	r1, r2
	beq	.L99
	.loc 1 773 60 discriminator 1
	cbz	r2, .L99
	.loc 1 714 25
	movs	r5, #0
	.loc 1 787 19
	mov	r1, r5
	b	.L100
.L99:
	.loc 1 776 11 is_stmt 1
	.loc 1 776 60 is_stmt 0
	ldr	r2, [r1, #20]
.LVL94:
	.loc 1 776 26
	str	r2, [ip, #20]
	.loc 1 777 11 is_stmt 1
	.loc 1 777 16 is_stmt 0
	ldr	r2, [r3, #96]
	.loc 1 777 50
	str	ip, [r2, #20]
	.loc 1 779 11 is_stmt 1
	.loc 1 779 44 is_stmt 0
	str	ip, [r3, #96]
	.loc 1 781 11 is_stmt 1
	.loc 1 781 16 is_stmt 0
	ldr	r2, [r3, #100]
	.loc 1 781 39
	adds	r2, r2, #1
	str	r2, [r3, #100]
	mov	r0, r6
	b	.L94
.LVL95:
.L117:
	.loc 1 794 15 is_stmt 1
	.loc 1 794 37 is_stmt 0
	ldr	r4, [r7, #20]
	.loc 1 794 30
	str	r4, [ip, #20]
	.loc 1 795 15 is_stmt 1
	.loc 1 795 27 is_stmt 0
	str	ip, [r7, #20]
	.loc 1 797 15 is_stmt 1
	.loc 1 797 20 is_stmt 0
	ldr	r4, [r3, #100]
	.loc 1 797 43
	adds	r4, r4, #1
	str	r4, [r3, #100]
	.loc 1 798 15 is_stmt 1
.LVL96:
	.loc 1 798 28 is_stmt 0
	movs	r5, #1
.LVL97:
.L100:
	.loc 1 788 58 is_stmt 1
	.loc 1 788 33 is_stmt 0
	ldr	r4, [r3, #100]
	.loc 1 788 58
	cmp	r4, r1
	bls	.L103
	.loc 1 788 58 discriminator 1
	cbnz	r5, .L103
	.loc 1 790 13 is_stmt 1
	.loc 1 790 20 is_stmt 0
	adds	r1, r1, #1
.LVL98:
	.loc 1 791 13 is_stmt 1
	.loc 1 791 15 is_stmt 0
	cmp	r7, r2
	beq	.L117
	.loc 1 802 15 is_stmt 1
	.loc 1 802 52 is_stmt 0
	ldr	r7, [r7, #20]
.LVL99:
	b	.L100
.L103:
	.loc 1 806 11 is_stmt 1
	.loc 1 806 13 is_stmt 0
	cbz	r5, .L94
	mov	r0, r6
	b	.L94
.LVL100:
.L109:
	mov	r0, r6
.LVL101:
.L94:
	.loc 1 819 5 is_stmt 1
	.loc 1 819 9
	.loc 1 819 23 is_stmt 0
	movs	r2, #0
	strb	r2, [r3, #60]
	.loc 1 819 7 is_stmt 1
	.loc 1 821 5
	.loc 1 821 18 is_stmt 0
	movs	r2, #1
	strb	r2, [r3, #61]
	.loc 1 823 5 is_stmt 1
	.loc 1 833 1 is_stmt 0
	pop	{r4, r5, r6, r7}
	.cfi_restore 7
	.cfi_restore 6
	.cfi_restore 5
	.cfi_restore 4
	.cfi_def_cfa_offset 0
	bx	lr
.LVL102:
.L105:
	.loc 1 720 12
	movs	r0, #1
.LVL103:
	bx	lr
.LVL104:
.L106:
	.loc 1 724 48
	movs	r0, #2
.LVL105:
	.loc 1 833 1
	bx	lr
	.cfi_endproc
.LFE341:
	.size	HAL_MDMA_LinkedList_AddNode, .-HAL_MDMA_LinkedList_AddNode
	.section	.text.HAL_MDMA_LinkedList_RemoveNode,"ax",%progbits
	.align	1
	.global	HAL_MDMA_LinkedList_RemoveNode
	.syntax unified
	.thumb
	.thumb_func
	.type	HAL_MDMA_LinkedList_RemoveNode, %function
HAL_MDMA_LinkedList_RemoveNode:
.LFB342:
	.loc 1 845 1 is_stmt 1
	.cfi_startproc
	@ args = 0, pretend = 0, frame = 0
	@ frame_needed = 0, uses_anonymous_args = 0
	@ link register save eliminated.
.LVL106:
	.loc 1 846 3
	.loc 1 847 3
	.loc 1 848 3
	.loc 1 851 3
	.loc 1 851 5 is_stmt 0
	cmp	r1, #0
	it	ne
	cmpne	r0, #0
	beq	.L130
	mov	r3, r0
	mov	ip, r1
	.loc 1 857 3 is_stmt 1
	.loc 1 857 7
	.loc 1 857 17 is_stmt 0
	ldrb	r2, [r0, #60]	@ zero_extendqisi2
	.loc 1 857 9
	cmp	r2, #1
	beq	.L131
	.loc 1 857 67 is_stmt 1 discriminator 2
	.loc 1 857 81 is_stmt 0 discriminator 2
	movs	r2, #1
	strb	r2, [r0, #60]
	.loc 1 857 5 is_stmt 1 discriminator 2
	.loc 1 859 3 discriminator 2
	.loc 1 859 35 is_stmt 0 discriminator 2
	ldrb	r0, [r0, #61]	@ zero_extendqisi2
.LVL107:
	uxtb	r0, r0
	.loc 1 859 5 discriminator 2
	cmp	r0, r2
	beq	.L137
	.loc 1 944 5 is_stmt 1
	.loc 1 944 9
	.loc 1 944 23 is_stmt 0
	movs	r2, #0
	strb	r2, [r3, #60]
	.loc 1 944 7 is_stmt 1
	.loc 1 947 5
	.loc 1 947 12 is_stmt 0
	movs	r0, #2
	bx	lr
.L137:
	.loc 1 845 1
	push	{r4, r5}
	.cfi_def_cfa_offset 8
	.cfi_offset 4, -8
	.cfi_offset 5, -4
	.loc 1 862 5 is_stmt 1
	.loc 1 862 18 is_stmt 0
	movs	r2, #2
	strb	r2, [r3, #61]
	.loc 1 865 5 is_stmt 1
	.loc 1 865 24 is_stmt 0
	ldr	r2, [r3, #92]
	.loc 1 865 7
	cmp	r2, #0
	beq	.L121
	.loc 1 865 79 discriminator 1
	ldr	r1, [r3, #96]
.LVL108:
	.loc 1 865 60 discriminator 1
	cmp	r1, #0
	beq	.L121
	.loc 1 865 123 discriminator 2
	ldr	r4, [r3, #100]
	.loc 1 865 114 discriminator 2
	cmp	r4, #0
	beq	.L121
	.loc 1 869 10 is_stmt 1
	.loc 1 869 12 is_stmt 0
	cmp	r2, ip
	beq	.L138
	.loc 1 847 25
	movs	r5, #0
	.loc 1 847 12
	mov	r1, r5
	b	.L122
.L138:
	.loc 1 872 7 is_stmt 1
	.loc 1 872 9 is_stmt 0
	cmp	r1, ip
	beq	.L139
	.loc 1 885 9 is_stmt 1
	.loc 1 885 91 is_stmt 0
	ldr	r0, [r1, #20]
	.loc 1 885 11
	cmp	r2, r0
	beq	.L140
.L124:
	.loc 1 894 9 is_stmt 1
	.loc 1 894 14 is_stmt 0
	ldr	r2, [r3]
	.loc 1 894 38
	ldr	r1, [ip, #20]
	.loc 1 894 31
	str	r1, [r2, #36]
	.loc 1 895 9 is_stmt 1
	.loc 1 895 74 is_stmt 0
	ldr	r2, [r3]
	.loc 1 895 84
	ldr	r2, [r2, #36]
	.loc 1 895 43
	str	r2, [r3, #92]
	.loc 1 897 9 is_stmt 1
	.loc 1 897 14 is_stmt 0
	ldr	r2, [r3, #100]
	.loc 1 897 37
	subs	r2, r2, #1
	str	r2, [r3, #100]
	.loc 1 848 21
	movs	r0, #0
	b	.L121
.L139:
	.loc 1 877 9 is_stmt 1
	.loc 1 877 43 is_stmt 0
	movs	r0, #0
	str	r0, [r3, #92]
	.loc 1 878 9 is_stmt 1
	.loc 1 878 42 is_stmt 0
	str	r0, [r3, #96]
	.loc 1 879 9 is_stmt 1
	.loc 1 879 38 is_stmt 0
	str	r0, [r3, #100]
	.loc 1 881 9 is_stmt 1
	.loc 1 881 14 is_stmt 0
	ldr	r2, [r3]
	.loc 1 881 31
	str	r0, [r2, #36]
	b	.L121
.L140:
	.loc 1 888 11 is_stmt 1
	.loc 1 888 57 is_stmt 0
	ldr	r2, [ip, #20]
	.loc 1 888 50
	str	r2, [r1, #20]
	b	.L124
.LVL109:
.L142:
	.loc 1 910 11 is_stmt 1
	.loc 1 910 28 is_stmt 0
	ldr	r4, [r3, #96]
	.loc 1 910 13
	cmp	r4, ip
	beq	.L141
.L126:
	.loc 1 916 11 is_stmt 1
	.loc 1 916 33 is_stmt 0
	ldr	r4, [ip, #20]
	.loc 1 916 26
	str	r4, [r2, #20]
	.loc 1 917 11 is_stmt 1
.LVL110:
	.loc 1 919 11
	.loc 1 919 16 is_stmt 0
	ldr	r4, [r3, #100]
	.loc 1 919 39
	subs	r4, r4, #1
	str	r4, [r3, #100]
	.loc 1 917 23
	movs	r5, #1
.LVL111:
.L122:
	.loc 1 904 54 is_stmt 1
	ldr	r4, [r3, #100]
	cmp	r4, r1
	bls	.L128
	.loc 1 904 54 is_stmt 0 discriminator 1
	cbnz	r5, .L128
	.loc 1 906 9 is_stmt 1
	.loc 1 906 16 is_stmt 0
	adds	r1, r1, #1
.LVL112:
	.loc 1 907 9 is_stmt 1
	.loc 1 907 20 is_stmt 0
	ldr	r4, [r2, #20]
	.loc 1 907 11
	cmp	r4, ip
	beq	.L142
	.loc 1 923 11 is_stmt 1
	.loc 1 923 54 is_stmt 0
	ldr	r2, [r2, #20]
.LVL113:
	b	.L122
.L141:
	.loc 1 913 13 is_stmt 1
	.loc 1 913 46 is_stmt 0
	str	r2, [r3, #96]
	b	.L126
.L128:
	.loc 1 927 7 is_stmt 1
	.loc 1 927 9 is_stmt 0
	cbz	r5, .L121
	.loc 1 848 21
	movs	r0, #0
.LVL114:
.L121:
	.loc 1 935 5 is_stmt 1
	.loc 1 935 9
	.loc 1 935 23 is_stmt 0
	movs	r2, #0
	strb	r2, [r3, #60]
	.loc 1 935 7 is_stmt 1
	.loc 1 937 5
	.loc 1 937 18 is_stmt 0
	movs	r2, #1
	strb	r2, [r3, #61]
	.loc 1 939 5 is_stmt 1
	.loc 1 949 1 is_stmt 0
	pop	{r4, r5}
	.cfi_restore 5
	.cfi_restore 4
	.cfi_def_cfa_offset 0
	bx	lr
.LVL115:
.L130:
	.loc 1 853 12
	movs	r0, #1
.LVL116:
	bx	lr
.LVL117:
.L131:
	.loc 1 857 48
	movs	r0, #2
.LVL118:
	.loc 1 949 1
	bx	lr
	.cfi_endproc
.LFE342:
	.size	HAL_MDMA_LinkedList_RemoveNode, .-HAL_MDMA_LinkedList_RemoveNode
	.section	.text.HAL_MDMA_LinkedList_EnableCircularMode,"ax",%progbits
	.align	1
	.global	HAL_MDMA_LinkedList_EnableCircularMode
	.syntax unified
	.thumb
	.thumb_func
	.type	HAL_MDMA_LinkedList_EnableCircularMode, %function
HAL_MDMA_LinkedList_EnableCircularMode:
.LFB343:
	.loc 1 958 1 is_stmt 1
	.cfi_startproc
	@ args = 0, pretend = 0, frame = 0
	@ frame_needed = 0, uses_anonymous_args = 0
	@ link register save eliminated.
.LVL119:
	.loc 1 959 3
	.loc 1 962 3
	.loc 1 962 5 is_stmt 0
	cbz	r0, .L146
	mov	r3, r0
	.loc 1 968 3 is_stmt 1
	.loc 1 968 7
	.loc 1 968 17 is_stmt 0
	ldrb	r2, [r0, #60]	@ zero_extendqisi2
	.loc 1 968 9
	cmp	r2, #1
	beq	.L147
	.loc 1 958 1 discriminator 2
	push	{r4}
	.cfi_def_cfa_offset 4
	.cfi_offset 4, -4
	.loc 1 968 67 is_stmt 1 discriminator 2
	.loc 1 968 81 is_stmt 0 discriminator 2
	movs	r2, #1
	strb	r2, [r0, #60]
	.loc 1 968 5 is_stmt 1 discriminator 2
	.loc 1 970 3 discriminator 2
	.loc 1 970 35 is_stmt 0 discriminator 2
	ldrb	r0, [r0, #61]	@ zero_extendqisi2
.LVL120:
	uxtb	r0, r0
	.loc 1 970 5 discriminator 2
	cmp	r0, r2
	beq	.L153
	.loc 1 959 21
	movs	r0, #0
.L145:
.LVL121:
	.loc 1 988 3 is_stmt 1
	.loc 1 988 7
	.loc 1 988 21 is_stmt 0
	movs	r2, #0
	strb	r2, [r3, #60]
	.loc 1 988 5 is_stmt 1
	.loc 1 990 3
	.loc 1 990 16 is_stmt 0
	movs	r2, #1
	strb	r2, [r3, #61]
	.loc 1 992 3 is_stmt 1
	.loc 1 993 1 is_stmt 0
	ldr	r4, [sp], #4
	.cfi_remember_state
	.cfi_restore 4
	.cfi_def_cfa_offset 0
	bx	lr
.LVL122:
.L153:
	.cfi_restore_state
	.loc 1 973 5 is_stmt 1
	.loc 1 973 18 is_stmt 0
	movs	r2, #2
	strb	r2, [r3, #61]
	.loc 1 976 5 is_stmt 1
	.loc 1 976 24 is_stmt 0
	ldr	r2, [r3, #92]
	.loc 1 976 7
	cmp	r2, #0
	beq	.L145
	.loc 1 976 79 discriminator 1
	ldr	r1, [r3, #96]
	.loc 1 976 60 discriminator 1
	cmp	r1, #0
	beq	.L145
	.loc 1 976 114 discriminator 2
	ldr	r4, [r3, #100]
	cmp	r4, #0
	beq	.L145
	.loc 1 983 7 is_stmt 1
	.loc 1 983 46 is_stmt 0
	str	r2, [r1, #20]
	.loc 1 959 21
	movs	r0, #0
	b	.L145
.LVL123:
.L146:
	.cfi_def_cfa_offset 0
	.cfi_restore 4
	.loc 1 964 12
	movs	r0, #1
.LVL124:
	bx	lr
.LVL125:
.L147:
	.loc 1 968 48
	movs	r0, #2
.LVL126:
	.loc 1 993 1
	bx	lr
	.cfi_endproc
.LFE343:
	.size	HAL_MDMA_LinkedList_EnableCircularMode, .-HAL_MDMA_LinkedList_EnableCircularMode
	.section	.text.HAL_MDMA_LinkedList_DisableCircularMode,"ax",%progbits
	.align	1
	.global	HAL_MDMA_LinkedList_DisableCircularMode
	.syntax unified
	.thumb
	.thumb_func
	.type	HAL_MDMA_LinkedList_DisableCircularMode, %function
HAL_MDMA_LinkedList_DisableCircularMode:
.LFB344:
	.loc 1 1002 1 is_stmt 1
	.cfi_startproc
	@ args = 0, pretend = 0, frame = 0
	@ frame_needed = 0, uses_anonymous_args = 0
	@ link register save eliminated.
.LVL127:
	.loc 1 1003 3
	.loc 1 1006 3
	.loc 1 1006 5 is_stmt 0
	mov	r3, r0
	cbz	r0, .L157
	.loc 1 1012 3 is_stmt 1
	.loc 1 1012 7
	.loc 1 1012 17 is_stmt 0
	ldrb	r2, [r0, #60]	@ zero_extendqisi2
	.loc 1 1012 9
	cmp	r2, #1
	beq	.L158
	.loc 1 1012 67 is_stmt 1 discriminator 2
	.loc 1 1012 81 is_stmt 0 discriminator 2
	movs	r2, #1
	strb	r2, [r0, #60]
	.loc 1 1012 5 is_stmt 1 discriminator 2
	.loc 1 1014 3 discriminator 2
	.loc 1 1014 35 is_stmt 0 discriminator 2
	ldrb	r0, [r0, #61]	@ zero_extendqisi2
.LVL128:
	uxtb	r0, r0
	.loc 1 1014 5 discriminator 2
	cmp	r0, r2
	beq	.L160
	.loc 1 1003 21
	movs	r0, #0
.L156:
.LVL129:
	.loc 1 1032 3 is_stmt 1
	.loc 1 1032 7
	.loc 1 1032 21 is_stmt 0
	movs	r2, #0
	strb	r2, [r3, #60]
	.loc 1 1032 5 is_stmt 1
	.loc 1 1034 3
	.loc 1 1034 16 is_stmt 0
	movs	r2, #1
	strb	r2, [r3, #61]
	.loc 1 1036 3 is_stmt 1
	.loc 1 1036 10 is_stmt 0
	bx	lr
.LVL130:
.L160:
	.loc 1 1017 5 is_stmt 1
	.loc 1 1017 18 is_stmt 0
	movs	r2, #2
	strb	r2, [r3, #61]
	.loc 1 1020 5 is_stmt 1
	.loc 1 1020 24 is_stmt 0
	ldr	r2, [r3, #92]
	.loc 1 1020 7
	cmp	r2, #0
	beq	.L156
	.loc 1 1020 79 discriminator 1
	ldr	r2, [r3, #96]
	.loc 1 1020 60 discriminator 1
	cmp	r2, #0
	beq	.L156
	.loc 1 1020 123 discriminator 2
	ldr	r1, [r3, #100]
	.loc 1 1020 114 discriminator 2
	cmp	r1, #0
	beq	.L156
	.loc 1 1027 7 is_stmt 1
	.loc 1 1027 46 is_stmt 0
	movs	r0, #0
	str	r0, [r2, #20]
	b	.L156
.LVL131:
.L157:
	.loc 1 1008 12
	movs	r0, #1
.LVL132:
	bx	lr
.LVL133:
.L158:
	.loc 1 1012 48
	movs	r0, #2
.LVL134:
	.loc 1 1037 1
	bx	lr
	.cfi_endproc
.LFE344:
	.size	HAL_MDMA_LinkedList_DisableCircularMode, .-HAL_MDMA_LinkedList_DisableCircularMode
	.section	.text.HAL_MDMA_Start,"ax",%progbits
	.align	1
	.global	HAL_MDMA_Start
	.syntax unified
	.thumb
	.thumb_func
	.type	HAL_MDMA_Start, %function
HAL_MDMA_Start:
.LFB345:
	.loc 1 1073 1 is_stmt 1
	.cfi_startproc
	@ args = 4, pretend = 0, frame = 0
	@ frame_needed = 0, uses_anonymous_args = 0
.LVL135:
	.loc 1 1075 3
	.loc 1 1076 3
	.loc 1 1079 3
	.loc 1 1079 5 is_stmt 0
	cmp	r0, #0
	beq	.L164
	.loc 1 1073 1
	push	{r4, r5, lr}
	.cfi_def_cfa_offset 12
	.cfi_offset 4, -12
	.cfi_offset 5, -8
	.cfi_offset 14, -4
	sub	sp, sp, #12
	.cfi_def_cfa_offset 24
	mov	r4, r0
	.loc 1 1085 3 is_stmt 1
	.loc 1 1085 7
	.loc 1 1085 17 is_stmt 0
	ldrb	r0, [r0, #60]	@ zero_extendqisi2
.LVL136:
	.loc 1 1085 9
	cmp	r0, #1
	beq	.L165
	.loc 1 1085 67 is_stmt 1 discriminator 2
	.loc 1 1085 81 is_stmt 0 discriminator 2
	movs	r0, #1
	strb	r0, [r4, #60]
	.loc 1 1085 5 is_stmt 1 discriminator 2
	.loc 1 1087 3 discriminator 2
	.loc 1 1087 35 is_stmt 0 discriminator 2
	ldrb	r0, [r4, #61]	@ zero_extendqisi2
	uxtb	r0, r0
	.loc 1 1087 5 discriminator 2
	cmp	r0, #1
	beq	.L171
	.loc 1 1113 5 is_stmt 1
	.loc 1 1113 9
	.loc 1 1113 23 is_stmt 0
	movs	r3, #0
.LVL137:
	strb	r3, [r4, #60]
	.loc 1 1113 7 is_stmt 1
	.loc 1 1116 5
	.loc 1 1116 12 is_stmt 0
	movs	r0, #2
.LVL138:
.L162:
	.loc 1 1120 1
	add	sp, sp, #12
	.cfi_remember_state
	.cfi_def_cfa_offset 12
	@ sp needed
	pop	{r4, r5, pc}
.LVL139:
.L171:
	.cfi_restore_state
	.loc 1 1090 5 is_stmt 1
	.loc 1 1090 18 is_stmt 0
	movs	r0, #2
	strb	r0, [r4, #61]
	.loc 1 1093 5 is_stmt 1
	.loc 1 1093 22 is_stmt 0
	movs	r0, #0
	str	r0, [r4, #104]
	.loc 1 1096 5 is_stmt 1
	.loc 1 1096 13 is_stmt 0
	ldr	r5, [r4]
	.loc 1 1096 23
	ldr	r0, [r5, #12]
	.loc 1 1096 29
	bic	r0, r0, #1
	str	r0, [r5, #12]
	.loc 1 1099 5 is_stmt 1
	ldr	r0, [sp, #24]
	str	r0, [sp]
	mov	r0, r4
	bl	MDMA_SetConfig
.LVL140:
	.loc 1 1102 5
	.loc 1 1102 13 is_stmt 0
	ldr	r2, [r4]
	.loc 1 1102 23
	ldr	r3, [r2, #12]
	.loc 1 1102 29
	orr	r3, r3, #1
	str	r3, [r2, #12]
	.loc 1 1104 5 is_stmt 1
	.loc 1 1104 19 is_stmt 0
	ldr	r3, [r4, #4]
	.loc 1 1104 7
	cmp	r3, #1073741824
	beq	.L172
	.loc 1 1119 10
	movs	r0, #0
	b	.L162
.L172:
	.loc 1 1107 7 is_stmt 1
	.loc 1 1107 12 is_stmt 0
	ldr	r2, [r4]
	.loc 1 1107 22
	ldr	r3, [r2, #12]
	.loc 1 1107 28
	orr	r3, r3, #65536
	str	r3, [r2, #12]
	.loc 1 1119 10
	movs	r0, #0
	b	.L162
.LVL141:
.L164:
	.cfi_def_cfa_offset 0
	.cfi_restore 4
	.cfi_restore 5
	.cfi_restore 14
	.loc 1 1081 12
	movs	r0, #1
.LVL142:
	.loc 1 1120 1
	bx	lr
.LVL143:
.L165:
	.cfi_def_cfa_offset 24
	.cfi_offset 4, -12
	.cfi_offset 5, -8
	.cfi_offset 14, -4
	.loc 1 1085 48
	movs	r0, #2
	b	.L162
	.cfi_endproc
.LFE345:
	.size	HAL_MDMA_Start, .-HAL_MDMA_Start
	.section	.text.HAL_MDMA_Start_IT,"ax",%progbits
	.align	1
	.global	HAL_MDMA_Start_IT
	.syntax unified
	.thumb
	.thumb_func
	.type	HAL_MDMA_Start_IT, %function
HAL_MDMA_Start_IT:
.LFB346:
	.loc 1 1133 1 is_stmt 1
	.cfi_startproc
	@ args = 4, pretend = 0, frame = 0
	@ frame_needed = 0, uses_anonymous_args = 0
.LVL144:
	.loc 1 1135 3
	.loc 1 1136 3
	.loc 1 1139 3
	.loc 1 1139 5 is_stmt 0
	cmp	r0, #0
	beq	.L179
	.loc 1 1133 1
	push	{r4, r5, lr}
	.cfi_def_cfa_offset 12
	.cfi_offset 4, -12
	.cfi_offset 5, -8
	.cfi_offset 14, -4
	sub	sp, sp, #12
	.cfi_def_cfa_offset 24
	mov	r4, r0
	.loc 1 1145 3 is_stmt 1
	.loc 1 1145 7
	.loc 1 1145 17 is_stmt 0
	ldrb	r0, [r0, #60]	@ zero_extendqisi2
.LVL145:
	.loc 1 1145 9
	cmp	r0, #1
	beq	.L180
	.loc 1 1145 67 is_stmt 1 discriminator 2
	.loc 1 1145 81 is_stmt 0 discriminator 2
	movs	r0, #1
	strb	r0, [r4, #60]
	.loc 1 1145 5 is_stmt 1 discriminator 2
	.loc 1 1147 3 discriminator 2
	.loc 1 1147 35 is_stmt 0 discriminator 2
	ldrb	r0, [r4, #61]	@ zero_extendqisi2
	uxtb	r0, r0
	.loc 1 1147 5 discriminator 2
	cmp	r0, #1
	beq	.L186
	.loc 1 1194 5 is_stmt 1
	.loc 1 1194 9
	.loc 1 1194 23 is_stmt 0
	movs	r3, #0
.LVL146:
	strb	r3, [r4, #60]
	.loc 1 1194 7 is_stmt 1
	.loc 1 1197 5
	.loc 1 1197 12 is_stmt 0
	movs	r0, #2
.LVL147:
.L174:
	.loc 1 1201 1
	add	sp, sp, #12
	.cfi_remember_state
	.cfi_def_cfa_offset 12
	@ sp needed
	pop	{r4, r5, pc}
.LVL148:
.L186:
	.cfi_restore_state
	.loc 1 1150 5 is_stmt 1
	.loc 1 1150 18 is_stmt 0
	movs	r0, #2
	strb	r0, [r4, #61]
	.loc 1 1153 5 is_stmt 1
	.loc 1 1153 22 is_stmt 0
	movs	r0, #0
	str	r0, [r4, #104]
	.loc 1 1156 5 is_stmt 1
	.loc 1 1156 13 is_stmt 0
	ldr	r5, [r4]
	.loc 1 1156 23
	ldr	r0, [r5, #12]
	.loc 1 1156 29
	bic	r0, r0, #1
	str	r0, [r5, #12]
	.loc 1 1159 5 is_stmt 1
	ldr	r0, [sp, #24]
	str	r0, [sp]
	mov	r0, r4
	bl	MDMA_SetConfig
.LVL149:
	.loc 1 1162 5
	.loc 1 1162 13 is_stmt 0
	ldr	r2, [r4]
	.loc 1 1162 23
	ldr	r3, [r2, #12]
	.loc 1 1162 29
	orr	r3, r3, #6
	str	r3, [r2, #12]
	.loc 1 1164 5 is_stmt 1
	.loc 1 1164 13 is_stmt 0
	ldr	r3, [r4, #76]
	.loc 1 1164 7
	cbz	r3, .L176
	.loc 1 1167 7 is_stmt 1
	.loc 1 1167 15 is_stmt 0
	ldr	r2, [r4]
	.loc 1 1167 25
	ldr	r3, [r2, #12]
	.loc 1 1167 31
	orr	r3, r3, #16
	str	r3, [r2, #12]
.L176:
	.loc 1 1170 5 is_stmt 1
	.loc 1 1170 13 is_stmt 0
	ldr	r3, [r4, #80]
	.loc 1 1170 7
	cbz	r3, .L177
	.loc 1 1173 7 is_stmt 1
	.loc 1 1173 15 is_stmt 0
	ldr	r2, [r4]
	.loc 1 1173 25
	ldr	r3, [r2, #12]
	.loc 1 1173 31
	orr	r3, r3, #8
	str	r3, [r2, #12]
.L177:
	.loc 1 1176 5 is_stmt 1
	.loc 1 1176 13 is_stmt 0
	ldr	r3, [r4, #72]
	.loc 1 1176 7
	cbz	r3, .L178
	.loc 1 1179 7 is_stmt 1
	.loc 1 1179 15 is_stmt 0
	ldr	r2, [r4]
	.loc 1 1179 25
	ldr	r3, [r2, #12]
	.loc 1 1179 31
	orr	r3, r3, #32
	str	r3, [r2, #12]
.L178:
	.loc 1 1183 5 is_stmt 1
	.loc 1 1183 13 is_stmt 0
	ldr	r2, [r4]
	.loc 1 1183 23
	ldr	r3, [r2, #12]
	.loc 1 1183 29
	orr	r3, r3, #1
	str	r3, [r2, #12]
	.loc 1 1185 5 is_stmt 1
	.loc 1 1185 19 is_stmt 0
	ldr	r3, [r4, #4]
	.loc 1 1185 7
	cmp	r3, #1073741824
	beq	.L187
	.loc 1 1200 10
	movs	r0, #0
	b	.L174
.L187:
	.loc 1 1188 7 is_stmt 1
	.loc 1 1188 12 is_stmt 0
	ldr	r2, [r4]
	.loc 1 1188 22
	ldr	r3, [r2, #12]
	.loc 1 1188 28
	orr	r3, r3, #65536
	str	r3, [r2, #12]
	.loc 1 1200 10
	movs	r0, #0
	b	.L174
.LVL150:
.L179:
	.cfi_def_cfa_offset 0
	.cfi_restore 4
	.cfi_restore 5
	.cfi_restore 14
	.loc 1 1141 12
	movs	r0, #1
.LVL151:
	.loc 1 1201 1
	bx	lr
.LVL152:
.L180:
	.cfi_def_cfa_offset 24
	.cfi_offset 4, -12
	.cfi_offset 5, -8
	.cfi_offset 14, -4
	.loc 1 1145 48
	movs	r0, #2
	b	.L174
	.cfi_endproc
.LFE346:
	.size	HAL_MDMA_Start_IT, .-HAL_MDMA_Start_IT
	.section	.text.HAL_MDMA_Abort,"ax",%progbits
	.align	1
	.global	HAL_MDMA_Abort
	.syntax unified
	.thumb
	.thumb_func
	.type	HAL_MDMA_Abort, %function
HAL_MDMA_Abort:
.LFB347:
	.loc 1 1216 1 is_stmt 1
	.cfi_startproc
	@ args = 0, pretend = 0, frame = 0
	@ frame_needed = 0, uses_anonymous_args = 0
.LVL153:
	push	{r3, r4, r5, lr}
	.cfi_def_cfa_offset 16
	.cfi_offset 3, -16
	.cfi_offset 4, -12
	.cfi_offset 5, -8
	.cfi_offset 14, -4
	mov	r4, r0
	.loc 1 1217 3
	.loc 1 1217 24 is_stmt 0
	bl	HAL_GetTick
.LVL154:
	.loc 1 1220 3 is_stmt 1
	.loc 1 1220 5 is_stmt 0
	cmp	r4, #0
	beq	.L193
	mov	r5, r0
	.loc 1 1225 3 is_stmt 1
	.loc 1 1225 34 is_stmt 0
	ldrb	r3, [r4, #61]	@ zero_extendqisi2
	uxtb	r3, r3
	.loc 1 1225 5
	cmp	r3, #2
	beq	.L190
	.loc 1 1227 5 is_stmt 1
	.loc 1 1227 22 is_stmt 0
	movs	r3, #128
	str	r3, [r4, #104]
	.loc 1 1230 5 is_stmt 1
	.loc 1 1230 9
	.loc 1 1230 23 is_stmt 0
	movs	r3, #0
	strb	r3, [r4, #60]
	.loc 1 1230 7 is_stmt 1
	.loc 1 1232 5
	.loc 1 1232 12 is_stmt 0
	movs	r0, #1
.LVL155:
.L189:
	.loc 1 1272 1
	pop	{r3, r4, r5, pc}
.LVL156:
.L190:
	.loc 1 1237 5 is_stmt 1
	.loc 1 1237 13 is_stmt 0
	ldr	r2, [r4]
	.loc 1 1237 23
	ldr	r3, [r2, #12]
	.loc 1 1237 29
	bic	r3, r3, #62
	str	r3, [r2, #12]
	.loc 1 1240 5 is_stmt 1
	.loc 1 1240 13 is_stmt 0
	ldr	r2, [r4]
	.loc 1 1240 23
	ldr	r3, [r2, #12]
	.loc 1 1240 29
	bic	r3, r3, #1
	str	r3, [r2, #12]
	.loc 1 1243 5 is_stmt 1
.LVL157:
.L191:
	.loc 1 1243 52
	.loc 1 1243 17 is_stmt 0
	ldr	r3, [r4]
	.loc 1 1243 27
	ldr	r2, [r3, #12]
	.loc 1 1243 52
	tst	r2, #1
	beq	.L195
	.loc 1 1246 7 is_stmt 1
	.loc 1 1246 12 is_stmt 0
	bl	HAL_GetTick
.LVL158:
	.loc 1 1246 26
	subs	r3, r0, r5
	.loc 1 1246 9
	cmp	r3, #5
	bls	.L191
	.loc 1 1249 9 is_stmt 1
	.loc 1 1249 14 is_stmt 0
	ldr	r3, [r4, #104]
	.loc 1 1249 26
	orr	r3, r3, #64
	str	r3, [r4, #104]
	.loc 1 1252 9 is_stmt 1
	.loc 1 1252 13
	.loc 1 1252 27 is_stmt 0
	movs	r3, #0
	strb	r3, [r4, #60]
	.loc 1 1252 11 is_stmt 1
	.loc 1 1255 9
	.loc 1 1255 22 is_stmt 0
	movs	r3, #3
	strb	r3, [r4, #61]
	.loc 1 1257 9 is_stmt 1
	.loc 1 1257 16 is_stmt 0
	movs	r0, #1
	b	.L189
.L195:
	.loc 1 1262 5 is_stmt 1
	.loc 1 1262 31 is_stmt 0
	movs	r2, #31
	str	r2, [r3, #4]
	.loc 1 1265 5 is_stmt 1
	.loc 1 1265 9
	.loc 1 1265 23 is_stmt 0
	movs	r0, #0
	strb	r0, [r4, #60]
	.loc 1 1265 7 is_stmt 1
	.loc 1 1268 5
	.loc 1 1268 18 is_stmt 0
	movs	r3, #1
	strb	r3, [r4, #61]
	.loc 1 1271 3 is_stmt 1
	.loc 1 1271 10 is_stmt 0
	b	.L189
.LVL159:
.L193:
	.loc 1 1222 12
	movs	r0, #1
.LVL160:
	b	.L189
	.cfi_endproc
.LFE347:
	.size	HAL_MDMA_Abort, .-HAL_MDMA_Abort
	.section	.text.HAL_MDMA_Abort_IT,"ax",%progbits
	.align	1
	.global	HAL_MDMA_Abort_IT
	.syntax unified
	.thumb
	.thumb_func
	.type	HAL_MDMA_Abort_IT, %function
HAL_MDMA_Abort_IT:
.LFB348:
	.loc 1 1281 1 is_stmt 1
	.cfi_startproc
	@ args = 0, pretend = 0, frame = 0
	@ frame_needed = 0, uses_anonymous_args = 0
	@ link register save eliminated.
.LVL161:
	.loc 1 1283 3
	.loc 1 1283 5 is_stmt 0
	cbz	r0, .L199
	.loc 1 1288 3 is_stmt 1
	.loc 1 1288 34 is_stmt 0
	ldrb	r3, [r0, #61]	@ zero_extendqisi2
	uxtb	r3, r3
	.loc 1 1288 5
	cmp	r3, #2
	beq	.L198
	.loc 1 1291 5 is_stmt 1
	.loc 1 1291 22 is_stmt 0
	movs	r3, #128
	str	r3, [r0, #104]
	.loc 1 1293 5 is_stmt 1
	.loc 1 1293 12 is_stmt 0
	movs	r0, #1
.LVL162:
	bx	lr
.LVL163:
.L198:
	.loc 1 1298 5 is_stmt 1
	.loc 1 1298 18 is_stmt 0
	movs	r3, #4
	strb	r3, [r0, #61]
	.loc 1 1301 5 is_stmt 1
	.loc 1 1301 13 is_stmt 0
	ldr	r2, [r0]
	.loc 1 1301 23
	ldr	r3, [r2, #12]
	.loc 1 1301 29
	bic	r3, r3, #1
	str	r3, [r2, #12]
	.loc 1 1304 3 is_stmt 1
	.loc 1 1304 10 is_stmt 0
	movs	r0, #0
.LVL164:
	bx	lr
.LVL165:
.L199:
	.loc 1 1285 12
	movs	r0, #1
.LVL166:
	.loc 1 1305 1
	bx	lr
	.cfi_endproc
.LFE348:
	.size	HAL_MDMA_Abort_IT, .-HAL_MDMA_Abort_IT
	.section	.text.HAL_MDMA_PollForTransfer,"ax",%progbits
	.align	1
	.global	HAL_MDMA_PollForTransfer
	.syntax unified
	.thumb
	.thumb_func
	.type	HAL_MDMA_PollForTransfer, %function
HAL_MDMA_PollForTransfer:
.LFB349:
	.loc 1 1316 1 is_stmt 1
	.cfi_startproc
	@ args = 0, pretend = 0, frame = 0
	@ frame_needed = 0, uses_anonymous_args = 0
.LVL167:
	.loc 1 1317 3
	.loc 1 1318 3
	.loc 1 1321 3
	.loc 1 1324 3
	.loc 1 1324 5 is_stmt 0
	cmp	r0, #0
	beq	.L220
	.loc 1 1316 1
	push	{r3, r4, r5, r6, r7, r8, r9, lr}
	.cfi_def_cfa_offset 32
	.cfi_offset 3, -32
	.cfi_offset 4, -28
	.cfi_offset 5, -24
	.cfi_offset 6, -20
	.cfi_offset 7, -16
	.cfi_offset 8, -12
	.cfi_offset 9, -8
	.cfi_offset 14, -4
	mov	r7, r1
	mov	r6, r2
	mov	r5, r0
	.loc 1 1329 3 is_stmt 1
	.loc 1 1329 34 is_stmt 0
	ldrb	r3, [r0, #61]	@ zero_extendqisi2
	uxtb	r3, r3
	.loc 1 1329 5
	cmp	r3, #2
	beq	.L202
	.loc 1 1332 5 is_stmt 1
	.loc 1 1332 22 is_stmt 0
	movs	r3, #128
	str	r3, [r0, #104]
	.loc 1 1334 5 is_stmt 1
	.loc 1 1334 12 is_stmt 0
	movs	r0, #1
.LVL168:
.L201:
	.loc 1 1454 1
	pop	{r3, r4, r5, r6, r7, r8, r9, pc}
.LVL169:
.L202:
	.loc 1 1338 3 is_stmt 1
	cmp	r1, #1
	beq	.L221
	cmp	r1, #2
	beq	.L222
	cbz	r1, .L229
	.loc 1 1329 5 is_stmt 0
	mov	r8, #4
.L203:
.LVL170:
	.loc 1 1345 3 is_stmt 1 discriminator 3
	.loc 1 1345 15 is_stmt 0 discriminator 3
	bl	HAL_GetTick
.LVL171:
	mov	r9, r0
.LVL172:
	.loc 1 1347 3 is_stmt 1 discriminator 3
.L212:
	.loc 1 1347 49
	.loc 1 1347 17 is_stmt 0
	ldr	r3, [r5]
	.loc 1 1347 27
	ldr	r4, [r3]
	.loc 1 1347 49
	tst	r4, r8
	bne	.L230
	.loc 1 1349 5 is_stmt 1
	.loc 1 1349 27 is_stmt 0
	ldr	r4, [r3]
	.loc 1 1349 7
	tst	r4, #1
	bne	.L231
	.loc 1 1403 5 is_stmt 1
	.loc 1 1403 7 is_stmt 0
	cmp	r6, #-1
	beq	.L212
	.loc 1 1405 7 is_stmt 1
	.loc 1 1405 12 is_stmt 0
	bl	HAL_GetTick
.LVL173:
	.loc 1 1405 26
	sub	r0, r0, r9
	.loc 1 1405 9
	cmp	r0, r6
	bhi	.L213
	.loc 1 1405 51 discriminator 1
	cmp	r6, #0
	bne	.L212
.L213:
	.loc 1 1408 9 is_stmt 1
	.loc 1 1408 14 is_stmt 0
	ldr	r3, [r5, #104]
	.loc 1 1408 26
	orr	r3, r3, #64
	str	r3, [r5, #104]
	.loc 1 1410 9 is_stmt 1
	.loc 1 1410 16 is_stmt 0
	mov	r0, r5
	bl	HAL_MDMA_Abort
.LVL174:
	.loc 1 1419 9 is_stmt 1
	.loc 1 1419 16 is_stmt 0
	movs	r0, #1
	b	.L201
.LVL175:
.L229:
	.loc 1 1329 5
	mov	r8, #2
	b	.L203
.L221:
	mov	r8, #16
	b	.L203
.L222:
	mov	r8, #8
	b	.L203
.LVL176:
.L231:
	.loc 1 1352 7 is_stmt 1
	.loc 1 1352 17 is_stmt 0
	ldr	r3, [r3, #8]
.LVL177:
	.loc 1 1354 7 is_stmt 1
	.loc 1 1354 9 is_stmt 0
	tst	r3, #128
	bne	.L206
	.loc 1 1357 9 is_stmt 1
	.loc 1 1357 14 is_stmt 0
	ldr	r2, [r5, #104]
	.loc 1 1357 26
	orr	r2, r2, #1
	str	r2, [r5, #104]
.L207:
	.loc 1 1365 7 is_stmt 1
	.loc 1 1365 9 is_stmt 0
	tst	r3, #512
	beq	.L208
	.loc 1 1368 9 is_stmt 1
	.loc 1 1368 14 is_stmt 0
	ldr	r2, [r5, #104]
	.loc 1 1368 26
	orr	r2, r2, #4
	str	r2, [r5, #104]
.L208:
	.loc 1 1371 7 is_stmt 1
	.loc 1 1371 9 is_stmt 0
	tst	r3, #256
	beq	.L209
	.loc 1 1374 9 is_stmt 1
	.loc 1 1374 14 is_stmt 0
	ldr	r2, [r5, #104]
	.loc 1 1374 26
	orr	r2, r2, #8
	str	r2, [r5, #104]
.L209:
	.loc 1 1377 7 is_stmt 1
	.loc 1 1377 9 is_stmt 0
	tst	r3, #1024
	beq	.L210
	.loc 1 1380 9 is_stmt 1
	.loc 1 1380 14 is_stmt 0
	ldr	r2, [r5, #104]
	.loc 1 1380 26
	orr	r2, r2, #16
	str	r2, [r5, #104]
.L210:
	.loc 1 1383 7 is_stmt 1
	.loc 1 1383 9 is_stmt 0
	tst	r3, #2048
	beq	.L211
	.loc 1 1386 9 is_stmt 1
	.loc 1 1386 14 is_stmt 0
	ldr	r3, [r5, #104]
.LVL178:
	.loc 1 1386 26
	orr	r3, r3, #32
	str	r3, [r5, #104]
.L211:
	.loc 1 1389 7 is_stmt 1
	.loc 1 1389 14 is_stmt 0
	mov	r0, r5
	bl	HAL_MDMA_Abort
.LVL179:
	.loc 1 1398 7 is_stmt 1
	.loc 1 1398 14 is_stmt 0
	movs	r0, #1
	b	.L201
.LVL180:
.L206:
	.loc 1 1362 9 is_stmt 1
	.loc 1 1362 14 is_stmt 0
	ldr	r2, [r5, #104]
	.loc 1 1362 26
	orr	r2, r2, #2
	str	r2, [r5, #104]
	b	.L207
.LVL181:
.L230:
	.loc 1 1425 3 is_stmt 1
	cmp	r7, #3
	bhi	.L224
	tbb	[pc, r7]
.L216:
	.byte	(.L219-.L216)/2
	.byte	(.L218-.L216)/2
	.byte	(.L217-.L216)/2
	.byte	(.L215-.L216)/2
	.p2align 1
.L218:
	.loc 1 1427 5
	.loc 1 1427 31 is_stmt 0
	movs	r2, #16
	str	r2, [r3, #4]
	.loc 1 1453 10
	movs	r0, #0
	b	.L201
.L217:
	.loc 1 1432 5 is_stmt 1
	.loc 1 1432 31 is_stmt 0
	movs	r2, #24
	str	r2, [r3, #4]
	.loc 1 1453 10
	movs	r0, #0
	b	.L201
.L215:
	.loc 1 1437 5 is_stmt 1
	.loc 1 1437 31 is_stmt 0
	movs	r2, #28
	str	r2, [r3, #4]
	.loc 1 1453 10
	movs	r0, #0
	b	.L201
.L219:
	.loc 1 1441 5 is_stmt 1
	.loc 1 1441 31 is_stmt 0
	movs	r2, #30
	str	r2, [r3, #4]
	.loc 1 1444 5 is_stmt 1
	.loc 1 1444 9
	.loc 1 1444 23 is_stmt 0
	movs	r3, #0
	strb	r3, [r5, #60]
	.loc 1 1444 7 is_stmt 1
	.loc 1 1446 5
	.loc 1 1446 18 is_stmt 0
	movs	r3, #1
	strb	r3, [r5, #61]
	.loc 1 1453 10
	mov	r0, r7
	b	.L201
.LVL182:
.L220:
	.cfi_def_cfa_offset 0
	.cfi_restore 3
	.cfi_restore 4
	.cfi_restore 5
	.cfi_restore 6
	.cfi_restore 7
	.cfi_restore 8
	.cfi_restore 9
	.cfi_restore 14
	.loc 1 1326 12
	movs	r0, #1
.LVL183:
	.loc 1 1454 1
	bx	lr
.LVL184:
.L224:
	.cfi_def_cfa_offset 32
	.cfi_offset 3, -32
	.cfi_offset 4, -28
	.cfi_offset 5, -24
	.cfi_offset 6, -20
	.cfi_offset 7, -16
	.cfi_offset 8, -12
	.cfi_offset 9, -8
	.cfi_offset 14, -4
	.loc 1 1347 49
	movs	r0, #1
	b	.L201
	.cfi_endproc
.LFE349:
	.size	HAL_MDMA_PollForTransfer, .-HAL_MDMA_PollForTransfer
	.section	.text.HAL_MDMA_GenerateSWRequest,"ax",%progbits
	.align	1
	.global	HAL_MDMA_GenerateSWRequest
	.syntax unified
	.thumb
	.thumb_func
	.type	HAL_MDMA_GenerateSWRequest, %function
HAL_MDMA_GenerateSWRequest:
.LFB350:
	.loc 1 1463 1 is_stmt 1
	.cfi_startproc
	@ args = 0, pretend = 0, frame = 0
	@ frame_needed = 0, uses_anonymous_args = 0
	@ link register save eliminated.
.LVL185:
	.loc 1 1464 3
	.loc 1 1467 3
	.loc 1 1467 5 is_stmt 0
	mov	r1, r0
	cbz	r0, .L237
	.loc 1 1473 3 is_stmt 1
	.loc 1 1473 23 is_stmt 0
	ldr	r3, [r0]
	.loc 1 1473 33
	ldr	r2, [r3, #16]
	.loc 1 1473 16
	and	r2, r2, #1073741824
.LVL186:
	.loc 1 1475 3 is_stmt 1
	.loc 1 1475 22 is_stmt 0
	ldr	r0, [r3, #12]
.LVL187:
	.loc 1 1475 5
	tst	r0, #1
	beq	.L238
	.loc 1 1482 8 is_stmt 1
	.loc 1 1482 28 is_stmt 0
	ldr	r0, [r3]
	.loc 1 1482 10
	tst	r0, #65536
	bne	.L235
	.loc 1 1482 62 discriminator 1
	cbnz	r2, .L236
.L235:
	.loc 1 1485 5 is_stmt 1
	.loc 1 1485 22 is_stmt 0
	mov	r3, #256
	str	r3, [r1, #104]
	.loc 1 1487 5 is_stmt 1
	.loc 1 1487 12 is_stmt 0
	movs	r0, #1
	bx	lr
.L238:
	.loc 1 1478 5 is_stmt 1
	.loc 1 1478 22 is_stmt 0
	movs	r3, #128
	str	r3, [r1, #104]
	.loc 1 1480 5 is_stmt 1
	.loc 1 1480 12 is_stmt 0
	movs	r0, #1
	bx	lr
.L236:
	.loc 1 1492 5 is_stmt 1
	.loc 1 1492 20 is_stmt 0
	ldr	r2, [r3, #12]
.LVL188:
	.loc 1 1492 26
	orr	r2, r2, #65536
	str	r2, [r3, #12]
	.loc 1 1494 5 is_stmt 1
	.loc 1 1494 12 is_stmt 0
	movs	r0, #0
	bx	lr
.LVL189:
.L237:
	.loc 1 1469 12
	movs	r0, #1
.LVL190:
	.loc 1 1496 1
	bx	lr
	.cfi_endproc
.LFE350:
	.size	HAL_MDMA_GenerateSWRequest, .-HAL_MDMA_GenerateSWRequest
	.section	.text.HAL_MDMA_IRQHandler,"ax",%progbits
	.align	1
	.global	HAL_MDMA_IRQHandler
	.syntax unified
	.thumb
	.thumb_func
	.type	HAL_MDMA_IRQHandler, %function
HAL_MDMA_IRQHandler:
.LFB351:
	.loc 1 1505 1 is_stmt 1
	.cfi_startproc
	@ args = 0, pretend = 0, frame = 8
	@ frame_needed = 0, uses_anonymous_args = 0
.LVL191:
	push	{r4, r5, lr}
	.cfi_def_cfa_offset 12
	.cfi_offset 4, -12
	.cfi_offset 5, -8
	.cfi_offset 14, -4
	sub	sp, sp, #12
	.cfi_def_cfa_offset 24
	.loc 1 1506 3
	.loc 1 1506 21 is_stmt 0
	movs	r3, #0
	str	r3, [sp, #4]
	.loc 1 1507 3 is_stmt 1
	.loc 1 1507 38 is_stmt 0
	ldr	r3, .L260
	ldr	r5, [r3]
	.loc 1 1507 12
	ldr	r3, .L260+4
	umull	r3, r5, r3, r5
.LVL192:
	.loc 1 1509 3 is_stmt 1
	.loc 1 1512 3
	.loc 1 1512 45 is_stmt 0
	ldr	r1, [r0]
	.loc 1 1512 56
	ldr	r3, .L260+8
	add	r3, r3, r1
	.loc 1 1512 166
	ubfx	r3, r3, #6, #5
	.loc 1 1512 18
	movs	r2, #1
	lsl	r3, r2, r3
.LVL193:
	.loc 1 1513 3 is_stmt 1
	.loc 1 1513 69 is_stmt 0
	mov	r2, #1375731712
	ldr	r2, [r2]
	.loc 1 1513 5
	tst	r2, r3
	beq	.L239
	mov	r4, r0
	lsrs	r5, r5, #10
.LVL194:
	.loc 1 1519 3 is_stmt 1
	.loc 1 1519 25 is_stmt 0
	ldr	r3, [r1]
.LVL195:
	.loc 1 1519 5
	tst	r3, #1
	beq	.L241
	.loc 1 1521 5 is_stmt 1
	.loc 1 1521 27 is_stmt 0
	ldr	r3, [r1, #12]
	.loc 1 1521 7
	tst	r3, #2
	beq	.L241
	.loc 1 1524 7 is_stmt 1
	.loc 1 1524 25 is_stmt 0
	ldr	r3, [r1, #12]
	.loc 1 1524 31
	bic	r3, r3, #2
	str	r3, [r1, #12]
	.loc 1 1527 7 is_stmt 1
	.loc 1 1527 24 is_stmt 0
	ldr	r2, [r0]
	.loc 1 1527 17
	ldr	r3, [r2, #8]
.LVL196:
	.loc 1 1529 7 is_stmt 1
	.loc 1 1529 9 is_stmt 0
	tst	r3, #128
	bne	.L242
	.loc 1 1532 9 is_stmt 1
	.loc 1 1532 14 is_stmt 0
	ldr	r1, [r0, #104]
.LVL197:
	.loc 1 1532 26
	orr	r1, r1, #1
	str	r1, [r0, #104]
.L243:
	.loc 1 1540 7 is_stmt 1
	.loc 1 1540 9 is_stmt 0
	tst	r3, #512
	beq	.L244
	.loc 1 1543 9 is_stmt 1
	.loc 1 1543 14 is_stmt 0
	ldr	r1, [r4, #104]
	.loc 1 1543 26
	orr	r1, r1, #4
	str	r1, [r4, #104]
.L244:
	.loc 1 1546 7 is_stmt 1
	.loc 1 1546 9 is_stmt 0
	tst	r3, #256
	beq	.L245
	.loc 1 1549 9 is_stmt 1
	.loc 1 1549 14 is_stmt 0
	ldr	r1, [r4, #104]
	.loc 1 1549 26
	orr	r1, r1, #8
	str	r1, [r4, #104]
.L245:
	.loc 1 1552 7 is_stmt 1
	.loc 1 1552 9 is_stmt 0
	tst	r3, #1024
	beq	.L246
	.loc 1 1555 9 is_stmt 1
	.loc 1 1555 14 is_stmt 0
	ldr	r1, [r4, #104]
	.loc 1 1555 26
	orr	r1, r1, #16
	str	r1, [r4, #104]
.L246:
	.loc 1 1558 7 is_stmt 1
	.loc 1 1558 9 is_stmt 0
	tst	r3, #2048
	beq	.L247
	.loc 1 1561 9 is_stmt 1
	.loc 1 1561 14 is_stmt 0
	ldr	r3, [r4, #104]
.LVL198:
	.loc 1 1561 26
	orr	r3, r3, #32
	str	r3, [r4, #104]
.L247:
	.loc 1 1565 7 is_stmt 1
	.loc 1 1565 33 is_stmt 0
	movs	r3, #1
	str	r3, [r2, #4]
.LVL199:
.L241:
	.loc 1 1570 3 is_stmt 1
	.loc 1 1570 15 is_stmt 0
	ldr	r3, [r4]
	.loc 1 1570 25
	ldr	r2, [r3]
	.loc 1 1570 5
	tst	r2, #16
	beq	.L248
	.loc 1 1572 5 is_stmt 1
	.loc 1 1572 27 is_stmt 0
	ldr	r2, [r3, #12]
	.loc 1 1572 7
	tst	r2, #32
	beq	.L248
	.loc 1 1575 7 is_stmt 1
	.loc 1 1575 33 is_stmt 0
	movs	r2, #16
	str	r2, [r3, #4]
	.loc 1 1577 7 is_stmt 1
	.loc 1 1577 15 is_stmt 0
	ldr	r3, [r4, #72]
	.loc 1 1577 9
	cbz	r3, .L248
	.loc 1 1580 9 is_stmt 1
	mov	r0, r4
.LVL200:
	blx	r3
.LVL201:
.L248:
	.loc 1 1586 3
	.loc 1 1586 15 is_stmt 0
	ldr	r3, [r4]
	.loc 1 1586 25
	ldr	r2, [r3]
	.loc 1 1586 5
	tst	r2, #8
	beq	.L249
	.loc 1 1588 5 is_stmt 1
	.loc 1 1588 27 is_stmt 0
	ldr	r2, [r3, #12]
	.loc 1 1588 7
	tst	r2, #16
	beq	.L249
	.loc 1 1591 7 is_stmt 1
	.loc 1 1591 33 is_stmt 0
	movs	r2, #8
	str	r2, [r3, #4]
	.loc 1 1593 7 is_stmt 1
	.loc 1 1593 15 is_stmt 0
	ldr	r3, [r4, #76]
	.loc 1 1593 9
	cbz	r3, .L249
	.loc 1 1596 9 is_stmt 1
	mov	r0, r4
	blx	r3
.LVL202:
.L249:
	.loc 1 1602 3
	.loc 1 1602 15 is_stmt 0
	ldr	r3, [r4]
	.loc 1 1602 25
	ldr	r2, [r3]
	.loc 1 1602 5
	tst	r2, #4
	beq	.L250
	.loc 1 1604 5 is_stmt 1
	.loc 1 1604 27 is_stmt 0
	ldr	r2, [r3, #12]
	.loc 1 1604 7
	tst	r2, #8
	beq	.L250
	.loc 1 1607 7 is_stmt 1
	.loc 1 1607 33 is_stmt 0
	movs	r2, #4
	str	r2, [r3, #4]
	.loc 1 1609 7 is_stmt 1
	.loc 1 1609 15 is_stmt 0
	ldr	r3, [r4, #80]
	.loc 1 1609 9
	cbz	r3, .L250
	.loc 1 1612 9 is_stmt 1
	mov	r0, r4
	blx	r3
.LVL203:
.L250:
	.loc 1 1618 3
	.loc 1 1618 15 is_stmt 0
	ldr	r3, [r4]
	.loc 1 1618 25
	ldr	r2, [r3]
	.loc 1 1618 5
	tst	r2, #2
	beq	.L251
	.loc 1 1620 5 is_stmt 1
	.loc 1 1620 27 is_stmt 0
	ldr	r2, [r3, #12]
	.loc 1 1620 7
	tst	r2, #4
	beq	.L251
	.loc 1 1623 7 is_stmt 1
	.loc 1 1623 25 is_stmt 0
	ldr	r2, [r3, #12]
	.loc 1 1623 31
	bic	r2, r2, #62
	str	r2, [r3, #12]
	.loc 1 1625 7 is_stmt 1
	.loc 1 1625 39 is_stmt 0
	ldrb	r3, [r4, #61]	@ zero_extendqisi2
	uxtb	r3, r3
	.loc 1 1625 9
	cmp	r3, #4
	beq	.L259
	.loc 1 1641 7 is_stmt 1
	.loc 1 1641 15 is_stmt 0
	ldr	r3, [r4]
	.loc 1 1641 33
	movs	r2, #2
	str	r2, [r3, #4]
	.loc 1 1644 7 is_stmt 1
	.loc 1 1644 11
	.loc 1 1644 25 is_stmt 0
	movs	r3, #0
	strb	r3, [r4, #60]
	.loc 1 1644 9 is_stmt 1
	.loc 1 1647 7
	.loc 1 1647 20 is_stmt 0
	movs	r3, #1
	strb	r3, [r4, #61]
	.loc 1 1649 7 is_stmt 1
	.loc 1 1649 15 is_stmt 0
	ldr	r3, [r4, #68]
	.loc 1 1649 9
	cbz	r3, .L251
	.loc 1 1652 9 is_stmt 1
	mov	r0, r4
	blx	r3
.LVL204:
.L251:
	.loc 1 1658 3
	.loc 1 1658 11 is_stmt 0
	ldr	r3, [r4, #104]
	.loc 1 1658 5
	cbz	r3, .L239
	.loc 1 1660 5 is_stmt 1
	.loc 1 1660 18 is_stmt 0
	movs	r3, #4
	strb	r3, [r4, #61]
	.loc 1 1663 5 is_stmt 1
	.loc 1 1663 13 is_stmt 0
	ldr	r2, [r4]
	.loc 1 1663 23
	ldr	r3, [r2, #12]
	.loc 1 1663 29
	bic	r3, r3, #1
	str	r3, [r2, #12]
.L255:
	.loc 1 1665 5 is_stmt 1
	.loc 1 1667 7
	.loc 1 1667 11 is_stmt 0
	ldr	r3, [sp, #4]
	adds	r3, r3, #1
	.loc 1 1667 10
	str	r3, [sp, #4]
	cmp	r3, r5
	bhi	.L254
	.loc 1 1672 52 is_stmt 1
	.loc 1 1672 17 is_stmt 0
	ldr	r3, [r4]
	.loc 1 1672 27
	ldr	r3, [r3, #12]
	.loc 1 1672 52
	tst	r3, #1
	bne	.L255
.L254:
	.loc 1 1675 5 is_stmt 1
	.loc 1 1675 9
	.loc 1 1675 23 is_stmt 0
	movs	r3, #0
	strb	r3, [r4, #60]
	.loc 1 1675 7 is_stmt 1
	.loc 1 1677 5
	.loc 1 1677 14 is_stmt 0
	ldr	r3, [r4]
	.loc 1 1677 24
	ldr	r3, [r3, #12]
	.loc 1 1677 7
	tst	r3, #1
	beq	.L256
	.loc 1 1680 7 is_stmt 1
	.loc 1 1680 20 is_stmt 0
	movs	r3, #3
	strb	r3, [r4, #61]
.L257:
	.loc 1 1689 5 is_stmt 1
	.loc 1 1689 14 is_stmt 0
	ldr	r3, [r4, #84]
	.loc 1 1689 8
	cbz	r3, .L239
	.loc 1 1692 7 is_stmt 1
	mov	r0, r4
	blx	r3
.LVL205:
.L239:
	.loc 1 1695 1 is_stmt 0
	add	sp, sp, #12
	.cfi_remember_state
	.cfi_def_cfa_offset 12
	@ sp needed
	pop	{r4, r5, pc}
.LVL206:
.L242:
	.cfi_restore_state
	.loc 1 1537 9 is_stmt 1
	.loc 1 1537 14 is_stmt 0
	ldr	r1, [r0, #104]
.LVL207:
	.loc 1 1537 26
	orr	r1, r1, #2
	str	r1, [r0, #104]
	b	.L243
.LVL208:
.L259:
	.loc 1 1628 9 is_stmt 1
	.loc 1 1628 13
	.loc 1 1628 27 is_stmt 0
	movs	r3, #0
	strb	r3, [r4, #60]
	.loc 1 1628 11 is_stmt 1
	.loc 1 1631 9
	.loc 1 1631 22 is_stmt 0
	movs	r3, #1
	strb	r3, [r4, #61]
	.loc 1 1633 9 is_stmt 1
	.loc 1 1633 17 is_stmt 0
	ldr	r3, [r4, #88]
	.loc 1 1633 11
	cmp	r3, #0
	beq	.L239
	.loc 1 1635 11 is_stmt 1
	mov	r0, r4
	blx	r3
.LVL209:
	.loc 1 1637 9
	b	.L239
.L256:
	.loc 1 1685 7
	.loc 1 1685 20 is_stmt 0
	movs	r3, #1
	strb	r3, [r4, #61]
	b	.L257
.L261:
	.align	2
.L260:
	.word	SystemCoreClock
	.word	458129845
	.word	-1375731776
	.cfi_endproc
.LFE351:
	.size	HAL_MDMA_IRQHandler, .-HAL_MDMA_IRQHandler
	.section	.text.HAL_MDMA_GetState,"ax",%progbits
	.align	1
	.global	HAL_MDMA_GetState
	.syntax unified
	.thumb
	.thumb_func
	.type	HAL_MDMA_GetState, %function
HAL_MDMA_GetState:
.LFB352:
	.loc 1 1723 1 is_stmt 1
	.cfi_startproc
	@ args = 0, pretend = 0, frame = 0
	@ frame_needed = 0, uses_anonymous_args = 0
	@ link register save eliminated.
.LVL210:
	.loc 1 1724 3
	.loc 1 1724 15 is_stmt 0
	ldrb	r0, [r0, #61]	@ zero_extendqisi2
.LVL211:
	.loc 1 1725 1
	bx	lr
	.cfi_endproc
.LFE352:
	.size	HAL_MDMA_GetState, .-HAL_MDMA_GetState
	.section	.text.HAL_MDMA_GetError,"ax",%progbits
	.align	1
	.global	HAL_MDMA_GetError
	.syntax unified
	.thumb
	.thumb_func
	.type	HAL_MDMA_GetError, %function
HAL_MDMA_GetError:
.LFB353:
	.loc 1 1734 1 is_stmt 1
	.cfi_startproc
	@ args = 0, pretend = 0, frame = 0
	@ frame_needed = 0, uses_anonymous_args = 0
	@ link register save eliminated.
.LVL212:
	.loc 1 1735 3
	.loc 1 1735 15 is_stmt 0
	ldr	r0, [r0, #104]
.LVL213:
	.loc 1 1736 1
	bx	lr
	.cfi_endproc
.LFE353:
	.size	HAL_MDMA_GetError, .-HAL_MDMA_GetError
	.text
.Letext0:
	.file 2 "m:\\noinstall\\arm-gnu-toolchain-12.2.rel1-mingw-w64-i686-arm-none-eabi\\arm-none-eabi\\include\\machine\\_default_types.h"
	.file 3 "m:\\noinstall\\arm-gnu-toolchain-12.2.rel1-mingw-w64-i686-arm-none-eabi\\arm-none-eabi\\include\\sys\\_stdint.h"
	.file 4 "D:/RTOS/Board/YD-STM32H7xxVx_ClassicV19/cmake-build-debug/_deps/stm32h7xx_cmsis_device-src/Include/stm32h743xx.h"
	.file 5 "D:/RTOS/Board/YD-STM32H7xxVx_ClassicV19/cmake-build-debug/_deps/stm32h7xx_hal_driver-src/Inc/stm32h7xx_hal_def.h"
	.file 6 "D:/RTOS/Board/YD-STM32H7xxVx_ClassicV19/cmake-build-debug/_deps/stm32h7xx_hal_driver-src/Inc/stm32h7xx_hal_mdma.h"
	.file 7 "D:/RTOS/Board/YD-STM32H7xxVx_ClassicV19/cmake-build-debug/_deps/stm32h7xx_cmsis_device-src/Include/system_stm32h7xx.h"
	.file 8 "D:/RTOS/Board/YD-STM32H7xxVx_ClassicV19/cmake-build-debug/_deps/stm32h7xx_hal_driver-src/Inc/stm32h7xx_hal.h"