	.cpu cortex-m7
	.arch armv7e-m
	.fpu fpv5-d16
	.eabi_attribute 28, 1
	.eabi_attribute 20, 1
	.eabi_attribute 21, 1
	.eabi_attribute 23, 3
	.eabi_attribute 24, 1
	.eabi_attribute 25, 1
	.eabi_attribute 26, 1
	.eabi_attribute 30, 1
	.eabi_attribute 34, 1
	.eabi_attribute 18, 4
	.file	"stm32h7xx_ll_fmc.c"
	.text
.Ltext0:
	.cfi_sections	.debug_frame
	.file 1 "D:/RTOS/Board/YD-STM32H7xxVx_ClassicV19/cmake-build-debug/_deps/stm32h7xx_hal_driver-src/Src/stm32h7xx_ll_fmc.c"
	.section	.text.FMC_NORSRAM_Init,"ax",%progbits
	.align	1
	.global	FMC_NORSRAM_Init
	.syntax unified
	.thumb
	.thumb_func
	.type	FMC_NORSRAM_Init, %function
FMC_NORSRAM_Init:
.LFB335:
	.loc 1 192 1
	.cfi_startproc
	@ args = 0, pretend = 0, frame = 0
	@ frame_needed = 0, uses_anonymous_args = 0
	@ link register save eliminated.
.LVL0:
	push	{r4, r5}
	.cfi_def_cfa_offset 8
	.cfi_offset 4, -8
	.cfi_offset 5, -4
	.loc 1 193 3
	.loc 1 194 3
	.loc 1 195 3
	.loc 1 198 3
	.loc 1 199 3
	.loc 1 200 3
	.loc 1 201 3
	.loc 1 202 3
	.loc 1 203 3
	.loc 1 204 3
	.loc 1 205 3
	.loc 1 206 3
	.loc 1 207 3
	.loc 1 208 3
	.loc 1 209 3
	.loc 1 210 3
	.loc 1 211 3
	.loc 1 212 3
	.loc 1 213 3
	.loc 1 216 3
	.loc 1 216 24 is_stmt 0
	ldr	r2, [r1]
	.loc 1 216 18
	ldr	r3, [r0, r2, lsl #2]
	.loc 1 216 35
	bic	r3, r3, #1
	str	r3, [r0, r2, lsl #2]
	.loc 1 219 3 is_stmt 1
	.loc 1 219 11 is_stmt 0
	ldr	r3, [r1, #8]
	.loc 1 219 6
	cmp	r3, #8
	beq	.L7
	.loc 1 225 17
	movs	r4, #0
.L2:
.LVL1:
	.loc 1 228 3 is_stmt 1
	.loc 1 229 19 is_stmt 0
	ldr	r2, [r1, #4]
	.loc 1 228 27
	orrs	r2, r2, r4
	.loc 1 229 36
	orrs	r3, r3, r2
	.loc 1 231 19
	ldr	r2, [r1, #12]
	.loc 1 230 32
	orrs	r3, r3, r2
	.loc 1 232 19
	ldr	r2, [r1, #16]
	.loc 1 231 37
	orrs	r3, r3, r2
	.loc 1 233 19
	ldr	r2, [r1, #20]
	.loc 1 232 37
	orrs	r3, r3, r2
	.loc 1 234 19
	ldr	r2, [r1, #24]
	.loc 1 233 40
	orrs	r3, r3, r2
	.loc 1 235 19
	ldr	r2, [r1, #28]
	.loc 1 234 38
	orrs	r3, r3, r2
	.loc 1 236 19
	ldr	r2, [r1, #32]
	.loc 1 235 36
	orrs	r3, r3, r2
	.loc 1 237 19
	ldr	r2, [r1, #36]
	.loc 1 236 32
	orrs	r3, r3, r2
	.loc 1 238 19
	ldr	r2, [r1, #40]
	.loc 1 237 34
	orrs	r3, r3, r2
	.loc 1 239 19
	ldr	r2, [r1, #44]
	.loc 1 228 12
	orrs	r3, r3, r2
.LVL2:
	.loc 1 241 3 is_stmt 1
	.loc 1 241 19 is_stmt 0
	ldr	r2, [r1, #48]
	.loc 1 241 12
	orrs	r2, r2, r3
.LVL3:
	.loc 1 242 3 is_stmt 1
	.loc 1 242 19 is_stmt 0
	ldr	r3, [r1, #52]
	.loc 1 242 12
	orrs	r2, r2, r3
.LVL4:
	.loc 1 243 3 is_stmt 1
	.loc 1 243 19 is_stmt 0
	ldr	r3, [r1, #56]
	.loc 1 243 12
	orrs	r2, r2, r3
.LVL5:
	.loc 1 245 3 is_stmt 1
	.loc 1 259 3
	.loc 1 260 3
	.loc 1 261 3
	.loc 1 263 3
	.loc 1 263 60 is_stmt 0
	ldr	r4, [r1]
.LVL6:
	.loc 1 263 55
	ldr	r5, [r0, r4, lsl #2]
	.loc 1 263 73
	ldr	r3, .L9
	ands	r3, r3, r5
	.loc 1 263 86
	orrs	r3, r3, r2
	.loc 1 263 35
	str	r3, [r0, r4, lsl #2]
	.loc 1 266 3 is_stmt 1
	.loc 1 266 12 is_stmt 0
	ldr	r3, [r1, #48]
	.loc 1 266 6
	cmp	r3, #1048576
	beq	.L8
.LVL7:
.L3:
	.loc 1 271 3 is_stmt 1
	.loc 1 271 11 is_stmt 0
	ldr	r3, [r1]
	.loc 1 271 6
	cbz	r3, .L4
	.loc 1 274 5 is_stmt 1
	.loc 1 274 19 is_stmt 0
	ldr	r3, [r0]
	.loc 1 274 55
	ldr	r2, [r1, #52]
	.loc 1 274 36
	orrs	r3, r3, r2
	str	r3, [r0]
.L4:
	.loc 1 277 3 is_stmt 1
	.loc 1 278 1 is_stmt 0
	movs	r0, #0
.LVL8:
	pop	{r4, r5}
	.cfi_remember_state
	.cfi_restore 5
	.cfi_restore 4
	.cfi_def_cfa_offset 0
	bx	lr
.LVL9:
.L7:
	.cfi_restore_state
	.loc 1 221 17
	movs	r4, #64
	b	.L2
.LVL10:
.L8:
	.loc 1 266 56 discriminator 1
	ldr	r2, [r1]
.LVL11:
	.loc 1 266 48 discriminator 1
	cmp	r2, #0
	beq	.L3
	.loc 1 268 5 is_stmt 1
	.loc 1 268 58 is_stmt 0
	ldr	r2, [r0]
	.loc 1 268 77
	bic	r2, r2, #1048576
	.loc 1 268 102
	orrs	r3, r3, r2
	.loc 1 268 38
	str	r3, [r0]
	b	.L3
.L10:
	.align	2
.L9:
	.word	-4193152
	.cfi_endproc
.LFE335:
	.size	FMC_NORSRAM_Init, .-FMC_NORSRAM_Init
	.section	.text.FMC_NORSRAM_DeInit,"ax",%progbits
	.align	1
	.global	FMC_NORSRAM_DeInit
	.syntax unified
	.thumb
	.thumb_func
	.type	FMC_NORSRAM_DeInit, %function
FMC_NORSRAM_DeInit:
.LFB336:
	.loc 1 289 1 is_stmt 1
	.cfi_startproc
	@ args = 0, pretend = 0, frame = 0
	@ frame_needed = 0, uses_anonymous_args = 0
	@ link register save eliminated.
.LVL12:
	.loc 1 291 3
	.loc 1 292 3
	.loc 1 293 3
	.loc 1 296 3
	.loc 1 296 18 is_stmt 0
	ldr	r3, [r0, r2, lsl #2]
	.loc 1 296 27
	bic	r3, r3, #1
	str	r3, [r0, r2, lsl #2]
	.loc 1 300 3 is_stmt 1
	.loc 1 300 6 is_stmt 0
	cbnz	r2, .L12
	.loc 1 302 5 is_stmt 1
	.loc 1 302 24 is_stmt 0
	movw	r3, #12507
	str	r3, [r0, r2, lsl #2]
.L13:
	.loc 1 310 3 is_stmt 1
	.loc 1 310 21 is_stmt 0
	add	ip, r2, #1
	.loc 1 310 27
	mvn	r3, #-268435456
	str	r3, [r0, ip, lsl #2]
	.loc 1 311 3 is_stmt 1
	.loc 1 311 24 is_stmt 0
	str	r3, [r1, r2, lsl #2]
	.loc 1 313 3 is_stmt 1
	.loc 1 314 1 is_stmt 0
	movs	r0, #0
.LVL13:
	bx	lr
.LVL14:
.L12:
	.loc 1 307 5 is_stmt 1
	.loc 1 307 24 is_stmt 0
	movw	r3, #12498
	str	r3, [r0, r2, lsl #2]
	b	.L13
	.cfi_endproc
.LFE336:
	.size	FMC_NORSRAM_DeInit, .-FMC_NORSRAM_DeInit
	.section	.text.FMC_NORSRAM_Timing_Init,"ax",%progbits
	.align	1
	.global	FMC_NORSRAM_Timing_Init
	.syntax unified
	.thumb
	.thumb_func
	.type	FMC_NORSRAM_Timing_Init, %function
FMC_NORSRAM_Timing_Init:
.LFB337:
	.loc 1 326 1 is_stmt 1
	.cfi_startproc
	@ args = 0, pretend = 0, frame = 0
	@ frame_needed = 0, uses_anonymous_args = 0
.LVL15:
	push	{r4, lr}
	.cfi_def_cfa_offset 8
	.cfi_offset 4, -8
	.cfi_offset 14, -4
	.loc 1 327 3
	.loc 1 330 3
	.loc 1 331 3
	.loc 1 332 3
	.loc 1 333 3
	.loc 1 334 3
	.loc 1 335 3
	.loc 1 336 3
	.loc 1 337 3
	.loc 1 338 3
	.loc 1 341 3
	.loc 1 341 58 is_stmt 0
	adds	r2, r2, #1
.LVL16:
	.loc 1 341 52
	ldr	r3, [r0, r2, lsl #2]
	.loc 1 341 67
	and	ip, r3, #-1073741824
	.loc 1 341 228
	ldr	r3, [r1]
	.loc 1 341 247
	ldr	r4, [r1, #4]
	orr	r3, r3, r4, lsl #4
	.loc 1 341 285
	ldr	r4, [r1, #8]
	orr	r3, r3, r4, lsl #8
	.loc 1 341 321
	ldr	r4, [r1, #12]
	orr	r3, r3, r4, lsl #16
	.loc 1 341 392
	ldr	r4, [r1, #16]
	add	lr, r4, #-1
	.loc 1 341 366
	orr	r3, r3, lr, lsl #20
	.loc 1 341 434
	ldr	r4, [r1, #20]
	sub	lr, r4, #2
	.loc 1 341 408
	orr	r3, r3, lr, lsl #24
	.loc 1 341 450
	ldr	r4, [r1, #24]
	orrs	r3, r3, r4
	.loc 1 341 218
	orr	r3, ip, r3
	.loc 1 341 32
	str	r3, [r0, r2, lsl #2]
	.loc 1 350 3 is_stmt 1
	.loc 1 350 22 is_stmt 0
	ldr	r3, [r0]
	.loc 1 350 6
	tst	r3, #1048576
	beq	.L15
	.loc 1 352 5 is_stmt 1
	.loc 1 352 35 is_stmt 0
	ldr	r2, [r0, #4]
.LVL17:
	.loc 1 352 10
	bic	r2, r2, #15728640
.LVL18:
	.loc 1 353 5 is_stmt 1
	.loc 1 353 32 is_stmt 0
	ldr	r3, [r1, #16]
	.loc 1 353 47
	subs	r3, r3, #1
	.loc 1 353 10
	orr	r2, r2, r3, lsl #20
.LVL19:
	.loc 1 354 5 is_stmt 1
	.loc 1 354 63 is_stmt 0
	ldr	r3, [r0, #4]
	.loc 1 354 87
	bic	r3, r3, #15728640
	.loc 1 354 112
	orrs	r3, r3, r2
	.loc 1 354 43
	str	r3, [r0, #4]
.LVL20:
.L15:
	.loc 1 357 3 is_stmt 1
	.loc 1 358 1 is_stmt 0
	movs	r0, #0
.LVL21:
	pop	{r4, pc}
	.cfi_endproc
.LFE337:
	.size	FMC_NORSRAM_Timing_Init, .-FMC_NORSRAM_Timing_Init
	.section	.text.FMC_NORSRAM_Extended_Timing_Init,"ax",%progbits
	.align	1
	.global	FMC_NORSRAM_Extended_Timing_Init
	.syntax unified
	.thumb
	.thumb_func
	.type	FMC_NORSRAM_Extended_Timing_Init, %function
FMC_NORSRAM_Extended_Timing_Init:
.LFB338:
	.loc 1 375 1 is_stmt 1
	.cfi_startproc
	@ args = 0, pretend = 0, frame = 0
	@ frame_needed = 0, uses_anonymous_args = 0
	@ link register save eliminated.
.LVL22:
	.loc 1 377 3
	.loc 1 380 3
	.loc 1 380 6 is_stmt 0
	cmp	r3, #16384
	beq	.L24
	.loc 1 400 5 is_stmt 1
	.loc 1 400 24 is_stmt 0
	mvn	r3, #-268435456
.LVL23:
	str	r3, [r0, r2, lsl #2]
	.loc 1 403 3 is_stmt 1
	.loc 1 404 1 is_stmt 0
	movs	r0, #0
.LVL24:
	bx	lr
.LVL25:
.L24:
	.loc 1 375 1
	push	{r4, r5}
	.cfi_def_cfa_offset 8
	.cfi_offset 4, -8
	.cfi_offset 5, -4
	.loc 1 383 5 is_stmt 1
	.loc 1 384 5
	.loc 1 385 5
	.loc 1 386 5
	.loc 1 387 5
	.loc 1 388 5
	.loc 1 389 5
	.loc 1 392 5
	.loc 1 392 49 is_stmt 0
	ldr	r3, [r0, r2, lsl #2]
.LVL26:
	.loc 1 392 59
	ldr	r4, .L25
	ands	r4, r4, r3
	.loc 1 392 182
	ldr	r3, [r1]
	.loc 1 392 201
	ldr	r5, [r1, #4]
	orr	r3, r3, r5, lsl #4
	.loc 1 392 239
	ldr	r5, [r1, #8]
	orr	r3, r3, r5, lsl #8
	.loc 1 392 275
	ldr	r5, [r1, #24]
	orrs	r3, r3, r5
	.loc 1 392 306
	ldr	r1, [r1, #12]
.LVL27:
	.loc 1 392 296
	orr	r3, r3, r1, lsl #16
	.loc 1 392 172
	orrs	r4, r4, r3
	.loc 1 392 29
	str	r4, [r0, r2, lsl #2]
	.loc 1 403 3 is_stmt 1
	.loc 1 404 1 is_stmt 0
	movs	r0, #0
.LVL28:
	pop	{r4, r5}
	.cfi_restore 5
	.cfi_restore 4
	.cfi_def_cfa_offset 0
	bx	lr
.L26:
	.align	2
.L25:
	.word	-806354944
	.cfi_endproc
.LFE338:
	.size	FMC_NORSRAM_Extended_Timing_Init, .-FMC_NORSRAM_Extended_Timing_Init
	.section	.text.FMC_NORSRAM_WriteOperation_Enable,"ax",%progbits
	.align	1
	.global	FMC_NORSRAM_WriteOperation_Enable
	.syntax unified
	.thumb
	.thumb_func
	.type	FMC_NORSRAM_WriteOperation_Enable, %function
FMC_NORSRAM_WriteOperation_Enable:
.LFB339:
	.loc 1 431 1 is_stmt 1
	.cfi_startproc
	@ args = 0, pretend = 0, frame = 0
	@ frame_needed = 0, uses_anonymous_args = 0
	@ link register save eliminated.
.LVL29:
	.loc 1 433 3
	.loc 1 434 3
	.loc 1 437 3
	.loc 1 437 17 is_stmt 0
	ldr	r3, [r0, r1, lsl #2]
	.loc 1 437 25
	orr	r3, r3, #4096
	str	r3, [r0, r1, lsl #2]
	.loc 1 439 3 is_stmt 1
	.loc 1 440 1 is_stmt 0
	movs	r0, #0
.LVL30:
	bx	lr
	.cfi_endproc
.LFE339:
	.size	FMC_NORSRAM_WriteOperation_Enable, .-FMC_NORSRAM_WriteOperation_Enable
	.section	.text.FMC_NORSRAM_WriteOperation_Disable,"ax",%progbits
	.align	1
	.global	FMC_NORSRAM_WriteOperation_Disable
	.syntax unified
	.thumb
	.thumb_func
	.type	FMC_NORSRAM_WriteOperation_Disable, %function
FMC_NORSRAM_WriteOperation_Disable:
.LFB340:
	.loc 1 449 1 is_stmt 1
	.cfi_startproc
	@ args = 0, pretend = 0, frame = 0
	@ frame_needed = 0, uses_anonymous_args = 0
	@ link register save eliminated.
.LVL31:
	.loc 1 451 3
	.loc 1 452 3
	.loc 1 455 3
	.loc 1 455 17 is_stmt 0
	ldr	r3, [r0, r1, lsl #2]
	.loc 1 455 25
	bic	r3, r3, #4096
	str	r3, [r0, r1, lsl #2]
	.loc 1 457 3 is_stmt 1
	.loc 1 458 1 is_stmt 0
	movs	r0, #0
.LVL32:
	bx	lr
	.cfi_endproc
.LFE340:
	.size	FMC_NORSRAM_WriteOperation_Disable, .-FMC_NORSRAM_WriteOperation_Disable
	.section	.text.FMC_NAND_Init,"ax",%progbits
	.align	1
	.global	FMC_NAND_Init
	.syntax unified
	.thumb
	.thumb_func
	.type	FMC_NAND_Init, %function
FMC_NAND_Init:
.LFB341:
	.loc 1 519 1 is_stmt 1
	.cfi_startproc
	@ args = 0, pretend = 0, frame = 0
	@ frame_needed = 0, uses_anonymous_args = 0
	@ link register save eliminated.
.LVL33:
	push	{r4}
	.cfi_def_cfa_offset 4
	.cfi_offset 4, -4
	.loc 1 521 3
	.loc 1 522 3
	.loc 1 523 3
	.loc 1 524 3
	.loc 1 525 3
	.loc 1 526 3
	.loc 1 527 3
	.loc 1 528 3
	.loc 1 531 3
	.loc 1 531 34 is_stmt 0
	ldr	r3, [r0]
	.loc 1 531 43
	ldr	r2, .L31
	ands	r2, r2, r3
	.loc 1 531 199
	ldr	r3, [r1, #4]
	.loc 1 531 229
	ldr	r4, [r1, #8]
	orrs	r3, r3, r4
	.loc 1 531 253
	ldr	r4, [r1, #12]
	orrs	r3, r3, r4
	.loc 1 531 276
	ldr	r4, [r1, #16]
	orrs	r3, r3, r4
	.loc 1 531 296
	ldr	r4, [r1, #20]
	orr	r3, r3, r4, lsl #9
	.loc 1 531 338
	ldr	r1, [r1, #24]
.LVL34:
	.loc 1 531 330
	orr	r3, r3, r1, lsl #13
	.loc 1 531 191
	orrs	r2, r2, r3
	orr	r2, r2, #8
	.loc 1 531 20
	str	r2, [r0]
	.loc 1 539 3 is_stmt 1
	.loc 1 540 1 is_stmt 0
	movs	r0, #0
.LVL35:
	ldr	r4, [sp], #4
	.cfi_restore 4
	.cfi_def_cfa_offset 0
	bx	lr
.L32:
	.align	2
.L31:
	.word	-1048183
	.cfi_endproc
.LFE341:
	.size	FMC_NAND_Init, .-FMC_NAND_Init
	.section	.text.FMC_NAND_CommonSpace_Timing_Init,"ax",%progbits
	.align	1
	.global	FMC_NAND_CommonSpace_Timing_Init
	.syntax unified
	.thumb
	.thumb_func
	.type	FMC_NAND_CommonSpace_Timing_Init, %function
FMC_NAND_CommonSpace_Timing_Init:
.LFB342:
	.loc 1 552 1 is_stmt 1
	.cfi_startproc
	@ args = 0, pretend = 0, frame = 0
	@ frame_needed = 0, uses_anonymous_args = 0
	@ link register save eliminated.
.LVL36:
	.loc 1 554 3
	.loc 1 555 3
	.loc 1 556 3
	.loc 1 557 3
	.loc 1 558 3
	.loc 1 559 3
	.loc 1 562 3
	.loc 1 565 3
	.loc 1 565 35 is_stmt 0
	ldr	r3, [r0, #8]
	.loc 1 565 153
	ldr	r3, [r1]
	.loc 1 565 175
	ldr	r2, [r1, #4]
.LVL37:
	.loc 1 565 165
	orr	r3, r3, r2, lsl #8
	.loc 1 565 211
	ldr	r2, [r1, #8]
	.loc 1 565 201
	orr	r3, r3, r2, lsl #16
	.loc 1 565 248
	ldr	r2, [r1, #12]
	.loc 1 565 238
	orr	r3, r3, r2, lsl #24
	.loc 1 565 21
	str	r3, [r0, #8]
	.loc 1 570 3 is_stmt 1
	.loc 1 571 1 is_stmt 0
	movs	r0, #0
.LVL38:
	bx	lr
	.cfi_endproc
.LFE342:
	.size	FMC_NAND_CommonSpace_Timing_Init, .-FMC_NAND_CommonSpace_Timing_Init
	.section	.text.FMC_NAND_AttributeSpace_Timing_Init,"ax",%progbits
	.align	1
	.global	FMC_NAND_AttributeSpace_Timing_Init
	.syntax unified
	.thumb
	.thumb_func
	.type	FMC_NAND_AttributeSpace_Timing_Init, %function
FMC_NAND_AttributeSpace_Timing_Init:
.LFB343:
	.loc 1 583 1 is_stmt 1
	.cfi_startproc
	@ args = 0, pretend = 0, frame = 0
	@ frame_needed = 0, uses_anonymous_args = 0
	@ link register save eliminated.
.LVL39:
	.loc 1 585 3
	.loc 1 586 3
	.loc 1 587 3
	.loc 1 588 3
	.loc 1 589 3
	.loc 1 590 3
	.loc 1 593 3
	.loc 1 596 3
	.loc 1 596 35 is_stmt 0
	ldr	r3, [r0, #12]
	.loc 1 596 153
	ldr	r3, [r1]
	.loc 1 596 175
	ldr	r2, [r1, #4]
.LVL40:
	.loc 1 596 165
	orr	r3, r3, r2, lsl #8
	.loc 1 596 211
	ldr	r2, [r1, #8]
	.loc 1 596 201
	orr	r3, r3, r2, lsl #16
	.loc 1 596 248
	ldr	r2, [r1, #12]
	.loc 1 596 238
	orr	r3, r3, r2, lsl #24
	.loc 1 596 21
	str	r3, [r0, #12]
	.loc 1 601 3 is_stmt 1
	.loc 1 602 1 is_stmt 0
	movs	r0, #0
.LVL41:
	bx	lr
	.cfi_endproc
.LFE343:
	.size	FMC_NAND_AttributeSpace_Timing_Init, .-FMC_NAND_AttributeSpace_Timing_Init
	.section	.text.FMC_NAND_DeInit,"ax",%progbits
	.align	1
	.global	FMC_NAND_DeInit
	.syntax unified
	.thumb
	.thumb_func
	.type	FMC_NAND_DeInit, %function
FMC_NAND_DeInit:
.LFB344:
	.loc 1 611 1 is_stmt 1
	.cfi_startproc
	@ args = 0, pretend = 0, frame = 0
	@ frame_needed = 0, uses_anonymous_args = 0
	@ link register save eliminated.
.LVL42:
	.loc 1 613 3
	.loc 1 614 3
	.loc 1 617 3
	.loc 1 617 13 is_stmt 0
	ldr	r3, [r0]
	.loc 1 617 20
	bic	r3, r3, #4
	str	r3, [r0]
	.loc 1 621 3 is_stmt 1
	.loc 1 624 3
	.loc 1 624 18 is_stmt 0
	movs	r3, #24
	str	r3, [r0]
	.loc 1 625 3 is_stmt 1
	.loc 1 625 17 is_stmt 0
	movs	r3, #64
	str	r3, [r0, #4]
	.loc 1 626 3 is_stmt 1
	.loc 1 626 19 is_stmt 0
	mov	r3, #-50529028
	str	r3, [r0, #8]
	.loc 1 627 3 is_stmt 1
	.loc 1 627 19 is_stmt 0
	str	r3, [r0, #12]
	.loc 1 629 3 is_stmt 1
	.loc 1 630 1 is_stmt 0
	movs	r0, #0
.LVL43:
	bx	lr
	.cfi_endproc
.LFE344:
	.size	FMC_NAND_DeInit, .-FMC_NAND_DeInit
	.section	.text.FMC_NAND_ECC_Enable,"ax",%progbits
	.align	1
	.global	FMC_NAND_ECC_Enable
	.syntax unified
	.thumb
	.thumb_func
	.type	FMC_NAND_ECC_Enable, %function
FMC_NAND_ECC_Enable:
.LFB345:
	.loc 1 659 1 is_stmt 1
	.cfi_startproc
	@ args = 0, pretend = 0, frame = 0
	@ frame_needed = 0, uses_anonymous_args = 0
	@ link register save eliminated.
.LVL44:
	.loc 1 661 3
	.loc 1 662 3
	.loc 1 666 3
	.loc 1 668 3
	.loc 1 668 11 is_stmt 0
	ldr	r3, [r0]
	.loc 1 668 18
	orr	r3, r3, #64
	str	r3, [r0]
	.loc 1 670 3 is_stmt 1
	.loc 1 671 1 is_stmt 0
	movs	r0, #0
.LVL45:
	bx	lr
	.cfi_endproc
.LFE345:
	.size	FMC_NAND_ECC_Enable, .-FMC_NAND_ECC_Enable
	.section	.text.FMC_NAND_ECC_Disable,"ax",%progbits
	.align	1
	.global	FMC_NAND_ECC_Disable
	.syntax unified
	.thumb
	.thumb_func
	.type	FMC_NAND_ECC_Disable, %function
FMC_NAND_ECC_Disable:
.LFB346:
	.loc 1 681 1 is_stmt 1
	.cfi_startproc
	@ args = 0, pretend = 0, frame = 0
	@ frame_needed = 0, uses_anonymous_args = 0
	@ link register save eliminated.
.LVL46:
	.loc 1 683 3
	.loc 1 684 3
	.loc 1 688 3
	.loc 1 690 3
	.loc 1 690 11 is_stmt 0
	ldr	r3, [r0]
	.loc 1 690 18
	bic	r3, r3, #64
	str	r3, [r0]
	.loc 1 692 3 is_stmt 1
	.loc 1 693 1 is_stmt 0
	movs	r0, #0
.LVL47:
	bx	lr
	.cfi_endproc
.LFE346:
	.size	FMC_NAND_ECC_Disable, .-FMC_NAND_ECC_Disable
	.section	.text.FMC_NAND_GetECC,"ax",%progbits
	.align	1
	.global	FMC_NAND_GetECC
	.syntax unified
	.thumb
	.thumb_func
	.type	FMC_NAND_GetECC, %function
FMC_NAND_GetECC:
.LFB347:
	.loc 1 705 1 is_stmt 1
	.cfi_startproc
	@ args = 0, pretend = 0, frame = 0
	@ frame_needed = 0, uses_anonymous_args = 0
.LVL48:
	push	{r3, r4, r5, r6, r7, lr}
	.cfi_def_cfa_offset 24
	.cfi_offset 3, -24
	.cfi_offset 4, -20
	.cfi_offset 5, -16
	.cfi_offset 6, -12
	.cfi_offset 7, -8
	.cfi_offset 14, -4
	mov	r4, r0
	mov	r6, r1
	mov	r5, r3
	.loc 1 706 3
	.loc 1 709 3
	.loc 1 710 3
	.loc 1 713 3
	.loc 1 713 15 is_stmt 0
	bl	HAL_GetTick
.LVL49:
	mov	r7, r0
.LVL50:
	.loc 1 716 3 is_stmt 1
.L40:
	.loc 1 716 63
	.loc 1 716 20 is_stmt 0
	ldr	r2, [r4, #4]
	.loc 1 716 63
	tst	r2, #64
	bne	.L46
	.loc 1 719 5 is_stmt 1
	.loc 1 719 8 is_stmt 0
	cmp	r5, #-1
	beq	.L40
	.loc 1 721 7 is_stmt 1
	.loc 1 721 13 is_stmt 0
	bl	HAL_GetTick
.LVL51:
	.loc 1 721 27
	subs	r0, r0, r7
	.loc 1 721 10
	cmp	r0, r5
	bhi	.L43
	.loc 1 721 51 discriminator 1
	cmp	r5, #0
	bne	.L40
	.loc 1 723 16
	movs	r0, #3
	b	.L41
.L46:
	.loc 1 729 3 is_stmt 1
	.loc 1 732 3
	.loc 1 732 29 is_stmt 0
	ldr	r3, [r4, #20]
	.loc 1 732 11
	str	r3, [r6]
	.loc 1 734 3 is_stmt 1
	.loc 1 734 10 is_stmt 0
	movs	r0, #0
.L41:
	.loc 1 735 1
	pop	{r3, r4, r5, r6, r7, pc}
.LVL52:
.L43:
	.loc 1 723 16
	movs	r0, #3
	b	.L41
	.cfi_endproc
.LFE347:
	.size	FMC_NAND_GetECC, .-FMC_NAND_GetECC
	.section	.text.FMC_SDRAM_Init,"ax",%progbits
	.align	1
	.global	FMC_SDRAM_Init
	.syntax unified
	.thumb
	.thumb_func
	.type	FMC_SDRAM_Init, %function
FMC_SDRAM_Init:
.LFB348:
	.loc 1 790 1 is_stmt 1
	.cfi_startproc
	@ args = 0, pretend = 0, frame = 0
	@ frame_needed = 0, uses_anonymous_args = 0
	@ link register save eliminated.
.LVL53:
	push	{r4}
	.cfi_def_cfa_offset 4
	.cfi_offset 4, -4
	.loc 1 792 3
	.loc 1 793 3
	.loc 1 794 3
	.loc 1 795 3
	.loc 1 796 3
	.loc 1 797 3
	.loc 1 798 3
	.loc 1 799 3
	.loc 1 800 3
	.loc 1 801 3
	.loc 1 802 3
	.loc 1 805 3
	.loc 1 805 11 is_stmt 0
	ldr	r3, [r1]
	.loc 1 805 6
	cbnz	r3, .L48
	.loc 1 807 5 is_stmt 1
	.loc 1 807 58 is_stmt 0
	ldr	r3, [r0]
	.loc 1 807 77
	ldr	r2, .L51
	ands	r2, r2, r3
	.loc 1 807 270
	ldr	r3, [r1, #4]
	.loc 1 807 289
	ldr	r4, [r1, #8]
	orrs	r3, r3, r4
	.loc 1 807 311
	ldr	r4, [r1, #12]
	orrs	r3, r3, r4
	.loc 1 807 335
	ldr	r4, [r1, #16]
	orrs	r3, r3, r4
	.loc 1 807 362
	ldr	r4, [r1, #20]
	orrs	r3, r3, r4
	.loc 1 807 381
	ldr	r4, [r1, #24]
	orrs	r3, r3, r4
	.loc 1 807 405
	ldr	r4, [r1, #28]
	orrs	r3, r3, r4
	.loc 1 807 427
	ldr	r4, [r1, #32]
	orrs	r3, r3, r4
	.loc 1 807 451
	ldr	r1, [r1, #36]
.LVL54:
	.loc 1 807 445
	orrs	r3, r3, r1
	.loc 1 807 262
	orrs	r2, r2, r3
	.loc 1 807 38
	str	r2, [r0]
.L49:
	.loc 1 839 3 is_stmt 1
	.loc 1 840 1 is_stmt 0
	movs	r0, #0
.LVL55:
	ldr	r4, [sp], #4
	.cfi_remember_state
	.cfi_restore 4
	.cfi_def_cfa_offset 0
	bx	lr
.LVL56:
.L48:
	.cfi_restore_state
	.loc 1 821 5 is_stmt 1
	.loc 1 821 58 is_stmt 0
	ldr	r3, [r0]
	.loc 1 821 77
	bic	r3, r3, #31744
	.loc 1 821 148
	ldr	r2, [r1, #28]
	.loc 1 821 164
	ldr	r4, [r1, #32]
	orrs	r2, r2, r4
	.loc 1 821 182
	ldr	r4, [r1, #36]
	orrs	r2, r2, r4
	.loc 1 821 140
	orrs	r3, r3, r2
	.loc 1 821 38
	str	r3, [r0]
	.loc 1 829 5 is_stmt 1
	.loc 1 829 58 is_stmt 0
	ldr	r3, [r0, #4]
	.loc 1 829 77
	ldr	r2, .L51
	ands	r2, r2, r3
	.loc 1 829 270
	ldr	r3, [r1, #4]
	.loc 1 829 289
	ldr	r4, [r1, #8]
	orrs	r3, r3, r4
	.loc 1 829 311
	ldr	r4, [r1, #12]
	orrs	r3, r3, r4
	.loc 1 829 335
	ldr	r4, [r1, #16]
	orrs	r3, r3, r4
	.loc 1 829 362
	ldr	r4, [r1, #20]
	orrs	r3, r3, r4
	.loc 1 829 387
	ldr	r1, [r1, #24]
.LVL57:
	.loc 1 829 381
	orrs	r3, r3, r1
	.loc 1 829 262
	orrs	r2, r2, r3
	.loc 1 829 38
	str	r2, [r0, #4]
	b	.L49
.L52:
	.align	2
.L51:
	.word	-32768
	.cfi_endproc
.LFE348:
	.size	FMC_SDRAM_Init, .-FMC_SDRAM_Init
	.section	.text.FMC_SDRAM_Timing_Init,"ax",%progbits
	.align	1
	.global	FMC_SDRAM_Timing_Init
	.syntax unified
	.thumb
	.thumb_func
	.type	FMC_SDRAM_Timing_Init, %function
FMC_SDRAM_Timing_Init:
.LFB349:
	.loc 1 853 1 is_stmt 1
	.cfi_startproc
	@ args = 0, pretend = 0, frame = 0
	@ frame_needed = 0, uses_anonymous_args = 0
	@ link register save eliminated.
.LVL58:
	push	{r4}
	.cfi_def_cfa_offset 4
	.cfi_offset 4, -4
	.loc 1 855 3
	.loc 1 856 3
	.loc 1 857 3
	.loc 1 858 3
	.loc 1 859 3
	.loc 1 860 3
	.loc 1 861 3
	.loc 1 862 3
	.loc 1 863 3
	.loc 1 866 3
	.loc 1 866 6 is_stmt 0
	cbnz	r2, .L54
	.loc 1 868 5 is_stmt 1
	.loc 1 868 58 is_stmt 0
	ldr	r2, [r0, #8]
.LVL59:
	.loc 1 868 77
	and	r2, r2, #-268435456
	.loc 1 868 239
	ldr	r3, [r1]
	.loc 1 868 260
	subs	r3, r3, #1
	.loc 1 868 301
	ldr	r4, [r1, #4]
	add	ip, r4, #-1
	.loc 1 868 266
	orr	r3, r3, ip, lsl #4
	.loc 1 868 346
	ldr	r4, [r1, #8]
	add	ip, r4, #-1
	.loc 1 868 316
	orr	r3, r3, ip, lsl #8
	.loc 1 868 389
	ldr	r4, [r1, #12]
	add	ip, r4, #-1
	.loc 1 868 361
	orr	r3, r3, ip, lsl #12
	.loc 1 868 437
	ldr	r4, [r1, #16]
	add	ip, r4, #-1
	.loc 1 868 405
	orr	r3, r3, ip, lsl #16
	.loc 1 868 475
	ldr	r4, [r1, #20]
	add	ip, r4, #-1
	.loc 1 868 453
	orr	r3, r3, ip, lsl #20
	.loc 1 868 502
	ldr	r1, [r1, #24]
.LVL60:
	.loc 1 868 514
	subs	r1, r1, #1
	.loc 1 868 491
	orr	r3, r3, r1, lsl #24
	.loc 1 868 227
	orrs	r3, r3, r2
	.loc 1 868 38
	str	r3, [r0, #8]
.L55:
	.loc 1 895 3 is_stmt 1
	.loc 1 896 1 is_stmt 0
	movs	r0, #0
.LVL61:
	ldr	r4, [sp], #4
	.cfi_remember_state
	.cfi_restore 4
	.cfi_def_cfa_offset 0
	bx	lr
.LVL62:
.L54:
	.cfi_restore_state
	.loc 1 880 5 is_stmt 1
	.loc 1 880 58 is_stmt 0
	ldr	r3, [r0, #8]
	.loc 1 880 77
	ldr	r2, .L57
.LVL63:
	ands	r2, r2, r3
	.loc 1 880 133
	ldr	r3, [r1, #12]
	.loc 1 880 150
	add	ip, r3, #-1
	.loc 1 880 177
	ldr	r3, [r1, #20]
	.loc 1 880 188
	subs	r3, r3, #1
	.loc 1 880 194
	lsls	r3, r3, #20
	.loc 1 880 166
	orr	r3, r3, ip, lsl #12
	.loc 1 880 121
	orrs	r2, r2, r3
	.loc 1 880 38
	str	r2, [r0, #8]
	.loc 1 886 5 is_stmt 1
	.loc 1 886 58 is_stmt 0
	ldr	r2, [r0, #12]
	.loc 1 886 77
	and	r2, r2, #-268435456
	.loc 1 886 239
	ldr	r3, [r1]
	.loc 1 886 260
	subs	r3, r3, #1
	.loc 1 886 301
	ldr	r4, [r1, #4]
	add	ip, r4, #-1
	.loc 1 886 266
	orr	r3, r3, ip, lsl #4
	.loc 1 886 346
	ldr	r4, [r1, #8]
	add	ip, r4, #-1
	.loc 1 886 316
	orr	r3, r3, ip, lsl #8
	.loc 1 886 393
	ldr	r4, [r1, #16]
	add	ip, r4, #-1
	.loc 1 886 361
	orr	r3, r3, ip, lsl #16
	.loc 1 886 420
	ldr	r1, [r1, #24]
.LVL64:
	.loc 1 886 432
	subs	r1, r1, #1
	.loc 1 886 409
	orr	r3, r3, r1, lsl #24
	.loc 1 886 227
	orrs	r3, r3, r2
	.loc 1 886 38
	str	r3, [r0, #12]
	b	.L55
.L58:
	.align	2
.L57:
	.word	-15790081
	.cfi_endproc
.LFE349:
	.size	FMC_SDRAM_Timing_Init, .-FMC_SDRAM_Timing_Init
	.section	.text.FMC_SDRAM_DeInit,"ax",%progbits
	.align	1
	.global	FMC_SDRAM_DeInit
	.syntax unified
	.thumb
	.thumb_func
	.type	FMC_SDRAM_DeInit, %function
FMC_SDRAM_DeInit:
.LFB350:
	.loc 1 904 1 is_stmt 1
	.cfi_startproc
	@ args = 0, pretend = 0, frame = 0
	@ frame_needed = 0, uses_anonymous_args = 0
	@ link register save eliminated.
.LVL65:
	mov	r3, r0
	.loc 1 906 3
	.loc 1 907 3
	.loc 1 910 3
	.loc 1 910 22 is_stmt 0
	mov	r2, #720
	str	r2, [r0, r1, lsl #2]
	.loc 1 911 3 is_stmt 1
	.loc 1 911 22 is_stmt 0
	adds	r1, r1, #2
.LVL66:
	mvn	r2, #-268435456
	str	r2, [r0, r1, lsl #2]
	.loc 1 912 3 is_stmt 1
	.loc 1 912 17 is_stmt 0
	movs	r0, #0
.LVL67:
	str	r0, [r3, #16]
	.loc 1 913 3 is_stmt 1
	.loc 1 913 17 is_stmt 0
	str	r0, [r3, #20]
	.loc 1 914 3 is_stmt 1
	.loc 1 914 16 is_stmt 0
	str	r0, [r3, #24]
	.loc 1 916 3 is_stmt 1
	.loc 1 917 1 is_stmt 0
	bx	lr
	.cfi_endproc
.LFE350:
	.size	FMC_SDRAM_DeInit, .-FMC_SDRAM_DeInit
	.section	.text.FMC_SDRAM_WriteProtection_Enable,"ax",%progbits
	.align	1
	.global	FMC_SDRAM_WriteProtection_Enable
	.syntax unified
	.thumb
	.thumb_func
	.type	FMC_SDRAM_WriteProtection_Enable, %function
FMC_SDRAM_WriteProtection_Enable:
.LFB351:
	.loc 1 945 1 is_stmt 1
	.cfi_startproc
	@ args = 0, pretend = 0, frame = 0
	@ frame_needed = 0, uses_anonymous_args = 0
	@ link register save eliminated.
.LVL68:
	.loc 1 947 3
	.loc 1 948 3
	.loc 1 951 3
	.loc 1 951 17 is_stmt 0
	ldr	r3, [r0, r1, lsl #2]
	.loc 1 951 25
	orr	r3, r3, #512
	str	r3, [r0, r1, lsl #2]
	.loc 1 953 3 is_stmt 1
	.loc 1 954 1 is_stmt 0
	movs	r0, #0
.LVL69:
	bx	lr
	.cfi_endproc
.LFE351:
	.size	FMC_SDRAM_WriteProtection_Enable, .-FMC_SDRAM_WriteProtection_Enable
	.section	.text.FMC_SDRAM_WriteProtection_Disable,"ax",%progbits
	.align	1
	.global	FMC_SDRAM_WriteProtection_Disable
	.syntax unified
	.thumb
	.thumb_func
	.type	FMC_SDRAM_WriteProtection_Disable, %function
FMC_SDRAM_WriteProtection_Disable:
.LFB352:
	.loc 1 962 1 is_stmt 1
	.cfi_startproc
	@ args = 0, pretend = 0, frame = 0
	@ frame_needed = 0, uses_anonymous_args = 0
	@ link register save eliminated.
.LVL70:
	.loc 1 964 3
	.loc 1 965 3
	.loc 1 968 3
	.loc 1 968 17 is_stmt 0
	ldr	r3, [r0, r1, lsl #2]
	.loc 1 968 25
	bic	r3, r3, #512
	str	r3, [r0, r1, lsl #2]
	.loc 1 970 3 is_stmt 1
	.loc 1 971 1 is_stmt 0
	movs	r0, #0
.LVL71:
	bx	lr
	.cfi_endproc
.LFE352:
	.size	FMC_SDRAM_WriteProtection_Disable, .-FMC_SDRAM_WriteProtection_Disable
	.section	.text.FMC_SDRAM_SendCommand,"ax",%progbits
	.align	1
	.global	FMC_SDRAM_SendCommand
	.syntax unified
	.thumb
	.thumb_func
	.type	FMC_SDRAM_SendCommand, %function
FMC_SDRAM_SendCommand:
.LFB353:
	.loc 1 983 1 is_stmt 1
	.cfi_startproc
	@ args = 0, pretend = 0, frame = 0
	@ frame_needed = 0, uses_anonymous_args = 0
	@ link register save eliminated.
.LVL72:
	push	{r4}
	.cfi_def_cfa_offset 4
	.cfi_offset 4, -4
	.loc 1 985 3
	.loc 1 986 3
	.loc 1 987 3
	.loc 1 988 3
	.loc 1 989 3
	.loc 1 992 3
	.loc 1 992 36 is_stmt 0
	ldr	r3, [r0, #16]
	.loc 1 992 47
	ldr	r2, .L64
.LVL73:
	ands	r2, r2, r3
	.loc 1 992 160
	ldr	r3, [r1]
	.loc 1 992 175
	ldr	r4, [r1, #4]
	orrs	r3, r3, r4
	.loc 1 992 235
	ldr	r4, [r1, #8]
	add	ip, r4, #-1
	.loc 1 992 202
	orr	r3, r3, ip, lsl #5
	.loc 1 992 261
	ldr	r1, [r1, #12]
.LVL74:
	.loc 1 992 250
	orr	r3, r3, r1, lsl #9
	.loc 1 992 148
	orrs	r2, r2, r3
	.loc 1 992 22
	str	r2, [r0, #16]
	.loc 1 997 3 is_stmt 1
	.loc 1 998 3
	.loc 1 999 1 is_stmt 0
	movs	r0, #0
.LVL75:
	ldr	r4, [sp], #4
	.cfi_restore 4
	.cfi_def_cfa_offset 0
	bx	lr
.L65:
	.align	2
.L64:
	.word	-4194304
	.cfi_endproc
.LFE353:
	.size	FMC_SDRAM_SendCommand, .-FMC_SDRAM_SendCommand
	.section	.text.FMC_SDRAM_ProgramRefreshRate,"ax",%progbits
	.align	1
	.global	FMC_SDRAM_ProgramRefreshRate
	.syntax unified
	.thumb
	.thumb_func
	.type	FMC_SDRAM_ProgramRefreshRate, %function
FMC_SDRAM_ProgramRefreshRate:
.LFB354:
	.loc 1 1008 1 is_stmt 1
	.cfi_startproc
	@ args = 0, pretend = 0, frame = 0
	@ frame_needed = 0, uses_anonymous_args = 0
	@ link register save eliminated.
.LVL76:
	.loc 1 1010 3
	.loc 1 1011 3
	.loc 1 1014 3
	.loc 1 1014 36 is_stmt 0
	ldr	r2, [r0, #20]
	.loc 1 1014 47
	ldr	r3, .L67
	ands	r3, r3, r2
	.loc 1 1014 74
	orr	r3, r3, r1, lsl #1
	.loc 1 1014 22
	str	r3, [r0, #20]
	.loc 1 1016 3 is_stmt 1
	.loc 1 1017 1 is_stmt 0
	movs	r0, #0
.LVL77:
	bx	lr
.L68:
	.align	2
.L67:
	.word	-16383
	.cfi_endproc
.LFE354:
	.size	FMC_SDRAM_ProgramRefreshRate, .-FMC_SDRAM_ProgramRefreshRate
	.section	.text.FMC_SDRAM_SetAutoRefreshNumber,"ax",%progbits
	.align	1
	.global	FMC_SDRAM_SetAutoRefreshNumber
	.syntax unified
	.thumb
	.thumb_func
	.type	FMC_SDRAM_SetAutoRefreshNumber, %function
FMC_SDRAM_SetAutoRefreshNumber:
.LFB355:
	.loc 1 1027 1 is_stmt 1
	.cfi_startproc
	@ args = 0, pretend = 0, frame = 0
	@ frame_needed = 0, uses_anonymous_args = 0
	@ link register save eliminated.
.LVL78:
	.loc 1 1029 3
	.loc 1 1030 3
	.loc 1 1033 3
	.loc 1 1033 36 is_stmt 0
	ldr	r3, [r0, #16]
	.loc 1 1033 47
	bic	r3, r3, #480
	.loc 1 1033 94
	subs	r1, r1, #1
.LVL79:
	.loc 1 1033 71
	orr	r3, r3, r1, lsl #5
	.loc 1 1033 22
	str	r3, [r0, #16]
	.loc 1 1035 3 is_stmt 1
	.loc 1 1036 1 is_stmt 0
	movs	r0, #0
.LVL80:
	bx	lr
	.cfi_endproc
.LFE355:
	.size	FMC_SDRAM_SetAutoRefreshNumber, .-FMC_SDRAM_SetAutoRefreshNumber
	.section	.text.FMC_SDRAM_GetModeStatus,"ax",%progbits
	.align	1
	.global	FMC_SDRAM_GetModeStatus
	.syntax unified
	.thumb
	.thumb_func
	.type	FMC_SDRAM_GetModeStatus, %function
FMC_SDRAM_GetModeStatus:
.LFB356:
	.loc 1 1048 1 is_stmt 1
	.cfi_startproc
	@ args = 0, pretend = 0, frame = 0
	@ frame_needed = 0, uses_anonymous_args = 0
	@ link register save eliminated.
.LVL81:
	.loc 1 1049 3
	.loc 1 1052 3
	.loc 1 1053 3
	.loc 1 1056 3
	.loc 1 1056 6 is_stmt 0
	cbnz	r1, .L71
	.loc 1 1058 5 is_stmt 1
	.loc 1 1058 31 is_stmt 0
	ldr	r0, [r0, #24]
.LVL82:
	.loc 1 1058 12
	and	r0, r0, #6
.LVL83:
	bx	lr
.LVL84:
.L71:
	.loc 1 1062 5 is_stmt 1
	.loc 1 1062 32 is_stmt 0
	ldr	r0, [r0, #24]
.LVL85:
	.loc 1 1062 58
	lsrs	r0, r0, #2
	.loc 1 1062 12
	and	r0, r0, #6
.LVL86:
	.loc 1 1066 3 is_stmt 1
	.loc 1 1067 1 is_stmt 0
	bx	lr
	.cfi_endproc
.LFE356:
	.size	FMC_SDRAM_GetModeStatus, .-FMC_SDRAM_GetModeStatus
	.text
.Letext0:
	.file 2 "m:\\noinstall\\arm-gnu-toolchain-12.2.rel1-mingw-w64-i686-arm-none-eabi\\arm-none-eabi\\include\\machine\\_default_types.h"
	.file 3 "m:\\noinstall\\arm-gnu-toolchain-12.2.rel1-mingw-w64-i686-arm-none-eabi\\arm-none-eabi\\include\\sys\\_stdint.h"
	.file 4 "D:/RTOS/Board/YD-STM32H7xxVx_ClassicV19/cmake-build-debug/_deps/stm32h7xx_cmsis_device-src/Include/stm32h743xx.h"
	.file 5 "D:/RTOS/Board/YD-STM32H7xxVx_ClassicV19/cmake-build-debug/_deps/stm32h7xx_cmsis_device-src/Include/stm32h7xx.h"
	.file 6 "D:/RTOS/Board/YD-STM32H7xxVx_ClassicV19/cmake-build-debug/_deps/stm32h7xx_hal_driver-src/Inc/stm32h7xx_hal_def.h"
	.file 7 "D:/RTOS/Board/YD-STM32H7xxVx_ClassicV19/cmake-build-debug/_deps/stm32h7xx_hal_driver-src/Inc/stm32h7xx_ll_fmc.h"
	.file 8 "D:/RTOS/Board/YD-STM32H7xxVx_ClassicV19/cmake-build-debug/_deps/stm32h7xx_hal_driver-src/Inc/stm32h7xx_hal.h"