	.cpu cortex-m7
	.arch armv7e-m
	.fpu fpv5-d16
	.eabi_attribute 28, 1
	.eabi_attribute 20, 1
	.eabi_attribute 21, 1
	.eabi_attribute 23, 3
	.eabi_attribute 24, 1
	.eabi_attribute 25, 1
	.eabi_attribute 26, 1
	.eabi_attribute 30, 1
	.eabi_attribute 34, 1
	.eabi_attribute 18, 4
	.file	"stm32h7xx_hal_adc.c"
	.text
.Ltext0:
	.cfi_sections	.debug_frame
	.file 1 "D:/RTOS/Board/YD-STM32H7xxVx_ClassicV19/cmake-build-debug/_deps/stm32h7xx_hal_driver-src/Src/stm32h7xx_hal_adc.c"
	.section	.text.LL_ADC_REG_SetSequencerRanks,"ax",%progbits
	.align	1
	.syntax unified
	.thumb
	.thumb_func
	.type	LL_ADC_REG_SetSequencerRanks, %function
LL_ADC_REG_SetSequencerRanks:
.LFB177:
	.file 2 "D:/RTOS/Board/YD-STM32H7xxVx_ClassicV19/cmake-build-debug/_deps/stm32h7xx_hal_driver-src/Inc/stm32h7xx_ll_adc.h"
	.loc 2 4256 1
	.cfi_startproc
	@ args = 0, pretend = 0, frame = 0
	@ frame_needed = 0, uses_anonymous_args = 0
	@ link register save eliminated.
.LVL0:
	push	{r4}
	.cfi_def_cfa_offset 4
	.cfi_offset 4, -4
	.loc 2 4261 3
	.loc 2 4261 75 is_stmt 0
	adds	r0, r0, #48
.LVL1:
	.loc 2 4261 172
	lsrs	r3, r1, #8
	.loc 2 4261 183
	lsls	r3, r3, #2
	and	r3, r3, #12
.LVL2:
	.loc 2 4263 3 is_stmt 1
	.loc 2 4263 22 is_stmt 0
	ldr	r4, [r0, r3]
	.loc 2 4263 64
	and	r1, r1, #31
.LVL3:
	.loc 2 4263 55
	mov	ip, #31
	lsl	ip, ip, r1
	.loc 2 4263 31
	bic	ip, r4, ip
	.loc 2 4263 127
	ubfx	r2, r2, #26, #5
.LVL4:
	.loc 2 4263 138
	lsls	r2, r2, r1
	.loc 2 4263 91
	orr	r2, ip, r2
	.loc 2 4263 14
	str	r2, [r0, r3]
	.loc 2 4266 1
	ldr	r4, [sp], #4
	.cfi_restore 4
	.cfi_def_cfa_offset 0
	bx	lr
	.cfi_endproc
.LFE177:
	.size	LL_ADC_REG_SetSequencerRanks, .-LL_ADC_REG_SetSequencerRanks
	.section	.text.LL_ADC_SetChannelSamplingTime,"ax",%progbits
	.align	1
	.syntax unified
	.thumb
	.thumb_func
	.type	LL_ADC_SetChannelSamplingTime, %function
LL_ADC_SetChannelSamplingTime:
.LFB201:
	.loc 2 5410 1 is_stmt 1
	.cfi_startproc
	@ args = 0, pretend = 0, frame = 0
	@ frame_needed = 0, uses_anonymous_args = 0
	@ link register save eliminated.
.LVL5:
	push	{r4}
	.cfi_def_cfa_offset 4
	.cfi_offset 4, -4
	.loc 2 5415 3
	.loc 2 5415 75 is_stmt 0
	adds	r0, r0, #20
.LVL6:
	.loc 2 5415 142
	lsrs	r3, r1, #25
	.loc 2 5415 154
	lsls	r3, r3, #2
	and	r3, r3, #4
.LVL7:
	.loc 2 5417 3 is_stmt 1
	.loc 2 5417 22 is_stmt 0
	ldr	r4, [r0, r3]
	.loc 2 5417 83
	ubfx	r1, r1, #20, #5
.LVL8:
	.loc 2 5417 52
	mov	ip, #7
	lsl	ip, ip, r1
	.loc 2 5417 31
	bic	ip, r4, ip
	.loc 2 5417 113
	lsls	r2, r2, r1
.LVL9:
	.loc 2 5417 97
	orr	r2, ip, r2
	.loc 2 5417 14
	str	r2, [r0, r3]
	.loc 2 5420 1
	ldr	r4, [sp], #4
	.cfi_restore 4
	.cfi_def_cfa_offset 0
	bx	lr
	.cfi_endproc
.LFE201:
	.size	LL_ADC_SetChannelSamplingTime, .-LL_ADC_SetChannelSamplingTime
	.section	.text.LL_ADC_SetAnalogWDMonitChannels,"ax",%progbits
	.align	1
	.syntax unified
	.thumb
	.thumb_func
	.type	LL_ADC_SetAnalogWDMonitChannels, %function
LL_ADC_SetAnalogWDMonitChannels:
.LFB205:
	.loc 2 5775 1 is_stmt 1
	.cfi_startproc
	@ args = 0, pretend = 0, frame = 0
	@ frame_needed = 0, uses_anonymous_args = 0
	@ link register save eliminated.
.LVL10:
	push	{r4}
	.cfi_def_cfa_offset 4
	.cfi_offset 4, -4
	.loc 2 5780 3
	.loc 2 5780 75 is_stmt 0
	adds	r0, r0, #12
.LVL11:
	.loc 2 5780 155
	ubfx	ip, r1, #20, #2
	.loc 2 5780 175
	and	r3, r1, #1
	.loc 2 5780 200
	add	r3, r3, r3, lsl #3
	.loc 2 5780 166
	add	ip, ip, r3, lsl #2
.LVL12:
	.loc 2 5783 3 is_stmt 1
	.loc 2 5783 22 is_stmt 0
	ldr	r3, [r0, ip, lsl #2]
	.loc 2 5783 42
	ldr	r4, .L7
	ands	r4, r4, r1
	.loc 2 5783 31
	bic	r3, r3, r4
	.loc 2 5783 170
	ands	r1, r1, r2
.LVL13:
	.loc 2 5783 151
	orrs	r3, r3, r1
	.loc 2 5783 14
	str	r3, [r0, ip, lsl #2]
	.loc 2 5786 1
	ldr	r4, [sp], #4
	.cfi_restore 4
	.cfi_def_cfa_offset 0
	bx	lr
.L8:
	.align	2
.L7:
	.word	2110783487
	.cfi_endproc
.LFE205:
	.size	LL_ADC_SetAnalogWDMonitChannels, .-LL_ADC_SetAnalogWDMonitChannels
	.section	.text.HAL_ADC_MspInit,"ax",%progbits
	.align	1
	.weak	HAL_ADC_MspInit
	.syntax unified
	.thumb
	.thumb_func
	.type	HAL_ADC_MspInit, %function
HAL_ADC_MspInit:
.LFB337:
	.loc 1 1096 1 is_stmt 1
	.cfi_startproc
	@ args = 0, pretend = 0, frame = 0
	@ frame_needed = 0, uses_anonymous_args = 0
	@ link register save eliminated.
.LVL14:
	.loc 1 1098 3
	.loc 1 1103 1 is_stmt 0
	bx	lr
	.cfi_endproc
.LFE337:
	.size	HAL_ADC_MspInit, .-HAL_ADC_MspInit
	.section	.text.HAL_ADC_MspDeInit,"ax",%progbits
	.align	1
	.weak	HAL_ADC_MspDeInit
	.syntax unified
	.thumb
	.thumb_func
	.type	HAL_ADC_MspDeInit, %function
HAL_ADC_MspDeInit:
.LFB338:
	.loc 1 1113 1 is_stmt 1
	.cfi_startproc
	@ args = 0, pretend = 0, frame = 0
	@ frame_needed = 0, uses_anonymous_args = 0
	@ link register save eliminated.
.LVL15:
	.loc 1 1115 3
	.loc 1 1120 1 is_stmt 0
	bx	lr
	.cfi_endproc
.LFE338:
	.size	HAL_ADC_MspDeInit, .-HAL_ADC_MspDeInit
	.section	.text.HAL_ADC_PollForConversion,"ax",%progbits
	.align	1
	.global	HAL_ADC_PollForConversion
	.syntax unified
	.thumb
	.thumb_func
	.type	HAL_ADC_PollForConversion, %function
HAL_ADC_PollForConversion:
.LFB341:
	.loc 1 1573 1 is_stmt 1
	.cfi_startproc
	@ args = 0, pretend = 0, frame = 0
	@ frame_needed = 0, uses_anonymous_args = 0
.LVL16:
	push	{r4, r5, r6, r7, r8, lr}
	.cfi_def_cfa_offset 24
	.cfi_offset 4, -24
	.cfi_offset 5, -20
	.cfi_offset 6, -16
	.cfi_offset 7, -12
	.cfi_offset 8, -8
	.cfi_offset 14, -4
	mov	r4, r0
	mov	r6, r1
	.loc 1 1574 3
	.loc 1 1575 3
	.loc 1 1576 3
	.loc 1 1577 3
	.loc 1 1578 3
	.loc 1 1578 63 is_stmt 0
	ldr	r3, [r0]
	.loc 1 1578 35
	ldr	r1, .L38
.LVL17:
	ldr	r2, .L38+4
	cmp	r3, r2
	it	ne
	cmpne	r3, r1
	bne	.L26
	add	r1, r1, #768
.L12:
.LVL18:
.LBB272:
.LBB273:
	.loc 2 6603 3 is_stmt 1 discriminator 4
	.loc 2 6603 35 is_stmt 0 discriminator 4
	ldr	r7, [r1, #8]
	.loc 2 6603 10 discriminator 4
	and	r7, r7, #31
.LVL19:
.LBE273:
.LBE272:
	.loc 1 1581 3 is_stmt 1 discriminator 4
	.loc 1 1584 3 discriminator 4
	.loc 1 1584 17 is_stmt 0 discriminator 4
	ldr	r5, [r4, #16]
	.loc 1 1584 6 discriminator 4
	cmp	r5, #8
	beq	.L13
	.loc 1 1597 5 is_stmt 1
	cmp	r7, #9
	bhi	.L14
	movw	r2, #545
	lsrs	r2, r2, r7
	tst	r2, #1
	bne	.L32
.L14:
	.loc 1 1616 7 discriminator 4
.LVL20:
.LBB274:
.LBB275:
	.loc 2 6694 3 discriminator 4
	.loc 2 6694 35 is_stmt 0 discriminator 4
	ldr	r3, [r1, #8]
.LVL21:
.LBE275:
.LBE274:
	.loc 1 1616 10 discriminator 4
	tst	r3, #49152
	bne	.L33
	.loc 1 1623 22
	movs	r5, #4
	b	.L13
.LVL22:
.L26:
	.loc 1 1578 35
	ldr	r1, .L38+8
	b	.L12
.LVL23:
.L32:
	.loc 1 1603 7 is_stmt 1
	.loc 1 1603 27 is_stmt 0
	ldr	r3, [r3, #12]
	.loc 1 1603 10
	tst	r3, #1
	bne	.L34
	.loc 1 1610 22
	movs	r5, #4
.L13:
.LVL24:
	.loc 1 1629 3 is_stmt 1
	.loc 1 1629 15 is_stmt 0
	bl	HAL_GetTick
.LVL25:
	mov	r8, r0
.LVL26:
	.loc 1 1632 3 is_stmt 1
.L17:
	.loc 1 1632 47
	.loc 1 1632 15 is_stmt 0
	ldr	r3, [r4]
	.loc 1 1632 25
	ldr	r2, [r3]
	.loc 1 1632 47
	tst	r2, r5
	bne	.L35
	.loc 1 1635 5 is_stmt 1
	.loc 1 1635 8 is_stmt 0
	cmp	r6, #-1
	beq	.L17
	.loc 1 1637 7 is_stmt 1
	.loc 1 1637 13 is_stmt 0
	bl	HAL_GetTick
.LVL27:
	.loc 1 1637 27
	sub	r0, r0, r8
	.loc 1 1637 10
	cmp	r0, r6
	bhi	.L18
	.loc 1 1637 51 discriminator 1
	cmp	r6, #0
	bne	.L17
.L18:
	.loc 1 1640 9 is_stmt 1
	.loc 1 1640 17 is_stmt 0
	ldr	r3, [r4]
	.loc 1 1640 27
	ldr	r3, [r3]
	.loc 1 1640 11
	tst	r3, r5
	bne	.L17
	.loc 1 1643 11 is_stmt 1
	.loc 1 1643 17 is_stmt 0
	ldr	r3, [r4, #84]
	.loc 1 1643 26
	orr	r3, r3, #4
	str	r3, [r4, #84]
	.loc 1 1646 11 is_stmt 1
	.loc 1 1646 15
	.loc 1 1646 28 is_stmt 0
	movs	r3, #0
	strb	r3, [r4, #80]
	.loc 1 1646 13 is_stmt 1
	.loc 1 1648 11
	.loc 1 1648 18 is_stmt 0
	movs	r0, #3
	b	.L15
.LVL28:
.L34:
	.loc 1 1605 9 is_stmt 1
	.loc 1 1605 15 is_stmt 0
	ldr	r3, [r4, #84]
	.loc 1 1605 24
	orr	r3, r3, #32
	str	r3, [r4, #84]
	.loc 1 1606 9 is_stmt 1
	.loc 1 1606 16 is_stmt 0
	movs	r0, #1
.LVL29:
	b	.L15
.LVL30:
.L33:
	.loc 1 1618 9 is_stmt 1
	.loc 1 1618 15 is_stmt 0
	ldr	r3, [r4, #84]
	.loc 1 1618 24
	orr	r3, r3, #32
	str	r3, [r4, #84]
	.loc 1 1619 9 is_stmt 1
	.loc 1 1619 16 is_stmt 0
	movs	r0, #1
.LVL31:
	b	.L15
.LVL32:
.L35:
	.loc 1 1655 3 is_stmt 1
	.loc 1 1655 9 is_stmt 0
	ldr	r2, [r4, #84]
	.loc 1 1655 18
	orr	r2, r2, #512
	str	r2, [r4, #84]
	.loc 1 1659 3 is_stmt 1
.LVL33:
.LBB276:
.LBB277:
	.loc 2 3930 3
	.loc 2 3930 18 is_stmt 0
	ldr	r2, [r3, #12]
	.loc 2 3930 94
	tst	r2, #3072
	bne	.L20
.LVL34:
.LBE277:
.LBE276:
	.loc 1 1660 21
	ldrb	r2, [r4, #21]	@ zero_extendqisi2
	.loc 1 1660 7
	cbnz	r2, .L20
	.loc 1 1664 5 is_stmt 1
	.loc 1 1664 28 is_stmt 0
	ldr	r2, [r3]
	.loc 1 1664 8
	tst	r2, #8
	beq	.L20
	.loc 1 1667 7 is_stmt 1
	.loc 1 1667 13 is_stmt 0
	ldr	r2, [r4, #84]
	.loc 1 1667 22
	bic	r2, r2, #256
	str	r2, [r4, #84]
	.loc 1 1669 7 is_stmt 1
	.loc 1 1669 16 is_stmt 0
	ldr	r2, [r4, #84]
	.loc 1 1669 10
	tst	r2, #4096
	bne	.L20
	.loc 1 1671 9 is_stmt 1
	.loc 1 1671 15 is_stmt 0
	ldr	r2, [r4, #84]
	.loc 1 1671 24
	orr	r2, r2, #1
	str	r2, [r4, #84]
.L20:
	.loc 1 1679 3 is_stmt 1
	.loc 1 1679 165 is_stmt 0
	ldr	r2, .L38+4
	cmp	r3, r2
	beq	.L36
	mov	r2, r3
.L21:
	.loc 1 1679 6 discriminator 4
	cmp	r3, r2
	beq	.L22
	cmp	r7, #9
	bhi	.L23
	movw	r1, #545
	lsrs	r1, r1, r7
	tst	r1, #1
	bne	.L22
.L23:
	.loc 1 1691 5 is_stmt 1 discriminator 4
.LVL35:
	.loc 1 1692 5 discriminator 4
	.loc 1 1692 14 is_stmt 0 discriminator 4
	ldr	r2, [r2, #12]
.LVL36:
	b	.L24
.LVL37:
.L36:
	.loc 1 1679 165
	sub	r2, r2, #256
	b	.L21
.L22:
	.loc 1 1686 5 is_stmt 1
	.loc 1 1686 14 is_stmt 0
	ldr	r2, [r3, #12]
.LVL38:
.L24:
	.loc 1 1696 3 is_stmt 1
	.loc 1 1696 6 is_stmt 0
	cmp	r5, #8
	beq	.L37
	.loc 1 1705 5 is_stmt 1
	.loc 1 1705 8 is_stmt 0
	tst	r2, #16384
	bne	.L30
	.loc 1 1707 7 is_stmt 1
	.loc 1 1707 32 is_stmt 0
	movs	r2, #12
.LVL39:
	str	r2, [r3]
	.loc 1 1712 10
	movs	r0, #0
	b	.L15
.LVL40:
.L37:
	.loc 1 1698 5 is_stmt 1
	.loc 1 1698 30 is_stmt 0
	movs	r2, #8
.LVL41:
	str	r2, [r3]
	.loc 1 1712 10
	movs	r0, #0
.LVL42:
.L15:
	.loc 1 1713 1
	pop	{r4, r5, r6, r7, r8, pc}
.LVL43:
.L30:
	.loc 1 1712 10
	movs	r0, #0
	b	.L15
.L39:
	.align	2
.L38:
	.word	1073881088
	.word	1073881344
	.word	1476551424
	.cfi_endproc
.LFE341:
	.size	HAL_ADC_PollForConversion, .-HAL_ADC_PollForConversion
	.section	.text.HAL_ADC_PollForEvent,"ax",%progbits
	.align	1
	.global	HAL_ADC_PollForEvent
	.syntax unified
	.thumb
	.thumb_func
	.type	HAL_ADC_PollForEvent, %function
HAL_ADC_PollForEvent:
.LFB342:
	.loc 1 1736 1 is_stmt 1
	.cfi_startproc
	@ args = 0, pretend = 0, frame = 0
	@ frame_needed = 0, uses_anonymous_args = 0
.LVL44:
	push	{r4, r5, r6, r7, r8, lr}
	.cfi_def_cfa_offset 24
	.cfi_offset 4, -24
	.cfi_offset 5, -20
	.cfi_offset 6, -16
	.cfi_offset 7, -12
	.cfi_offset 8, -8
	.cfi_offset 14, -4
	mov	r6, r0
	mov	r5, r1
	mov	r7, r2
	.loc 1 1737 3
	.loc 1 1740 3
	.loc 1 1741 3
	.loc 1 1744 3
	.loc 1 1744 15 is_stmt 0
	bl	HAL_GetTick
.LVL45:
	mov	r8, r0
.LVL46:
	.loc 1 1747 3 is_stmt 1
.L42:
	.loc 1 1747 67
	.loc 1 1747 19 is_stmt 0
	ldr	r4, [r6]
	.loc 1 1747 29
	ldr	r3, [r4]
	.loc 1 1747 67
	bics	r3, r5, r3
	beq	.L55
	.loc 1 1750 5 is_stmt 1
	.loc 1 1750 8 is_stmt 0
	cmp	r7, #-1
	beq	.L42
	.loc 1 1752 7 is_stmt 1
	.loc 1 1752 13 is_stmt 0
	bl	HAL_GetTick
.LVL47:
	.loc 1 1752 27
	sub	r0, r0, r8
	.loc 1 1752 10
	cmp	r0, r7
	bhi	.L43
	.loc 1 1752 51 discriminator 1
	cmp	r7, #0
	bne	.L42
.L43:
	.loc 1 1755 9 is_stmt 1
	.loc 1 1755 21 is_stmt 0
	ldr	r3, [r6]
	.loc 1 1755 31
	ldr	r3, [r3]
	.loc 1 1755 11
	bics	r3, r5, r3
	beq	.L42
	.loc 1 1758 11 is_stmt 1
	.loc 1 1758 17 is_stmt 0
	ldr	r3, [r6, #84]
	.loc 1 1758 26
	orr	r3, r3, #4
	str	r3, [r6, #84]
	.loc 1 1761 11 is_stmt 1
	.loc 1 1761 15
	.loc 1 1761 28 is_stmt 0
	movs	r3, #0
	strb	r3, [r6, #80]
	.loc 1 1761 13 is_stmt 1
	.loc 1 1763 11
	.loc 1 1763 18 is_stmt 0
	movs	r0, #3
	b	.L44
.L55:
	.loc 1 1769 3 is_stmt 1
	cmp	r5, #256
	beq	.L46
	bhi	.L47
	cmp	r5, #2
	beq	.L48
	cmp	r5, #128
	bne	.L50
	.loc 1 1793 7
	.loc 1 1793 13 is_stmt 0
	ldr	r3, [r6, #84]
	.loc 1 1793 22
	orr	r3, r3, #65536
	str	r3, [r6, #84]
	.loc 1 1796 7 is_stmt 1
	.loc 1 1796 32 is_stmt 0
	movs	r3, #128
	str	r3, [r4]
	.loc 1 1798 7 is_stmt 1
	.loc 1 1858 10 is_stmt 0
	movs	r0, #0
	.loc 1 1798 7
	b	.L44
.L47:
	.loc 1 1769 3
	cmp	r5, #512
	beq	.L51
	cmp	r5, #1024
	bne	.L50
	.loc 1 1823 7 is_stmt 1
	.loc 1 1823 13 is_stmt 0
	ldr	r3, [r6, #84]
	.loc 1 1823 22
	orr	r3, r3, #16384
	str	r3, [r6, #84]
	.loc 1 1826 7 is_stmt 1
	.loc 1 1826 13 is_stmt 0
	ldr	r3, [r6, #88]
	.loc 1 1826 26
	orr	r3, r3, #8
	str	r3, [r6, #88]
	.loc 1 1829 7 is_stmt 1
	.loc 1 1829 32 is_stmt 0
	mov	r3, #1024
	str	r3, [r4]
	.loc 1 1831 7 is_stmt 1
	.loc 1 1858 10 is_stmt 0
	movs	r0, #0
	.loc 1 1831 7
	b	.L44
.L48:
	.loc 1 1774 7 is_stmt 1
	.loc 1 1774 13 is_stmt 0
	ldr	r3, [r6, #84]
	.loc 1 1774 22
	orr	r3, r3, #2048
	str	r3, [r6, #84]
	.loc 1 1777 7 is_stmt 1
	.loc 1 1777 32 is_stmt 0
	movs	r3, #2
	str	r3, [r4]
	.loc 1 1779 7 is_stmt 1
	.loc 1 1858 10 is_stmt 0
	movs	r0, #0
.L44:
	.loc 1 1859 1
	pop	{r4, r5, r6, r7, r8, pc}
.LVL48:
.L46:
	.loc 1 1803 7 is_stmt 1
	.loc 1 1803 13 is_stmt 0
	ldr	r3, [r6, #84]
	.loc 1 1803 22
	orr	r3, r3, #131072
	str	r3, [r6, #84]
	.loc 1 1806 7 is_stmt 1
	.loc 1 1806 32 is_stmt 0
	mov	r3, #256
	str	r3, [r4]
	.loc 1 1808 7 is_stmt 1
	.loc 1 1858 10 is_stmt 0
	movs	r0, #0
	.loc 1 1808 7
	b	.L44
.L51:
	.loc 1 1813 7 is_stmt 1
	.loc 1 1813 13 is_stmt 0
	ldr	r3, [r6, #84]
	.loc 1 1813 22
	orr	r3, r3, #262144
	str	r3, [r6, #84]
	.loc 1 1816 7 is_stmt 1
	.loc 1 1816 32 is_stmt 0
	mov	r3, #512
	str	r3, [r4]
	.loc 1 1818 7 is_stmt 1
	.loc 1 1858 10 is_stmt 0
	movs	r0, #0
	.loc 1 1818 7
	b	.L44
.L50:
	.loc 1 1839 7 is_stmt 1
	.loc 1 1839 21 is_stmt 0
	ldr	r3, [r6, #48]
	.loc 1 1839 10
	cbnz	r3, .L53
	.loc 1 1842 9 is_stmt 1
	.loc 1 1842 15 is_stmt 0
	ldr	r3, [r6, #84]
	.loc 1 1842 24
	orr	r3, r3, #1024
	str	r3, [r6, #84]
	.loc 1 1845 9 is_stmt 1
	.loc 1 1845 15 is_stmt 0
	ldr	r3, [r6, #88]
	.loc 1 1845 28
	orr	r3, r3, #2
	str	r3, [r6, #88]
	.loc 1 1858 10
	movs	r0, #0
	b	.L44
.L53:
	.loc 1 1852 9 is_stmt 1
	.loc 1 1852 34 is_stmt 0
	movs	r3, #16
	str	r3, [r4]
	.loc 1 1858 10
	movs	r0, #0
	b	.L44
	.cfi_endproc
.LFE342:
	.size	HAL_ADC_PollForEvent, .-HAL_ADC_PollForEvent
	.section	.text.HAL_ADC_GetValue,"ax",%progbits
	.align	1
	.global	HAL_ADC_GetValue
	.syntax unified
	.thumb
	.thumb_func
	.type	HAL_ADC_GetValue, %function
HAL_ADC_GetValue:
.LFB347:
	.loc 1 2345 1 is_stmt 1
	.cfi_startproc
	@ args = 0, pretend = 0, frame = 0
	@ frame_needed = 0, uses_anonymous_args = 0
	@ link register save eliminated.
.LVL49:
	.loc 1 2347 3
	.loc 1 2353 3
	.loc 1 2353 14 is_stmt 0
	ldr	r3, [r0]
	.loc 1 2353 24
	ldr	r0, [r3, #64]
.LVL50:
	.loc 1 2354 1
	bx	lr
	.cfi_endproc
.LFE347:
	.size	HAL_ADC_GetValue, .-HAL_ADC_GetValue
	.section	.text.HAL_ADC_ConvCpltCallback,"ax",%progbits
	.align	1
	.weak	HAL_ADC_ConvCpltCallback
	.syntax unified
	.thumb
	.thumb_func
	.type	HAL_ADC_ConvCpltCallback, %function
HAL_ADC_ConvCpltCallback:
.LFB349:
	.loc 1 2722 1 is_stmt 1
	.cfi_startproc
	@ args = 0, pretend = 0, frame = 0
	@ frame_needed = 0, uses_anonymous_args = 0
	@ link register save eliminated.
.LVL51:
	.loc 1 2724 3
	.loc 1 2729 1 is_stmt 0
	bx	lr
	.cfi_endproc
.LFE349:
	.size	HAL_ADC_ConvCpltCallback, .-HAL_ADC_ConvCpltCallback
	.section	.text.HAL_ADC_ConvHalfCpltCallback,"ax",%progbits
	.align	1
	.weak	HAL_ADC_ConvHalfCpltCallback
	.syntax unified
	.thumb
	.thumb_func
	.type	HAL_ADC_ConvHalfCpltCallback, %function
HAL_ADC_ConvHalfCpltCallback:
.LFB350:
	.loc 1 2737 1 is_stmt 1
	.cfi_startproc
	@ args = 0, pretend = 0, frame = 0
	@ frame_needed = 0, uses_anonymous_args = 0
	@ link register save eliminated.
.LVL52:
	.loc 1 2739 3
	.loc 1 2744 1 is_stmt 0
	bx	lr
	.cfi_endproc
.LFE350:
	.size	HAL_ADC_ConvHalfCpltCallback, .-HAL_ADC_ConvHalfCpltCallback
	.section	.text.ADC_DMAHalfConvCplt,"ax",%progbits
	.align	1
	.global	ADC_DMAHalfConvCplt
	.syntax unified
	.thumb
	.thumb_func
	.type	ADC_DMAHalfConvCplt, %function
ADC_DMAHalfConvCplt:
.LFB361:
	.loc 1 3895 1 is_stmt 1
	.cfi_startproc
	@ args = 0, pretend = 0, frame = 0
	@ frame_needed = 0, uses_anonymous_args = 0
.LVL53:
	push	{r3, lr}
	.cfi_def_cfa_offset 8
	.cfi_offset 3, -8
	.cfi_offset 14, -4
	.loc 1 3897 3
.LVL54:
	.loc 1 3903 3
	ldr	r0, [r0, #56]
.LVL55:
	bl	HAL_ADC_ConvHalfCpltCallback
.LVL56:
	.loc 1 3905 1 is_stmt 0
	pop	{r3, pc}
	.cfi_endproc
.LFE361:
	.size	ADC_DMAHalfConvCplt, .-ADC_DMAHalfConvCplt
	.section	.text.HAL_ADC_LevelOutOfWindowCallback,"ax",%progbits
	.align	1
	.weak	HAL_ADC_LevelOutOfWindowCallback
	.syntax unified
	.thumb
	.thumb_func
	.type	HAL_ADC_LevelOutOfWindowCallback, %function
HAL_ADC_LevelOutOfWindowCallback:
.LFB351:
	.loc 1 2752 1 is_stmt 1
	.cfi_startproc
	@ args = 0, pretend = 0, frame = 0
	@ frame_needed = 0, uses_anonymous_args = 0
	@ link register save eliminated.
.LVL57:
	.loc 1 2754 3
	.loc 1 2759 1 is_stmt 0
	bx	lr
	.cfi_endproc
.LFE351:
	.size	HAL_ADC_LevelOutOfWindowCallback, .-HAL_ADC_LevelOutOfWindowCallback
	.section	.text.HAL_ADC_ErrorCallback,"ax",%progbits
	.align	1
	.weak	HAL_ADC_ErrorCallback
	.syntax unified
	.thumb
	.thumb_func
	.type	HAL_ADC_ErrorCallback, %function
HAL_ADC_ErrorCallback:
.LFB352:
	.loc 1 2774 1 is_stmt 1
	.cfi_startproc
	@ args = 0, pretend = 0, frame = 0
	@ frame_needed = 0, uses_anonymous_args = 0
	@ link register save eliminated.
.LVL58:
	.loc 1 2776 3
	.loc 1 2781 1 is_stmt 0
	bx	lr
	.cfi_endproc
.LFE352:
	.size	HAL_ADC_ErrorCallback, .-HAL_ADC_ErrorCallback
	.section	.text.HAL_ADC_IRQHandler,"ax",%progbits
	.align	1
	.global	HAL_ADC_IRQHandler
	.syntax unified
	.thumb
	.thumb_func
	.type	HAL_ADC_IRQHandler, %function
HAL_ADC_IRQHandler:
.LFB348:
	.loc 1 2362 1 is_stmt 1
	.cfi_startproc
	@ args = 0, pretend = 0, frame = 0
	@ frame_needed = 0, uses_anonymous_args = 0
.LVL59:
	push	{r3, r4, r5, r6, r7, lr}
	.cfi_def_cfa_offset 24
	.cfi_offset 3, -24
	.cfi_offset 4, -20
	.cfi_offset 5, -16
	.cfi_offset 6, -12
	.cfi_offset 7, -8
	.cfi_offset 14, -4
	mov	r4, r0
	.loc 1 2363 3
.LVL60:
	.loc 1 2364 3
	.loc 1 2364 26 is_stmt 0
	ldr	r3, [r0]
	.loc 1 2364 12
	ldr	r5, [r3]
.LVL61:
	.loc 1 2365 3 is_stmt 1
	.loc 1 2365 12 is_stmt 0
	ldr	r6, [r3, #4]
.LVL62:
	.loc 1 2366 3 is_stmt 1
	.loc 1 2367 3
	.loc 1 2368 3
	.loc 1 2369 3
	.loc 1 2370 3
	.loc 1 2370 35 is_stmt 0
	ldr	r1, .L114
	ldr	r2, .L114+4
	cmp	r3, r2
	it	ne
	cmpne	r3, r1
	bne	.L101
	ldr	r3, .L114+8
.L64:
.LVL63:
.LBB278:
.LBB279:
	.loc 2 6603 3 is_stmt 1 discriminator 4
	.loc 2 6603 35 is_stmt 0 discriminator 4
	ldr	r7, [r3, #8]
	.loc 2 6603 10 discriminator 4
	and	r7, r7, #31
.LVL64:
.LBE279:
.LBE278:
	.loc 1 2373 3 is_stmt 1 discriminator 4
	.loc 1 2374 3 discriminator 4
	.loc 1 2377 3 discriminator 4
	.loc 1 2377 6 is_stmt 0 discriminator 4
	tst	r5, #2
	beq	.L65
	.loc 1 2377 56 discriminator 1
	tst	r6, #2
	beq	.L65
	.loc 1 2380 5 is_stmt 1
	.loc 1 2380 14 is_stmt 0
	ldr	r3, [r4, #84]
	.loc 1 2380 8
	tst	r3, #16
	bne	.L66
	.loc 1 2383 7 is_stmt 1
	.loc 1 2383 13 is_stmt 0
	ldr	r3, [r4, #84]
	.loc 1 2383 22
	orr	r3, r3, #2048
	str	r3, [r4, #84]
.L66:
	.loc 1 2390 5 is_stmt 1
	mov	r0, r4
.LVL65:
	bl	HAL_ADCEx_EndOfSamplingCallback
.LVL66:
	.loc 1 2394 5
	.loc 1 2394 13 is_stmt 0
	ldr	r3, [r4]
	.loc 1 2394 30
	movs	r2, #2
	str	r2, [r3]
.L65:
	.loc 1 2398 3 is_stmt 1
	.loc 1 2398 6 is_stmt 0
	tst	r5, #4
	beq	.L67
	.loc 1 2398 57 discriminator 1
	tst	r6, #4
	bne	.L68
.L67:
	.loc 1 2398 110 discriminator 3
	tst	r5, #8
	beq	.L69
	.loc 1 2399 57
	tst	r6, #8
	beq	.L69
.L68:
	.loc 1 2402 5 is_stmt 1
	.loc 1 2402 14 is_stmt 0
	ldr	r3, [r4, #84]
	.loc 1 2402 8
	tst	r3, #16
	bne	.L70
	.loc 1 2405 7 is_stmt 1
	.loc 1 2405 13 is_stmt 0
	ldr	r3, [r4, #84]
	.loc 1 2405 22
	orr	r3, r3, #512
	str	r3, [r4, #84]
.L70:
	.loc 1 2411 5 is_stmt 1
	.loc 1 2411 9 is_stmt 0
	ldr	r3, [r4]
.LVL67:
.LBB280:
.LBB281:
	.loc 2 3930 3 is_stmt 1
	.loc 2 3930 18 is_stmt 0
	ldr	r2, [r3, #12]
	.loc 2 3930 94
	tst	r2, #3072
	bne	.L71
.LVL68:
.LBE281:
.LBE280:
	.loc 1 2416 7 is_stmt 1
	.loc 1 2416 169 is_stmt 0
	ldr	r2, .L114+4
	cmp	r3, r2
	beq	.L108
	mov	r2, r3
.L72:
	.loc 1 2416 10 discriminator 4
	cmp	r3, r2
	beq	.L73
	cmp	r7, #9
	bhi	.L74
	movw	r1, #545
	lsrs	r1, r1, r7
	tst	r1, #1
	bne	.L73
.L74:
	.loc 1 2428 9 is_stmt 1 discriminator 4
.LVL69:
	.loc 1 2429 9 discriminator 4
	.loc 1 2429 18 is_stmt 0 discriminator 4
	ldr	r2, [r2, #12]
.LVL70:
	b	.L75
.LVL71:
.L101:
	.loc 1 2370 35
	ldr	r3, .L114+12
	b	.L64
.LVL72:
.L108:
	.loc 1 2416 169
	sub	r2, r2, #256
	b	.L72
.L73:
	.loc 1 2423 9 is_stmt 1
	.loc 1 2423 18 is_stmt 0
	ldr	r2, [r3, #12]
.LVL73:
.L75:
	.loc 1 2433 7 is_stmt 1
	.loc 1 2433 10 is_stmt 0
	tst	r2, #8192
	bne	.L71
	.loc 1 2436 9 is_stmt 1
	.loc 1 2436 32 is_stmt 0
	ldr	r2, [r3]
.LVL74:
	.loc 1 2436 12
	tst	r2, #8
	beq	.L71
	.loc 1 2440 11 is_stmt 1
.LVL75:
.LBB282:
.LBB283:
	.loc 2 7075 3
	.loc 2 7075 18 is_stmt 0
	ldr	r2, [r3, #8]
	.loc 2 7075 73
	tst	r2, #4
	bne	.L76
.LVL76:
.LBE283:
.LBE282:
	.loc 1 2446 13 is_stmt 1
	.loc 1 2446 31 is_stmt 0
	ldr	r2, [r3, #4]
	.loc 1 2446 38
	bic	r2, r2, #12
	str	r2, [r3, #4]
	.loc 1 2449 13 is_stmt 1
	.loc 1 2449 19 is_stmt 0
	ldr	r3, [r4, #84]
	.loc 1 2449 28
	bic	r3, r3, #256
	str	r3, [r4, #84]
	.loc 1 2451 13 is_stmt 1
	.loc 1 2451 22 is_stmt 0
	ldr	r3, [r4, #84]
	.loc 1 2451 16
	tst	r3, #4096
	bne	.L71
	.loc 1 2453 15 is_stmt 1
	.loc 1 2453 21 is_stmt 0
	ldr	r3, [r4, #84]
	.loc 1 2453 30
	orr	r3, r3, #1
	str	r3, [r4, #84]
	b	.L71
.LVL77:
.L76:
	.loc 1 2459 13 is_stmt 1
	.loc 1 2459 19 is_stmt 0
	ldr	r3, [r4, #84]
	.loc 1 2459 28
	orr	r3, r3, #16
	str	r3, [r4, #84]
	.loc 1 2462 13 is_stmt 1
	.loc 1 2462 19 is_stmt 0
	ldr	r3, [r4, #88]
	.loc 1 2462 32
	orr	r3, r3, #1
	str	r3, [r4, #88]
.LVL78:
.L71:
	.loc 1 2476 5 is_stmt 1
	mov	r0, r4
	bl	HAL_ADC_ConvCpltCallback
.LVL79:
	.loc 1 2484 5
	.loc 1 2484 13 is_stmt 0
	ldr	r3, [r4]
	.loc 1 2484 30
	movs	r2, #12
	str	r2, [r3]
.L69:
	.loc 1 2488 3 is_stmt 1
	.loc 1 2488 6 is_stmt 0
	tst	r5, #32
	beq	.L78
	.loc 1 2488 57 discriminator 1
	tst	r6, #32
	bne	.L79
.L78:
	.loc 1 2488 110 discriminator 3
	tst	r5, #64
	beq	.L80
	.loc 1 2489 57
	tst	r6, #64
	beq	.L80
.L79:
	.loc 1 2492 5 is_stmt 1
	.loc 1 2492 14 is_stmt 0
	ldr	r3, [r4, #84]
	.loc 1 2492 8
	tst	r3, #16
	bne	.L81
	.loc 1 2495 7 is_stmt 1
	.loc 1 2495 13 is_stmt 0
	ldr	r3, [r4, #84]
	.loc 1 2495 22
	orr	r3, r3, #8192
	str	r3, [r4, #84]
.L81:
	.loc 1 2499 5 is_stmt 1
	.loc 1 2499 46 is_stmt 0
	ldr	r3, [r4]
.LVL80:
.LBB284:
.LBB285:
	.loc 2 4717 3 is_stmt 1
	.loc 2 4717 18 is_stmt 0
	ldr	r2, [r3, #76]
	.loc 2 4717 92
	tst	r2, #384
	bne	.L103
	movs	r1, #1
.L82:
.LVL81:
.LBE285:
.LBE284:
	.loc 1 2500 5 is_stmt 1
.LBB287:
.LBB288:
	.loc 2 3930 3
	.loc 2 3930 18 is_stmt 0
	ldr	r2, [r3, #12]
	.loc 2 3930 94
	tst	r2, #3072
	bne	.L104
	movs	r0, #1
.L83:
.LVL82:
.LBE288:
.LBE287:
	.loc 1 2504 5 is_stmt 1
	.loc 1 2504 167 is_stmt 0
	ldr	r2, .L114+4
	cmp	r3, r2
	beq	.L109
	mov	r2, r3
.L84:
	.loc 1 2504 8 discriminator 4
	cmp	r3, r2
	beq	.L85
	.loc 1 2506 34
	cmp	r7, #6
	ite	ne
	movne	ip, #0
	moveq	ip, #1
	.loc 1 2506 9
	cbz	r7, .L85
	cmp	ip, #0
	bne	.L85
	.loc 1 2507 9
	cmp	r7, #7
	beq	.L85
	.loc 1 2514 7 is_stmt 1 discriminator 4
.LVL83:
	.loc 1 2515 7 discriminator 4
	.loc 1 2515 16 is_stmt 0 discriminator 4
	ldr	r2, [r2, #12]
.LVL84:
	b	.L87
.LVL85:
.L103:
.LBB290:
.LBB286:
	.loc 2 4717 92
	movs	r1, #0
	b	.L82
.LVL86:
.L104:
.LBE286:
.LBE290:
.LBB291:
.LBB289:
	.loc 2 3930 94
	movs	r0, #0
	b	.L83
.LVL87:
.L109:
.LBE289:
.LBE291:
	.loc 1 2504 167
	sub	r2, r2, #256
	b	.L84
.L85:
	.loc 1 2510 7 is_stmt 1
	.loc 1 2510 16 is_stmt 0
	ldr	r2, [r3, #12]
.LVL88:
.L87:
	.loc 1 2523 5 is_stmt 1
	.loc 1 2523 8 is_stmt 0
	cbz	r1, .L88
	.loc 1 2525 7 is_stmt 1
	.loc 1 2525 10 is_stmt 0
	tst	r2, #33554432
	beq	.L89
	.loc 1 2525 54 discriminator 1
	cbz	r0, .L88
	.loc 1 2526 60
	tst	r2, #8192
	bne	.L88
.L89:
	.loc 1 2530 9 is_stmt 1
	.loc 1 2530 32 is_stmt 0
	ldr	r1, [r3]
.LVL89:
	.loc 1 2530 12
	tst	r1, #64
	beq	.L88
	.loc 1 2538 11 is_stmt 1
	.loc 1 2538 14 is_stmt 0
	tst	r2, #2097152
	bne	.L88
	.loc 1 2542 13 is_stmt 1
.LVL90:
.LBB292:
.LBB293:
	.loc 2 7270 3
	.loc 2 7270 18 is_stmt 0
	ldr	r2, [r3, #8]
.LVL91:
	.loc 2 7270 73
	tst	r2, #8
	bne	.L90
.LVL92:
.LBE293:
.LBE292:
	.loc 1 2545 15 is_stmt 1
	.loc 1 2545 33 is_stmt 0
	ldr	r2, [r3, #4]
	.loc 1 2545 40
	bic	r2, r2, #96
	str	r2, [r3, #4]
	.loc 1 2548 15 is_stmt 1
	.loc 1 2548 21 is_stmt 0
	ldr	r3, [r4, #84]
	.loc 1 2548 30
	bic	r3, r3, #4096
	str	r3, [r4, #84]
	.loc 1 2550 15 is_stmt 1
	.loc 1 2550 24 is_stmt 0
	ldr	r3, [r4, #84]
	.loc 1 2550 18
	tst	r3, #256
	bne	.L88
	.loc 1 2552 17 is_stmt 1
	.loc 1 2552 23 is_stmt 0
	ldr	r3, [r4, #84]
	.loc 1 2552 32
	orr	r3, r3, #1
	str	r3, [r4, #84]
	b	.L88
.LVL93:
.L90:
	.loc 1 2558 15 is_stmt 1
	.loc 1 2558 21 is_stmt 0
	ldr	r3, [r4, #84]
	.loc 1 2558 30
	orr	r3, r3, #16
	str	r3, [r4, #84]
	.loc 1 2561 15 is_stmt 1
	.loc 1 2561 21 is_stmt 0
	ldr	r3, [r4, #88]
	.loc 1 2561 34
	orr	r3, r3, #1
	str	r3, [r4, #88]
.L88:
	.loc 1 2577 5 is_stmt 1
	mov	r0, r4
.LVL94:
	bl	HAL_ADCEx_InjectedConvCpltCallback
.LVL95:
	.loc 1 2581 5
	.loc 1 2581 13 is_stmt 0
	ldr	r3, [r4]
	.loc 1 2581 30
	movs	r2, #96
	str	r2, [r3]
.LVL96:
.L80:
	.loc 1 2585 3 is_stmt 1
	.loc 1 2585 6 is_stmt 0
	tst	r5, #128
	beq	.L92
	.loc 1 2585 56 discriminator 1
	tst	r6, #128
	bne	.L110
.L92:
	.loc 1 2602 3 is_stmt 1
	.loc 1 2602 6 is_stmt 0
	tst	r5, #256
	beq	.L93
	.loc 1 2602 56 discriminator 1
	tst	r6, #256
	bne	.L111
.L93:
	.loc 1 2619 3 is_stmt 1
	.loc 1 2619 6 is_stmt 0
	tst	r5, #512
	beq	.L94
	.loc 1 2619 56 discriminator 1
	tst	r6, #512
	bne	.L112
.L94:
	.loc 1 2636 3 is_stmt 1
	.loc 1 2636 6 is_stmt 0
	tst	r5, #16
	beq	.L95
	.loc 1 2636 56 discriminator 1
	tst	r6, #16
	beq	.L95
	.loc 1 2644 5 is_stmt 1
	.loc 1 2644 19 is_stmt 0
	ldr	r3, [r4, #48]
	.loc 1 2644 8
	cbz	r3, .L96
	.loc 1 2651 7 is_stmt 1
	.loc 1 2651 10 is_stmt 0
	cmp	r7, #0
	beq	.L97
	.loc 1 2655 9 is_stmt 1
	.loc 1 2655 48 is_stmt 0
	ldr	r3, [r4]
	.loc 1 2655 13
	ldr	r1, .L114
	ldr	r2, .L114+4
	cmp	r3, r2
	it	ne
	cmpne	r3, r1
	bne	.L106
	ldr	r3, .L114+8
.L98:
.LVL97:
.LBB294:
.LBB295:
	.loc 2 6694 3 is_stmt 1 discriminator 4
	.loc 2 6694 35 is_stmt 0 discriminator 4
	ldr	r3, [r3, #8]
.LVL98:
.LBE295:
.LBE294:
	.loc 1 2655 12 discriminator 4
	tst	r3, #49152
	beq	.L99
.L96:
.LVL99:
	.loc 1 2673 7 is_stmt 1
	.loc 1 2673 13 is_stmt 0
	ldr	r3, [r4, #84]
	.loc 1 2673 22
	orr	r3, r3, #1024
	str	r3, [r4, #84]
	.loc 1 2676 7 is_stmt 1
	.loc 1 2676 13 is_stmt 0
	ldr	r3, [r4, #88]
	.loc 1 2676 26
	orr	r3, r3, #2
	str	r3, [r4, #88]
	.loc 1 2686 7 is_stmt 1
	mov	r0, r4
	bl	HAL_ADC_ErrorCallback
.LVL100:
.L99:
	.loc 1 2691 5
	.loc 1 2691 13 is_stmt 0
	ldr	r3, [r4]
	.loc 1 2691 30
	movs	r2, #16
	str	r2, [r3]
.L95:
	.loc 1 2695 3 is_stmt 1
	.loc 1 2695 6 is_stmt 0
	tst	r5, #1024
	beq	.L63
	.loc 1 2695 58 discriminator 1
	tst	r6, #1024
	bne	.L113
.L63:
	.loc 1 2714 1
	pop	{r3, r4, r5, r6, r7, pc}
.LVL101:
.L110:
	.loc 1 2588 5 is_stmt 1
	.loc 1 2588 11 is_stmt 0
	ldr	r3, [r4, #84]
	.loc 1 2588 20
	orr	r3, r3, #65536
	str	r3, [r4, #84]
	.loc 1 2594 5 is_stmt 1
	mov	r0, r4
	bl	HAL_ADC_LevelOutOfWindowCallback
.LVL102:
	.loc 1 2598 5
	.loc 1 2598 13 is_stmt 0
	ldr	r3, [r4]
	.loc 1 2598 30
	movs	r2, #128
	str	r2, [r3]
	b	.L92
.L111:
	.loc 1 2605 5 is_stmt 1
	.loc 1 2605 11 is_stmt 0
	ldr	r3, [r4, #84]
	.loc 1 2605 20
	orr	r3, r3, #131072
	str	r3, [r4, #84]
	.loc 1 2611 5 is_stmt 1
	mov	r0, r4
	bl	HAL_ADCEx_LevelOutOfWindow2Callback
.LVL103:
	.loc 1 2615 5
	.loc 1 2615 13 is_stmt 0
	ldr	r3, [r4]
	.loc 1 2615 30
	mov	r2, #256
	str	r2, [r3]
	b	.L93
.L115:
	.align	2
.L114:
	.word	1073881088
	.word	1073881344
	.word	1073881856
	.word	1476551424
.L112:
	.loc 1 2622 5 is_stmt 1
	.loc 1 2622 11 is_stmt 0
	ldr	r3, [r4, #84]
	.loc 1 2622 20
	orr	r3, r3, #262144
	str	r3, [r4, #84]
	.loc 1 2628 5 is_stmt 1
	mov	r0, r4
	bl	HAL_ADCEx_LevelOutOfWindow3Callback
.LVL104:
	.loc 1 2632 5
	.loc 1 2632 13 is_stmt 0
	ldr	r3, [r4]
	.loc 1 2632 30
	mov	r2, #512
	str	r2, [r3]
	b	.L94
.L106:
	.loc 1 2655 13
	ldr	r3, .L116
	b	.L98
.L97:
	.loc 1 2663 9 is_stmt 1
	.loc 1 2663 18 is_stmt 0
	ldr	r3, [r4]
	.loc 1 2663 28
	ldr	r3, [r3, #12]
	.loc 1 2663 12
	tst	r3, #3
	beq	.L99
	b	.L96
.LVL105:
.L113:
	.loc 1 2698 5 is_stmt 1
	.loc 1 2698 11 is_stmt 0
	ldr	r3, [r4, #84]
	.loc 1 2698 20
	orr	r3, r3, #16384
	str	r3, [r4, #84]
	.loc 1 2701 5 is_stmt 1
	.loc 1 2701 11 is_stmt 0
	ldr	r3, [r4, #88]
	.loc 1 2701 24
	orr	r3, r3, #8
	str	r3, [r4, #88]
	.loc 1 2704 5 is_stmt 1
	.loc 1 2704 13 is_stmt 0
	ldr	r3, [r4]
	.loc 1 2704 30
	mov	r2, #1024
	str	r2, [r3]
	.loc 1 2710 5 is_stmt 1
	mov	r0, r4
	bl	HAL_ADCEx_InjectedQueueOverflowCallback
.LVL106:
	.loc 1 2714 1 is_stmt 0
	b	.L63
.L117:
	.align	2
.L116:
	.word	1476551424
	.cfi_endproc
.LFE348:
	.size	HAL_ADC_IRQHandler, .-HAL_ADC_IRQHandler
	.section	.text.ADC_DMAConvCplt,"ax",%progbits
	.align	1
	.global	ADC_DMAConvCplt
	.syntax unified
	.thumb
	.thumb_func
	.type	ADC_DMAConvCplt, %function
ADC_DMAConvCplt:
.LFB360:
	.loc 1 3817 1 is_stmt 1
	.cfi_startproc
	@ args = 0, pretend = 0, frame = 0
	@ frame_needed = 0, uses_anonymous_args = 0
.LVL107:
	push	{r3, lr}
	.cfi_def_cfa_offset 8
	.cfi_offset 3, -8
	.cfi_offset 14, -4
	mov	r3, r0
	.loc 1 3819 3
	.loc 1 3819 22 is_stmt 0
	ldr	r0, [r0, #56]
.LVL108:
	.loc 1 3822 3 is_stmt 1
	.loc 1 3822 12 is_stmt 0
	ldr	r2, [r0, #84]
	.loc 1 3822 6
	tst	r2, #80
	bne	.L119
	.loc 1 3825 5 is_stmt 1
	.loc 1 3825 11 is_stmt 0
	ldr	r3, [r0, #84]
.LVL109:
	.loc 1 3825 20
	orr	r3, r3, #512
	str	r3, [r0, #84]
	.loc 1 3831 5 is_stmt 1
	.loc 1 3831 14 is_stmt 0
	ldr	r3, [r0]
	.loc 1 3831 24
	ldr	r2, [r3]
	.loc 1 3831 8
	tst	r2, #8
	beq	.L120
	.loc 1 3834 7 is_stmt 1
.LVL110:
.LBB296:
.LBB297:
	.loc 2 3930 3
	.loc 2 3930 18 is_stmt 0
	ldr	r2, [r3, #12]
	.loc 2 3930 94
	tst	r2, #3072
	bne	.L121
.LVL111:
.LBE297:
.LBE296:
	.loc 1 3837 9 is_stmt 1
	.loc 1 3837 29 is_stmt 0
	ldr	r3, [r3, #12]
	.loc 1 3837 12
	tst	r3, #8192
	bne	.L121
	.loc 1 3840 11 is_stmt 1
	.loc 1 3840 17 is_stmt 0
	ldr	r3, [r0, #84]
	.loc 1 3840 26
	bic	r3, r3, #256
	str	r3, [r0, #84]
	.loc 1 3841 11 is_stmt 1
	.loc 1 3841 20 is_stmt 0
	ldr	r3, [r0, #84]
	.loc 1 3841 14
	tst	r3, #4096
	bne	.L121
	.loc 1 3843 13 is_stmt 1
	.loc 1 3843 19 is_stmt 0
	ldr	r3, [r0, #84]
	.loc 1 3843 28
	orr	r3, r3, #1
	str	r3, [r0, #84]
	b	.L121
.L120:
	.loc 1 3852 7 is_stmt 1
	.loc 1 3852 27 is_stmt 0
	ldr	r3, [r3, #12]
	.loc 1 3852 10
	tst	r3, #3
	bne	.L121
	.loc 1 3855 9 is_stmt 1
	.loc 1 3855 15 is_stmt 0
	ldr	r3, [r0, #84]
	.loc 1 3855 24
	bic	r3, r3, #256
	str	r3, [r0, #84]
	.loc 1 3856 9 is_stmt 1
	.loc 1 3856 18 is_stmt 0
	ldr	r3, [r0, #84]
	.loc 1 3856 12
	tst	r3, #4096
	bne	.L121
	.loc 1 3858 11 is_stmt 1
	.loc 1 3858 17 is_stmt 0
	ldr	r3, [r0, #84]
	.loc 1 3858 26
	orr	r3, r3, #1
	str	r3, [r0, #84]
.L121:
	.loc 1 3867 5 is_stmt 1
	bl	HAL_ADC_ConvCpltCallback
.LVL112:
.L118:
	.loc 1 3887 1 is_stmt 0
	pop	{r3, pc}
.LVL113:
.L119:
	.loc 1 3872 5 is_stmt 1
	.loc 1 3872 14 is_stmt 0
	ldr	r2, [r0, #84]
	.loc 1 3872 8
	tst	r2, #16
	bne	.L125
	.loc 1 3884 7 is_stmt 1
	.loc 1 3884 11 is_stmt 0
	ldr	r2, [r0, #76]
	.loc 1 3884 23
	ldr	r2, [r2, #76]
	.loc 1 3884 7
	mov	r0, r3
.LVL114:
	blx	r2
.LVL115:
	.loc 1 3887 1
	b	.L118
.LVL116:
.L125:
	.loc 1 3878 7 is_stmt 1
	bl	HAL_ADC_ErrorCallback
.LVL117:
	b	.L118
	.cfi_endproc
.LFE360:
	.size	ADC_DMAConvCplt, .-ADC_DMAConvCplt
	.section	.text.ADC_DMAError,"ax",%progbits
	.align	1
	.global	ADC_DMAError
	.syntax unified
	.thumb
	.thumb_func
	.type	ADC_DMAError, %function
ADC_DMAError:
.LFB362:
	.loc 1 3913 1
	.cfi_startproc
	@ args = 0, pretend = 0, frame = 0
	@ frame_needed = 0, uses_anonymous_args = 0
.LVL118:
	push	{r3, lr}
	.cfi_def_cfa_offset 8
	.cfi_offset 3, -8
	.cfi_offset 14, -4
	.loc 1 3915 3
	.loc 1 3915 22 is_stmt 0
	ldr	r0, [r0, #56]
.LVL119:
	.loc 1 3918 3 is_stmt 1
	.loc 1 3918 9 is_stmt 0
	ldr	r3, [r0, #84]
	.loc 1 3918 18
	orr	r3, r3, #64
	str	r3, [r0, #84]
	.loc 1 3921 3 is_stmt 1
	.loc 1 3921 9 is_stmt 0
	ldr	r3, [r0, #88]
	.loc 1 3921 22
	orr	r3, r3, #4
	str	r3, [r0, #88]
	.loc 1 3927 3 is_stmt 1
	bl	HAL_ADC_ErrorCallback
.LVL120:
	.loc 1 3929 1 is_stmt 0
	pop	{r3, pc}
	.cfi_endproc
.LFE362:
	.size	ADC_DMAError, .-ADC_DMAError
	.section	.text.HAL_ADC_ConfigChannel,"ax",%progbits
	.align	1
	.global	HAL_ADC_ConfigChannel
	.syntax unified
	.thumb
	.thumb_func
	.type	HAL_ADC_ConfigChannel, %function
HAL_ADC_ConfigChannel:
.LFB353:
	.loc 1 2820 1 is_stmt 1
	.cfi_startproc
	@ args = 0, pretend = 0, frame = 8
	@ frame_needed = 0, uses_anonymous_args = 0
.LVL121:
	push	{r4, r5, r6, lr}
	.cfi_def_cfa_offset 16
	.cfi_offset 4, -16
	.cfi_offset 5, -12
	.cfi_offset 6, -8
	.cfi_offset 14, -4
	sub	sp, sp, #8
	.cfi_def_cfa_offset 24
	.loc 1 2821 3
.LVL122:
	.loc 1 2822 3
	.loc 1 2823 3
	.loc 1 2824 3
	.loc 1 2824 21 is_stmt 0
	movs	r3, #0
	str	r3, [sp, #4]
	.loc 1 2825 3 is_stmt 1
	.loc 1 2826 3
	.loc 1 2829 3
	.loc 1 2830 3
	.loc 1 2831 3
	.loc 1 2832 3
	.loc 1 2833 3
	.loc 1 2835 3
	.loc 1 2849 7
	.loc 1 2855 3
	.loc 1 2858 3
	.loc 1 2876 7
	.loc 1 2882 3
	.loc 1 2882 7
	.loc 1 2882 16 is_stmt 0
	ldrb	r3, [r0, #80]	@ zero_extendqisi2
	.loc 1 2882 9
	cmp	r3, #1
	beq	.L182
	mov	r4, r0
	mov	r5, r1
	.loc 1 2882 66 is_stmt 1 discriminator 2
	.loc 1 2882 79 is_stmt 0 discriminator 2
	movs	r3, #1
	strb	r3, [r0, #80]
	.loc 1 2882 5 is_stmt 1 discriminator 2
	.loc 1 2889 3 discriminator 2
	.loc 1 2889 7 is_stmt 0 discriminator 2
	ldr	r2, [r0]
.LVL123:
.LBB298:
.LBB299:
	.loc 2 7075 3 is_stmt 1 discriminator 2
	.loc 2 7075 18 is_stmt 0 discriminator 2
	ldr	r3, [r2, #8]
	.loc 2 7075 73 discriminator 2
	tst	r3, #4
	beq	.L130
.LVL124:
.LBE299:
.LBE298:
	.loc 1 3107 5 is_stmt 1
	.loc 1 3107 11 is_stmt 0
	ldr	r3, [r0, #84]
	.loc 1 3107 20
	orr	r3, r3, #32
	str	r3, [r0, #84]
	.loc 1 3109 5 is_stmt 1
.LVL125:
	.loc 1 3109 20 is_stmt 0
	movs	r0, #1
.LVL126:
.L131:
	.loc 1 3113 3 is_stmt 1
	.loc 1 3113 7
	.loc 1 3113 20 is_stmt 0
	movs	r3, #0
	strb	r3, [r4, #80]
	.loc 1 3113 5 is_stmt 1
	.loc 1 3116 3
.LVL127:
.L129:
	.loc 1 3117 1 is_stmt 0
	add	sp, sp, #8
	.cfi_remember_state
	.cfi_def_cfa_offset 16
	@ sp needed
	pop	{r4, r5, r6, pc}
.LVL128:
.L130:
	.cfi_restore_state
	.loc 1 2891 5 is_stmt 1
	.loc 1 2891 21 is_stmt 0
	ldr	r3, [r1]
	.loc 1 2891 8
	cmp	r3, #0
	blt	.L132
	.loc 1 2901 7 is_stmt 1
	.loc 1 2901 73 is_stmt 0
	ubfx	r1, r3, #0, #20
.LVL129:
	.loc 1 2901 37
	cmp	r1, #0
	bne	.L133
	.loc 1 2901 163 discriminator 1
	ubfx	r3, r3, #26, #5
	.loc 1 2901 37 discriminator 1
	movs	r1, #1
	lsls	r1, r1, r3
.L134:
	.loc 1 2901 21 discriminator 4
	ldr	r3, [r2, #28]
	.loc 1 2901 29 discriminator 4
	orrs	r3, r3, r1
	str	r3, [r2, #28]
.L132:
	.loc 1 2906 5 is_stmt 1
	ldr	r2, [r5]
	ldr	r1, [r5, #4]
	ldr	r0, [r4]
.LVL130:
	bl	LL_ADC_REG_SetSequencerRanks
.LVL131:
	.loc 1 2913 5
	.loc 1 2913 46 is_stmt 0
	ldr	r0, [r4]
.LVL132:
.LBB300:
.LBB301:
	.loc 2 7075 3 is_stmt 1
	.loc 2 7075 18 is_stmt 0
	ldr	r3, [r0, #8]
	.loc 2 7075 73
	ands	r3, r3, #4
	beq	.L136
	movs	r3, #1
.L136:
.LVL133:
.LBE301:
.LBE300:
	.loc 1 2914 5 is_stmt 1
.LBB302:
.LBB303:
	.loc 2 7270 3
	.loc 2 7270 18 is_stmt 0
	ldr	r2, [r0, #8]
	.loc 2 7270 73
	ands	r2, r2, #8
	beq	.L137
	movs	r2, #1
.L137:
.LVL134:
.LBE303:
.LBE302:
	.loc 1 2915 5 is_stmt 1
	.loc 1 2915 8 is_stmt 0
	orrs	r6, r2, r3
	beq	.L201
.LVL135:
.L138:
	.loc 1 3017 5 is_stmt 1
	.loc 1 3017 9 is_stmt 0
	ldr	r2, [r4]
.LVL136:
.LBB304:
.LBB305:
	.loc 2 6943 3 is_stmt 1
	.loc 2 6943 18 is_stmt 0
	ldr	r3, [r2, #8]
	.loc 2 6943 73
	tst	r3, #1
	bne	.L185
.LVL137:
.LBE305:
.LBE304:
	.loc 1 3020 7 is_stmt 1
	ldr	r3, [r5]
	ldr	r0, [r5, #12]
.LVL138:
.LBB306:
.LBB307:
	.loc 2 5577 3
	.loc 2 5577 33 is_stmt 0
	ldr	r1, [r2, #192]
	.loc 2 5577 58
	ubfx	r6, r3, #0, #20
	.loc 2 5577 45
	bic	r1, r1, r6
	.loc 2 5577 164
	and	r6, r0, #24
	.loc 2 5577 149
	ldr	r0, .L216
.LVL139:
	lsrs	r0, r0, r6
	.loc 2 5577 126
	ands	r3, r3, r0
.LVL140:
	ubfx	r3, r3, #0, #20
	.loc 2 5577 87
	orrs	r3, r3, r1
	.loc 2 5577 21
	str	r3, [r2, #192]
.LVL141:
.LBE307:
.LBE306:
	.loc 1 3023 7 is_stmt 1
	.loc 1 3023 18 is_stmt 0
	ldr	r2, [r5, #12]
	.loc 1 3023 10
	ldr	r3, .L216+4
	cmp	r2, r3
	beq	.L202
.L148:
	.loc 1 3038 7 is_stmt 1
	.loc 1 3038 21 is_stmt 0
	ldr	r3, [r5]
	.loc 1 3038 10
	cmp	r3, #0
	blt	.L203
	.loc 1 2821 21
	movs	r0, #0
	b	.L131
.LVL142:
.L133:
.LBB308:
.LBB309:
	.file 3 "d:\\rtos\\board\\yd-stm32h7xxvx_classicv19\\cmake-build-debug\\_deps\\stm32h7xx_cmsis_include\\drivers\\cmsis\\include\\cmsis_gcc.h"
	.loc 3 1050 3 is_stmt 1 discriminator 2
	.loc 3 1055 4 discriminator 2
	.syntax unified
@ 1055 "d:\rtos\board\yd-stm32h7xxvx_classicv19\cmake-build-debug\_deps\stm32h7xx_cmsis_include\drivers\cmsis\include\cmsis_gcc.h" 1
	rbit r3, r3
@ 0 "" 2
.LVL143:
	.loc 3 1068 3 discriminator 2
	.thumb
	.syntax unified
.LBE309:
.LBE308:
.LBB310:
.LBB311:
	.loc 3 1089 3 discriminator 2
	.loc 3 1089 6 is_stmt 0 discriminator 2
	cbz	r3, .L183
	.loc 3 1093 3 is_stmt 1
	.loc 3 1093 10 is_stmt 0
	clz	r3, r3
.LVL144:
.L135:
.LBE311:
.LBE310:
	.loc 1 2901 239
	and	r3, r3, #31
	.loc 1 2901 37
	movs	r1, #1
	lsls	r1, r1, r3
	b	.L134
.LVL145:
.L183:
.LBB313:
.LBB312:
	.loc 3 1091 12
	movs	r3, #32
.LVL146:
	b	.L135
.LVL147:
.L201:
.LBE312:
.LBE313:
	.loc 1 2920 7 is_stmt 1
	ldr	r2, [r5, #8]
.LVL148:
	ldr	r1, [r5]
	bl	LL_ADC_SetChannelSamplingTime
.LVL149:
	.loc 1 2934 9
	.loc 1 2934 66 is_stmt 0
	ldr	r3, .L216+8
	ldr	r3, [r3]
	.loc 1 2934 75
	and	r3, r3, #-268435456
	.loc 1 2934 200
	cmp	r3, #268435456
	beq	.L204
	.loc 1 2934 211 discriminator 2
	ldr	r2, [r4]
	.loc 1 2934 221 discriminator 2
	ldr	r3, [r2, #12]
	.loc 1 2934 348 discriminator 2
	tst	r3, #16
	bne	.L141
	.loc 1 2934 277 discriminator 4
	ldr	r3, [r5, #20]
	.loc 1 2934 308 discriminator 4
	ldr	r2, [r2, #12]
	.loc 1 2934 334 discriminator 4
	ubfx	r2, r2, #2, #3
	.loc 1 2934 341 discriminator 4
	lsls	r2, r2, #1
	.loc 1 2934 348 discriminator 4
	lsls	r3, r3, r2
	b	.L140
.L204:
	.loc 1 2934 129 discriminator 1
	ldr	r3, [r5, #20]
	.loc 1 2934 150 discriminator 1
	ldr	r2, [r4]
	.loc 1 2934 160 discriminator 1
	ldr	r2, [r2, #12]
	.loc 1 2934 186 discriminator 1
	ubfx	r2, r2, #2, #3
	.loc 1 2934 193 discriminator 1
	lsls	r2, r2, #1
	.loc 1 2934 200 discriminator 1
	lsls	r3, r3, r2
.L140:
.LVL150:
	.loc 1 2937 7 is_stmt 1 discriminator 8
	.loc 1 2937 18 is_stmt 0 discriminator 8
	ldr	r1, [r5, #16]
	.loc 1 2937 10 discriminator 8
	cmp	r1, #4
	beq	.L142
	.loc 1 2940 9 is_stmt 1
	ldr	r2, [r4]
	ldr	r0, [r5]
.LVL151:
.LBB314:
.LBB315:
	.loc 2 3381 3
	.loc 2 3381 75 is_stmt 0
	add	ip, r2, #96
.LVL152:
	.loc 2 3392 5 is_stmt 1
	.loc 2 3392 24 is_stmt 0
	ldr	r2, [ip, r1, lsl #2]
.LVL153:
	.loc 2 3392 33
	and	r2, r2, #-2147483648
	.loc 2 3392 95
	and	r0, r0, #2080374784
.LVL154:
	.loc 2 3392 118
	orrs	r3, r3, r0
.LVL155:
	.loc 2 3392 83
	orrs	r3, r3, r2
	.loc 2 3392 16
	str	r3, [ip, r1, lsl #2]
.LVL156:
.LBE315:
.LBE314:
	.loc 1 2954 11 is_stmt 1
	.loc 1 2956 11
	ldr	r3, [r4]
	ldr	r0, [r5, #16]
	.loc 1 2956 91 is_stmt 0
	ldrb	r2, [r5, #25]	@ zero_extendqisi2
	.loc 1 2956 11
	cmp	r2, #1
	beq	.L205
	mov	r1, r6
.L143:
.LVL157:
.LBB316:
.LBB317:
	.loc 2 3562 5 is_stmt 1 discriminator 4
	.loc 2 3562 77 is_stmt 0 discriminator 4
	adds	r3, r3, #96
.LVL158:
	.loc 2 3563 5 is_stmt 1 discriminator 4
	.loc 2 3563 24 is_stmt 0 discriminator 4
	ldr	r2, [r3, r0, lsl #2]
	.loc 2 3563 33 discriminator 4
	bic	r2, r2, #-2147483648
	.loc 2 3563 58 discriminator 4
	orrs	r2, r2, r1
	.loc 2 3563 16 discriminator 4
	str	r2, [r3, r0, lsl #2]
.LVL159:
.LBE317:
.LBE316:
	.loc 1 2958 11 is_stmt 1 discriminator 4
	.loc 1 2960 11 discriminator 4
	ldr	r1, [r4]
	ldr	r2, [r5, #16]
	.loc 1 2960 83 is_stmt 0 discriminator 4
	ldrb	r3, [r5, #24]	@ zero_extendqisi2
	.loc 1 2960 11 discriminator 4
	cmp	r3, #1
	beq	.L206
.L144:
.LVL160:
.LBB318:
.LBB319:
	.loc 2 3512 3 is_stmt 1 discriminator 4
	.loc 2 3512 32 is_stmt 0 discriminator 4
	ldr	r3, [r1, #16]
	.loc 2 3512 43 discriminator 4
	bic	r3, r3, #30720
	.loc 2 3512 153 discriminator 4
	and	r2, r2, #31
.LVL161:
	.loc 2 3512 141 discriminator 4
	lsl	r2, r6, r2
	.loc 2 3512 127 discriminator 4
	orrs	r3, r3, r2
	.loc 2 3512 20 discriminator 4
	str	r3, [r1, #16]
.LVL162:
	.loc 2 3513 1 discriminator 4
	b	.L138
.LVL163:
.L141:
.LBE319:
.LBE318:
	.loc 1 2934 369 discriminator 5
	ldr	r3, [r5, #20]
	.loc 1 2934 400 discriminator 5
	ldr	r2, [r2, #12]
	.loc 1 2934 443 discriminator 5
	lsrs	r2, r2, #2
	and	r2, r2, #4
	.loc 1 2934 451 discriminator 5
	lsls	r2, r2, #1
	.loc 1 2934 348 discriminator 5
	lsls	r3, r3, r2
	b	.L140
.LVL164:
.L205:
	.loc 1 2956 11
	mov	r1, #-2147483648
	b	.L143
.L206:
	.loc 1 2960 11
	mov	r6, #2048
	b	.L144
.LVL165:
.L142:
	.loc 1 2992 11 is_stmt 1
	.loc 1 2992 21 is_stmt 0
	ldr	r2, [r4]
	.loc 1 2992 31
	ldr	r3, [r2, #96]
.LVL166:
	.loc 1 2992 39
	and	r3, r3, #2080374784
	.loc 1 2992 72
	ldr	r1, [r5]
	.loc 1 2992 14
	cmp	r3, r1, lsl #26
	beq	.L207
.L145:
	.loc 1 2996 11 is_stmt 1
	.loc 1 2996 21 is_stmt 0
	ldr	r2, [r4]
	.loc 1 2996 31
	ldr	r3, [r2, #100]
	.loc 1 2996 39
	and	r3, r3, #2080374784
	.loc 1 2996 72
	ldr	r1, [r5]
	.loc 1 2996 14
	cmp	r3, r1, lsl #26
	beq	.L208
.L146:
	.loc 1 3000 11 is_stmt 1
	.loc 1 3000 21 is_stmt 0
	ldr	r2, [r4]
	.loc 1 3000 31
	ldr	r3, [r2, #104]
	.loc 1 3000 39
	and	r3, r3, #2080374784
	.loc 1 3000 72
	ldr	r1, [r5]
	.loc 1 3000 14
	cmp	r3, r1, lsl #26
	beq	.L209
.L147:
	.loc 1 3004 11 is_stmt 1
	.loc 1 3004 21 is_stmt 0
	ldr	r2, [r4]
	.loc 1 3004 31
	ldr	r3, [r2, #108]
	.loc 1 3004 39
	and	r3, r3, #2080374784
	.loc 1 3004 72
	ldr	r1, [r5]
	.loc 1 3004 14
	cmp	r3, r1, lsl #26
	bne	.L138
	.loc 1 3006 13 is_stmt 1
	.loc 1 3006 29 is_stmt 0
	ldr	r3, [r2, #108]
	.loc 1 3006 37
	bic	r3, r3, #-2147483648
	str	r3, [r2, #108]
	b	.L138
.L207:
	.loc 1 2994 13 is_stmt 1
	.loc 1 2994 29 is_stmt 0
	ldr	r3, [r2, #96]
	.loc 1 2994 37
	bic	r3, r3, #-2147483648
	str	r3, [r2, #96]
	b	.L145
.L208:
	.loc 1 2998 13 is_stmt 1
	.loc 1 2998 29 is_stmt 0
	ldr	r3, [r2, #100]
	.loc 1 2998 37
	bic	r3, r3, #-2147483648
	str	r3, [r2, #100]
	b	.L146
.L209:
	.loc 1 3002 13 is_stmt 1
	.loc 1 3002 29 is_stmt 0
	ldr	r3, [r2, #104]
	.loc 1 3002 37
	bic	r3, r3, #-2147483648
	str	r3, [r2, #104]
	b	.L147
.LVL167:
.L202:
	.loc 1 3027 9 is_stmt 1
	ldr	r0, [r4]
	.loc 1 3028 75 is_stmt 0
	ldr	r3, [r5]
	.loc 1 3028 86
	ubfx	r6, r3, #0, #20
	.loc 1 3028 269
	cbnz	r6, .L149
	.loc 1 3028 176 discriminator 1
	lsrs	r2, r3, #26
	.loc 1 3028 259 discriminator 1
	adds	r2, r2, #1
	and	r2, r2, #31
	.loc 1 3028 269 discriminator 1
	cmp	r2, #9
	ite	hi
	movhi	r2, #0
	movls	r2, #1
.L150:
	.loc 1 3027 9
	cmp	r2, #0
	beq	.L152
	.loc 1 3028 499
	cbnz	r6, .L153
	.loc 1 3028 406 discriminator 3
	lsrs	r1, r3, #26
	.loc 1 3028 489 discriminator 3
	adds	r1, r1, #1
	.loc 1 3028 499 discriminator 3
	lsls	r1, r1, #26
	and	r1, r1, #2080374784
.L154:
	.loc 1 3028 533 discriminator 6
	cbnz	r6, .L156
	.loc 1 3028 660 discriminator 7
	lsr	ip, r3, #26
	.loc 1 3028 743 discriminator 7
	add	ip, ip, #1
	and	ip, ip, #31
	.loc 1 3028 533 discriminator 7
	movs	r2, #1
	lsl	r2, r2, ip
.L157:
	.loc 1 3028 510 discriminator 10
	orrs	r1, r1, r2
	.loc 1 3028 772 discriminator 10
	cbnz	r6, .L159
	.loc 1 3028 907 discriminator 11
	lsrs	r3, r3, #26
	.loc 1 3028 990 discriminator 11
	adds	r3, r3, #1
	and	r3, r3, #31
	.loc 1 3028 781 discriminator 11
	add	r3, r3, r3, lsl #1
	.loc 1 3028 772 discriminator 11
	lsls	r3, r3, #20
.L160:
	.loc 1 3027 9
	orrs	r1, r1, r3
.L162:
	.loc 1 3027 9 discriminator 1
	ldr	r2, [r5, #8]
	bl	LL_ADC_SetChannelSamplingTime
.LVL168:
	b	.L148
.L149:
.LVL169:
.LBB320:
.LBB321:
	.loc 3 1050 3 is_stmt 1 discriminator 2
	.loc 3 1055 4 discriminator 2
	.syntax unified
@ 1055 "d:\rtos\board\yd-stm32h7xxvx_classicv19\cmake-build-debug\_deps\stm32h7xx_cmsis_include\drivers\cmsis\include\cmsis_gcc.h" 1
	rbit r2, r3
@ 0 "" 2
.LVL170:
	.loc 3 1068 3 discriminator 2
	.thumb
	.syntax unified
.LBE321:
.LBE320:
.LBB322:
.LBB323:
	.loc 3 1089 3 discriminator 2
	.loc 3 1089 6 is_stmt 0 discriminator 2
	cbz	r2, .L186
	.loc 3 1093 3 is_stmt 1
	.loc 3 1093 10 is_stmt 0
	clz	r2, r2
.LVL171:
.L151:
.LBE323:
.LBE322:
	.loc 1 3028 252
	adds	r2, r2, #1
	.loc 1 3028 259
	and	r2, r2, #31
	.loc 1 3028 269
	cmp	r2, #9
	ite	hi
	movhi	r2, #0
	movls	r2, #1
	b	.L150
.LVL172:
.L186:
.LBB325:
.LBB324:
	.loc 3 1091 12
	movs	r2, #32
.LVL173:
	b	.L151
.LVL174:
.L153:
.LBE324:
.LBE325:
.LBB326:
.LBB327:
	.loc 3 1050 3 is_stmt 1 discriminator 4
	.loc 3 1055 4 discriminator 4
	.syntax unified
@ 1055 "d:\rtos\board\yd-stm32h7xxvx_classicv19\cmake-build-debug\_deps\stm32h7xx_cmsis_include\drivers\cmsis\include\cmsis_gcc.h" 1
	rbit r1, r3
@ 0 "" 2
.LVL175:
	.loc 3 1068 3 discriminator 4
	.thumb
	.syntax unified
.LBE327:
.LBE326:
.LBB328:
.LBB329:
	.loc 3 1089 3 discriminator 4
	.loc 3 1089 6 is_stmt 0 discriminator 4
	cbz	r1, .L187
	.loc 3 1093 3 is_stmt 1
	.loc 3 1093 10 is_stmt 0
	clz	r1, r1
.LVL176:
.L155:
.LBE329:
.LBE328:
	.loc 1 3028 482
	adds	r1, r1, #1
	.loc 1 3028 499
	lsls	r1, r1, #26
	and	r1, r1, #2080374784
	b	.L154
.LVL177:
.L187:
.LBB331:
.LBB330:
	.loc 3 1091 12
	movs	r1, #32
.LVL178:
	b	.L155
.LVL179:
.L156:
.LBE330:
.LBE331:
.LBB332:
.LBB333:
	.loc 3 1050 3 is_stmt 1 discriminator 8
	.loc 3 1055 4 discriminator 8
	.syntax unified
@ 1055 "d:\rtos\board\yd-stm32h7xxvx_classicv19\cmake-build-debug\_deps\stm32h7xx_cmsis_include\drivers\cmsis\include\cmsis_gcc.h" 1
	rbit r2, r3
@ 0 "" 2
.LVL180:
	.loc 3 1068 3 discriminator 8
	.thumb
	.syntax unified
.LBE333:
.LBE332:
.LBB334:
.LBB335:
	.loc 3 1089 3 discriminator 8
	.loc 3 1089 6 is_stmt 0 discriminator 8
	cbz	r2, .L188
	.loc 3 1093 3 is_stmt 1
	.loc 3 1093 10 is_stmt 0
	clz	r2, r2
.LVL181:
.L158:
.LBE335:
.LBE334:
	.loc 1 3028 736
	adds	r2, r2, #1
	.loc 1 3028 743
	and	r2, r2, #31
	.loc 1 3028 533
	mov	ip, #1
	lsl	r2, ip, r2
	b	.L157
.LVL182:
.L188:
.LBB337:
.LBB336:
	.loc 3 1091 12
	movs	r2, #32
.LVL183:
	b	.L158
.LVL184:
.L159:
.LBE336:
.LBE337:
.LBB338:
.LBB339:
	.loc 3 1050 3 is_stmt 1 discriminator 12
	.loc 3 1055 4 discriminator 12
	.syntax unified
@ 1055 "d:\rtos\board\yd-stm32h7xxvx_classicv19\cmake-build-debug\_deps\stm32h7xx_cmsis_include\drivers\cmsis\include\cmsis_gcc.h" 1
	rbit r3, r3
@ 0 "" 2
.LVL185:
	.loc 3 1068 3 discriminator 12
	.thumb
	.syntax unified
.LBE339:
.LBE338:
.LBB340:
.LBB341:
	.loc 3 1089 3 discriminator 12
	.loc 3 1089 6 is_stmt 0 discriminator 12
	cbz	r3, .L189
	.loc 3 1093 3 is_stmt 1
	.loc 3 1093 10 is_stmt 0
	clz	r3, r3
.LVL186:
.L161:
.LBE341:
.LBE340:
	.loc 1 3028 983
	adds	r3, r3, #1
	.loc 1 3028 990
	and	r3, r3, #31
	.loc 1 3028 781
	add	r3, r3, r3, lsl #1
	.loc 1 3028 772
	lsls	r3, r3, #20
	b	.L160
.LVL187:
.L189:
.LBB343:
.LBB342:
	.loc 3 1091 12
	movs	r3, #32
.LVL188:
	b	.L161
.LVL189:
.L152:
.LBE342:
.LBE343:
	.loc 1 3028 1238
	cbnz	r6, .L163
	.loc 1 3028 1145 discriminator 13
	lsrs	r1, r3, #26
	.loc 1 3028 1228 discriminator 13
	adds	r1, r1, #1
	.loc 1 3028 1238 discriminator 13
	lsls	r1, r1, #26
	and	r1, r1, #2080374784
.L164:
	.loc 1 3028 1272 discriminator 16
	cbnz	r6, .L166
	.loc 1 3028 1399 discriminator 17
	lsr	ip, r3, #26
	.loc 1 3028 1482 discriminator 17
	add	ip, ip, #1
	and	ip, ip, #31
	.loc 1 3028 1272 discriminator 17
	movs	r2, #1
	lsl	r2, r2, ip
.L167:
	.loc 1 3028 1249 discriminator 20
	orrs	r1, r1, r2
	.loc 1 3028 1511 discriminator 20
	cbnz	r6, .L169
	.loc 1 3028 1647 discriminator 21
	lsrs	r3, r3, #26
	.loc 1 3028 1730 discriminator 21
	adds	r3, r3, #1
	and	r3, r3, #31
	.loc 1 3028 1750 discriminator 21
	add	r3, r3, r3, lsl #1
	subs	r3, r3, #30
	lsls	r3, r3, #20
	.loc 1 3028 1511 discriminator 21
	orr	r3, r3, #33554432
.L170:
	.loc 1 3027 9 discriminator 2
	orrs	r1, r1, r3
	b	.L162
.L163:
.LVL190:
.LBB344:
.LBB345:
	.loc 3 1050 3 is_stmt 1 discriminator 14
	.loc 3 1055 4 discriminator 14
	.syntax unified
@ 1055 "d:\rtos\board\yd-stm32h7xxvx_classicv19\cmake-build-debug\_deps\stm32h7xx_cmsis_include\drivers\cmsis\include\cmsis_gcc.h" 1
	rbit r1, r3
@ 0 "" 2
.LVL191:
	.loc 3 1068 3 discriminator 14
	.thumb
	.syntax unified
.LBE345:
.LBE344:
.LBB346:
.LBB347:
	.loc 3 1089 3 discriminator 14
	.loc 3 1089 6 is_stmt 0 discriminator 14
	cbz	r1, .L190
	.loc 3 1093 3 is_stmt 1
	.loc 3 1093 10 is_stmt 0
	clz	r1, r1
.LVL192:
.L165:
.LBE347:
.LBE346:
	.loc 1 3028 1221
	adds	r1, r1, #1
	.loc 1 3028 1238
	lsls	r1, r1, #26
	and	r1, r1, #2080374784
	b	.L164
.LVL193:
.L190:
.LBB349:
.LBB348:
	.loc 3 1091 12
	movs	r1, #32
.LVL194:
	b	.L165
.LVL195:
.L166:
.LBE348:
.LBE349:
.LBB350:
.LBB351:
	.loc 3 1050 3 is_stmt 1 discriminator 18
	.loc 3 1055 4 discriminator 18
	.syntax unified
@ 1055 "d:\rtos\board\yd-stm32h7xxvx_classicv19\cmake-build-debug\_deps\stm32h7xx_cmsis_include\drivers\cmsis\include\cmsis_gcc.h" 1
	rbit r2, r3
@ 0 "" 2
.LVL196:
	.loc 3 1068 3 discriminator 18
	.thumb
	.syntax unified
.LBE351:
.LBE350:
.LBB352:
.LBB353:
	.loc 3 1089 3 discriminator 18
	.loc 3 1089 6 is_stmt 0 discriminator 18
	cbz	r2, .L191
	.loc 3 1093 3 is_stmt 1
	.loc 3 1093 10 is_stmt 0
	clz	r2, r2
.LVL197:
.L168:
.LBE353:
.LBE352:
	.loc 1 3028 1475
	adds	r2, r2, #1
	.loc 1 3028 1482
	and	r2, r2, #31
	.loc 1 3028 1272
	mov	ip, #1
	lsl	r2, ip, r2
	b	.L167
.LVL198:
.L191:
.LBB355:
.LBB354:
	.loc 3 1091 12
	movs	r2, #32
.LVL199:
	b	.L168
.LVL200:
.L169:
.LBE354:
.LBE355:
.LBB356:
.LBB357:
	.loc 3 1050 3 is_stmt 1 discriminator 22
	.loc 3 1055 4 discriminator 22
	.syntax unified
@ 1055 "d:\rtos\board\yd-stm32h7xxvx_classicv19\cmake-build-debug\_deps\stm32h7xx_cmsis_include\drivers\cmsis\include\cmsis_gcc.h" 1
	rbit r3, r3
@ 0 "" 2
.LVL201:
	.loc 3 1068 3 discriminator 22
	.thumb
	.syntax unified
.LBE357:
.LBE356:
.LBB358:
.LBB359:
	.loc 3 1089 3 discriminator 22
	.loc 3 1089 6 is_stmt 0 discriminator 22
	cbz	r3, .L192
	.loc 3 1093 3 is_stmt 1
	.loc 3 1093 10 is_stmt 0
	clz	r3, r3
.LVL202:
.L171:
.LBE359:
.LBE358:
	.loc 1 3028 1723
	adds	r3, r3, #1
	.loc 1 3028 1730
	and	r3, r3, #31
	.loc 1 3028 1750
	add	r3, r3, r3, lsl #1
	subs	r3, r3, #30
	lsls	r3, r3, #20
	.loc 1 3028 1511
	orr	r3, r3, #33554432
	b	.L170
.LVL203:
.L192:
.LBB361:
.LBB360:
	.loc 3 1091 12
	movs	r3, #32
.LVL204:
	b	.L171
.L217:
	.align	2
.L216:
	.word	1048575
	.word	1207894016
	.word	1543507968
.LVL205:
.L203:
.LBE360:
.LBE361:
	.loc 1 3042 9 is_stmt 1
	.loc 1 3042 78 is_stmt 0
	ldr	r2, [r4]
	.loc 1 3042 157
	ldr	r1, .L218
	ldr	r0, .L218+4
	.loc 1 3042 39
	cmp	r2, r0
	it	ne
	cmpne	r2, r1
	ite	eq
	moveq	r1, #1
	movne	r1, #0
	bne	.L194
	ldr	r6, .L218+8
.L172:
.LVL206:
.LBB362:
.LBB363:
	.loc 2 2755 3 is_stmt 1 discriminator 4
	.loc 2 2755 35 is_stmt 0 discriminator 4
	ldr	r5, [r6, #8]
.LVL207:
	.loc 2 2755 10 discriminator 4
	and	ip, r5, #29360128
.LVL208:
.LBE363:
.LBE362:
	.loc 1 3046 9 is_stmt 1 discriminator 4
	.loc 1 3046 689 is_stmt 0 discriminator 4
	cbz	r1, .L173
.LVL209:
.LBB364:
.LBB365:
	.loc 2 6943 3 is_stmt 1
	.loc 2 6943 18 is_stmt 0
	ldr	r1, .L218
	ldr	r0, [r1, #8]
	.loc 2 6943 73
	ands	r0, r0, #1
	beq	.L174
	movs	r0, #1
.L174:
.LVL210:
.LBE365:
.LBE364:
.LBB366:
.LBB367:
	.loc 2 6943 3 is_stmt 1
	.loc 2 6943 18 is_stmt 0
	ldr	r1, .L218+4
	ldr	r1, [r1, #8]
	.loc 2 6943 73
	ands	r1, r1, #1
	beq	.L175
	movs	r1, #1
.L175:
.LVL211:
.LBE367:
.LBE366:
	.loc 1 3046 12
	orrs	r1, r1, r0
	beq	.L176
.L177:
	.loc 1 3093 11 is_stmt 1
	.loc 1 3093 17 is_stmt 0
	ldr	r3, [r4, #84]
	.loc 1 3093 26
	orr	r3, r3, #32
	str	r3, [r4, #84]
	.loc 1 3095 11 is_stmt 1
.LVL212:
	.loc 1 3095 26 is_stmt 0
	movs	r0, #1
	b	.L131
.LVL213:
.L194:
	.loc 1 3042 39
	ldr	r6, .L218+12
	b	.L172
.LVL214:
.L173:
.LBB368:
.LBB369:
	.loc 2 6943 3 is_stmt 1
	.loc 2 6943 18 is_stmt 0
	ldr	r1, .L218+16
	ldr	r1, [r1, #8]
	.loc 2 6943 73
	tst	r1, #1
	bne	.L177
.LVL215:
.L176:
.LBE369:
.LBE368:
	.loc 1 3050 11 is_stmt 1
	.loc 1 3050 14 is_stmt 0
	ldr	r1, .L218+20
	cmp	r3, r1
	beq	.L210
.L178:
	.loc 1 3068 16 is_stmt 1
	.loc 1 3068 19 is_stmt 0
	ldr	r1, .L218+24
	cmp	r3, r1
	beq	.L211
.L181:
	.loc 1 3075 16 is_stmt 1
	.loc 1 3075 19 is_stmt 0
	ldr	r1, .L218+28
	cmp	r3, r1
	beq	.L212
	.loc 1 2821 21
	movs	r0, #0
	b	.L131
.L210:
	.loc 1 3050 165 discriminator 1
	tst	r5, #8388608
	bne	.L178
	.loc 1 3052 13 is_stmt 1
	.loc 1 3052 16 is_stmt 0
	ldr	r3, .L218+16
	cmp	r2, r3
	beq	.L213
	.loc 1 2821 21
	movs	r0, #0
	b	.L131
.L213:
	.loc 1 3054 15 is_stmt 1 discriminator 4
	orr	r3, ip, #8388608
.LVL216:
.LBB370:
.LBB371:
	.loc 2 2733 3 discriminator 4
	.loc 2 2733 46 is_stmt 0 discriminator 4
	ldr	r2, [r6, #8]
	.loc 2 2733 55 discriminator 4
	bic	r2, r2, #29360128
	.loc 2 2733 118 discriminator 4
	orrs	r3, r3, r2
.LVL217:
	.loc 2 2733 26 discriminator 4
	str	r3, [r6, #8]
.LVL218:
.LBE371:
.LBE370:
	.loc 1 3061 15 is_stmt 1 discriminator 4
	.loc 1 3061 71 is_stmt 0 discriminator 4
	ldr	r3, .L218+32
	ldr	r3, [r3]
	lsrs	r3, r3, #6
	ldr	r2, .L218+36
	umull	r2, r3, r2, r3
	lsrs	r3, r3, #6
	.loc 1 3061 91 discriminator 4
	adds	r3, r3, #1
	.loc 1 3061 51 discriminator 4
	lsls	r3, r3, #1
	.loc 1 3061 31 discriminator 4
	str	r3, [sp, #4]
	.loc 1 3062 15 is_stmt 1 discriminator 4
	.loc 1 3062 21 is_stmt 0 discriminator 4
	b	.L179
.L180:
	.loc 1 3064 17 is_stmt 1
	.loc 1 3064 32 is_stmt 0
	ldr	r3, [sp, #4]
	subs	r3, r3, #1
	str	r3, [sp, #4]
.L179:
	.loc 1 3062 38 is_stmt 1
	ldr	r3, [sp, #4]
	cmp	r3, #0
	bne	.L180
	.loc 1 2821 21 is_stmt 0
	movs	r0, #0
	b	.L131
.L211:
	.loc 1 3068 169 discriminator 1
	tst	r5, #16777216
	bne	.L181
	.loc 1 3070 13 is_stmt 1
	.loc 1 3070 16 is_stmt 0
	ldr	r3, .L218+16
	cmp	r2, r3
	beq	.L214
	.loc 1 2821 21
	movs	r0, #0
	b	.L131
.L214:
	.loc 1 3072 15 is_stmt 1 discriminator 4
	orr	r3, ip, #16777216
.LVL219:
.LBB372:
.LBB373:
	.loc 2 2733 3 discriminator 4
	.loc 2 2733 46 is_stmt 0 discriminator 4
	ldr	r2, [r6, #8]
	.loc 2 2733 55 discriminator 4
	bic	r2, r2, #29360128
	.loc 2 2733 118 discriminator 4
	orrs	r3, r3, r2
.LVL220:
	.loc 2 2733 26 discriminator 4
	str	r3, [r6, #8]
.LBE373:
.LBE372:
	.loc 1 2821 21 discriminator 4
	movs	r0, #0
.LBB375:
.LBB374:
	.loc 2 2734 1 discriminator 4
	b	.L131
.LVL221:
.L212:
.LBE374:
.LBE375:
	.loc 1 3075 189 discriminator 1
	tst	r5, #4194304
	bne	.L198
	.loc 1 3077 13 is_stmt 1
	.loc 1 3077 16 is_stmt 0
	ldr	r3, .L218+16
	cmp	r2, r3
	beq	.L215
	.loc 1 2821 21
	movs	r0, #0
	b	.L131
.L215:
	.loc 1 3079 15 is_stmt 1 discriminator 4
	orr	r3, ip, #4194304
.LVL222:
.LBB376:
.LBB377:
	.loc 2 2733 3 discriminator 4
	.loc 2 2733 46 is_stmt 0 discriminator 4
	ldr	r2, [r6, #8]
	.loc 2 2733 55 discriminator 4
	bic	r2, r2, #29360128
	.loc 2 2733 118 discriminator 4
	orrs	r3, r3, r2
.LVL223:
	.loc 2 2733 26 discriminator 4
	str	r3, [r6, #8]
.LBE377:
.LBE376:
	.loc 1 2821 21 discriminator 4
	movs	r0, #0
.LBB379:
.LBB378:
	.loc 2 2734 1 discriminator 4
	b	.L131
.LVL224:
.L185:
.LBE378:
.LBE379:
	.loc 1 2821 21
	movs	r0, #0
	b	.L131
.LVL225:
.L198:
	movs	r0, #0
	b	.L131
.LVL226:
.L182:
	.loc 1 2882 47
	movs	r0, #2
.LVL227:
	b	.L129
.L219:
	.align	2
.L218:
	.word	1073881088
	.word	1073881344
	.word	1073881856
	.word	1476551424
	.word	1476550656
	.word	-880541696
	.word	-950927360
	.word	-810024960
	.word	SystemCoreClock
	.word	87960931
	.cfi_endproc
.LFE353:
	.size	HAL_ADC_ConfigChannel, .-HAL_ADC_ConfigChannel
	.section	.text.HAL_ADC_AnalogWDGConfig,"ax",%progbits
	.align	1
	.global	HAL_ADC_AnalogWDGConfig
	.syntax unified
	.thumb
	.thumb_func
	.type	HAL_ADC_AnalogWDGConfig, %function
HAL_ADC_AnalogWDGConfig:
.LFB354:
	.loc 1 3136 1 is_stmt 1
	.cfi_startproc
	@ args = 0, pretend = 0, frame = 0
	@ frame_needed = 0, uses_anonymous_args = 0
.LVL228:
	push	{r3, r4, r5, lr}
	.cfi_def_cfa_offset 16
	.cfi_offset 3, -16
	.cfi_offset 4, -12
	.cfi_offset 5, -8
	.cfi_offset 14, -4
	.loc 1 3137 3
.LVL229:
	.loc 1 3138 3
	.loc 1 3139 3
	.loc 1 3140 3
	.loc 1 3141 3
	.loc 1 3144 3
	.loc 1 3145 3
	.loc 1 3146 3
	.loc 1 3147 3
	.loc 1 3149 3
	.loc 1 3153 5
	.loc 1 3179 5
	.loc 1 3189 7
	.loc 1 3190 7
	.loc 1 3195 3
	.loc 1 3195 7
	.loc 1 3195 16 is_stmt 0
	ldrb	r3, [r0, #80]	@ zero_extendqisi2
	.loc 1 3195 9
	cmp	r3, #1
	beq	.L273
	mov	r4, r0
	mov	r5, r1
	.loc 1 3195 66 is_stmt 1 discriminator 2
	.loc 1 3195 79 is_stmt 0 discriminator 2
	movs	r3, #1
	strb	r3, [r0, #80]
	.loc 1 3195 5 is_stmt 1 discriminator 2
	.loc 1 3202 3 discriminator 2
	.loc 1 3202 44 is_stmt 0 discriminator 2
	ldr	r0, [r0]
.LVL230:
.LBB380:
.LBB381:
	.loc 2 7075 3 is_stmt 1 discriminator 2
	.loc 2 7075 18 is_stmt 0 discriminator 2
	ldr	r2, [r0, #8]
	.loc 2 7075 73 discriminator 2
	ands	r2, r2, #4
	beq	.L222
	.loc 2 7075 73
	mov	r2, r3
.L222:
.LVL231:
.LBE381:
.LBE380:
	.loc 1 3203 3 is_stmt 1
.LBB382:
.LBB383:
	.loc 2 7270 3
	.loc 2 7270 18 is_stmt 0
	ldr	r3, [r0, #8]
	.loc 2 7270 73
	ands	r3, r3, #8
	beq	.L223
	movs	r3, #1
.L223:
.LVL232:
.LBE383:
.LBE382:
	.loc 1 3204 3 is_stmt 1
	.loc 1 3204 6 is_stmt 0
	orrs	r3, r3, r2
.LVL233:
	bne	.L224
	.loc 1 3209 5 is_stmt 1
	.loc 1 3209 24 is_stmt 0
	ldr	r1, [r5]
.LVL234:
	.loc 1 3209 8
	ldr	r3, .L292
	cmp	r1, r3
	beq	.L279
	.loc 1 3297 7 is_stmt 1
	.loc 1 3297 30 is_stmt 0
	ldr	r3, [r5, #4]
	.loc 1 3297 7
	cmp	r3, #20971520
	beq	.L243
	bhi	.L244
	cmp	r3, #12582912
	beq	.L243
	cmp	r3, #16777216
	beq	.L245
	cmp	r3, #8388608
	beq	.L245
.L246:
	.loc 1 3344 11 is_stmt 1
	movs	r2, #0
.LVL235:
	bl	LL_ADC_SetAnalogWDMonitChannels
.LVL236:
	.loc 1 3345 11
.L251:
	.loc 1 3350 7
	.loc 1 3350 74 is_stmt 0
	ldr	r3, .L292+4
	ldr	r3, [r3]
	.loc 1 3350 83
	and	r3, r3, #-268435456
	.loc 1 3350 213
	cmp	r3, #268435456
	beq	.L280
	.loc 1 3350 224 discriminator 2
	ldr	r2, [r4]
	.loc 1 3350 234 discriminator 2
	ldr	r3, [r2, #12]
	.loc 1 3350 366 discriminator 2
	tst	r3, #16
	bne	.L264
	.loc 1 3350 288 discriminator 4
	ldr	r3, [r5, #16]
	.loc 1 3350 326 discriminator 4
	ldr	r2, [r2, #12]
	.loc 1 3350 352 discriminator 4
	ubfx	r2, r2, #2, #3
	.loc 1 3350 359 discriminator 4
	lsls	r2, r2, #1
	.loc 1 3350 366 discriminator 4
	lsls	r3, r3, r2
	b	.L263
.LVL237:
.L279:
	.loc 1 3214 7 is_stmt 1
	.loc 1 3214 30 is_stmt 0
	ldr	r3, [r5, #4]
	.loc 1 3214 7
	cmp	r3, #20971520
	beq	.L226
	bhi	.L227
	cmp	r3, #12582912
	beq	.L228
	cmp	r3, #16777216
	bne	.L281
	.loc 1 3236 11 is_stmt 1
.LVL238:
.LBB384:
.LBB385:
	.loc 2 5780 3
	.loc 2 5783 3
	.loc 2 5783 22 is_stmt 0
	ldr	r2, [r0, #12]
.LVL239:
	.loc 2 5783 31
	ldr	r3, .L292+8
	ands	r3, r3, r2
	.loc 2 5783 151
	orr	r3, r3, #16777216
	.loc 2 5783 14
	str	r3, [r0, #12]
	.loc 2 5786 1
	b	.L234
.LVL240:
.L281:
.LBE385:
.LBE384:
	.loc 1 3214 7
	cmp	r3, #8388608
	bne	.L231
	.loc 1 3232 11 is_stmt 1
.LVL241:
.LBB386:
.LBB387:
	.loc 2 5780 3
	.loc 2 5783 3
	.loc 2 5783 22 is_stmt 0
	ldr	r2, [r0, #12]
.LVL242:
	.loc 2 5783 31
	ldr	r3, .L292+8
	ands	r3, r3, r2
	.loc 2 5783 151
	orr	r3, r3, #8388608
	.loc 2 5783 14
	str	r3, [r0, #12]
	.loc 2 5786 1
	b	.L234
.LVL243:
.L227:
.LBE387:
.LBE386:
	.loc 1 3214 7
	cmp	r3, #25165824
	beq	.L232
	cmp	r3, #29360128
	bne	.L231
	.loc 1 3227 11 is_stmt 1
	.loc 1 3227 529 is_stmt 0
	ldr	r2, [r5, #8]
.LVL244:
.LBB388:
.LBB389:
	.loc 2 5780 3 is_stmt 1
	.loc 2 5783 3
	.loc 2 5783 22 is_stmt 0
	ldr	r1, [r0, #12]
	.loc 2 5783 31
	ldr	r3, .L292+8
	ands	r3, r3, r1
	.loc 2 5783 170
	and	r2, r2, #2080374784
.LVL245:
	orr	r2, r2, #29360128
	.loc 2 5783 151
	orrs	r3, r3, r2
	.loc 2 5783 14
	str	r3, [r0, #12]
.LVL246:
	.loc 2 5786 1
	b	.L234
.LVL247:
.L228:
.LBE389:
.LBE388:
	.loc 1 3217 11 is_stmt 1
	.loc 1 3217 214 is_stmt 0
	ldr	r2, [r5, #8]
.LVL248:
.LBB390:
.LBB391:
	.loc 2 5780 3 is_stmt 1
	.loc 2 5783 3
	.loc 2 5783 22 is_stmt 0
	ldr	r1, [r0, #12]
	.loc 2 5783 31
	ldr	r3, .L292+8
	ands	r3, r3, r1
	.loc 2 5783 170
	and	r2, r2, #2080374784
.LVL249:
	orr	r2, r2, #12582912
	.loc 2 5783 151
	orrs	r3, r3, r2
	.loc 2 5783 14
	str	r3, [r0, #12]
.LVL250:
.L234:
.LBE391:
.LBE390:
	.loc 1 3251 7 is_stmt 1
	.loc 1 3251 74 is_stmt 0
	ldr	r3, .L292+4
	ldr	r3, [r3]
	.loc 1 3251 83
	and	r3, r3, #-268435456
	.loc 1 3251 213
	cmp	r3, #268435456
	beq	.L282
	.loc 1 3251 224 discriminator 2
	ldr	r3, [r4]
	.loc 1 3251 234 discriminator 2
	ldr	r2, [r3, #12]
	.loc 1 3251 366 discriminator 2
	tst	r2, #16
	bne	.L237
	.loc 1 3251 288 discriminator 4
	ldr	r2, [r5, #16]
	.loc 1 3251 326 discriminator 4
	ldr	r3, [r3, #12]
	.loc 1 3251 352 discriminator 4
	ubfx	r3, r3, #2, #3
	.loc 1 3251 359 discriminator 4
	lsls	r3, r3, #1
	.loc 1 3251 366 discriminator 4
	lsls	r2, r2, r3
	b	.L236
.LVL251:
.L226:
	.loc 1 3222 11 is_stmt 1
	.loc 1 3222 391 is_stmt 0
	ldr	r2, [r5, #8]
.LVL252:
.LBB392:
.LBB393:
	.loc 2 5780 3 is_stmt 1
	.loc 2 5783 3
	.loc 2 5783 22 is_stmt 0
	ldr	r1, [r0, #12]
	.loc 2 5783 31
	ldr	r3, .L292+8
	ands	r3, r3, r1
	.loc 2 5783 170
	and	r2, r2, #2080374784
.LVL253:
	orr	r2, r2, #20971520
	.loc 2 5783 151
	orrs	r3, r3, r2
	.loc 2 5783 14
	str	r3, [r0, #12]
.LVL254:
	.loc 2 5786 1
	b	.L234
.LVL255:
.L232:
.LBE393:
.LBE392:
	.loc 1 3240 11 is_stmt 1
.LBB394:
.LBB395:
	.loc 2 5780 3
	.loc 2 5783 3
	.loc 2 5783 22 is_stmt 0
	ldr	r2, [r0, #12]
.LVL256:
	.loc 2 5783 31
	ldr	r3, .L292+8
	ands	r3, r3, r2
	.loc 2 5783 151
	orr	r3, r3, #25165824
	.loc 2 5783 14
	str	r3, [r0, #12]
	.loc 2 5786 1
	b	.L234
.LVL257:
.L231:
.LBE395:
.LBE394:
	.loc 1 3244 11 is_stmt 1
.LBB396:
.LBB397:
	.loc 2 5780 3
	.loc 2 5783 3
	.loc 2 5783 22 is_stmt 0
	ldr	r2, [r0, #12]
.LVL258:
	.loc 2 5783 31
	ldr	r3, .L292+8
	ands	r3, r3, r2
	.loc 2 5783 14
	str	r3, [r0, #12]
	.loc 2 5786 1
	b	.L234
.LVL259:
.L282:
.LBE397:
.LBE396:
	.loc 1 3251 135 discriminator 1
	ldr	r2, [r5, #16]
	.loc 1 3251 163 discriminator 1
	ldr	r3, [r4]
	.loc 1 3251 173 discriminator 1
	ldr	r3, [r3, #12]
	.loc 1 3251 199 discriminator 1
	ubfx	r3, r3, #2, #3
	.loc 1 3251 206 discriminator 1
	lsls	r3, r3, #1
	.loc 1 3251 213 discriminator 1
	lsls	r2, r2, r3
.L236:
.LVL260:
	.loc 1 3252 7 is_stmt 1 discriminator 8
	.loc 1 3252 73 is_stmt 0 discriminator 8
	ldr	r3, .L292+4
	ldr	r3, [r3]
	.loc 1 3252 82 discriminator 8
	and	r3, r3, #-268435456
	.loc 1 3252 211 discriminator 8
	cmp	r3, #268435456
	beq	.L283
	.loc 1 3252 222 discriminator 2
	ldr	r3, [r4]
	.loc 1 3252 232 discriminator 2
	ldr	r1, [r3, #12]
	.loc 1 3252 363 discriminator 2
	tst	r1, #16
	bne	.L240
	.loc 1 3252 286 discriminator 4
	ldr	r1, [r5, #20]
	.loc 1 3252 323 discriminator 4
	ldr	r3, [r3, #12]
	.loc 1 3252 349 discriminator 4
	ubfx	r3, r3, #2, #3
	.loc 1 3252 356 discriminator 4
	lsls	r3, r3, #1
	.loc 1 3252 363 discriminator 4
	lsls	r1, r1, r3
	b	.L239
.LVL261:
.L237:
	.loc 1 3251 385 discriminator 5
	ldr	r2, [r5, #16]
	.loc 1 3251 423 discriminator 5
	ldr	r3, [r3, #12]
	.loc 1 3251 466 discriminator 5
	lsrs	r3, r3, #2
	and	r3, r3, #4
	.loc 1 3251 474 discriminator 5
	lsls	r3, r3, #1
	.loc 1 3251 366 discriminator 5
	lsls	r2, r2, r3
	b	.L236
.LVL262:
.L283:
	.loc 1 3252 134 discriminator 1
	ldr	r1, [r5, #20]
	.loc 1 3252 161 discriminator 1
	ldr	r3, [r4]
	.loc 1 3252 171 discriminator 1
	ldr	r3, [r3, #12]
	.loc 1 3252 197 discriminator 1
	ubfx	r3, r3, #2, #3
	.loc 1 3252 204 discriminator 1
	lsls	r3, r3, #1
	.loc 1 3252 211 discriminator 1
	lsls	r1, r1, r3
.L239:
.LVL263:
	.loc 1 3271 7 is_stmt 1 discriminator 8
	.loc 1 3271 45 is_stmt 0 discriminator 8
	ldr	r0, [r4]
	.loc 1 3271 55 discriminator 8
	ldr	r3, [r0, #32]
	.loc 1 3271 65 discriminator 8
	and	r3, r3, #-67108864
	.loc 1 3271 95 discriminator 8
	orrs	r3, r3, r1
	.loc 1 3271 33 discriminator 8
	str	r3, [r0, #32]
	.loc 1 3272 7 is_stmt 1 discriminator 8
	.loc 1 3272 45 is_stmt 0 discriminator 8
	ldr	r1, [r4]
.LVL264:
	.loc 1 3272 55 discriminator 8
	ldr	r3, [r1, #36]
	.loc 1 3272 65 discriminator 8
	and	r3, r3, #-67108864
	.loc 1 3272 95 discriminator 8
	orrs	r3, r3, r2
	.loc 1 3272 33 discriminator 8
	str	r3, [r1, #36]
	.loc 1 3276 7 is_stmt 1 discriminator 8
	.loc 1 3276 13 is_stmt 0 discriminator 8
	ldr	r3, [r4, #84]
	.loc 1 3276 22 discriminator 8
	bic	r3, r3, #65536
	str	r3, [r4, #84]
	.loc 1 3282 7 is_stmt 1 discriminator 8
	ldr	r3, [r4]
.LVL265:
.LBB398:
.LBB399:
	.loc 2 7687 3 discriminator 8
	.loc 2 7687 16 is_stmt 0 discriminator 8
	movs	r2, #128
.LVL266:
	str	r2, [r3]
.LVL267:
.LBE399:
.LBE398:
	.loc 1 3285 7 is_stmt 1 discriminator 8
	.loc 1 3285 26 is_stmt 0 discriminator 8
	ldrb	r3, [r5, #12]	@ zero_extendqisi2
	.loc 1 3285 10 discriminator 8
	cmp	r3, #1
	beq	.L284
	.loc 1 3291 9 is_stmt 1
	ldr	r2, [r4]
.LVL268:
.LBB400:
.LBB401:
	.loc 2 8201 3
	.loc 2 8201 9 is_stmt 0
	ldr	r3, [r2, #4]
	.loc 2 8201 16
	bic	r3, r3, #128
	str	r3, [r2, #4]
.LBE401:
.LBE400:
	.loc 1 3137 21
	movs	r0, #0
.LBB403:
.LBB402:
	.loc 2 8202 1
	b	.L242
.LVL269:
.L240:
.LBE402:
.LBE403:
	.loc 1 3252 382 discriminator 5
	ldr	r1, [r5, #20]
	.loc 1 3252 419 discriminator 5
	ldr	r3, [r3, #12]
	.loc 1 3252 462 discriminator 5
	lsrs	r3, r3, #2
	and	r3, r3, #4
	.loc 1 3252 470 discriminator 5
	lsls	r3, r3, #1
	.loc 1 3252 363 discriminator 5
	lsls	r1, r1, r3
	b	.L239
.LVL270:
.L284:
	.loc 1 3287 9 is_stmt 1
	ldr	r2, [r4]
.LVL271:
.LBB404:
.LBB405:
	.loc 2 8080 3
	.loc 2 8080 9 is_stmt 0
	ldr	r3, [r2, #4]
	.loc 2 8080 16
	orr	r3, r3, #128
	str	r3, [r2, #4]
.LBE405:
.LBE404:
	.loc 1 3137 21
	movs	r0, #0
.LBB407:
.LBB406:
	.loc 2 8081 1
	b	.L242
.LVL272:
.L244:
.LBE406:
.LBE407:
	.loc 1 3297 7
	cmp	r3, #25165824
	beq	.L245
	cmp	r3, #29360128
	bne	.L246
.L243:
	.loc 1 3304 11 is_stmt 1
	.loc 1 3304 14 is_stmt 0
	ldr	r3, .L292+12
	cmp	r1, r3
	beq	.L285
	.loc 1 3310 13 is_stmt 1
	.loc 1 3310 71 is_stmt 0
	ldr	r3, [r5, #8]
	.loc 1 3310 82
	ubfx	r2, r3, #0, #20
.LVL273:
	.loc 1 3310 48
	cbnz	r2, .L252
	.loc 1 3310 170 discriminator 1
	ubfx	r3, r3, #26, #5
	.loc 1 3310 48 discriminator 1
	movs	r2, #1
	lsls	r2, r2, r3
	b	.L253
.LVL274:
.L285:
	.loc 1 3306 13 is_stmt 1
	.loc 1 3306 71 is_stmt 0
	ldr	r3, [r5, #8]
	.loc 1 3306 82
	ubfx	r2, r3, #0, #20
.LVL275:
	.loc 1 3306 48
	cbnz	r2, .L248
	.loc 1 3306 170 discriminator 1
	ubfx	r3, r3, #26, #5
	.loc 1 3306 48 discriminator 1
	movs	r2, #1
	lsls	r2, r2, r3
.L249:
	.loc 1 3306 29 discriminator 4
	ldr	r3, [r0, #160]
	.loc 1 3306 39 discriminator 4
	orrs	r3, r3, r2
	str	r3, [r0, #160]
	b	.L251
.L248:
.LVL276:
.LBB408:
.LBB409:
	.loc 3 1050 3 is_stmt 1 discriminator 2
	.loc 3 1055 4 discriminator 2
	.syntax unified
@ 1055 "d:\rtos\board\yd-stm32h7xxvx_classicv19\cmake-build-debug\_deps\stm32h7xx_cmsis_include\drivers\cmsis\include\cmsis_gcc.h" 1
	rbit r3, r3
@ 0 "" 2
.LVL277:
	.loc 3 1068 3 discriminator 2
	.thumb
	.syntax unified
.LBE409:
.LBE408:
.LBB410:
.LBB411:
	.loc 3 1089 3 discriminator 2
	.loc 3 1089 6 is_stmt 0 discriminator 2
	cbz	r3, .L274
	.loc 3 1093 3 is_stmt 1
	.loc 3 1093 10 is_stmt 0
	clz	r3, r3
.LVL278:
.L250:
.LBE411:
.LBE410:
	.loc 1 3306 244
	and	r3, r3, #31
	.loc 1 3306 48
	movs	r2, #1
	lsls	r2, r2, r3
	b	.L249
.LVL279:
.L274:
.LBB413:
.LBB412:
	.loc 3 1091 12
	movs	r3, #32
.LVL280:
	b	.L250
.LVL281:
.L252:
.LBE412:
.LBE413:
.LBB414:
.LBB415:
	.loc 3 1050 3 is_stmt 1 discriminator 2
	.loc 3 1055 4 discriminator 2
	.syntax unified
@ 1055 "d:\rtos\board\yd-stm32h7xxvx_classicv19\cmake-build-debug\_deps\stm32h7xx_cmsis_include\drivers\cmsis\include\cmsis_gcc.h" 1
	rbit r3, r3
@ 0 "" 2
.LVL282:
	.loc 3 1068 3 discriminator 2
	.thumb
	.syntax unified
.LBE415:
.LBE414:
.LBB416:
.LBB417:
	.loc 3 1089 3 discriminator 2
	.loc 3 1089 6 is_stmt 0 discriminator 2
	cbz	r3, .L275
	.loc 3 1093 3 is_stmt 1
	.loc 3 1093 10 is_stmt 0
	clz	r3, r3
.LVL283:
.L254:
.LBE417:
.LBE416:
	.loc 1 3310 244
	and	r3, r3, #31
	.loc 1 3310 48
	movs	r2, #1
	lsls	r2, r2, r3
.L253:
	.loc 1 3310 29 discriminator 4
	ldr	r3, [r0, #164]
	.loc 1 3310 39 discriminator 4
	orrs	r3, r3, r2
	str	r3, [r0, #164]
	b	.L251
.LVL284:
.L275:
.LBB419:
.LBB418:
	.loc 3 1091 12
	movs	r3, #32
.LVL285:
	b	.L254
.LVL286:
.L245:
.LBE418:
.LBE419:
	.loc 1 3330 13 is_stmt 1
	.loc 1 3330 16 is_stmt 0
	ldr	r3, .L292+12
	cmp	r1, r3
	beq	.L286
	.loc 1 3336 15 is_stmt 1
	.loc 1 3336 73 is_stmt 0
	ldr	r3, [r5, #8]
	.loc 1 3336 84
	ubfx	r2, r3, #0, #20
.LVL287:
	.loc 1 3336 50
	cbnz	r2, .L259
	.loc 1 3336 172 discriminator 1
	ubfx	r3, r3, #26, #5
	.loc 1 3336 50 discriminator 1
	movs	r2, #1
	lsls	r2, r2, r3
	b	.L260
.LVL288:
.L286:
	.loc 1 3332 15 is_stmt 1
	.loc 1 3332 73 is_stmt 0
	ldr	r3, [r5, #8]
	.loc 1 3332 84
	ubfx	r2, r3, #0, #20
.LVL289:
	.loc 1 3332 50
	cbnz	r2, .L256
	.loc 1 3332 172 discriminator 1
	ubfx	r3, r3, #26, #5
	.loc 1 3332 50 discriminator 1
	movs	r2, #1
	lsls	r2, r2, r3
.L257:
	.loc 1 3332 31 discriminator 4
	ldr	r3, [r0, #160]
	.loc 1 3332 41 discriminator 4
	orrs	r3, r3, r2
	str	r3, [r0, #160]
	b	.L251
.L256:
.LVL290:
.LBB420:
.LBB421:
	.loc 3 1050 3 is_stmt 1 discriminator 2
	.loc 3 1055 4 discriminator 2
	.syntax unified
@ 1055 "d:\rtos\board\yd-stm32h7xxvx_classicv19\cmake-build-debug\_deps\stm32h7xx_cmsis_include\drivers\cmsis\include\cmsis_gcc.h" 1
	rbit r3, r3
@ 0 "" 2
.LVL291:
	.loc 3 1068 3 discriminator 2
	.thumb
	.syntax unified
.LBE421:
.LBE420:
.LBB422:
.LBB423:
	.loc 3 1089 3 discriminator 2
	.loc 3 1089 6 is_stmt 0 discriminator 2
	cbz	r3, .L276
	.loc 3 1093 3 is_stmt 1
	.loc 3 1093 10 is_stmt 0
	clz	r3, r3
.LVL292:
.L258:
.LBE423:
.LBE422:
	.loc 1 3332 246
	and	r3, r3, #31
	.loc 1 3332 50
	movs	r2, #1
	lsls	r2, r2, r3
	b	.L257
.LVL293:
.L276:
.LBB425:
.LBB424:
	.loc 3 1091 12
	movs	r3, #32
.LVL294:
	b	.L258
.L293:
	.align	2
.L292:
	.word	2109734912
	.word	1543507968
	.word	-2109734913
	.word	2097151
.LVL295:
.L259:
.LBE424:
.LBE425:
.LBB426:
.LBB427:
	.loc 3 1050 3 is_stmt 1 discriminator 2
	.loc 3 1055 4 discriminator 2
	.syntax unified
@ 1055 "d:\rtos\board\yd-stm32h7xxvx_classicv19\cmake-build-debug\_deps\stm32h7xx_cmsis_include\drivers\cmsis\include\cmsis_gcc.h" 1
	rbit r3, r3
@ 0 "" 2
.LVL296:
	.loc 3 1068 3 discriminator 2
	.thumb
	.syntax unified
.LBE427:
.LBE426:
.LBB428:
.LBB429:
	.loc 3 1089 3 discriminator 2
	.loc 3 1089 6 is_stmt 0 discriminator 2
	cbz	r3, .L277
	.loc 3 1093 3 is_stmt 1
	.loc 3 1093 10 is_stmt 0
	clz	r3, r3
.LVL297:
.L261:
.LBE429:
.LBE428:
	.loc 1 3336 246
	and	r3, r3, #31
	.loc 1 3336 50
	movs	r2, #1
	lsls	r2, r2, r3
.L260:
	.loc 1 3336 31 discriminator 4
	ldr	r3, [r0, #164]
	.loc 1 3336 41 discriminator 4
	orrs	r3, r3, r2
	str	r3, [r0, #164]
	b	.L251
.LVL298:
.L277:
.LBB431:
.LBB430:
	.loc 3 1091 12
	movs	r3, #32
.LVL299:
	b	.L261
.LVL300:
.L280:
.LBE430:
.LBE431:
	.loc 1 3350 135 discriminator 1
	ldr	r3, [r5, #16]
	.loc 1 3350 163 discriminator 1
	ldr	r2, [r4]
	.loc 1 3350 173 discriminator 1
	ldr	r2, [r2, #12]
	.loc 1 3350 199 discriminator 1
	ubfx	r2, r2, #2, #3
	.loc 1 3350 206 discriminator 1
	lsls	r2, r2, #1
	.loc 1 3350 213 discriminator 1
	lsls	r3, r3, r2
.L263:
.LVL301:
	.loc 1 3351 7 is_stmt 1 discriminator 8
	.loc 1 3351 73 is_stmt 0 discriminator 8
	ldr	r2, .L294
	ldr	r2, [r2]
	.loc 1 3351 82 discriminator 8
	and	r2, r2, #-268435456
	.loc 1 3351 211 discriminator 8
	cmp	r2, #268435456
	beq	.L287
	.loc 1 3351 222 discriminator 2
	ldr	r1, [r4]
	.loc 1 3351 232 discriminator 2
	ldr	r2, [r1, #12]
	.loc 1 3351 363 discriminator 2
	tst	r2, #16
	bne	.L267
	.loc 1 3351 286 discriminator 4
	ldr	r2, [r5, #20]
	.loc 1 3351 323 discriminator 4
	ldr	r1, [r1, #12]
	.loc 1 3351 349 discriminator 4
	ubfx	r1, r1, #2, #3
	.loc 1 3351 356 discriminator 4
	lsls	r1, r1, #1
	.loc 1 3351 363 discriminator 4
	lsls	r2, r2, r1
	b	.L266
.LVL302:
.L264:
	.loc 1 3350 385 discriminator 5
	ldr	r3, [r5, #16]
	.loc 1 3350 423 discriminator 5
	ldr	r2, [r2, #12]
	.loc 1 3350 466 discriminator 5
	lsrs	r2, r2, #2
	and	r2, r2, #4
	.loc 1 3350 474 discriminator 5
	lsls	r2, r2, #1
	.loc 1 3350 366 discriminator 5
	lsls	r3, r3, r2
	b	.L263
.LVL303:
.L287:
	.loc 1 3351 134 discriminator 1
	ldr	r2, [r5, #20]
	.loc 1 3351 161 discriminator 1
	ldr	r1, [r4]
	.loc 1 3351 171 discriminator 1
	ldr	r1, [r1, #12]
	.loc 1 3351 197 discriminator 1
	ubfx	r1, r1, #2, #3
	.loc 1 3351 204 discriminator 1
	lsls	r1, r1, #1
	.loc 1 3351 211 discriminator 1
	lsls	r2, r2, r1
.L266:
.LVL304:
	.loc 1 3389 7 is_stmt 1 discriminator 8
	.loc 1 3389 26 is_stmt 0 discriminator 8
	ldr	r0, [r5]
	.loc 1 3389 10 discriminator 8
	ldr	r1, .L294+4
	cmp	r0, r1
	beq	.L288
	.loc 1 3398 9 is_stmt 1
	.loc 1 3398 47 is_stmt 0
	ldr	r0, [r4]
	.loc 1 3398 57
	ldr	r1, [r0, #184]
	.loc 1 3398 67
	and	r1, r1, #-67108864
	.loc 1 3398 97
	orrs	r2, r2, r1
.LVL305:
	.loc 1 3398 35
	str	r2, [r0, #184]
	.loc 1 3399 9 is_stmt 1
	.loc 1 3399 47 is_stmt 0
	ldr	r1, [r4]
	.loc 1 3399 57
	ldr	r2, [r1, #188]
	.loc 1 3399 67
	and	r2, r2, #-67108864
	.loc 1 3399 97
	orrs	r3, r3, r2
.LVL306:
	.loc 1 3399 35
	str	r3, [r1, #188]
.L269:
	.loc 1 3403 7 is_stmt 1
	.loc 1 3403 26 is_stmt 0
	ldr	r2, [r5]
	.loc 1 3403 10
	ldr	r3, .L294+4
	cmp	r2, r3
	beq	.L289
	.loc 1 3428 9 is_stmt 1
	.loc 1 3428 15 is_stmt 0
	ldr	r3, [r4, #84]
	.loc 1 3428 24
	bic	r3, r3, #262144
	str	r3, [r4, #84]
	.loc 1 3434 9 is_stmt 1
	ldr	r3, [r4]
.LVL307:
.LBB432:
.LBB433:
	.loc 2 7709 3
	.loc 2 7709 16 is_stmt 0
	mov	r2, #512
	str	r2, [r3]
.LVL308:
.LBE433:
.LBE432:
	.loc 1 3437 9 is_stmt 1
	.loc 1 3437 28 is_stmt 0
	ldrb	r3, [r5, #12]	@ zero_extendqisi2
	.loc 1 3437 12
	cmp	r3, #1
	beq	.L290
	.loc 1 3443 11 is_stmt 1
	ldr	r2, [r4]
.LVL309:
.LBB434:
.LBB435:
	.loc 2 8223 3
	.loc 2 8223 9 is_stmt 0
	ldr	r3, [r2, #4]
	.loc 2 8223 16
	bic	r3, r3, #512
	str	r3, [r2, #4]
.LBE435:
.LBE434:
	.loc 1 3137 21
	movs	r0, #0
.LBB437:
.LBB436:
	.loc 2 8224 1
	b	.L242
.LVL310:
.L267:
.LBE436:
.LBE437:
	.loc 1 3351 382 discriminator 5
	ldr	r2, [r5, #20]
	.loc 1 3351 419 discriminator 5
	ldr	r1, [r1, #12]
	.loc 1 3351 462 discriminator 5
	lsrs	r1, r1, #2
	and	r1, r1, #4
	.loc 1 3351 470 discriminator 5
	lsls	r1, r1, #1
	.loc 1 3351 363 discriminator 5
	lsls	r2, r2, r1
	b	.L266
.LVL311:
.L288:
	.loc 1 3392 9 is_stmt 1
	.loc 1 3392 47 is_stmt 0
	ldr	r0, [r4]
	.loc 1 3392 57
	ldr	r1, [r0, #176]
	.loc 1 3392 67
	and	r1, r1, #-67108864
	.loc 1 3392 97
	orrs	r2, r2, r1
.LVL312:
	.loc 1 3392 35
	str	r2, [r0, #176]
	.loc 1 3393 9 is_stmt 1
	.loc 1 3393 47 is_stmt 0
	ldr	r1, [r4]
	.loc 1 3393 57
	ldr	r2, [r1, #180]
	.loc 1 3393 67
	and	r2, r2, #-67108864
	.loc 1 3393 97
	orrs	r3, r3, r2
.LVL313:
	.loc 1 3393 35
	str	r3, [r1, #180]
	b	.L269
.L289:
	.loc 1 3406 9 is_stmt 1
	.loc 1 3406 15 is_stmt 0
	ldr	r3, [r4, #84]
	.loc 1 3406 24
	bic	r3, r3, #131072
	str	r3, [r4, #84]
	.loc 1 3412 9 is_stmt 1
	ldr	r3, [r4]
.LVL314:
.LBB438:
.LBB439:
	.loc 2 7698 3
	.loc 2 7698 16 is_stmt 0
	mov	r2, #256
	str	r2, [r3]
.LVL315:
.LBE439:
.LBE438:
	.loc 1 3415 9 is_stmt 1
	.loc 1 3415 28 is_stmt 0
	ldrb	r3, [r5, #12]	@ zero_extendqisi2
	.loc 1 3415 12
	cmp	r3, #1
	beq	.L291
	.loc 1 3421 11 is_stmt 1
	ldr	r2, [r4]
.LVL316:
.LBB440:
.LBB441:
	.loc 2 8212 3
	.loc 2 8212 9 is_stmt 0
	ldr	r3, [r2, #4]
	.loc 2 8212 16
	bic	r3, r3, #256
	str	r3, [r2, #4]
.LBE441:
.LBE440:
	.loc 1 3137 21
	movs	r0, #0
.LBB443:
.LBB442:
	.loc 2 8213 1
	b	.L242
.LVL317:
.L291:
.LBE442:
.LBE443:
	.loc 1 3417 11 is_stmt 1
	ldr	r2, [r4]
.LVL318:
.LBB444:
.LBB445:
	.loc 2 8091 3
	.loc 2 8091 9 is_stmt 0
	ldr	r3, [r2, #4]
	.loc 2 8091 16
	orr	r3, r3, #256
	str	r3, [r2, #4]
.LBE445:
.LBE444:
	.loc 1 3137 21
	movs	r0, #0
.LBB447:
.LBB446:
	.loc 2 8092 1
	b	.L242
.LVL319:
.L290:
.LBE446:
.LBE447:
	.loc 1 3439 11 is_stmt 1
	ldr	r2, [r4]
.LVL320:
.LBB448:
.LBB449:
	.loc 2 8102 3
	.loc 2 8102 9 is_stmt 0
	ldr	r3, [r2, #4]
	.loc 2 8102 16
	orr	r3, r3, #512
	str	r3, [r2, #4]
.LBE449:
.LBE448:
	.loc 1 3137 21
	movs	r0, #0
.LBB451:
.LBB450:
	.loc 2 8103 1
	b	.L242
.LVL321:
.L224:
.LBE450:
.LBE451:
	.loc 1 3454 5 is_stmt 1
	.loc 1 3454 11 is_stmt 0
	ldr	r3, [r4, #84]
	.loc 1 3454 20
	orr	r3, r3, #32
	str	r3, [r4, #84]
	.loc 1 3456 5 is_stmt 1
.LVL322:
	.loc 1 3456 20 is_stmt 0
	movs	r0, #1
.LVL323:
.L242:
	.loc 1 3459 3 is_stmt 1
	.loc 1 3459 7
	.loc 1 3459 20 is_stmt 0
	movs	r3, #0
	strb	r3, [r4, #80]
	.loc 1 3459 5 is_stmt 1
	.loc 1 3462 3
.LVL324:
.L221:
	.loc 1 3463 1 is_stmt 0
	pop	{r3, r4, r5, pc}
.LVL325:
.L273:
	.loc 1 3195 47
	movs	r0, #2
.LVL326:
	b	.L221
.L295:
	.align	2
.L294:
	.word	1543507968
	.word	2097151
	.cfi_endproc
.LFE354:
	.size	HAL_ADC_AnalogWDGConfig, .-HAL_ADC_AnalogWDGConfig
	.section	.text.HAL_ADC_GetState,"ax",%progbits
	.align	1
	.global	HAL_ADC_GetState
	.syntax unified
	.thumb
	.thumb_func
	.type	HAL_ADC_GetState, %function
HAL_ADC_GetState:
.LFB355:
	.loc 1 3498 1 is_stmt 1
	.cfi_startproc
	@ args = 0, pretend = 0, frame = 0
	@ frame_needed = 0, uses_anonymous_args = 0
	@ link register save eliminated.
.LVL327:
	.loc 1 3500 3
	.loc 1 3503 3
	.loc 1 3503 14 is_stmt 0
	ldr	r0, [r0, #84]
.LVL328:
	.loc 1 3504 1
	bx	lr
	.cfi_endproc
.LFE355:
	.size	HAL_ADC_GetState, .-HAL_ADC_GetState
	.section	.text.HAL_ADC_GetError,"ax",%progbits
	.align	1
	.global	HAL_ADC_GetError
	.syntax unified
	.thumb
	.thumb_func
	.type	HAL_ADC_GetError, %function
HAL_ADC_GetError:
.LFB356:
	.loc 1 3512 1 is_stmt 1
	.cfi_startproc
	@ args = 0, pretend = 0, frame = 0
	@ frame_needed = 0, uses_anonymous_args = 0
	@ link register save eliminated.
.LVL329:
	.loc 1 3514 3
	.loc 1 3516 3
	.loc 1 3516 14 is_stmt 0
	ldr	r0, [r0, #88]
.LVL330:
	.loc 1 3517 1
	bx	lr
	.cfi_endproc
.LFE356:
	.size	HAL_ADC_GetError, .-HAL_ADC_GetError
	.section	.text.ADC_ConversionStop,"ax",%progbits
	.align	1
	.global	ADC_ConversionStop
	.syntax unified
	.thumb
	.thumb_func
	.type	ADC_ConversionStop, %function
ADC_ConversionStop:
.LFB357:
	.loc 1 3542 1 is_stmt 1
	.cfi_startproc
	@ args = 0, pretend = 0, frame = 0
	@ frame_needed = 0, uses_anonymous_args = 0
.LVL331:
	push	{r4, r5, r6, lr}
	.cfi_def_cfa_offset 16
	.cfi_offset 4, -16
	.cfi_offset 5, -12
	.cfi_offset 6, -8
	.cfi_offset 14, -4
	mov	r4, r0
	.loc 1 3543 3
	.loc 1 3544 3
.LVL332:
	.loc 1 3545 3
	.loc 1 3546 3
	.loc 1 3547 3
	.loc 1 3548 3
	.loc 1 3551 3
	.loc 1 3552 3
	.loc 1 3556 3
	.loc 1 3556 44 is_stmt 0
	ldr	r0, [r0]
.LVL333:
.LBB452:
.LBB453:
	.loc 2 7075 3 is_stmt 1
	.loc 2 7075 18 is_stmt 0
	ldr	r2, [r0, #8]
	.loc 2 7075 73
	ands	r2, r2, #4
	beq	.L299
	movs	r2, #1
.L299:
.LVL334:
.LBE453:
.LBE452:
	.loc 1 3557 3 is_stmt 1
.LBB454:
.LBB455:
	.loc 2 7270 3
	.loc 2 7270 18 is_stmt 0
	ldr	r3, [r0, #8]
	.loc 2 7270 73
	ands	r3, r3, #8
	beq	.L300
	movs	r3, #1
.L300:
.LVL335:
.LBE455:
.LBE454:
	.loc 1 3558 3 is_stmt 1
	.loc 1 3558 6 is_stmt 0
	orrs	r3, r3, r2
.LVL336:
	beq	.L313
	.loc 1 3568 5 is_stmt 1
	.loc 1 3568 25 is_stmt 0
	ldr	r3, [r0, #12]
	.loc 1 3568 8
	tst	r3, #33554432
	beq	.L302
	.loc 1 3570 9
	ldrh	r2, [r4, #20]
.LVL337:
	movw	r3, #257
	cmp	r2, r3
	beq	.L319
.L302:
	.loc 1 3597 5 is_stmt 1
	.loc 1 3597 8 is_stmt 0
	cmp	r1, #2
	beq	.L307
.LVL338:
.L306:
	.loc 1 3600 7 is_stmt 1
	.loc 1 3600 11 is_stmt 0
	ldr	r3, [r4]
.LVL339:
.LBB456:
.LBB457:
	.loc 2 7075 3 is_stmt 1
	.loc 2 7075 18 is_stmt 0
	ldr	r2, [r3, #8]
	.loc 2 7075 73
	tst	r2, #4
	beq	.L308
.LVL340:
.LBE457:
.LBE456:
	.loc 1 3602 9 is_stmt 1
.LBB458:
.LBB459:
	.loc 2 6954 3
	.loc 2 6954 18 is_stmt 0
	ldr	r2, [r3, #8]
	.loc 2 6954 73
	tst	r2, #2
	bne	.L308
.LVL341:
.LBE459:
.LBE458:
	.loc 1 3605 11 is_stmt 1
.LBB460:
.LBB461:
	.loc 2 7062 3
	.loc 2 7062 29 is_stmt 0
	ldr	r0, [r3, #8]
	.loc 2 7062 37
	ldr	r2, .L323
	ands	r2, r2, r0
	.loc 2 7062 172
	orr	r2, r2, #16
	.loc 2 7062 17
	str	r2, [r3, #8]
.LVL342:
.L308:
.LBE461:
.LBE460:
	.loc 1 3611 5 is_stmt 1
	.loc 1 3611 8 is_stmt 0
	cmp	r1, #1
	beq	.L315
.L307:
	.loc 1 3614 7 is_stmt 1
	.loc 1 3614 11 is_stmt 0
	ldr	r3, [r4]
.LVL343:
.LBB462:
.LBB463:
	.loc 2 7270 3 is_stmt 1
	.loc 2 7270 18 is_stmt 0
	ldr	r2, [r3, #8]
	.loc 2 7270 73
	tst	r2, #8
	beq	.L310
.LVL344:
.LBE463:
.LBE462:
	.loc 1 3616 9 is_stmt 1
.LBB464:
.LBB465:
	.loc 2 6954 3
	.loc 2 6954 18 is_stmt 0
	ldr	r2, [r3, #8]
	.loc 2 6954 73
	tst	r2, #2
	bne	.L310
.LVL345:
.LBE465:
.LBE464:
	.loc 1 3619 11 is_stmt 1
.LBB466:
.LBB467:
	.loc 2 7257 3
	.loc 2 7257 29 is_stmt 0
	ldr	r0, [r3, #8]
	.loc 2 7257 37
	ldr	r2, .L323
	ands	r2, r2, r0
	.loc 2 7257 172
	orr	r2, r2, #32
	.loc 2 7257 17
	str	r2, [r3, #8]
.LVL346:
.L310:
.LBE467:
.LBE466:
	.loc 1 3625 5 is_stmt 1
	cmp	r1, #2
	beq	.L316
	cmp	r1, #3
	bne	.L317
	movs	r5, #12
.L309:
.LVL347:
	.loc 1 3640 5
	.loc 1 3640 17 is_stmt 0
	bl	HAL_GetTick
.LVL348:
	mov	r6, r0
.LVL349:
	.loc 1 3642 5 is_stmt 1
.L311:
	.loc 1 3642 63
	.loc 1 3642 17 is_stmt 0
	ldr	r3, [r4]
	.loc 1 3642 27
	ldr	r3, [r3, #8]
	.loc 1 3642 63
	tst	r3, r5
	beq	.L320
	.loc 1 3644 7 is_stmt 1
	.loc 1 3644 12 is_stmt 0
	bl	HAL_GetTick
.LVL350:
	.loc 1 3644 26
	subs	r3, r0, r6
	.loc 1 3644 10
	cmp	r3, #5
	bls	.L311
	.loc 1 3647 9 is_stmt 1
	.loc 1 3647 17 is_stmt 0
	ldr	r3, [r4]
	.loc 1 3647 27
	ldr	r3, [r3, #8]
	.loc 1 3647 11
	tst	r3, r5
	beq	.L311
	.loc 1 3650 11 is_stmt 1
	.loc 1 3650 17 is_stmt 0
	ldr	r3, [r4, #84]
	.loc 1 3650 26
	orr	r3, r3, #16
	str	r3, [r4, #84]
	.loc 1 3653 11 is_stmt 1
	.loc 1 3653 17 is_stmt 0
	ldr	r3, [r4, #88]
	.loc 1 3653 30
	orr	r3, r3, #1
	str	r3, [r4, #88]
	.loc 1 3655 11 is_stmt 1
	.loc 1 3655 18 is_stmt 0
	movs	r0, #1
	b	.L301
.LVL351:
.L322:
	.loc 1 3582 11 is_stmt 1
	.loc 1 3582 17 is_stmt 0
	ldr	r3, [r4, #84]
.LVL352:
	.loc 1 3582 26
	orr	r3, r3, #16
	str	r3, [r4, #84]
	.loc 1 3585 11 is_stmt 1
	.loc 1 3585 17 is_stmt 0
	ldr	r3, [r4, #88]
	.loc 1 3585 30
	orr	r3, r3, #1
	str	r3, [r4, #88]
	.loc 1 3587 11 is_stmt 1
	.loc 1 3587 18 is_stmt 0
	movs	r0, #1
	b	.L301
.LVL353:
.L319:
	.loc 1 3544 12
	movs	r3, #0
.LVL354:
.L303:
	.loc 1 3577 83 is_stmt 1
	.loc 1 3577 33 is_stmt 0
	ldr	r2, [r0]
	.loc 1 3577 83
	tst	r2, #64
	bne	.L321
	.loc 1 3579 9 is_stmt 1
	.loc 1 3579 12 is_stmt 0
	ldr	r2, .L323+4
	cmp	r3, r2
	bhi	.L322
	.loc 1 3589 9 is_stmt 1
	.loc 1 3589 39 is_stmt 0
	adds	r3, r3, #1
.LVL355:
	b	.L303
.L321:
	.loc 1 3593 7 is_stmt 1
	.loc 1 3593 32 is_stmt 0
	movs	r3, #64
.LVL356:
	str	r3, [r0]
.LVL357:
	.loc 1 3597 5 is_stmt 1
	.loc 1 3574 35 is_stmt 0
	movs	r1, #1
.LVL358:
	b	.L306
.LVL359:
.L315:
	.loc 1 3635 37
	movs	r5, #4
	b	.L309
.L316:
	.loc 1 3631 37
	movs	r5, #8
	b	.L309
.L317:
	.loc 1 3635 37
	movs	r5, #4
	b	.L309
.LVL360:
.L320:
	.loc 1 3663 10
	movs	r0, #0
	b	.L301
.LVL361:
.L313:
	movs	r0, #0
.LVL362:
.L301:
	.loc 1 3664 1
	pop	{r4, r5, r6, pc}
.LVL363:
.L324:
	.align	2
.L323:
	.word	2147483584
	.word	842751
	.cfi_endproc
.LFE357:
	.size	ADC_ConversionStop, .-ADC_ConversionStop
	.section	.text.ADC_Enable,"ax",%progbits
	.align	1
	.global	ADC_Enable
	.syntax unified
	.thumb
	.thumb_func
	.type	ADC_Enable, %function
ADC_Enable:
.LFB358:
	.loc 1 3676 1 is_stmt 1
	.cfi_startproc
	@ args = 0, pretend = 0, frame = 0
	@ frame_needed = 0, uses_anonymous_args = 0
.LVL364:
	push	{r3, r4, r5, lr}
	.cfi_def_cfa_offset 16
	.cfi_offset 3, -16
	.cfi_offset 4, -12
	.cfi_offset 5, -8
	.cfi_offset 14, -4
	.loc 1 3677 3
	.loc 1 3683 3
	.loc 1 3683 7 is_stmt 0
	ldr	r3, [r0]
.LVL365:
.LBB468:
.LBB469:
	.loc 2 6943 3 is_stmt 1
	.loc 2 6943 18 is_stmt 0
	ldr	r2, [r3, #8]
	.loc 2 6943 73
	tst	r2, #1
	bne	.L334
	mov	r4, r0
.LVL366:
.LBE469:
.LBE468:
.LBB470:
	.loc 1 3686 5 is_stmt 1
	.loc 1 3686 24 is_stmt 0
	ldr	r1, [r3, #8]
	.loc 1 3686 8
	ldr	r2, .L340
	tst	r1, r2
	beq	.L327
	.loc 1 3689 7 is_stmt 1
	.loc 1 3689 13 is_stmt 0
	ldr	r3, [r0, #84]
	.loc 1 3689 22
	orr	r3, r3, #16
	str	r3, [r0, #84]
	.loc 1 3692 7 is_stmt 1
	.loc 1 3692 13 is_stmt 0
	ldr	r3, [r0, #88]
	.loc 1 3692 26
	orr	r3, r3, #1
	str	r3, [r0, #88]
	.loc 1 3694 7 is_stmt 1
	.loc 1 3694 14 is_stmt 0
	movs	r0, #1
.LVL367:
	b	.L326
.LVL368:
.L327:
	.loc 1 3698 5 is_stmt 1
.LBB471:
.LBB472:
	.loc 2 6907 3
	.loc 2 6907 29 is_stmt 0
	ldr	r1, [r3, #8]
	.loc 2 6907 37
	ldr	r2, .L340+4
	ands	r2, r2, r1
	.loc 2 6907 172
	orr	r2, r2, #1
	.loc 2 6907 17
	str	r2, [r3, #8]
.LVL369:
.LBE472:
.LBE471:
	.loc 1 3701 5 is_stmt 1
	.loc 1 3701 17 is_stmt 0
	bl	HAL_GetTick
.LVL370:
	mov	r5, r0
.LVL371:
	.loc 1 3705 5 is_stmt 1
	.loc 1 3705 65 is_stmt 0
	ldr	r3, [r4]
	.loc 1 3705 37
	ldr	r1, .L340+8
	ldr	r2, .L340+12
	cmp	r3, r2
	it	ne
	cmpne	r3, r1
	bne	.L335
	add	r2, r2, #512
.L328:
.LVL372:
.LBB473:
.LBB474:
	.loc 2 6603 3 is_stmt 1 discriminator 4
	.loc 2 6603 35 is_stmt 0 discriminator 4
	ldr	r2, [r2, #8]
.LVL373:
	.loc 2 6603 10 discriminator 4
	and	r2, r2, #31
.LVL374:
.LBE474:
.LBE473:
	.loc 1 3706 5 is_stmt 1 discriminator 4
	.loc 1 3706 167 is_stmt 0 discriminator 4
	ldr	r1, .L340+12
	cmp	r3, r1
	beq	.L338
	.loc 1 3706 167
	mov	r1, r3
.L329:
	.loc 1 3706 8 discriminator 4
	cmp	r1, r3
	beq	.L332
	.loc 1 3707 9
	cbz	r2, .L332
.LBE470:
	.loc 1 3744 10
	movs	r0, #0
.LVL375:
	b	.L326
.LVL376:
.L335:
.LBB479:
	.loc 1 3705 37
	ldr	r2, .L340+16
	b	.L328
.LVL377:
.L338:
	.loc 1 3706 167
	sub	r1, r1, #256
	b	.L329
.LVL378:
.L332:
	.loc 1 3710 83 is_stmt 1
	.loc 1 3710 23 is_stmt 0
	ldr	r3, [r4]
	.loc 1 3710 33
	ldr	r2, [r3]
	.loc 1 3710 83
	tst	r2, #1
	bne	.L339
	.loc 1 3720 9 is_stmt 1
.LVL379:
.LBB475:
.LBB476:
	.loc 2 6943 3
	.loc 2 6943 18 is_stmt 0
	ldr	r2, [r3, #8]
	.loc 2 6943 73
	tst	r2, #1
	bne	.L331
.LVL380:
.LBE476:
.LBE475:
	.loc 1 3722 11 is_stmt 1
.LBB477:
.LBB478:
	.loc 2 6907 3
	.loc 2 6907 29 is_stmt 0
	ldr	r1, [r3, #8]
	.loc 2 6907 37
	ldr	r2, .L340+4
	ands	r2, r2, r1
	.loc 2 6907 172
	orr	r2, r2, #1
	.loc 2 6907 17
	str	r2, [r3, #8]
.LVL381:
.L331:
.LBE478:
.LBE477:
	.loc 1 3725 9 is_stmt 1
	.loc 1 3725 14 is_stmt 0
	bl	HAL_GetTick
.LVL382:
	.loc 1 3725 28
	subs	r0, r0, r5
	.loc 1 3725 12
	cmp	r0, #2
	bls	.L332
	.loc 1 3728 11 is_stmt 1
	.loc 1 3728 24 is_stmt 0
	ldr	r3, [r4]
	.loc 1 3728 34
	ldr	r3, [r3]
	.loc 1 3728 14
	tst	r3, #1
	bne	.L332
	.loc 1 3731 13 is_stmt 1
	.loc 1 3731 19 is_stmt 0
	ldr	r3, [r4, #84]
	.loc 1 3731 28
	orr	r3, r3, #16
	str	r3, [r4, #84]
	.loc 1 3734 13 is_stmt 1
	.loc 1 3734 19 is_stmt 0
	ldr	r3, [r4, #88]
	.loc 1 3734 32
	orr	r3, r3, #1
	str	r3, [r4, #88]
	.loc 1 3736 13 is_stmt 1
	.loc 1 3736 20 is_stmt 0
	movs	r0, #1
	b	.L326
.L339:
.LBE479:
	.loc 1 3744 10
	movs	r0, #0
.LBB480:
	b	.L326
.LVL383:
.L334:
.LBE480:
	movs	r0, #0
.LVL384:
.L326:
	.loc 1 3745 1
	pop	{r3, r4, r5, pc}
.L341:
	.align	2
.L340:
	.word	-2147483585
	.word	2147483584
	.word	1073881088
	.word	1073881344
	.word	1476551424
	.cfi_endproc
.LFE358:
	.size	ADC_Enable, .-ADC_Enable
	.section	.text.HAL_ADC_Start,"ax",%progbits
	.align	1
	.global	HAL_ADC_Start
	.syntax unified
	.thumb
	.thumb_func
	.type	HAL_ADC_Start, %function
HAL_ADC_Start:
.LFB339:
	.loc 1 1398 1 is_stmt 1
	.cfi_startproc
	@ args = 0, pretend = 0, frame = 0
	@ frame_needed = 0, uses_anonymous_args = 0
.LVL385:
	push	{r3, r4, r5, lr}
	.cfi_def_cfa_offset 16
	.cfi_offset 3, -16
	.cfi_offset 4, -12
	.cfi_offset 5, -8
	.cfi_offset 14, -4
	mov	r4, r0
	.loc 1 1399 3
	.loc 1 1400 3
	.loc 1 1401 3
	.loc 1 1401 63 is_stmt 0
	ldr	r3, [r0]
	.loc 1 1401 35
	ldr	r1, .L363
	ldr	r2, .L363+4
	cmp	r3, r2
	it	ne
	cmpne	r3, r1
	bne	.L355
	add	r2, r2, #512
.L343:
.LVL386:
.LBB481:
.LBB482:
	.loc 2 6603 3 is_stmt 1 discriminator 4
	.loc 2 6603 35 is_stmt 0 discriminator 4
	ldr	r5, [r2, #8]
	.loc 2 6603 10 discriminator 4
	and	r5, r5, #31
.LVL387:
.LBE482:
.LBE481:
	.loc 1 1404 3 is_stmt 1 discriminator 4
	.loc 1 1407 3 discriminator 4
.LBB483:
.LBB484:
	.loc 2 7075 3 discriminator 4
	.loc 2 7075 18 is_stmt 0 discriminator 4
	ldr	r3, [r3, #8]
.LVL388:
	.loc 2 7075 73 discriminator 4
	tst	r3, #4
	bne	.L356
.LVL389:
.LBE484:
.LBE483:
	.loc 1 1410 5 is_stmt 1
	.loc 1 1410 9
	.loc 1 1410 18 is_stmt 0
	ldrb	r3, [r4, #80]	@ zero_extendqisi2
	.loc 1 1410 11
	cmp	r3, #1
	beq	.L357
	.loc 1 1410 68 is_stmt 1 discriminator 2
	.loc 1 1410 81 is_stmt 0 discriminator 2
	movs	r3, #1
	strb	r3, [r4, #80]
	.loc 1 1410 7 is_stmt 1 discriminator 2
	.loc 1 1413 5 discriminator 2
	.loc 1 1413 22 is_stmt 0 discriminator 2
	mov	r0, r4
.LVL390:
	bl	ADC_Enable
.LVL391:
	.loc 1 1416 5 is_stmt 1 discriminator 2
	.loc 1 1416 8 is_stmt 0 discriminator 2
	cmp	r0, #0
	bne	.L345
	.loc 1 1421 7 is_stmt 1
	.loc 1 1421 36 is_stmt 0
	ldr	r2, [r4, #84]
	.loc 1 1421 121
	subw	r3, r0, #3842
	ands	r3, r3, r2
	orr	r3, r3, #256
	.loc 1 1421 24
	str	r3, [r4, #84]
	.loc 1 1428 7 is_stmt 1
	.loc 1 1428 22 is_stmt 0
	ldr	r3, [r4]
	.loc 1 1428 169
	ldr	r2, .L363+4
	cmp	r3, r2
	beq	.L361
	mov	r2, r3
.L346:
	.loc 1 1428 10 discriminator 4
	cmp	r3, r2
	beq	.L347
	.loc 1 1429 11
	cbnz	r5, .L348
.L347:
	.loc 1 1432 9 is_stmt 1
	.loc 1 1432 15 is_stmt 0
	ldr	r2, [r4, #84]
	.loc 1 1432 24
	bic	r2, r2, #1048576
	str	r2, [r4, #84]
.L348:
	.loc 1 1437 7 is_stmt 1
	.loc 1 1437 18 is_stmt 0
	ldr	r2, [r4, #84]
	.loc 1 1437 10
	tst	r2, #4096
	beq	.L349
	.loc 1 1440 9 is_stmt 1
	.loc 1 1440 15 is_stmt 0
	ldr	r2, [r4, #88]
	.loc 1 1440 28
	bic	r2, r2, #6
	str	r2, [r4, #88]
.L350:
	.loc 1 1450 7 is_stmt 1
	.loc 1 1450 32 is_stmt 0
	movs	r2, #28
	str	r2, [r3]
	.loc 1 1455 7 is_stmt 1
	.loc 1 1455 11
	.loc 1 1455 24 is_stmt 0
	movs	r3, #0
	strb	r3, [r4, #80]
	.loc 1 1455 9 is_stmt 1
	.loc 1 1465 7
	.loc 1 1465 22 is_stmt 0
	ldr	r3, [r4]
	.loc 1 1465 169
	ldr	r2, .L363+4
	cmp	r3, r2
	beq	.L362
	mov	r2, r3
.L351:
	.loc 1 1465 10 discriminator 4
	cmp	r3, r2
	beq	.L352
	cmp	r5, #9
	bhi	.L353
	movw	r1, #545
	lsrs	r1, r1, r5
	tst	r1, #1
	bne	.L352
.L353:
	.loc 1 1483 9 is_stmt 1
	.loc 1 1483 15 is_stmt 0
	ldr	r3, [r4, #84]
	.loc 1 1483 24
	orr	r3, r3, #1048576
	str	r3, [r4, #84]
	.loc 1 1486 9 is_stmt 1
.LVL392:
	.loc 1 1487 9
	.loc 1 1487 28 is_stmt 0
	ldr	r3, [r2, #12]
	.loc 1 1487 12
	tst	r3, #33554432
	beq	.L344
	.loc 1 1489 11 is_stmt 1
	.loc 1 1489 40 is_stmt 0
	ldr	r3, [r4, #84]
	.loc 1 1489 74
	bic	r3, r3, #12288
	orr	r3, r3, #4096
	.loc 1 1489 28
	str	r3, [r4, #84]
	b	.L344
.LVL393:
.L355:
	.loc 1 1401 35
	ldr	r2, .L363+8
	b	.L343
.LVL394:
.L361:
	.loc 1 1428 169
	sub	r2, r2, #256
	b	.L346
.L349:
	.loc 1 1445 9 is_stmt 1
	.loc 1 1445 28 is_stmt 0
	movs	r2, #0
	str	r2, [r4, #88]
	b	.L350
.L362:
	.loc 1 1465 169
	sub	r2, r2, #256
	b	.L351
.L352:
	.loc 1 1472 9 is_stmt 1
	.loc 1 1472 29 is_stmt 0
	ldr	r2, [r3, #12]
	.loc 1 1472 12
	tst	r2, #33554432
	beq	.L354
	.loc 1 1474 11 is_stmt 1
	.loc 1 1474 40 is_stmt 0
	ldr	r2, [r4, #84]
	.loc 1 1474 74
	bic	r2, r2, #12288
	orr	r2, r2, #4096
	.loc 1 1474 28
	str	r2, [r4, #84]
.L354:
	.loc 1 1478 9 is_stmt 1
.LVL395:
.LBB485:
.LBB486:
	.loc 2 7042 3
	.loc 2 7042 29 is_stmt 0
	ldr	r1, [r3, #8]
	.loc 2 7042 37
	ldr	r2, .L363+12
	ands	r2, r2, r1
	.loc 2 7042 172
	orr	r2, r2, #4
	.loc 2 7042 17
	str	r2, [r3, #8]
	.loc 2 7045 1
	b	.L344
.LVL396:
.L345:
.LBE486:
.LBE485:
	.loc 1 1497 7 is_stmt 1 discriminator 1
	.loc 1 1497 11 discriminator 1
	.loc 1 1497 24 is_stmt 0 discriminator 1
	movs	r3, #0
	strb	r3, [r4, #80]
	b	.L344
.LVL397:
.L356:
	.loc 1 1502 20
	movs	r0, #2
.LVL398:
.L344:
	.loc 1 1507 1
	pop	{r3, r4, r5, pc}
.LVL399:
.L357:
	.loc 1 1410 49
	movs	r0, #2
.LVL400:
	b	.L344
.L364:
	.align	2
.L363:
	.word	1073881088
	.word	1073881344
	.word	1476551424
	.word	2147483584
	.cfi_endproc
.LFE339:
	.size	HAL_ADC_Start, .-HAL_ADC_Start
	.section	.text.HAL_ADC_Start_IT,"ax",%progbits
	.align	1
	.global	HAL_ADC_Start_IT
	.syntax unified
	.thumb
	.thumb_func
	.type	HAL_ADC_Start_IT, %function
HAL_ADC_Start_IT:
.LFB343:
	.loc 1 1885 1 is_stmt 1
	.cfi_startproc
	@ args = 0, pretend = 0, frame = 0
	@ frame_needed = 0, uses_anonymous_args = 0
.LVL401:
	push	{r3, r4, r5, lr}
	.cfi_def_cfa_offset 16
	.cfi_offset 3, -16
	.cfi_offset 4, -12
	.cfi_offset 5, -8
	.cfi_offset 14, -4
	mov	r4, r0
	.loc 1 1886 3
	.loc 1 1887 3
	.loc 1 1888 3
	.loc 1 1888 63 is_stmt 0
	ldr	r3, [r0]
	.loc 1 1888 35
	ldr	r1, .L394
	ldr	r2, .L394+4
	cmp	r3, r2
	it	ne
	cmpne	r3, r1
	bne	.L383
	add	r2, r2, #512
.L366:
.LVL402:
.LBB487:
.LBB488:
	.loc 2 6603 3 is_stmt 1 discriminator 4
	.loc 2 6603 35 is_stmt 0 discriminator 4
	ldr	r5, [r2, #8]
	.loc 2 6603 10 discriminator 4
	and	r5, r5, #31
.LVL403:
.LBE488:
.LBE487:
	.loc 1 1891 3 is_stmt 1 discriminator 4
	.loc 1 1894 3 discriminator 4
.LBB489:
.LBB490:
	.loc 2 7075 3 discriminator 4
	.loc 2 7075 18 is_stmt 0 discriminator 4
	ldr	r3, [r3, #8]
.LVL404:
	.loc 2 7075 73 discriminator 4
	tst	r3, #4
	bne	.L384
.LVL405:
.LBE490:
.LBE489:
	.loc 1 1897 5 is_stmt 1
	.loc 1 1897 9
	.loc 1 1897 18 is_stmt 0
	ldrb	r3, [r4, #80]	@ zero_extendqisi2
	.loc 1 1897 11
	cmp	r3, #1
	beq	.L385
	.loc 1 1897 68 is_stmt 1 discriminator 2
	.loc 1 1897 81 is_stmt 0 discriminator 2
	movs	r3, #1
	strb	r3, [r4, #80]
	.loc 1 1897 7 is_stmt 1 discriminator 2
	.loc 1 1900 5 discriminator 2
	.loc 1 1900 22 is_stmt 0 discriminator 2
	mov	r0, r4
.LVL406:
	bl	ADC_Enable
.LVL407:
	.loc 1 1903 5 is_stmt 1 discriminator 2
	.loc 1 1903 8 is_stmt 0 discriminator 2
	cmp	r0, #0
	bne	.L368
	.loc 1 1908 7 is_stmt 1
	.loc 1 1908 36 is_stmt 0
	ldr	r2, [r4, #84]
	.loc 1 1908 121
	subw	r3, r0, #3842
	ands	r3, r3, r2
	orr	r3, r3, #256
	.loc 1 1908 24
	str	r3, [r4, #84]
	.loc 1 1915 7 is_stmt 1
	.loc 1 1915 22 is_stmt 0
	ldr	r3, [r4]
	.loc 1 1915 169
	ldr	r2, .L394+4
	cmp	r3, r2
	beq	.L389
	mov	r2, r3
.L369:
	.loc 1 1915 10 discriminator 4
	cmp	r3, r2
	beq	.L370
	.loc 1 1916 11
	cbnz	r5, .L371
.L370:
	.loc 1 1919 9 is_stmt 1
	.loc 1 1919 15 is_stmt 0
	ldr	r2, [r4, #84]
	.loc 1 1919 24
	bic	r2, r2, #1048576
	str	r2, [r4, #84]
.L371:
	.loc 1 1924 7 is_stmt 1
	.loc 1 1924 16 is_stmt 0
	ldr	r2, [r4, #84]
	.loc 1 1924 10
	tst	r2, #4096
	beq	.L372
	.loc 1 1927 9 is_stmt 1
	.loc 1 1927 15 is_stmt 0
	ldr	r2, [r4, #88]
	.loc 1 1927 28
	bic	r2, r2, #6
	str	r2, [r4, #88]
.L373:
	.loc 1 1937 7 is_stmt 1
	.loc 1 1937 32 is_stmt 0
	movs	r2, #28
	str	r2, [r3]
	.loc 1 1942 7 is_stmt 1
	.loc 1 1942 11
	.loc 1 1942 24 is_stmt 0
	movs	r3, #0
	strb	r3, [r4, #80]
	.loc 1 1942 9 is_stmt 1
	.loc 1 1945 7
	.loc 1 1945 15 is_stmt 0
	ldr	r2, [r4]
	.loc 1 1945 25
	ldr	r3, [r2, #4]
	.loc 1 1945 32
	bic	r3, r3, #28
	str	r3, [r2, #4]
	.loc 1 1948 7 is_stmt 1
	.loc 1 1948 25 is_stmt 0
	ldr	r3, [r4, #16]
	.loc 1 1948 7
	cmp	r3, #8
	beq	.L390
	.loc 1 1955 11 is_stmt 1
	.loc 1 1955 19 is_stmt 0
	ldr	r2, [r4]
	.loc 1 1955 29
	ldr	r3, [r2, #4]
	.loc 1 1955 36
	orr	r3, r3, #4
	str	r3, [r2, #4]
	.loc 1 1956 11 is_stmt 1
.L375:
	.loc 1 1963 7
	.loc 1 1963 21 is_stmt 0
	ldr	r3, [r4, #48]
	.loc 1 1963 10
	cbnz	r3, .L376
	.loc 1 1965 9 is_stmt 1
	.loc 1 1965 17 is_stmt 0
	ldr	r2, [r4]
	.loc 1 1965 27
	ldr	r3, [r2, #4]
	.loc 1 1965 34
	orr	r3, r3, #16
	str	r3, [r2, #4]
.L376:
	.loc 1 1976 7 is_stmt 1
	.loc 1 1976 22 is_stmt 0
	ldr	r3, [r4]
	.loc 1 1976 169
	ldr	r2, .L394+4
	cmp	r3, r2
	beq	.L391
	mov	r2, r3
.L377:
	.loc 1 1976 10 discriminator 4
	cmp	r3, r2
	beq	.L378
	cmp	r5, #9
	bhi	.L379
	movw	r1, #545
	lsrs	r1, r1, r5
	tst	r1, #1
	bne	.L378
.L379:
	.loc 1 2011 9 is_stmt 1
	.loc 1 2011 15 is_stmt 0
	ldr	r1, [r4, #84]
	.loc 1 2011 24
	orr	r1, r1, #1048576
	str	r1, [r4, #84]
	.loc 1 2014 9 is_stmt 1
.LVL408:
	.loc 1 2015 9
	.loc 1 2015 28 is_stmt 0
	ldr	r2, [r2, #12]
.LVL409:
	.loc 1 2015 12
	tst	r2, #33554432
	beq	.L367
	.loc 1 2019 11 is_stmt 1
	.loc 1 2019 40 is_stmt 0
	ldr	r2, [r4, #84]
	.loc 1 2019 74
	bic	r2, r2, #12288
	orr	r2, r2, #4096
	.loc 1 2019 28
	str	r2, [r4, #84]
	.loc 1 2021 11 is_stmt 1
	.loc 1 2021 29 is_stmt 0
	ldr	r2, [r4, #16]
	.loc 1 2021 11
	cmp	r2, #8
	beq	.L392
	.loc 1 2029 15 is_stmt 1
	.loc 1 2029 33 is_stmt 0
	ldr	r2, [r3, #4]
	.loc 1 2029 40
	bic	r2, r2, #64
	str	r2, [r3, #4]
	.loc 1 2030 15 is_stmt 1
	.loc 1 2030 23 is_stmt 0
	ldr	r2, [r4]
	.loc 1 2030 33
	ldr	r3, [r2, #4]
	.loc 1 2030 40
	orr	r3, r3, #32
	str	r3, [r2, #4]
	.loc 1 2031 15 is_stmt 1
	b	.L367
.LVL410:
.L383:
	.loc 1 1888 35 is_stmt 0
	ldr	r2, .L394+8
	b	.L366
.LVL411:
.L389:
	.loc 1 1915 169
	sub	r2, r2, #256
	b	.L369
.L372:
	.loc 1 1932 9 is_stmt 1
	.loc 1 1932 28 is_stmt 0
	movs	r2, #0
	str	r2, [r4, #88]
	b	.L373
.L390:
	.loc 1 1951 11 is_stmt 1
	.loc 1 1951 19 is_stmt 0
	ldr	r2, [r4]
	.loc 1 1951 29
	ldr	r3, [r2, #4]
	.loc 1 1951 36
	orr	r3, r3, #8
	str	r3, [r2, #4]
	.loc 1 1952 11 is_stmt 1
	b	.L375
.L391:
	.loc 1 1976 169 is_stmt 0
	sub	r2, r2, #256
	b	.L377
.L378:
	.loc 1 1983 9 is_stmt 1
	.loc 1 1983 29 is_stmt 0
	ldr	r2, [r3, #12]
	.loc 1 1983 12
	tst	r2, #33554432
	beq	.L380
	.loc 1 1985 11 is_stmt 1
	.loc 1 1985 40 is_stmt 0
	ldr	r2, [r4, #84]
	.loc 1 1985 74
	bic	r2, r2, #12288
	orr	r2, r2, #4096
	.loc 1 1985 28
	str	r2, [r4, #84]
	.loc 1 1991 11 is_stmt 1
	.loc 1 1991 29 is_stmt 0
	ldr	r2, [r4, #16]
	.loc 1 1991 11
	cmp	r2, #8
	beq	.L393
	.loc 1 1999 15 is_stmt 1
	.loc 1 1999 33 is_stmt 0
	ldr	r2, [r3, #4]
	.loc 1 1999 40
	bic	r2, r2, #64
	str	r2, [r3, #4]
	.loc 1 2000 15 is_stmt 1
	.loc 1 2000 23 is_stmt 0
	ldr	r2, [r4]
	.loc 1 2000 33
	ldr	r3, [r2, #4]
	.loc 1 2000 40
	orr	r3, r3, #32
	str	r3, [r2, #4]
	.loc 1 2001 15 is_stmt 1
.L380:
	.loc 1 2006 9
	ldr	r2, [r4]
.LVL412:
.LBB491:
.LBB492:
	.loc 2 7042 3
	.loc 2 7042 29 is_stmt 0
	ldr	r1, [r2, #8]
	.loc 2 7042 37
	ldr	r3, .L394+12
	ands	r3, r3, r1
	.loc 2 7042 172
	orr	r3, r3, #4
	.loc 2 7042 17
	str	r3, [r2, #8]
	.loc 2 7045 1
	b	.L367
.LVL413:
.L393:
.LBE492:
.LBE491:
	.loc 1 1994 15 is_stmt 1
	.loc 1 1994 33 is_stmt 0
	ldr	r2, [r3, #4]
	.loc 1 1994 40
	bic	r2, r2, #32
	str	r2, [r3, #4]
	.loc 1 1995 15 is_stmt 1
	.loc 1 1995 23 is_stmt 0
	ldr	r2, [r4]
	.loc 1 1995 33
	ldr	r3, [r2, #4]
	.loc 1 1995 40
	orr	r3, r3, #64
	str	r3, [r2, #4]
	.loc 1 1996 15 is_stmt 1
	b	.L380
.LVL414:
.L392:
	.loc 1 2024 15
	.loc 1 2024 33 is_stmt 0
	ldr	r2, [r3, #4]
	.loc 1 2024 40
	bic	r2, r2, #32
	str	r2, [r3, #4]
	.loc 1 2025 15 is_stmt 1
	.loc 1 2025 23 is_stmt 0
	ldr	r2, [r4]
	.loc 1 2025 33
	ldr	r3, [r2, #4]
	.loc 1 2025 40
	orr	r3, r3, #64
	str	r3, [r2, #4]
	.loc 1 2026 15 is_stmt 1
	b	.L367
.LVL415:
.L368:
	.loc 1 2039 7 discriminator 1
	.loc 1 2039 11 discriminator 1
	.loc 1 2039 24 is_stmt 0 discriminator 1
	movs	r3, #0
	strb	r3, [r4, #80]
	b	.L367
.LVL416:
.L384:
	.loc 1 2045 20
	movs	r0, #2
.LVL417:
.L367:
	.loc 1 2050 1
	pop	{r3, r4, r5, pc}
.LVL418:
.L385:
	.loc 1 1897 49
	movs	r0, #2
.LVL419:
	b	.L367
.L395:
	.align	2
.L394:
	.word	1073881088
	.word	1073881344
	.word	1476551424
	.word	2147483584
	.cfi_endproc
.LFE343:
	.size	HAL_ADC_Start_IT, .-HAL_ADC_Start_IT
	.section	.text.HAL_ADC_Start_DMA,"ax",%progbits
	.align	1
	.global	HAL_ADC_Start_DMA
	.syntax unified
	.thumb
	.thumb_func
	.type	HAL_ADC_Start_DMA, %function
HAL_ADC_Start_DMA:
.LFB345:
	.loc 1 2113 1 is_stmt 1
	.cfi_startproc
	@ args = 0, pretend = 0, frame = 0
	@ frame_needed = 0, uses_anonymous_args = 0
.LVL420:
	push	{r3, r4, r5, r6, r7, lr}
	.cfi_def_cfa_offset 24
	.cfi_offset 3, -24
	.cfi_offset 4, -20
	.cfi_offset 5, -16
	.cfi_offset 6, -12
	.cfi_offset 7, -8
	.cfi_offset 14, -4
	mov	r4, r0
	mov	r6, r1
	mov	r7, r2
	.loc 1 2114 3
	.loc 1 2115 3
	.loc 1 2115 63 is_stmt 0
	ldr	r0, [r0]
.LVL421:
	.loc 1 2115 35
	ldr	r2, .L413
.LVL422:
	ldr	r3, .L413+4
	cmp	r0, r3
	it	ne
	cmpne	r0, r2
	bne	.L407
	add	r3, r3, #512
.L397:
.LVL423:
.LBB493:
.LBB494:
	.loc 2 6603 3 is_stmt 1 discriminator 4
	.loc 2 6603 35 is_stmt 0 discriminator 4
	ldr	r5, [r3, #8]
	.loc 2 6603 10 discriminator 4
	and	r5, r5, #31
.LVL424:
.LBE494:
.LBE493:
	.loc 1 2118 3 is_stmt 1 discriminator 4
	.loc 1 2121 3 discriminator 4
.LBB495:
.LBB496:
	.loc 2 7075 3 discriminator 4
	.loc 2 7075 18 is_stmt 0 discriminator 4
	ldr	r0, [r0, #8]
.LVL425:
	.loc 2 7075 73 discriminator 4
	tst	r0, #4
	bne	.L408
.LVL426:
.LBE496:
.LBE495:
	.loc 1 2124 5 is_stmt 1
	.loc 1 2124 9
	.loc 1 2124 18 is_stmt 0
	ldrb	r3, [r4, #80]	@ zero_extendqisi2
	.loc 1 2124 11
	cmp	r3, #1
	beq	.L409
	.loc 1 2124 68 is_stmt 1 discriminator 2
	.loc 1 2124 81 is_stmt 0 discriminator 2
	movs	r3, #1
	strb	r3, [r4, #80]
	.loc 1 2124 7 is_stmt 1 discriminator 2
	.loc 1 2128 5 discriminator 2
	.loc 1 2128 8 is_stmt 0 discriminator 2
	cmp	r5, #5
	it	ne
	cmpne	r5, #0
	beq	.L399
	.loc 1 2130 9
	cmp	r5, #9
	beq	.L399
	.loc 1 2232 7 is_stmt 1 discriminator 1
.LVL427:
	.loc 1 2234 7 discriminator 1
	.loc 1 2234 11 discriminator 1
	.loc 1 2234 24 is_stmt 0 discriminator 1
	movs	r3, #0
	strb	r3, [r4, #80]
	.loc 1 2232 22 discriminator 1
	movs	r0, #1
	b	.L398
.LVL428:
.L407:
	.loc 1 2115 35
	ldr	r3, .L413+8
	b	.L397
.LVL429:
.L399:
	.loc 1 2134 7 is_stmt 1
	.loc 1 2134 24 is_stmt 0
	mov	r0, r4
	bl	ADC_Enable
.LVL430:
	.loc 1 2137 7 is_stmt 1
	.loc 1 2137 10 is_stmt 0
	cmp	r0, #0
	bne	.L401
	.loc 1 2142 9 is_stmt 1
	.loc 1 2142 38 is_stmt 0
	ldr	r2, [r4, #84]
	.loc 1 2142 123
	subw	r3, r0, #3842
	ands	r3, r3, r2
	orr	r3, r3, #256
	.loc 1 2142 26
	str	r3, [r4, #84]
	.loc 1 2149 9 is_stmt 1
	.loc 1 2149 24 is_stmt 0
	ldr	r3, [r4]
	.loc 1 2149 171
	ldr	r2, .L413+4
	cmp	r3, r2
	beq	.L412
	mov	r2, r3
.L402:
	.loc 1 2149 12 discriminator 4
	cmp	r3, r2
	beq	.L403
	.loc 1 2150 13
	cbnz	r5, .L404
.L403:
	.loc 1 2153 11 is_stmt 1
	.loc 1 2153 17 is_stmt 0
	ldr	r3, [r4, #84]
	.loc 1 2153 26
	bic	r3, r3, #1048576
	str	r3, [r4, #84]
.L404:
	.loc 1 2157 9 is_stmt 1
	.loc 1 2157 18 is_stmt 0
	ldr	r3, [r4, #84]
	.loc 1 2157 12
	tst	r3, #4096
	beq	.L405
	.loc 1 2160 11 is_stmt 1
	.loc 1 2160 17 is_stmt 0
	ldr	r3, [r4, #88]
	.loc 1 2160 30
	bic	r3, r3, #6
	str	r3, [r4, #88]
.L406:
	.loc 1 2169 9 is_stmt 1
	.loc 1 2169 13 is_stmt 0
	ldr	r3, [r4, #76]
	.loc 1 2169 44
	ldr	r2, .L413+12
	str	r2, [r3, #60]
	.loc 1 2172 9 is_stmt 1
	.loc 1 2172 13 is_stmt 0
	ldr	r3, [r4, #76]
	.loc 1 2172 48
	ldr	r2, .L413+16
	str	r2, [r3, #64]
	.loc 1 2175 9 is_stmt 1
	.loc 1 2175 13 is_stmt 0
	ldr	r3, [r4, #76]
	.loc 1 2175 45
	ldr	r2, .L413+20
	str	r2, [r3, #76]
	.loc 1 2184 9 is_stmt 1
	.loc 1 2184 17 is_stmt 0
	ldr	r3, [r4]
	.loc 1 2184 34
	movs	r2, #28
	str	r2, [r3]
	.loc 1 2189 9 is_stmt 1
	.loc 1 2189 13
	.loc 1 2189 26 is_stmt 0
	movs	r3, #0
	strb	r3, [r4, #80]
	.loc 1 2189 11 is_stmt 1
	.loc 1 2194 9
	.loc 1 2194 17 is_stmt 0
	ldr	r2, [r4]
	.loc 1 2194 27
	ldr	r3, [r2, #4]
	.loc 1 2194 34
	orr	r3, r3, #16
	str	r3, [r2, #4]
	.loc 1 2209 9 is_stmt 1
	ldr	r1, [r4]
	.loc 1 2209 76 is_stmt 0
	ldr	r3, [r4, #44]
.LVL431:
.LBB497:
.LBB498:
	.loc 2 4421 3 is_stmt 1
	.loc 2 4421 31 is_stmt 0
	ldr	r2, [r1, #12]
	.loc 2 4421 41
	bic	r2, r2, #3
	.loc 2 4421 65
	orrs	r3, r3, r2
.LVL432:
	.loc 2 4421 19
	str	r3, [r1, #12]
.LVL433:
.LBE498:
.LBE497:
	.loc 1 2214 9 is_stmt 1
	.loc 1 2214 76 is_stmt 0
	ldr	r1, [r4]
	.loc 1 2214 26
	mov	r3, r7
	mov	r2, r6
	adds	r1, r1, #64
	ldr	r0, [r4, #76]
.LVL434:
	bl	HAL_DMA_Start_IT
.LVL435:
	.loc 1 2221 9 is_stmt 1
	ldr	r2, [r4]
.LVL436:
.LBB499:
.LBB500:
	.loc 2 7042 3
	.loc 2 7042 29 is_stmt 0
	ldr	r1, [r2, #8]
	.loc 2 7042 37
	ldr	r3, .L413+24
	ands	r3, r3, r1
	.loc 2 7042 172
	orr	r3, r3, #4
	.loc 2 7042 17
	str	r3, [r2, #8]
	.loc 2 7045 1
	b	.L398
.LVL437:
.L412:
.LBE500:
.LBE499:
	.loc 1 2149 171
	sub	r2, r2, #256
	b	.L402
.L405:
	.loc 1 2165 11 is_stmt 1
	.loc 1 2165 30 is_stmt 0
	movs	r3, #0
	str	r3, [r4, #88]
	b	.L406
.L401:
	.loc 1 2226 9 is_stmt 1
	.loc 1 2226 13
	.loc 1 2226 26 is_stmt 0
	movs	r3, #0
	strb	r3, [r4, #80]
	b	.L398
.LVL438:
.L408:
	.loc 1 2239 20
	movs	r0, #2
.LVL439:
.L398:
	.loc 1 2244 1
	pop	{r3, r4, r5, r6, r7, pc}
.LVL440:
.L409:
	.loc 1 2124 49
	movs	r0, #2
	b	.L398
.L414:
	.align	2
.L413:
	.word	1073881088
	.word	1073881344
	.word	1476551424
	.word	ADC_DMAConvCplt
	.word	ADC_DMAHalfConvCplt
	.word	ADC_DMAError
	.word	2147483584
	.cfi_endproc
.LFE345:
	.size	HAL_ADC_Start_DMA, .-HAL_ADC_Start_DMA
	.section	.text.ADC_Disable,"ax",%progbits
	.align	1
	.global	ADC_Disable
	.syntax unified
	.thumb
	.thumb_func
	.type	ADC_Disable, %function
ADC_Disable:
.LFB359:
	.loc 1 3755 1 is_stmt 1
	.cfi_startproc
	@ args = 0, pretend = 0, frame = 0
	@ frame_needed = 0, uses_anonymous_args = 0
.LVL441:
	push	{r3, r4, r5, lr}
	.cfi_def_cfa_offset 16
	.cfi_offset 3, -16
	.cfi_offset 4, -12
	.cfi_offset 5, -8
	.cfi_offset 14, -4
	mov	r4, r0
	.loc 1 3756 3
	.loc 1 3757 3
	.loc 1 3757 48 is_stmt 0
	ldr	r2, [r0]
.LVL442:
.LBB501:
.LBB502:
	.loc 2 6954 3 is_stmt 1
	.loc 2 6954 18 is_stmt 0
	ldr	r3, [r2, #8]
	.loc 2 6954 73
	ands	r3, r3, #2
	beq	.L416
	movs	r3, #1
.L416:
.LVL443:
.LBE502:
.LBE501:
	.loc 1 3762 3 is_stmt 1
.LBB503:
.LBB504:
	.loc 2 6943 3
	.loc 2 6943 18 is_stmt 0
	ldr	r1, [r2, #8]
	.loc 2 6943 73
	tst	r1, #1
	beq	.L421
.LVL444:
.LBE504:
.LBE503:
	.loc 1 3763 7
	cmp	r3, #0
	bne	.L422
	.loc 1 3767 5 is_stmt 1
	.loc 1 3767 24 is_stmt 0
	ldr	r3, [r2, #8]
.LVL445:
	.loc 1 3767 29
	and	r3, r3, #13
	.loc 1 3767 8
	cmp	r3, #1
	beq	.L424
	.loc 1 3776 7 is_stmt 1
	.loc 1 3776 13 is_stmt 0
	ldr	r3, [r4, #84]
	.loc 1 3776 22
	orr	r3, r3, #16
	str	r3, [r4, #84]
	.loc 1 3779 7 is_stmt 1
	.loc 1 3779 13 is_stmt 0
	ldr	r3, [r4, #88]
	.loc 1 3779 26
	orr	r3, r3, #1
	str	r3, [r4, #88]
	.loc 1 3781 7 is_stmt 1
	.loc 1 3781 14 is_stmt 0
	movs	r0, #1
.LVL446:
	b	.L417
.LVL447:
.L424:
	.loc 1 3770 7 is_stmt 1
.LBB505:
.LBB506:
	.loc 2 6927 3
	.loc 2 6927 29 is_stmt 0
	ldr	r1, [r2, #8]
	.loc 2 6927 37
	ldr	r3, .L426
	ands	r3, r3, r1
	.loc 2 6927 172
	orr	r3, r3, #2
	.loc 2 6927 17
	str	r3, [r2, #8]
.LVL448:
.LBE506:
.LBE505:
	.loc 1 3771 7 is_stmt 1
	.loc 1 3771 15 is_stmt 0
	ldr	r3, [r4]
	.loc 1 3771 32
	movs	r2, #3
	str	r2, [r3]
	.loc 1 3786 5 is_stmt 1
	.loc 1 3786 17 is_stmt 0
	bl	HAL_GetTick
.LVL449:
	mov	r5, r0
.LVL450:
	.loc 1 3788 5 is_stmt 1
.L419:
	.loc 1 3788 51
	.loc 1 3788 17 is_stmt 0
	ldr	r3, [r4]
	.loc 1 3788 27
	ldr	r3, [r3, #8]
	.loc 1 3788 51
	tst	r3, #1
	beq	.L425
	.loc 1 3790 7 is_stmt 1
	.loc 1 3790 12 is_stmt 0
	bl	HAL_GetTick
.LVL451:
	.loc 1 3790 26
	subs	r0, r0, r5
	.loc 1 3790 10
	cmp	r0, #2
	bls	.L419
	.loc 1 3793 9 is_stmt 1
	.loc 1 3793 18 is_stmt 0
	ldr	r3, [r4]
	.loc 1 3793 28
	ldr	r3, [r3, #8]
	.loc 1 3793 12
	tst	r3, #1
	beq	.L419
	.loc 1 3796 11 is_stmt 1
	.loc 1 3796 17 is_stmt 0
	ldr	r3, [r4, #84]
	.loc 1 3796 26
	orr	r3, r3, #16
	str	r3, [r4, #84]
	.loc 1 3799 11 is_stmt 1
	.loc 1 3799 17 is_stmt 0
	ldr	r3, [r4, #88]
	.loc 1 3799 30
	orr	r3, r3, #1
	str	r3, [r4, #88]
	.loc 1 3801 11 is_stmt 1
	.loc 1 3801 18 is_stmt 0
	movs	r0, #1
	b	.L417
.L425:
	.loc 1 3808 10
	movs	r0, #0
	b	.L417
.LVL452:
.L421:
	movs	r0, #0
.LVL453:
.L417:
	.loc 1 3809 1
	pop	{r3, r4, r5, pc}
.LVL454:
.L422:
	.loc 1 3808 10
	movs	r0, #0
.LVL455:
	b	.L417
.L427:
	.align	2
.L426:
	.word	2147483584
	.cfi_endproc
.LFE359:
	.size	ADC_Disable, .-ADC_Disable
	.section	.text.HAL_ADC_DeInit,"ax",%progbits
	.align	1
	.global	HAL_ADC_DeInit
	.syntax unified
	.thumb
	.thumb_func
	.type	HAL_ADC_DeInit, %function
HAL_ADC_DeInit:
.LFB336:
	.loc 1 843 1 is_stmt 1
	.cfi_startproc
	@ args = 0, pretend = 0, frame = 0
	@ frame_needed = 0, uses_anonymous_args = 0
.LVL456:
	push	{r3, r4, r5, lr}
	.cfi_def_cfa_offset 16
	.cfi_offset 3, -16
	.cfi_offset 4, -12
	.cfi_offset 5, -8
	.cfi_offset 14, -4
	.loc 1 844 3
	.loc 1 847 3
	.loc 1 847 6 is_stmt 0
	cmp	r0, #0
	beq	.L437
	mov	r4, r0
	.loc 1 853 3 is_stmt 1
	.loc 1 856 3
	.loc 1 856 9 is_stmt 0
	ldr	r3, [r0, #84]
	.loc 1 856 18
	orr	r3, r3, #2
	str	r3, [r0, #84]
	.loc 1 859 3 is_stmt 1
	.loc 1 859 20 is_stmt 0
	movs	r1, #3
	bl	ADC_ConversionStop
.LVL457:
	.loc 1 867 3 is_stmt 1
	.loc 1 867 9 is_stmt 0
	ldr	r2, [r4]
	.loc 1 867 19
	ldr	r3, [r2, #12]
	.loc 1 867 27
	orr	r3, r3, #2097152
	str	r3, [r2, #12]
	.loc 1 870 3 is_stmt 1
	.loc 1 870 6 is_stmt 0
	mov	r5, r0
	cmp	r0, #0
	beq	.L440
.L430:
.LVL458:
	.loc 1 891 3 is_stmt 1
	.loc 1 891 11 is_stmt 0
	ldr	r2, [r4]
	.loc 1 891 21
	ldr	r1, [r2, #4]
	.loc 1 891 28
	ldr	r3, .L441
	ands	r3, r3, r1
	str	r3, [r2, #4]
	.loc 1 898 3 is_stmt 1
	.loc 1 898 11 is_stmt 0
	ldr	r3, [r4]
	.loc 1 898 28
	movw	r2, #2047
	str	r2, [r3]
	.loc 1 909 3 is_stmt 1
	.loc 1 909 9 is_stmt 0
	ldr	r2, [r4]
	.loc 1 909 19
	ldr	r3, [r2, #8]
	.loc 1 909 25
	bic	r3, r3, #1342177280
	str	r3, [r2, #8]
	.loc 1 910 3 is_stmt 1
	.loc 1 910 9 is_stmt 0
	ldr	r2, [r4]
	.loc 1 910 19
	ldr	r3, [r2, #8]
	.loc 1 910 25
	orr	r3, r3, #536870912
	str	r3, [r2, #8]
	.loc 1 913 3 is_stmt 1
	.loc 1 913 9 is_stmt 0
	ldr	r2, [r4]
	.loc 1 913 19
	ldr	r3, [r2, #12]
	.loc 1 913 27
	and	r3, r3, #-2147450880
	str	r3, [r2, #12]
	.loc 1 919 3 is_stmt 1
	.loc 1 919 9 is_stmt 0
	ldr	r2, [r4]
	.loc 1 919 19
	ldr	r3, [r2, #12]
	.loc 1 919 27
	orr	r3, r3, #-2147483648
	str	r3, [r2, #12]
	.loc 1 922 3 is_stmt 1
	.loc 1 922 9 is_stmt 0
	ldr	r2, [r4]
	.loc 1 922 19
	ldr	r1, [r2, #16]
	.loc 1 922 28
	ldr	r3, .L441+4
	ands	r3, r3, r1
	str	r3, [r2, #16]
	.loc 1 926 3 is_stmt 1
	.loc 1 926 9 is_stmt 0
	ldr	r2, [r4]
	.loc 1 926 19
	ldr	r3, [r2, #20]
	.loc 1 926 28
	and	r3, r3, #-1073741824
	str	r3, [r2, #20]
	.loc 1 929 3 is_stmt 1
	.loc 1 929 9 is_stmt 0
	ldr	r2, [r4]
	.loc 1 929 19
	ldr	r3, [r2, #24]
	.loc 1 929 28
	and	r3, r3, #-134217728
	str	r3, [r2, #24]
	.loc 1 958 3 is_stmt 1
	.loc 1 958 9 is_stmt 0
	ldr	r2, [r4]
	.loc 1 958 19
	ldr	r3, [r2, #32]
	.loc 1 958 27
	and	r3, r3, #-67108864
	str	r3, [r2, #32]
	.loc 1 959 3 is_stmt 1
	.loc 1 959 9 is_stmt 0
	ldr	r2, [r4]
	.loc 1 959 19
	ldr	r3, [r2, #36]
	.loc 1 959 27
	and	r3, r3, #-67108864
	str	r3, [r2, #36]
	.loc 1 962 3 is_stmt 1
	.loc 1 962 9 is_stmt 0
	ldr	r2, [r4]
	.loc 1 962 19
	ldr	r3, [r2, #176]
	.loc 1 962 27
	and	r3, r3, #-67108864
	str	r3, [r2, #176]
	.loc 1 963 3 is_stmt 1
	.loc 1 963 9 is_stmt 0
	ldr	r2, [r4]
	.loc 1 963 19
	ldr	r3, [r2, #180]
	.loc 1 963 27
	and	r3, r3, #-67108864
	str	r3, [r2, #180]
	.loc 1 966 3 is_stmt 1
	.loc 1 966 9 is_stmt 0
	ldr	r2, [r4]
	.loc 1 966 19
	ldr	r3, [r2, #184]
	.loc 1 966 27
	and	r3, r3, #-67108864
	str	r3, [r2, #184]
	.loc 1 967 3 is_stmt 1
	.loc 1 967 9 is_stmt 0
	ldr	r2, [r4]
	.loc 1 967 19
	ldr	r3, [r2, #188]
	.loc 1 967 27
	and	r3, r3, #-67108864
	str	r3, [r2, #188]
	.loc 1 972 3 is_stmt 1
	.loc 1 972 9 is_stmt 0
	ldr	r2, [r4]
	.loc 1 972 19
	ldr	r1, [r2, #48]
	.loc 1 972 27
	ldr	r3, .L441+8
	ands	r3, r3, r1
	str	r3, [r2, #48]
	.loc 1 976 3 is_stmt 1
	.loc 1 976 9 is_stmt 0
	ldr	r2, [r4]
	.loc 1 976 19
	ldr	r3, [r2, #52]
	.loc 1 976 27
	ldr	r1, .L441+12
	ands	r3, r3, r1
	str	r3, [r2, #52]
	.loc 1 980 3 is_stmt 1
	.loc 1 980 9 is_stmt 0
	ldr	r2, [r4]
	.loc 1 980 19
	ldr	r3, [r2, #56]
	.loc 1 980 27
	ands	r3, r3, r1
	str	r3, [r2, #56]
	.loc 1 984 3 is_stmt 1
	.loc 1 984 9 is_stmt 0
	ldr	r2, [r4]
	.loc 1 984 19
	ldr	r1, [r2, #60]
	.loc 1 984 27
	ldr	r3, .L441+16
	ands	r3, r3, r1
	str	r3, [r2, #60]
	.loc 1 992 3 is_stmt 1
	.loc 1 992 9 is_stmt 0
	ldr	r2, [r4]
	.loc 1 992 19
	ldr	r3, [r2, #96]
	.loc 1 992 27
	movs	r3, #0
	str	r3, [r2, #96]
	.loc 1 994 3 is_stmt 1
	.loc 1 994 9 is_stmt 0
	ldr	r2, [r4]
	.loc 1 994 19
	ldr	r1, [r2, #100]
	.loc 1 994 27
	str	r3, [r2, #100]
	.loc 1 996 3 is_stmt 1
	.loc 1 996 9 is_stmt 0
	ldr	r2, [r4]
	.loc 1 996 19
	ldr	r1, [r2, #104]
	.loc 1 996 27
	str	r3, [r2, #104]
	.loc 1 998 3 is_stmt 1
	.loc 1 998 9 is_stmt 0
	ldr	r2, [r4]
	.loc 1 998 19
	ldr	r1, [r2, #108]
	.loc 1 998 27
	str	r3, [r2, #108]
	.loc 1 1004 3 is_stmt 1
	.loc 1 1004 9 is_stmt 0
	ldr	r1, [r4]
	.loc 1 1004 19
	ldr	r3, [r1, #160]
	.loc 1 1004 29
	ldr	r2, .L441+20
	ands	r3, r3, r2
	str	r3, [r1, #160]
	.loc 1 1007 3 is_stmt 1
	.loc 1 1007 9 is_stmt 0
	ldr	r1, [r4]
	.loc 1 1007 19
	ldr	r3, [r1, #164]
	.loc 1 1007 29
	ands	r3, r3, r2
	str	r3, [r1, #164]
	.loc 1 1028 3 is_stmt 1
	.loc 1 1028 9 is_stmt 0
	ldr	r1, [r4]
	.loc 1 1028 19
	ldr	r3, [r1, #192]
	.loc 1 1028 29
	ands	r3, r3, r2
	str	r3, [r1, #192]
	.loc 1 1031 3 is_stmt 1
	.loc 1 1031 9 is_stmt 0
	ldr	r2, [r4]
	.loc 1 1031 19
	ldr	r3, [r2, #196]
	.loc 1 1031 30
	and	r3, r3, #-134154240
	str	r3, [r2, #196]
	.loc 1 1038 3 is_stmt 1
	.loc 1 1038 18 is_stmt 0
	ldr	r3, [r4]
	.loc 1 1038 97
	ldr	r1, .L441+24
	ldr	r2, .L441+28
	.loc 1 1038 683
	cmp	r3, r2
	it	ne
	cmpne	r3, r1
	ite	eq
	moveq	r3, #1
	movne	r3, #0
	bne	.L431
.LVL459:
.LBB507:
.LBB508:
	.loc 2 6943 3 is_stmt 1
	.loc 2 6943 18 is_stmt 0
	ldr	r1, [r1, #8]
	.loc 2 6943 73
	ands	r1, r1, #1
	beq	.L432
	movs	r1, #1
.L432:
.LVL460:
.LBE508:
.LBE507:
.LBB509:
.LBB510:
	.loc 2 6943 3 is_stmt 1
	.loc 2 6943 18 is_stmt 0
	ldr	r2, .L441+28
	ldr	r2, [r2, #8]
	.loc 2 6943 73
	ands	r2, r2, #1
	beq	.L433
	movs	r2, #1
.L433:
.LVL461:
.LBE510:
.LBE509:
	.loc 1 1038 6
	orrs	r2, r2, r1
	bne	.L435
.L434:
	.loc 1 1047 5 is_stmt 1
	.loc 1 1047 265 is_stmt 0
	cbz	r3, .L438
	ldr	r2, .L441+32
.L436:
	.loc 1 1047 344 discriminator 4
	ldr	r1, [r2, #8]
	.loc 1 1047 351 discriminator 4
	ldr	r3, .L441+36
	ands	r3, r3, r1
	str	r3, [r2, #8]
	.loc 1 1068 5 is_stmt 1 discriminator 4
	mov	r0, r4
	bl	HAL_ADC_MspDeInit
.LVL462:
.L435:
	.loc 1 1074 3
	.loc 1 1074 22 is_stmt 0
	movs	r3, #0
	str	r3, [r4, #88]
	.loc 1 1077 3 is_stmt 1
	.loc 1 1077 38 is_stmt 0
	str	r3, [r4, #92]
	.loc 1 1078 3 is_stmt 1
	.loc 1 1078 38 is_stmt 0
	str	r3, [r4, #96]
	.loc 1 1081 3 is_stmt 1
	.loc 1 1081 15 is_stmt 0
	str	r3, [r4, #84]
	.loc 1 1084 3 is_stmt 1
	.loc 1 1084 7
	.loc 1 1084 20 is_stmt 0
	strb	r3, [r4, #80]
	.loc 1 1084 5 is_stmt 1
	.loc 1 1087 3
.LVL463:
.L429:
	.loc 1 1088 1 is_stmt 0
	mov	r0, r5
	pop	{r3, r4, r5, pc}
.LVL464:
.L440:
	.loc 1 873 5 is_stmt 1
	.loc 1 873 22 is_stmt 0
	mov	r0, r4
.LVL465:
	bl	ADC_Disable
.LVL466:
	.loc 1 876 5 is_stmt 1
	.loc 1 876 8 is_stmt 0
	mov	r5, r0
	cmp	r0, #0
	bne	.L430
	.loc 1 879 7 is_stmt 1
	.loc 1 879 19 is_stmt 0
	movs	r3, #1
	str	r3, [r4, #84]
	b	.L430
.LVL467:
.L431:
.LBB511:
.LBB512:
	.loc 2 6943 3 is_stmt 1
	.loc 2 6943 18 is_stmt 0
	ldr	r2, .L441+40
	ldr	r2, [r2, #8]
	.loc 2 6943 73
	tst	r2, #1
	bne	.L435
	b	.L434
.LVL468:
.L438:
.LBE512:
.LBE511:
	.loc 1 1047 265
	ldr	r2, .L441+44
	b	.L436
.LVL469:
.L437:
	.loc 1 849 12
	movs	r5, #1
	b	.L429
.L442:
	.align	2
.L441:
	.word	-2048
	.word	-67045348
	.word	-528349136
	.word	-528349152
	.word	-2016
	.word	-1048576
	.word	1073881088
	.word	1073881344
	.word	1073881856
	.word	-33541920
	.word	1476550656
	.word	1476551424
	.cfi_endproc
.LFE336:
	.size	HAL_ADC_DeInit, .-HAL_ADC_DeInit
	.section	.text.HAL_ADC_Stop,"ax",%progbits
	.align	1
	.global	HAL_ADC_Stop
	.syntax unified
	.thumb
	.thumb_func
	.type	HAL_ADC_Stop, %function
HAL_ADC_Stop:
.LFB340:
	.loc 1 1519 1 is_stmt 1
	.cfi_startproc
	@ args = 0, pretend = 0, frame = 0
	@ frame_needed = 0, uses_anonymous_args = 0
.LVL470:
	.loc 1 1520 3
	.loc 1 1523 3
	.loc 1 1526 3
	.loc 1 1526 7
	.loc 1 1526 16 is_stmt 0
	ldrb	r3, [r0, #80]	@ zero_extendqisi2
	.loc 1 1526 9
	cmp	r3, #1
	beq	.L446
	.loc 1 1519 1 discriminator 2
	push	{r4, lr}
	.cfi_def_cfa_offset 8
	.cfi_offset 4, -8
	.cfi_offset 14, -4
	mov	r4, r0
	.loc 1 1526 66 is_stmt 1 discriminator 2
	.loc 1 1526 79 is_stmt 0 discriminator 2
	movs	r3, #1
	strb	r3, [r0, #80]
	.loc 1 1526 5 is_stmt 1 discriminator 2
	.loc 1 1529 3 discriminator 2
	.loc 1 1529 20 is_stmt 0 discriminator 2
	movs	r1, #3
	bl	ADC_ConversionStop
.LVL471:
	.loc 1 1532 3 is_stmt 1 discriminator 2
	.loc 1 1532 6 is_stmt 0 discriminator 2
	cbz	r0, .L451
.L445:
	.loc 1 1548 3 is_stmt 1
	.loc 1 1548 7
	.loc 1 1548 20 is_stmt 0
	movs	r3, #0
	strb	r3, [r4, #80]
	.loc 1 1548 5 is_stmt 1
	.loc 1 1551 3
	.loc 1 1552 1 is_stmt 0
	pop	{r4, pc}
.LVL472:
.L451:
	.loc 1 1535 5 is_stmt 1
	.loc 1 1535 22 is_stmt 0
	mov	r0, r4
.LVL473:
	bl	ADC_Disable
.LVL474:
	.loc 1 1538 5 is_stmt 1
	.loc 1 1538 8 is_stmt 0
	cmp	r0, #0
	bne	.L445
	.loc 1 1541 7 is_stmt 1
	.loc 1 1541 36 is_stmt 0
	ldr	r2, [r4, #84]
	.loc 1 1541 87
	ldr	r3, .L452
	ands	r3, r3, r2
	orr	r3, r3, #1
	.loc 1 1541 24
	str	r3, [r4, #84]
	b	.L445
.LVL475:
.L446:
	.cfi_def_cfa_offset 0
	.cfi_restore 4
	.cfi_restore 14
	.loc 1 1526 47
	movs	r0, #2
.LVL476:
	.loc 1 1552 1
	bx	lr
.L453:
	.align	2
.L452:
	.word	-4354
	.cfi_endproc
.LFE340:
	.size	HAL_ADC_Stop, .-HAL_ADC_Stop
	.section	.text.HAL_ADC_Stop_IT,"ax",%progbits
	.align	1
	.global	HAL_ADC_Stop_IT
	.syntax unified
	.thumb
	.thumb_func
	.type	HAL_ADC_Stop_IT, %function
HAL_ADC_Stop_IT:
.LFB344:
	.loc 1 2060 1 is_stmt 1
	.cfi_startproc
	@ args = 0, pretend = 0, frame = 0
	@ frame_needed = 0, uses_anonymous_args = 0
.LVL477:
	.loc 1 2061 3
	.loc 1 2064 3
	.loc 1 2067 3
	.loc 1 2067 7
	.loc 1 2067 16 is_stmt 0
	ldrb	r3, [r0, #80]	@ zero_extendqisi2
	.loc 1 2067 9
	cmp	r3, #1
	beq	.L457
	.loc 1 2060 1 discriminator 2
	push	{r4, lr}
	.cfi_def_cfa_offset 8
	.cfi_offset 4, -8
	.cfi_offset 14, -4
	mov	r4, r0
	.loc 1 2067 66 is_stmt 1 discriminator 2
	.loc 1 2067 79 is_stmt 0 discriminator 2
	movs	r3, #1
	strb	r3, [r0, #80]
	.loc 1 2067 5 is_stmt 1 discriminator 2
	.loc 1 2070 3 discriminator 2
	.loc 1 2070 20 is_stmt 0 discriminator 2
	movs	r1, #3
	bl	ADC_ConversionStop
.LVL478:
	.loc 1 2073 3 is_stmt 1 discriminator 2
	.loc 1 2073 6 is_stmt 0 discriminator 2
	cbz	r0, .L462
.L456:
	.loc 1 2093 3 is_stmt 1
	.loc 1 2093 7
	.loc 1 2093 20 is_stmt 0
	movs	r3, #0
	strb	r3, [r4, #80]
	.loc 1 2093 5 is_stmt 1
	.loc 1 2096 3
	.loc 1 2097 1 is_stmt 0
	pop	{r4, pc}
.LVL479:
.L462:
	.loc 1 2077 5 is_stmt 1
	.loc 1 2077 13 is_stmt 0
	ldr	r2, [r4]
	.loc 1 2077 23
	ldr	r3, [r2, #4]
	.loc 1 2077 30
	bic	r3, r3, #28
	str	r3, [r2, #4]
	.loc 1 2080 5 is_stmt 1
	.loc 1 2080 22 is_stmt 0
	mov	r0, r4
.LVL480:
	bl	ADC_Disable
.LVL481:
	.loc 1 2083 5 is_stmt 1
	.loc 1 2083 8 is_stmt 0
	cmp	r0, #0
	bne	.L456
	.loc 1 2086 7 is_stmt 1
	.loc 1 2086 36 is_stmt 0
	ldr	r2, [r4, #84]
	.loc 1 2086 87
	ldr	r3, .L463
	ands	r3, r3, r2
	orr	r3, r3, #1
	.loc 1 2086 24
	str	r3, [r4, #84]
	b	.L456
.LVL482:
.L457:
	.cfi_def_cfa_offset 0
	.cfi_restore 4
	.cfi_restore 14
	.loc 1 2067 47
	movs	r0, #2
.LVL483:
	.loc 1 2097 1
	bx	lr
.L464:
	.align	2
.L463:
	.word	-4354
	.cfi_endproc
.LFE344:
	.size	HAL_ADC_Stop_IT, .-HAL_ADC_Stop_IT
	.section	.text.HAL_ADC_Stop_DMA,"ax",%progbits
	.align	1
	.global	HAL_ADC_Stop_DMA
	.syntax unified
	.thumb
	.thumb_func
	.type	HAL_ADC_Stop_DMA, %function
HAL_ADC_Stop_DMA:
.LFB346:
	.loc 1 2260 1 is_stmt 1
	.cfi_startproc
	@ args = 0, pretend = 0, frame = 0
	@ frame_needed = 0, uses_anonymous_args = 0
.LVL484:
	push	{r3, r4, r5, lr}
	.cfi_def_cfa_offset 16
	.cfi_offset 3, -16
	.cfi_offset 4, -12
	.cfi_offset 5, -8
	.cfi_offset 14, -4
	.loc 1 2261 3
	.loc 1 2264 3
	.loc 1 2267 3
	.loc 1 2267 7
	.loc 1 2267 16 is_stmt 0
	ldrb	r3, [r0, #80]	@ zero_extendqisi2
	.loc 1 2267 9
	cmp	r3, #1
	beq	.L471
	mov	r4, r0
	.loc 1 2267 66 is_stmt 1 discriminator 2
	.loc 1 2267 79 is_stmt 0 discriminator 2
	movs	r3, #1
	strb	r3, [r0, #80]
	.loc 1 2267 5 is_stmt 1 discriminator 2
	.loc 1 2270 3 discriminator 2
	.loc 1 2270 20 is_stmt 0 discriminator 2
	movs	r1, #3
	bl	ADC_ConversionStop
.LVL485:
	.loc 1 2273 3 is_stmt 1 discriminator 2
	.loc 1 2273 6 is_stmt 0 discriminator 2
	mov	r5, r0
	cbnz	r0, .L467
	.loc 1 2276 5 is_stmt 1
	.loc 1 2276 43 is_stmt 0
	ldr	r2, [r4]
	.loc 1 2276 53
	ldr	r3, [r2, #12]
	.loc 1 2276 105
	bic	r3, r3, #3
	.loc 1 2276 31
	str	r3, [r2, #12]
	.loc 1 2280 5 is_stmt 1
	.loc 1 2280 13 is_stmt 0
	ldr	r0, [r4, #76]
.LVL486:
	.loc 1 2280 25
	ldrb	r3, [r0, #53]	@ zero_extendqisi2
	uxtb	r3, r3
	.loc 1 2280 8
	cmp	r3, #2
	beq	.L473
.LVL487:
.L468:
	.loc 1 2293 5 is_stmt 1
	.loc 1 2293 13 is_stmt 0
	ldr	r2, [r4]
	.loc 1 2293 23
	ldr	r3, [r2, #4]
	.loc 1 2293 30
	bic	r3, r3, #16
	str	r3, [r2, #4]
	.loc 1 2298 5 is_stmt 1
	.loc 1 2298 8 is_stmt 0
	cbnz	r5, .L469
	.loc 1 2300 7 is_stmt 1
	.loc 1 2300 24 is_stmt 0
	mov	r0, r4
	bl	ADC_Disable
.LVL488:
	mov	r5, r0
.LVL489:
.L470:
	.loc 1 2308 5 is_stmt 1
	.loc 1 2308 8 is_stmt 0
	cbnz	r5, .L467
	.loc 1 2311 7 is_stmt 1
	.loc 1 2311 36 is_stmt 0
	ldr	r2, [r4, #84]
	.loc 1 2311 87
	ldr	r3, .L474
	ands	r3, r3, r2
	orr	r3, r3, #1
	.loc 1 2311 24
	str	r3, [r4, #84]
.LVL490:
.L467:
	.loc 1 2319 3 is_stmt 1
	.loc 1 2319 7
	.loc 1 2319 20 is_stmt 0
	movs	r3, #0
	strb	r3, [r4, #80]
	.loc 1 2319 5 is_stmt 1
	.loc 1 2322 3
.LVL491:
.L466:
	.loc 1 2323 1 is_stmt 0
	mov	r0, r5
	pop	{r3, r4, r5, pc}
.LVL492:
.L473:
	.loc 1 2282 7 is_stmt 1
	.loc 1 2282 24 is_stmt 0
	bl	HAL_DMA_Abort
.LVL493:
	.loc 1 2285 7 is_stmt 1
	.loc 1 2285 10 is_stmt 0
	mov	r5, r0
	cmp	r0, #0
	beq	.L468
	.loc 1 2288 9 is_stmt 1
	.loc 1 2288 15 is_stmt 0
	ldr	r3, [r4, #84]
	.loc 1 2288 24
	orr	r3, r3, #64
	str	r3, [r4, #84]
	b	.L468
.LVL494:
.L469:
	.loc 1 2304 7 is_stmt 1
	.loc 1 2304 13 is_stmt 0
	mov	r0, r4
	bl	ADC_Disable
.LVL495:
	b	.L470
.LVL496:
.L471:
	.loc 1 2267 47
	movs	r5, #2
	b	.L466
.L475:
	.align	2
.L474:
	.word	-4354
	.cfi_endproc
.LFE346:
	.size	HAL_ADC_Stop_DMA, .-HAL_ADC_Stop_DMA
	.section	.text.ADC_ConfigureBoostMode,"ax",%progbits
	.align	1
	.global	ADC_ConfigureBoostMode
	.syntax unified
	.thumb
	.thumb_func
	.type	ADC_ConfigureBoostMode, %function
ADC_ConfigureBoostMode:
.LFB363:
	.loc 1 3939 1 is_stmt 1
	.cfi_startproc
	@ args = 0, pretend = 0, frame = 0
	@ frame_needed = 0, uses_anonymous_args = 0
.LVL497:
	push	{r3, r4, r5, lr}
	.cfi_def_cfa_offset 16
	.cfi_offset 3, -16
	.cfi_offset 4, -12
	.cfi_offset 5, -8
	.cfi_offset 14, -4
	mov	r4, r0
	.loc 1 3940 3
	.loc 1 3941 3
	.loc 1 3941 17 is_stmt 0
	ldr	r3, [r0]
	.loc 1 3941 7
	ldr	r1, .L502
	ldr	r2, .L502+4
	cmp	r3, r2
	it	ne
	cmpne	r3, r1
	bne	.L477
	.loc 1 3941 259 discriminator 1
	ldr	r3, .L502+8
	ldr	r3, [r3, #8]
	.loc 1 3941 7 discriminator 1
	tst	r3, #196608
	ite	ne
	movne	r3, #1
	moveq	r3, #0
.L478:
	.loc 1 3941 6 discriminator 4
	cbz	r3, .L479
	.loc 1 3943 5 is_stmt 1
	.loc 1 3943 12 is_stmt 0
	bl	HAL_RCC_GetHCLKFreq
.LVL498:
	mov	r5, r0
.LVL499:
	.loc 1 3944 5 is_stmt 1
	.loc 1 3944 23 is_stmt 0
	ldr	r3, [r4, #4]
	.loc 1 3944 5
	cmp	r3, #131072
	beq	.L480
	cmp	r3, #196608
	beq	.L481
	cmp	r3, #65536
	beq	.L480
.LVL500:
.L482:
	.loc 1 4009 3 is_stmt 1
	.loc 1 4009 7 is_stmt 0
	bl	HAL_GetREVID
.LVL501:
	.loc 1 4009 6
	movw	r3, #4099
	cmp	r0, r3
	bhi	.L492
	.loc 1 4011 5 is_stmt 1
	.loc 1 4011 8 is_stmt 0
	ldr	r3, .L502+12
	cmp	r5, r3
	bls	.L493
	.loc 1 4013 7 is_stmt 1
	.loc 1 4013 13 is_stmt 0
	ldr	r2, [r4]
	.loc 1 4013 23
	ldr	r3, [r2, #8]
	.loc 1 4013 29
	orr	r3, r3, #256
	str	r3, [r2, #8]
.LVL502:
.L476:
	.loc 1 4042 1
	pop	{r3, r4, r5, pc}
.LVL503:
.L477:
	.loc 1 3941 368 discriminator 2
	ldr	r3, .L502+16
	ldr	r3, [r3, #8]
	.loc 1 3941 7 discriminator 2
	tst	r3, #196608
	ite	ne
	movne	r3, #1
	moveq	r3, #0
	b	.L478
.LVL504:
.L480:
	.loc 1 3948 9 is_stmt 1
	.loc 1 3948 44 is_stmt 0
	lsrs	r3, r3, #16
	.loc 1 3948 14
	udiv	r5, r5, r3
.LVL505:
	.loc 1 3949 9 is_stmt 1
	b	.L482
.LVL506:
.L481:
	.loc 1 3951 9
	.loc 1 3951 14 is_stmt 0
	lsrs	r5, r0, #2
.LVL507:
	.loc 1 3952 9 is_stmt 1
	b	.L482
.LVL508:
.L479:
	.loc 1 3959 5
	.loc 1 3959 12 is_stmt 0
	mov	r0, #524288
.LVL509:
	movs	r1, #0
	bl	HAL_RCCEx_GetPeriphCLKFreq
.LVL510:
	mov	r5, r0
.LVL511:
	.loc 1 3960 5 is_stmt 1
	.loc 1 3960 23 is_stmt 0
	ldr	r3, [r4, #4]
	.loc 1 3960 5
	cmp	r3, #2359296
	beq	.L483
	bhi	.L484
	cmp	r3, #1835008
	beq	.L485
	bls	.L499
	cmp	r3, #2097152
	bne	.L482
	.loc 1 3974 9 is_stmt 1
	.loc 1 3974 14 is_stmt 0
	lsrs	r5, r0, #5
.LVL512:
	.loc 1 3975 9 is_stmt 1
	b	.L482
.LVL513:
.L499:
	.loc 1 3960 5 is_stmt 0
	cmp	r3, #1048576
	beq	.L487
	bls	.L500
	cmp	r3, #1310720
	beq	.L487
	cmp	r3, #1572864
	beq	.L487
	b	.L482
.L500:
	cmp	r3, #524288
	beq	.L487
	cmp	r3, #786432
	bne	.L501
.L487:
	.loc 1 3968 9 is_stmt 1
	.loc 1 3968 45 is_stmt 0
	lsrs	r3, r3, #18
	.loc 1 3968 55
	lsls	r3, r3, #1
	.loc 1 3968 14
	udiv	r5, r5, r3
.LVL514:
	.loc 1 3969 9 is_stmt 1
	b	.L482
.LVL515:
.L501:
	.loc 1 3960 5 is_stmt 0
	cmp	r3, #262144
	beq	.L487
	b	.L482
.L484:
	cmp	r3, #2621440
	beq	.L490
	cmp	r3, #2883584
	bne	.L482
	.loc 1 3983 9 is_stmt 1
	.loc 1 3983 14 is_stmt 0
	lsrs	r5, r0, #8
.LVL516:
	.loc 1 3984 9 is_stmt 1
	b	.L482
.LVL517:
.L485:
	.loc 1 3971 9
	.loc 1 3971 14 is_stmt 0
	lsrs	r5, r0, #4
.LVL518:
	.loc 1 3972 9 is_stmt 1
	b	.L482
.LVL519:
.L483:
	.loc 1 3977 9
	.loc 1 3977 14 is_stmt 0
	lsrs	r5, r0, #6
.LVL520:
	.loc 1 3978 9 is_stmt 1
	b	.L482
.LVL521:
.L490:
	.loc 1 3980 9
	.loc 1 3980 14 is_stmt 0
	lsrs	r5, r0, #7
.LVL522:
	.loc 1 3981 9 is_stmt 1
	b	.L482
.L493:
	.loc 1 4017 7
	.loc 1 4017 13 is_stmt 0
	ldr	r2, [r4]
	.loc 1 4017 23
	ldr	r3, [r2, #8]
	.loc 1 4017 29
	bic	r3, r3, #256
	str	r3, [r2, #8]
	b	.L476
.L492:
	.loc 1 4022 5 is_stmt 1
.LVL523:
	.loc 1 4024 5
	.loc 1 4024 8 is_stmt 0
	ldr	r3, .L502+20
	cmp	r5, r3
	bhi	.L495
	.loc 1 4026 7 is_stmt 1
	.loc 1 4026 43 is_stmt 0
	ldr	r2, [r4]
	.loc 1 4026 53
	ldr	r3, [r2, #8]
	.loc 1 4026 85
	bic	r3, r3, #768
	.loc 1 4026 31
	str	r3, [r2, #8]
	b	.L476
.L495:
	.loc 1 4028 10 is_stmt 1
	.loc 1 4028 13 is_stmt 0
	ldr	r3, .L502+24
	cmp	r5, r3
	bhi	.L496
	.loc 1 4030 7 is_stmt 1
	.loc 1 4030 43 is_stmt 0
	ldr	r2, [r4]
	.loc 1 4030 53
	ldr	r3, [r2, #8]
	.loc 1 4030 61
	bic	r3, r3, #768
	.loc 1 4030 85
	orr	r3, r3, #256
	.loc 1 4030 31
	str	r3, [r2, #8]
	b	.L476
.L496:
	.loc 1 4032 10 is_stmt 1
	.loc 1 4032 13 is_stmt 0
	ldr	r3, .L502+28
	cmp	r5, r3
	bhi	.L497
	.loc 1 4034 7 is_stmt 1
	.loc 1 4034 43 is_stmt 0
	ldr	r2, [r4]
	.loc 1 4034 53
	ldr	r3, [r2, #8]
	.loc 1 4034 61
	bic	r3, r3, #768
	.loc 1 4034 85
	orr	r3, r3, #512
	.loc 1 4034 31
	str	r3, [r2, #8]
	b	.L476
.L497:
	.loc 1 4038 7 is_stmt 1
	.loc 1 4038 43 is_stmt 0
	ldr	r2, [r4]
	.loc 1 4038 53
	ldr	r3, [r2, #8]
	.loc 1 4038 85
	orr	r3, r3, #768
	.loc 1 4038 31
	str	r3, [r2, #8]
	.loc 1 4042 1
	b	.L476
.L503:
	.align	2
.L502:
	.word	1073881088
	.word	1073881344
	.word	1073881856
	.word	20000000
	.word	1476551424
	.word	12500001
	.word	25000001
	.word	50000001
	.cfi_endproc
.LFE363:
	.size	ADC_ConfigureBoostMode, .-ADC_ConfigureBoostMode
	.section	.text.HAL_ADC_Init,"ax",%progbits
	.align	1
	.global	HAL_ADC_Init
	.syntax unified
	.thumb
	.thumb_func
	.type	HAL_ADC_Init, %function
HAL_ADC_Init:
.LFB335:
	.loc 1 408 1 is_stmt 1
	.cfi_startproc
	@ args = 0, pretend = 0, frame = 8
	@ frame_needed = 0, uses_anonymous_args = 0
.LVL524:
	push	{r4, r5, lr}
	.cfi_def_cfa_offset 12
	.cfi_offset 4, -12
	.cfi_offset 5, -8
	.cfi_offset 14, -4
	sub	sp, sp, #12
	.cfi_def_cfa_offset 24
	.loc 1 409 3
.LVL525:
	.loc 1 410 3
	.loc 1 411 3
	.loc 1 412 3
	.loc 1 412 21 is_stmt 0
	movs	r3, #0
	str	r3, [sp, #4]
	.loc 1 413 3 is_stmt 1
	.loc 1 414 3
	.loc 1 417 3
	.loc 1 417 6 is_stmt 0
	cmp	r0, #0
	beq	.L531
	mov	r4, r0
	.loc 1 423 3 is_stmt 1
	.loc 1 424 3
	.loc 1 425 3
	.loc 1 426 3
	.loc 1 427 3
	.loc 1 428 3
	.loc 1 429 3
	.loc 1 430 3
	.loc 1 431 3
	.loc 1 432 3
	.loc 1 433 3
	.loc 1 434 3
	.loc 1 436 3
	.loc 1 443 7
	.loc 1 448 3
	.loc 1 452 3
	.loc 1 452 11 is_stmt 0
	ldr	r3, [r0, #84]
	.loc 1 452 6
	cbz	r3, .L535
.LVL526:
.L506:
	.loc 1 486 3 is_stmt 1
	.loc 1 486 7 is_stmt 0
	ldr	r3, [r4]
.LVL527:
.LBB513:
.LBB514:
	.loc 2 6834 3 is_stmt 1
	.loc 2 6834 18 is_stmt 0
	ldr	r2, [r3, #8]
	.loc 2 6834 75
	tst	r2, #536870912
	beq	.L507
.LVL528:
.LBE514:
.LBE513:
	.loc 1 489 5 is_stmt 1
.LBB515:
.LBB516:
	.loc 2 6823 3
	.loc 2 6823 9 is_stmt 0
	ldr	r1, [r3, #8]
	.loc 2 6823 15
	ldr	r2, .L540
	ands	r2, r2, r1
	str	r2, [r3, #8]
.LVL529:
.L507:
.LBE516:
.LBE515:
	.loc 1 496 3 is_stmt 1
	.loc 1 496 7 is_stmt 0
	ldr	r3, [r4]
.LVL530:
.LBB517:
.LBB518:
	.loc 2 6883 3 is_stmt 1
	.loc 2 6883 18 is_stmt 0
	ldr	r2, [r3, #8]
	.loc 2 6883 75
	tst	r2, #268435456
	bne	.L508
.LVL531:
.LBE518:
.LBE517:
	.loc 1 499 5 is_stmt 1
.LBB519:
.LBB520:
	.loc 2 6856 3
	.loc 2 6856 29 is_stmt 0
	ldr	r1, [r3, #8]
	.loc 2 6856 172
	ldr	r2, .L540+4
	ands	r2, r2, r1
	orr	r2, r2, #268435456
	.loc 2 6856 17
	str	r2, [r3, #8]
.LVL532:
.LBE520:
.LBE519:
	.loc 1 504 5 is_stmt 1
	.loc 1 504 61 is_stmt 0
	ldr	r3, .L540+8
	ldr	r3, [r3]
	lsrs	r3, r3, #6
	ldr	r2, .L540+12
	umull	r2, r3, r2, r3
	lsrs	r3, r3, #6
	.loc 1 504 41
	adds	r3, r3, #1
	.loc 1 504 21
	str	r3, [sp, #4]
	.loc 1 505 5 is_stmt 1
	.loc 1 505 11 is_stmt 0
	b	.L509
.LVL533:
.L535:
	.loc 1 475 5 is_stmt 1
	bl	HAL_ADC_MspInit
.LVL534:
	.loc 1 479 5
	.loc 1 479 24 is_stmt 0
	movs	r3, #0
	str	r3, [r4, #88]
	.loc 1 482 5 is_stmt 1
	.loc 1 482 16 is_stmt 0
	strb	r3, [r4, #80]
	b	.L506
.L510:
	.loc 1 507 7 is_stmt 1
	.loc 1 507 22 is_stmt 0
	ldr	r3, [sp, #4]
	subs	r3, r3, #1
	str	r3, [sp, #4]
.L509:
	.loc 1 505 28 is_stmt 1
	ldr	r3, [sp, #4]
	cmp	r3, #0
	bne	.L510
.L508:
	.loc 1 514 3
	.loc 1 514 7 is_stmt 0
	ldr	r2, [r4]
.LVL535:
.LBB521:
.LBB522:
	.loc 2 6883 3 is_stmt 1
	.loc 2 6883 18 is_stmt 0
	ldr	r3, [r2, #8]
	.loc 2 6883 75
	tst	r3, #268435456
	bne	.L532
.LVL536:
.LBE522:
.LBE521:
	.loc 1 517 5 is_stmt 1
	.loc 1 517 11 is_stmt 0
	ldr	r3, [r4, #84]
	.loc 1 517 20
	orr	r3, r3, #16
	str	r3, [r4, #84]
	.loc 1 520 5 is_stmt 1
	.loc 1 520 11 is_stmt 0
	ldr	r3, [r4, #88]
	.loc 1 520 24
	orr	r3, r3, #1
	str	r3, [r4, #88]
	.loc 1 522 5 is_stmt 1
.LVL537:
	.loc 1 522 20 is_stmt 0
	movs	r5, #1
.LVL538:
.L511:
	.loc 1 529 3 is_stmt 1
.LBB523:
.LBB524:
	.loc 2 7075 3
	.loc 2 7075 18 is_stmt 0
	ldr	r3, [r2, #8]
	.loc 2 7075 73
	ands	r3, r3, #4
	beq	.L512
	movs	r3, #1
.L512:
.LVL539:
.LBE524:
.LBE523:
	.loc 1 531 3 is_stmt 1
	.loc 1 531 13 is_stmt 0
	ldr	r1, [r4, #84]
	.loc 1 531 6
	tst	r1, #16
	bne	.L513
	.loc 1 532 7
	cmp	r3, #0
	bne	.L513
	.loc 1 536 5 is_stmt 1
	.loc 1 536 34 is_stmt 0
	ldr	r3, [r4, #84]
.LVL540:
	.loc 1 536 68
	bic	r3, r3, #258
	orr	r3, r3, #2
	.loc 1 536 22
	str	r3, [r4, #84]
	.loc 1 545 5 is_stmt 1
.LVL541:
.LBB525:
.LBB526:
	.loc 2 6943 3
	.loc 2 6943 18 is_stmt 0
	ldr	r3, [r2, #8]
	.loc 2 6943 73
	tst	r3, #1
	bne	.L514
.LVL542:
.LBE526:
.LBE525:
	.loc 1 547 7 is_stmt 1
	.loc 1 547 101 is_stmt 0
	ldr	r1, .L540+16
	ldr	r3, .L540+20
	.loc 1 547 687
	cmp	r2, r3
	it	ne
	cmpne	r2, r1
	ite	eq
	moveq	r2, #1
	movne	r2, #0
	bne	.L515
.LVL543:
.LBB527:
.LBB528:
	.loc 2 6943 3 is_stmt 1
	.loc 2 6943 18 is_stmt 0
	ldr	r1, [r1, #8]
	.loc 2 6943 73
	ands	r1, r1, #1
	beq	.L516
	movs	r1, #1
.L516:
.LVL544:
.LBE528:
.LBE527:
.LBB529:
.LBB530:
	.loc 2 6943 3 is_stmt 1
	.loc 2 6943 18 is_stmt 0
	ldr	r3, .L540+20
	ldr	r3, [r3, #8]
	.loc 2 6943 73
	ands	r3, r3, #1
	beq	.L517
	movs	r3, #1
.L517:
.LVL545:
.LBE530:
.LBE529:
	.loc 1 547 10
	orrs	r3, r3, r1
	bne	.L514
.L518:
	.loc 1 566 9 is_stmt 1
	cmp	r2, #0
	beq	.L533
	ldr	r1, .L540+24
.L519:
	.loc 1 566 9 is_stmt 0 discriminator 4
	ldr	r3, [r4, #4]
.LVL546:
.LBB531:
.LBB532:
	.loc 2 2665 3 is_stmt 1 discriminator 4
	.loc 2 2665 46 is_stmt 0 discriminator 4
	ldr	r2, [r1, #8]
	.loc 2 2665 55 discriminator 4
	bic	r2, r2, #4128768
	.loc 2 2665 99 discriminator 4
	orrs	r3, r3, r2
.LVL547:
	.loc 2 2665 26 discriminator 4
	str	r3, [r1, #8]
.LVL548:
.L514:
.LBE532:
.LBE531:
	.loc 1 604 5 is_stmt 1
	.loc 1 604 10 is_stmt 0
	bl	HAL_GetREVID
.LVL549:
	.loc 1 604 8
	movw	r3, #4099
	cmp	r0, r3
	bls	.L520
	.loc 1 604 85 discriminator 1
	ldr	r3, [r4, #8]
	.loc 1 604 47 discriminator 1
	cmp	r3, #16
	beq	.L536
.L520:
	.loc 1 615 7 is_stmt 1
	.loc 1 615 40 is_stmt 0
	ldrb	r2, [r4, #21]	@ zero_extendqisi2
	.loc 1 616 29
	ldr	r3, [r4, #48]
	.loc 1 615 71
	orr	r3, r3, r2, lsl #13
	.loc 1 617 29
	ldr	r2, [r4, #8]
	.loc 1 616 38
	orrs	r3, r3, r2
	.loc 1 618 41
	ldrb	r2, [r4, #28]	@ zero_extendqisi2
	.loc 1 615 15
	orr	r3, r3, r2, lsl #16
.LVL550:
.L521:
	.loc 1 623 5 is_stmt 1
	.loc 1 623 19 is_stmt 0
	ldrb	r2, [r4, #28]	@ zero_extendqisi2
	.loc 1 623 8
	cmp	r2, #1
	beq	.L537
.L522:
	.loc 1 633 5 is_stmt 1
	.loc 1 633 19 is_stmt 0
	ldr	r2, [r4, #36]
	.loc 1 633 8
	cbz	r2, .L523
	.loc 1 635 7 is_stmt 1
	.loc 1 635 48 is_stmt 0
	and	r2, r2, #992
	.loc 1 636 31
	ldr	r1, [r4, #40]
	.loc 1 636 19
	orrs	r2, r2, r1
	.loc 1 635 15
	orrs	r3, r3, r2
.LVL551:
.L523:
	.loc 1 656 5 is_stmt 1
	.loc 1 656 43 is_stmt 0
	ldr	r1, [r4]
	.loc 1 656 53
	ldr	r0, [r1, #12]
	.loc 1 656 63
	ldr	r2, .L540+28
	ands	r2, r2, r0
	.loc 1 656 215
	orrs	r2, r2, r3
	.loc 1 656 31
	str	r2, [r1, #12]
	.loc 1 665 5 is_stmt 1
	.loc 1 665 46 is_stmt 0
	ldr	r1, [r4]
.LVL552:
.LBB533:
.LBB534:
	.loc 2 7075 3 is_stmt 1
	.loc 2 7075 18 is_stmt 0
	ldr	r2, [r1, #8]
	.loc 2 7075 73
	ands	r2, r2, #4
	beq	.L524
	movs	r2, #1
.L524:
.LVL553:
.LBE534:
.LBE533:
	.loc 1 666 5 is_stmt 1
.LBB535:
.LBB536:
	.loc 2 7270 3
	.loc 2 7270 18 is_stmt 0
	ldr	r3, [r1, #8]
.LVL554:
	.loc 2 7270 73
	ands	r3, r3, #8
	beq	.L525
	movs	r3, #1
.L525:
.LVL555:
.LBE536:
.LBE535:
	.loc 1 667 5 is_stmt 1
	.loc 1 667 8 is_stmt 0
	orrs	r3, r3, r2
.LVL556:
	bne	.L526
	.loc 1 685 7 is_stmt 1
	.loc 1 686 41 is_stmt 0
	ldrb	r2, [r4, #20]	@ zero_extendqisi2
.LVL557:
	.loc 1 687 41
	ldr	r3, [r4, #44]
	.loc 1 685 15
	orr	r2, r3, r2, lsl #14
.LVL558:
	.loc 1 690 7 is_stmt 1
	.loc 1 690 55 is_stmt 0
	ldr	r0, [r1, #12]
	.loc 1 690 65
	ldr	r3, .L540+32
	ands	r3, r3, r0
	.loc 1 690 122
	orrs	r3, r3, r2
	.loc 1 690 33
	str	r3, [r1, #12]
	.loc 1 692 7 is_stmt 1
	.loc 1 692 21 is_stmt 0
	ldrb	r3, [r4, #56]	@ zero_extendqisi2
	.loc 1 692 10
	cmp	r3, #1
	beq	.L538
	.loc 1 772 9 is_stmt 1
	.loc 1 772 15 is_stmt 0
	ldr	r2, [r4]
.LVL559:
	.loc 1 772 25
	ldr	r3, [r2, #16]
	.loc 1 772 34
	bic	r3, r3, #1
	str	r3, [r2, #16]
.L528:
	.loc 1 776 7 is_stmt 1
	.loc 1 776 46 is_stmt 0
	ldr	r2, [r4]
	.loc 1 776 56
	ldr	r3, [r2, #16]
	.loc 1 776 67
	bic	r3, r3, #-268435456
	.loc 1 776 105
	ldr	r1, [r4, #52]
	.loc 1 776 92
	orrs	r3, r3, r1
	.loc 1 776 34
	str	r3, [r2, #16]
	.loc 1 785 7 is_stmt 1
	mov	r0, r4
	bl	ADC_ConfigureBoostMode
.LVL560:
.L526:
	.loc 1 798 5
	.loc 1 798 19 is_stmt 0
	ldr	r3, [r4, #12]
	.loc 1 798 8
	cmp	r3, #1
	beq	.L539
	.loc 1 805 7 is_stmt 1
	.loc 1 805 13 is_stmt 0
	ldr	r2, [r4]
	.loc 1 805 23
	ldr	r3, [r2, #48]
	.loc 1 805 31
	bic	r3, r3, #15
	str	r3, [r2, #48]
.L530:
	.loc 1 810 5 is_stmt 1
	.loc 1 810 34 is_stmt 0
	ldr	r3, [r4, #84]
	.loc 1 810 68
	bic	r3, r3, #3
	orr	r3, r3, #1
	.loc 1 810 22
	str	r3, [r4, #84]
	b	.L505
.LVL561:
.L532:
	.loc 1 409 21
	movs	r5, #0
	b	.L511
.LVL562:
.L515:
.LBB537:
.LBB538:
	.loc 2 6943 3 is_stmt 1
	.loc 2 6943 18 is_stmt 0
	ldr	r3, .L540+36
	ldr	r3, [r3, #8]
	.loc 2 6943 73
	tst	r3, #1
	bne	.L514
	b	.L518
.LVL563:
.L533:
.LBE538:
.LBE537:
	.loc 1 566 9
	ldr	r1, .L540+40
	b	.L519
.L536:
	.loc 1 607 7 is_stmt 1
	.loc 1 607 40 is_stmt 0
	ldrb	r1, [r4, #21]	@ zero_extendqisi2
	.loc 1 608 29
	ldr	r2, [r4, #48]
	.loc 1 607 71
	orr	r2, r2, r1, lsl #13
	.loc 1 608 38
	orrs	r3, r3, r2
	.loc 1 610 41
	ldrb	r2, [r4, #28]	@ zero_extendqisi2
	.loc 1 609 79
	orr	r3, r3, r2, lsl #16
	.loc 1 607 15
	orr	r3, r3, #12
.LVL564:
	b	.L521
.L537:
	.loc 1 625 7 is_stmt 1
	.loc 1 625 31 is_stmt 0
	ldr	r2, [r4, #32]
	.loc 1 625 53
	subs	r2, r2, #1
	.loc 1 625 15
	orr	r3, r3, r2, lsl #17
.LVL565:
	b	.L522
.LVL566:
.L538:
	.loc 1 704 9 is_stmt 1
	.loc 1 706 9
	.loc 1 707 9
	.loc 1 708 9
	.loc 1 710 9
	.loc 1 714 11
	.loc 1 760 9
	.loc 1 760 48 is_stmt 0
	ldr	r0, [r4]
	.loc 1 760 58
	ldr	r2, [r0, #16]
.LVL567:
	.loc 1 760 69
	ldr	r3, .L540+44
	ands	r3, r3, r2
	.loc 1 760 229
	ldr	r2, [r4, #60]
	.loc 1 760 236
	subs	r1, r2, #1
	.loc 1 760 278
	ldr	r2, [r4, #64]
	.loc 1 760 253
	orr	r2, r2, r1, lsl #16
	.loc 1 760 318
	ldr	r1, [r4, #68]
	.loc 1 760 293
	orrs	r2, r2, r1
	.loc 1 760 358
	ldr	r1, [r4, #72]
	.loc 1 760 333
	orrs	r2, r2, r1
	.loc 1 760 183
	orrs	r3, r3, r2
	orr	r3, r3, #1
	.loc 1 760 36
	str	r3, [r0, #16]
	b	.L528
.LVL568:
.L539:
	.loc 1 801 7 is_stmt 1
	.loc 1 801 45 is_stmt 0
	ldr	r1, [r4]
	.loc 1 801 55
	ldr	r3, [r1, #48]
	.loc 1 801 65
	bic	r3, r3, #15
	.loc 1 801 103
	ldr	r2, [r4, #24]
	.loc 1 801 120
	subs	r2, r2, #1
	.loc 1 801 89
	orrs	r3, r3, r2
	.loc 1 801 33
	str	r3, [r1, #48]
	b	.L530
.LVL569:
.L513:
	.loc 1 815 5 is_stmt 1
	.loc 1 815 11 is_stmt 0
	ldr	r3, [r4, #84]
.LVL570:
	.loc 1 815 20
	orr	r3, r3, #16
	str	r3, [r4, #84]
	.loc 1 817 5 is_stmt 1
.LVL571:
	.loc 1 817 20 is_stmt 0
	movs	r5, #1
.LVL572:
.L505:
	.loc 1 822 1
	mov	r0, r5
	add	sp, sp, #12
	.cfi_remember_state
	.cfi_def_cfa_offset 12
	@ sp needed
	pop	{r4, r5, pc}
.LVL573:
.L531:
	.cfi_restore_state
	.loc 1 419 12
	movs	r5, #1
	b	.L505
.L541:
	.align	2
.L540:
	.word	1610612672
	.word	1879048128
	.word	SystemCoreClock
	.word	87960931
	.word	1073881088
	.word	1073881344
	.word	1073881856
	.word	-999421
	.word	-16388
	.word	1476550656
	.word	1476551424
	.word	-67045346
	.cfi_endproc
.LFE335:
	.size	HAL_ADC_Init, .-HAL_ADC_Init
	.text
.Letext0:
	.file 4 "m:\\noinstall\\arm-gnu-toolchain-12.2.rel1-mingw-w64-i686-arm-none-eabi\\arm-none-eabi\\include\\machine\\_default_types.h"
	.file 5 "m:\\noinstall\\arm-gnu-toolchain-12.2.rel1-mingw-w64-i686-arm-none-eabi\\arm-none-eabi\\include\\sys\\_stdint.h"
	.file 6 "D:/RTOS/Board/YD-STM32H7xxVx_ClassicV19/cmake-build-debug/_deps/stm32h7xx_cmsis_device-src/Include/stm32h743xx.h"
	.file 7 "D:/RTOS/Board/YD-STM32H7xxVx_ClassicV19/cmake-build-debug/_deps/stm32h7xx_cmsis_device-src/Include/stm32h7xx.h"
	.file 8 "D:/RTOS/Board/YD-STM32H7xxVx_ClassicV19/cmake-build-debug/_deps/stm32h7xx_hal_driver-src/Inc/stm32h7xx_hal_def.h"
	.file 9 "D:/RTOS/Board/YD-STM32H7xxVx_ClassicV19/cmake-build-debug/_deps/stm32h7xx_hal_driver-src/Inc/stm32h7xx_hal_dma.h"
	.file 10 "D:/RTOS/Board/YD-STM32H7xxVx_ClassicV19/cmake-build-debug/_deps/stm32h7xx_hal_driver-src/Inc/stm32h7xx_hal_adc.h"
	.file 11 "D:/RTOS/Board/YD-STM32H7xxVx_ClassicV19/cmake-build-debug/_deps/stm32h7xx_hal_driver-src/Inc/stm32h7xx_hal_adc_ex.h"
	.file 12 "D:/RTOS/Board/YD-STM32H7xxVx_ClassicV19/cmake-build-debug/_deps/stm32h7xx_hal_driver-src/Inc/stm32h7xx_hal_rcc_ex.h"
	.file 13 "D:/RTOS/Board/YD-STM32H7xxVx_ClassicV19/cmake-build-debug/_deps/stm32h7xx_hal_driver-src/Inc/stm32h7xx_hal_rcc.h"
	.file 14 "D:/RTOS/Board/YD-STM32H7xxVx_ClassicV19/cmake-build-debug/_deps/stm32h7xx_hal_driver-src/Inc/stm32h7xx_hal.h"
	.file 15 "D:/RTOS/Board/YD-STM32H7xxVx_ClassicV19/cmake-build-debug/_deps/stm32h7xx_cmsis_device-src/Include/system_stm32h7xx.h"