	.cpu cortex-m7
	.arch armv7e-m
	.fpu fpv5-d16
	.eabi_attribute 28, 1
	.eabi_attribute 20, 1
	.eabi_attribute 21, 1
	.eabi_attribute 23, 3
	.eabi_attribute 24, 1
	.eabi_attribute 25, 1
	.eabi_attribute 26, 1
	.eabi_attribute 30, 1
	.eabi_attribute 34, 1
	.eabi_attribute 18, 4
	.file	"stm32h7xx_hal_pwr_ex.c"
	.text
.Ltext0:
	.cfi_sections	.debug_frame
	.file 1 "D:/RTOS/Board/YD-STM32H7xxVx_ClassicV19/cmake-build-debug/_deps/stm32h7xx_hal_driver-src/Src/stm32h7xx_hal_pwr_ex.c"
	.section	.text.HAL_PWREx_ConfigSupply,"ax",%progbits
	.align	1
	.global	HAL_PWREx_ConfigSupply
	.syntax unified
	.thumb
	.thumb_func
	.type	HAL_PWREx_ConfigSupply, %function
HAL_PWREx_ConfigSupply:
.LFB335:
	.loc 1 314 1
	.cfi_startproc
	@ args = 0, pretend = 0, frame = 0
	@ frame_needed = 0, uses_anonymous_args = 0
.LVL0:
	.loc 1 315 3
	.loc 1 318 3
	.loc 1 322 3
	.loc 1 322 651 is_stmt 0
	ldr	r3, .L12
	ldr	r3, [r3, #12]
	.loc 1 322 6
	tst	r3, #4
	bne	.L2
	.loc 1 328 5 is_stmt 1
	.loc 1 328 72 is_stmt 0
	ldr	r3, .L12
	ldr	r3, [r3, #12]
	.loc 1 328 78
	and	r3, r3, #7
	.loc 1 328 8
	cmp	r3, r0
	beq	.L6
	.loc 1 331 14
	movs	r0, #1
.LVL1:
	bx	lr
.LVL2:
.L2:
	.loc 1 314 1
	push	{r4, lr}
	.cfi_def_cfa_offset 8
	.cfi_offset 4, -8
	.cfi_offset 14, -4
	.loc 1 343 3 is_stmt 1
	.loc 1 343 146 is_stmt 0
	ldr	r2, .L12
	ldr	r3, [r2, #12]
	.loc 1 343 155
	bic	r3, r3, #7
	.loc 1 343 217
	orrs	r3, r3, r0
	.loc 1 343 76
	str	r3, [r2, #12]
	.loc 1 346 3 is_stmt 1
	.loc 1 346 15 is_stmt 0
	bl	HAL_GetTick
.LVL3:
	mov	r4, r0
.LVL4:
	.loc 1 349 3 is_stmt 1
.L4:
	.loc 1 349 2055
	.loc 1 349 376 is_stmt 0
	ldr	r3, .L12
	ldr	r3, [r3, #4]
	.loc 1 349 2055
	tst	r3, #8192
	bne	.L11
	.loc 1 351 5 is_stmt 1
	.loc 1 351 10 is_stmt 0
	bl	HAL_GetTick
.LVL5:
	.loc 1 351 25
	subs	r0, r0, r4
	.loc 1 351 8
	cmp	r0, #1000
	bls	.L4
	.loc 1 353 14
	movs	r0, #1
	b	.L3
.L11:
	.loc 1 378 10
	movs	r0, #0
.L3:
	.loc 1 379 1
	pop	{r4, pc}
.LVL6:
.L6:
	.cfi_def_cfa_offset 0
	.cfi_restore 4
	.cfi_restore 14
	.loc 1 338 14
	movs	r0, #0
.LVL7:
	.loc 1 379 1
	bx	lr
.L13:
	.align	2
.L12:
	.word	1476544512
	.cfi_endproc
.LFE335:
	.size	HAL_PWREx_ConfigSupply, .-HAL_PWREx_ConfigSupply
	.section	.text.HAL_PWREx_GetSupplyConfig,"ax",%progbits
	.align	1
	.global	HAL_PWREx_GetSupplyConfig
	.syntax unified
	.thumb
	.thumb_func
	.type	HAL_PWREx_GetSupplyConfig, %function
HAL_PWREx_GetSupplyConfig:
.LFB336:
	.loc 1 386 1 is_stmt 1
	.cfi_startproc
	@ args = 0, pretend = 0, frame = 0
	@ frame_needed = 0, uses_anonymous_args = 0
	@ link register save eliminated.
	.loc 1 387 3
	.loc 1 387 73 is_stmt 0
	ldr	r3, .L15
	ldr	r0, [r3, #12]
	.loc 1 388 1
	and	r0, r0, #7
	bx	lr
.L16:
	.align	2
.L15:
	.word	1476544512
	.cfi_endproc
.LFE336:
	.size	HAL_PWREx_GetSupplyConfig, .-HAL_PWREx_GetSupplyConfig
	.section	.text.HAL_PWREx_ControlVoltageScaling,"ax",%progbits
	.align	1
	.global	HAL_PWREx_ControlVoltageScaling
	.syntax unified
	.thumb
	.thumb_func
	.type	HAL_PWREx_ControlVoltageScaling, %function
HAL_PWREx_ControlVoltageScaling:
.LFB337:
	.loc 1 414 1 is_stmt 1
	.cfi_startproc
	@ args = 0, pretend = 0, frame = 0
	@ frame_needed = 0, uses_anonymous_args = 0
.LVL8:
	push	{r3, r4, r5, lr}
	.cfi_def_cfa_offset 16
	.cfi_offset 3, -16
	.cfi_offset 4, -12
	.cfi_offset 5, -8
	.cfi_offset 14, -4
	.loc 1 415 3
	.loc 1 418 3
	.loc 1 421 3
	.loc 1 421 70 is_stmt 0
	ldr	r3, .L38
	ldr	r3, [r3, #4]
	.loc 1 421 77
	and	r3, r3, #49152
	.loc 1 421 6
	cmp	r3, r0
	beq	.L28
	mov	r4, r0
	.loc 1 432 3 is_stmt 1
	.loc 1 432 6 is_stmt 0
	cbnz	r0, .L19
	.loc 1 434 5 is_stmt 1
	.loc 1 434 72 is_stmt 0
	ldr	r3, .L38
	ldr	r3, [r3, #12]
	.loc 1 434 8
	tst	r3, #2
	bne	.L34
	.loc 1 457 14
	movs	r0, #1
.LVL9:
	b	.L18
.LVL10:
.L34:
	.loc 1 437 7 is_stmt 1
	.loc 1 437 151 is_stmt 0
	ldr	r2, .L38
	ldr	r3, [r2, #24]
	.loc 1 437 186
	orr	r3, r3, #49152
	.loc 1 437 81
	str	r3, [r2, #24]
	.loc 1 440 7 is_stmt 1
	.loc 1 440 19 is_stmt 0
	bl	HAL_GetTick
.LVL11:
	mov	r4, r0
.LVL12:
	.loc 1 443 7 is_stmt 1
.L20:
	.loc 1 443 2059
	.loc 1 443 380 is_stmt 0
	ldr	r3, .L38
	ldr	r3, [r3, #4]
	.loc 1 443 2059
	tst	r3, #8192
	bne	.L35
	.loc 1 445 9 is_stmt 1
	.loc 1 445 14 is_stmt 0
	bl	HAL_GetTick
.LVL13:
	.loc 1 445 29
	subs	r0, r0, r4
	.loc 1 445 12
	cmp	r0, #1000
	bls	.L20
	.loc 1 447 18
	movs	r0, #1
	b	.L18
.L35:
	.loc 1 452 7 is_stmt 1
	.loc 1 452 74 is_stmt 0
	ldr	r2, .L38+4
	ldr	r3, [r2, #44]
	.loc 1 452 83
	orr	r3, r3, #1
	str	r3, [r2, #44]
	b	.L22
.LVL14:
.L19:
	.loc 1 462 5 is_stmt 1
	.loc 1 462 72 is_stmt 0
	ldr	r3, .L38
	ldr	r3, [r3, #4]
	.loc 1 462 79
	and	r3, r3, #49152
	.loc 1 462 8
	cmp	r3, #49152
	beq	.L36
.LVL15:
.L23:
	.loc 1 484 5 is_stmt 1
	.loc 1 484 149 is_stmt 0
	ldr	r2, .L38
	ldr	r3, [r2, #24]
	.loc 1 484 159
	bic	r3, r3, #49152
	.loc 1 484 184
	orrs	r3, r3, r4
	.loc 1 484 79
	str	r3, [r2, #24]
.LVL16:
.L22:
	.loc 1 493 3 is_stmt 1
	.loc 1 493 15 is_stmt 0
	bl	HAL_GetTick
.LVL17:
	mov	r4, r0
.LVL18:
	.loc 1 496 3 is_stmt 1
.L26:
	.loc 1 496 2055
	.loc 1 496 376 is_stmt 0
	ldr	r3, .L38
	ldr	r3, [r3, #4]
	.loc 1 496 2055
	tst	r3, #8192
	bne	.L37
	.loc 1 498 5 is_stmt 1
	.loc 1 498 10 is_stmt 0
	bl	HAL_GetTick
.LVL19:
	.loc 1 498 24
	subs	r0, r0, r4
	.loc 1 498 8
	cmp	r0, #1000
	bls	.L26
	.loc 1 500 14
	movs	r0, #1
	b	.L18
.LVL20:
.L36:
	.loc 1 464 7 is_stmt 1
	.loc 1 464 77 is_stmt 0
	ldr	r3, .L38+4
	ldr	r3, [r3, #44]
	.loc 1 464 10
	tst	r3, #1
	beq	.L23
	.loc 1 467 9 is_stmt 1
	.loc 1 467 76 is_stmt 0
	ldr	r2, .L38+4
	ldr	r3, [r2, #44]
	.loc 1 467 85
	bic	r3, r3, #1
	str	r3, [r2, #44]
	.loc 1 470 9 is_stmt 1
	.loc 1 470 21 is_stmt 0
	bl	HAL_GetTick
.LVL21:
	mov	r5, r0
.LVL22:
	.loc 1 473 9 is_stmt 1
.L24:
	.loc 1 473 2061
	.loc 1 473 382 is_stmt 0
	ldr	r3, .L38
	ldr	r3, [r3, #4]
	.loc 1 473 2061
	tst	r3, #8192
	bne	.L23
	.loc 1 475 11 is_stmt 1
	.loc 1 475 16 is_stmt 0
	bl	HAL_GetTick
.LVL23:
	.loc 1 475 31
	subs	r0, r0, r5
	.loc 1 475 14
	cmp	r0, #1000
	bls	.L24
	.loc 1 477 20
	movs	r0, #1
	b	.L18
.LVL24:
.L37:
	.loc 1 504 10
	movs	r0, #0
.LVL25:
.L18:
	.loc 1 505 1
	pop	{r3, r4, r5, pc}
.LVL26:
.L28:
	.loc 1 424 12
	movs	r0, #0
.LVL27:
	b	.L18
.L39:
	.align	2
.L38:
	.word	1476544512
	.word	1476396032
	.cfi_endproc
.LFE337:
	.size	HAL_PWREx_ControlVoltageScaling, .-HAL_PWREx_ControlVoltageScaling
	.section	.text.HAL_PWREx_GetVoltageRange,"ax",%progbits
	.align	1
	.global	HAL_PWREx_GetVoltageRange
	.syntax unified
	.thumb
	.thumb_func
	.type	HAL_PWREx_GetVoltageRange, %function
HAL_PWREx_GetVoltageRange:
.LFB338:
	.loc 1 513 1 is_stmt 1
	.cfi_startproc
	@ args = 0, pretend = 0, frame = 0
	@ frame_needed = 0, uses_anonymous_args = 0
	@ link register save eliminated.
	.loc 1 515 3
	.loc 1 515 73 is_stmt 0
	ldr	r3, .L41
	ldr	r0, [r3, #4]
	.loc 1 516 1
	and	r0, r0, #49152
	bx	lr
.L42:
	.align	2
.L41:
	.word	1476544512
	.cfi_endproc
.LFE338:
	.size	HAL_PWREx_GetVoltageRange, .-HAL_PWREx_GetVoltageRange
	.section	.text.HAL_PWREx_ControlStopModeVoltageScaling,"ax",%progbits
	.align	1
	.global	HAL_PWREx_ControlStopModeVoltageScaling
	.syntax unified
	.thumb
	.thumb_func
	.type	HAL_PWREx_ControlStopModeVoltageScaling, %function
HAL_PWREx_ControlStopModeVoltageScaling:
.LFB339:
	.loc 1 539 1 is_stmt 1
	.cfi_startproc
	@ args = 0, pretend = 0, frame = 0
	@ frame_needed = 0, uses_anonymous_args = 0
	@ link register save eliminated.
.LVL28:
	.loc 1 541 3
	.loc 1 544 3
	.loc 1 544 146 is_stmt 0
	ldr	r2, .L44
	ldr	r3, [r2]
	.loc 1 544 155
	bic	r3, r3, #49152
	.loc 1 544 180
	orrs	r3, r3, r0
	.loc 1 544 76
	str	r3, [r2]
	.loc 1 546 3 is_stmt 1
	.loc 1 547 1 is_stmt 0
	movs	r0, #0
.LVL29:
	bx	lr
.L45:
	.align	2
.L44:
	.word	1476544512
	.cfi_endproc
.LFE339:
	.size	HAL_PWREx_ControlStopModeVoltageScaling, .-HAL_PWREx_ControlStopModeVoltageScaling
	.section	.text.HAL_PWREx_GetStopModeVoltageRange,"ax",%progbits
	.align	1
	.global	HAL_PWREx_GetStopModeVoltageRange
	.syntax unified
	.thumb
	.thumb_func
	.type	HAL_PWREx_GetStopModeVoltageRange, %function
HAL_PWREx_GetStopModeVoltageRange:
.LFB340:
	.loc 1 554 1 is_stmt 1
	.cfi_startproc
	@ args = 0, pretend = 0, frame = 0
	@ frame_needed = 0, uses_anonymous_args = 0
	@ link register save eliminated.
	.loc 1 556 3
	.loc 1 556 73 is_stmt 0
	ldr	r3, .L47
	ldr	r0, [r3]
	.loc 1 557 1
	and	r0, r0, #49152
	bx	lr
.L48:
	.align	2
.L47:
	.word	1476544512
	.cfi_endproc
.LFE340:
	.size	HAL_PWREx_GetStopModeVoltageRange, .-HAL_PWREx_GetStopModeVoltageRange
	.section	.text.HAL_PWREx_EnterSTOPMode,"ax",%progbits
	.align	1
	.global	HAL_PWREx_EnterSTOPMode
	.syntax unified
	.thumb
	.thumb_func
	.type	HAL_PWREx_EnterSTOPMode, %function
HAL_PWREx_EnterSTOPMode:
.LFB341:
	.loc 1 817 1 is_stmt 1
	.cfi_startproc
	@ args = 0, pretend = 0, frame = 0
	@ frame_needed = 0, uses_anonymous_args = 0
	@ link register save eliminated.
.LVL30:
	push	{r4}
	.cfi_def_cfa_offset 4
	.cfi_offset 4, -4
	.loc 1 819 3
	.loc 1 820 3
	.loc 1 821 3
	.loc 1 824 3
	.loc 1 824 146 is_stmt 0
	ldr	r4, .L58
	ldr	r3, [r4]
	.loc 1 824 155
	bic	r3, r3, #1
	.loc 1 824 179
	orrs	r3, r3, r0
	.loc 1 824 76
	str	r3, [r4]
	.loc 1 827 3 is_stmt 1
	.loc 1 827 6 is_stmt 0
	cbnz	r2, .L50
	.loc 1 842 5 is_stmt 1
	.loc 1 842 69 is_stmt 0
	ldr	r3, [r4, #16]
	.loc 1 842 78
	bic	r3, r3, #1
	str	r3, [r4, #16]
	.loc 1 845 5 is_stmt 1
	.loc 1 845 50 is_stmt 0
	ldr	r2, .L58+4
.LVL31:
	ldr	r3, [r2, #16]
	.loc 1 845 57
	orr	r3, r3, #4
	str	r3, [r2, #16]
	.loc 1 848 5 is_stmt 1
.LBB22:
.LBB23:
	.file 2 "d:\\rtos\\board\\yd-stm32h7xxvx_classicv19\\cmake-build-debug\\_deps\\stm32h7xx_cmsis_include\\drivers\\cmsis\\include\\cmsis_gcc.h"
	.loc 2 946 3
	.syntax unified
@ 946 "d:\rtos\board\yd-stm32h7xxvx_classicv19\cmake-build-debug\_deps\stm32h7xx_cmsis_include\drivers\cmsis\include\cmsis_gcc.h" 1
	dsb 0xF
@ 0 "" 2
	.thumb
	.syntax unified
.LBE23:
.LBE22:
	.loc 1 849 5
.LBB24:
.LBB25:
	.loc 2 935 3
	.syntax unified
@ 935 "d:\rtos\board\yd-stm32h7xxvx_classicv19\cmake-build-debug\_deps\stm32h7xx_cmsis_include\drivers\cmsis\include\cmsis_gcc.h" 1
	isb 0xF
@ 0 "" 2
	.thumb
	.syntax unified
.LBE25:
.LBE24:
	.loc 1 852 5
	.loc 1 852 8 is_stmt 0
	cmp	r1, #1
	beq	.L56
	.loc 1 860 7 is_stmt 1
	.syntax unified
@ 860 "D:/RTOS/Board/YD-STM32H7xxVx_ClassicV19/cmake-build-debug/_deps/stm32h7xx_hal_driver-src/Src/stm32h7xx_hal_pwr_ex.c" 1
	wfe
@ 0 "" 2
	.thumb
	.syntax unified
.L52:
	.loc 1 864 5
	.loc 1 864 50 is_stmt 0
	ldr	r2, .L58+4
	ldr	r3, [r2, #16]
	.loc 1 864 57
	bic	r3, r3, #4
	str	r3, [r2, #16]
.L49:
	.loc 1 929 1
	ldr	r4, [sp], #4
	.cfi_remember_state
	.cfi_restore 4
	.cfi_def_cfa_offset 0
	bx	lr
.L56:
	.cfi_restore_state
	.loc 1 855 7 is_stmt 1
	.syntax unified
@ 855 "D:/RTOS/Board/YD-STM32H7xxVx_ClassicV19/cmake-build-debug/_deps/stm32h7xx_hal_driver-src/Src/stm32h7xx_hal_pwr_ex.c" 1
	wfi
@ 0 "" 2
	.thumb
	.syntax unified
	b	.L52
.LVL32:
.L50:
	.loc 1 867 8
	.loc 1 867 11 is_stmt 0
	cmp	r2, #1
	beq	.L57
	.loc 1 926 5 is_stmt 1
	.loc 1 926 69 is_stmt 0
	ldr	r2, .L58
.LVL33:
	ldr	r3, [r2, #16]
	.loc 1 926 78
	bic	r3, r3, #4
	str	r3, [r2, #16]
	.loc 1 929 1
	b	.L49
.LVL34:
.L57:
	.loc 1 906 5 is_stmt 1
	.loc 1 906 69 is_stmt 0
	ldr	r2, .L58
.LVL35:
	ldr	r3, [r2, #16]
	.loc 1 906 78
	bic	r3, r3, #2
	str	r3, [r2, #16]
	b	.L49
.L59:
	.align	2
.L58:
	.word	1476544512
	.word	-536810240
	.cfi_endproc
.LFE341:
	.size	HAL_PWREx_EnterSTOPMode, .-HAL_PWREx_EnterSTOPMode
	.section	.text.HAL_PWREx_ClearPendingEvent,"ax",%progbits
	.align	1
	.global	HAL_PWREx_ClearPendingEvent
	.syntax unified
	.thumb
	.thumb_func
	.type	HAL_PWREx_ClearPendingEvent, %function
HAL_PWREx_ClearPendingEvent:
.LFB342:
	.loc 1 940 1 is_stmt 1
	.cfi_startproc
	@ args = 0, pretend = 0, frame = 0
	@ frame_needed = 0, uses_anonymous_args = 0
	@ link register save eliminated.
	.loc 1 953 3
	.syntax unified
@ 953 "D:/RTOS/Board/YD-STM32H7xxVx_ClassicV19/cmake-build-debug/_deps/stm32h7xx_hal_driver-src/Src/stm32h7xx_hal_pwr_ex.c" 1
	wfe
@ 0 "" 2
	.loc 1 955 1 is_stmt 0
	.thumb
	.syntax unified
	bx	lr
	.cfi_endproc
.LFE342:
	.size	HAL_PWREx_ClearPendingEvent, .-HAL_PWREx_ClearPendingEvent
	.section	.text.HAL_PWREx_EnterSTANDBYMode,"ax",%progbits
	.align	1
	.global	HAL_PWREx_EnterSTANDBYMode
	.syntax unified
	.thumb
	.thumb_func
	.type	HAL_PWREx_EnterSTANDBYMode, %function
HAL_PWREx_EnterSTANDBYMode:
.LFB343:
	.loc 1 987 1 is_stmt 1
	.cfi_startproc
	@ args = 0, pretend = 0, frame = 0
	@ frame_needed = 0, uses_anonymous_args = 0
	@ link register save eliminated.
.LVL36:
	.loc 1 989 3
	.loc 1 992 3
	.loc 1 992 6 is_stmt 0
	cbnz	r0, .L62
	.loc 1 1007 5 is_stmt 1
	.loc 1 1007 69 is_stmt 0
	ldr	r2, .L66
	ldr	r3, [r2, #16]
	.loc 1 1007 79
	orr	r3, r3, #1
	str	r3, [r2, #16]
	.loc 1 1015 5 is_stmt 1
	.loc 1 1015 50 is_stmt 0
	ldr	r2, .L66+4
	ldr	r3, [r2, #16]
	.loc 1 1015 57
	orr	r3, r3, #4
	str	r3, [r2, #16]
	.loc 1 1023 5 is_stmt 1
	.syntax unified
@ 1023 "D:/RTOS/Board/YD-STM32H7xxVx_ClassicV19/cmake-build-debug/_deps/stm32h7xx_hal_driver-src/Src/stm32h7xx_hal_pwr_ex.c" 1
	wfi
@ 0 "" 2
	.thumb
	.syntax unified
	bx	lr
.L62:
	.loc 1 1026 8
	.loc 1 1026 11 is_stmt 0
	cmp	r0, #1
	beq	.L65
	.loc 1 1061 5 is_stmt 1
	.loc 1 1061 69 is_stmt 0
	ldr	r2, .L66
	ldr	r3, [r2, #16]
	.loc 1 1061 78
	orr	r3, r3, #4
	str	r3, [r2, #16]
	.loc 1 1068 1
	bx	lr
.L65:
	.loc 1 1029 5 is_stmt 1
	.loc 1 1029 69 is_stmt 0
	ldr	r2, .L66
	ldr	r3, [r2, #16]
	.loc 1 1029 79
	orr	r3, r3, #2
	str	r3, [r2, #16]
	bx	lr
.L67:
	.align	2
.L66:
	.word	1476544512
	.word	-536810240
	.cfi_endproc
.LFE343:
	.size	HAL_PWREx_EnterSTANDBYMode, .-HAL_PWREx_EnterSTANDBYMode
	.section	.text.HAL_PWREx_ConfigD3Domain,"ax",%progbits
	.align	1
	.global	HAL_PWREx_ConfigD3Domain
	.syntax unified
	.thumb
	.thumb_func
	.type	HAL_PWREx_ConfigD3Domain, %function
HAL_PWREx_ConfigD3Domain:
.LFB344:
	.loc 1 1082 1 is_stmt 1
	.cfi_startproc
	@ args = 0, pretend = 0, frame = 0
	@ frame_needed = 0, uses_anonymous_args = 0
	@ link register save eliminated.
.LVL37:
	.loc 1 1084 3
	.loc 1 1087 3
	.loc 1 1087 148 is_stmt 0
	ldr	r2, .L69
	ldr	r3, [r2, #16]
	.loc 1 1087 159
	bic	r3, r3, #2048
	.loc 1 1087 184
	orrs	r3, r3, r0
	.loc 1 1087 78
	str	r3, [r2, #16]
	.loc 1 1088 1
	bx	lr
.L70:
	.align	2
.L69:
	.word	1476544512
	.cfi_endproc
.LFE344:
	.size	HAL_PWREx_ConfigD3Domain, .-HAL_PWREx_ConfigD3Domain
	.section	.text.HAL_PWREx_EnableFlashPowerDown,"ax",%progbits
	.align	1
	.global	HAL_PWREx_EnableFlashPowerDown
	.syntax unified
	.thumb
	.thumb_func
	.type	HAL_PWREx_EnableFlashPowerDown, %function
HAL_PWREx_EnableFlashPowerDown:
.LFB345:
	.loc 1 1213 1 is_stmt 1
	.cfi_startproc
	@ args = 0, pretend = 0, frame = 0
	@ frame_needed = 0, uses_anonymous_args = 0
	@ link register save eliminated.
	.loc 1 1215 3
	.loc 1 1215 67 is_stmt 0
	ldr	r2, .L72
	ldr	r3, [r2]
	.loc 1 1215 74
	orr	r3, r3, #512
	str	r3, [r2]
	.loc 1 1216 1
	bx	lr
.L73:
	.align	2
.L72:
	.word	1476544512
	.cfi_endproc
.LFE345:
	.size	HAL_PWREx_EnableFlashPowerDown, .-HAL_PWREx_EnableFlashPowerDown
	.section	.text.HAL_PWREx_DisableFlashPowerDown,"ax",%progbits
	.align	1
	.global	HAL_PWREx_DisableFlashPowerDown
	.syntax unified
	.thumb
	.thumb_func
	.type	HAL_PWREx_DisableFlashPowerDown, %function
HAL_PWREx_DisableFlashPowerDown:
.LFB346:
	.loc 1 1227 1 is_stmt 1
	.cfi_startproc
	@ args = 0, pretend = 0, frame = 0
	@ frame_needed = 0, uses_anonymous_args = 0
	@ link register save eliminated.
	.loc 1 1229 3
	.loc 1 1229 67 is_stmt 0
	ldr	r2, .L75
	ldr	r3, [r2]
	.loc 1 1229 74
	bic	r3, r3, #512
	str	r3, [r2]
	.loc 1 1230 1
	bx	lr
.L76:
	.align	2
.L75:
	.word	1476544512
	.cfi_endproc
.LFE346:
	.size	HAL_PWREx_DisableFlashPowerDown, .-HAL_PWREx_DisableFlashPowerDown
	.section	.text.HAL_PWREx_EnableWakeUpPin,"ax",%progbits
	.align	1
	.global	HAL_PWREx_EnableWakeUpPin
	.syntax unified
	.thumb
	.thumb_func
	.type	HAL_PWREx_EnableWakeUpPin, %function
HAL_PWREx_EnableWakeUpPin:
.LFB347:
	.loc 1 1303 1 is_stmt 1
	.cfi_startproc
	@ args = 0, pretend = 0, frame = 0
	@ frame_needed = 0, uses_anonymous_args = 0
	@ link register save eliminated.
.LVL38:
	push	{r4}
	.cfi_def_cfa_offset 4
	.cfi_offset 4, -4
	.loc 1 1304 3
	.loc 1 1305 3
	.loc 1 1306 3
.LVL39:
	.loc 1 1309 3
	.loc 1 1310 3
	.loc 1 1311 3
	.loc 1 1313 3
	.loc 1 1313 25 is_stmt 0
	ldr	r3, [r0]
	.loc 1 1314 26
	ldr	r1, [r0, #4]
.LVL40:
.LBB26:
.LBB27:
	.loc 2 1050 3 is_stmt 1
	.loc 2 1055 4
	.syntax unified
@ 1055 "d:\rtos\board\yd-stm32h7xxvx_classicv19\cmake-build-debug\_deps\stm32h7xx_cmsis_include\drivers\cmsis\include\cmsis_gcc.h" 1
	rbit r2, r3
@ 0 "" 2
.LVL41:
	.loc 2 1068 3
	.thumb
	.syntax unified
.LBE27:
.LBE26:
.LBB28:
.LBB29:
	.loc 2 1089 3
	.loc 2 1089 6 is_stmt 0
	cmp	r2, #0
	beq	.L82
	.loc 2 1093 3 is_stmt 1
	.loc 2 1093 10 is_stmt 0
	clz	r2, r2
.LVL42:
.L78:
.LBE29:
.LBE28:
	.loc 1 1314 84
	adds	r2, r2, #8
	.loc 1 1314 92
	and	r2, r2, #31
	.loc 1 1314 40
	lsl	r2, r1, r2
	.loc 1 1313 37
	orr	r1, r3, r2
	.loc 1 1315 26
	ldr	r4, [r0, #8]
.LVL43:
.LBB31:
.LBB32:
	.loc 2 1050 3 is_stmt 1
	.loc 2 1055 4
	.syntax unified
@ 1055 "d:\rtos\board\yd-stm32h7xxvx_classicv19\cmake-build-debug\_deps\stm32h7xx_cmsis_include\drivers\cmsis\include\cmsis_gcc.h" 1
	rbit r2, r3
@ 0 "" 2
.LVL44:
	.loc 2 1068 3
	.thumb
	.syntax unified
.LBE32:
.LBE31:
.LBB33:
.LBB34:
	.loc 2 1089 3
	.loc 2 1089 6 is_stmt 0
	cbz	r2, .L83
	.loc 2 1093 3 is_stmt 1
	.loc 2 1093 10 is_stmt 0
	clz	r2, r2
.LVL45:
.L79:
.LBE34:
.LBE33:
	.loc 1 1315 89
	adds	r2, r2, #8
	lsls	r2, r2, #1
	.loc 1 1315 98
	and	r2, r2, #30
	.loc 1 1315 36
	lsl	r2, r4, r2
	.loc 1 1313 13
	orrs	r2, r2, r1
.LVL46:
	.loc 1 1317 3 is_stmt 1
.LBB36:
.LBB37:
	.loc 2 1050 3
	.loc 2 1055 4
	.syntax unified
@ 1055 "d:\rtos\board\yd-stm32h7xxvx_classicv19\cmake-build-debug\_deps\stm32h7xx_cmsis_include\drivers\cmsis\include\cmsis_gcc.h" 1
	rbit r1, r3
@ 0 "" 2
.LVL47:
	.loc 2 1068 3
	.thumb
	.syntax unified
.LBE37:
.LBE36:
.LBB38:
.LBB39:
	.loc 2 1089 3
	.loc 2 1089 6 is_stmt 0
	cbz	r1, .L84
	.loc 2 1093 3 is_stmt 1
	.loc 2 1093 10 is_stmt 0
	clz	r1, r1
.LVL48:
.L80:
.LBE39:
.LBE38:
	.loc 1 1318 75
	and	ip, r1, #31
	.loc 1 1318 32
	mov	r1, #256
	lsl	r1, r1, ip
	.loc 1 1317 35
	orrs	r1, r1, r3
.LVL49:
.LBB41:
.LBB42:
	.loc 2 1050 3 is_stmt 1
	.loc 2 1055 4
	.syntax unified
@ 1055 "d:\rtos\board\yd-stm32h7xxvx_classicv19\cmake-build-debug\_deps\stm32h7xx_cmsis_include\drivers\cmsis\include\cmsis_gcc.h" 1
	rbit r3, r3
@ 0 "" 2
.LVL50:
	.loc 2 1068 3
	.thumb
	.syntax unified
.LBE42:
.LBE41:
.LBB43:
.LBB44:
	.loc 2 1089 3
	.loc 2 1089 6 is_stmt 0
	cbz	r3, .L85
	.loc 2 1093 3 is_stmt 1
	.loc 2 1093 10 is_stmt 0
	clz	r3, r3
.LVL51:
.L81:
.LBE44:
.LBE43:
	.loc 1 1319 69
	lsls	r3, r3, #1
	.loc 1 1319 77
	and	r3, r3, #30
	.loc 1 1319 25
	mov	ip, #196608
	lsl	r3, ip, r3
	.loc 1 1317 11
	orrs	r3, r3, r1
.LVL52:
	.loc 1 1323 3 is_stmt 1
	.loc 1 1323 150 is_stmt 0
	ldr	r4, .L87
	ldr	r1, [r4, #40]
	.loc 1 1323 163
	bic	r3, r1, r3
.LVL53:
	.loc 1 1323 179
	orrs	r3, r3, r2
	.loc 1 1323 80
	str	r3, [r4, #40]
	.loc 1 1326 3 is_stmt 1
	.loc 1 1326 149 is_stmt 0
	mov	r2, #1476395008
.LVL54:
	ldr	r3, [r2, #144]
	.loc 1 1326 159
	bic	r3, r3, #528482304
	.loc 1 1326 295
	ldr	r1, [r0]
	.loc 1 1326 281
	orr	r3, r3, r1, lsl #23
	.loc 1 1326 78
	str	r3, [r2, #144]
	.loc 1 1328 1
	ldr	r4, [sp], #4
	.cfi_remember_state
	.cfi_restore 4
	.cfi_def_cfa_offset 0
	bx	lr
.LVL55:
.L82:
	.cfi_restore_state
.LBB46:
.LBB30:
	.loc 2 1091 12
	movs	r2, #32
.LVL56:
	b	.L78
.LVL57:
.L83:
.LBE30:
.LBE46:
.LBB47:
.LBB35:
	movs	r2, #32
.LVL58:
	b	.L79
.LVL59:
.L84:
.LBE35:
.LBE47:
.LBB48:
.LBB40:
	movs	r1, #32
.LVL60:
	b	.L80
.LVL61:
.L85:
.LBE40:
.LBE48:
.LBB49:
.LBB45:
	movs	r3, #32
.LVL62:
	b	.L81
.L88:
	.align	2
.L87:
	.word	1476544512
.LBE45:
.LBE49:
	.cfi_endproc
.LFE347:
	.size	HAL_PWREx_EnableWakeUpPin, .-HAL_PWREx_EnableWakeUpPin
	.section	.text.HAL_PWREx_DisableWakeUpPin,"ax",%progbits
	.align	1
	.global	HAL_PWREx_DisableWakeUpPin
	.syntax unified
	.thumb
	.thumb_func
	.type	HAL_PWREx_DisableWakeUpPin, %function
HAL_PWREx_DisableWakeUpPin:
.LFB348:
	.loc 1 1345 1 is_stmt 1
	.cfi_startproc
	@ args = 0, pretend = 0, frame = 0
	@ frame_needed = 0, uses_anonymous_args = 0
	@ link register save eliminated.
.LVL63:
	.loc 1 1347 3
	.loc 1 1350 3
	.loc 1 1350 67 is_stmt 0
	ldr	r2, .L90
	ldr	r3, [r2, #40]
	.loc 1 1350 78
	bic	r3, r3, r0
	str	r3, [r2, #40]
	.loc 1 1351 1
	bx	lr
.L91:
	.align	2
.L90:
	.word	1476544512
	.cfi_endproc
.LFE348:
	.size	HAL_PWREx_DisableWakeUpPin, .-HAL_PWREx_DisableWakeUpPin
	.section	.text.HAL_PWREx_GetWakeupFlag,"ax",%progbits
	.align	1
	.global	HAL_PWREx_GetWakeupFlag
	.syntax unified
	.thumb
	.thumb_func
	.type	HAL_PWREx_GetWakeupFlag, %function
HAL_PWREx_GetWakeupFlag:
.LFB349:
	.loc 1 1370 1 is_stmt 1
	.cfi_startproc
	@ args = 0, pretend = 0, frame = 0
	@ frame_needed = 0, uses_anonymous_args = 0
	@ link register save eliminated.
.LVL64:
	.loc 1 1372 3
	.loc 1 1375 3
	.loc 1 1375 73 is_stmt 0
	ldr	r3, .L93
	ldr	r3, [r3, #36]
	.loc 1 1376 1
	ands	r0, r0, r3
.LVL65:
	bx	lr
.L94:
	.align	2
.L93:
	.word	1476544512
	.cfi_endproc
.LFE349:
	.size	HAL_PWREx_GetWakeupFlag, .-HAL_PWREx_GetWakeupFlag
	.section	.text.HAL_PWREx_ClearWakeupFlag,"ax",%progbits
	.align	1
	.global	HAL_PWREx_ClearWakeupFlag
	.syntax unified
	.thumb
	.thumb_func
	.type	HAL_PWREx_ClearWakeupFlag, %function
HAL_PWREx_ClearWakeupFlag:
.LFB350:
	.loc 1 1395 1 is_stmt 1
	.cfi_startproc
	@ args = 0, pretend = 0, frame = 0
	@ frame_needed = 0, uses_anonymous_args = 0
	@ link register save eliminated.
.LVL66:
	.loc 1 1397 3
	.loc 1 1400 3
	.loc 1 1400 67 is_stmt 0
	ldr	r3, .L98
	ldr	r2, [r3, #32]
	.loc 1 1400 77
	orrs	r2, r2, r0
	str	r2, [r3, #32]
	.loc 1 1403 3 is_stmt 1
	.loc 1 1403 70 is_stmt 0
	ldr	r3, [r3, #36]
	.loc 1 1403 6
	tst	r3, r0
	bne	.L97
	.loc 1 1408 10
	movs	r0, #0
.LVL67:
	bx	lr
.LVL68:
.L97:
	.loc 1 1405 12
	movs	r0, #1
.LVL69:
	.loc 1 1409 1
	bx	lr
.L99:
	.align	2
.L98:
	.word	1476544512
	.cfi_endproc
.LFE350:
	.size	HAL_PWREx_ClearWakeupFlag, .-HAL_PWREx_ClearWakeupFlag
	.section	.text.HAL_PWREx_WKUP1_Callback,"ax",%progbits
	.align	1
	.weak	HAL_PWREx_WKUP1_Callback
	.syntax unified
	.thumb
	.thumb_func
	.type	HAL_PWREx_WKUP1_Callback, %function
HAL_PWREx_WKUP1_Callback:
.LFB352:
	.loc 1 1478 1 is_stmt 1
	.cfi_startproc
	@ args = 0, pretend = 0, frame = 0
	@ frame_needed = 0, uses_anonymous_args = 0
	@ link register save eliminated.
	.loc 1 1482 1
	bx	lr
	.cfi_endproc
.LFE352:
	.size	HAL_PWREx_WKUP1_Callback, .-HAL_PWREx_WKUP1_Callback
	.section	.text.HAL_PWREx_WKUP2_Callback,"ax",%progbits
	.align	1
	.weak	HAL_PWREx_WKUP2_Callback
	.syntax unified
	.thumb
	.thumb_func
	.type	HAL_PWREx_WKUP2_Callback, %function
HAL_PWREx_WKUP2_Callback:
.LFB353:
	.loc 1 1489 1
	.cfi_startproc
	@ args = 0, pretend = 0, frame = 0
	@ frame_needed = 0, uses_anonymous_args = 0
	@ link register save eliminated.
	.loc 1 1493 1
	bx	lr
	.cfi_endproc
.LFE353:
	.size	HAL_PWREx_WKUP2_Callback, .-HAL_PWREx_WKUP2_Callback
	.section	.text.HAL_PWREx_WKUP3_Callback,"ax",%progbits
	.align	1
	.weak	HAL_PWREx_WKUP3_Callback
	.syntax unified
	.thumb
	.thumb_func
	.type	HAL_PWREx_WKUP3_Callback, %function
HAL_PWREx_WKUP3_Callback:
.LFB354:
	.loc 1 1501 1
	.cfi_startproc
	@ args = 0, pretend = 0, frame = 0
	@ frame_needed = 0, uses_anonymous_args = 0
	@ link register save eliminated.
	.loc 1 1505 1
	bx	lr
	.cfi_endproc
.LFE354:
	.size	HAL_PWREx_WKUP3_Callback, .-HAL_PWREx_WKUP3_Callback
	.section	.text.HAL_PWREx_WKUP4_Callback,"ax",%progbits
	.align	1
	.weak	HAL_PWREx_WKUP4_Callback
	.syntax unified
	.thumb
	.thumb_func
	.type	HAL_PWREx_WKUP4_Callback, %function
HAL_PWREx_WKUP4_Callback:
.LFB355:
	.loc 1 1513 1
	.cfi_startproc
	@ args = 0, pretend = 0, frame = 0
	@ frame_needed = 0, uses_anonymous_args = 0
	@ link register save eliminated.
	.loc 1 1517 1
	bx	lr
	.cfi_endproc
.LFE355:
	.size	HAL_PWREx_WKUP4_Callback, .-HAL_PWREx_WKUP4_Callback
	.section	.text.HAL_PWREx_WKUP5_Callback,"ax",%progbits
	.align	1
	.weak	HAL_PWREx_WKUP5_Callback
	.syntax unified
	.thumb
	.thumb_func
	.type	HAL_PWREx_WKUP5_Callback, %function
HAL_PWREx_WKUP5_Callback:
.LFB356:
	.loc 1 1525 1
	.cfi_startproc
	@ args = 0, pretend = 0, frame = 0
	@ frame_needed = 0, uses_anonymous_args = 0
	@ link register save eliminated.
	.loc 1 1529 1
	bx	lr
	.cfi_endproc
.LFE356:
	.size	HAL_PWREx_WKUP5_Callback, .-HAL_PWREx_WKUP5_Callback
	.section	.text.HAL_PWREx_WKUP6_Callback,"ax",%progbits
	.align	1
	.weak	HAL_PWREx_WKUP6_Callback
	.syntax unified
	.thumb
	.thumb_func
	.type	HAL_PWREx_WKUP6_Callback, %function
HAL_PWREx_WKUP6_Callback:
.LFB357:
	.loc 1 1537 1
	.cfi_startproc
	@ args = 0, pretend = 0, frame = 0
	@ frame_needed = 0, uses_anonymous_args = 0
	@ link register save eliminated.
	.loc 1 1541 1
	bx	lr
	.cfi_endproc
.LFE357:
	.size	HAL_PWREx_WKUP6_Callback, .-HAL_PWREx_WKUP6_Callback
	.section	.text.HAL_PWREx_WAKEUP_PIN_IRQHandler,"ax",%progbits
	.align	1
	.global	HAL_PWREx_WAKEUP_PIN_IRQHandler
	.syntax unified
	.thumb
	.thumb_func
	.type	HAL_PWREx_WAKEUP_PIN_IRQHandler, %function
HAL_PWREx_WAKEUP_PIN_IRQHandler:
.LFB351:
	.loc 1 1417 1
	.cfi_startproc
	@ args = 0, pretend = 0, frame = 0
	@ frame_needed = 0, uses_anonymous_args = 0
	push	{r3, lr}
	.cfi_def_cfa_offset 8
	.cfi_offset 3, -8
	.cfi_offset 14, -4
	.loc 1 1419 3
	.loc 1 1419 71 is_stmt 0
	ldr	r3, .L118
	ldr	r3, [r3, #36]
	.loc 1 1419 6
	tst	r3, #1
	bne	.L114
	.loc 1 1427 8 is_stmt 1
	.loc 1 1427 76 is_stmt 0
	ldr	r3, .L118
	ldr	r3, [r3, #36]
	.loc 1 1427 11
	tst	r3, #2
	bne	.L115
	.loc 1 1436 8 is_stmt 1
	.loc 1 1436 76 is_stmt 0
	ldr	r3, .L118
	ldr	r3, [r3, #36]
	.loc 1 1436 11
	tst	r3, #4
	bne	.L116
	.loc 1 1445 8 is_stmt 1
	.loc 1 1445 76 is_stmt 0
	ldr	r3, .L118
	ldr	r3, [r3, #36]
	.loc 1 1445 11
	tst	r3, #8
	bne	.L117
	.loc 1 1454 8 is_stmt 1
	.loc 1 1454 76 is_stmt 0
	ldr	r3, .L118
	ldr	r3, [r3, #36]
	.loc 1 1454 11
	tst	r3, #16
	beq	.L112
	.loc 1 1457 5 is_stmt 1
	.loc 1 1457 69 is_stmt 0
	ldr	r2, .L118
	ldr	r3, [r2, #32]
	.loc 1 1457 79
	orr	r3, r3, #16
	str	r3, [r2, #32]
	.loc 1 1460 5 is_stmt 1
	bl	HAL_PWREx_WKUP5_Callback
.LVL70:
	b	.L106
.L114:
	.loc 1 1422 5
	.loc 1 1422 69 is_stmt 0
	ldr	r2, .L118
	ldr	r3, [r2, #32]
	.loc 1 1422 79
	orr	r3, r3, #1
	str	r3, [r2, #32]
	.loc 1 1425 5 is_stmt 1
	bl	HAL_PWREx_WKUP1_Callback
.LVL71:
.L106:
	.loc 1 1471 1 is_stmt 0
	pop	{r3, pc}
.L115:
	.loc 1 1430 5 is_stmt 1
	.loc 1 1430 69 is_stmt 0
	ldr	r2, .L118
	ldr	r3, [r2, #32]
	.loc 1 1430 79
	orr	r3, r3, #2
	str	r3, [r2, #32]
	.loc 1 1433 5 is_stmt 1
	bl	HAL_PWREx_WKUP2_Callback
.LVL72:
	b	.L106
.L116:
	.loc 1 1439 5
	.loc 1 1439 69 is_stmt 0
	ldr	r2, .L118
	ldr	r3, [r2, #32]
	.loc 1 1439 79
	orr	r3, r3, #4
	str	r3, [r2, #32]
	.loc 1 1442 5 is_stmt 1
	bl	HAL_PWREx_WKUP3_Callback
.LVL73:
	b	.L106
.L117:
	.loc 1 1448 5
	.loc 1 1448 69 is_stmt 0
	ldr	r2, .L118
	ldr	r3, [r2, #32]
	.loc 1 1448 79
	orr	r3, r3, #8
	str	r3, [r2, #32]
	.loc 1 1451 5 is_stmt 1
	bl	HAL_PWREx_WKUP4_Callback
.LVL74:
	b	.L106
.L112:
	.loc 1 1466 5
	.loc 1 1466 69 is_stmt 0
	ldr	r2, .L118
	ldr	r3, [r2, #32]
	.loc 1 1466 79
	orr	r3, r3, #32
	str	r3, [r2, #32]
	.loc 1 1469 5 is_stmt 1
	bl	HAL_PWREx_WKUP6_Callback
.LVL75:
	.loc 1 1471 1 is_stmt 0
	b	.L106
.L119:
	.align	2
.L118:
	.word	1476544512
	.cfi_endproc
.LFE351:
	.size	HAL_PWREx_WAKEUP_PIN_IRQHandler, .-HAL_PWREx_WAKEUP_PIN_IRQHandler
	.section	.text.HAL_PWREx_EnableBkUpReg,"ax",%progbits
	.align	1
	.global	HAL_PWREx_EnableBkUpReg
	.syntax unified
	.thumb
	.thumb_func
	.type	HAL_PWREx_EnableBkUpReg, %function
HAL_PWREx_EnableBkUpReg:
.LFB358:
	.loc 1 1626 1 is_stmt 1
	.cfi_startproc
	@ args = 0, pretend = 0, frame = 0
	@ frame_needed = 0, uses_anonymous_args = 0
	push	{r4, lr}
	.cfi_def_cfa_offset 8
	.cfi_offset 4, -8
	.cfi_offset 14, -4
	.loc 1 1627 3
	.loc 1 1630 3
	.loc 1 1630 67 is_stmt 0
	ldr	r2, .L127
	ldr	r3, [r2, #8]
	.loc 1 1630 74
	orr	r3, r3, #1
	str	r3, [r2, #8]
	.loc 1 1633 3 is_stmt 1
	.loc 1 1633 15 is_stmt 0
	bl	HAL_GetTick
.LVL76:
	mov	r4, r0
.LVL77:
	.loc 1 1636 3 is_stmt 1
.L121:
	.loc 1 1636 2055
	.loc 1 1636 790 is_stmt 0
	ldr	r3, .L127
	ldr	r3, [r3, #8]
	.loc 1 1636 2055
	tst	r3, #65536
	bne	.L126
	.loc 1 1638 5 is_stmt 1
	.loc 1 1638 10 is_stmt 0
	bl	HAL_GetTick
.LVL78:
	.loc 1 1638 24
	subs	r0, r0, r4
	.loc 1 1638 8
	cmp	r0, #1000
	bls	.L121
	.loc 1 1640 14
	movs	r0, #1
	b	.L122
.L126:
	.loc 1 1644 10
	movs	r0, #0
.L122:
	.loc 1 1645 1
	pop	{r4, pc}
.LVL79:
.L128:
	.align	2
.L127:
	.word	1476544512
	.cfi_endproc
.LFE358:
	.size	HAL_PWREx_EnableBkUpReg, .-HAL_PWREx_EnableBkUpReg
	.section	.text.HAL_PWREx_DisableBkUpReg,"ax",%progbits
	.align	1
	.global	HAL_PWREx_DisableBkUpReg
	.syntax unified
	.thumb
	.thumb_func
	.type	HAL_PWREx_DisableBkUpReg, %function
HAL_PWREx_DisableBkUpReg:
.LFB359:
	.loc 1 1652 1 is_stmt 1
	.cfi_startproc
	@ args = 0, pretend = 0, frame = 0
	@ frame_needed = 0, uses_anonymous_args = 0
	push	{r4, lr}
	.cfi_def_cfa_offset 8
	.cfi_offset 4, -8
	.cfi_offset 14, -4
	.loc 1 1653 3
	.loc 1 1656 3
	.loc 1 1656 67 is_stmt 0
	ldr	r2, .L136
	ldr	r3, [r2, #8]
	.loc 1 1656 74
	bic	r3, r3, #1
	str	r3, [r2, #8]
	.loc 1 1659 3 is_stmt 1
	.loc 1 1659 15 is_stmt 0
	bl	HAL_GetTick
.LVL80:
	mov	r4, r0
.LVL81:
	.loc 1 1662 3 is_stmt 1
.L130:
	.loc 1 1662 2055
	.loc 1 1662 790 is_stmt 0
	ldr	r3, .L136
	ldr	r3, [r3, #8]
	.loc 1 1662 2055
	tst	r3, #65536
	beq	.L135
	.loc 1 1664 5 is_stmt 1
	.loc 1 1664 10 is_stmt 0
	bl	HAL_GetTick
.LVL82:
	.loc 1 1664 24
	subs	r0, r0, r4
	.loc 1 1664 8
	cmp	r0, #1000
	bls	.L130
	.loc 1 1666 14
	movs	r0, #1
	b	.L131
.L135:
	.loc 1 1670 10
	movs	r0, #0
.L131:
	.loc 1 1671 1
	pop	{r4, pc}
.LVL83:
.L137:
	.align	2
.L136:
	.word	1476544512
	.cfi_endproc
.LFE359:
	.size	HAL_PWREx_DisableBkUpReg, .-HAL_PWREx_DisableBkUpReg
	.section	.text.HAL_PWREx_EnableUSBReg,"ax",%progbits
	.align	1
	.global	HAL_PWREx_EnableUSBReg
	.syntax unified
	.thumb
	.thumb_func
	.type	HAL_PWREx_EnableUSBReg, %function
HAL_PWREx_EnableUSBReg:
.LFB360:
	.loc 1 1678 1 is_stmt 1
	.cfi_startproc
	@ args = 0, pretend = 0, frame = 0
	@ frame_needed = 0, uses_anonymous_args = 0
	push	{r4, lr}
	.cfi_def_cfa_offset 8
	.cfi_offset 4, -8
	.cfi_offset 14, -4
	.loc 1 1679 3
	.loc 1 1682 3
	.loc 1 1682 67 is_stmt 0
	ldr	r2, .L145
	ldr	r3, [r2, #12]
	.loc 1 1682 74
	orr	r3, r3, #33554432
	str	r3, [r2, #12]
	.loc 1 1685 3 is_stmt 1
	.loc 1 1685 15 is_stmt 0
	bl	HAL_GetTick
.LVL84:
	mov	r4, r0
.LVL85:
	.loc 1 1688 3 is_stmt 1
.L139:
	.loc 1 1688 2055
	.loc 1 1688 1480 is_stmt 0
	ldr	r3, .L145
	ldr	r3, [r3, #12]
	.loc 1 1688 2055
	tst	r3, #67108864
	bne	.L144
	.loc 1 1690 5 is_stmt 1
	.loc 1 1690 10 is_stmt 0
	bl	HAL_GetTick
.LVL86:
	.loc 1 1690 24
	subs	r0, r0, r4
	.loc 1 1690 8
	cmp	r0, #1000
	bls	.L139
	.loc 1 1692 14
	movs	r0, #1
	b	.L140
.L144:
	.loc 1 1696 10
	movs	r0, #0
.L140:
	.loc 1 1697 1
	pop	{r4, pc}
.LVL87:
.L146:
	.align	2
.L145:
	.word	1476544512
	.cfi_endproc
.LFE360:
	.size	HAL_PWREx_EnableUSBReg, .-HAL_PWREx_EnableUSBReg
	.section	.text.HAL_PWREx_DisableUSBReg,"ax",%progbits
	.align	1
	.global	HAL_PWREx_DisableUSBReg
	.syntax unified
	.thumb
	.thumb_func
	.type	HAL_PWREx_DisableUSBReg, %function
HAL_PWREx_DisableUSBReg:
.LFB361:
	.loc 1 1704 1 is_stmt 1
	.cfi_startproc
	@ args = 0, pretend = 0, frame = 0
	@ frame_needed = 0, uses_anonymous_args = 0
	push	{r4, lr}
	.cfi_def_cfa_offset 8
	.cfi_offset 4, -8
	.cfi_offset 14, -4
	.loc 1 1705 3
	.loc 1 1708 3
	.loc 1 1708 67 is_stmt 0
	ldr	r2, .L154
	ldr	r3, [r2, #12]
	.loc 1 1708 74
	bic	r3, r3, #33554432
	str	r3, [r2, #12]
	.loc 1 1711 3 is_stmt 1
	.loc 1 1711 15 is_stmt 0
	bl	HAL_GetTick
.LVL88:
	mov	r4, r0
.LVL89:
	.loc 1 1714 3 is_stmt 1
.L148:
	.loc 1 1714 2054
	.loc 1 1714 1479 is_stmt 0
	ldr	r3, .L154
	ldr	r3, [r3, #12]
	.loc 1 1714 2054
	tst	r3, #67108864
	beq	.L153
	.loc 1 1716 5 is_stmt 1
	.loc 1 1716 10 is_stmt 0
	bl	HAL_GetTick
.LVL90:
	.loc 1 1716 24
	subs	r0, r0, r4
	.loc 1 1716 8
	cmp	r0, #1000
	bls	.L148
	.loc 1 1718 14
	movs	r0, #1
	b	.L149
.L153:
	.loc 1 1722 10
	movs	r0, #0
.L149:
	.loc 1 1723 1
	pop	{r4, pc}
.LVL91:
.L155:
	.align	2
.L154:
	.word	1476544512
	.cfi_endproc
.LFE361:
	.size	HAL_PWREx_DisableUSBReg, .-HAL_PWREx_DisableUSBReg
	.section	.text.HAL_PWREx_EnableUSBVoltageDetector,"ax",%progbits
	.align	1
	.global	HAL_PWREx_EnableUSBVoltageDetector
	.syntax unified
	.thumb
	.thumb_func
	.type	HAL_PWREx_EnableUSBVoltageDetector, %function
HAL_PWREx_EnableUSBVoltageDetector:
.LFB362:
	.loc 1 1730 1 is_stmt 1
	.cfi_startproc
	@ args = 0, pretend = 0, frame = 0
	@ frame_needed = 0, uses_anonymous_args = 0
	@ link register save eliminated.
	.loc 1 1732 3
	.loc 1 1732 67 is_stmt 0
	ldr	r2, .L157
	ldr	r3, [r2, #12]
	.loc 1 1732 74
	orr	r3, r3, #16777216
	str	r3, [r2, #12]
	.loc 1 1733 1
	bx	lr
.L158:
	.align	2
.L157:
	.word	1476544512
	.cfi_endproc
.LFE362:
	.size	HAL_PWREx_EnableUSBVoltageDetector, .-HAL_PWREx_EnableUSBVoltageDetector
	.section	.text.HAL_PWREx_DisableUSBVoltageDetector,"ax",%progbits
	.align	1
	.global	HAL_PWREx_DisableUSBVoltageDetector
	.syntax unified
	.thumb
	.thumb_func
	.type	HAL_PWREx_DisableUSBVoltageDetector, %function
HAL_PWREx_DisableUSBVoltageDetector:
.LFB363:
	.loc 1 1740 1 is_stmt 1
	.cfi_startproc
	@ args = 0, pretend = 0, frame = 0
	@ frame_needed = 0, uses_anonymous_args = 0
	@ link register save eliminated.
	.loc 1 1742 3
	.loc 1 1742 67 is_stmt 0
	ldr	r2, .L160
	ldr	r3, [r2, #12]
	.loc 1 1742 74
	bic	r3, r3, #16777216
	str	r3, [r2, #12]
	.loc 1 1743 1
	bx	lr
.L161:
	.align	2
.L160:
	.word	1476544512
	.cfi_endproc
.LFE363:
	.size	HAL_PWREx_DisableUSBVoltageDetector, .-HAL_PWREx_DisableUSBVoltageDetector
	.section	.text.HAL_PWREx_EnableBatteryCharging,"ax",%progbits
	.align	1
	.global	HAL_PWREx_EnableBatteryCharging
	.syntax unified
	.thumb
	.thumb_func
	.type	HAL_PWREx_EnableBatteryCharging, %function
HAL_PWREx_EnableBatteryCharging:
.LFB364:
	.loc 1 1756 1 is_stmt 1
	.cfi_startproc
	@ args = 0, pretend = 0, frame = 0
	@ frame_needed = 0, uses_anonymous_args = 0
	@ link register save eliminated.
.LVL92:
	.loc 1 1758 3
	.loc 1 1761 3
	.loc 1 1761 146 is_stmt 0
	ldr	r2, .L163
	ldr	r3, [r2, #12]
	.loc 1 1761 155
	bic	r3, r3, #512
	.loc 1 1761 179
	orrs	r3, r3, r0
	.loc 1 1761 76
	str	r3, [r2, #12]
	.loc 1 1764 3 is_stmt 1
	.loc 1 1764 67 is_stmt 0
	ldr	r3, [r2, #12]
	.loc 1 1764 74
	orr	r3, r3, #256
	str	r3, [r2, #12]
	.loc 1 1765 1
	bx	lr
.L164:
	.align	2
.L163:
	.word	1476544512
	.cfi_endproc
.LFE364:
	.size	HAL_PWREx_EnableBatteryCharging, .-HAL_PWREx_EnableBatteryCharging
	.section	.text.HAL_PWREx_DisableBatteryCharging,"ax",%progbits
	.align	1
	.global	HAL_PWREx_DisableBatteryCharging
	.syntax unified
	.thumb
	.thumb_func
	.type	HAL_PWREx_DisableBatteryCharging, %function
HAL_PWREx_DisableBatteryCharging:
.LFB365:
	.loc 1 1772 1 is_stmt 1
	.cfi_startproc
	@ args = 0, pretend = 0, frame = 0
	@ frame_needed = 0, uses_anonymous_args = 0
	@ link register save eliminated.
	.loc 1 1774 3
	.loc 1 1774 67 is_stmt 0
	ldr	r2, .L166
	ldr	r3, [r2, #12]
	.loc 1 1774 74
	bic	r3, r3, #256
	str	r3, [r2, #12]
	.loc 1 1775 1
	bx	lr
.L167:
	.align	2
.L166:
	.word	1476544512
	.cfi_endproc
.LFE365:
	.size	HAL_PWREx_DisableBatteryCharging, .-HAL_PWREx_DisableBatteryCharging
	.section	.text.HAL_PWREx_EnableMonitoring,"ax",%progbits
	.align	1
	.global	HAL_PWREx_EnableMonitoring
	.syntax unified
	.thumb
	.thumb_func
	.type	HAL_PWREx_EnableMonitoring, %function
HAL_PWREx_EnableMonitoring:
.LFB366:
	.loc 1 1862 1 is_stmt 1
	.cfi_startproc
	@ args = 0, pretend = 0, frame = 0
	@ frame_needed = 0, uses_anonymous_args = 0
	@ link register save eliminated.
	.loc 1 1864 3
	.loc 1 1864 67 is_stmt 0
	ldr	r2, .L169
	ldr	r3, [r2, #8]
	.loc 1 1864 74
	orr	r3, r3, #16
	str	r3, [r2, #8]
	.loc 1 1865 1
	bx	lr
.L170:
	.align	2
.L169:
	.word	1476544512
	.cfi_endproc
.LFE366:
	.size	HAL_PWREx_EnableMonitoring, .-HAL_PWREx_EnableMonitoring
	.section	.text.HAL_PWREx_DisableMonitoring,"ax",%progbits
	.align	1
	.global	HAL_PWREx_DisableMonitoring
	.syntax unified
	.thumb
	.thumb_func
	.type	HAL_PWREx_DisableMonitoring, %function
HAL_PWREx_DisableMonitoring:
.LFB367:
	.loc 1 1872 1 is_stmt 1
	.cfi_startproc
	@ args = 0, pretend = 0, frame = 0
	@ frame_needed = 0, uses_anonymous_args = 0
	@ link register save eliminated.
	.loc 1 1874 3
	.loc 1 1874 67 is_stmt 0
	ldr	r2, .L172
	ldr	r3, [r2, #8]
	.loc 1 1874 74
	bic	r3, r3, #16
	str	r3, [r2, #8]
	.loc 1 1875 1
	bx	lr
.L173:
	.align	2
.L172:
	.word	1476544512
	.cfi_endproc
.LFE367:
	.size	HAL_PWREx_DisableMonitoring, .-HAL_PWREx_DisableMonitoring
	.section	.text.HAL_PWREx_GetTemperatureLevel,"ax",%progbits
	.align	1
	.global	HAL_PWREx_GetTemperatureLevel
	.syntax unified
	.thumb
	.thumb_func
	.type	HAL_PWREx_GetTemperatureLevel, %function
HAL_PWREx_GetTemperatureLevel:
.LFB368:
	.loc 1 1883 1 is_stmt 1
	.cfi_startproc
	@ args = 0, pretend = 0, frame = 0
	@ frame_needed = 0, uses_anonymous_args = 0
	@ link register save eliminated.
	.loc 1 1884 3
	.loc 1 1887 3
	.loc 1 1887 78 is_stmt 0
	ldr	r3, .L177
	ldr	r0, [r3, #8]
	.loc 1 1887 12
	and	r0, r0, #12582912
.LVL93:
	.loc 1 1890 3 is_stmt 1
	.loc 1 1890 6 is_stmt 0
	cmp	r0, #4194304
	beq	.L174
	.loc 1 1895 8 is_stmt 1
	.loc 1 1895 11 is_stmt 0
	cmp	r0, #8388608
	beq	.L174
	.loc 1 1902 15
	movs	r0, #0
.LVL94:
	.loc 1 1905 3 is_stmt 1
.L174:
	.loc 1 1906 1 is_stmt 0
	bx	lr
.L178:
	.align	2
.L177:
	.word	1476544512
	.cfi_endproc
.LFE368:
	.size	HAL_PWREx_GetTemperatureLevel, .-HAL_PWREx_GetTemperatureLevel
	.section	.text.HAL_PWREx_GetVBATLevel,"ax",%progbits
	.align	1
	.global	HAL_PWREx_GetVBATLevel
	.syntax unified
	.thumb
	.thumb_func
	.type	HAL_PWREx_GetVBATLevel, %function
HAL_PWREx_GetVBATLevel:
.LFB369:
	.loc 1 1914 1 is_stmt 1
	.cfi_startproc
	@ args = 0, pretend = 0, frame = 0
	@ frame_needed = 0, uses_anonymous_args = 0
	@ link register save eliminated.
	.loc 1 1915 3
	.loc 1 1918 3
	.loc 1 1918 78 is_stmt 0
	ldr	r3, .L182
	ldr	r0, [r3, #8]
	.loc 1 1918 12
	and	r0, r0, #3145728
.LVL95:
	.loc 1 1921 3 is_stmt 1
	.loc 1 1921 6 is_stmt 0
	cmp	r0, #1048576
	beq	.L179
	.loc 1 1926 8 is_stmt 1
	.loc 1 1926 11 is_stmt 0
	cmp	r0, #2097152
	beq	.L179
	.loc 1 1933 15
	movs	r0, #0
.LVL96:
	.loc 1 1936 3 is_stmt 1
.L179:
	.loc 1 1937 1 is_stmt 0
	bx	lr
.L183:
	.align	2
.L182:
	.word	1476544512
	.cfi_endproc
.LFE369:
	.size	HAL_PWREx_GetVBATLevel, .-HAL_PWREx_GetVBATLevel
	.section	.text.HAL_PWREx_ConfigAVD,"ax",%progbits
	.align	1
	.global	HAL_PWREx_ConfigAVD
	.syntax unified
	.thumb
	.thumb_func
	.type	HAL_PWREx_ConfigAVD, %function
HAL_PWREx_ConfigAVD:
.LFB370:
	.loc 1 1977 1 is_stmt 1
	.cfi_startproc
	@ args = 0, pretend = 0, frame = 0
	@ frame_needed = 0, uses_anonymous_args = 0
	@ link register save eliminated.
.LVL97:
	.loc 1 1979 3
	.loc 1 1980 3
	.loc 1 1983 3
	.loc 1 1983 146 is_stmt 0
	ldr	r2, .L189
	ldr	r3, [r2]
	.loc 1 1983 155
	bic	r3, r3, #393216
	.loc 1 1983 193
	ldr	r1, [r0]
	.loc 1 1983 180
	orrs	r3, r3, r1
	.loc 1 1983 76
	str	r3, [r2]
	.loc 1 1987 3 is_stmt 1
	.loc 1 1987 68 is_stmt 0
	mov	r3, #1476395008
	ldr	r2, [r3, #132]
	.loc 1 1987 76
	bic	r2, r2, #65536
	str	r2, [r3, #132]
	.loc 1 1988 3 is_stmt 1
	.loc 1 1988 68 is_stmt 0
	ldr	r2, [r3, #128]
	.loc 1 1988 76
	bic	r2, r2, #65536
	str	r2, [r3, #128]
	.loc 1 1991 3 is_stmt 1
	.loc 1 1991 68 is_stmt 0
	ldr	r2, [r3]
	.loc 1 1991 77
	bic	r2, r2, #65536
	str	r2, [r3]
	.loc 1 1992 3 is_stmt 1
	.loc 1 1992 68 is_stmt 0
	ldr	r2, [r3, #4]
	.loc 1 1992 77
	bic	r2, r2, #65536
	str	r2, [r3, #4]
	.loc 1 1996 3 is_stmt 1
	.loc 1 1996 18 is_stmt 0
	ldr	r3, [r0, #4]
	.loc 1 1996 6
	tst	r3, #65536
	beq	.L185
	.loc 1 1998 5 is_stmt 1
	.loc 1 1998 70 is_stmt 0
	mov	r2, #1476395008
	ldr	r3, [r2, #128]
	.loc 1 1998 78
	orr	r3, r3, #65536
	str	r3, [r2, #128]
.L185:
	.loc 1 2002 3 is_stmt 1
	.loc 1 2002 18 is_stmt 0
	ldr	r3, [r0, #4]
	.loc 1 2002 6
	tst	r3, #131072
	beq	.L186
	.loc 1 2004 5 is_stmt 1
	.loc 1 2004 70 is_stmt 0
	mov	r2, #1476395008
	ldr	r3, [r2, #132]
	.loc 1 2004 78
	orr	r3, r3, #65536
	str	r3, [r2, #132]
.L186:
	.loc 1 2009 3 is_stmt 1
	.loc 1 2009 18 is_stmt 0
	ldr	r3, [r0, #4]
	.loc 1 2009 6
	tst	r3, #1
	beq	.L187
	.loc 1 2011 5 is_stmt 1
	.loc 1 2011 70 is_stmt 0
	mov	r2, #1476395008
	ldr	r3, [r2]
	.loc 1 2011 79
	orr	r3, r3, #65536
	str	r3, [r2]
.L187:
	.loc 1 2015 3 is_stmt 1
	.loc 1 2015 18 is_stmt 0
	ldr	r3, [r0, #4]
	.loc 1 2015 6
	tst	r3, #2
	beq	.L184
	.loc 1 2017 5 is_stmt 1
	.loc 1 2017 70 is_stmt 0
	mov	r2, #1476395008
	ldr	r3, [r2, #4]
	.loc 1 2017 79
	orr	r3, r3, #65536
	str	r3, [r2, #4]
.L184:
	.loc 1 2019 1
	bx	lr
.L190:
	.align	2
.L189:
	.word	1476544512
	.cfi_endproc
.LFE370:
	.size	HAL_PWREx_ConfigAVD, .-HAL_PWREx_ConfigAVD
	.section	.text.HAL_PWREx_EnableAVD,"ax",%progbits
	.align	1
	.global	HAL_PWREx_EnableAVD
	.syntax unified
	.thumb
	.thumb_func
	.type	HAL_PWREx_EnableAVD, %function
HAL_PWREx_EnableAVD:
.LFB371:
	.loc 1 2026 1 is_stmt 1
	.cfi_startproc
	@ args = 0, pretend = 0, frame = 0
	@ frame_needed = 0, uses_anonymous_args = 0
	@ link register save eliminated.
	.loc 1 2028 3
	.loc 1 2028 67 is_stmt 0
	ldr	r2, .L192
	ldr	r3, [r2]
	.loc 1 2028 74
	orr	r3, r3, #65536
	str	r3, [r2]
	.loc 1 2029 1
	bx	lr
.L193:
	.align	2
.L192:
	.word	1476544512
	.cfi_endproc
.LFE371:
	.size	HAL_PWREx_EnableAVD, .-HAL_PWREx_EnableAVD
	.section	.text.HAL_PWREx_DisableAVD,"ax",%progbits
	.align	1
	.global	HAL_PWREx_DisableAVD
	.syntax unified
	.thumb
	.thumb_func
	.type	HAL_PWREx_DisableAVD, %function
HAL_PWREx_DisableAVD:
.LFB372:
	.loc 1 2036 1 is_stmt 1
	.cfi_startproc
	@ args = 0, pretend = 0, frame = 0
	@ frame_needed = 0, uses_anonymous_args = 0
	@ link register save eliminated.
	.loc 1 2038 3
	.loc 1 2038 67 is_stmt 0
	ldr	r2, .L195
	ldr	r3, [r2]
	.loc 1 2038 74
	bic	r3, r3, #65536
	str	r3, [r2]
	.loc 1 2039 1
	bx	lr
.L196:
	.align	2
.L195:
	.word	1476544512
	.cfi_endproc
.LFE372:
	.size	HAL_PWREx_DisableAVD, .-HAL_PWREx_DisableAVD
	.section	.text.HAL_PWREx_AVDCallback,"ax",%progbits
	.align	1
	.weak	HAL_PWREx_AVDCallback
	.syntax unified
	.thumb
	.thumb_func
	.type	HAL_PWREx_AVDCallback, %function
HAL_PWREx_AVDCallback:
.LFB374:
	.loc 1 2132 1 is_stmt 1
	.cfi_startproc
	@ args = 0, pretend = 0, frame = 0
	@ frame_needed = 0, uses_anonymous_args = 0
	@ link register save eliminated.
	.loc 1 2136 1
	bx	lr
	.cfi_endproc
.LFE374:
	.size	HAL_PWREx_AVDCallback, .-HAL_PWREx_AVDCallback
	.section	.text.HAL_PWREx_PVD_AVD_IRQHandler,"ax",%progbits
	.align	1
	.global	HAL_PWREx_PVD_AVD_IRQHandler
	.syntax unified
	.thumb
	.thumb_func
	.type	HAL_PWREx_PVD_AVD_IRQHandler, %function
HAL_PWREx_PVD_AVD_IRQHandler:
.LFB373:
	.loc 1 2047 1
	.cfi_startproc
	@ args = 0, pretend = 0, frame = 0
	@ frame_needed = 0, uses_anonymous_args = 0
	push	{r3, lr}
	.cfi_def_cfa_offset 8
	.cfi_offset 3, -8
	.cfi_offset 14, -4
	.loc 1 2049 3
	.loc 1 2049 71 is_stmt 0
	ldr	r3, .L204
	ldr	r3, [r3]
	.loc 1 2049 6
	tst	r3, #16
	beq	.L199
	.loc 1 2056 7 is_stmt 1
	.loc 1 2056 78 is_stmt 0
	mov	r3, #1476395008
	ldr	r3, [r3, #136]
	.loc 1 2056 10
	tst	r3, #65536
	bne	.L202
.L199:
	.loc 1 2088 3 is_stmt 1
	.loc 1 2088 71 is_stmt 0
	ldr	r3, .L204
	ldr	r3, [r3]
	.loc 1 2088 6
	tst	r3, #65536
	beq	.L198
	.loc 1 2095 7 is_stmt 1
	.loc 1 2095 78 is_stmt 0
	mov	r3, #1476395008
	ldr	r3, [r3, #136]
	.loc 1 2095 10
	tst	r3, #65536
	bne	.L203
.L198:
	.loc 1 2125 1
	pop	{r3, pc}
.L202:
	.loc 1 2059 9 is_stmt 1
	bl	HAL_PWR_PVDCallback
.LVL98:
	.loc 1 2061 9
	.loc 1 2061 239 is_stmt 0
	ldr	r3, .L204
	ldr	r3, [r3, #4]
	.loc 1 2061 11
	tst	r3, #65536
	bne	.L199
	.loc 1 2064 11 is_stmt 1
	.loc 1 2064 76 is_stmt 0
	mov	r2, #1476395008
	ldr	r3, [r2, #136]
	.loc 1 2064 83
	orr	r3, r3, #65536
	str	r3, [r2, #136]
	b	.L199
.L203:
	.loc 1 2098 9 is_stmt 1
	bl	HAL_PWREx_AVDCallback
.LVL99:
	.loc 1 2100 9
	.loc 1 2100 102 is_stmt 0
	ldr	r3, .L204
	ldr	r3, [r3, #4]
	.loc 1 2100 11
	tst	r3, #16
	bne	.L198
	.loc 1 2103 11 is_stmt 1
	.loc 1 2103 76 is_stmt 0
	mov	r2, #1476395008
	ldr	r3, [r2, #136]
	.loc 1 2103 83
	orr	r3, r3, #65536
	str	r3, [r2, #136]
	.loc 1 2125 1
	b	.L198
.L205:
	.align	2
.L204:
	.word	1476544512
	.cfi_endproc
.LFE373:
	.size	HAL_PWREx_PVD_AVD_IRQHandler, .-HAL_PWREx_PVD_AVD_IRQHandler
	.text
.Letext0:
	.file 3 "m:\\noinstall\\arm-gnu-toolchain-12.2.rel1-mingw-w64-i686-arm-none-eabi\\arm-none-eabi\\include\\machine\\_default_types.h"
	.file 4 "m:\\noinstall\\arm-gnu-toolchain-12.2.rel1-mingw-w64-i686-arm-none-eabi\\arm-none-eabi\\include\\sys\\_stdint.h"
	.file 5 "d:\\rtos\\board\\yd-stm32h7xxvx_classicv19\\cmake-build-debug\\_deps\\stm32h7xx_cmsis_include\\drivers\\cmsis\\include\\core_cm7.h"
	.file 6 "D:/RTOS/Board/YD-STM32H7xxVx_ClassicV19/cmake-build-debug/_deps/stm32h7xx_cmsis_device-src/Include/stm32h743xx.h"
	.file 7 "D:/RTOS/Board/YD-STM32H7xxVx_ClassicV19/cmake-build-debug/_deps/stm32h7xx_hal_driver-src/Inc/stm32h7xx_hal_def.h"
	.file 8 "D:/RTOS/Board/YD-STM32H7xxVx_ClassicV19/cmake-build-debug/_deps/stm32h7xx_hal_driver-src/Inc/stm32h7xx_hal_pwr_ex.h"
	.file 9 "D:/RTOS/Board/YD-STM32H7xxVx_ClassicV19/cmake-build-debug/_deps/stm32h7xx_hal_driver-src/Inc/stm32h7xx_hal_pwr.h"
	.file 10 "D:/RTOS/Board/YD-STM32H7xxVx_ClassicV19/cmake-build-debug/_deps/stm32h7xx_hal_driver-src/Inc/stm32h7xx_hal.h"