	.cpu cortex-m7
	.arch armv7e-m
	.fpu fpv5-d16
	.eabi_attribute 28, 1
	.eabi_attribute 20, 1
	.eabi_attribute 21, 1
	.eabi_attribute 23, 3
	.eabi_attribute 24, 1
	.eabi_attribute 25, 1
	.eabi_attribute 26, 1
	.eabi_attribute 30, 1
	.eabi_attribute 34, 1
	.eabi_attribute 18, 4
	.file	"stm32h7xx_hal_hcd.c"
	.text
.Ltext0:
	.cfi_sections	.debug_frame
	.file 1 "D:/RTOS/Board/YD-STM32H7xxVx_ClassicV19/cmake-build-debug/_deps/stm32h7xx_hal_driver-src/Src/stm32h7xx_hal_hcd.c"
	.section	.text.HCD_RXQLVL_IRQHandler,"ax",%progbits
	.align	1
	.syntax unified
	.thumb
	.thumb_func
	.type	HCD_RXQLVL_IRQHandler, %function
HCD_RXQLVL_IRQHandler:
.LFB362:
	.loc 1 1808 1
	.cfi_startproc
	@ args = 0, pretend = 0, frame = 0
	@ frame_needed = 0, uses_anonymous_args = 0
.LVL0:
	push	{r3, r4, r5, r6, r7, lr}
	.cfi_def_cfa_offset 24
	.cfi_offset 3, -24
	.cfi_offset 4, -20
	.cfi_offset 5, -16
	.cfi_offset 6, -12
	.cfi_offset 7, -8
	.cfi_offset 14, -4
	.loc 1 1809 3
	.loc 1 1809 32 is_stmt 0
	ldr	r6, [r0]
.LVL1:
	.loc 1 1810 3 is_stmt 1
	.loc 1 1811 3
	.loc 1 1812 3
	.loc 1 1813 3
	.loc 1 1814 3
	.loc 1 1815 3
	.loc 1 1816 3
	.loc 1 1818 3
	.loc 1 1818 14 is_stmt 0
	ldr	r4, [r6, #32]
.LVL2:
	.loc 1 1819 3 is_stmt 1
	.loc 1 1819 9 is_stmt 0
	and	r7, r4, #15
.LVL3:
	.loc 1 1820 3 is_stmt 1
	.loc 1 1820 10 is_stmt 0
	ubfx	r3, r4, #17, #4
.LVL4:
	.loc 1 1821 3 is_stmt 1
	.loc 1 1821 10 is_stmt 0
	ubfx	r4, r4, #4, #11
.LVL5:
	.loc 1 1823 3 is_stmt 1
	cmp	r3, #2
	beq	.L5
.LVL6:
.L1:
	.loc 1 1866 1 is_stmt 0
	pop	{r3, r4, r5, r6, r7, pc}
.LVL7:
.L5:
	mov	r5, r0
	.loc 1 1827 7 is_stmt 1
	.loc 1 1827 10 is_stmt 0
	cmp	r4, #0
	beq	.L1
	.loc 1 1827 44 discriminator 1
	rsb	r3, r7, r7, lsl #4
.LVL8:
	add	r3, r0, r3, lsl #2
	ldr	r1, [r3, #44]
	.loc 1 1827 25 discriminator 1
	cmp	r1, #0
	beq	.L1
	.loc 1 1829 9 is_stmt 1
	.loc 1 1829 29 is_stmt 0
	rsb	r3, r7, r7, lsl #4
	add	r3, r0, r3, lsl #2
	ldr	r2, [r3, #56]
	.loc 1 1829 41
	add	r2, r2, r4
	.loc 1 1829 69
	ldr	r3, [r3, #52]
	.loc 1 1829 12
	cmp	r2, r3
	bls	.L6
	.loc 1 1853 11 is_stmt 1
	.loc 1 1853 37 is_stmt 0
	rsb	r7, r7, r7, lsl #4
.LVL9:
	add	r5, r0, r7, lsl #2
	movs	r3, #4
	strb	r3, [r5, #76]
	.loc 1 1866 1
	b	.L1
.LVL10:
.L6:
	.loc 1 1831 11 is_stmt 1
	.loc 1 1831 17 is_stmt 0
	mov	r2, r4
	mov	r0, r6
.LVL11:
	bl	USB_ReadPacket
.LVL12:
	.loc 1 1835 11 is_stmt 1
	.loc 1 1835 26 is_stmt 0
	rsb	r3, r7, r7, lsl #4
	add	r3, r5, r3, lsl #2
	ldr	r2, [r3, #44]
	.loc 1 1835 37
	add	r2, r2, r4
	str	r2, [r3, #44]
	.loc 1 1836 11 is_stmt 1
	.loc 1 1836 26 is_stmt 0
	ldr	r2, [r3, #56]
	.loc 1 1836 38
	add	r2, r2, r4
	str	r2, [r3, #56]
	.loc 1 1839 11 is_stmt 1
	.loc 1 1839 83 is_stmt 0
	add	r6, r6, r7, lsl #5
.LVL13:
	.loc 1 1839 107
	ldr	r2, [r6, #1296]
	.loc 1 1839 26
	ubfx	r2, r2, #19, #10
.LVL14:
	.loc 1 1841 11 is_stmt 1
	.loc 1 1841 31 is_stmt 0
	ldrh	r3, [r3, #40]
	.loc 1 1841 14
	cmp	r3, r4
	bne	.L1
	.loc 1 1841 54 discriminator 1
	cmp	r2, #0
	beq	.L1
	.loc 1 1844 13 is_stmt 1
	.loc 1 1844 20 is_stmt 0
	ldr	r3, [r6, #1280]
.LVL15:
	.loc 1 1845 13 is_stmt 1
	.loc 1 1845 20 is_stmt 0
	bic	r3, r3, #1073741824
.LVL16:
	.loc 1 1846 13 is_stmt 1
	.loc 1 1846 20 is_stmt 0
	orr	r3, r3, #-2147483648
.LVL17:
	.loc 1 1847 13 is_stmt 1
	.loc 1 1847 100 is_stmt 0
	str	r3, [r6, #1280]
	.loc 1 1848 13 is_stmt 1
	.loc 1 1848 28 is_stmt 0
	rsb	r3, r7, r7, lsl #4
.LVL18:
	add	r3, r5, r3, lsl #2
	ldrb	r2, [r3, #60]	@ zero_extendqisi2
.LVL19:
	.loc 1 1848 39
	eor	r2, r2, #1
	strb	r2, [r3, #60]
.LVL20:
	b	.L1
	.cfi_endproc
.LFE362:
	.size	HCD_RXQLVL_IRQHandler, .-HCD_RXQLVL_IRQHandler
	.section	.text.HAL_HCD_HC_Halt,"ax",%progbits
	.align	1
	.global	HAL_HCD_HC_Halt
	.syntax unified
	.thumb
	.thumb_func
	.type	HAL_HCD_HC_Halt, %function
HAL_HCD_HC_Halt:
.LFB337:
	.loc 1 261 1 is_stmt 1
	.cfi_startproc
	@ args = 0, pretend = 0, frame = 0
	@ frame_needed = 0, uses_anonymous_args = 0
.LVL21:
	.loc 1 262 3
	.loc 1 264 3
	.loc 1 264 7
	.loc 1 264 16 is_stmt 0
	ldrb	r3, [r0, #980]	@ zero_extendqisi2
	.loc 1 264 9
	cmp	r3, #1
	beq	.L9
	.loc 1 261 1 discriminator 2
	push	{r4, lr}
	.cfi_def_cfa_offset 8
	.cfi_offset 4, -8
	.cfi_offset 14, -4
	mov	r4, r0
	.loc 1 264 66 is_stmt 1 discriminator 2
	.loc 1 264 79 is_stmt 0 discriminator 2
	movs	r3, #1
	strb	r3, [r0, #980]
	.loc 1 264 5 is_stmt 1 discriminator 2
	.loc 1 265 3 discriminator 2
	.loc 1 265 9 is_stmt 0 discriminator 2
	ldr	r0, [r0]
.LVL22:
	bl	USB_HC_Halt
.LVL23:
	.loc 1 266 3 is_stmt 1 discriminator 2
	.loc 1 266 7 discriminator 2
	.loc 1 266 20 is_stmt 0 discriminator 2
	movs	r0, #0
	strb	r0, [r4, #980]
	.loc 1 266 5 is_stmt 1 discriminator 2
	.loc 1 268 3 discriminator 2
	.loc 1 269 1 is_stmt 0 discriminator 2
	pop	{r4, pc}
.LVL24:
.L9:
	.cfi_def_cfa_offset 0
	.cfi_restore 4
	.cfi_restore 14
	.loc 1 264 47
	movs	r0, #2
.LVL25:
	.loc 1 269 1
	bx	lr
	.cfi_endproc
.LFE337:
	.size	HAL_HCD_HC_Halt, .-HAL_HCD_HC_Halt
	.section	.text.HAL_HCD_MspInit,"ax",%progbits
	.align	1
	.weak	HAL_HCD_MspInit
	.syntax unified
	.thumb
	.thumb_func
	.type	HAL_HCD_MspInit, %function
HAL_HCD_MspInit:
.LFB339:
	.loc 1 312 1 is_stmt 1
	.cfi_startproc
	@ args = 0, pretend = 0, frame = 0
	@ frame_needed = 0, uses_anonymous_args = 0
	@ link register save eliminated.
.LVL26:
	.loc 1 314 3
	.loc 1 319 1 is_stmt 0
	bx	lr
	.cfi_endproc
.LFE339:
	.size	HAL_HCD_MspInit, .-HAL_HCD_MspInit
	.section	.text.HAL_HCD_Init,"ax",%progbits
	.align	1
	.global	HAL_HCD_Init
	.syntax unified
	.thumb
	.thumb_func
	.type	HAL_HCD_Init, %function
HAL_HCD_Init:
.LFB335:
	.loc 1 111 1 is_stmt 1
	.cfi_startproc
	@ args = 0, pretend = 0, frame = 0
	@ frame_needed = 0, uses_anonymous_args = 0
.LVL27:
	.loc 1 113 3
	.loc 1 113 6 is_stmt 0
	cmp	r0, #0
	beq	.L21
	.loc 1 111 1
	push	{r4, lr}
	.cfi_def_cfa_offset 8
	.cfi_offset 4, -8
	.cfi_offset 14, -4
	sub	sp, sp, #8
	.cfi_def_cfa_offset 16
	mov	r4, r0
	.loc 1 119 3 is_stmt 1
	.loc 1 121 3
	.loc 1 121 11 is_stmt 0
	ldrb	r3, [r0, #981]	@ zero_extendqisi2
	.loc 1 121 6
	cbz	r3, .L26
.LVL28:
.L17:
	.loc 1 147 3 is_stmt 1
	.loc 1 147 15 is_stmt 0
	movs	r3, #3
	strb	r3, [r4, #981]
	.loc 1 150 3 is_stmt 1
	.loc 1 150 9 is_stmt 0
	ldr	r0, [r4]
	bl	USB_DisableGlobalInt
.LVL29:
	.loc 1 153 3 is_stmt 1
	.loc 1 153 7 is_stmt 0
	ldrb	r3, [r4, #16]	@ zero_extendqisi2
	strb	r3, [sp]
	adds	r3, r4, #4
	ldm	r3, {r1, r2, r3}
	ldr	r0, [r4]
	bl	USB_CoreInit
.LVL30:
	.loc 1 153 6
	cbz	r0, .L18
	.loc 1 155 5 is_stmt 1
	.loc 1 155 17 is_stmt 0
	movs	r3, #2
	strb	r3, [r4, #981]
	.loc 1 156 5 is_stmt 1
	.loc 1 156 12 is_stmt 0
	movs	r0, #1
.L16:
	.loc 1 176 1
	add	sp, sp, #8
	.cfi_remember_state
	.cfi_def_cfa_offset 8
	@ sp needed
	pop	{r4, pc}
.LVL31:
.L26:
	.cfi_restore_state
	.loc 1 124 5 is_stmt 1
	.loc 1 124 16 is_stmt 0
	strb	r3, [r0, #980]
	.loc 1 143 5 is_stmt 1
	bl	HAL_HCD_MspInit
.LVL32:
	b	.L17
.L18:
	.loc 1 160 3
	.loc 1 160 7 is_stmt 0
	movs	r1, #1
	ldr	r0, [r4]
	bl	USB_SetCurrentMode
.LVL33:
	.loc 1 160 6
	cbz	r0, .L19
	.loc 1 162 5 is_stmt 1
	.loc 1 162 17 is_stmt 0
	movs	r3, #2
	strb	r3, [r4, #981]
	.loc 1 163 5 is_stmt 1
	.loc 1 163 12 is_stmt 0
	movs	r0, #1
	b	.L16
.L19:
	.loc 1 167 3 is_stmt 1
	.loc 1 167 7 is_stmt 0
	ldrb	r3, [r4, #16]	@ zero_extendqisi2
	strb	r3, [sp]
	adds	r3, r4, #4
	ldm	r3, {r1, r2, r3}
	ldr	r0, [r4]
	bl	USB_HostInit
.LVL34:
	.loc 1 167 6
	cbnz	r0, .L27
	.loc 1 173 3 is_stmt 1
	.loc 1 173 15 is_stmt 0
	movs	r3, #1
	strb	r3, [r4, #981]
	.loc 1 175 3 is_stmt 1
	.loc 1 175 10 is_stmt 0
	b	.L16
.L27:
	.loc 1 169 5 is_stmt 1
	.loc 1 169 17 is_stmt 0
	movs	r3, #2
	strb	r3, [r4, #981]
	.loc 1 170 5 is_stmt 1
	.loc 1 170 12 is_stmt 0
	movs	r0, #1
	b	.L16
.LVL35:
.L21:
	.cfi_def_cfa_offset 0
	.cfi_restore 4
	.cfi_restore 14
	.loc 1 115 12
	movs	r0, #1
.LVL36:
	.loc 1 176 1
	bx	lr
	.cfi_endproc
.LFE335:
	.size	HAL_HCD_Init, .-HAL_HCD_Init
	.section	.text.HAL_HCD_MspDeInit,"ax",%progbits
	.align	1
	.weak	HAL_HCD_MspDeInit
	.syntax unified
	.thumb
	.thumb_func
	.type	HAL_HCD_MspDeInit, %function
HAL_HCD_MspDeInit:
.LFB340:
	.loc 1 327 1 is_stmt 1
	.cfi_startproc
	@ args = 0, pretend = 0, frame = 0
	@ frame_needed = 0, uses_anonymous_args = 0
	@ link register save eliminated.
.LVL37:
	.loc 1 329 3
	.loc 1 334 1 is_stmt 0
	bx	lr
	.cfi_endproc
.LFE340:
	.size	HAL_HCD_MspDeInit, .-HAL_HCD_MspDeInit
	.section	.text.HAL_HCD_DeInit,"ax",%progbits
	.align	1
	.global	HAL_HCD_DeInit
	.syntax unified
	.thumb
	.thumb_func
	.type	HAL_HCD_DeInit, %function
HAL_HCD_DeInit:
.LFB338:
	.loc 1 277 1 is_stmt 1
	.cfi_startproc
	@ args = 0, pretend = 0, frame = 0
	@ frame_needed = 0, uses_anonymous_args = 0
.LVL38:
	.loc 1 279 3
	.loc 1 279 6 is_stmt 0
	cbz	r0, .L31
	.loc 1 277 1
	push	{r4, lr}
	.cfi_def_cfa_offset 8
	.cfi_offset 4, -8
	.cfi_offset 14, -4
	mov	r4, r0
	.loc 1 284 3 is_stmt 1
	.loc 1 284 15 is_stmt 0
	movs	r3, #3
	strb	r3, [r0, #981]
	.loc 1 296 3 is_stmt 1
	bl	HAL_HCD_MspDeInit
.LVL39:
	.loc 1 299 3
	.loc 1 299 9 is_stmt 0
	ldr	r0, [r4]
	bl	USB_DisableGlobalInt
.LVL40:
	.loc 1 301 3 is_stmt 1
	.loc 1 301 15 is_stmt 0
	movs	r0, #0
	strb	r0, [r4, #981]
	.loc 1 303 3 is_stmt 1
	.loc 1 304 1 is_stmt 0
	pop	{r4, pc}
.LVL41:
.L31:
	.cfi_def_cfa_offset 0
	.cfi_restore 4
	.cfi_restore 14
	.loc 1 281 12
	movs	r0, #1
.LVL42:
	.loc 1 304 1
	bx	lr
	.cfi_endproc
.LFE338:
	.size	HAL_HCD_DeInit, .-HAL_HCD_DeInit
	.section	.text.HAL_HCD_HC_SubmitRequest,"ax",%progbits
	.align	1
	.global	HAL_HCD_HC_SubmitRequest
	.syntax unified
	.thumb
	.thumb_func
	.type	HAL_HCD_HC_SubmitRequest, %function
HAL_HCD_HC_SubmitRequest:
.LFB341:
	.loc 1 386 1 is_stmt 1
	.cfi_startproc
	@ args = 16, pretend = 0, frame = 0
	@ frame_needed = 0, uses_anonymous_args = 0
.LVL43:
	push	{r3, r4, r5, lr}
	.cfi_def_cfa_offset 16
	.cfi_offset 3, -16
	.cfi_offset 4, -12
	.cfi_offset 5, -8
	.cfi_offset 14, -4
	ldrb	r4, [sp, #16]	@ zero_extendqisi2
	ldrh	r5, [sp, #24]
	.loc 1 387 3
	.loc 1 387 29 is_stmt 0
	rsb	ip, r1, r1, lsl #4
	add	ip, r0, ip, lsl #2
	strb	r2, [ip, #23]
	.loc 1 388 3 is_stmt 1
	.loc 1 388 28 is_stmt 0
	strb	r3, [ip, #38]
	.loc 1 390 3 is_stmt 1
	.loc 1 390 6 is_stmt 0
	cbnz	r4, .L37
	.loc 1 392 5 is_stmt 1
	.loc 1 392 31 is_stmt 0
	rsb	ip, r1, r1, lsl #4
	add	ip, r0, ip, lsl #2
	mov	lr, #3
	strb	lr, [ip, #42]
	.loc 1 393 5 is_stmt 1
	.loc 1 393 30 is_stmt 0
	ldrb	lr, [sp, #28]	@ zero_extendqisi2
	strb	lr, [ip, #25]
.L38:
	.loc 1 401 3 is_stmt 1
	cmp	r3, #3
	bhi	.L39
	tbb	[pc, r3]
.L41:
	.byte	(.L44-.L41)/2
	.byte	(.L43-.L41)/2
	.byte	(.L42-.L41)/2
	.byte	(.L40-.L41)/2
	.p2align 1
.L37:
	.loc 1 397 5
	.loc 1 397 31 is_stmt 0
	rsb	ip, r1, r1, lsl #4
	add	ip, r0, ip, lsl #2
	mov	lr, #2
	strb	lr, [ip, #42]
	b	.L38
.L44:
	.loc 1 404 7 is_stmt 1
	.loc 1 404 10 is_stmt 0
	cmp	r4, #1
	bne	.L39
	.loc 1 406 9 is_stmt 1
	.loc 1 406 12 is_stmt 0
	cbnz	r2, .L45
	.loc 1 408 11 is_stmt 1
	.loc 1 408 14 is_stmt 0
	cbnz	r5, .L46
	.loc 1 411 13 is_stmt 1
	.loc 1 411 41 is_stmt 0
	rsb	r3, r1, r1, lsl #4
.LVL44:
	add	r3, r0, r3, lsl #2
	movs	r2, #1
.LVL45:
	strb	r2, [r3, #61]
.L46:
	.loc 1 415 11 is_stmt 1
	.loc 1 415 31 is_stmt 0
	rsb	r3, r1, r1, lsl #4
	add	r3, r0, r3, lsl #2
	ldrb	r3, [r3, #61]	@ zero_extendqisi2
	.loc 1 415 14
	cbnz	r3, .L47
	.loc 1 418 13 is_stmt 1
	.loc 1 418 39 is_stmt 0
	rsb	r3, r1, r1, lsl #4
	add	r3, r0, r3, lsl #2
	movs	r2, #0
	strb	r2, [r3, #42]
	b	.L39
.L47:
	.loc 1 423 13 is_stmt 1
	.loc 1 423 39 is_stmt 0
	rsb	r3, r1, r1, lsl #4
	add	r3, r0, r3, lsl #2
	movs	r2, #2
	strb	r2, [r3, #42]
	b	.L39
.LVL46:
.L45:
	.loc 1 428 11 is_stmt 1
	.loc 1 428 31 is_stmt 0
	rsb	r3, r1, r1, lsl #4
.LVL47:
	add	r3, r0, r3, lsl #2
	ldrb	r3, [r3, #26]	@ zero_extendqisi2
	.loc 1 428 14
	cmp	r3, #1
	bne	.L39
	.loc 1 430 13 is_stmt 1
	.loc 1 430 33 is_stmt 0
	rsb	r3, r1, r1, lsl #4
	add	r3, r0, r3, lsl #2
	ldrb	r3, [r3, #60]	@ zero_extendqisi2
	.loc 1 430 16
	cbnz	r3, .L48
	.loc 1 432 15 is_stmt 1
	.loc 1 432 41 is_stmt 0
	rsb	r3, r1, r1, lsl #4
	add	r3, r0, r3, lsl #2
	movs	r2, #0
.LVL48:
	strb	r2, [r3, #42]
	b	.L39
.LVL49:
.L48:
	.loc 1 436 15 is_stmt 1
	.loc 1 436 41 is_stmt 0
	rsb	r3, r1, r1, lsl #4
	add	r3, r0, r3, lsl #2
	movs	r2, #2
.LVL50:
	strb	r2, [r3, #42]
	b	.L39
.LVL51:
.L42:
	.loc 1 444 7 is_stmt 1
	.loc 1 444 10 is_stmt 0
	cbnz	r2, .L49
	.loc 1 447 9 is_stmt 1
	.loc 1 447 29 is_stmt 0
	rsb	r3, r1, r1, lsl #4
.LVL52:
	add	r3, r0, r3, lsl #2
	ldrb	r3, [r3, #61]	@ zero_extendqisi2
	.loc 1 447 12
	cbnz	r3, .L50
	.loc 1 450 11 is_stmt 1
	.loc 1 450 37 is_stmt 0
	rsb	r3, r1, r1, lsl #4
	add	r3, r0, r3, lsl #2
	strb	r2, [r3, #42]
	b	.L39
.L50:
	.loc 1 455 11 is_stmt 1
	.loc 1 455 37 is_stmt 0
	rsb	r3, r1, r1, lsl #4
	add	r3, r0, r3, lsl #2
	movs	r2, #2
.LVL53:
	strb	r2, [r3, #42]
	b	.L39
.LVL54:
.L49:
	.loc 1 460 9 is_stmt 1
	.loc 1 460 29 is_stmt 0
	rsb	r3, r1, r1, lsl #4
.LVL55:
	add	r3, r0, r3, lsl #2
	ldrb	r3, [r3, #60]	@ zero_extendqisi2
	.loc 1 460 12
	cbnz	r3, .L51
	.loc 1 462 11 is_stmt 1
	.loc 1 462 37 is_stmt 0
	rsb	r3, r1, r1, lsl #4
	add	r3, r0, r3, lsl #2
	movs	r2, #0
.LVL56:
	strb	r2, [r3, #42]
	b	.L39
.LVL57:
.L51:
	.loc 1 466 11 is_stmt 1
	.loc 1 466 37 is_stmt 0
	rsb	r3, r1, r1, lsl #4
	add	r3, r0, r3, lsl #2
	movs	r2, #2
.LVL58:
	strb	r2, [r3, #42]
	b	.L39
.LVL59:
.L40:
	.loc 1 472 7 is_stmt 1
	.loc 1 472 10 is_stmt 0
	cbnz	r2, .L52
	.loc 1 475 9 is_stmt 1
	.loc 1 475 29 is_stmt 0
	rsb	r3, r1, r1, lsl #4
.LVL60:
	add	r3, r0, r3, lsl #2
	ldrb	r3, [r3, #61]	@ zero_extendqisi2
	.loc 1 475 12
	cbnz	r3, .L53
	.loc 1 478 11 is_stmt 1
	.loc 1 478 37 is_stmt 0
	rsb	r3, r1, r1, lsl #4
	add	r3, r0, r3, lsl #2
	strb	r2, [r3, #42]
	b	.L39
.L53:
	.loc 1 483 11 is_stmt 1
	.loc 1 483 37 is_stmt 0
	rsb	r3, r1, r1, lsl #4
	add	r3, r0, r3, lsl #2
	movs	r2, #2
.LVL61:
	strb	r2, [r3, #42]
	b	.L39
.LVL62:
.L52:
	.loc 1 488 9 is_stmt 1
	.loc 1 488 29 is_stmt 0
	rsb	r3, r1, r1, lsl #4
.LVL63:
	add	r3, r0, r3, lsl #2
	ldrb	r3, [r3, #60]	@ zero_extendqisi2
	.loc 1 488 12
	cbnz	r3, .L54
	.loc 1 490 11 is_stmt 1
	.loc 1 490 37 is_stmt 0
	rsb	r3, r1, r1, lsl #4
	add	r3, r0, r3, lsl #2
	movs	r2, #0
.LVL64:
	strb	r2, [r3, #42]
	b	.L39
.LVL65:
.L54:
	.loc 1 494 11 is_stmt 1
	.loc 1 494 37 is_stmt 0
	rsb	r3, r1, r1, lsl #4
	add	r3, r0, r3, lsl #2
	movs	r2, #2
.LVL66:
	strb	r2, [r3, #42]
	b	.L39
.LVL67:
.L43:
	.loc 1 500 7 is_stmt 1
	.loc 1 500 33 is_stmt 0
	rsb	r3, r1, r1, lsl #4
.LVL68:
	add	r3, r0, r3, lsl #2
	movs	r2, #0
.LVL69:
	strb	r2, [r3, #42]
	.loc 1 501 7 is_stmt 1
.L39:
	.loc 1 507 3
	.loc 1 507 30 is_stmt 0
	rsb	r3, r1, r1, lsl #4
	add	r3, r0, r3, lsl #2
	ldr	r2, [sp, #20]
	str	r2, [r3, #44]
	.loc 1 508 3 is_stmt 1
	.loc 1 508 29 is_stmt 0
	str	r5, [r3, #52]
	.loc 1 509 3 is_stmt 1
	.loc 1 509 30 is_stmt 0
	movs	r2, #0
	strb	r2, [r3, #76]
	.loc 1 510 3 is_stmt 1
	.loc 1 510 31 is_stmt 0
	str	r2, [r3, #56]
	.loc 1 511 3 is_stmt 1
	.loc 1 511 27 is_stmt 0
	strb	r1, [r3, #21]
	.loc 1 512 3 is_stmt 1
	.loc 1 512 26 is_stmt 0
	strb	r2, [r3, #77]
	.loc 1 514 3 is_stmt 1
	.loc 1 514 43 is_stmt 0
	rsb	r1, r1, r1, lsl #4
.LVL70:
	lsls	r1, r1, #2
	adds	r1, r1, #16
	add	r1, r1, r0
	.loc 1 514 10
	ldrb	r2, [r0, #6]	@ zero_extendqisi2
	adds	r1, r1, #4
	ldr	r0, [r0]
.LVL71:
	bl	USB_HC_StartXfer
.LVL72:
	.loc 1 515 1
	pop	{r3, r4, r5, pc}
	.cfi_endproc
.LFE341:
	.size	HAL_HCD_HC_SubmitRequest, .-HAL_HCD_HC_SubmitRequest
	.section	.text.HAL_HCD_SOF_Callback,"ax",%progbits
	.align	1
	.weak	HAL_HCD_SOF_Callback
	.syntax unified
	.thumb
	.thumb_func
	.type	HAL_HCD_SOF_Callback, %function
HAL_HCD_SOF_Callback:
.LFB343:
	.loc 1 646 1 is_stmt 1
	.cfi_startproc
	@ args = 0, pretend = 0, frame = 0
	@ frame_needed = 0, uses_anonymous_args = 0
	@ link register save eliminated.
.LVL73:
	.loc 1 648 3
	.loc 1 653 1 is_stmt 0
	bx	lr
	.cfi_endproc
.LFE343:
	.size	HAL_HCD_SOF_Callback, .-HAL_HCD_SOF_Callback
	.section	.text.HAL_HCD_Connect_Callback,"ax",%progbits
	.align	1
	.weak	HAL_HCD_Connect_Callback
	.syntax unified
	.thumb
	.thumb_func
	.type	HAL_HCD_Connect_Callback, %function
HAL_HCD_Connect_Callback:
.LFB344:
	.loc 1 661 1 is_stmt 1
	.cfi_startproc
	@ args = 0, pretend = 0, frame = 0
	@ frame_needed = 0, uses_anonymous_args = 0
	@ link register save eliminated.
.LVL74:
	.loc 1 663 3
	.loc 1 668 1 is_stmt 0
	bx	lr
	.cfi_endproc
.LFE344:
	.size	HAL_HCD_Connect_Callback, .-HAL_HCD_Connect_Callback
	.section	.text.HAL_HCD_Disconnect_Callback,"ax",%progbits
	.align	1
	.weak	HAL_HCD_Disconnect_Callback
	.syntax unified
	.thumb
	.thumb_func
	.type	HAL_HCD_Disconnect_Callback, %function
HAL_HCD_Disconnect_Callback:
.LFB345:
	.loc 1 676 1 is_stmt 1
	.cfi_startproc
	@ args = 0, pretend = 0, frame = 0
	@ frame_needed = 0, uses_anonymous_args = 0
	@ link register save eliminated.
.LVL75:
	.loc 1 678 3
	.loc 1 683 1 is_stmt 0
	bx	lr
	.cfi_endproc
.LFE345:
	.size	HAL_HCD_Disconnect_Callback, .-HAL_HCD_Disconnect_Callback
	.section	.text.HAL_HCD_PortEnabled_Callback,"ax",%progbits
	.align	1
	.weak	HAL_HCD_PortEnabled_Callback
	.syntax unified
	.thumb
	.thumb_func
	.type	HAL_HCD_PortEnabled_Callback, %function
HAL_HCD_PortEnabled_Callback:
.LFB346:
	.loc 1 691 1 is_stmt 1
	.cfi_startproc
	@ args = 0, pretend = 0, frame = 0
	@ frame_needed = 0, uses_anonymous_args = 0
	@ link register save eliminated.
.LVL76:
	.loc 1 693 3
	.loc 1 698 1 is_stmt 0
	bx	lr
	.cfi_endproc
.LFE346:
	.size	HAL_HCD_PortEnabled_Callback, .-HAL_HCD_PortEnabled_Callback
	.section	.text.HAL_HCD_PortDisabled_Callback,"ax",%progbits
	.align	1
	.weak	HAL_HCD_PortDisabled_Callback
	.syntax unified
	.thumb
	.thumb_func
	.type	HAL_HCD_PortDisabled_Callback, %function
HAL_HCD_PortDisabled_Callback:
.LFB347:
	.loc 1 706 1 is_stmt 1
	.cfi_startproc
	@ args = 0, pretend = 0, frame = 0
	@ frame_needed = 0, uses_anonymous_args = 0
	@ link register save eliminated.
.LVL77:
	.loc 1 708 3
	.loc 1 713 1 is_stmt 0
	bx	lr
	.cfi_endproc
.LFE347:
	.size	HAL_HCD_PortDisabled_Callback, .-HAL_HCD_PortDisabled_Callback
	.section	.text.HCD_Port_IRQHandler,"ax",%progbits
	.align	1
	.syntax unified
	.thumb
	.thumb_func
	.type	HCD_Port_IRQHandler, %function
HCD_Port_IRQHandler:
.LFB363:
	.loc 1 1874 1 is_stmt 1
	.cfi_startproc
	@ args = 0, pretend = 0, frame = 8
	@ frame_needed = 0, uses_anonymous_args = 0
.LVL78:
	push	{r4, r5, lr}
	.cfi_def_cfa_offset 12
	.cfi_offset 4, -12
	.cfi_offset 5, -8
	.cfi_offset 14, -4
	sub	sp, sp, #12
	.cfi_def_cfa_offset 24
	mov	r4, r0
	.loc 1 1875 3
	.loc 1 1875 32 is_stmt 0
	ldr	r5, [r0]
.LVL79:
	.loc 1 1876 3 is_stmt 1
	.loc 1 1877 3
	.loc 1 1878 3
	.loc 1 1881 3
	.loc 1 1881 11 is_stmt 0
	ldr	r3, [r5, #1088]
	.loc 1 1881 9
	str	r3, [sp]
	.loc 1 1882 3 is_stmt 1
	.loc 1 1882 15 is_stmt 0
	ldr	r3, [r5, #1088]
	.loc 1 1882 13
	str	r3, [sp, #4]
	.loc 1 1884 3 is_stmt 1
	.loc 1 1884 13 is_stmt 0
	ldr	r3, [sp, #4]
	bic	r3, r3, #46
	str	r3, [sp, #4]
	.loc 1 1888 3 is_stmt 1
	.loc 1 1888 14 is_stmt 0
	ldr	r3, [sp]
	.loc 1 1888 6
	tst	r3, #2
	beq	.L63
	.loc 1 1890 5 is_stmt 1
	.loc 1 1890 16 is_stmt 0
	ldr	r3, [sp]
	.loc 1 1890 8
	tst	r3, #1
	bne	.L72
.LVL80:
.L64:
	.loc 1 1898 5 is_stmt 1
	.loc 1 1898 15 is_stmt 0
	ldr	r3, [sp, #4]
	orr	r3, r3, #2
	str	r3, [sp, #4]
.L63:
	.loc 1 1902 3 is_stmt 1
	.loc 1 1902 14 is_stmt 0
	ldr	r3, [sp]
	.loc 1 1902 6
	tst	r3, #8
	beq	.L65
	.loc 1 1904 5 is_stmt 1
	.loc 1 1904 15 is_stmt 0
	ldr	r3, [sp, #4]
	orr	r3, r3, #8
	str	r3, [sp, #4]
	.loc 1 1906 5 is_stmt 1
	.loc 1 1906 16 is_stmt 0
	ldr	r3, [sp]
	.loc 1 1906 8
	tst	r3, #4
	beq	.L66
	.loc 1 1908 7 is_stmt 1
	.loc 1 1908 21 is_stmt 0
	ldrb	r3, [r4, #9]	@ zero_extendqisi2
	.loc 1 1908 10
	cmp	r3, #2
	beq	.L73
	.loc 1 1921 9 is_stmt 1
	.loc 1 1921 23 is_stmt 0
	ldrb	r3, [r4, #7]	@ zero_extendqisi2
	.loc 1 1921 12
	cmp	r3, #1
	beq	.L74
.L69:
	.loc 1 1929 7 is_stmt 1
	mov	r0, r4
	bl	HAL_HCD_PortEnabled_Callback
.LVL81:
.L65:
	.loc 1 1944 3
	.loc 1 1944 14 is_stmt 0
	ldr	r3, [sp]
	.loc 1 1944 6
	tst	r3, #32
	beq	.L70
	.loc 1 1946 5 is_stmt 1
	.loc 1 1946 15 is_stmt 0
	ldr	r3, [sp, #4]
	orr	r3, r3, #32
	str	r3, [sp, #4]
.L70:
	.loc 1 1950 3 is_stmt 1
	.loc 1 1950 59 is_stmt 0
	ldr	r3, [sp, #4]
	str	r3, [r5, #1088]
	.loc 1 1951 1
	add	sp, sp, #12
	.cfi_remember_state
	.cfi_def_cfa_offset 12
	@ sp needed
	pop	{r4, r5, pc}
.LVL82:
.L72:
	.cfi_restore_state
	.loc 1 1895 7 is_stmt 1
	bl	HAL_HCD_Connect_Callback
.LVL83:
	b	.L64
.L73:
	.loc 1 1910 9
	.loc 1 1910 20 is_stmt 0
	ldr	r3, [sp]
	and	r3, r3, #393216
	.loc 1 1910 12
	cmp	r3, #262144
	beq	.L75
	.loc 1 1916 11 is_stmt 1
	.loc 1 1916 17 is_stmt 0
	movs	r1, #1
	ldr	r0, [r4]
	bl	USB_InitFSLSPClkSel
.LVL84:
	b	.L69
.L75:
	.loc 1 1912 11 is_stmt 1
	.loc 1 1912 17 is_stmt 0
	movs	r1, #2
	ldr	r0, [r4]
	bl	USB_InitFSLSPClkSel
.LVL85:
	b	.L69
.L74:
	.loc 1 1923 11 is_stmt 1
	.loc 1 1923 66 is_stmt 0
	movw	r2, #60000
	str	r2, [r5, #1028]
	b	.L69
.L66:
	.loc 1 1938 7 is_stmt 1
	mov	r0, r4
	bl	HAL_HCD_PortDisabled_Callback
.LVL86:
	b	.L65
	.cfi_endproc
.LFE363:
	.size	HCD_Port_IRQHandler, .-HCD_Port_IRQHandler
	.section	.text.HAL_HCD_HC_NotifyURBChange_Callback,"ax",%progbits
	.align	1
	.weak	HAL_HCD_HC_NotifyURBChange_Callback
	.syntax unified
	.thumb
	.thumb_func
	.type	HAL_HCD_HC_NotifyURBChange_Callback, %function
HAL_HCD_HC_NotifyURBChange_Callback:
.LFB348:
	.loc 1 731 1
	.cfi_startproc
	@ args = 0, pretend = 0, frame = 0
	@ frame_needed = 0, uses_anonymous_args = 0
	@ link register save eliminated.
.LVL87:
	.loc 1 733 3
	.loc 1 734 3
	.loc 1 735 3
	.loc 1 740 1 is_stmt 0
	bx	lr
	.cfi_endproc
.LFE348:
	.size	HAL_HCD_HC_NotifyURBChange_Callback, .-HAL_HCD_HC_NotifyURBChange_Callback
	.section	.text.HCD_HC_IN_IRQHandler,"ax",%progbits
	.align	1
	.syntax unified
	.thumb
	.thumb_func
	.type	HCD_HC_IN_IRQHandler, %function
HCD_HC_IN_IRQHandler:
.LFB360:
	.loc 1 1254 1 is_stmt 1
	.cfi_startproc
	@ args = 0, pretend = 0, frame = 0
	@ frame_needed = 0, uses_anonymous_args = 0
.LVL88:
	push	{r3, r4, r5, r6, r7, lr}
	.cfi_def_cfa_offset 24
	.cfi_offset 3, -24
	.cfi_offset 4, -20
	.cfi_offset 5, -16
	.cfi_offset 6, -12
	.cfi_offset 7, -8
	.cfi_offset 14, -4
	mov	r5, r0
	mov	r4, r1
	.loc 1 1255 3
	.loc 1 1255 32 is_stmt 0
	ldr	r6, [r0]
.LVL89:
	.loc 1 1256 3 is_stmt 1
	.loc 1 1257 3
	.loc 1 1259 3
	.loc 1 1259 9 is_stmt 0
	mov	r0, r6
.LVL90:
	bl	USB_ReadChInterrupts
.LVL91:
	.loc 1 1259 6
	tst	r0, #4
	beq	.L78
	.loc 1 1261 5 is_stmt 1
	.loc 1 1261 60 is_stmt 0
	add	r3, r6, r4, lsl #5
	.loc 1 1261 92
	movs	r2, #4
	str	r2, [r3, #1288]
	.loc 1 1262 5 is_stmt 1
	.loc 1 1262 27 is_stmt 0
	rsb	r3, r4, r4, lsl #4
	add	r3, r5, r3, lsl #2
	movs	r2, #7
	strb	r2, [r3, #77]
	.loc 1 1263 5 is_stmt 1
	.loc 1 1263 11 is_stmt 0
	mov	r1, r4
	ldr	r0, [r5]
	bl	USB_HC_Halt
.LVL92:
.L79:
	.loc 1 1292 3 is_stmt 1
	.loc 1 1294 3
	.loc 1 1294 9 is_stmt 0
	mov	r1, r4
	ldr	r0, [r5]
	bl	USB_ReadChInterrupts
.LVL93:
	.loc 1 1294 6
	tst	r0, #512
	beq	.L83
	.loc 1 1296 5 is_stmt 1
	.loc 1 1296 11 is_stmt 0
	mov	r1, r4
	ldr	r0, [r5]
	bl	USB_HC_Halt
.LVL94:
	.loc 1 1297 5 is_stmt 1
	.loc 1 1297 60 is_stmt 0
	add	r6, r6, r4, lsl #5
.LVL95:
	.loc 1 1297 92
	mov	r3, #512
	str	r3, [r6, #1288]
.LVL96:
.L77:
	.loc 1 1563 1
	pop	{r3, r4, r5, r6, r7, pc}
.LVL97:
.L78:
	.loc 1 1265 8 is_stmt 1
	.loc 1 1265 14 is_stmt 0
	mov	r1, r4
	ldr	r0, [r5]
	bl	USB_ReadChInterrupts
.LVL98:
	.loc 1 1265 11
	tst	r0, #256
	beq	.L80
	.loc 1 1267 5 is_stmt 1
	.loc 1 1267 60 is_stmt 0
	add	r3, r6, r4, lsl #5
	.loc 1 1267 92
	mov	r2, #256
	str	r2, [r3, #1288]
	.loc 1 1268 5 is_stmt 1
	.loc 1 1268 27 is_stmt 0
	rsb	r3, r4, r4, lsl #4
	add	r3, r5, r3, lsl #2
	movs	r2, #8
	strb	r2, [r3, #77]
	.loc 1 1269 5 is_stmt 1
	.loc 1 1269 11 is_stmt 0
	mov	r1, r4
	ldr	r0, [r5]
	bl	USB_HC_Halt
.LVL99:
	b	.L79
.L80:
	.loc 1 1271 8 is_stmt 1
	.loc 1 1271 14 is_stmt 0
	mov	r1, r4
	ldr	r0, [r5]
	bl	USB_ReadChInterrupts
.LVL100:
	.loc 1 1271 11
	tst	r0, #8
	beq	.L81
	.loc 1 1273 5 is_stmt 1
	.loc 1 1273 60 is_stmt 0
	add	r3, r6, r4, lsl #5
	.loc 1 1273 92
	movs	r2, #8
	str	r2, [r3, #1288]
	.loc 1 1274 5 is_stmt 1
	.loc 1 1274 27 is_stmt 0
	rsb	r3, r4, r4, lsl #4
	add	r3, r5, r3, lsl #2
	movs	r2, #6
	strb	r2, [r3, #77]
	.loc 1 1275 5 is_stmt 1
	.loc 1 1275 11 is_stmt 0
	mov	r1, r4
	ldr	r0, [r5]
	bl	USB_HC_Halt
.LVL101:
	b	.L79
.L81:
	.loc 1 1277 8 is_stmt 1
	.loc 1 1277 14 is_stmt 0
	mov	r1, r4
	ldr	r0, [r5]
	bl	USB_ReadChInterrupts
.LVL102:
	.loc 1 1277 11
	tst	r0, #1024
	beq	.L82
	.loc 1 1279 5 is_stmt 1
	.loc 1 1279 60 is_stmt 0
	add	r3, r6, r4, lsl #5
	.loc 1 1279 92
	mov	r2, #1024
	str	r2, [r3, #1288]
	.loc 1 1280 5 is_stmt 1
	.loc 1 1280 27 is_stmt 0
	rsb	r3, r4, r4, lsl #4
	add	r3, r5, r3, lsl #2
	movs	r2, #9
	strb	r2, [r3, #77]
	.loc 1 1281 5 is_stmt 1
	.loc 1 1281 11 is_stmt 0
	mov	r1, r4
	ldr	r0, [r5]
	bl	USB_HC_Halt
.LVL103:
	b	.L79
.L82:
	.loc 1 1283 8 is_stmt 1
	.loc 1 1283 14 is_stmt 0
	mov	r1, r4
	ldr	r0, [r5]
	bl	USB_ReadChInterrupts
.LVL104:
	.loc 1 1283 11
	tst	r0, #128
	beq	.L79
	.loc 1 1285 5 is_stmt 1
	.loc 1 1285 60 is_stmt 0
	add	r3, r6, r4, lsl #5
	.loc 1 1285 92
	movs	r2, #128
	str	r2, [r3, #1288]
	.loc 1 1286 5 is_stmt 1
	.loc 1 1286 27 is_stmt 0
	rsb	r3, r4, r4, lsl #4
	add	r3, r5, r3, lsl #2
	movs	r2, #7
	strb	r2, [r3, #77]
	.loc 1 1287 5 is_stmt 1
	.loc 1 1287 11 is_stmt 0
	mov	r1, r4
	ldr	r0, [r5]
	bl	USB_HC_Halt
.LVL105:
	b	.L79
.L83:
	.loc 1 1299 8 is_stmt 1
	.loc 1 1299 14 is_stmt 0
	mov	r1, r4
	ldr	r0, [r5]
	bl	USB_ReadChInterrupts
.LVL106:
	.loc 1 1299 11
	tst	r0, #1
	beq	.L85
	.loc 1 1302 5 is_stmt 1
	.loc 1 1302 60 is_stmt 0
	add	r6, r6, r4, lsl #5
.LVL107:
	add	r7, r6, #1280
	.loc 1 1302 92
	movs	r3, #32
	str	r3, [r7, #8]
	.loc 1 1304 5 is_stmt 1
	.loc 1 1304 24 is_stmt 0
	rsb	r3, r4, r4, lsl #4
	add	r3, r5, r3, lsl #2
	ldrb	r3, [r3, #27]	@ zero_extendqisi2
	.loc 1 1304 8
	cmp	r3, #1
	beq	.L117
.L86:
	.loc 1 1310 5 is_stmt 1
	.loc 1 1310 19 is_stmt 0
	ldrb	r3, [r5, #6]	@ zero_extendqisi2
	.loc 1 1310 8
	cbz	r3, .L87
	.loc 1 1312 7 is_stmt 1
	.loc 1 1312 51 is_stmt 0
	rsb	r3, r4, r4, lsl #4
	add	r3, r5, r3, lsl #2
	ldr	r2, [r3, #48]
	.loc 1 1312 142
	ldr	r1, [r7, #16]
	.loc 1 1312 151
	ubfx	r1, r1, #0, #19
	.loc 1 1312 61
	subs	r2, r2, r1
	.loc 1 1312 34
	str	r2, [r3, #56]
.L87:
	.loc 1 1315 5 is_stmt 1
	.loc 1 1315 27 is_stmt 0
	rsb	r3, r4, r4, lsl #4
	add	r3, r5, r3, lsl #2
	movs	r2, #1
	strb	r2, [r3, #77]
	.loc 1 1316 5 is_stmt 1
	.loc 1 1316 28 is_stmt 0
	movs	r1, #0
	str	r1, [r3, #68]
	.loc 1 1317 5 is_stmt 1
	.loc 1 1317 92 is_stmt 0
	str	r2, [r7, #8]
	.loc 1 1319 5 is_stmt 1
	.loc 1 1319 25 is_stmt 0
	ldrb	r3, [r3, #38]	@ zero_extendqisi2
	.loc 1 1319 8
	cmp	r3, #2
	it	ne
	cmpne	r3, r1
	beq	.L118
	.loc 1 1325 10 is_stmt 1
	.loc 1 1325 13 is_stmt 0
	cmp	r3, #1
	it	ne
	cmpne	r3, #3
	beq	.L119
.L89:
	.loc 1 1340 5 is_stmt 1
	.loc 1 1342 5
	.loc 1 1342 19 is_stmt 0
	ldrb	r3, [r5, #6]	@ zero_extendqisi2
	.loc 1 1342 8
	cmp	r3, #1
	beq	.L120
	.loc 1 1351 7 is_stmt 1
	.loc 1 1351 22 is_stmt 0
	rsb	r3, r4, r4, lsl #4
	add	r3, r5, r3, lsl #2
	ldrb	r3, [r3, #60]	@ zero_extendqisi2
	.loc 1 1351 33
	rsb	r4, r4, r4, lsl #4
	add	r4, r5, r4, lsl #2
	eor	r3, r3, #1
	strb	r3, [r4, #60]
	b	.L77
.L117:
	.loc 1 1306 7 is_stmt 1
	.loc 1 1306 33 is_stmt 0
	rsb	r3, r4, r4, lsl #4
	add	r3, r5, r3, lsl #2
	movs	r2, #0
	strb	r2, [r3, #27]
	.loc 1 1307 7 is_stmt 1
	.loc 1 1307 86 is_stmt 0
	ldr	r3, [r7, #4]
	.loc 1 1307 95
	bic	r3, r3, #65536
	str	r3, [r7, #4]
	b	.L86
.L118:
	.loc 1 1322 7 is_stmt 1
	.loc 1 1322 13 is_stmt 0
	mov	r1, r4
	ldr	r0, [r5]
	bl	USB_HC_Halt
.LVL108:
	.loc 1 1323 7 is_stmt 1
	.loc 1 1323 94 is_stmt 0
	movs	r3, #16
	str	r3, [r7, #8]
	b	.L89
.L119:
	.loc 1 1328 7 is_stmt 1
	.loc 1 1328 85 is_stmt 0
	ldr	r3, [r6, #1280]
	.loc 1 1328 94
	orr	r3, r3, #536870912
	str	r3, [r6, #1280]
	.loc 1 1329 7 is_stmt 1
	.loc 1 1329 33 is_stmt 0
	rsb	r3, r4, r4, lsl #4
	add	r3, r5, r3, lsl #2
	movs	r2, #1
	strb	r2, [r3, #76]
	.loc 1 1334 7 is_stmt 1
	mov	r1, r4
	mov	r0, r5
	bl	HAL_HCD_HC_NotifyURBChange_Callback
.LVL109:
	b	.L89
.L120:
	.loc 1 1344 7
	.loc 1 1344 29 is_stmt 0
	rsb	r2, r4, r4, lsl #4
	add	r2, r5, r2, lsl #2
	ldr	r3, [r2, #56]
	.loc 1 1344 58
	ldrh	r2, [r2, #40]
	.loc 1 1344 41
	add	r3, r3, r2
	.loc 1 1344 70
	subs	r3, r3, #1
	.loc 1 1344 76
	udiv	r3, r3, r2
	.loc 1 1344 10
	tst	r3, #1
	beq	.L77
	.loc 1 1346 9 is_stmt 1
	.loc 1 1346 24 is_stmt 0
	rsb	r3, r4, r4, lsl #4
	add	r3, r5, r3, lsl #2
	ldrb	r3, [r3, #60]	@ zero_extendqisi2
	.loc 1 1346 35
	rsb	r4, r4, r4, lsl #4
	add	r4, r5, r4, lsl #2
	eor	r3, r3, #1
	strb	r3, [r4, #60]
	b	.L77
.LVL110:
.L85:
	.loc 1 1354 8 is_stmt 1
	.loc 1 1354 14 is_stmt 0
	mov	r1, r4
	ldr	r0, [r5]
	bl	USB_ReadChInterrupts
.LVL111:
	.loc 1 1354 11
	tst	r0, #32
	beq	.L91
	.loc 1 1356 5 is_stmt 1
	.loc 1 1356 60 is_stmt 0
	add	r6, r6, r4, lsl #5
.LVL112:
	.loc 1 1356 92
	movs	r3, #32
	str	r3, [r6, #1288]
	.loc 1 1358 5 is_stmt 1
	.loc 1 1358 24 is_stmt 0
	rsb	r3, r4, r4, lsl #4
	add	r3, r5, r3, lsl #2
	ldrb	r3, [r3, #26]	@ zero_extendqisi2
	.loc 1 1358 8
	cmp	r3, #1
	bne	.L77
	.loc 1 1360 7 is_stmt 1
	.loc 1 1360 33 is_stmt 0
	rsb	r3, r4, r4, lsl #4
	add	r3, r5, r3, lsl #2
	movs	r2, #1
	strb	r2, [r3, #27]
	.loc 1 1361 7 is_stmt 1
	.loc 1 1361 29 is_stmt 0
	rsb	r3, r4, r4, lsl #4
	add	r3, r5, r3, lsl #2
	movs	r2, #3
	strb	r2, [r3, #77]
	.loc 1 1363 7 is_stmt 1
	.loc 1 1363 13 is_stmt 0
	mov	r1, r4
	ldr	r0, [r5]
	bl	USB_HC_Halt
.LVL113:
	b	.L77
.LVL114:
.L91:
	.loc 1 1366 8 is_stmt 1
	.loc 1 1366 14 is_stmt 0
	mov	r1, r4
	ldr	r0, [r5]
	bl	USB_ReadChInterrupts
.LVL115:
	.loc 1 1366 11
	tst	r0, #2
	beq	.L92
	.loc 1 1368 5 is_stmt 1
	.loc 1 1368 60 is_stmt 0
	add	r6, r6, r4, lsl #5
.LVL116:
	add	r2, r6, #1280
	.loc 1 1368 92
	movs	r3, #2
	str	r3, [r2, #8]
	.loc 1 1370 5 is_stmt 1
	.loc 1 1370 24 is_stmt 0
	rsb	r3, r4, r4, lsl #4
	add	r3, r5, r3, lsl #2
	ldrb	r3, [r3, #77]	@ zero_extendqisi2
	.loc 1 1370 8
	cmp	r3, #1
	beq	.L121
	.loc 1 1375 10 is_stmt 1
	subs	r3, r3, #2
	cmp	r3, #7
	bhi	.L94
	adr	r1, .L96
	ldr	pc, [r1, r3, lsl #2]
	.p2align 2
.L96:
	.word	.L77+1
	.word	.L101+1
	.word	.L100+1
	.word	.L99+1
	.word	.L98+1
	.word	.L95+1
	.word	.L97+1
	.word	.L95+1
	.p2align 1
.L121:
	.loc 1 1372 7
	.loc 1 1372 29 is_stmt 0
	rsb	r3, r4, r4, lsl #4
	add	r3, r5, r3, lsl #2
	movs	r2, #2
	strb	r2, [r3, #77]
	.loc 1 1373 7 is_stmt 1
	.loc 1 1373 33 is_stmt 0
	movs	r2, #1
	strb	r2, [r3, #76]
.L94:
	.loc 1 1511 5 is_stmt 1
	rsb	r3, r4, r4, lsl #4
	add	r3, r5, r3, lsl #2
	ldrb	r2, [r3, #76]	@ zero_extendqisi2
	mov	r1, r4
	mov	r0, r5
	bl	HAL_HCD_HC_NotifyURBChange_Callback
.LVL117:
	b	.L77
.L98:
	.loc 1 1377 7
	.loc 1 1377 29 is_stmt 0
	rsb	r3, r4, r4, lsl #4
	add	r3, r5, r3, lsl #2
	movs	r2, #2
	strb	r2, [r3, #77]
	.loc 1 1378 7 is_stmt 1
	.loc 1 1378 33 is_stmt 0
	movs	r2, #5
	strb	r2, [r3, #76]
	b	.L94
.L95:
	.loc 1 1383 7 is_stmt 1
	.loc 1 1383 29 is_stmt 0
	rsb	r3, r4, r4, lsl #4
	add	r3, r5, r3, lsl #2
	movs	r1, #2
	strb	r1, [r3, #77]
	.loc 1 1384 7 is_stmt 1
	.loc 1 1384 22 is_stmt 0
	ldr	r1, [r3, #68]
	.loc 1 1384 29
	adds	r1, r1, #1
	str	r1, [r3, #68]
	.loc 1 1385 7 is_stmt 1
	.loc 1 1385 10 is_stmt 0
	cmp	r1, #2
	bls	.L102
	.loc 1 1387 9 is_stmt 1
	.loc 1 1387 32 is_stmt 0
	rsb	r3, r4, r4, lsl #4
	add	r3, r5, r3, lsl #2
	movs	r1, #0
	str	r1, [r3, #68]
	.loc 1 1389 9 is_stmt 1
	.loc 1 1389 28 is_stmt 0
	ldrb	r3, [r3, #26]	@ zero_extendqisi2
	.loc 1 1389 12
	cmp	r3, #1
	beq	.L122
.L103:
	.loc 1 1396 9 is_stmt 1
	.loc 1 1396 35 is_stmt 0
	rsb	r3, r4, r4, lsl #4
	add	r3, r5, r3, lsl #2
	movs	r2, #4
	strb	r2, [r3, #76]
	b	.L94
.L122:
	.loc 1 1391 11 is_stmt 1
	.loc 1 1391 37 is_stmt 0
	movs	r3, #60
	mla	r3, r3, r4, r5
	strb	r1, [r3, #27]
	.loc 1 1392 11 is_stmt 1
	.loc 1 1392 42 is_stmt 0
	strb	r1, [r3, #28]
	.loc 1 1393 11 is_stmt 1
	.loc 1 1393 90 is_stmt 0
	ldr	r3, [r2, #4]
	.loc 1 1393 99
	bic	r3, r3, #65536
	str	r3, [r2, #4]
	b	.L103
.L102:
	.loc 1 1400 9 is_stmt 1
	.loc 1 1400 35 is_stmt 0
	rsb	r3, r4, r4, lsl #4
	add	r3, r5, r3, lsl #2
	movs	r2, #2
	strb	r2, [r3, #76]
	.loc 1 1402 9 is_stmt 1
	.loc 1 1402 29 is_stmt 0
	ldrb	r3, [r3, #38]	@ zero_extendqisi2
	.loc 1 1402 12
	cmp	r3, r2
	it	ne
	cmpne	r3, #0
	bne	.L94
	.loc 1 1406 11 is_stmt 1
	.loc 1 1406 18 is_stmt 0
	ldr	r3, [r6, #1280]
.LVL118:
	.loc 1 1407 11 is_stmt 1
	.loc 1 1407 18 is_stmt 0
	bic	r3, r3, #1073741824
.LVL119:
	.loc 1 1408 11 is_stmt 1
	.loc 1 1408 18 is_stmt 0
	orr	r3, r3, #-2147483648
.LVL120:
	.loc 1 1409 11 is_stmt 1
	.loc 1 1409 98 is_stmt 0
	str	r3, [r6, #1280]
	b	.L94
.LVL121:
.L99:
	.loc 1 1415 7 is_stmt 1
	.loc 1 1415 29 is_stmt 0
	rsb	r3, r4, r4, lsl #4
	add	r3, r5, r3, lsl #2
	movs	r1, #2
	strb	r1, [r3, #77]
	.loc 1 1417 7 is_stmt 1
	.loc 1 1417 26 is_stmt 0
	ldrb	r3, [r3, #27]	@ zero_extendqisi2
	.loc 1 1417 10
	cmp	r3, #1
	bne	.L94
	.loc 1 1419 9 is_stmt 1
	.loc 1 1419 28 is_stmt 0
	rsb	r3, r4, r4, lsl #4
	add	r3, r5, r3, lsl #2
	ldrb	r3, [r3, #38]	@ zero_extendqisi2
	.loc 1 1419 12
	cmp	r3, #3
	beq	.L123
	.loc 1 1441 11 is_stmt 1
	.loc 1 1441 37 is_stmt 0
	movs	r3, #60
	mla	r3, r3, r4, r5
	movs	r2, #2
	strb	r2, [r3, #76]
.L107:
	.loc 1 1444 9 is_stmt 1
	.loc 1 1444 29 is_stmt 0
	rsb	r3, r4, r4, lsl #4
	add	r3, r5, r3, lsl #2
	ldrb	r3, [r3, #38]	@ zero_extendqisi2
	.loc 1 1444 12
	cmp	r3, #2
	it	ne
	cmpne	r3, #0
	bne	.L94
	.loc 1 1448 11 is_stmt 1
	.loc 1 1448 18 is_stmt 0
	ldr	r3, [r6, #1280]
.LVL122:
	.loc 1 1449 11 is_stmt 1
	.loc 1 1449 18 is_stmt 0
	bic	r3, r3, #1073741824
.LVL123:
	.loc 1 1450 11 is_stmt 1
	.loc 1 1450 18 is_stmt 0
	orr	r3, r3, #-2147483648
.LVL124:
	.loc 1 1451 11 is_stmt 1
	.loc 1 1451 98 is_stmt 0
	str	r3, [r6, #1280]
	b	.L94
.LVL125:
.L123:
	.loc 1 1421 11 is_stmt 1
	.loc 1 1421 26 is_stmt 0
	movs	r1, #60
	mla	r1, r1, r4, r5
	ldr	r3, [r1, #72]
	.loc 1 1421 37
	adds	r3, r3, #1
	str	r3, [r1, #72]
	.loc 1 1422 11 is_stmt 1
	.loc 1 1422 14 is_stmt 0
	cmp	r3, #2
	bls	.L105
	.loc 1 1424 13 is_stmt 1
	.loc 1 1424 40 is_stmt 0
	mov	r3, r1
	movs	r1, #0
	str	r1, [r3, #72]
	.loc 1 1425 13 is_stmt 1
	.loc 1 1425 39 is_stmt 0
	strb	r1, [r3, #27]
	.loc 1 1427 13 is_stmt 1
	.loc 1 1427 32 is_stmt 0
	ldr	r3, [r3, #68]
	.loc 1 1427 16
	cmp	r3, #2
	bhi	.L106
	.loc 1 1429 15 is_stmt 1
	.loc 1 1429 46 is_stmt 0
	movs	r3, #60
	mla	r3, r3, r4, r5
	movs	r1, #1
	strb	r1, [r3, #28]
.L106:
	.loc 1 1431 13 is_stmt 1
	.loc 1 1431 92 is_stmt 0
	ldr	r3, [r2, #4]
	.loc 1 1431 101
	bic	r3, r3, #65536
	str	r3, [r2, #4]
	.loc 1 1432 13 is_stmt 1
	.loc 1 1432 39 is_stmt 0
	movs	r3, #60
	mla	r3, r3, r4, r5
	movs	r2, #4
	strb	r2, [r3, #76]
	b	.L107
.L105:
	.loc 1 1436 13 is_stmt 1
	.loc 1 1436 39 is_stmt 0
	movs	r3, #60
	mla	r3, r3, r4, r5
	movs	r2, #2
	strb	r2, [r3, #76]
	b	.L107
.L101:
	.loc 1 1457 7 is_stmt 1
	.loc 1 1457 29 is_stmt 0
	rsb	r3, r4, r4, lsl #4
	add	r3, r5, r3, lsl #2
	movs	r1, #2
	strb	r1, [r3, #77]
	.loc 1 1459 7 is_stmt 1
	.loc 1 1459 26 is_stmt 0
	ldrb	r3, [r3, #27]	@ zero_extendqisi2
	.loc 1 1459 10
	cmp	r3, #1
	bne	.L94
	.loc 1 1461 9 is_stmt 1
	.loc 1 1461 35 is_stmt 0
	rsb	r3, r4, r4, lsl #4
	add	r3, r5, r3, lsl #2
	strb	r1, [r3, #76]
	.loc 1 1464 9 is_stmt 1
	.loc 1 1464 87 is_stmt 0
	ldr	r1, [r2, #4]
	.loc 1 1464 96
	orr	r1, r1, #65536
	str	r1, [r2, #4]
	.loc 1 1465 9 is_stmt 1
	.loc 1 1465 87 is_stmt 0
	ldr	r1, [r2, #12]
	.loc 1 1465 98
	orr	r1, r1, #64
	str	r1, [r2, #12]
	.loc 1 1466 9 is_stmt 1
	.loc 1 1466 87 is_stmt 0
	ldr	r1, [r2, #12]
	.loc 1 1466 98
	bic	r1, r1, #32
	str	r1, [r2, #12]
	.loc 1 1468 9 is_stmt 1
	.loc 1 1468 29 is_stmt 0
	ldrb	r3, [r3, #38]	@ zero_extendqisi2
	.loc 1 1468 12
	cmp	r3, #2
	it	ne
	cmpne	r3, #0
	bne	.L94
	.loc 1 1472 11 is_stmt 1
	.loc 1 1472 18 is_stmt 0
	ldr	r3, [r6, #1280]
.LVL126:
	.loc 1 1473 11 is_stmt 1
	.loc 1 1473 18 is_stmt 0
	bic	r3, r3, #1073741824
.LVL127:
	.loc 1 1474 11 is_stmt 1
	.loc 1 1474 18 is_stmt 0
	orr	r3, r3, #-2147483648
.LVL128:
	.loc 1 1475 11 is_stmt 1
	.loc 1 1475 98 is_stmt 0
	str	r3, [r6, #1280]
	b	.L94
.LVL129:
.L100:
	.loc 1 1481 7 is_stmt 1
	.loc 1 1481 29 is_stmt 0
	rsb	r3, r4, r4, lsl #4
	add	r3, r5, r3, lsl #2
	movs	r2, #2
	strb	r2, [r3, #77]
	.loc 1 1482 7 is_stmt 1
	.loc 1 1482 33 is_stmt 0
	strb	r2, [r3, #76]
	.loc 1 1484 7 is_stmt 1
	.loc 1 1484 27 is_stmt 0
	ldrb	r3, [r3, #38]	@ zero_extendqisi2
	.loc 1 1484 10
	cmp	r3, r2
	it	ne
	cmpne	r3, #0
	bne	.L94
	.loc 1 1488 9 is_stmt 1
	.loc 1 1488 16 is_stmt 0
	ldr	r3, [r6, #1280]
.LVL130:
	.loc 1 1489 9 is_stmt 1
	.loc 1 1489 16 is_stmt 0
	bic	r3, r3, #1073741824
.LVL131:
	.loc 1 1490 9 is_stmt 1
	.loc 1 1490 16 is_stmt 0
	orr	r3, r3, #-2147483648
.LVL132:
	.loc 1 1491 9 is_stmt 1
	.loc 1 1491 96 is_stmt 0
	str	r3, [r6, #1280]
	b	.L94
.LVL133:
.L97:
	.loc 1 1496 7 is_stmt 1
	.loc 1 1496 29 is_stmt 0
	rsb	r3, r4, r4, lsl #4
	add	r3, r5, r3, lsl #2
	movs	r2, #2
	strb	r2, [r3, #77]
	.loc 1 1497 7 is_stmt 1
	.loc 1 1497 22 is_stmt 0
	ldr	r2, [r3, #68]
	.loc 1 1497 29
	adds	r2, r2, #1
	str	r2, [r3, #68]
	.loc 1 1498 7 is_stmt 1
	.loc 1 1498 33 is_stmt 0
	movs	r2, #4
	strb	r2, [r3, #76]
	b	.L94
.LVL134:
.L92:
	.loc 1 1514 8 is_stmt 1
	.loc 1 1514 14 is_stmt 0
	mov	r1, r4
	ldr	r0, [r5]
	bl	USB_ReadChInterrupts
.LVL135:
	.loc 1 1514 11
	tst	r0, #64
	beq	.L108
	.loc 1 1516 5 is_stmt 1
	.loc 1 1516 60 is_stmt 0
	add	r3, r6, r4, lsl #5
	.loc 1 1516 92
	movs	r2, #64
	str	r2, [r3, #1288]
	.loc 1 1517 5 is_stmt 1
	.loc 1 1517 27 is_stmt 0
	rsb	r3, r4, r4, lsl #4
	add	r3, r5, r3, lsl #2
	movs	r2, #5
	strb	r2, [r3, #77]
	.loc 1 1519 5 is_stmt 1
	.loc 1 1519 24 is_stmt 0
	ldrb	r3, [r3, #26]	@ zero_extendqisi2
	.loc 1 1519 8
	cbnz	r3, .L109
	.loc 1 1521 7 is_stmt 1
	.loc 1 1521 30 is_stmt 0
	rsb	r3, r4, r4, lsl #4
	add	r3, r5, r3, lsl #2
	movs	r2, #0
	str	r2, [r3, #68]
.L109:
	.loc 1 1524 5 is_stmt 1
	.loc 1 1524 11 is_stmt 0
	mov	r1, r4
	ldr	r0, [r5]
	bl	USB_HC_Halt
.LVL136:
	b	.L77
.L108:
	.loc 1 1526 8 is_stmt 1
	.loc 1 1526 14 is_stmt 0
	mov	r1, r4
	ldr	r0, [r5]
	bl	USB_ReadChInterrupts
.LVL137:
	.loc 1 1526 11
	tst	r0, #16
	beq	.L77
	.loc 1 1528 5 is_stmt 1
	.loc 1 1528 24 is_stmt 0
	rsb	r3, r4, r4, lsl #4
	add	r3, r5, r3, lsl #2
	ldrb	r3, [r3, #38]	@ zero_extendqisi2
	.loc 1 1528 8
	cmp	r3, #3
	beq	.L124
	.loc 1 1534 10 is_stmt 1
	.loc 1 1534 13 is_stmt 0
	cmp	r3, #2
	it	ne
	cmpne	r3, #0
	bne	.L111
	.loc 1 1537 7 is_stmt 1
	.loc 1 1537 30 is_stmt 0
	rsb	r3, r4, r4, lsl #4
	add	r3, r5, r3, lsl #2
	movs	r2, #0
	str	r2, [r3, #68]
	.loc 1 1539 7 is_stmt 1
	.loc 1 1539 22 is_stmt 0
	ldrb	r3, [r5, #6]	@ zero_extendqisi2
	.loc 1 1539 10
	cbz	r3, .L112
	.loc 1 1539 60 discriminator 1
	movs	r3, #60
	mla	r3, r3, r4, r5
	ldrb	r3, [r3, #27]	@ zero_extendqisi2
	.loc 1 1539 41 discriminator 1
	cmp	r3, #1
	bne	.L111
.L112:
	.loc 1 1541 9 is_stmt 1
	.loc 1 1541 31 is_stmt 0
	movs	r3, #60
	mla	r3, r3, r4, r5
	movs	r2, #4
	strb	r2, [r3, #77]
	.loc 1 1542 9 is_stmt 1
	.loc 1 1542 15 is_stmt 0
	mov	r1, r4
	ldr	r0, [r5]
	bl	USB_HC_Halt
.LVL138:
.L111:
	.loc 1 1548 5 is_stmt 1
	.loc 1 1550 5
	.loc 1 1550 24 is_stmt 0
	rsb	r3, r4, r4, lsl #4
	add	r3, r5, r3, lsl #2
	ldrb	r3, [r3, #27]	@ zero_extendqisi2
	.loc 1 1550 8
	cmp	r3, #1
	beq	.L125
.LVL139:
.L113:
	.loc 1 1557 5 is_stmt 1
	.loc 1 1557 60 is_stmt 0
	add	r3, r6, r4, lsl #5
	.loc 1 1557 92
	movs	r2, #16
	str	r2, [r3, #1288]
	.loc 1 1562 3 is_stmt 1
	b	.L77
.LVL140:
.L124:
	.loc 1 1530 7
	.loc 1 1530 30 is_stmt 0
	movs	r3, #60
	mla	r3, r3, r4, r5
	movs	r2, #0
	str	r2, [r3, #68]
	.loc 1 1531 7 is_stmt 1
	.loc 1 1531 29 is_stmt 0
	movs	r2, #4
	strb	r2, [r3, #77]
	.loc 1 1532 7 is_stmt 1
	.loc 1 1532 13 is_stmt 0
	mov	r1, r4
	ldr	r0, [r5]
	bl	USB_HC_Halt
.LVL141:
	b	.L111
.L125:
	.loc 1 1552 7 is_stmt 1
	.loc 1 1552 33 is_stmt 0
	rsb	r3, r4, r4, lsl #4
	add	r5, r5, r3, lsl #2
.LVL142:
	movs	r3, #0
	strb	r3, [r5, #27]
	.loc 1 1553 7 is_stmt 1
	.loc 1 1553 86 is_stmt 0
	add	r3, r6, r4, lsl #5
	ldr	r2, [r3, #1284]
	.loc 1 1553 95
	bic	r2, r2, #65536
	str	r2, [r3, #1284]
	.loc 1 1554 7 is_stmt 1
	.loc 1 1554 86 is_stmt 0
	ldr	r2, [r3, #1292]
	.loc 1 1554 97
	orr	r2, r2, #32
	str	r2, [r3, #1292]
	b	.L113
	.cfi_endproc
.LFE360:
	.size	HCD_HC_IN_IRQHandler, .-HCD_HC_IN_IRQHandler
	.section	.text.HCD_HC_OUT_IRQHandler,"ax",%progbits
	.align	1
	.syntax unified
	.thumb
	.thumb_func
	.type	HCD_HC_OUT_IRQHandler, %function
HCD_HC_OUT_IRQHandler:
.LFB361:
	.loc 1 1573 1 is_stmt 1
	.cfi_startproc
	@ args = 0, pretend = 0, frame = 0
	@ frame_needed = 0, uses_anonymous_args = 0
.LVL143:
	push	{r4, r5, r6, lr}
	.cfi_def_cfa_offset 16
	.cfi_offset 4, -16
	.cfi_offset 5, -12
	.cfi_offset 6, -8
	.cfi_offset 14, -4
	mov	r5, r0
	mov	r4, r1
	.loc 1 1574 3
	.loc 1 1574 32 is_stmt 0
	ldr	r6, [r0]
.LVL144:
	.loc 1 1575 3 is_stmt 1
	.loc 1 1576 3
	.loc 1 1577 3
	.loc 1 1579 3
	.loc 1 1579 9 is_stmt 0
	mov	r0, r6
.LVL145:
	bl	USB_ReadChInterrupts
.LVL146:
	.loc 1 1579 6
	tst	r0, #4
	beq	.L127
	.loc 1 1581 5 is_stmt 1
	.loc 1 1581 60 is_stmt 0
	add	r6, r6, r4, lsl #5
.LVL147:
	.loc 1 1581 92
	movs	r3, #4
	str	r3, [r6, #1288]
	.loc 1 1582 5 is_stmt 1
	.loc 1 1582 27 is_stmt 0
	rsb	r3, r4, r4, lsl #4
	add	r3, r5, r3, lsl #2
	movs	r2, #7
	strb	r2, [r3, #77]
	.loc 1 1583 5 is_stmt 1
	.loc 1 1583 11 is_stmt 0
	mov	r1, r4
	ldr	r0, [r5]
	bl	USB_HC_Halt
.LVL148:
.L126:
	.loc 1 1800 1
	pop	{r4, r5, r6, pc}
.LVL149:
.L127:
	.loc 1 1585 8 is_stmt 1
	.loc 1 1585 14 is_stmt 0
	mov	r1, r4
	ldr	r0, [r5]
	bl	USB_ReadChInterrupts
.LVL150:
	.loc 1 1585 11
	tst	r0, #32
	beq	.L129
	.loc 1 1587 5 is_stmt 1
	.loc 1 1587 60 is_stmt 0
	add	r6, r6, r4, lsl #5
.LVL151:
	.loc 1 1587 92
	movs	r3, #32
	str	r3, [r6, #1288]
	.loc 1 1589 5 is_stmt 1
	.loc 1 1589 24 is_stmt 0
	rsb	r3, r4, r4, lsl #4
	add	r3, r5, r3, lsl #2
	ldrb	r3, [r3, #25]	@ zero_extendqisi2
	.loc 1 1589 8
	cmp	r3, #1
	beq	.L158
.L130:
	.loc 1 1597 5 is_stmt 1
	.loc 1 1597 25 is_stmt 0
	rsb	r3, r4, r4, lsl #4
	add	r3, r5, r3, lsl #2
	ldrb	r3, [r3, #26]	@ zero_extendqisi2
	.loc 1 1597 8
	cmp	r3, #1
	bne	.L126
	.loc 1 1597 62 discriminator 1
	rsb	r3, r4, r4, lsl #4
	add	r3, r5, r3, lsl #2
	ldrb	r3, [r3, #27]	@ zero_extendqisi2
	.loc 1 1597 43 discriminator 1
	cmp	r3, #0
	bne	.L126
	.loc 1 1599 7 is_stmt 1
	.loc 1 1599 26 is_stmt 0
	rsb	r3, r4, r4, lsl #4
	add	r3, r5, r3, lsl #2
	ldrb	r3, [r3, #38]	@ zero_extendqisi2
	.loc 1 1599 10
	cmp	r3, #1
	beq	.L131
	.loc 1 1601 9 is_stmt 1
	.loc 1 1601 35 is_stmt 0
	rsb	r3, r4, r4, lsl #4
	add	r3, r5, r3, lsl #2
	movs	r2, #1
	strb	r2, [r3, #27]
.L131:
	.loc 1 1604 7 is_stmt 1
	.loc 1 1604 29 is_stmt 0
	lsls	r6, r4, #4
	rsb	r3, r4, r4, lsl #4
	add	r3, r5, r3, lsl #2
	movs	r2, #3
	strb	r2, [r3, #77]
	.loc 1 1605 7 is_stmt 1
	.loc 1 1605 13 is_stmt 0
	mov	r1, r4
	ldr	r0, [r5]
	bl	USB_HC_Halt
.LVL152:
	.loc 1 1608 7 is_stmt 1
	.loc 1 1608 30 is_stmt 0
	subs	r6, r6, r4
	add	r6, r5, r6, lsl #2
	movs	r3, #0
	str	r3, [r6, #68]
	b	.L126
.L158:
	.loc 1 1591 7 is_stmt 1
	.loc 1 1591 31 is_stmt 0
	rsb	r3, r4, r4, lsl #4
	add	r3, r5, r3, lsl #2
	movs	r2, #0
	strb	r2, [r3, #25]
	.loc 1 1592 7 is_stmt 1
	.loc 1 1592 33 is_stmt 0
	movs	r2, #2
	strb	r2, [r3, #76]
	.loc 1 1593 7 is_stmt 1
	.loc 1 1593 29 is_stmt 0
	movs	r2, #3
	strb	r2, [r3, #77]
	.loc 1 1594 7 is_stmt 1
	.loc 1 1594 13 is_stmt 0
	mov	r1, r4
	ldr	r0, [r5]
	bl	USB_HC_Halt
.LVL153:
	b	.L130
.LVL154:
.L129:
	.loc 1 1611 8 is_stmt 1
	.loc 1 1611 14 is_stmt 0
	mov	r1, r4
	ldr	r0, [r5]
	bl	USB_ReadChInterrupts
.LVL155:
	.loc 1 1611 11
	tst	r0, #512
	beq	.L132
	.loc 1 1613 5 is_stmt 1
	.loc 1 1613 60 is_stmt 0
	add	r6, r6, r4, lsl #5
.LVL156:
	.loc 1 1613 92
	mov	r3, #512
	str	r3, [r6, #1288]
	.loc 1 1614 5 is_stmt 1
	.loc 1 1614 11 is_stmt 0
	mov	r1, r4
	ldr	r0, [r5]
	bl	USB_HC_Halt
.LVL157:
	b	.L126
.LVL158:
.L132:
	.loc 1 1616 8 is_stmt 1
	.loc 1 1616 14 is_stmt 0
	mov	r1, r4
	ldr	r0, [r5]
	bl	USB_ReadChInterrupts
.LVL159:
	.loc 1 1616 11
	tst	r0, #1
	beq	.L133
	.loc 1 1618 5 is_stmt 1
	.loc 1 1618 28 is_stmt 0
	rsb	r3, r4, r4, lsl #4
	add	r3, r5, r3, lsl #2
	movs	r2, #0
	str	r2, [r3, #68]
	.loc 1 1621 5 is_stmt 1
	.loc 1 1621 11 is_stmt 0
	mov	r1, r4
	ldr	r0, [r5]
	bl	USB_ReadChInterrupts
.LVL160:
	.loc 1 1621 8
	tst	r0, #64
	beq	.L134
	.loc 1 1623 7 is_stmt 1
	.loc 1 1623 31 is_stmt 0
	rsb	r3, r4, r4, lsl #4
	add	r3, r5, r3, lsl #2
	movs	r2, #1
	strb	r2, [r3, #25]
	.loc 1 1624 7 is_stmt 1
	.loc 1 1624 62 is_stmt 0
	add	r3, r6, r4, lsl #5
	.loc 1 1624 94
	movs	r2, #64
	str	r2, [r3, #1288]
.L134:
	.loc 1 1627 5 is_stmt 1
	.loc 1 1627 24 is_stmt 0
	rsb	r3, r4, r4, lsl #4
	add	r3, r5, r3, lsl #2
	ldrb	r3, [r3, #27]	@ zero_extendqisi2
	.loc 1 1627 8
	cbz	r3, .L135
	.loc 1 1629 7 is_stmt 1
	.loc 1 1629 33 is_stmt 0
	rsb	r3, r4, r4, lsl #4
	add	r3, r5, r3, lsl #2
	movs	r2, #0
	strb	r2, [r3, #27]
	.loc 1 1630 7 is_stmt 1
	.loc 1 1630 86 is_stmt 0
	add	r3, r6, r4, lsl #5
	ldr	r2, [r3, #1284]
	.loc 1 1630 95
	bic	r2, r2, #65536
	str	r2, [r3, #1284]
.L135:
	.loc 1 1633 5 is_stmt 1
	.loc 1 1633 60 is_stmt 0
	add	r6, r6, r4, lsl #5
.LVL161:
	.loc 1 1633 92
	movs	r2, #1
	str	r2, [r6, #1288]
	.loc 1 1634 5 is_stmt 1
	.loc 1 1634 27 is_stmt 0
	rsb	r3, r4, r4, lsl #4
	add	r3, r5, r3, lsl #2
	strb	r2, [r3, #77]
	.loc 1 1635 5 is_stmt 1
	.loc 1 1635 11 is_stmt 0
	mov	r1, r4
	ldr	r0, [r5]
	bl	USB_HC_Halt
.LVL162:
	b	.L126
.LVL163:
.L133:
	.loc 1 1637 8 is_stmt 1
	.loc 1 1637 14 is_stmt 0
	mov	r1, r4
	ldr	r0, [r5]
	bl	USB_ReadChInterrupts
.LVL164:
	.loc 1 1637 11
	tst	r0, #64
	beq	.L136
	.loc 1 1639 5 is_stmt 1
	.loc 1 1639 27 is_stmt 0
	rsb	r3, r4, r4, lsl #4
	add	r3, r5, r3, lsl #2
	movs	r2, #5
	strb	r2, [r3, #77]
	.loc 1 1641 5 is_stmt 1
	.loc 1 1641 24 is_stmt 0
	ldrb	r3, [r3, #26]	@ zero_extendqisi2
	.loc 1 1641 8
	cbnz	r3, .L137
	.loc 1 1643 7 is_stmt 1
	.loc 1 1643 31 is_stmt 0
	rsb	r3, r4, r4, lsl #4
	add	r3, r5, r3, lsl #2
	movs	r2, #1
	strb	r2, [r3, #25]
.L137:
	.loc 1 1646 5 is_stmt 1
	.loc 1 1646 28 is_stmt 0
	rsb	r3, r4, r4, lsl #4
	add	r3, r5, r3, lsl #2
	movs	r2, #0
	str	r2, [r3, #68]
	.loc 1 1647 5 is_stmt 1
	.loc 1 1647 11 is_stmt 0
	mov	r1, r4
	ldr	r0, [r5]
	bl	USB_HC_Halt
.LVL165:
	.loc 1 1648 5 is_stmt 1
	.loc 1 1648 60 is_stmt 0
	add	r6, r6, r4, lsl #5
.LVL166:
	.loc 1 1648 92
	movs	r3, #64
	str	r3, [r6, #1288]
	b	.L126
.LVL167:
.L136:
	.loc 1 1650 8 is_stmt 1
	.loc 1 1650 14 is_stmt 0
	mov	r1, r4
	ldr	r0, [r5]
	bl	USB_ReadChInterrupts
.LVL168:
	.loc 1 1650 11
	tst	r0, #8
	beq	.L138
	.loc 1 1652 5 is_stmt 1
	.loc 1 1652 60 is_stmt 0
	add	r3, r6, r4, lsl #5
	.loc 1 1652 92
	movs	r2, #8
	str	r2, [r3, #1288]
	.loc 1 1653 5 is_stmt 1
	.loc 1 1653 27 is_stmt 0
	rsb	r3, r4, r4, lsl #4
	add	r3, r5, r3, lsl #2
	movs	r2, #6
	strb	r2, [r3, #77]
	.loc 1 1654 5 is_stmt 1
	.loc 1 1654 11 is_stmt 0
	mov	r1, r4
	ldr	r0, [r5]
	bl	USB_HC_Halt
.LVL169:
	b	.L126
.L138:
	.loc 1 1656 8 is_stmt 1
	.loc 1 1656 14 is_stmt 0
	mov	r1, r4
	ldr	r0, [r5]
	bl	USB_ReadChInterrupts
.LVL170:
	.loc 1 1656 11
	tst	r0, #16
	beq	.L139
	.loc 1 1658 5 is_stmt 1
	.loc 1 1658 28 is_stmt 0
	rsb	r3, r4, r4, lsl #4
	add	r3, r5, r3, lsl #2
	movs	r2, #0
	str	r2, [r3, #68]
	.loc 1 1659 5 is_stmt 1
	.loc 1 1659 27 is_stmt 0
	movs	r2, #4
	strb	r2, [r3, #77]
	.loc 1 1661 5 is_stmt 1
	.loc 1 1661 24 is_stmt 0
	ldrb	r3, [r3, #25]	@ zero_extendqisi2
	.loc 1 1661 8
	cbnz	r3, .L140
	.loc 1 1663 7 is_stmt 1
	.loc 1 1663 26 is_stmt 0
	rsb	r3, r4, r4, lsl #4
	add	r3, r5, r3, lsl #2
	ldrb	r3, [r3, #24]	@ zero_extendqisi2
	.loc 1 1663 10
	cbnz	r3, .L140
	.loc 1 1665 9 is_stmt 1
	.loc 1 1665 33 is_stmt 0
	rsb	r3, r4, r4, lsl #4
	add	r3, r5, r3, lsl #2
	movs	r2, #1
	strb	r2, [r3, #25]
.L140:
	.loc 1 1669 5 is_stmt 1
	.loc 1 1669 11 is_stmt 0
	mov	r1, r4
	ldr	r0, [r5]
	bl	USB_HC_Halt
.LVL171:
	.loc 1 1670 5 is_stmt 1
	.loc 1 1670 60 is_stmt 0
	add	r3, r6, r4, lsl #5
	.loc 1 1670 92
	movs	r2, #16
	str	r2, [r3, #1288]
	b	.L126
.L139:
	.loc 1 1672 8 is_stmt 1
	.loc 1 1672 14 is_stmt 0
	mov	r1, r4
	ldr	r0, [r5]
	bl	USB_ReadChInterrupts
.LVL172:
	.loc 1 1672 11
	tst	r0, #128
	beq	.L141
	.loc 1 1674 5 is_stmt 1
	.loc 1 1674 19 is_stmt 0
	ldrb	r3, [r5, #6]	@ zero_extendqisi2
	.loc 1 1674 8
	cbz	r3, .L159
	.loc 1 1681 7 is_stmt 1
	.loc 1 1681 22 is_stmt 0
	rsb	r2, r4, r4, lsl #4
	add	r2, r5, r2, lsl #2
	ldr	r3, [r2, #68]
	.loc 1 1681 29
	adds	r3, r3, #1
	str	r3, [r2, #68]
	.loc 1 1682 7 is_stmt 1
	.loc 1 1682 10 is_stmt 0
	cmp	r3, #2
	bhi	.L160
	.loc 1 1695 9 is_stmt 1
	.loc 1 1695 35 is_stmt 0
	movs	r3, #60
	mla	r3, r3, r4, r5
	movs	r2, #2
	strb	r2, [r3, #76]
.L143:
	.loc 1 1698 5 is_stmt 1
	.loc 1 1698 60 is_stmt 0
	add	r3, r6, r4, lsl #5
	.loc 1 1698 92
	movs	r2, #128
	str	r2, [r3, #1288]
	b	.L126
.L159:
	.loc 1 1676 7 is_stmt 1
	.loc 1 1676 29 is_stmt 0
	movs	r3, #60
	mla	r3, r3, r4, r5
	movs	r2, #7
	strb	r2, [r3, #77]
	.loc 1 1677 7 is_stmt 1
	.loc 1 1677 13 is_stmt 0
	mov	r1, r4
	ldr	r0, [r5]
	bl	USB_HC_Halt
.LVL173:
	b	.L143
.L160:
	.loc 1 1684 9 is_stmt 1
	.loc 1 1684 32 is_stmt 0
	movs	r3, #60
	mla	r3, r3, r4, r5
	movs	r2, #0
	str	r2, [r3, #68]
	.loc 1 1685 9 is_stmt 1
	.loc 1 1685 35 is_stmt 0
	movs	r2, #4
	strb	r2, [r3, #76]
	.loc 1 1690 9 is_stmt 1
	mov	r1, r4
	mov	r0, r5
	bl	HAL_HCD_HC_NotifyURBChange_Callback
.LVL174:
	b	.L143
.L141:
	.loc 1 1700 8
	.loc 1 1700 14 is_stmt 0
	mov	r1, r4
	ldr	r0, [r5]
	bl	USB_ReadChInterrupts
.LVL175:
	.loc 1 1700 11
	tst	r0, #1024
	beq	.L145
	.loc 1 1702 5 is_stmt 1
	.loc 1 1702 27 is_stmt 0
	movs	r3, #60
	mla	r3, r3, r4, r5
	movs	r2, #9
	strb	r2, [r3, #77]
	.loc 1 1703 5 is_stmt 1
	.loc 1 1703 11 is_stmt 0
	mov	r1, r4
	ldr	r0, [r5]
	bl	USB_HC_Halt
.LVL176:
	.loc 1 1704 5 is_stmt 1
	.loc 1 1704 60 is_stmt 0
	add	r3, r6, r4, lsl #5
	.loc 1 1704 92
	mov	r2, #1024
	str	r2, [r3, #1288]
	b	.L126
.L145:
	.loc 1 1706 8 is_stmt 1
	.loc 1 1706 14 is_stmt 0
	mov	r1, r4
	ldr	r0, [r5]
	bl	USB_ReadChInterrupts
.LVL177:
	.loc 1 1706 11
	tst	r0, #2
	beq	.L126
	.loc 1 1708 5 is_stmt 1
	.loc 1 1708 60 is_stmt 0
	add	r6, r6, r4, lsl #5
.LVL178:
	add	r2, r6, #1280
	.loc 1 1708 92
	movs	r3, #2
	str	r3, [r2, #8]
	.loc 1 1710 5 is_stmt 1
	.loc 1 1710 24 is_stmt 0
	movs	r3, #60
	mla	r3, r3, r4, r5
	ldrb	r3, [r3, #77]	@ zero_extendqisi2
	.loc 1 1710 8
	cmp	r3, #1
	beq	.L161
	.loc 1 1734 10 is_stmt 1
	subs	r3, r3, #3
	cmp	r3, #6
	bhi	.L126
	adr	r1, .L150
	ldr	pc, [r1, r3, lsl #2]
	.p2align 2
.L150:
	.word	.L154+1
	.word	.L153+1
	.word	.L152+1
	.word	.L151+1
	.word	.L149+1
	.word	.L126+1
	.word	.L149+1
	.p2align 1
.L161:
	.loc 1 1712 7
	.loc 1 1712 29 is_stmt 0
	movs	r3, #60
	mla	r3, r3, r4, r5
	movs	r2, #2
	strb	r2, [r3, #77]
	.loc 1 1713 7 is_stmt 1
	.loc 1 1713 33 is_stmt 0
	movs	r2, #1
	strb	r2, [r3, #76]
	.loc 1 1715 7 is_stmt 1
	.loc 1 1715 27 is_stmt 0
	ldrb	r3, [r3, #38]	@ zero_extendqisi2
	.loc 1 1715 43
	subs	r3, r3, #2
	uxtb	r3, r3
	.loc 1 1715 10
	cmp	r3, r2
	bls	.L162
.L147:
	.loc 1 1793 5 is_stmt 1
	movs	r3, #60
	mla	r3, r3, r4, r5
	ldrb	r2, [r3, #76]	@ zero_extendqisi2
	mov	r1, r4
	mov	r0, r5
	bl	HAL_HCD_HC_NotifyURBChange_Callback
.LVL179:
	b	.L126
.L162:
	.loc 1 1718 9
	.loc 1 1718 23 is_stmt 0
	ldrb	r1, [r5, #6]	@ zero_extendqisi2
	.loc 1 1718 12
	cbnz	r1, .L148
	.loc 1 1720 11 is_stmt 1
	.loc 1 1720 26 is_stmt 0
	movs	r3, #60
	mla	r3, r3, r4, r5
	ldrb	r2, [r3, #61]	@ zero_extendqisi2
	.loc 1 1720 38
	eor	r2, r2, #1
	strb	r2, [r3, #61]
.L148:
	.loc 1 1723 9 is_stmt 1
	.loc 1 1723 12 is_stmt 0
	cmp	r1, #1
	bne	.L147
	.loc 1 1723 62 discriminator 1
	movs	r3, #60
	mla	r3, r3, r4, r5
	ldr	r3, [r3, #52]
	.loc 1 1723 43 discriminator 1
	cmp	r3, #0
	beq	.L147
	.loc 1 1725 11 is_stmt 1
	.loc 1 1725 68 is_stmt 0
	movs	r2, #60
	mla	r2, r2, r4, r5
	ldrh	r2, [r2, #40]
	.loc 1 1725 51
	add	r3, r3, r2
	.loc 1 1725 80
	subs	r3, r3, #1
	.loc 1 1725 23
	udiv	r3, r3, r2
.LVL180:
	.loc 1 1727 11 is_stmt 1
	.loc 1 1727 14 is_stmt 0
	tst	r3, #1
	beq	.L147
	.loc 1 1729 13 is_stmt 1
	.loc 1 1729 28 is_stmt 0
	movs	r3, #60
.LVL181:
	mla	r3, r3, r4, r5
.LVL182:
	ldrb	r2, [r3, #61]	@ zero_extendqisi2
.LVL183:
	.loc 1 1729 40
	eor	r2, r2, #1
	strb	r2, [r3, #61]
	b	.L147
.LVL184:
.L154:
	.loc 1 1736 7 is_stmt 1
	.loc 1 1736 29 is_stmt 0
	movs	r3, #60
	mla	r3, r3, r4, r5
	movs	r2, #2
	strb	r2, [r3, #77]
	.loc 1 1738 7 is_stmt 1
	.loc 1 1738 26 is_stmt 0
	ldrb	r3, [r3, #27]	@ zero_extendqisi2
	.loc 1 1738 10
	cmp	r3, #1
	bne	.L147
	.loc 1 1740 9 is_stmt 1
	.loc 1 1740 35 is_stmt 0
	movs	r3, #60
	mla	r3, r3, r4, r5
	strb	r2, [r3, #76]
	b	.L147
.L153:
	.loc 1 1745 7 is_stmt 1
	.loc 1 1745 29 is_stmt 0
	movs	r3, #60
	mla	r3, r3, r4, r5
	movs	r1, #2
	strb	r1, [r3, #77]
	.loc 1 1746 7 is_stmt 1
	.loc 1 1746 33 is_stmt 0
	strb	r1, [r3, #76]
	.loc 1 1748 7 is_stmt 1
	.loc 1 1748 26 is_stmt 0
	ldrb	r3, [r3, #27]	@ zero_extendqisi2
	.loc 1 1748 10
	cmp	r3, #1
	bne	.L147
	.loc 1 1750 9 is_stmt 1
	.loc 1 1750 35 is_stmt 0
	movs	r3, #60
	mla	r3, r3, r4, r5
	movs	r1, #0
	strb	r1, [r3, #27]
	.loc 1 1751 9 is_stmt 1
	.loc 1 1751 88 is_stmt 0
	ldr	r3, [r2, #4]
	.loc 1 1751 97
	bic	r3, r3, #65536
	str	r3, [r2, #4]
	b	.L147
.L152:
	.loc 1 1756 7 is_stmt 1
	.loc 1 1756 29 is_stmt 0
	movs	r3, #60
	mla	r3, r3, r4, r5
	movs	r2, #2
	strb	r2, [r3, #77]
	.loc 1 1757 7 is_stmt 1
	.loc 1 1757 33 is_stmt 0
	strb	r2, [r3, #76]
	b	.L147
.L151:
	.loc 1 1761 7 is_stmt 1
	.loc 1 1761 29 is_stmt 0
	movs	r3, #60
	mla	r3, r3, r4, r5
	movs	r2, #2
	strb	r2, [r3, #77]
	.loc 1 1762 7 is_stmt 1
	.loc 1 1762 33 is_stmt 0
	movs	r2, #5
	strb	r2, [r3, #76]
	b	.L147
.L149:
	.loc 1 1767 7 is_stmt 1
	.loc 1 1767 29 is_stmt 0
	movs	r3, #60
	mla	r3, r3, r4, r5
	movs	r2, #2
	strb	r2, [r3, #77]
	.loc 1 1768 7 is_stmt 1
	.loc 1 1768 22 is_stmt 0
	ldr	r2, [r3, #68]
	.loc 1 1768 29
	adds	r2, r2, #1
	str	r2, [r3, #68]
	.loc 1 1769 7 is_stmt 1
	.loc 1 1769 10 is_stmt 0
	cmp	r2, #2
	bls	.L155
	.loc 1 1771 9 is_stmt 1
	.loc 1 1771 32 is_stmt 0
	movs	r3, #60
	mla	r3, r3, r4, r5
	movs	r2, #0
	str	r2, [r3, #68]
	.loc 1 1772 9 is_stmt 1
	.loc 1 1772 35 is_stmt 0
	movs	r2, #4
	strb	r2, [r3, #76]
	b	.L147
.L155:
	.loc 1 1776 9 is_stmt 1
	.loc 1 1776 35 is_stmt 0
	movs	r3, #60
	mla	r3, r3, r4, r5
	movs	r2, #2
	strb	r2, [r3, #76]
	.loc 1 1779 9 is_stmt 1
	.loc 1 1779 16 is_stmt 0
	ldr	r3, [r6, #1280]
.LVL185:
	.loc 1 1780 9 is_stmt 1
	.loc 1 1780 16 is_stmt 0
	bic	r3, r3, #1073741824
.LVL186:
	.loc 1 1781 9 is_stmt 1
	.loc 1 1781 16 is_stmt 0
	orr	r3, r3, #-2147483648
.LVL187:
	.loc 1 1782 9 is_stmt 1
	.loc 1 1782 96 is_stmt 0
	str	r3, [r6, #1280]
	b	.L147
	.cfi_endproc
.LFE361:
	.size	HCD_HC_OUT_IRQHandler, .-HCD_HC_OUT_IRQHandler
	.section	.text.HAL_HCD_IRQHandler,"ax",%progbits
	.align	1
	.global	HAL_HCD_IRQHandler
	.syntax unified
	.thumb
	.thumb_func
	.type	HAL_HCD_IRQHandler, %function
HAL_HCD_IRQHandler:
.LFB342:
	.loc 1 523 1 is_stmt 1
	.cfi_startproc
	@ args = 0, pretend = 0, frame = 0
	@ frame_needed = 0, uses_anonymous_args = 0
.LVL188:
	push	{r3, r4, r5, r6, r7, lr}
	.cfi_def_cfa_offset 24
	.cfi_offset 3, -24
	.cfi_offset 4, -20
	.cfi_offset 5, -16
	.cfi_offset 6, -12
	.cfi_offset 7, -8
	.cfi_offset 14, -4
	mov	r4, r0
	.loc 1 524 3
	.loc 1 524 26 is_stmt 0
	ldr	r5, [r0]
.LVL189:
	.loc 1 525 3 is_stmt 1
	.loc 1 526 3
	.loc 1 527 3
	.loc 1 530 3
	.loc 1 530 7 is_stmt 0
	mov	r0, r5
.LVL190:
	bl	USB_GetMode
.LVL191:
	.loc 1 530 6
	cmp	r0, #1
	beq	.L179
.L163:
	.loc 1 637 1
	pop	{r3, r4, r5, r6, r7, pc}
.LVL192:
.L179:
	.loc 1 533 5 is_stmt 1
	.loc 1 533 10 is_stmt 0
	ldr	r0, [r4]
	bl	USB_ReadInterrupts
.LVL193:
	.loc 1 533 8
	cmp	r0, #0
	beq	.L163
	.loc 1 538 5 is_stmt 1
	.loc 1 538 11 is_stmt 0
	ldr	r0, [r4]
	bl	USB_ReadInterrupts
.LVL194:
	.loc 1 538 8
	tst	r0, #2097152
	beq	.L165
	.loc 1 541 7 is_stmt 1
	.loc 1 541 15 is_stmt 0
	ldr	r3, [r4]
	.loc 1 541 36
	mov	r2, #2097152
	str	r2, [r3, #20]
.L165:
	.loc 1 544 5 is_stmt 1
	.loc 1 544 11 is_stmt 0
	ldr	r0, [r4]
	bl	USB_ReadInterrupts
.LVL195:
	.loc 1 544 8
	tst	r0, #1048576
	beq	.L166
	.loc 1 547 7 is_stmt 1
	.loc 1 547 15 is_stmt 0
	ldr	r3, [r4]
	.loc 1 547 36
	mov	r2, #1048576
	str	r2, [r3, #20]
.L166:
	.loc 1 550 5 is_stmt 1
	.loc 1 550 11 is_stmt 0
	ldr	r0, [r4]
	bl	USB_ReadInterrupts
.LVL196:
	.loc 1 550 8
	tst	r0, #67108864
	beq	.L167
	.loc 1 553 7 is_stmt 1
	.loc 1 553 15 is_stmt 0
	ldr	r3, [r4]
	.loc 1 553 36
	mov	r2, #67108864
	str	r2, [r3, #20]
.L167:
	.loc 1 556 5 is_stmt 1
	.loc 1 556 11 is_stmt 0
	ldr	r0, [r4]
	bl	USB_ReadInterrupts
.LVL197:
	.loc 1 556 8
	tst	r0, #2
	beq	.L168
	.loc 1 559 7 is_stmt 1
	.loc 1 559 15 is_stmt 0
	ldr	r3, [r4]
	.loc 1 559 36
	movs	r2, #2
	str	r2, [r3, #20]
.L168:
	.loc 1 563 5 is_stmt 1
	.loc 1 563 11 is_stmt 0
	ldr	r0, [r4]
	bl	USB_ReadInterrupts
.LVL198:
	.loc 1 563 8
	tst	r0, #536870912
	beq	.L169
	.loc 1 565 7 is_stmt 1
	.loc 1 565 15 is_stmt 0
	ldr	r3, [r4]
	.loc 1 565 36
	mov	r2, #536870912
	str	r2, [r3, #20]
	.loc 1 567 7 is_stmt 1
	.loc 1 567 12 is_stmt 0
	ldr	r3, [r5, #1088]
	.loc 1 567 10
	tst	r3, #1
	beq	.L180
.L169:
	.loc 1 589 5 is_stmt 1
	.loc 1 589 11 is_stmt 0
	ldr	r0, [r4]
	bl	USB_ReadInterrupts
.LVL199:
	.loc 1 589 8
	tst	r0, #16777216
	bne	.L181
.L171:
	.loc 1 595 5 is_stmt 1
	.loc 1 595 11 is_stmt 0
	ldr	r0, [r4]
	bl	USB_ReadInterrupts
.LVL200:
	.loc 1 595 8
	tst	r0, #8
	bne	.L182
.L172:
	.loc 1 607 5 is_stmt 1
	.loc 1 607 11 is_stmt 0
	ldr	r0, [r4]
	bl	USB_ReadInterrupts
.LVL201:
	.loc 1 607 8
	tst	r0, #33554432
	bne	.L183
.L173:
	.loc 1 628 5 is_stmt 1
	.loc 1 628 12 is_stmt 0
	ldr	r0, [r4]
	bl	USB_ReadInterrupts
.LVL202:
	.loc 1 628 93
	tst	r0, #16
	beq	.L163
	.loc 1 630 7 is_stmt 1
	.loc 1 630 13 is_stmt 0
	ldr	r2, [r4]
	.loc 1 630 24
	ldr	r3, [r2, #24]
	.loc 1 630 34
	bic	r3, r3, #16
	str	r3, [r2, #24]
	.loc 1 632 7 is_stmt 1
	mov	r0, r4
	bl	HCD_RXQLVL_IRQHandler
.LVL203:
	.loc 1 634 7
	.loc 1 634 13 is_stmt 0
	ldr	r2, [r4]
	.loc 1 634 24
	ldr	r3, [r2, #24]
	.loc 1 634 34
	orr	r3, r3, #16
	str	r3, [r2, #24]
	b	.L163
.L180:
	.loc 1 570 9 is_stmt 1
	.loc 1 570 15 is_stmt 0
	movs	r1, #16
	mov	r0, r5
	bl	USB_FlushTxFifo
.LVL204:
	.loc 1 571 9 is_stmt 1
	.loc 1 571 15 is_stmt 0
	mov	r0, r5
	bl	USB_FlushRxFifo
.LVL205:
	.loc 1 573 9 is_stmt 1
	.loc 1 573 23 is_stmt 0
	ldrb	r3, [r4, #9]	@ zero_extendqisi2
	.loc 1 573 12
	cmp	r3, #2
	beq	.L184
.L170:
	.loc 1 583 9 is_stmt 1
	mov	r0, r4
	bl	HAL_HCD_Disconnect_Callback
.LVL206:
	b	.L169
.L184:
	.loc 1 576 11
	.loc 1 576 17 is_stmt 0
	movs	r1, #1
	ldr	r0, [r4]
	bl	USB_InitFSLSPClkSel
.LVL207:
	b	.L170
.L181:
	.loc 1 591 7 is_stmt 1
	mov	r0, r4
	bl	HCD_Port_IRQHandler
.LVL208:
	b	.L171
.L182:
	.loc 1 600 7
	mov	r0, r4
	bl	HAL_HCD_SOF_Callback
.LVL209:
	.loc 1 603 7
	.loc 1 603 15 is_stmt 0
	ldr	r3, [r4]
	.loc 1 603 36
	movs	r2, #8
	str	r2, [r3, #20]
	b	.L172
.L183:
	.loc 1 609 7 is_stmt 1
	.loc 1 609 19 is_stmt 0
	ldr	r0, [r4]
	bl	USB_HC_ReadInterrupt
.LVL210:
	mov	r7, r0
.LVL211:
	.loc 1 610 7 is_stmt 1
	.loc 1 610 14 is_stmt 0
	movs	r6, #0
	.loc 1 610 7
	b	.L174
.LVL212:
.L176:
	.loc 1 620 13 is_stmt 1
	uxtb	r1, r6
	mov	r0, r4
	bl	HCD_HC_OUT_IRQHandler
.LVL213:
.L175:
	.loc 1 610 51 discriminator 2
	adds	r6, r6, #1
.LVL214:
.L174:
	.loc 1 610 22 discriminator 1
	.loc 1 610 34 is_stmt 0 discriminator 1
	ldrb	r3, [r4, #5]	@ zero_extendqisi2
	.loc 1 610 22 discriminator 1
	cmp	r3, r6
	bls	.L185
	.loc 1 612 9 is_stmt 1
	.loc 1 612 37 is_stmt 0
	and	r3, r6, #15
	.loc 1 612 47
	lsr	r3, r7, r3
	.loc 1 612 12
	tst	r3, #1
	beq	.L175
	.loc 1 614 11 is_stmt 1
	.loc 1 614 70 is_stmt 0
	add	r3, r5, r6, lsl #5
	.loc 1 614 90
	ldr	r3, [r3, #1280]
	.loc 1 614 14
	tst	r3, #32768
	beq	.L176
	.loc 1 616 13 is_stmt 1
	uxtb	r1, r6
	mov	r0, r4
	bl	HCD_HC_IN_IRQHandler
.LVL215:
	b	.L175
.L185:
	.loc 1 624 7
	.loc 1 624 15 is_stmt 0
	ldr	r3, [r4]
	.loc 1 624 36
	mov	r2, #33554432
	str	r2, [r3, #20]
	b	.L173
	.cfi_endproc
.LFE342:
	.size	HAL_HCD_IRQHandler, .-HAL_HCD_IRQHandler
	.section	.text.HAL_HCD_Start,"ax",%progbits
	.align	1
	.global	HAL_HCD_Start
	.syntax unified
	.thumb
	.thumb_func
	.type	HAL_HCD_Start, %function
HAL_HCD_Start:
.LFB349:
	.loc 1 1047 1 is_stmt 1
	.cfi_startproc
	@ args = 0, pretend = 0, frame = 0
	@ frame_needed = 0, uses_anonymous_args = 0
.LVL216:
	.loc 1 1048 3
	.loc 1 1048 7
	.loc 1 1048 16 is_stmt 0
	ldrb	r3, [r0, #980]	@ zero_extendqisi2
	.loc 1 1048 9
	cmp	r3, #1
	beq	.L188
	.loc 1 1047 1 discriminator 2
	push	{r4, lr}
	.cfi_def_cfa_offset 8
	.cfi_offset 4, -8
	.cfi_offset 14, -4
	mov	r4, r0
	.loc 1 1048 66 is_stmt 1 discriminator 2
	.loc 1 1048 79 is_stmt 0 discriminator 2
	movs	r1, #1
	strb	r1, [r0, #980]
	.loc 1 1048 5 is_stmt 1 discriminator 2
	.loc 1 1050 3 discriminator 2
	.loc 1 1050 9 is_stmt 0 discriminator 2
	ldr	r0, [r0]
.LVL217:
	bl	USB_DriveVbus
.LVL218:
	.loc 1 1053 3 is_stmt 1 discriminator 2
	.loc 1 1053 9 is_stmt 0 discriminator 2
	ldr	r0, [r4]
	bl	USB_EnableGlobalInt
.LVL219:
	.loc 1 1054 3 is_stmt 1 discriminator 2
	.loc 1 1054 7 discriminator 2
	.loc 1 1054 20 is_stmt 0 discriminator 2
	movs	r0, #0
	strb	r0, [r4, #980]
	.loc 1 1054 5 is_stmt 1 discriminator 2
	.loc 1 1056 3 discriminator 2
	.loc 1 1057 1 is_stmt 0 discriminator 2
	pop	{r4, pc}
.LVL220:
.L188:
	.cfi_def_cfa_offset 0
	.cfi_restore 4
	.cfi_restore 14
	.loc 1 1048 47
	movs	r0, #2
.LVL221:
	.loc 1 1057 1
	bx	lr
	.cfi_endproc
.LFE349:
	.size	HAL_HCD_Start, .-HAL_HCD_Start
	.section	.text.HAL_HCD_Stop,"ax",%progbits
	.align	1
	.global	HAL_HCD_Stop
	.syntax unified
	.thumb
	.thumb_func
	.type	HAL_HCD_Stop, %function
HAL_HCD_Stop:
.LFB350:
	.loc 1 1066 1 is_stmt 1
	.cfi_startproc
	@ args = 0, pretend = 0, frame = 0
	@ frame_needed = 0, uses_anonymous_args = 0
.LVL222:
	.loc 1 1067 3
	.loc 1 1067 7
	.loc 1 1067 16 is_stmt 0
	ldrb	r3, [r0, #980]	@ zero_extendqisi2
	.loc 1 1067 9
	cmp	r3, #1
	beq	.L195
	.loc 1 1066 1 discriminator 2
	push	{r4, lr}
	.cfi_def_cfa_offset 8
	.cfi_offset 4, -8
	.cfi_offset 14, -4
	mov	r4, r0
	.loc 1 1067 66 is_stmt 1 discriminator 2
	.loc 1 1067 79 is_stmt 0 discriminator 2
	movs	r3, #1
	strb	r3, [r0, #980]
	.loc 1 1067 5 is_stmt 1 discriminator 2
	.loc 1 1068 3 discriminator 2
	.loc 1 1068 9 is_stmt 0 discriminator 2
	ldr	r0, [r0]
.LVL223:
	bl	USB_StopHost
.LVL224:
	.loc 1 1069 3 is_stmt 1 discriminator 2
	.loc 1 1069 7 discriminator 2
	.loc 1 1069 20 is_stmt 0 discriminator 2
	movs	r0, #0
	strb	r0, [r4, #980]
	.loc 1 1069 5 is_stmt 1 discriminator 2
	.loc 1 1071 3 discriminator 2
	.loc 1 1072 1 is_stmt 0 discriminator 2
	pop	{r4, pc}
.LVL225:
.L195:
	.cfi_def_cfa_offset 0
	.cfi_restore 4
	.cfi_restore 14
	.loc 1 1067 47
	movs	r0, #2
.LVL226:
	.loc 1 1072 1
	bx	lr
	.cfi_endproc
.LFE350:
	.size	HAL_HCD_Stop, .-HAL_HCD_Stop
	.section	.text.HAL_HCD_ResetPort,"ax",%progbits
	.align	1
	.global	HAL_HCD_ResetPort
	.syntax unified
	.thumb
	.thumb_func
	.type	HAL_HCD_ResetPort, %function
HAL_HCD_ResetPort:
.LFB351:
	.loc 1 1080 1 is_stmt 1
	.cfi_startproc
	@ args = 0, pretend = 0, frame = 0
	@ frame_needed = 0, uses_anonymous_args = 0
.LVL227:
	push	{r3, lr}
	.cfi_def_cfa_offset 8
	.cfi_offset 3, -8
	.cfi_offset 14, -4
	.loc 1 1081 3
	.loc 1 1081 11 is_stmt 0
	ldr	r0, [r0]
.LVL228:
	bl	USB_ResetPort
.LVL229:
	.loc 1 1082 1
	pop	{r3, pc}
	.cfi_endproc
.LFE351:
	.size	HAL_HCD_ResetPort, .-HAL_HCD_ResetPort
	.section	.text.HAL_HCD_GetState,"ax",%progbits
	.align	1
	.global	HAL_HCD_GetState
	.syntax unified
	.thumb
	.thumb_func
	.type	HAL_HCD_GetState, %function
HAL_HCD_GetState:
.LFB352:
	.loc 1 1109 1 is_stmt 1
	.cfi_startproc
	@ args = 0, pretend = 0, frame = 0
	@ frame_needed = 0, uses_anonymous_args = 0
	@ link register save eliminated.
.LVL230:
	.loc 1 1110 3
	.loc 1 1110 14 is_stmt 0
	ldrb	r0, [r0, #981]	@ zero_extendqisi2
.LVL231:
	.loc 1 1111 1
	bx	lr
	.cfi_endproc
.LFE352:
	.size	HAL_HCD_GetState, .-HAL_HCD_GetState
	.section	.text.HAL_HCD_HC_GetURBState,"ax",%progbits
	.align	1
	.global	HAL_HCD_HC_GetURBState
	.syntax unified
	.thumb
	.thumb_func
	.type	HAL_HCD_HC_GetURBState, %function
HAL_HCD_HC_GetURBState:
.LFB353:
	.loc 1 1128 1 is_stmt 1
	.cfi_startproc
	@ args = 0, pretend = 0, frame = 0
	@ frame_needed = 0, uses_anonymous_args = 0
	@ link register save eliminated.
.LVL232:
	.loc 1 1129 3
	.loc 1 1129 25 is_stmt 0
	rsb	r1, r1, r1, lsl #4
.LVL233:
	add	r0, r0, r1, lsl #2
.LVL234:
	.loc 1 1130 1
	ldrb	r0, [r0, #76]	@ zero_extendqisi2
	bx	lr
	.cfi_endproc
.LFE353:
	.size	HAL_HCD_HC_GetURBState, .-HAL_HCD_HC_GetURBState
	.section	.text.HAL_HCD_HC_GetXferCount,"ax",%progbits
	.align	1
	.global	HAL_HCD_HC_GetXferCount
	.syntax unified
	.thumb
	.thumb_func
	.type	HAL_HCD_HC_GetXferCount, %function
HAL_HCD_HC_GetXferCount:
.LFB354:
	.loc 1 1141 1 is_stmt 1
	.cfi_startproc
	@ args = 0, pretend = 0, frame = 0
	@ frame_needed = 0, uses_anonymous_args = 0
	@ link register save eliminated.
.LVL235:
	.loc 1 1142 3
	.loc 1 1142 25 is_stmt 0
	rsb	r1, r1, r1, lsl #4
.LVL236:
	add	r0, r0, r1, lsl #2
.LVL237:
	.loc 1 1143 1
	ldr	r0, [r0, #56]
	bx	lr
	.cfi_endproc
.LFE354:
	.size	HAL_HCD_HC_GetXferCount, .-HAL_HCD_HC_GetXferCount
	.section	.text.HAL_HCD_HC_GetState,"ax",%progbits
	.align	1
	.global	HAL_HCD_HC_GetState
	.syntax unified
	.thumb
	.thumb_func
	.type	HAL_HCD_HC_GetState, %function
HAL_HCD_HC_GetState:
.LFB355:
	.loc 1 1163 1 is_stmt 1
	.cfi_startproc
	@ args = 0, pretend = 0, frame = 0
	@ frame_needed = 0, uses_anonymous_args = 0
	@ link register save eliminated.
.LVL238:
	.loc 1 1164 3
	.loc 1 1164 25 is_stmt 0
	rsb	r1, r1, r1, lsl #4
.LVL239:
	add	r0, r0, r1, lsl #2
.LVL240:
	.loc 1 1165 1
	ldrb	r0, [r0, #77]	@ zero_extendqisi2
	bx	lr
	.cfi_endproc
.LFE355:
	.size	HAL_HCD_HC_GetState, .-HAL_HCD_HC_GetState
	.section	.text.HAL_HCD_GetCurrentFrame,"ax",%progbits
	.align	1
	.global	HAL_HCD_GetCurrentFrame
	.syntax unified
	.thumb
	.thumb_func
	.type	HAL_HCD_GetCurrentFrame, %function
HAL_HCD_GetCurrentFrame:
.LFB356:
	.loc 1 1173 1 is_stmt 1
	.cfi_startproc
	@ args = 0, pretend = 0, frame = 0
	@ frame_needed = 0, uses_anonymous_args = 0
.LVL241:
	push	{r3, lr}
	.cfi_def_cfa_offset 8
	.cfi_offset 3, -8
	.cfi_offset 14, -4
	.loc 1 1174 3
	.loc 1 1174 11 is_stmt 0
	ldr	r0, [r0]
.LVL242:
	bl	USB_GetCurrentFrame
.LVL243:
	.loc 1 1175 1
	pop	{r3, pc}
	.cfi_endproc
.LFE356:
	.size	HAL_HCD_GetCurrentFrame, .-HAL_HCD_GetCurrentFrame
	.section	.text.HAL_HCD_GetCurrentSpeed,"ax",%progbits
	.align	1
	.global	HAL_HCD_GetCurrentSpeed
	.syntax unified
	.thumb
	.thumb_func
	.type	HAL_HCD_GetCurrentSpeed, %function
HAL_HCD_GetCurrentSpeed:
.LFB357:
	.loc 1 1183 1 is_stmt 1
	.cfi_startproc
	@ args = 0, pretend = 0, frame = 0
	@ frame_needed = 0, uses_anonymous_args = 0
.LVL244:
	push	{r3, lr}
	.cfi_def_cfa_offset 8
	.cfi_offset 3, -8
	.cfi_offset 14, -4
	.loc 1 1184 3
	.loc 1 1184 11 is_stmt 0
	ldr	r0, [r0]
.LVL245:
	bl	USB_GetHostSpeed
.LVL246:
	.loc 1 1185 1
	pop	{r3, pc}
	.cfi_endproc
.LFE357:
	.size	HAL_HCD_GetCurrentSpeed, .-HAL_HCD_GetCurrentSpeed
	.section	.text.HAL_HCD_HC_SetHubInfo,"ax",%progbits
	.align	1
	.global	HAL_HCD_HC_SetHubInfo
	.syntax unified
	.thumb
	.thumb_func
	.type	HAL_HCD_HC_SetHubInfo, %function
HAL_HCD_HC_SetHubInfo:
.LFB358:
	.loc 1 1198 1 is_stmt 1
	.cfi_startproc
	@ args = 0, pretend = 0, frame = 0
	@ frame_needed = 0, uses_anonymous_args = 0
.LVL247:
	push	{r3, r4, r5, r6, r7, lr}
	.cfi_def_cfa_offset 24
	.cfi_offset 3, -24
	.cfi_offset 4, -20
	.cfi_offset 5, -16
	.cfi_offset 6, -12
	.cfi_offset 7, -8
	.cfi_offset 14, -4
	mov	r5, r0
	mov	r4, r1
	mov	r7, r2
	mov	r6, r3
	.loc 1 1199 3
	.loc 1 1199 28 is_stmt 0
	ldr	r0, [r0]
.LVL248:
	bl	USB_GetHostSpeed
.LVL249:
	.loc 1 1202 3 is_stmt 1
	.loc 1 1202 24 is_stmt 0
	rsb	r3, r4, r4, lsl #4
	add	r3, r5, r3, lsl #2
	ldrb	r3, [r3, #24]	@ zero_extendqisi2
	.loc 1 1202 6
	cbz	r3, .L211
	.loc 1 1202 38 discriminator 1
	cbnz	r0, .L211
	.loc 1 1204 5 is_stmt 1
	.loc 1 1204 32 is_stmt 0
	rsb	r3, r4, r4, lsl #4
	add	r3, r5, r3, lsl #2
	movs	r2, #1
	strb	r2, [r3, #26]
	.loc 1 1206 5 is_stmt 1
	.loc 1 1206 26 is_stmt 0
	ldrb	r3, [r3, #38]	@ zero_extendqisi2
	.loc 1 1206 8
	cbnz	r3, .L211
	.loc 1 1206 62 discriminator 1
	rsb	r3, r4, r4, lsl #4
	add	r3, r5, r3, lsl #2
	ldrb	r3, [r3, #23]	@ zero_extendqisi2
	.loc 1 1206 42 discriminator 1
	cbz	r3, .L211
	.loc 1 1208 7 is_stmt 1
	.loc 1 1208 34 is_stmt 0
	rsb	r3, r4, r4, lsl #4
	add	r3, r5, r3, lsl #2
	strb	r2, [r3, #60]
.L211:
	.loc 1 1212 3 is_stmt 1
	.loc 1 1212 29 is_stmt 0
	rsb	r3, r4, r4, lsl #4
	add	r3, r5, r3, lsl #2
	strb	r7, [r3, #37]
	.loc 1 1213 3 is_stmt 1
	.loc 1 1213 33 is_stmt 0
	strb	r6, [r3, #36]
	.loc 1 1215 3 is_stmt 1
	.loc 1 1216 1 is_stmt 0
	movs	r0, #0
.LVL250:
	pop	{r3, r4, r5, r6, r7, pc}
	.cfi_endproc
.LFE358:
	.size	HAL_HCD_HC_SetHubInfo, .-HAL_HCD_HC_SetHubInfo
	.section	.text.HAL_HCD_HC_ClearHubInfo,"ax",%progbits
	.align	1
	.global	HAL_HCD_HC_ClearHubInfo
	.syntax unified
	.thumb
	.thumb_func
	.type	HAL_HCD_HC_ClearHubInfo, %function
HAL_HCD_HC_ClearHubInfo:
.LFB359:
	.loc 1 1227 1 is_stmt 1
	.cfi_startproc
	@ args = 0, pretend = 0, frame = 0
	@ frame_needed = 0, uses_anonymous_args = 0
	@ link register save eliminated.
.LVL251:
	.loc 1 1228 3
	.loc 1 1228 30 is_stmt 0
	rsb	r2, r1, r1, lsl #4
	add	r2, r0, r2, lsl #2
	movs	r0, #0
.LVL252:
	strb	r0, [r2, #26]
	.loc 1 1229 3 is_stmt 1
	.loc 1 1229 30 is_stmt 0
	strb	r0, [r2, #27]
	.loc 1 1230 3 is_stmt 1
	.loc 1 1230 29 is_stmt 0
	strb	r0, [r2, #37]
	.loc 1 1231 3 is_stmt 1
	.loc 1 1231 33 is_stmt 0
	strb	r0, [r2, #36]
	.loc 1 1233 3 is_stmt 1
	.loc 1 1234 1 is_stmt 0
	bx	lr
	.cfi_endproc
.LFE359:
	.size	HAL_HCD_HC_ClearHubInfo, .-HAL_HCD_HC_ClearHubInfo
	.section	.text.HAL_HCD_HC_Init,"ax",%progbits
	.align	1
	.global	HAL_HCD_HC_Init
	.syntax unified
	.thumb
	.thumb_func
	.type	HAL_HCD_HC_Init, %function
HAL_HCD_HC_Init:
.LFB336:
	.loc 1 204 1 is_stmt 1
	.cfi_startproc
	@ args = 12, pretend = 0, frame = 0
	@ frame_needed = 0, uses_anonymous_args = 0
.LVL253:
	push	{r4, r5, r6, r7, r8, r9, r10, fp, lr}
	.cfi_def_cfa_offset 36
	.cfi_offset 4, -36
	.cfi_offset 5, -32
	.cfi_offset 6, -28
	.cfi_offset 7, -24
	.cfi_offset 8, -20
	.cfi_offset 9, -16
	.cfi_offset 10, -12
	.cfi_offset 11, -8
	.cfi_offset 14, -4
	sub	sp, sp, #20
	.cfi_def_cfa_offset 56
	mov	r7, r3
	ldrb	r10, [sp, #56]	@ zero_extendqisi2
	ldrb	r9, [sp, #60]	@ zero_extendqisi2
	ldrh	fp, [sp, #64]
	.loc 1 205 3
	.loc 1 206 3
	.loc 1 207 3
.LVL254:
	.loc 1 209 3
	.loc 1 209 7
	.loc 1 209 16 is_stmt 0
	ldrb	r3, [r0, #980]	@ zero_extendqisi2
.LVL255:
	.loc 1 209 9
	cmp	r3, #1
	beq	.L219
	mov	r5, r0
	mov	r4, r1
	mov	r6, r2
	mov	r8, fp
	.loc 1 209 66 is_stmt 1 discriminator 2
	.loc 1 209 79 is_stmt 0 discriminator 2
	movs	r3, #1
	strb	r3, [r0, #980]
	.loc 1 209 5 is_stmt 1 discriminator 2
	.loc 1 210 3 discriminator 2
	.loc 1 210 28 is_stmt 0 discriminator 2
	rsb	r3, r1, r1, lsl #4
	add	r3, r0, r3, lsl #2
	movs	r2, #0
.LVL256:
	strb	r2, [r3, #25]
	.loc 1 211 3 is_stmt 1 discriminator 2
	.loc 1 211 29 is_stmt 0 discriminator 2
	strb	r7, [r3, #20]
	.loc 1 212 3 is_stmt 1 discriminator 2
	.loc 1 212 27 is_stmt 0 discriminator 2
	strb	r1, [r3, #21]
	.loc 1 213 3 is_stmt 1 discriminator 2
	.loc 1 213 28 is_stmt 0 discriminator 2
	strb	r9, [r3, #38]
	.loc 1 214 3 is_stmt 1 discriminator 2
	.loc 1 214 35 is_stmt 0 discriminator 2
	and	r2, r6, #127
	.loc 1 214 27 discriminator 2
	strb	r2, [r3, #22]
	.loc 1 216 3 is_stmt 1 discriminator 2
	.loc 1 216 9 is_stmt 0 discriminator 2
	bl	HAL_HCD_HC_ClearHubInfo
.LVL257:
	.loc 1 218 3 is_stmt 1 discriminator 2
	.loc 1 218 6 is_stmt 0 discriminator 2
	tst	r6, #128
	bne	.L222
	.loc 1 224 5 is_stmt 1
	.loc 1 224 31 is_stmt 0
	rsb	r3, r4, r4, lsl #4
	add	r3, r5, r3, lsl #2
	movs	r2, #0
	strb	r2, [r3, #23]
.L217:
	.loc 1 227 3 is_stmt 1
	.loc 1 227 19 is_stmt 0
	ldr	r0, [r5]
	bl	USB_GetHostSpeed
.LVL258:
	.loc 1 229 3 is_stmt 1
	.loc 1 229 6 is_stmt 0
	cmp	r9, #1
	beq	.L223
.L218:
.LVL259:
	.loc 1 242 3 is_stmt 1
	.loc 1 242 26 is_stmt 0
	rsb	r3, r4, r4, lsl #4
	add	r3, r5, r3, lsl #2
	strb	r10, [r3, #24]
	.loc 1 243 3 is_stmt 1
	.loc 1 243 33 is_stmt 0
	uxth	r3, r8
	.loc 1 243 31
	rsb	r2, r4, r4, lsl #4
	add	r2, r5, r2, lsl #2
	strh	r3, [r2, #40]	@ movhi
	.loc 1 245 3 is_stmt 1
	.loc 1 245 12 is_stmt 0
	str	r3, [sp, #8]
	str	r9, [sp, #4]
	str	r10, [sp]
	mov	r3, r7
	mov	r2, r6
	mov	r1, r4
	ldr	r0, [r5]
.LVL260:
	bl	USB_HC_Init
.LVL261:
	.loc 1 248 3 is_stmt 1
	.loc 1 248 7
	.loc 1 248 20 is_stmt 0
	movs	r3, #0
	strb	r3, [r5, #980]
	.loc 1 248 5 is_stmt 1
	.loc 1 250 3
.LVL262:
.L215:
	.loc 1 251 1 is_stmt 0
	add	sp, sp, #20
	.cfi_remember_state
	.cfi_def_cfa_offset 36
	@ sp needed
	pop	{r4, r5, r6, r7, r8, r9, r10, fp, pc}
.LVL263:
.L222:
	.cfi_restore_state
	.loc 1 220 5 is_stmt 1
	.loc 1 220 31 is_stmt 0
	rsb	r3, r4, r4, lsl #4
	add	r3, r5, r3, lsl #2
	movs	r2, #1
	strb	r2, [r3, #23]
	b	.L217
.LVL264:
.L223:
	.loc 1 232 5 is_stmt 1
	.loc 1 232 8 is_stmt 0
	cmp	r10, #1
	it	eq
	cmpeq	r0, #0
	bne	.L218
	.loc 1 234 7 is_stmt 1
	.loc 1 234 10 is_stmt 0
	cmp	fp, #188
	bls	.L218
	.loc 1 237 19
	mov	r8, #188
.LVL265:
	b	.L218
.LVL266:
.L219:
	.loc 1 209 47
	movs	r0, #2
.LVL267:
	b	.L215
	.cfi_endproc
.LFE336:
	.size	HAL_HCD_HC_Init, .-HAL_HCD_HC_Init
	.text
.Letext0:
	.file 2 "m:\\noinstall\\arm-gnu-toolchain-12.2.rel1-mingw-w64-i686-arm-none-eabi\\arm-none-eabi\\include\\machine\\_default_types.h"
	.file 3 "m:\\noinstall\\arm-gnu-toolchain-12.2.rel1-mingw-w64-i686-arm-none-eabi\\arm-none-eabi\\include\\sys\\_stdint.h"
	.file 4 "D:/RTOS/Board/YD-STM32H7xxVx_ClassicV19/cmake-build-debug/_deps/stm32h7xx_cmsis_device-src/Include/stm32h743xx.h"
	.file 5 "D:/RTOS/Board/YD-STM32H7xxVx_ClassicV19/cmake-build-debug/_deps/stm32h7xx_hal_driver-src/Inc/stm32h7xx_hal_def.h"
	.file 6 "D:/RTOS/Board/YD-STM32H7xxVx_ClassicV19/cmake-build-debug/_deps/stm32h7xx_hal_driver-src/Inc/stm32h7xx_ll_usb.h"
	.file 7 "D:/RTOS/Board/YD-STM32H7xxVx_ClassicV19/cmake-build-debug/_deps/stm32h7xx_hal_driver-src/Inc/stm32h7xx_hal_hcd.h"