	.cpu cortex-m7
	.arch armv7e-m
	.fpu fpv5-d16
	.eabi_attribute 28, 1
	.eabi_attribute 20, 1
	.eabi_attribute 21, 1
	.eabi_attribute 23, 3
	.eabi_attribute 24, 1
	.eabi_attribute 25, 1
	.eabi_attribute 26, 1
	.eabi_attribute 30, 1
	.eabi_attribute 34, 1
	.eabi_attribute 18, 4
	.file	"stm32h7xx_hal_flash_ex.c"
	.text
.Ltext0:
	.cfi_sections	.debug_frame
	.file 1 "D:/RTOS/Board/YD-STM32H7xxVx_ClassicV19/cmake-build-debug/_deps/stm32h7xx_hal_driver-src/Src/stm32h7xx_hal_flash_ex.c"
	.section	.text.FLASH_MassErase,"ax",%progbits
	.align	1
	.syntax unified
	.thumb
	.thumb_func
	.type	FLASH_MassErase, %function
FLASH_MassErase:
.LFB344:
	.loc 1 1104 1
	.cfi_startproc
	@ args = 0, pretend = 0, frame = 0
	@ frame_needed = 0, uses_anonymous_args = 0
	@ link register save eliminated.
.LVL0:
	.loc 1 1107 3
	.loc 1 1111 3
	.loc 1 1115 3
	.loc 1 1115 13 is_stmt 0
	and	r3, r1, #3
	.loc 1 1115 5
	cmp	r3, #3
	beq	.L5
	.loc 1 1134 5 is_stmt 1
	.loc 1 1134 7 is_stmt 0
	tst	r1, #1
	beq	.L4
	.loc 1 1138 7 is_stmt 1
	.loc 1 1138 71 is_stmt 0
	ldr	r3, .L6
	ldr	r2, [r3, #12]
	.loc 1 1138 77
	bic	r2, r2, #48
	str	r2, [r3, #12]
	.loc 1 1139 7 is_stmt 1
	.loc 1 1139 71 is_stmt 0
	ldr	r2, [r3, #12]
	.loc 1 1139 77
	orrs	r2, r2, r0
	str	r2, [r3, #12]
	.loc 1 1143 7 is_stmt 1
	.loc 1 1143 71 is_stmt 0
	ldr	r2, [r3, #12]
	.loc 1 1143 77
	orr	r2, r2, #136
	str	r2, [r3, #12]
.L4:
	.loc 1 1147 5 is_stmt 1
	.loc 1 1147 7 is_stmt 0
	tst	r1, #2
	beq	.L1
	.loc 1 1151 7 is_stmt 1
	.loc 1 1151 71 is_stmt 0
	ldr	r3, .L6
	ldr	r2, [r3, #268]
	.loc 1 1151 77
	bic	r2, r2, #48
	str	r2, [r3, #268]
	.loc 1 1152 7 is_stmt 1
	.loc 1 1152 71 is_stmt 0
	ldr	r2, [r3, #268]
	.loc 1 1152 77
	orrs	r2, r2, r0
	str	r2, [r3, #268]
	.loc 1 1156 7 is_stmt 1
	.loc 1 1156 71 is_stmt 0
	ldr	r2, [r3, #268]
	.loc 1 1156 77
	orr	r2, r2, #136
	str	r2, [r3, #268]
.L1:
	.loc 1 1160 1
	bx	lr
.L5:
	.loc 1 1119 5 is_stmt 1
	.loc 1 1119 69 is_stmt 0
	ldr	r3, .L6
	ldr	r2, [r3, #12]
	.loc 1 1119 75
	bic	r2, r2, #48
	str	r2, [r3, #12]
	.loc 1 1120 5 is_stmt 1
	.loc 1 1120 69 is_stmt 0
	ldr	r2, [r3, #268]
	.loc 1 1120 75
	bic	r2, r2, #48
	str	r2, [r3, #268]
	.loc 1 1123 5 is_stmt 1
	.loc 1 1123 69 is_stmt 0
	ldr	r2, [r3, #12]
	.loc 1 1123 75
	orrs	r2, r2, r0
	str	r2, [r3, #12]
	.loc 1 1124 5 is_stmt 1
	.loc 1 1124 69 is_stmt 0
	ldr	r2, [r3, #268]
	.loc 1 1124 75
	orrs	r2, r2, r0
	str	r2, [r3, #268]
	.loc 1 1128 5 is_stmt 1
	.loc 1 1128 69 is_stmt 0
	ldr	r2, [r3, #24]
	.loc 1 1128 77
	orr	r2, r2, #16
	str	r2, [r3, #24]
	bx	lr
.L7:
	.align	2
.L6:
	.word	1375739904
	.cfi_endproc
.LFE344:
	.size	FLASH_MassErase, .-FLASH_MassErase
	.section	.text.FLASH_OB_EnableWRP,"ax",%progbits
	.align	1
	.syntax unified
	.thumb
	.thumb_func
	.type	FLASH_OB_EnableWRP, %function
FLASH_OB_EnableWRP:
.LFB346:
	.loc 1 1238 1 is_stmt 1
	.cfi_startproc
	@ args = 0, pretend = 0, frame = 0
	@ frame_needed = 0, uses_anonymous_args = 0
	@ link register save eliminated.
.LVL1:
	.loc 1 1240 3
	.loc 1 1241 3
	.loc 1 1243 3
	.loc 1 1243 5 is_stmt 0
	tst	r1, #1
	beq	.L9
	.loc 1 1246 5 is_stmt 1
	.loc 1 1246 69 is_stmt 0
	ldr	r2, .L11
	ldr	r3, [r2, #60]
	.loc 1 1246 97
	uxtb	ip, r0
	.loc 1 1246 81
	bic	r3, r3, ip
	str	r3, [r2, #60]
.L9:
	.loc 1 1250 3 is_stmt 1
	.loc 1 1250 5 is_stmt 0
	tst	r1, #2
	beq	.L8
	.loc 1 1253 5 is_stmt 1
	.loc 1 1253 69 is_stmt 0
	ldr	r2, .L11
	ldr	r3, [r2, #316]
	.loc 1 1253 97
	uxtb	r0, r0
.LVL2:
	.loc 1 1253 81
	bic	r3, r3, r0
	str	r3, [r2, #316]
.L8:
	.loc 1 1256 1
	bx	lr
.L12:
	.align	2
.L11:
	.word	1375739904
	.cfi_endproc
.LFE346:
	.size	FLASH_OB_EnableWRP, .-FLASH_OB_EnableWRP
	.section	.text.FLASH_OB_DisableWRP,"ax",%progbits
	.align	1
	.syntax unified
	.thumb
	.thumb_func
	.type	FLASH_OB_DisableWRP, %function
FLASH_OB_DisableWRP:
.LFB347:
	.loc 1 1273 1 is_stmt 1
	.cfi_startproc
	@ args = 0, pretend = 0, frame = 0
	@ frame_needed = 0, uses_anonymous_args = 0
	@ link register save eliminated.
.LVL3:
	.loc 1 1275 3
	.loc 1 1276 3
	.loc 1 1278 3
	.loc 1 1278 5 is_stmt 0
	tst	r1, #1
	beq	.L14
	.loc 1 1281 5 is_stmt 1
	.loc 1 1281 69 is_stmt 0
	ldr	r2, .L16
	ldr	r3, [r2, #60]
	.loc 1 1281 95
	uxtb	ip, r0
	.loc 1 1281 81
	orr	r3, r3, ip
	str	r3, [r2, #60]
.L14:
	.loc 1 1285 3 is_stmt 1
	.loc 1 1285 5 is_stmt 0
	tst	r1, #2
	beq	.L13
	.loc 1 1288 5 is_stmt 1
	.loc 1 1288 69 is_stmt 0
	ldr	r2, .L16
	ldr	r3, [r2, #316]
	.loc 1 1288 95
	uxtb	r0, r0
.LVL4:
	.loc 1 1288 81
	orrs	r3, r3, r0
	str	r3, [r2, #316]
.L13:
	.loc 1 1291 1
	bx	lr
.L17:
	.align	2
.L16:
	.word	1375739904
	.cfi_endproc
.LFE347:
	.size	FLASH_OB_DisableWRP, .-FLASH_OB_DisableWRP
	.section	.text.FLASH_OB_GetWRP,"ax",%progbits
	.align	1
	.syntax unified
	.thumb
	.thumb_func
	.type	FLASH_OB_GetWRP, %function
FLASH_OB_GetWRP:
.LFB348:
	.loc 1 1312 1 is_stmt 1
	.cfi_startproc
	@ args = 0, pretend = 0, frame = 0
	@ frame_needed = 0, uses_anonymous_args = 0
	@ link register save eliminated.
.LVL5:
	.loc 1 1313 3
	.loc 1 1315 3
	.loc 1 1315 5 is_stmt 0
	cmp	r2, #1
	beq	.L24
	.loc 1 1313 12
	movs	r3, #0
.LVL6:
.L19:
	.loc 1 1321 3 is_stmt 1
	.loc 1 1321 5 is_stmt 0
	cmp	r2, #2
	beq	.L25
.L20:
	.loc 1 1327 3 is_stmt 1
	.loc 1 1327 19 is_stmt 0
	mvns	r3, r3
.LVL7:
	.loc 1 1327 30
	uxtb	r3, r3
.LVL8:
	.loc 1 1327 16
	str	r3, [r1]
	.loc 1 1329 3 is_stmt 1
	.loc 1 1329 5 is_stmt 0
	cbnz	r3, .L21
	.loc 1 1331 5 is_stmt 1
	.loc 1 1331 17 is_stmt 0
	str	r3, [r0]
	bx	lr
.LVL9:
.L24:
	.loc 1 1317 5 is_stmt 1
	.loc 1 1317 14 is_stmt 0
	ldr	r3, .L26
	ldr	r3, [r3, #56]
.LVL10:
	b	.L19
.L25:
	.loc 1 1323 5 is_stmt 1
	.loc 1 1323 14 is_stmt 0
	ldr	r3, .L26
.LVL11:
	ldr	r3, [r3, #312]
.LVL12:
	b	.L20
.LVL13:
.L21:
	.loc 1 1335 5 is_stmt 1
	.loc 1 1335 17 is_stmt 0
	movs	r3, #1
	str	r3, [r0]
	.loc 1 1337 1
	bx	lr
.L27:
	.align	2
.L26:
	.word	1375739904
	.cfi_endproc
.LFE348:
	.size	FLASH_OB_GetWRP, .-FLASH_OB_GetWRP
	.section	.text.FLASH_OB_RDPConfig,"ax",%progbits
	.align	1
	.syntax unified
	.thumb
	.thumb_func
	.type	FLASH_OB_RDPConfig, %function
FLASH_OB_RDPConfig:
.LFB349:
	.loc 1 1358 1 is_stmt 1
	.cfi_startproc
	@ args = 0, pretend = 0, frame = 0
	@ frame_needed = 0, uses_anonymous_args = 0
	@ link register save eliminated.
.LVL14:
	.loc 1 1360 3
	.loc 1 1363 3
	.loc 1 1363 156 is_stmt 0
	ldr	r2, .L29
	ldr	r3, [r2, #32]
	.loc 1 1363 171
	bic	r3, r3, #65280
	.loc 1 1363 196
	orrs	r3, r3, r0
	.loc 1 1363 84
	str	r3, [r2, #32]
	.loc 1 1364 1
	bx	lr
.L30:
	.align	2
.L29:
	.word	1375739904
	.cfi_endproc
.LFE349:
	.size	FLASH_OB_RDPConfig, .-FLASH_OB_RDPConfig
	.section	.text.FLASH_OB_GetRDP,"ax",%progbits
	.align	1
	.syntax unified
	.thumb
	.thumb_func
	.type	FLASH_OB_GetRDP, %function
FLASH_OB_GetRDP:
.LFB350:
	.loc 1 1375 1 is_stmt 1
	.cfi_startproc
	@ args = 0, pretend = 0, frame = 0
	@ frame_needed = 0, uses_anonymous_args = 0
	@ link register save eliminated.
	.loc 1 1376 3
	.loc 1 1376 90 is_stmt 0
	ldr	r3, .L34
	ldr	r0, [r3, #28]
	.loc 1 1376 12
	and	r0, r0, #65280
.LVL15:
	.loc 1 1378 3 is_stmt 1
	.loc 1 1378 6 is_stmt 0
	cmp	r0, #43520
	it	ne
	cmpne	r0, #52224
	bne	.L33
.LVL16:
.L31:
	.loc 1 1386 1
	bx	lr
.LVL17:
.L33:
	.loc 1 1380 12
	mov	r0, #21760
.LVL18:
	b	.L31
.L35:
	.align	2
.L34:
	.word	1375739904
	.cfi_endproc
.LFE350:
	.size	FLASH_OB_GetRDP, .-FLASH_OB_GetRDP
	.section	.text.FLASH_OB_UserConfig,"ax",%progbits
	.align	1
	.syntax unified
	.thumb
	.thumb_func
	.type	FLASH_OB_UserConfig, %function
FLASH_OB_UserConfig:
.LFB351:
	.loc 1 1431 1 is_stmt 1
	.cfi_startproc
	@ args = 0, pretend = 0, frame = 0
	@ frame_needed = 0, uses_anonymous_args = 0
	@ link register save eliminated.
.LVL19:
	.loc 1 1432 3
	.loc 1 1433 3
	.loc 1 1436 3
	.loc 1 1438 3
	.loc 1 1438 5 is_stmt 0
	ands	r3, r0, #1
	beq	.L46
	.loc 1 1441 5 is_stmt 1
	.loc 1 1444 5
	.loc 1 1444 33 is_stmt 0
	and	r3, r1, #16
.LVL20:
	.loc 1 1445 5 is_stmt 1
	.loc 1 1445 19 is_stmt 0
	movs	r2, #16
.LVL21:
.L37:
	.loc 1 1458 3 is_stmt 1
	.loc 1 1458 5 is_stmt 0
	tst	r0, #2
	beq	.L38
	.loc 1 1461 5 is_stmt 1
	.loc 1 1464 5
	.loc 1 1464 33 is_stmt 0
	and	ip, r1, #64
	.loc 1 1464 18
	orr	r3, r3, ip
.LVL22:
	.loc 1 1465 5 is_stmt 1
	.loc 1 1465 19 is_stmt 0
	orr	r2, r2, #64
.LVL23:
.L38:
	.loc 1 1468 3 is_stmt 1
	.loc 1 1468 5 is_stmt 0
	tst	r0, #4
	beq	.L39
	.loc 1 1471 5 is_stmt 1
	.loc 1 1474 5
	.loc 1 1474 33 is_stmt 0
	and	ip, r1, #128
	.loc 1 1474 18
	orr	r3, r3, ip
.LVL24:
	.loc 1 1475 5 is_stmt 1
	.loc 1 1475 19 is_stmt 0
	orr	r2, r2, #128
.LVL25:
.L39:
	.loc 1 1478 3 is_stmt 1
	.loc 1 1478 5 is_stmt 0
	tst	r0, #8
	beq	.L40
	.loc 1 1481 5 is_stmt 1
	.loc 1 1484 5
	.loc 1 1484 33 is_stmt 0
	and	ip, r1, #131072
	.loc 1 1484 18
	orr	r3, r3, ip
.LVL26:
	.loc 1 1485 5 is_stmt 1
	.loc 1 1485 19 is_stmt 0
	orr	r2, r2, #131072
.LVL27:
.L40:
	.loc 1 1488 3 is_stmt 1
	.loc 1 1488 5 is_stmt 0
	tst	r0, #16
	beq	.L41
	.loc 1 1491 5 is_stmt 1
	.loc 1 1494 5
	.loc 1 1494 33 is_stmt 0
	and	ip, r1, #262144
	.loc 1 1494 18
	orr	r3, r3, ip
.LVL28:
	.loc 1 1495 5 is_stmt 1
	.loc 1 1495 19 is_stmt 0
	orr	r2, r2, #262144
.LVL29:
.L41:
	.loc 1 1498 3 is_stmt 1
	.loc 1 1498 5 is_stmt 0
	tst	r0, #32
	beq	.L42
	.loc 1 1501 5 is_stmt 1
	.loc 1 1504 5
	.loc 1 1504 33 is_stmt 0
	and	ip, r1, #1572864
	.loc 1 1504 18
	orr	r3, r3, ip
.LVL30:
	.loc 1 1505 5 is_stmt 1
	.loc 1 1505 19 is_stmt 0
	orr	r2, r2, #1572864
.LVL31:
.L42:
	.loc 1 1508 3 is_stmt 1
	.loc 1 1508 5 is_stmt 0
	tst	r0, #64
	beq	.L43
	.loc 1 1511 5 is_stmt 1
	.loc 1 1514 5
	.loc 1 1514 33 is_stmt 0
	and	ip, r1, #2097152
	.loc 1 1514 18
	orr	r3, r3, ip
.LVL32:
	.loc 1 1515 5 is_stmt 1
	.loc 1 1515 19 is_stmt 0
	orr	r2, r2, #2097152
.LVL33:
.L43:
	.loc 1 1563 3 is_stmt 1
	.loc 1 1563 5 is_stmt 0
	tst	r0, #256
	beq	.L44
	.loc 1 1566 5 is_stmt 1
	.loc 1 1569 5
	.loc 1 1569 33 is_stmt 0
	and	ip, r1, #-2147483648
	.loc 1 1569 18
	orr	r3, r3, ip
.LVL34:
	.loc 1 1570 5 is_stmt 1
	.loc 1 1570 19 is_stmt 0
	orr	r2, r2, #-2147483648
.LVL35:
.L44:
	.loc 1 1574 3 is_stmt 1
	.loc 1 1574 5 is_stmt 0
	tst	r0, #128
	beq	.L45
	.loc 1 1577 5 is_stmt 1
	.loc 1 1580 5
	.loc 1 1580 33 is_stmt 0
	and	r1, r1, #536870912
.LVL36:
	.loc 1 1580 18
	orrs	r3, r3, r1
.LVL37:
	.loc 1 1581 5 is_stmt 1
	.loc 1 1581 19 is_stmt 0
	orr	r2, r2, #536870912
.LVL38:
.L45:
	.loc 1 1597 3 is_stmt 1
	.loc 1 1597 156 is_stmt 0
	ldr	r0, .L47
.LVL39:
	ldr	r1, [r0, #32]
	.loc 1 1597 171
	bic	r2, r1, r2
.LVL40:
	.loc 1 1597 193
	orrs	r3, r3, r2
.LVL41:
	.loc 1 1597 84
	str	r3, [r0, #32]
	.loc 1 1598 1
	bx	lr
.LVL42:
.L46:
	.loc 1 1433 12
	mov	r2, r3
	b	.L37
.L48:
	.align	2
.L47:
	.word	1375739904
	.cfi_endproc
.LFE351:
	.size	FLASH_OB_UserConfig, .-FLASH_OB_UserConfig
	.section	.text.FLASH_OB_GetUser,"ax",%progbits
	.align	1
	.syntax unified
	.thumb
	.thumb_func
	.type	FLASH_OB_GetUser, %function
FLASH_OB_GetUser:
.LFB352:
	.loc 1 1619 1 is_stmt 1
	.cfi_startproc
	@ args = 0, pretend = 0, frame = 0
	@ frame_needed = 0, uses_anonymous_args = 0
	@ link register save eliminated.
	.loc 1 1620 3
	.loc 1 1620 12 is_stmt 0
	ldr	r3, .L50
	ldr	r3, [r3, #28]
.LVL43:
	.loc 1 1621 3 is_stmt 1
	.loc 1 1623 3
	.loc 1 1624 1 is_stmt 0
	ldr	r0, .L50+4
	ands	r0, r0, r3
.LVL44:
	bx	lr
.L51:
	.align	2
.L50:
	.word	1375739904
	.word	-65293
	.cfi_endproc
.LFE352:
	.size	FLASH_OB_GetUser, .-FLASH_OB_GetUser
	.section	.text.FLASH_OB_PCROPConfig,"ax",%progbits
	.align	1
	.syntax unified
	.thumb
	.thumb_func
	.type	FLASH_OB_PCROPConfig, %function
FLASH_OB_PCROPConfig:
.LFB353:
	.loc 1 1653 1 is_stmt 1
	.cfi_startproc
	@ args = 0, pretend = 0, frame = 0
	@ frame_needed = 0, uses_anonymous_args = 0
	@ link register save eliminated.
.LVL45:
	push	{r4, r5}
	.cfi_def_cfa_offset 8
	.cfi_offset 4, -8
	.cfi_offset 5, -4
	.loc 1 1655 3
	.loc 1 1656 3
	.loc 1 1658 3
	.loc 1 1658 5 is_stmt 0
	tst	r3, #1
	beq	.L53
	.loc 1 1660 5 is_stmt 1
	.loc 1 1661 5
	.loc 1 1664 5
	.loc 1 1664 100 is_stmt 0
	add	ip, r1, #-134217728
	.loc 1 1665 40
	add	r4, r2, #-134217728
	.loc 1 1665 58
	lsrs	r4, r4, #8
	.loc 1 1665 64
	lsls	r4, r4, #16
	.loc 1 1664 124
	orr	r4, r4, ip, lsr #8
	.loc 1 1665 74
	orrs	r4, r4, r0
	.loc 1 1664 81
	ldr	r5, .L56
	str	r4, [r5, #44]
.L53:
	.loc 1 1670 3 is_stmt 1
	.loc 1 1670 5 is_stmt 0
	tst	r3, #2
	beq	.L52
	.loc 1 1672 5 is_stmt 1
	.loc 1 1673 5
	.loc 1 1676 5
	.loc 1 1676 100 is_stmt 0
	sub	r1, r1, #135266304
.LVL46:
	.loc 1 1677 40
	sub	r2, r2, #135266304
.LVL47:
	.loc 1 1677 58
	lsrs	r2, r2, #8
.LVL48:
	.loc 1 1677 64
	lsls	r2, r2, #16
	.loc 1 1676 124
	orr	r1, r2, r1, lsr #8
.LVL49:
	.loc 1 1677 74
	orrs	r0, r0, r1
.LVL50:
	.loc 1 1676 81
	ldr	r3, .L56
.LVL51:
	str	r0, [r3, #300]
.L52:
	.loc 1 1681 1
	pop	{r4, r5}
	.cfi_restore 5
	.cfi_restore 4
	.cfi_def_cfa_offset 0
	bx	lr
.L57:
	.align	2
.L56:
	.word	1375739904
	.cfi_endproc
.LFE353:
	.size	FLASH_OB_PCROPConfig, .-FLASH_OB_PCROPConfig
	.section	.text.FLASH_OB_GetPCROP,"ax",%progbits
	.align	1
	.syntax unified
	.thumb
	.thumb_func
	.type	FLASH_OB_GetPCROP, %function
FLASH_OB_GetPCROP:
.LFB354:
	.loc 1 1702 1 is_stmt 1
	.cfi_startproc
	@ args = 0, pretend = 0, frame = 0
	@ frame_needed = 0, uses_anonymous_args = 0
	@ link register save eliminated.
.LVL52:
	push	{r4}
	.cfi_def_cfa_offset 4
	.cfi_offset 4, -4
	.loc 1 1703 3
.LVL53:
	.loc 1 1704 3
	.loc 1 1706 3
	.loc 1 1706 5 is_stmt 0
	cmp	r3, #1
	beq	.L63
	.loc 1 1704 12
	mov	ip, #0
	.loc 1 1703 12
	mov	r4, ip
.LVL54:
.L59:
	.loc 1 1713 3 is_stmt 1
	.loc 1 1713 5 is_stmt 0
	cmp	r3, #2
	beq	.L64
.LVL55:
.L60:
	.loc 1 1720 3 is_stmt 1
	.loc 1 1720 30 is_stmt 0
	and	r3, r4, #-2147483648
	.loc 1 1720 18
	str	r3, [r0]
	.loc 1 1722 3 is_stmt 1
	.loc 1 1722 55 is_stmt 0
	ldr	r3, .L65
	and	r3, r3, r4, lsl #8
	.loc 1 1722 61
	add	r3, r3, ip
	.loc 1 1722 21
	str	r3, [r1]
	.loc 1 1723 3 is_stmt 1
	.loc 1 1723 53 is_stmt 0
	ubfx	r4, r4, #16, #12
.LVL56:
	.loc 1 1723 19
	str	r4, [r2]
	.loc 1 1724 3 is_stmt 1
	.loc 1 1724 44 is_stmt 0
	add	r4, ip, r4, lsl #8
	.loc 1 1724 19
	str	r4, [r2]
	.loc 1 1725 1
	ldr	r4, [sp], #4
	.cfi_remember_state
	.cfi_restore 4
	.cfi_def_cfa_offset 0
	bx	lr
.LVL57:
.L63:
	.cfi_restore_state
	.loc 1 1708 5 is_stmt 1
	.loc 1 1708 14 is_stmt 0
	ldr	r4, .L65+4
	ldr	r4, [r4, #40]
.LVL58:
	.loc 1 1709 5 is_stmt 1
	.loc 1 1709 14 is_stmt 0
	mov	ip, #134217728
	b	.L59
.LVL59:
.L64:
	.loc 1 1715 5 is_stmt 1
	.loc 1 1715 14 is_stmt 0
	ldr	r3, .L65+4
.LVL60:
	ldr	r4, [r3, #296]
.LVL61:
	.loc 1 1716 5 is_stmt 1
	.loc 1 1716 14 is_stmt 0
	mov	ip, #135266304
	b	.L60
.L66:
	.align	2
.L65:
	.word	1048320
	.word	1375739904
	.cfi_endproc
.LFE354:
	.size	FLASH_OB_GetPCROP, .-FLASH_OB_GetPCROP
	.section	.text.FLASH_OB_BOR_LevelConfig,"ax",%progbits
	.align	1
	.syntax unified
	.thumb
	.thumb_func
	.type	FLASH_OB_BOR_LevelConfig, %function
FLASH_OB_BOR_LevelConfig:
.LFB355:
	.loc 1 1738 1 is_stmt 1
	.cfi_startproc
	@ args = 0, pretend = 0, frame = 0
	@ frame_needed = 0, uses_anonymous_args = 0
	@ link register save eliminated.
.LVL62:
	.loc 1 1739 3
	.loc 1 1742 3
	.loc 1 1742 156 is_stmt 0
	ldr	r2, .L68
	ldr	r3, [r2, #32]
	.loc 1 1742 171
	bic	r3, r3, #12
	.loc 1 1742 195
	orrs	r3, r3, r0
	.loc 1 1742 84
	str	r3, [r2, #32]
	.loc 1 1743 1
	bx	lr
.L69:
	.align	2
.L68:
	.word	1375739904
	.cfi_endproc
.LFE355:
	.size	FLASH_OB_BOR_LevelConfig, .-FLASH_OB_BOR_LevelConfig
	.section	.text.FLASH_OB_GetBOR,"ax",%progbits
	.align	1
	.syntax unified
	.thumb
	.thumb_func
	.type	FLASH_OB_GetBOR, %function
FLASH_OB_GetBOR:
.LFB356:
	.loc 1 1755 1 is_stmt 1
	.cfi_startproc
	@ args = 0, pretend = 0, frame = 0
	@ frame_needed = 0, uses_anonymous_args = 0
	@ link register save eliminated.
	.loc 1 1756 3
	.loc 1 1756 75 is_stmt 0
	ldr	r3, .L71
	ldr	r0, [r3, #28]
	.loc 1 1757 1
	and	r0, r0, #12
	bx	lr
.L72:
	.align	2
.L71:
	.word	1375739904
	.cfi_endproc
.LFE356:
	.size	FLASH_OB_GetBOR, .-FLASH_OB_GetBOR
	.section	.text.FLASH_OB_BootAddConfig,"ax",%progbits
	.align	1
	.syntax unified
	.thumb
	.thumb_func
	.type	FLASH_OB_BootAddConfig, %function
FLASH_OB_BootAddConfig:
.LFB357:
	.loc 1 1770 1 is_stmt 1
	.cfi_startproc
	@ args = 0, pretend = 0, frame = 0
	@ frame_needed = 0, uses_anonymous_args = 0
	@ link register save eliminated.
.LVL63:
	push	{r4, r5}
	.cfi_def_cfa_offset 8
	.cfi_offset 4, -8
	.cfi_offset 5, -4
	.loc 1 1772 3
	.loc 1 1774 3
	.loc 1 1774 5 is_stmt 0
	tst	r0, #1
	beq	.L74
	.loc 1 1777 5 is_stmt 1
	.loc 1 1783 5
	.loc 1 1783 157 is_stmt 0
	ldr	r4, .L77
	ldr	r5, [r4, #68]
	.loc 1 1783 171
	ldr	r3, .L77+4
	ands	r3, r3, r5
	.loc 1 1783 198
	orr	r3, r3, r1, lsr #16
	.loc 1 1783 85
	str	r3, [r4, #68]
.L74:
	.loc 1 1787 3 is_stmt 1
	.loc 1 1787 5 is_stmt 0
	tst	r0, #2
	beq	.L73
	.loc 1 1790 5 is_stmt 1
	.loc 1 1796 5
	.loc 1 1796 157 is_stmt 0
	ldr	r1, .L77
.LVL64:
	ldr	r3, [r1, #68]
	.loc 1 1796 171
	uxth	r3, r3
	.loc 1 1796 199
	orrs	r3, r3, r2
	.loc 1 1796 85
	str	r3, [r1, #68]
.L73:
	.loc 1 1799 1
	pop	{r4, r5}
	.cfi_restore 5
	.cfi_restore 4
	.cfi_def_cfa_offset 0
	bx	lr
.L78:
	.align	2
.L77:
	.word	1375739904
	.word	-65536
	.cfi_endproc
.LFE357:
	.size	FLASH_OB_BootAddConfig, .-FLASH_OB_BootAddConfig
	.section	.text.FLASH_OB_GetBootAdd,"ax",%progbits
	.align	1
	.syntax unified
	.thumb
	.thumb_func
	.type	FLASH_OB_GetBootAdd, %function
FLASH_OB_GetBootAdd:
.LFB358:
	.loc 1 1808 1 is_stmt 1
	.cfi_startproc
	@ args = 0, pretend = 0, frame = 0
	@ frame_needed = 0, uses_anonymous_args = 0
	@ link register save eliminated.
.LVL65:
	.loc 1 1809 3
	.loc 1 1817 3
	.loc 1 1817 12 is_stmt 0
	ldr	r3, .L80
	ldr	r2, [r3, #64]
.LVL66:
	.loc 1 1819 3 is_stmt 1
	.loc 1 1819 53 is_stmt 0
	lsls	r3, r2, #16
	.loc 1 1819 19
	str	r3, [r0]
	.loc 1 1820 3 is_stmt 1
	.loc 1 1820 31 is_stmt 0
	ldr	r3, .L80+4
	ands	r3, r3, r2
	.loc 1 1820 19
	str	r3, [r1]
	.loc 1 1822 1
	bx	lr
.L81:
	.align	2
.L80:
	.word	1375739904
	.word	-65536
	.cfi_endproc
.LFE358:
	.size	FLASH_OB_GetBootAdd, .-FLASH_OB_GetBootAdd
	.section	.text.FLASH_OB_SecureAreaConfig,"ax",%progbits
	.align	1
	.syntax unified
	.thumb
	.thumb_func
	.type	FLASH_OB_SecureAreaConfig, %function
FLASH_OB_SecureAreaConfig:
.LFB359:
	.loc 1 1892 1 is_stmt 1
	.cfi_startproc
	@ args = 0, pretend = 0, frame = 0
	@ frame_needed = 0, uses_anonymous_args = 0
	@ link register save eliminated.
.LVL67:
	push	{r4, r5}
	.cfi_def_cfa_offset 8
	.cfi_offset 4, -8
	.cfi_offset 5, -4
	.loc 1 1894 3
	.loc 1 1895 3
	.loc 1 1897 3
	.loc 1 1897 5 is_stmt 0
	tst	r3, #1
	beq	.L83
	.loc 1 1900 5 is_stmt 1
	.loc 1 1901 5
	.loc 1 1904 5
	.loc 1 1904 105 is_stmt 0
	add	ip, r1, #-134217728
	.loc 1 1905 45
	add	r4, r2, #-134217728
	.loc 1 1905 63
	lsrs	r4, r4, #8
	.loc 1 1905 69
	lsls	r4, r4, #16
	.loc 1 1904 129
	orr	r4, r4, ip, lsr #8
	.loc 1 1906 42
	and	r5, r0, #-2147483648
	.loc 1 1905 79
	orrs	r4, r4, r5
	.loc 1 1904 81
	ldr	r5, .L86
	str	r4, [r5, #52]
.L83:
	.loc 1 1910 3 is_stmt 1
	.loc 1 1910 5 is_stmt 0
	tst	r3, #2
	beq	.L82
	.loc 1 1913 5 is_stmt 1
	.loc 1 1914 5
	.loc 1 1917 5
	.loc 1 1917 105 is_stmt 0
	sub	r1, r1, #135266304
.LVL68:
	.loc 1 1918 45
	sub	r2, r2, #135266304
.LVL69:
	.loc 1 1918 63
	lsrs	r2, r2, #8
.LVL70:
	.loc 1 1918 69
	lsls	r2, r2, #16
	.loc 1 1917 129
	orr	r1, r2, r1, lsr #8
.LVL71:
	.loc 1 1919 42
	and	r0, r0, #-2147483648
.LVL72:
	.loc 1 1918 79
	orrs	r0, r0, r1
	.loc 1 1917 81
	ldr	r3, .L86
.LVL73:
	str	r0, [r3, #308]
.L82:
	.loc 1 1922 1
	pop	{r4, r5}
	.cfi_restore 5
	.cfi_restore 4
	.cfi_def_cfa_offset 0
	bx	lr
.L87:
	.align	2
.L86:
	.word	1375739904
	.cfi_endproc
.LFE359:
	.size	FLASH_OB_SecureAreaConfig, .-FLASH_OB_SecureAreaConfig
	.section	.text.FLASH_OB_GetSecureArea,"ax",%progbits
	.align	1
	.syntax unified
	.thumb
	.thumb_func
	.type	FLASH_OB_GetSecureArea, %function
FLASH_OB_GetSecureArea:
.LFB360:
	.loc 1 1934 1 is_stmt 1
	.cfi_startproc
	@ args = 0, pretend = 0, frame = 0
	@ frame_needed = 0, uses_anonymous_args = 0
	@ link register save eliminated.
.LVL74:
	push	{r4}
	.cfi_def_cfa_offset 4
	.cfi_offset 4, -4
	.loc 1 1935 3
.LVL75:
	.loc 1 1936 3
	.loc 1 1939 3
	.loc 1 1939 5 is_stmt 0
	cmp	r3, #1
	beq	.L93
	.loc 1 1936 12
	mov	ip, #0
	.loc 1 1935 12
	mov	r4, ip
.LVL76:
.L89:
	.loc 1 1946 3 is_stmt 1
	.loc 1 1946 5 is_stmt 0
	cmp	r3, #2
	beq	.L94
.LVL77:
.L90:
	.loc 1 1954 3 is_stmt 1
	.loc 1 1954 35 is_stmt 0
	and	r3, r4, #-2147483648
	.loc 1 1954 23
	str	r3, [r0]
	.loc 1 1955 3 is_stmt 1
	.loc 1 1955 60 is_stmt 0
	ldr	r3, .L95
	and	r3, r3, r4, lsl #8
	.loc 1 1955 66
	add	r3, r3, ip
	.loc 1 1955 26
	str	r3, [r1]
	.loc 1 1956 3 is_stmt 1
	.loc 1 1956 58 is_stmt 0
	ubfx	r4, r4, #16, #12
.LVL78:
	.loc 1 1956 24
	str	r4, [r2]
	.loc 1 1957 3 is_stmt 1
	.loc 1 1957 54 is_stmt 0
	add	r4, ip, r4, lsl #8
	.loc 1 1957 24
	str	r4, [r2]
	.loc 1 1958 1
	ldr	r4, [sp], #4
	.cfi_remember_state
	.cfi_restore 4
	.cfi_def_cfa_offset 0
	bx	lr
.LVL79:
.L93:
	.cfi_restore_state
	.loc 1 1941 5 is_stmt 1
	.loc 1 1941 14 is_stmt 0
	ldr	r4, .L95+4
	ldr	r4, [r4, #48]
.LVL80:
	.loc 1 1942 5 is_stmt 1
	.loc 1 1942 14 is_stmt 0
	mov	ip, #134217728
	b	.L89
.LVL81:
.L94:
	.loc 1 1948 5 is_stmt 1
	.loc 1 1948 14 is_stmt 0
	ldr	r3, .L95+4
.LVL82:
	ldr	r4, [r3, #304]
.LVL83:
	.loc 1 1949 5 is_stmt 1
	.loc 1 1949 14 is_stmt 0
	mov	ip, #135266304
	b	.L90
.L96:
	.align	2
.L95:
	.word	1048320
	.word	1375739904
	.cfi_endproc
.LFE360:
	.size	FLASH_OB_GetSecureArea, .-FLASH_OB_GetSecureArea
	.section	.text.FLASH_CRC_AddSector,"ax",%progbits
	.align	1
	.syntax unified
	.thumb
	.thumb_func
	.type	FLASH_CRC_AddSector, %function
FLASH_CRC_AddSector:
.LFB361:
	.loc 1 1967 1 is_stmt 1
	.cfi_startproc
	@ args = 0, pretend = 0, frame = 0
	@ frame_needed = 0, uses_anonymous_args = 0
	@ link register save eliminated.
.LVL84:
	.loc 1 1969 3
	.loc 1 1971 3
	.loc 1 1971 6 is_stmt 0
	cmp	r1, #1
	beq	.L100
	.loc 1 1983 5 is_stmt 1
	.loc 1 1983 69 is_stmt 0
	ldr	r2, .L101
	ldr	r3, [r2, #336]
	.loc 1 1983 78
	bic	r3, r3, #7
	str	r3, [r2, #336]
	.loc 1 1986 5 is_stmt 1
	.loc 1 1986 69 is_stmt 0
	ldr	r3, [r2, #336]
	.loc 1 1986 78
	orrs	r3, r3, r0
	orr	r3, r3, #512
	str	r3, [r2, #336]
	.loc 1 1989 1
	bx	lr
.L100:
	.loc 1 1974 5 is_stmt 1
	.loc 1 1974 69 is_stmt 0
	ldr	r2, .L101
	ldr	r3, [r2, #80]
	.loc 1 1974 78
	bic	r3, r3, #7
	str	r3, [r2, #80]
	.loc 1 1977 5 is_stmt 1
	.loc 1 1977 69 is_stmt 0
	ldr	r3, [r2, #80]
	.loc 1 1977 78
	orrs	r3, r3, r0
	orr	r3, r3, #512
	str	r3, [r2, #80]
	bx	lr
.L102:
	.align	2
.L101:
	.word	1375739904
	.cfi_endproc
.LFE361:
	.size	FLASH_CRC_AddSector, .-FLASH_CRC_AddSector
	.section	.text.FLASH_CRC_SelectAddress,"ax",%progbits
	.align	1
	.syntax unified
	.thumb
	.thumb_func
	.type	FLASH_CRC_SelectAddress, %function
FLASH_CRC_SelectAddress:
.LFB362:
	.loc 1 1999 1 is_stmt 1
	.cfi_startproc
	@ args = 0, pretend = 0, frame = 0
	@ frame_needed = 0, uses_anonymous_args = 0
	@ link register save eliminated.
.LVL85:
	.loc 1 2000 3
	.loc 1 2000 6 is_stmt 0
	cmp	r2, #1
	beq	.L106
	.loc 1 2012 5 is_stmt 1
	.loc 1 2013 5
	.loc 1 2016 5
	.loc 1 2016 80 is_stmt 0
	ldr	r3, .L107
	str	r0, [r3, #340]
	.loc 1 2017 5 is_stmt 1
	.loc 1 2017 80 is_stmt 0
	str	r1, [r3, #344]
	.loc 1 2020 1
	bx	lr
.L106:
	.loc 1 2002 5 is_stmt 1
	.loc 1 2003 5
	.loc 1 2006 5
	.loc 1 2006 80 is_stmt 0
	ldr	r3, .L107
	str	r0, [r3, #84]
	.loc 1 2007 5 is_stmt 1
	.loc 1 2007 80 is_stmt 0
	str	r1, [r3, #88]
	bx	lr
.L108:
	.align	2
.L107:
	.word	1375739904
	.cfi_endproc
.LFE362:
	.size	FLASH_CRC_SelectAddress, .-FLASH_CRC_SelectAddress
	.section	.text.HAL_FLASHEx_OBProgram,"ax",%progbits
	.align	1
	.global	HAL_FLASHEx_OBProgram
	.syntax unified
	.thumb
	.thumb_func
	.type	HAL_FLASHEx_OBProgram, %function
HAL_FLASHEx_OBProgram:
.LFB337:
	.loc 1 425 1 is_stmt 1
	.cfi_startproc
	@ args = 0, pretend = 0, frame = 0
	@ frame_needed = 0, uses_anonymous_args = 0
.LVL86:
	push	{r3, r4, r5, lr}
	.cfi_def_cfa_offset 16
	.cfi_offset 3, -16
	.cfi_offset 4, -12
	.cfi_offset 5, -8
	.cfi_offset 14, -4
	.loc 1 426 3
	.loc 1 429 3
	.loc 1 432 3
	.loc 1 432 7
	.loc 1 432 19 is_stmt 0
	ldr	r3, .L130
	ldrb	r3, [r3, #20]	@ zero_extendqisi2
	.loc 1 432 9
	cmp	r3, #1
	beq	.L119
	mov	r4, r0
	.loc 1 432 69 is_stmt 1 discriminator 2
	.loc 1 432 85 is_stmt 0 discriminator 2
	ldr	r3, .L130
	movs	r1, #1
	strb	r1, [r3, #20]
	.loc 1 432 5 is_stmt 1 discriminator 2
	.loc 1 435 3 discriminator 2
	.loc 1 435 20 is_stmt 0 discriminator 2
	movs	r2, #0
	str	r2, [r3, #24]
	.loc 1 438 3 is_stmt 1 discriminator 2
	.loc 1 438 6 is_stmt 0 discriminator 2
	movw	r0, #50000
.LVL87:
	bl	FLASH_WaitForLastOperation
.LVL88:
	.loc 1 438 5 discriminator 2
	cbz	r0, .L123
	.loc 1 440 12
	movs	r5, #1
.L111:
	.loc 1 553 3 is_stmt 1
	.loc 1 553 7
	.loc 1 553 23 is_stmt 0
	ldr	r3, .L130
	movs	r2, #0
	strb	r2, [r3, #20]
	.loc 1 553 5 is_stmt 1
	.loc 1 555 3
.LVL89:
.L110:
	.loc 1 556 1 is_stmt 0
	mov	r0, r5
	pop	{r3, r4, r5, pc}
.LVL90:
.L123:
	.loc 1 443 8 is_stmt 1
	.loc 1 443 11 is_stmt 0
	movs	r1, #2
	movw	r0, #50000
	bl	FLASH_WaitForLastOperation
.LVL91:
	.loc 1 443 10
	mov	r5, r0
	cmp	r0, #0
	bne	.L121
	.loc 1 450 5 is_stmt 1
.LVL92:
	.loc 1 453 3
	.loc 1 456 5
	.loc 1 456 16 is_stmt 0
	ldr	r3, [r4]
	.loc 1 456 7
	tst	r3, #1
	beq	.L112
	.loc 1 458 7 is_stmt 1
	.loc 1 460 7
	.loc 1 460 17 is_stmt 0
	ldr	r3, [r4, #4]
	.loc 1 460 9
	cmp	r3, #1
	beq	.L124
	.loc 1 468 9 is_stmt 1
	ldr	r1, [r4, #28]
	ldr	r0, [r4, #8]
	bl	FLASH_OB_DisableWRP
.LVL93:
.L112:
	.loc 1 473 5
	.loc 1 473 16 is_stmt 0
	ldr	r3, [r4]
	.loc 1 473 7
	tst	r3, #2
	bne	.L125
.L114:
	.loc 1 480 5 is_stmt 1
	.loc 1 480 16 is_stmt 0
	ldr	r3, [r4]
	.loc 1 480 7
	tst	r3, #4
	bne	.L126
.L115:
	.loc 1 487 5 is_stmt 1
	.loc 1 487 16 is_stmt 0
	ldr	r3, [r4]
	.loc 1 487 7
	tst	r3, #8
	bne	.L127
.L116:
	.loc 1 496 5 is_stmt 1
	.loc 1 496 16 is_stmt 0
	ldr	r3, [r4]
	.loc 1 496 7
	tst	r3, #16
	bne	.L128
.L117:
	.loc 1 515 5 is_stmt 1
	.loc 1 515 16 is_stmt 0
	ldr	r3, [r4]
	.loc 1 515 7
	tst	r3, #64
	bne	.L129
.L118:
	.loc 1 522 5 is_stmt 1
	.loc 1 522 16 is_stmt 0
	ldr	r3, [r4]
	.loc 1 522 7
	tst	r3, #32
	beq	.L111
	.loc 1 524 7 is_stmt 1
	ldr	r3, [r4, #28]
	ldr	r2, [r4, #64]
	ldr	r1, [r4, #60]
	ldr	r0, [r4, #56]
	bl	FLASH_OB_SecureAreaConfig
.LVL94:
	b	.L111
.L124:
	.loc 1 463 9
	ldr	r1, [r4, #28]
	ldr	r0, [r4, #8]
	bl	FLASH_OB_EnableWRP
.LVL95:
	b	.L112
.L125:
	.loc 1 476 7
	ldr	r0, [r4, #12]
	bl	FLASH_OB_RDPConfig
.LVL96:
	b	.L114
.L126:
	.loc 1 483 7
	ldr	r1, [r4, #24]
	ldr	r0, [r4, #20]
	bl	FLASH_OB_UserConfig
.LVL97:
	b	.L115
.L127:
	.loc 1 489 7
	.loc 1 492 7
	ldr	r3, [r4, #28]
	ldr	r2, [r4, #40]
	ldr	r1, [r4, #36]
	ldr	r0, [r4, #32]
	bl	FLASH_OB_PCROPConfig
.LVL98:
	b	.L116
.L128:
	.loc 1 498 7
	ldr	r0, [r4, #16]
	bl	FLASH_OB_BOR_LevelConfig
.LVL99:
	b	.L117
.L129:
	.loc 1 517 7
	ldr	r2, [r4, #52]
	ldr	r1, [r4, #48]
	ldr	r0, [r4, #44]
	bl	FLASH_OB_BootAddConfig
.LVL100:
	b	.L118
.LVL101:
.L121:
	.loc 1 445 12 is_stmt 0
	movs	r5, #1
	b	.L111
.LVL102:
.L119:
	.loc 1 432 50
	movs	r5, #2
	b	.L110
.L131:
	.align	2
.L130:
	.word	pFlash
	.cfi_endproc
.LFE337:
	.size	HAL_FLASHEx_OBProgram, .-HAL_FLASHEx_OBProgram
	.section	.text.HAL_FLASHEx_OBGetConfig,"ax",%progbits
	.align	1
	.global	HAL_FLASHEx_OBGetConfig
	.syntax unified
	.thumb
	.thumb_func
	.type	HAL_FLASHEx_OBGetConfig, %function
HAL_FLASHEx_OBGetConfig:
.LFB338:
	.loc 1 568 1 is_stmt 1
	.cfi_startproc
	@ args = 0, pretend = 0, frame = 0
	@ frame_needed = 0, uses_anonymous_args = 0
.LVL103:
	push	{r4, lr}
	.cfi_def_cfa_offset 8
	.cfi_offset 4, -8
	.cfi_offset 14, -4
	mov	r4, r0
	.loc 1 569 3
	.loc 1 569 23 is_stmt 0
	movs	r3, #22
	str	r3, [r0]
	.loc 1 572 3 is_stmt 1
	.loc 1 572 23 is_stmt 0
	bl	FLASH_OB_GetRDP
.LVL104:
	.loc 1 572 21
	str	r0, [r4, #12]
	.loc 1 575 3 is_stmt 1
	.loc 1 575 25 is_stmt 0
	bl	FLASH_OB_GetUser
.LVL105:
	.loc 1 575 23
	str	r0, [r4, #24]
	.loc 1 578 3 is_stmt 1
	.loc 1 578 23 is_stmt 0
	bl	FLASH_OB_GetBOR
.LVL106:
	.loc 1 578 21
	str	r0, [r4, #16]
	.loc 1 581 3 is_stmt 1
	.loc 1 581 15 is_stmt 0
	ldr	r2, [r4, #28]
	.loc 1 581 33
	subs	r3, r2, #1
	.loc 1 581 6
	cmp	r3, #1
	bls	.L135
.L133:
	.loc 1 599 3 is_stmt 1
	add	r1, r4, #52
	add	r0, r4, #48
	bl	FLASH_OB_GetBootAdd
.LVL107:
	.loc 1 606 3
	.loc 1 606 10 is_stmt 0
	ldr	r3, [r4]
	.loc 1 606 23
	orr	r3, r3, #64
	str	r3, [r4]
	.loc 1 629 1
	pop	{r4, pc}
.LVL108:
.L135:
	.loc 1 586 5 is_stmt 1
	.loc 1 586 12 is_stmt 0
	ldr	r3, [r4]
	.loc 1 586 25
	orr	r3, r3, #41
	mov	r1, r4
	str	r3, [r1], #8
	.loc 1 589 5 is_stmt 1
	adds	r0, r4, #4
	bl	FLASH_OB_GetWRP
.LVL109:
	.loc 1 592 5
	ldr	r3, [r4, #28]
	add	r2, r4, #40
	add	r1, r4, #36
	add	r0, r4, #32
	bl	FLASH_OB_GetPCROP
.LVL110:
	.loc 1 595 5
	ldr	r3, [r4, #28]
	add	r2, r4, #64
	add	r1, r4, #60
	add	r0, r4, #56
	bl	FLASH_OB_GetSecureArea
.LVL111:
	b	.L133
	.cfi_endproc
.LFE338:
	.size	HAL_FLASHEx_OBGetConfig, .-HAL_FLASHEx_OBGetConfig
	.section	.text.HAL_FLASHEx_Unlock_Bank1,"ax",%progbits
	.align	1
	.global	HAL_FLASHEx_Unlock_Bank1
	.syntax unified
	.thumb
	.thumb_func
	.type	HAL_FLASHEx_Unlock_Bank1, %function
HAL_FLASHEx_Unlock_Bank1:
.LFB339:
	.loc 1 636 1
	.cfi_startproc
	@ args = 0, pretend = 0, frame = 0
	@ frame_needed = 0, uses_anonymous_args = 0
	@ link register save eliminated.
	.loc 1 637 3
	.loc 1 637 72 is_stmt 0
	ldr	r3, .L140
	ldr	r3, [r3, #12]
	.loc 1 637 5
	tst	r3, #1
	beq	.L138
	.loc 1 640 5 is_stmt 1
	.loc 1 640 80 is_stmt 0
	ldr	r3, .L140
	ldr	r2, .L140+4
	str	r2, [r3, #4]
	.loc 1 641 5 is_stmt 1
	.loc 1 641 80 is_stmt 0
	add	r2, r2, #-2004318072
	str	r2, [r3, #4]
	.loc 1 644 5 is_stmt 1
	.loc 1 644 75 is_stmt 0
	ldr	r3, [r3, #12]
	.loc 1 644 8
	tst	r3, #1
	bne	.L139
	.loc 1 650 10
	movs	r0, #0
	bx	lr
.L138:
	movs	r0, #0
	bx	lr
.L139:
	.loc 1 646 14
	movs	r0, #1
	.loc 1 651 1
	bx	lr
.L141:
	.align	2
.L140:
	.word	1375739904
	.word	1164378403
	.cfi_endproc
.LFE339:
	.size	HAL_FLASHEx_Unlock_Bank1, .-HAL_FLASHEx_Unlock_Bank1
	.section	.text.HAL_FLASHEx_Lock_Bank1,"ax",%progbits
	.align	1
	.global	HAL_FLASHEx_Lock_Bank1
	.syntax unified
	.thumb
	.thumb_func
	.type	HAL_FLASHEx_Lock_Bank1, %function
HAL_FLASHEx_Lock_Bank1:
.LFB340:
	.loc 1 658 1 is_stmt 1
	.cfi_startproc
	@ args = 0, pretend = 0, frame = 0
	@ frame_needed = 0, uses_anonymous_args = 0
	@ link register save eliminated.
	.loc 1 660 3
	.loc 1 660 69 is_stmt 0
	ldr	r2, .L143
	ldr	r3, [r2, #12]
	.loc 1 660 76
	orr	r3, r3, #1
	str	r3, [r2, #12]
	.loc 1 661 3 is_stmt 1
	.loc 1 662 1 is_stmt 0
	movs	r0, #0
	bx	lr
.L144:
	.align	2
.L143:
	.word	1375739904
	.cfi_endproc
.LFE340:
	.size	HAL_FLASHEx_Lock_Bank1, .-HAL_FLASHEx_Lock_Bank1
	.section	.text.HAL_FLASHEx_Unlock_Bank2,"ax",%progbits
	.align	1
	.global	HAL_FLASHEx_Unlock_Bank2
	.syntax unified
	.thumb
	.thumb_func
	.type	HAL_FLASHEx_Unlock_Bank2, %function
HAL_FLASHEx_Unlock_Bank2:
.LFB341:
	.loc 1 670 1 is_stmt 1
	.cfi_startproc
	@ args = 0, pretend = 0, frame = 0
	@ frame_needed = 0, uses_anonymous_args = 0
	@ link register save eliminated.
	.loc 1 671 3
	.loc 1 671 72 is_stmt 0
	ldr	r3, .L149
	ldr	r3, [r3, #268]
	.loc 1 671 5
	tst	r3, #1
	beq	.L147
	.loc 1 674 5 is_stmt 1
	.loc 1 674 80 is_stmt 0
	ldr	r3, .L149
	ldr	r2, .L149+4
	str	r2, [r3, #260]
	.loc 1 675 5 is_stmt 1
	.loc 1 675 80 is_stmt 0
	add	r2, r2, #-2004318072
	str	r2, [r3, #260]
	.loc 1 678 5 is_stmt 1
	.loc 1 678 75 is_stmt 0
	ldr	r3, [r3, #268]
	.loc 1 678 8
	tst	r3, #1
	bne	.L148
	.loc 1 684 10
	movs	r0, #0
	bx	lr
.L147:
	movs	r0, #0
	bx	lr
.L148:
	.loc 1 680 14
	movs	r0, #1
	.loc 1 685 1
	bx	lr
.L150:
	.align	2
.L149:
	.word	1375739904
	.word	1164378403
	.cfi_endproc
.LFE341:
	.size	HAL_FLASHEx_Unlock_Bank2, .-HAL_FLASHEx_Unlock_Bank2
	.section	.text.HAL_FLASHEx_Lock_Bank2,"ax",%progbits
	.align	1
	.global	HAL_FLASHEx_Lock_Bank2
	.syntax unified
	.thumb
	.thumb_func
	.type	HAL_FLASHEx_Lock_Bank2, %function
HAL_FLASHEx_Lock_Bank2:
.LFB342:
	.loc 1 692 1 is_stmt 1
	.cfi_startproc
	@ args = 0, pretend = 0, frame = 0
	@ frame_needed = 0, uses_anonymous_args = 0
	@ link register save eliminated.
	.loc 1 694 3
	.loc 1 694 69 is_stmt 0
	ldr	r2, .L152
	ldr	r3, [r2, #268]
	.loc 1 694 76
	orr	r3, r3, #1
	str	r3, [r2, #268]
	.loc 1 695 3 is_stmt 1
	.loc 1 696 1 is_stmt 0
	movs	r0, #0
	bx	lr
.L153:
	.align	2
.L152:
	.word	1375739904
	.cfi_endproc
.LFE342:
	.size	HAL_FLASHEx_Lock_Bank2, .-HAL_FLASHEx_Lock_Bank2
	.section	.text.HAL_FLASHEx_ComputeCRC,"ax",%progbits
	.align	1
	.global	HAL_FLASHEx_ComputeCRC
	.syntax unified
	.thumb
	.thumb_func
	.type	HAL_FLASHEx_ComputeCRC, %function
HAL_FLASHEx_ComputeCRC:
.LFB343:
	.loc 1 711 1 is_stmt 1
	.cfi_startproc
	@ args = 0, pretend = 0, frame = 0
	@ frame_needed = 0, uses_anonymous_args = 0
.LVL112:
	push	{r4, r5, r6, lr}
	.cfi_def_cfa_offset 16
	.cfi_offset 4, -16
	.cfi_offset 5, -12
	.cfi_offset 6, -8
	.cfi_offset 14, -4
	mov	r4, r0
	mov	r6, r1
	.loc 1 712 3
	.loc 1 713 3
	.loc 1 716 3
	.loc 1 717 3
	.loc 1 720 3
	.loc 1 720 12 is_stmt 0
	movw	r0, #50000
.LVL113:
	bl	FLASH_OB_WaitForLastOperation
.LVL114:
	.loc 1 722 3 is_stmt 1
	.loc 1 722 6 is_stmt 0
	cmp	r0, #0
	bne	.L155
	.loc 1 724 5 is_stmt 1
	.loc 1 724 17 is_stmt 0
	ldr	r3, [r4, #8]
	.loc 1 724 8
	cmp	r3, #1
	beq	.L168
	.loc 1 776 7 is_stmt 1
	.loc 1 776 71 is_stmt 0
	ldr	r3, .L171
	ldr	r2, [r3, #268]
	.loc 1 776 77
	orr	r2, r2, #32768
	str	r2, [r3, #268]
	.loc 1 779 7 is_stmt 1
	.loc 1 779 71 is_stmt 0
	ldr	r2, [r3, #276]
	.loc 1 779 78
	orr	r2, r2, #402653184
	str	r2, [r3, #276]
	.loc 1 782 7 is_stmt 1
	.loc 1 782 71 is_stmt 0
	ldr	r2, [r3, #336]
	.loc 1 782 110
	ldr	r1, [r4, #4]
	.loc 1 782 132
	ldr	r0, [r4]
	.loc 1 782 122
	orrs	r1, r1, r0
	.loc 1 782 80
	orrs	r2, r2, r1
	orr	r2, r2, #131072
	str	r2, [r3, #336]
	.loc 1 784 7 is_stmt 1
	.loc 1 784 19 is_stmt 0
	ldr	r3, [r4]
	.loc 1 784 10
	cmp	r3, #256
	beq	.L169
	.loc 1 795 12 is_stmt 1
	.loc 1 795 15 is_stmt 0
	ldr	r2, .L171+4
	cmp	r3, r2
	bne	.L166
	.loc 1 798 9 is_stmt 1
	.loc 1 798 73 is_stmt 0
	ldr	r2, .L171
	ldr	r3, [r2, #336]
	.loc 1 798 82
	orr	r3, r3, #4194304
	str	r3, [r2, #336]
	b	.L165
.L168:
	.loc 1 727 7 is_stmt 1
	.loc 1 727 71 is_stmt 0
	ldr	r3, .L171
	ldr	r2, [r3, #12]
	.loc 1 727 77
	orr	r2, r2, #32768
	str	r2, [r3, #12]
	.loc 1 730 7 is_stmt 1
	.loc 1 730 71 is_stmt 0
	ldr	r2, [r3, #20]
	.loc 1 730 78
	orr	r2, r2, #402653184
	str	r2, [r3, #20]
	.loc 1 733 7 is_stmt 1
	.loc 1 733 71 is_stmt 0
	ldr	r2, [r3, #80]
	.loc 1 733 110
	ldr	r1, [r4, #4]
	.loc 1 733 132
	ldr	r0, [r4]
	.loc 1 733 122
	orrs	r1, r1, r0
	.loc 1 733 80
	orrs	r2, r2, r1
	orr	r2, r2, #131072
	str	r2, [r3, #80]
	.loc 1 735 7 is_stmt 1
	.loc 1 735 19 is_stmt 0
	ldr	r3, [r4]
	.loc 1 735 10
	cmp	r3, #256
	beq	.L170
	.loc 1 746 12 is_stmt 1
	.loc 1 746 15 is_stmt 0
	ldr	r2, .L171+4
	cmp	r3, r2
	bne	.L161
	.loc 1 749 9 is_stmt 1
	.loc 1 749 73 is_stmt 0
	ldr	r2, .L171
	ldr	r3, [r2, #80]
	.loc 1 749 82
	orr	r3, r3, #4194304
	str	r3, [r2, #80]
.L160:
	.loc 1 758 7 is_stmt 1
	.loc 1 758 71 is_stmt 0
	ldr	r4, .L171
.LVL115:
	ldr	r3, [r4, #80]
	.loc 1 758 80
	orr	r3, r3, #65536
	str	r3, [r4, #80]
	.loc 1 761 7 is_stmt 1
	.loc 1 761 16 is_stmt 0
	movs	r1, #1
	movw	r0, #50000
	bl	FLASH_CRC_WaitForLastOperation
.LVL116:
	.loc 1 764 7 is_stmt 1
	.loc 1 764 87 is_stmt 0
	ldr	r3, [r4, #92]
	.loc 1 764 21
	str	r3, [r6]
	.loc 1 767 7 is_stmt 1
	.loc 1 767 71 is_stmt 0
	ldr	r3, [r4, #12]
	.loc 1 767 77
	bic	r3, r3, #32768
	str	r3, [r4, #12]
	.loc 1 770 7 is_stmt 1
	.loc 1 770 81 is_stmt 0
	mov	r3, #402653184
	str	r3, [r4, #20]
	b	.L155
.LVL117:
.L170:
	.loc 1 738 9 is_stmt 1
	.loc 1 738 73 is_stmt 0
	ldr	r2, .L171
	ldr	r3, [r2, #80]
	.loc 1 738 82
	orr	r3, r3, #1024
	str	r3, [r2, #80]
	.loc 1 741 9 is_stmt 1
	.loc 1 741 26 is_stmt 0
	ldr	r5, [r4, #12]
.LVL118:
.L158:
	.loc 1 741 59 is_stmt 1 discriminator 1
	.loc 1 741 70 is_stmt 0 discriminator 1
	ldr	r3, [r4, #16]
	.loc 1 741 92 discriminator 1
	ldr	r2, [r4, #12]
	.loc 1 741 82 discriminator 1
	add	r3, r3, r2
	.loc 1 741 59 discriminator 1
	cmp	r3, r5
	bls	.L160
	.loc 1 743 11 is_stmt 1 discriminator 3
	movs	r1, #1
	mov	r0, r5
	bl	FLASH_CRC_AddSector
.LVL119:
	.loc 1 741 115 discriminator 3
	adds	r5, r5, #1
.LVL120:
	b	.L158
.LVL121:
.L161:
	.loc 1 754 9
	movs	r2, #1
	ldr	r1, [r4, #24]
	ldr	r0, [r4, #20]
	bl	FLASH_CRC_SelectAddress
.LVL122:
	b	.L160
.L169:
	.loc 1 787 9
	.loc 1 787 73 is_stmt 0
	ldr	r2, .L171
	ldr	r3, [r2, #336]
	.loc 1 787 82
	orr	r3, r3, #1024
	str	r3, [r2, #336]
	.loc 1 790 9 is_stmt 1
	.loc 1 790 26 is_stmt 0
	ldr	r5, [r4, #12]
.LVL123:
	.loc 1 790 9
	b	.L163
.L164:
	.loc 1 792 11 is_stmt 1 discriminator 3
	movs	r1, #2
	mov	r0, r5
	bl	FLASH_CRC_AddSector
.LVL124:
	.loc 1 790 115 discriminator 3
	adds	r5, r5, #1
.LVL125:
.L163:
	.loc 1 790 59 discriminator 1
	.loc 1 790 70 is_stmt 0 discriminator 1
	ldr	r3, [r4, #16]
	.loc 1 790 92 discriminator 1
	ldr	r2, [r4, #12]
	.loc 1 790 82 discriminator 1
	add	r3, r3, r2
	.loc 1 790 59 discriminator 1
	cmp	r3, r5
	bhi	.L164
.LVL126:
.L165:
	.loc 1 807 7 is_stmt 1
	.loc 1 807 71 is_stmt 0
	ldr	r4, .L171
.LVL127:
	ldr	r3, [r4, #336]
	.loc 1 807 80
	orr	r3, r3, #65536
	str	r3, [r4, #336]
	.loc 1 810 7 is_stmt 1
	.loc 1 810 16 is_stmt 0
	movs	r1, #2
	movw	r0, #50000
	bl	FLASH_CRC_WaitForLastOperation
.LVL128:
	.loc 1 813 7 is_stmt 1
	.loc 1 813 87 is_stmt 0
	ldr	r3, [r4, #92]
	.loc 1 813 21
	str	r3, [r6]
	.loc 1 816 7 is_stmt 1
	.loc 1 816 71 is_stmt 0
	ldr	r3, [r4, #268]
	.loc 1 816 77
	bic	r3, r3, #32768
	str	r3, [r4, #268]
	.loc 1 819 7 is_stmt 1
	.loc 1 819 81 is_stmt 0
	mov	r3, #402653184
	str	r3, [r4, #276]
.LVL129:
.L155:
	.loc 1 824 3 is_stmt 1
	.loc 1 825 1 is_stmt 0
	pop	{r4, r5, r6, pc}
.LVL130:
.L166:
	.loc 1 803 9 is_stmt 1
	movs	r2, #2
	ldr	r1, [r4, #24]
	ldr	r0, [r4, #20]
	bl	FLASH_CRC_SelectAddress
.LVL131:
	b	.L165
.L172:
	.align	2
.L171:
	.word	1375739904
	.word	4194560
	.cfi_endproc
.LFE343:
	.size	HAL_FLASHEx_ComputeCRC, .-HAL_FLASHEx_ComputeCRC
	.section	.text.FLASH_Erase_Sector,"ax",%progbits
	.align	1
	.global	FLASH_Erase_Sector
	.syntax unified
	.thumb
	.thumb_func
	.type	FLASH_Erase_Sector, %function
FLASH_Erase_Sector:
.LFB345:
	.loc 1 1181 1
	.cfi_startproc
	@ args = 0, pretend = 0, frame = 0
	@ frame_needed = 0, uses_anonymous_args = 0
	@ link register save eliminated.
.LVL132:
	push	{r4}
	.cfi_def_cfa_offset 4
	.cfi_offset 4, -4
	.loc 1 1182 3
	.loc 1 1183 3
	.loc 1 1185 3
	.loc 1 1190 3
	.loc 1 1190 5 is_stmt 0
	tst	r1, #1
	beq	.L174
	.loc 1 1194 5 is_stmt 1
	.loc 1 1194 69 is_stmt 0
	ldr	r4, .L177
	ldr	r3, [r4, #12]
	.loc 1 1194 75
	bic	r3, r3, #1840
	str	r3, [r4, #12]
	.loc 1 1196 5 is_stmt 1
	.loc 1 1196 69 is_stmt 0
	ldr	r3, [r4, #12]
	.loc 1 1196 110
	orr	ip, r2, r0, lsl #8
	.loc 1 1196 75
	orr	r3, r3, ip
	orr	r3, r3, #132
	str	r3, [r4, #12]
.L174:
	.loc 1 1206 3 is_stmt 1
	.loc 1 1206 5 is_stmt 0
	tst	r1, #2
	beq	.L173
	.loc 1 1210 5 is_stmt 1
	.loc 1 1210 69 is_stmt 0
	ldr	r1, .L177
.LVL133:
	ldr	r3, [r1, #268]
	.loc 1 1210 75
	bic	r3, r3, #1840
	str	r3, [r1, #268]
	.loc 1 1212 5 is_stmt 1
	.loc 1 1212 69 is_stmt 0
	ldr	r3, [r1, #268]
	.loc 1 1212 110
	orr	r2, r2, r0, lsl #8
.LVL134:
	.loc 1 1212 75
	orrs	r3, r3, r2
	orr	r3, r3, #132
	str	r3, [r1, #268]
.L173:
	.loc 1 1221 1
	ldr	r4, [sp], #4
	.cfi_restore 4
	.cfi_def_cfa_offset 0
	bx	lr
.L178:
	.align	2
.L177:
	.word	1375739904
	.cfi_endproc
.LFE345:
	.size	FLASH_Erase_Sector, .-FLASH_Erase_Sector
	.section	.text.HAL_FLASHEx_Erase,"ax",%progbits
	.align	1
	.global	HAL_FLASHEx_Erase
	.syntax unified
	.thumb
	.thumb_func
	.type	HAL_FLASHEx_Erase, %function
HAL_FLASHEx_Erase:
.LFB335:
	.loc 1 187 1 is_stmt 1
	.cfi_startproc
	@ args = 0, pretend = 0, frame = 0
	@ frame_needed = 0, uses_anonymous_args = 0
.LVL135:
	push	{r3, r4, r5, r6, r7, lr}
	.cfi_def_cfa_offset 24
	.cfi_offset 3, -24
	.cfi_offset 4, -20
	.cfi_offset 5, -16
	.cfi_offset 6, -12
	.cfi_offset 7, -8
	.cfi_offset 14, -4
	.loc 1 188 3
.LVL136:
	.loc 1 189 3
	.loc 1 192 3
	.loc 1 193 3
	.loc 1 196 3
	.loc 1 196 7
	.loc 1 196 19 is_stmt 0
	ldr	r3, .L206
	ldrb	r3, [r3, #20]	@ zero_extendqisi2
	.loc 1 196 9
	cmp	r3, #1
	beq	.L193
	mov	r4, r0
	mov	r7, r1
	.loc 1 196 69 is_stmt 1 discriminator 2
	.loc 1 196 85 is_stmt 0 discriminator 2
	ldr	r3, .L206
	movs	r2, #1
	strb	r2, [r3, #20]
	.loc 1 196 5 is_stmt 1 discriminator 2
	.loc 1 199 3 discriminator 2
	.loc 1 199 20 is_stmt 0 discriminator 2
	movs	r2, #0
	str	r2, [r3, #24]
	.loc 1 202 3 is_stmt 1 discriminator 2
	.loc 1 202 17 is_stmt 0 discriminator 2
	ldr	r3, [r0, #4]
	.loc 1 202 5 discriminator 2
	tst	r3, #1
	bne	.L200
	.loc 1 188 21
	movs	r5, #0
.LVL137:
.L181:
	.loc 1 212 3 is_stmt 1
	.loc 1 212 17 is_stmt 0
	ldr	r3, [r4, #4]
	.loc 1 212 5
	tst	r3, #2
	bne	.L201
.L182:
	.loc 1 221 3 is_stmt 1
	.loc 1 221 5 is_stmt 0
	cbnz	r5, .L183
	.loc 1 223 5 is_stmt 1
	.loc 1 223 18 is_stmt 0
	ldr	r3, [r4]
	.loc 1 223 7
	cmp	r3, #1
	beq	.L202
	.loc 1 254 7 is_stmt 1
	.loc 1 254 20 is_stmt 0
	mov	r3, #-1
	str	r3, [r7]
	.loc 1 257 7 is_stmt 1
	.loc 1 257 24 is_stmt 0
	ldr	r6, [r4, #8]
.LVL138:
	.loc 1 257 7
	b	.L188
.LVL139:
.L200:
	.loc 1 204 5 is_stmt 1
	.loc 1 204 8 is_stmt 0
	movs	r1, #1
.LVL140:
	movw	r0, #50000
.LVL141:
	bl	FLASH_WaitForLastOperation
.LVL142:
	.loc 1 204 7
	mov	r5, r0
	cmp	r0, #0
	beq	.L181
	.loc 1 206 14
	movs	r5, #1
	b	.L181
.LVL143:
.L201:
	.loc 1 214 5 is_stmt 1
	.loc 1 214 8 is_stmt 0
	movs	r1, #2
	movw	r0, #50000
	bl	FLASH_WaitForLastOperation
.LVL144:
	.loc 1 214 7
	cmp	r0, #0
	beq	.L182
	.loc 1 216 14
	movs	r5, #1
.LVL145:
.L183:
	.loc 1 291 3 is_stmt 1
	.loc 1 291 7
	.loc 1 291 23 is_stmt 0
	ldr	r3, .L206
	movs	r2, #0
	strb	r2, [r3, #20]
	.loc 1 291 5 is_stmt 1
	.loc 1 293 3
.LVL146:
.L180:
	.loc 1 294 1 is_stmt 0
	mov	r0, r5
	pop	{r3, r4, r5, r6, r7, pc}
.LVL147:
.L202:
	.loc 1 226 7 is_stmt 1
	ldr	r1, [r4, #4]
	ldr	r0, [r4, #16]
	bl	FLASH_MassErase
.LVL148:
	.loc 1 229 7
	.loc 1 229 21 is_stmt 0
	ldr	r3, [r4, #4]
	.loc 1 229 9
	tst	r3, #1
	bne	.L203
.L185:
	.loc 1 240 7 is_stmt 1
	.loc 1 240 21 is_stmt 0
	ldr	r3, [r4, #4]
	.loc 1 240 9
	tst	r3, #2
	beq	.L183
	.loc 1 242 9 is_stmt 1
	.loc 1 242 12 is_stmt 0
	movs	r1, #2
	movw	r0, #50000
	bl	FLASH_WaitForLastOperation
.LVL149:
	.loc 1 242 11
	cbz	r0, .L187
	.loc 1 244 18
	movs	r5, #1
.LVL150:
.L187:
	.loc 1 247 9 is_stmt 1
	.loc 1 247 73 is_stmt 0
	ldr	r2, .L206+4
	ldr	r3, [r2, #268]
	.loc 1 247 79
	bic	r3, r3, #8
	str	r3, [r2, #268]
	b	.L183
.L203:
	.loc 1 231 9 is_stmt 1
	.loc 1 231 12 is_stmt 0
	movs	r1, #1
	movw	r0, #50000
	bl	FLASH_WaitForLastOperation
.LVL151:
	.loc 1 231 11
	cbz	r0, .L186
	.loc 1 233 18
	movs	r5, #1
.LVL152:
.L186:
	.loc 1 236 9 is_stmt 1
	.loc 1 236 73 is_stmt 0
	ldr	r2, .L206+4
	ldr	r3, [r2, #12]
	.loc 1 236 79
	bic	r3, r3, #8
	str	r3, [r2, #12]
	b	.L185
.LVL153:
.L205:
	.loc 1 264 11 is_stmt 1
	.loc 1 264 20 is_stmt 0
	movs	r1, #1
	movw	r0, #50000
	bl	FLASH_WaitForLastOperation
.LVL154:
	mov	r5, r0
.LVL155:
	.loc 1 267 11 is_stmt 1
	.loc 1 267 75 is_stmt 0
	ldr	r2, .L206+4
	ldr	r1, [r2, #12]
	.loc 1 267 81
	ldr	r3, .L206+8
	ands	r3, r3, r1
	str	r3, [r2, #12]
	b	.L189
.L190:
	.loc 1 280 9 is_stmt 1
	.loc 1 280 11 is_stmt 0
	cbnz	r5, .L204
	.loc 1 257 119 is_stmt 1 discriminator 2
	adds	r6, r6, #1
.LVL156:
.L188:
	.loc 1 257 59 discriminator 1
	.loc 1 257 72 is_stmt 0 discriminator 1
	ldr	r3, [r4, #12]
	.loc 1 257 96 discriminator 1
	ldr	r2, [r4, #8]
	.loc 1 257 84 discriminator 1
	add	r3, r3, r2
	.loc 1 257 59 discriminator 1
	cmp	r3, r6
	bls	.L183
	.loc 1 259 9 is_stmt 1
	ldr	r2, [r4, #16]
	ldr	r1, [r4, #4]
	mov	r0, r6
	bl	FLASH_Erase_Sector
.LVL157:
	.loc 1 261 9
	.loc 1 261 23 is_stmt 0
	ldr	r3, [r4, #4]
	.loc 1 261 11
	tst	r3, #1
	bne	.L205
.L189:
	.loc 1 270 9 is_stmt 1
	.loc 1 270 23 is_stmt 0
	ldr	r3, [r4, #4]
	.loc 1 270 11
	tst	r3, #2
	beq	.L190
	.loc 1 273 11 is_stmt 1
	.loc 1 273 20 is_stmt 0
	movs	r1, #2
	movw	r0, #50000
	bl	FLASH_WaitForLastOperation
.LVL158:
	mov	r5, r0
.LVL159:
	.loc 1 276 11 is_stmt 1
	.loc 1 276 75 is_stmt 0
	ldr	r2, .L206+4
	ldr	r1, [r2, #268]
	.loc 1 276 81
	ldr	r3, .L206+8
	ands	r3, r3, r1
	str	r3, [r2, #268]
	b	.L190
.L204:
	.loc 1 283 11 is_stmt 1
	.loc 1 283 24 is_stmt 0
	str	r6, [r7]
	.loc 1 284 11 is_stmt 1
	b	.L183
.LVL160:
.L193:
	.loc 1 196 50 is_stmt 0
	movs	r5, #2
	b	.L180
.L207:
	.align	2
.L206:
	.word	pFlash
	.word	1375739904
	.word	-1797
	.cfi_endproc
.LFE335:
	.size	HAL_FLASHEx_Erase, .-HAL_FLASHEx_Erase
	.section	.text.HAL_FLASHEx_Erase_IT,"ax",%progbits
	.align	1
	.global	HAL_FLASHEx_Erase_IT
	.syntax unified
	.thumb
	.thumb_func
	.type	HAL_FLASHEx_Erase_IT, %function
HAL_FLASHEx_Erase_IT:
.LFB336:
	.loc 1 304 1 is_stmt 1
	.cfi_startproc
	@ args = 0, pretend = 0, frame = 0
	@ frame_needed = 0, uses_anonymous_args = 0
.LVL161:
	push	{r3, r4, r5, lr}
	.cfi_def_cfa_offset 16
	.cfi_offset 3, -16
	.cfi_offset 4, -12
	.cfi_offset 5, -8
	.cfi_offset 14, -4
	.loc 1 305 3
.LVL162:
	.loc 1 308 3
	.loc 1 309 3
	.loc 1 312 3
	.loc 1 312 7
	.loc 1 312 19 is_stmt 0
	ldr	r3, .L233
	ldrb	r3, [r3, #20]	@ zero_extendqisi2
	.loc 1 312 9
	cmp	r3, #1
	beq	.L222
	mov	r4, r0
	.loc 1 312 69 is_stmt 1 discriminator 2
	.loc 1 312 85 is_stmt 0 discriminator 2
	ldr	r3, .L233
	movs	r2, #1
	strb	r2, [r3, #20]
	.loc 1 312 5 is_stmt 1 discriminator 2
	.loc 1 315 3 discriminator 2
	.loc 1 315 20 is_stmt 0 discriminator 2
	movs	r2, #0
	str	r2, [r3, #24]
	.loc 1 318 3 is_stmt 1 discriminator 2
	.loc 1 318 17 is_stmt 0 discriminator 2
	ldr	r3, [r0, #4]
	.loc 1 318 5 discriminator 2
	tst	r3, #1
	bne	.L227
	.loc 1 305 21
	movs	r5, #0
.LVL163:
.L210:
	.loc 1 328 3 is_stmt 1
	.loc 1 328 17 is_stmt 0
	ldr	r3, [r4, #4]
	.loc 1 328 5
	tst	r3, #2
	bne	.L228
.L211:
	.loc 1 337 3 is_stmt 1
	.loc 1 337 6 is_stmt 0
	cbz	r5, .L213
.LVL164:
.L212:
	.loc 1 340 5 is_stmt 1
	.loc 1 340 9
	.loc 1 340 25 is_stmt 0
	ldr	r3, .L233
	movs	r2, #0
	strb	r2, [r3, #20]
	.loc 1 340 7 is_stmt 1
.LVL165:
.L209:
	.loc 1 415 1 is_stmt 0
	mov	r0, r5
	pop	{r3, r4, r5, pc}
.LVL166:
.L227:
	.loc 1 320 5 is_stmt 1
	.loc 1 320 8 is_stmt 0
	movs	r1, #1
	movw	r0, #50000
.LVL167:
	bl	FLASH_WaitForLastOperation
.LVL168:
	.loc 1 320 7
	mov	r5, r0
	cmp	r0, #0
	beq	.L210
	.loc 1 322 14
	movs	r5, #1
	b	.L210
.LVL169:
.L228:
	.loc 1 330 5 is_stmt 1
	.loc 1 330 8 is_stmt 0
	movs	r1, #2
	movw	r0, #50000
	bl	FLASH_WaitForLastOperation
.LVL170:
	.loc 1 330 7
	cmp	r0, #0
	beq	.L211
	.loc 1 332 14
	movs	r5, #1
.LVL171:
	b	.L212
.LVL172:
.L213:
	.loc 1 344 5 is_stmt 1
	.loc 1 344 19 is_stmt 0
	ldr	r3, [r4, #4]
	.loc 1 344 7
	tst	r3, #1
	beq	.L214
	.loc 1 348 7 is_stmt 1
	.loc 1 348 72 is_stmt 0
	ldr	r2, .L233+4
	ldr	r3, [r2, #12]
	.loc 1 348 78
	orr	r3, r3, #7274496
	str	r3, [r2, #12]
.L214:
	.loc 1 356 5 is_stmt 1
	.loc 1 356 19 is_stmt 0
	ldr	r3, [r4, #4]
	.loc 1 356 7
	tst	r3, #2
	beq	.L215
	.loc 1 360 7 is_stmt 1
	.loc 1 360 72 is_stmt 0
	ldr	r2, .L233+4
	ldr	r3, [r2, #268]
	.loc 1 360 78
	orr	r3, r3, #7274496
	str	r3, [r2, #268]
.L215:
	.loc 1 369 5 is_stmt 1
	.loc 1 369 18 is_stmt 0
	ldr	r3, [r4]
	.loc 1 369 7
	cmp	r3, #1
	beq	.L229
	.loc 1 393 7 is_stmt 1
	.loc 1 393 20 is_stmt 0
	ldr	r3, [r4, #4]
	.loc 1 393 9
	cmp	r3, #1
	beq	.L230
	.loc 1 399 9 is_stmt 1
	.loc 1 399 33 is_stmt 0
	ldr	r3, .L233
	movs	r2, #4
	strb	r2, [r3]
.L221:
	.loc 1 405 7 is_stmt 1
	.loc 1 405 43 is_stmt 0
	ldr	r2, [r4, #12]
	.loc 1 405 31
	ldr	r3, .L233
	str	r2, [r3, #4]
	.loc 1 406 7 is_stmt 1
	.loc 1 406 33 is_stmt 0
	ldr	r2, [r4, #8]
	.loc 1 406 21
	str	r2, [r3, #12]
	.loc 1 407 7 is_stmt 1
	.loc 1 407 42 is_stmt 0
	ldr	r2, [r4, #16]
	.loc 1 407 30
	str	r2, [r3, #8]
	.loc 1 410 7 is_stmt 1
	ldr	r1, [r4, #4]
	ldr	r0, [r4, #8]
	bl	FLASH_Erase_Sector
.LVL173:
	b	.L209
.L229:
	.loc 1 372 7
	.loc 1 372 20 is_stmt 0
	ldr	r1, [r4, #4]
	.loc 1 372 9
	cmp	r1, #1
	beq	.L231
	.loc 1 377 12 is_stmt 1
	.loc 1 377 14 is_stmt 0
	cmp	r1, #2
	beq	.L232
	.loc 1 384 9 is_stmt 1
	.loc 1 384 33 is_stmt 0
	ldr	r3, .L233
	movs	r2, #7
	strb	r2, [r3]
.L218:
	.loc 1 387 7 is_stmt 1
	ldr	r0, [r4, #16]
	bl	FLASH_MassErase
.LVL174:
	b	.L209
.L231:
	.loc 1 374 9
	.loc 1 374 33 is_stmt 0
	ldr	r3, .L233
	movs	r2, #2
	strb	r2, [r3]
	b	.L218
.L232:
	.loc 1 379 9 is_stmt 1
	.loc 1 379 33 is_stmt 0
	ldr	r3, .L233
	movs	r2, #5
	strb	r2, [r3]
	b	.L218
.L230:
	.loc 1 395 9 is_stmt 1
	.loc 1 395 33 is_stmt 0
	ldr	r3, .L233
	movs	r2, #1
	strb	r2, [r3]
	b	.L221
.LVL175:
.L222:
	.loc 1 312 50
	movs	r5, #2
	b	.L209
.L234:
	.align	2
.L233:
	.word	pFlash
	.word	1375739904
	.cfi_endproc
.LFE336:
	.size	HAL_FLASHEx_Erase_IT, .-HAL_FLASHEx_Erase_IT
	.text
.Letext0:
	.file 2 "m:\\noinstall\\arm-gnu-toolchain-12.2.rel1-mingw-w64-i686-arm-none-eabi\\arm-none-eabi\\include\\machine\\_default_types.h"
	.file 3 "m:\\noinstall\\arm-gnu-toolchain-12.2.rel1-mingw-w64-i686-arm-none-eabi\\arm-none-eabi\\include\\sys\\_stdint.h"
	.file 4 "D:/RTOS/Board/YD-STM32H7xxVx_ClassicV19/cmake-build-debug/_deps/stm32h7xx_cmsis_device-src/Include/stm32h743xx.h"
	.file 5 "D:/RTOS/Board/YD-STM32H7xxVx_ClassicV19/cmake-build-debug/_deps/stm32h7xx_hal_driver-src/Inc/stm32h7xx_hal_def.h"
	.file 6 "D:/RTOS/Board/YD-STM32H7xxVx_ClassicV19/cmake-build-debug/_deps/stm32h7xx_hal_driver-src/Inc/stm32h7xx_hal_flash.h"
	.file 7 "D:/RTOS/Board/YD-STM32H7xxVx_ClassicV19/cmake-build-debug/_deps/stm32h7xx_hal_driver-src/Inc/stm32h7xx_hal_flash_ex.h"