	.cpu cortex-m7
	.arch armv7e-m
	.fpu fpv5-d16
	.eabi_attribute 28, 1
	.eabi_attribute 20, 1
	.eabi_attribute 21, 1
	.eabi_attribute 23, 3
	.eabi_attribute 24, 1
	.eabi_attribute 25, 1
	.eabi_attribute 26, 1
	.eabi_attribute 30, 1
	.eabi_attribute 34, 1
	.eabi_attribute 18, 4
	.file	"stm32h7xx_hal_ramecc.c"
	.text
.Ltext0:
	.cfi_sections	.debug_frame
	.file 1 "D:/RTOS/Board/YD-STM32H7xxVx_ClassicV19/cmake-build-debug/_deps/stm32h7xx_hal_driver-src/Src/stm32h7xx_hal_ramecc.c"
	.section	.text.HAL_RAMECC_Init,"ax",%progbits
	.align	1
	.global	HAL_RAMECC_Init
	.syntax unified
	.thumb
	.thumb_func
	.type	HAL_RAMECC_Init, %function
HAL_RAMECC_Init:
.LFB335:
	.loc 1 161 1
	.cfi_startproc
	@ args = 0, pretend = 0, frame = 0
	@ frame_needed = 0, uses_anonymous_args = 0
	@ link register save eliminated.
.LVL0:
	.loc 1 163 3
	.loc 1 163 6 is_stmt 0
	mov	r3, r0
	cbz	r0, .L3
	.loc 1 170 3 is_stmt 1
	.loc 1 173 3
	.loc 1 173 18 is_stmt 0
	movs	r2, #2
	strb	r2, [r0, #4]
	.loc 1 176 3 is_stmt 1
	.loc 1 176 10 is_stmt 0
	ldr	r1, [r0]
	.loc 1 176 20
	ldr	r2, [r1]
	.loc 1 176 25
	bic	r2, r2, #32
	str	r2, [r1]
	.loc 1 179 3 is_stmt 1
	.loc 1 179 40 is_stmt 0
	ldr	r2, [r0]
	.loc 1 179 66
	bic	r2, r2, #255
	ldr	r1, [r2]
	.loc 1 179 72
	bic	r1, r1, #15
	str	r1, [r2]
	.loc 1 183 3 is_stmt 1
	.loc 1 183 10 is_stmt 0
	ldr	r1, [r0]
	.loc 1 183 20
	ldr	r2, [r1]
	.loc 1 183 25
	bic	r2, r2, #28
	str	r2, [r1]
	.loc 1 186 3 is_stmt 1
	.loc 1 186 13 is_stmt 0
	ldr	r1, [r0]
	.loc 1 186 23
	ldr	r2, [r1, #4]
	.loc 1 186 28
	bic	r2, r2, #7
	str	r2, [r1, #4]
	.loc 1 189 3 is_stmt 1
	.loc 1 189 22 is_stmt 0
	movs	r0, #0
.LVL1:
	str	r0, [r3, #8]
	.loc 1 192 3 is_stmt 1
	.loc 1 192 28 is_stmt 0
	str	r0, [r3, #12]
	.loc 1 195 3 is_stmt 1
	.loc 1 195 18 is_stmt 0
	movs	r2, #1
	strb	r2, [r3, #4]
	.loc 1 198 3 is_stmt 1
	.loc 1 198 10 is_stmt 0
	bx	lr
.LVL2:
.L3:
	.loc 1 166 12
	movs	r0, #1
.LVL3:
	.loc 1 199 1
	bx	lr
	.cfi_endproc
.LFE335:
	.size	HAL_RAMECC_Init, .-HAL_RAMECC_Init
	.section	.text.HAL_RAMECC_DeInit,"ax",%progbits
	.align	1
	.global	HAL_RAMECC_DeInit
	.syntax unified
	.thumb
	.thumb_func
	.type	HAL_RAMECC_DeInit, %function
HAL_RAMECC_DeInit:
.LFB336:
	.loc 1 209 1 is_stmt 1
	.cfi_startproc
	@ args = 0, pretend = 0, frame = 0
	@ frame_needed = 0, uses_anonymous_args = 0
	@ link register save eliminated.
.LVL4:
	.loc 1 211 3
	.loc 1 211 6 is_stmt 0
	mov	r3, r0
	cbz	r0, .L6
	.loc 1 218 3 is_stmt 1
	.loc 1 221 3
	.loc 1 221 10 is_stmt 0
	ldr	r1, [r0]
	.loc 1 221 20
	ldr	r2, [r1]
	.loc 1 221 25
	bic	r2, r2, #32
	str	r2, [r1]
	.loc 1 224 3 is_stmt 1
	.loc 1 224 40 is_stmt 0
	ldr	r2, [r0]
	.loc 1 224 66
	bic	r2, r2, #255
	ldr	r1, [r2]
	.loc 1 224 72
	bic	r1, r1, #15
	str	r1, [r2]
	.loc 1 228 3 is_stmt 1
	.loc 1 228 10 is_stmt 0
	ldr	r1, [r0]
	.loc 1 228 20
	ldr	r2, [r1]
	.loc 1 228 25
	bic	r2, r2, #28
	str	r2, [r1]
	.loc 1 231 3 is_stmt 1
	.loc 1 231 13 is_stmt 0
	ldr	r1, [r0]
	.loc 1 231 23
	ldr	r2, [r1, #4]
	.loc 1 231 28
	bic	r2, r2, #7
	str	r2, [r1, #4]
	.loc 1 239 3 is_stmt 1
	.loc 1 239 22 is_stmt 0
	movs	r0, #0
.LVL5:
	str	r0, [r3, #8]
	.loc 1 242 3 is_stmt 1
	.loc 1 242 28 is_stmt 0
	str	r0, [r3, #12]
	.loc 1 245 3 is_stmt 1
	.loc 1 245 18 is_stmt 0
	strb	r0, [r3, #4]
	.loc 1 248 3 is_stmt 1
	.loc 1 248 10 is_stmt 0
	bx	lr
.LVL6:
.L6:
	.loc 1 214 12
	movs	r0, #1
.LVL7:
	.loc 1 249 1
	bx	lr
	.cfi_endproc
.LFE336:
	.size	HAL_RAMECC_DeInit, .-HAL_RAMECC_DeInit
	.section	.text.HAL_RAMECC_StartMonitor,"ax",%progbits
	.align	1
	.global	HAL_RAMECC_StartMonitor
	.syntax unified
	.thumb
	.thumb_func
	.type	HAL_RAMECC_StartMonitor, %function
HAL_RAMECC_StartMonitor:
.LFB337:
	.loc 1 279 1 is_stmt 1
	.cfi_startproc
	@ args = 0, pretend = 0, frame = 0
	@ frame_needed = 0, uses_anonymous_args = 0
	@ link register save eliminated.
.LVL8:
	.loc 1 281 3
	.loc 1 284 3
	.loc 1 284 14 is_stmt 0
	ldrb	r3, [r0, #4]	@ zero_extendqisi2
	uxtb	r3, r3
	.loc 1 284 6
	cmp	r3, #1
	bne	.L8
	.loc 1 287 5 is_stmt 1
	.loc 1 287 20 is_stmt 0
	movs	r3, #2
	strb	r3, [r0, #4]
	.loc 1 290 5 is_stmt 1
	.loc 1 290 12 is_stmt 0
	ldr	r2, [r0]
	.loc 1 290 22
	ldr	r3, [r2]
	.loc 1 290 27
	orr	r3, r3, #32
	str	r3, [r2]
	.loc 1 293 5 is_stmt 1
	.loc 1 293 20 is_stmt 0
	movs	r3, #1
	strb	r3, [r0, #4]
	.loc 1 305 3 is_stmt 1
	.loc 1 305 10 is_stmt 0
	movs	r0, #0
.LVL9:
	bx	lr
.LVL10:
.L8:
	.loc 1 298 5 is_stmt 1
	.loc 1 298 24 is_stmt 0
	movs	r3, #2
	str	r3, [r0, #8]
	.loc 1 301 5 is_stmt 1
	.loc 1 301 12 is_stmt 0
	movs	r0, #1
.LVL11:
	.loc 1 306 1
	bx	lr
	.cfi_endproc
.LFE337:
	.size	HAL_RAMECC_StartMonitor, .-HAL_RAMECC_StartMonitor
	.section	.text.HAL_RAMECC_StopMonitor,"ax",%progbits
	.align	1
	.global	HAL_RAMECC_StopMonitor
	.syntax unified
	.thumb
	.thumb_func
	.type	HAL_RAMECC_StopMonitor, %function
HAL_RAMECC_StopMonitor:
.LFB338:
	.loc 1 316 1 is_stmt 1
	.cfi_startproc
	@ args = 0, pretend = 0, frame = 0
	@ frame_needed = 0, uses_anonymous_args = 0
	@ link register save eliminated.
.LVL12:
	.loc 1 318 3
	.loc 1 321 3
	.loc 1 321 14 is_stmt 0
	ldrb	r3, [r0, #4]	@ zero_extendqisi2
	uxtb	r3, r3
	.loc 1 321 6
	cmp	r3, #1
	bne	.L11
	.loc 1 324 5 is_stmt 1
	.loc 1 324 20 is_stmt 0
	movs	r3, #2
	strb	r3, [r0, #4]
	.loc 1 327 5 is_stmt 1
	.loc 1 327 12 is_stmt 0
	ldr	r2, [r0]
	.loc 1 327 22
	ldr	r3, [r2]
	.loc 1 327 27
	bic	r3, r3, #32
	str	r3, [r2]
	.loc 1 330 5 is_stmt 1
	.loc 1 330 20 is_stmt 0
	movs	r3, #1
	strb	r3, [r0, #4]
	.loc 1 342 3 is_stmt 1
	.loc 1 342 10 is_stmt 0
	movs	r0, #0
.LVL13:
	bx	lr
.LVL14:
.L11:
	.loc 1 335 5 is_stmt 1
	.loc 1 335 24 is_stmt 0
	movs	r3, #2
	str	r3, [r0, #8]
	.loc 1 338 5 is_stmt 1
	.loc 1 338 12 is_stmt 0
	movs	r0, #1
.LVL15:
	.loc 1 343 1
	bx	lr
	.cfi_endproc
.LFE338:
	.size	HAL_RAMECC_StopMonitor, .-HAL_RAMECC_StopMonitor
	.section	.text.HAL_RAMECC_EnableNotification,"ax",%progbits
	.align	1
	.global	HAL_RAMECC_EnableNotification
	.syntax unified
	.thumb
	.thumb_func
	.type	HAL_RAMECC_EnableNotification, %function
HAL_RAMECC_EnableNotification:
.LFB339:
	.loc 1 354 1 is_stmt 1
	.cfi_startproc
	@ args = 0, pretend = 0, frame = 0
	@ frame_needed = 0, uses_anonymous_args = 0
	@ link register save eliminated.
.LVL16:
	.loc 1 356 3
	.loc 1 357 3
	.loc 1 360 3
	.loc 1 360 14 is_stmt 0
	ldrb	r3, [r0, #4]	@ zero_extendqisi2
	uxtb	r3, r3
	.loc 1 360 6
	cmp	r3, #1
	bne	.L14
	.loc 1 363 5 is_stmt 1
	.loc 1 363 20 is_stmt 0
	movs	r3, #2
	strb	r3, [r0, #4]
	.loc 1 366 5 is_stmt 1
	.loc 1 366 63 is_stmt 0
	mvn	r3, #268435456
	add	r3, r3, r1
	.loc 1 366 467
	ldr	r2, .L20
	cmp	r1, r2
	it	ne
	cmpne	r3, #1
	bls	.L15
	.loc 1 366 254 discriminator 2
	ldr	r3, .L20+4
	cmp	r1, r3
	ite	ne
	movne	r3, #0
	moveq	r3, #1
	.loc 1 366 234 discriminator 2
	adds	r2, r2, #4
	cmp	r1, r2
	beq	.L15
	cbnz	r3, .L15
	.loc 1 366 481 discriminator 4
	ldr	r2, [r0]
	.loc 1 366 491 discriminator 4
	ldr	r3, [r2]
	.loc 1 366 518 discriminator 4
	bic	r1, r1, #536870912
.LVL17:
	.loc 1 366 496 discriminator 4
	orrs	r3, r3, r1
	str	r3, [r2]
	b	.L18
.LVL18:
.L15:
	.loc 1 366 393 discriminator 3
	ldr	r3, [r0]
	.loc 1 366 419 discriminator 3
	bic	r3, r3, #255
	ldr	r2, [r3]
	.loc 1 366 448 discriminator 3
	bic	r1, r1, #268435456
.LVL19:
	.loc 1 366 426 discriminator 3
	orrs	r1, r1, r2
	str	r1, [r3]
.L18:
	.loc 1 369 5 is_stmt 1
	.loc 1 369 20 is_stmt 0
	movs	r3, #1
	strb	r3, [r0, #4]
	.loc 1 381 3 is_stmt 1
	.loc 1 381 10 is_stmt 0
	movs	r0, #0
.LVL20:
	bx	lr
.LVL21:
.L14:
	.loc 1 374 5 is_stmt 1
	.loc 1 374 24 is_stmt 0
	movs	r3, #2
	str	r3, [r0, #8]
	.loc 1 377 5 is_stmt 1
	.loc 1 377 12 is_stmt 0
	movs	r0, #1
.LVL22:
	.loc 1 382 1
	bx	lr
.L21:
	.align	2
.L20:
	.word	268435460
	.word	268435471
	.cfi_endproc
.LFE339:
	.size	HAL_RAMECC_EnableNotification, .-HAL_RAMECC_EnableNotification
	.section	.text.HAL_RAMECC_DisableNotification,"ax",%progbits
	.align	1
	.global	HAL_RAMECC_DisableNotification
	.syntax unified
	.thumb
	.thumb_func
	.type	HAL_RAMECC_DisableNotification, %function
HAL_RAMECC_DisableNotification:
.LFB340:
	.loc 1 393 1 is_stmt 1
	.cfi_startproc
	@ args = 0, pretend = 0, frame = 0
	@ frame_needed = 0, uses_anonymous_args = 0
	@ link register save eliminated.
.LVL23:
	.loc 1 395 3
	.loc 1 396 3
	.loc 1 399 3
	.loc 1 399 14 is_stmt 0
	ldrb	r3, [r0, #4]	@ zero_extendqisi2
	uxtb	r3, r3
	.loc 1 399 6
	cmp	r3, #1
	bne	.L23
	.loc 1 402 5 is_stmt 1
	.loc 1 402 20 is_stmt 0
	movs	r3, #2
	strb	r3, [r0, #4]
	.loc 1 405 5 is_stmt 1
	.loc 1 405 63 is_stmt 0
	mvn	r3, #268435456
	add	r3, r3, r1
	.loc 1 405 468
	ldr	r2, .L29
	cmp	r1, r2
	it	ne
	cmpne	r3, #1
	bls	.L24
	.loc 1 405 254 discriminator 2
	ldr	r3, .L29+4
	cmp	r1, r3
	ite	ne
	movne	r3, #0
	moveq	r3, #1
	.loc 1 405 234 discriminator 2
	adds	r2, r2, #4
	cmp	r1, r2
	beq	.L24
	cbnz	r3, .L24
	.loc 1 405 482 discriminator 4
	ldr	r2, [r0]
	.loc 1 405 492 discriminator 4
	ldr	r3, [r2]
	.loc 1 405 520 discriminator 4
	bic	r1, r1, #536870912
.LVL24:
	.loc 1 405 497 discriminator 4
	bic	r3, r3, r1
	str	r3, [r2]
	b	.L27
.LVL25:
.L24:
	.loc 1 405 393 discriminator 3
	ldr	r3, [r0]
	.loc 1 405 419 discriminator 3
	bic	r3, r3, #255
	ldr	r2, [r3]
	.loc 1 405 449 discriminator 3
	bic	r1, r1, #268435456
.LVL26:
	.loc 1 405 426 discriminator 3
	bic	r1, r2, r1
	str	r1, [r3]
.L27:
	.loc 1 408 5 is_stmt 1
	.loc 1 408 20 is_stmt 0
	movs	r3, #1
	strb	r3, [r0, #4]
	.loc 1 420 3 is_stmt 1
	.loc 1 420 10 is_stmt 0
	movs	r0, #0
.LVL27:
	bx	lr
.LVL28:
.L23:
	.loc 1 413 5 is_stmt 1
	.loc 1 413 24 is_stmt 0
	movs	r3, #2
	str	r3, [r0, #8]
	.loc 1 416 5 is_stmt 1
	.loc 1 416 12 is_stmt 0
	movs	r0, #1
.LVL29:
	.loc 1 421 1
	bx	lr
.L30:
	.align	2
.L29:
	.word	268435460
	.word	268435471
	.cfi_endproc
.LFE340:
	.size	HAL_RAMECC_DisableNotification, .-HAL_RAMECC_DisableNotification
	.section	.text.HAL_RAMECC_DetectErrorCallback,"ax",%progbits
	.align	1
	.weak	HAL_RAMECC_DetectErrorCallback
	.syntax unified
	.thumb
	.thumb_func
	.type	HAL_RAMECC_DetectErrorCallback, %function
HAL_RAMECC_DetectErrorCallback:
.LFB342:
	.loc 1 578 1 is_stmt 1
	.cfi_startproc
	@ args = 0, pretend = 0, frame = 0
	@ frame_needed = 0, uses_anonymous_args = 0
	@ link register save eliminated.
.LVL30:
	.loc 1 580 3
	.loc 1 585 1 is_stmt 0
	bx	lr
	.cfi_endproc
.LFE342:
	.size	HAL_RAMECC_DetectErrorCallback, .-HAL_RAMECC_DetectErrorCallback
	.section	.text.HAL_RAMECC_IRQHandler,"ax",%progbits
	.align	1
	.global	HAL_RAMECC_IRQHandler
	.syntax unified
	.thumb
	.thumb_func
	.type	HAL_RAMECC_IRQHandler, %function
HAL_RAMECC_IRQHandler:
.LFB341:
	.loc 1 532 1 is_stmt 1
	.cfi_startproc
	@ args = 0, pretend = 0, frame = 0
	@ frame_needed = 0, uses_anonymous_args = 0
.LVL31:
	push	{r4, lr}
	.cfi_def_cfa_offset 8
	.cfi_offset 4, -8
	.cfi_offset 14, -4
	.loc 1 533 3
	.loc 1 533 59 is_stmt 0
	ldr	r2, [r0]
	.loc 1 533 70
	bic	r3, r2, #255
	.loc 1 533 12
	ldr	r3, [r3]
.LVL32:
	.loc 1 534 3 is_stmt 1
	.loc 1 534 38 is_stmt 0
	ldr	r1, [r2]
	.loc 1 534 12
	lsr	ip, r1, #1
.LVL33:
	.loc 1 535 3 is_stmt 1
	.loc 1 535 12 is_stmt 0
	ldr	r4, [r2, #4]
.LVL34:
	.loc 1 538 3 is_stmt 1
	.loc 1 538 6 is_stmt 0
	tst	r3, #1
	beq	.L33
	.loc 1 540 13
	ldr	r3, .L38
.LVL35:
.L33:
	.loc 1 544 3 is_stmt 1
	.loc 1 544 6 is_stmt 0
	tst	r4, #1
	beq	.L34
	.loc 1 546 5 is_stmt 1
	.loc 1 546 12 is_stmt 0
	ldr	r1, [r0, #12]
	.loc 1 546 30
	orr	r1, r1, #1
	str	r1, [r0, #12]
.L34:
	.loc 1 550 3 is_stmt 1
	.loc 1 550 6 is_stmt 0
	tst	r4, #6
	beq	.L35
	.loc 1 552 5 is_stmt 1
	.loc 1 552 12 is_stmt 0
	ldr	r1, [r0, #12]
	.loc 1 552 30
	orr	r1, r1, #2
	str	r1, [r0, #12]
.L35:
	.loc 1 556 3 is_stmt 1
	.loc 1 556 23 is_stmt 0
	ldr	r1, [r2, #4]
	.loc 1 556 44
	orr	r3, r3, ip
.LVL36:
	.loc 1 556 54
	and	r3, r3, r4, lsl #1
	.loc 1 556 28
	bic	r3, r1, r3, lsr #1
	str	r3, [r2, #4]
	.loc 1 567 3 is_stmt 1
	bl	HAL_RAMECC_DetectErrorCallback
.LVL37:
	.loc 1 569 1 is_stmt 0
	pop	{r4, pc}
.LVL38:
.L39:
	.align	2
.L38:
	.word	268435471
	.cfi_endproc
.LFE341:
	.size	HAL_RAMECC_IRQHandler, .-HAL_RAMECC_IRQHandler
	.section	.text.HAL_RAMECC_GetFailingAddress,"ax",%progbits
	.align	1
	.global	HAL_RAMECC_GetFailingAddress
	.syntax unified
	.thumb
	.thumb_func
	.type	HAL_RAMECC_GetFailingAddress, %function
HAL_RAMECC_GetFailingAddress:
.LFB343:
	.loc 1 617 1 is_stmt 1
	.cfi_startproc
	@ args = 0, pretend = 0, frame = 0
	@ frame_needed = 0, uses_anonymous_args = 0
	@ link register save eliminated.
.LVL39:
	.loc 1 619 3
	.loc 1 622 3
	.loc 1 622 17 is_stmt 0
	ldr	r3, [r0]
	.loc 1 622 27
	ldr	r0, [r3, #8]
.LVL40:
	.loc 1 623 1
	bx	lr
	.cfi_endproc
.LFE343:
	.size	HAL_RAMECC_GetFailingAddress, .-HAL_RAMECC_GetFailingAddress
	.section	.text.HAL_RAMECC_GetFailingDataLow,"ax",%progbits
	.align	1
	.global	HAL_RAMECC_GetFailingDataLow
	.syntax unified
	.thumb
	.thumb_func
	.type	HAL_RAMECC_GetFailingDataLow, %function
HAL_RAMECC_GetFailingDataLow:
.LFB344:
	.loc 1 633 1 is_stmt 1
	.cfi_startproc
	@ args = 0, pretend = 0, frame = 0
	@ frame_needed = 0, uses_anonymous_args = 0
	@ link register save eliminated.
.LVL41:
	.loc 1 635 3
	.loc 1 638 3
	.loc 1 638 17 is_stmt 0
	ldr	r3, [r0]
	.loc 1 638 27
	ldr	r0, [r3, #12]
.LVL42:
	.loc 1 639 1
	bx	lr
	.cfi_endproc
.LFE344:
	.size	HAL_RAMECC_GetFailingDataLow, .-HAL_RAMECC_GetFailingDataLow
	.section	.text.HAL_RAMECC_GetFailingDataHigh,"ax",%progbits
	.align	1
	.global	HAL_RAMECC_GetFailingDataHigh
	.syntax unified
	.thumb
	.thumb_func
	.type	HAL_RAMECC_GetFailingDataHigh, %function
HAL_RAMECC_GetFailingDataHigh:
.LFB345:
	.loc 1 649 1 is_stmt 1
	.cfi_startproc
	@ args = 0, pretend = 0, frame = 0
	@ frame_needed = 0, uses_anonymous_args = 0
	@ link register save eliminated.
.LVL43:
	.loc 1 651 3
	.loc 1 654 3
	.loc 1 654 17 is_stmt 0
	ldr	r3, [r0]
	.loc 1 654 27
	ldr	r0, [r3, #16]
.LVL44:
	.loc 1 655 1
	bx	lr
	.cfi_endproc
.LFE345:
	.size	HAL_RAMECC_GetFailingDataHigh, .-HAL_RAMECC_GetFailingDataHigh
	.section	.text.HAL_RAMECC_GetHammingErrorCode,"ax",%progbits
	.align	1
	.global	HAL_RAMECC_GetHammingErrorCode
	.syntax unified
	.thumb
	.thumb_func
	.type	HAL_RAMECC_GetHammingErrorCode, %function
HAL_RAMECC_GetHammingErrorCode:
.LFB346:
	.loc 1 665 1 is_stmt 1
	.cfi_startproc
	@ args = 0, pretend = 0, frame = 0
	@ frame_needed = 0, uses_anonymous_args = 0
	@ link register save eliminated.
.LVL45:
	.loc 1 667 3
	.loc 1 670 3
	.loc 1 670 17 is_stmt 0
	ldr	r3, [r0]
	.loc 1 670 27
	ldr	r0, [r3, #20]
.LVL46:
	.loc 1 671 1
	bx	lr
	.cfi_endproc
.LFE346:
	.size	HAL_RAMECC_GetHammingErrorCode, .-HAL_RAMECC_GetHammingErrorCode
	.section	.text.HAL_RAMECC_IsECCSingleErrorDetected,"ax",%progbits
	.align	1
	.global	HAL_RAMECC_IsECCSingleErrorDetected
	.syntax unified
	.thumb
	.thumb_func
	.type	HAL_RAMECC_IsECCSingleErrorDetected, %function
HAL_RAMECC_IsECCSingleErrorDetected:
.LFB347:
	.loc 1 681 1 is_stmt 1
	.cfi_startproc
	@ args = 0, pretend = 0, frame = 0
	@ frame_needed = 0, uses_anonymous_args = 0
	@ link register save eliminated.
.LVL47:
	.loc 1 683 3
	.loc 1 686 3
	.loc 1 686 21 is_stmt 0
	ldr	r3, [r0]
	.loc 1 686 31
	ldr	r0, [r3, #4]
.LVL48:
	.loc 1 686 86
	ands	r0, r0, #1
	beq	.L44
	movs	r0, #1
.L44:
	.loc 1 687 1
	bx	lr
	.cfi_endproc
.LFE347:
	.size	HAL_RAMECC_IsECCSingleErrorDetected, .-HAL_RAMECC_IsECCSingleErrorDetected
	.section	.text.HAL_RAMECC_IsECCDoubleErrorDetected,"ax",%progbits
	.align	1
	.global	HAL_RAMECC_IsECCDoubleErrorDetected
	.syntax unified
	.thumb
	.thumb_func
	.type	HAL_RAMECC_IsECCDoubleErrorDetected, %function
HAL_RAMECC_IsECCDoubleErrorDetected:
.LFB348:
	.loc 1 697 1 is_stmt 1
	.cfi_startproc
	@ args = 0, pretend = 0, frame = 0
	@ frame_needed = 0, uses_anonymous_args = 0
	@ link register save eliminated.
.LVL49:
	.loc 1 699 3
	.loc 1 702 3
	.loc 1 702 21 is_stmt 0
	ldr	r3, [r0]
	.loc 1 702 31
	ldr	r0, [r3, #4]
.LVL50:
	.loc 1 702 91
	ands	r0, r0, #6
	beq	.L46
	movs	r0, #1
.L46:
	.loc 1 703 1
	bx	lr
	.cfi_endproc
.LFE348:
	.size	HAL_RAMECC_IsECCDoubleErrorDetected, .-HAL_RAMECC_IsECCDoubleErrorDetected
	.section	.text.HAL_RAMECC_GetState,"ax",%progbits
	.align	1
	.global	HAL_RAMECC_GetState
	.syntax unified
	.thumb
	.thumb_func
	.type	HAL_RAMECC_GetState, %function
HAL_RAMECC_GetState:
.LFB349:
	.loc 1 738 1 is_stmt 1
	.cfi_startproc
	@ args = 0, pretend = 0, frame = 0
	@ frame_needed = 0, uses_anonymous_args = 0
	@ link register save eliminated.
.LVL51:
	.loc 1 740 3
	.loc 1 740 17 is_stmt 0
	ldrb	r0, [r0, #4]	@ zero_extendqisi2
.LVL52:
	.loc 1 741 1
	bx	lr
	.cfi_endproc
.LFE349:
	.size	HAL_RAMECC_GetState, .-HAL_RAMECC_GetState
	.section	.text.HAL_RAMECC_GetError,"ax",%progbits
	.align	1
	.global	HAL_RAMECC_GetError
	.syntax unified
	.thumb
	.thumb_func
	.type	HAL_RAMECC_GetError, %function
HAL_RAMECC_GetError:
.LFB350:
	.loc 1 751 1 is_stmt 1
	.cfi_startproc
	@ args = 0, pretend = 0, frame = 0
	@ frame_needed = 0, uses_anonymous_args = 0
	@ link register save eliminated.
.LVL53:
	.loc 1 753 3
	.loc 1 753 17 is_stmt 0
	ldr	r0, [r0, #8]
.LVL54:
	.loc 1 754 1
	bx	lr
	.cfi_endproc
.LFE350:
	.size	HAL_RAMECC_GetError, .-HAL_RAMECC_GetError
	.section	.text.HAL_RAMECC_GetRAMECCError,"ax",%progbits
	.align	1
	.global	HAL_RAMECC_GetRAMECCError
	.syntax unified
	.thumb
	.thumb_func
	.type	HAL_RAMECC_GetRAMECCError, %function
HAL_RAMECC_GetRAMECCError:
.LFB351:
	.loc 1 764 1 is_stmt 1
	.cfi_startproc
	@ args = 0, pretend = 0, frame = 0
	@ frame_needed = 0, uses_anonymous_args = 0
	@ link register save eliminated.
.LVL55:
	.loc 1 766 3
	.loc 1 766 17 is_stmt 0
	ldr	r0, [r0, #12]
.LVL56:
	.loc 1 767 1
	bx	lr
	.cfi_endproc
.LFE351:
	.size	HAL_RAMECC_GetRAMECCError, .-HAL_RAMECC_GetRAMECCError
	.text
.Letext0:
	.file 2 "m:\\noinstall\\arm-gnu-toolchain-12.2.rel1-mingw-w64-i686-arm-none-eabi\\arm-none-eabi\\include\\machine\\_default_types.h"
	.file 3 "m:\\noinstall\\arm-gnu-toolchain-12.2.rel1-mingw-w64-i686-arm-none-eabi\\arm-none-eabi\\include\\sys\\_stdint.h"
	.file 4 "D:/RTOS/Board/YD-STM32H7xxVx_ClassicV19/cmake-build-debug/_deps/stm32h7xx_cmsis_device-src/Include/stm32h743xx.h"
	.file 5 "D:/RTOS/Board/YD-STM32H7xxVx_ClassicV19/cmake-build-debug/_deps/stm32h7xx_hal_driver-src/Inc/stm32h7xx_hal_def.h"
	.file 6 "D:/RTOS/Board/YD-STM32H7xxVx_ClassicV19/cmake-build-debug/_deps/stm32h7xx_hal_driver-src/Inc/stm32h7xx_hal_ramecc.h"