	.cpu cortex-m7
	.arch armv7e-m
	.fpu fpv5-d16
	.eabi_attribute 28, 1
	.eabi_attribute 20, 1
	.eabi_attribute 21, 1
	.eabi_attribute 23, 3
	.eabi_attribute 24, 1
	.eabi_attribute 25, 1
	.eabi_attribute 26, 1
	.eabi_attribute 30, 1
	.eabi_attribute 34, 1
	.eabi_attribute 18, 4
	.file	"stm32h7xx_hal_pcd.c"
	.text
.Ltext0:
	.cfi_sections	.debug_frame
	.file 1 "D:/RTOS/Board/YD-STM32H7xxVx_ClassicV19/cmake-build-debug/_deps/stm32h7xx_hal_driver-src/Src/stm32h7xx_hal_pcd.c"
	.section	.text.PCD_WriteEmptyTxFifo,"ax",%progbits
	.align	1
	.syntax unified
	.thumb
	.thumb_func
	.type	PCD_WriteEmptyTxFifo, %function
PCD_WriteEmptyTxFifo:
.LFB369:
	.loc 1 2134 1
	.cfi_startproc
	@ args = 0, pretend = 0, frame = 0
	@ frame_needed = 0, uses_anonymous_args = 0
.LVL0:
	push	{r4, r5, r6, r7, r8, r9, lr}
	.cfi_def_cfa_offset 28
	.cfi_offset 4, -28
	.cfi_offset 5, -24
	.cfi_offset 6, -20
	.cfi_offset 7, -16
	.cfi_offset 8, -12
	.cfi_offset 9, -8
	.cfi_offset 14, -4
	sub	sp, sp, #12
	.cfi_def_cfa_offset 40
	.loc 1 2135 3
	.loc 1 2135 26 is_stmt 0
	ldr	r8, [r0]
.LVL1:
	.loc 1 2136 3 is_stmt 1
	.loc 1 2137 3
	.loc 1 2138 3
	.loc 1 2139 3
	.loc 1 2140 3
	.loc 1 2142 3
	.loc 1 2144 3
	.loc 1 2144 9 is_stmt 0
	add	r3, r1, r1, lsl #3
	add	r3, r0, r3, lsl #2
	ldr	r2, [r3, #40]
	.loc 1 2144 26
	ldr	r3, [r3, #36]
	.loc 1 2144 6
	cmp	r2, r3
	bhi	.L8
	mov	r7, r0
	mov	r4, r1
	.loc 1 2149 3 is_stmt 1
	.loc 1 2149 7 is_stmt 0
	subs	r3, r3, r2
.LVL2:
	.loc 1 2151 3 is_stmt 1
	.loc 1 2151 15 is_stmt 0
	add	r2, r1, r1, lsl #3
	add	r2, r0, r2, lsl #2
	ldr	r2, [r2, #28]
	.loc 1 2151 6
	cmp	r2, r3
	bcc	.L3
	.loc 1 2149 7
	mov	r2, r3
.L3:
.LVL3:
	.loc 1 2156 3 is_stmt 1
	.loc 1 2156 17 is_stmt 0
	add	r9, r2, #3
	.loc 1 2156 10
	lsr	r9, r9, #2
.LVL4:
	.loc 1 2158 3 is_stmt 1
	.loc 1 2158 9 is_stmt 0
	b	.L4
.LVL5:
.L5:
	.loc 1 2168 5 is_stmt 1
	.loc 1 2168 19 is_stmt 0
	add	r9, r6, #3
.LVL6:
	.loc 1 2168 12
	lsr	r9, r9, #2
.LVL7:
	.loc 1 2170 5 is_stmt 1
	.loc 1 2171 46 is_stmt 0
	ldrb	r3, [r7, #6]	@ zero_extendqisi2
	.loc 1 2170 11
	add	r5, r4, r4, lsl #3
	add	r5, r7, r5, lsl #2
	ldr	r1, [r5, #32]
	str	r3, [sp]
	uxth	r3, r6
	uxtb	r2, r4
	mov	r0, r8
	bl	USB_WritePacket
.LVL8:
	.loc 1 2173 5 is_stmt 1
	.loc 1 2173 7 is_stmt 0
	ldr	r3, [r5, #32]
	.loc 1 2173 19
	add	r3, r3, r6
	str	r3, [r5, #32]
	.loc 1 2174 5 is_stmt 1
	.loc 1 2174 7 is_stmt 0
	ldr	r3, [r5, #40]
	.loc 1 2174 20
	add	r3, r3, r6
	str	r3, [r5, #40]
.LVL9:
.L4:
	.loc 1 2159 42 is_stmt 1
	.loc 1 2158 65 is_stmt 0
	add	r3, r8, r4, lsl #5
	add	r3, r3, #2304
	.loc 1 2158 89
	ldr	r3, [r3, #24]
	.loc 1 2158 99
	uxth	r3, r3
	.loc 1 2159 42
	cmp	r3, r9
	bcc	.L6
	.loc 1 2159 13 discriminator 1
	add	r3, r4, r4, lsl #3
	add	r3, r7, r3, lsl #2
	ldr	r2, [r3, #40]
	.loc 1 2159 30 discriminator 1
	ldr	r3, [r3, #36]
	.loc 1 2158 132 discriminator 1
	cmp	r2, r3
	bcs	.L6
	.loc 1 2159 42
	cbz	r3, .L6
	.loc 1 2162 5 is_stmt 1
	.loc 1 2162 9 is_stmt 0
	subs	r3, r3, r2
.LVL10:
	.loc 1 2164 5 is_stmt 1
	.loc 1 2164 17 is_stmt 0
	add	r2, r4, r4, lsl #3
	add	r2, r7, r2, lsl #2
	ldr	r6, [r2, #28]
	.loc 1 2164 8
	cmp	r6, r3
	bcc	.L5
	.loc 1 2162 9
	mov	r6, r3
	b	.L5
.LVL11:
.L6:
	.loc 1 2177 3 is_stmt 1
	.loc 1 2177 9 is_stmt 0
	add	r3, r4, r4, lsl #3
	add	r7, r7, r3, lsl #2
.LVL12:
	ldr	r2, [r7, #36]
	.loc 1 2177 25
	ldr	r3, [r7, #40]
	.loc 1 2177 6
	cmp	r2, r3
	bhi	.L9
	.loc 1 2179 5 is_stmt 1
	.loc 1 2179 47 is_stmt 0
	and	r4, r4, #15
.LVL13:
	.loc 1 2179 18
	movs	r2, #1
	lsls	r2, r2, r4
.LVL14:
	.loc 1 2180 5 is_stmt 1
	.loc 1 2180 55 is_stmt 0
	ldr	r3, [r8, #2100]
	.loc 1 2180 68
	bic	r3, r3, r2
	str	r3, [r8, #2100]
	.loc 1 2183 10
	movs	r0, #0
	b	.L2
.LVL15:
.L8:
	.loc 1 2146 12
	movs	r0, #1
.LVL16:
.L2:
	.loc 1 2184 1
	add	sp, sp, #12
	.cfi_remember_state
	.cfi_def_cfa_offset 28
	@ sp needed
	pop	{r4, r5, r6, r7, r8, r9, pc}
.LVL17:
.L9:
	.cfi_restore_state
	.loc 1 2183 10
	movs	r0, #0
	b	.L2
	.cfi_endproc
.LFE369:
	.size	PCD_WriteEmptyTxFifo, .-PCD_WriteEmptyTxFifo
	.section	.text.HAL_PCD_MspInit,"ax",%progbits
	.align	1
	.weak	HAL_PCD_MspInit
	.syntax unified
	.thumb
	.thumb_func
	.type	HAL_PCD_MspInit, %function
HAL_PCD_MspInit:
.LFB337:
	.loc 1 279 1 is_stmt 1
	.cfi_startproc
	@ args = 0, pretend = 0, frame = 0
	@ frame_needed = 0, uses_anonymous_args = 0
	@ link register save eliminated.
.LVL18:
	.loc 1 281 3
	.loc 1 286 1 is_stmt 0
	bx	lr
	.cfi_endproc
.LFE337:
	.size	HAL_PCD_MspInit, .-HAL_PCD_MspInit
	.section	.text.HAL_PCD_Init,"ax",%progbits
	.align	1
	.global	HAL_PCD_Init
	.syntax unified
	.thumb
	.thumb_func
	.type	HAL_PCD_Init, %function
HAL_PCD_Init:
.LFB335:
	.loc 1 124 1 is_stmt 1
	.cfi_startproc
	@ args = 0, pretend = 0, frame = 0
	@ frame_needed = 0, uses_anonymous_args = 0
.LVL19:
	push	{r4, r5, lr}
	.cfi_def_cfa_offset 12
	.cfi_offset 4, -12
	.cfi_offset 5, -8
	.cfi_offset 14, -4
	sub	sp, sp, #12
	.cfi_def_cfa_offset 24
	.loc 1 125 3
	.loc 1 128 3
	.loc 1 128 6 is_stmt 0
	cmp	r0, #0
	beq	.L22
	mov	r4, r0
	.loc 1 134 3 is_stmt 1
	.loc 1 136 3
	.loc 1 136 11 is_stmt 0
	ldrb	r3, [r0, #1173]	@ zero_extendqisi2
	.loc 1 136 6
	cbz	r3, .L25
.LVL20:
.L14:
	.loc 1 169 3 is_stmt 1
	.loc 1 169 15 is_stmt 0
	movs	r3, #3
	strb	r3, [r4, #1173]
	.loc 1 172 3 is_stmt 1
	.loc 1 172 9 is_stmt 0
	ldr	r0, [r4]
	bl	USB_DisableGlobalInt
.LVL21:
	.loc 1 175 3 is_stmt 1
	.loc 1 175 7 is_stmt 0
	ldrb	r3, [r4, #16]	@ zero_extendqisi2
	strb	r3, [sp]
	adds	r3, r4, #4
	ldm	r3, {r1, r2, r3}
	ldr	r0, [r4]
	bl	USB_CoreInit
.LVL22:
	.loc 1 175 6
	cbz	r0, .L15
	.loc 1 177 5 is_stmt 1
	.loc 1 177 17 is_stmt 0
	movs	r3, #2
	strb	r3, [r4, #1173]
	.loc 1 178 5 is_stmt 1
	.loc 1 178 12 is_stmt 0
	movs	r5, #1
.LVL23:
.L13:
	.loc 1 232 1
	mov	r0, r5
	add	sp, sp, #12
	.cfi_remember_state
	.cfi_def_cfa_offset 12
	@ sp needed
	pop	{r4, r5, pc}
.LVL24:
.L25:
	.cfi_restore_state
	.loc 1 139 5 is_stmt 1
	.loc 1 139 16 is_stmt 0
	strb	r3, [r0, #1172]
	.loc 1 165 5 is_stmt 1
	bl	HAL_PCD_MspInit
.LVL25:
	b	.L14
.L15:
	.loc 1 182 3
	.loc 1 182 7 is_stmt 0
	movs	r1, #0
	ldr	r0, [r4]
	bl	USB_SetCurrentMode
.LVL26:
	.loc 1 182 6
	mov	r2, r0
	cbnz	r0, .L26
	.loc 1 189 10
	mov	r3, r0
	b	.L16
.L26:
	.loc 1 184 5 is_stmt 1
	.loc 1 184 17 is_stmt 0
	movs	r3, #2
	strb	r3, [r4, #1173]
	.loc 1 185 5 is_stmt 1
	.loc 1 185 12 is_stmt 0
	movs	r5, #1
	b	.L13
.LVL27:
.L17:
	.loc 1 192 5 is_stmt 1 discriminator 3
	.loc 1 192 26 is_stmt 0 discriminator 3
	add	r1, r3, r3, lsl #3
	add	r1, r4, r1, lsl #2
	movs	r0, #1
	strb	r0, [r1, #21]
	.loc 1 193 5 is_stmt 1 discriminator 3
	.loc 1 193 24 is_stmt 0 discriminator 3
	strb	r3, [r1, #20]
	.loc 1 194 5 is_stmt 1 discriminator 3
	.loc 1 194 32 is_stmt 0 discriminator 3
	strh	r3, [r1, #46]	@ movhi
	.loc 1 196 5 is_stmt 1 discriminator 3
	.loc 1 196 25 is_stmt 0 discriminator 3
	movs	r0, #0
	strb	r0, [r1, #24]
	.loc 1 197 5 is_stmt 1 discriminator 3
	.loc 1 197 30 is_stmt 0 discriminator 3
	str	r0, [r1, #28]
	.loc 1 198 5 is_stmt 1 discriminator 3
	.loc 1 198 30 is_stmt 0 discriminator 3
	str	r0, [r1, #32]
	.loc 1 199 5 is_stmt 1 discriminator 3
	.loc 1 199 29 is_stmt 0 discriminator 3
	add	r1, r3, r3, lsl #3
	add	r1, r4, r1, lsl #2
	str	r0, [r1, #36]
	.loc 1 189 47 is_stmt 1 discriminator 3
	adds	r3, r3, #1
.LVL28:
	uxtb	r3, r3
.LVL29:
.L16:
	.loc 1 189 18 discriminator 1
	.loc 1 189 30 is_stmt 0 discriminator 1
	ldrb	r0, [r4, #4]	@ zero_extendqisi2
	.loc 1 189 18 discriminator 1
	cmp	r0, r3
	bhi	.L17
	b	.L18
.LVL30:
.L19:
	.loc 1 204 5 is_stmt 1 discriminator 3
	.loc 1 204 27 is_stmt 0 discriminator 3
	add	r3, r2, r2, lsl #3
	add	r3, r4, r3, lsl #2
	movs	r1, #0
	strb	r1, [r3, #597]
	.loc 1 205 5 is_stmt 1 discriminator 3
	.loc 1 205 25 is_stmt 0 discriminator 3
	strb	r2, [r3, #596]
	.loc 1 207 5 is_stmt 1 discriminator 3
	.loc 1 207 26 is_stmt 0 discriminator 3
	strb	r1, [r3, #600]
	.loc 1 208 5 is_stmt 1 discriminator 3
	.loc 1 208 31 is_stmt 0 discriminator 3
	str	r1, [r3, #604]
	.loc 1 209 5 is_stmt 1 discriminator 3
	.loc 1 209 31 is_stmt 0 discriminator 3
	str	r1, [r3, #608]
	.loc 1 210 5 is_stmt 1 discriminator 3
	.loc 1 210 30 is_stmt 0 discriminator 3
	add	r3, r2, r2, lsl #3
	add	r3, r4, r3, lsl #2
	str	r1, [r3, #612]
	.loc 1 202 47 is_stmt 1 discriminator 3
	adds	r2, r2, #1
.LVL31:
	uxtb	r2, r2
.LVL32:
.L18:
	.loc 1 202 18 discriminator 1
	cmp	r0, r2
	bhi	.L19
	.loc 1 214 3
	.loc 1 214 7 is_stmt 0
	ldrb	r3, [r4, #16]	@ zero_extendqisi2
	strb	r3, [sp]
	adds	r3, r4, #4
	ldm	r3, {r1, r2, r3}
.LVL33:
	ldr	r0, [r4]
	bl	USB_DevInit
.LVL34:
	.loc 1 214 6
	mov	r5, r0
	cbnz	r0, .L27
	.loc 1 220 3 is_stmt 1
	.loc 1 220 21 is_stmt 0
	movs	r3, #0
	strb	r3, [r4, #17]
	.loc 1 221 3 is_stmt 1
	.loc 1 221 15 is_stmt 0
	movs	r3, #1
	strb	r3, [r4, #1173]
	.loc 1 224 3 is_stmt 1
	.loc 1 224 17 is_stmt 0
	ldrb	r3, [r4, #12]	@ zero_extendqisi2
	.loc 1 224 6
	cmp	r3, #1
	beq	.L28
.L21:
	.loc 1 229 3 is_stmt 1
	.loc 1 229 9 is_stmt 0
	ldr	r0, [r4]
	bl	USB_DevDisconnect
.LVL35:
	.loc 1 231 3 is_stmt 1
	.loc 1 231 10 is_stmt 0
	b	.L13
.L27:
	.loc 1 216 5 is_stmt 1
	.loc 1 216 17 is_stmt 0
	movs	r3, #2
	strb	r3, [r4, #1173]
	.loc 1 217 5 is_stmt 1
	.loc 1 217 12 is_stmt 0
	movs	r5, #1
	b	.L13
.L28:
	.loc 1 226 5 is_stmt 1
	.loc 1 226 11 is_stmt 0
	mov	r0, r4
	bl	HAL_PCDEx_ActivateLPM
.LVL36:
	b	.L21
.LVL37:
.L22:
	.loc 1 130 12
	movs	r5, #1
	b	.L13
	.cfi_endproc
.LFE335:
	.size	HAL_PCD_Init, .-HAL_PCD_Init
	.section	.text.HAL_PCD_MspDeInit,"ax",%progbits
	.align	1
	.weak	HAL_PCD_MspDeInit
	.syntax unified
	.thumb
	.thumb_func
	.type	HAL_PCD_MspDeInit, %function
HAL_PCD_MspDeInit:
.LFB338:
	.loc 1 294 1 is_stmt 1
	.cfi_startproc
	@ args = 0, pretend = 0, frame = 0
	@ frame_needed = 0, uses_anonymous_args = 0
	@ link register save eliminated.
.LVL38:
	.loc 1 296 3
	.loc 1 301 1 is_stmt 0
	bx	lr
	.cfi_endproc
.LFE338:
	.size	HAL_PCD_MspDeInit, .-HAL_PCD_MspDeInit
	.section	.text.HAL_PCD_DeInit,"ax",%progbits
	.align	1
	.global	HAL_PCD_DeInit
	.syntax unified
	.thumb
	.thumb_func
	.type	HAL_PCD_DeInit, %function
HAL_PCD_DeInit:
.LFB336:
	.loc 1 240 1 is_stmt 1
	.cfi_startproc
	@ args = 0, pretend = 0, frame = 0
	@ frame_needed = 0, uses_anonymous_args = 0
.LVL39:
	push	{r3, r4, r5, lr}
	.cfi_def_cfa_offset 16
	.cfi_offset 3, -16
	.cfi_offset 4, -12
	.cfi_offset 5, -8
	.cfi_offset 14, -4
	.loc 1 242 3
	.loc 1 242 6 is_stmt 0
	cbz	r0, .L32
	mov	r4, r0
	.loc 1 247 3 is_stmt 1
	.loc 1 247 15 is_stmt 0
	movs	r3, #3
	strb	r3, [r0, #1173]
	.loc 1 250 3 is_stmt 1
	.loc 1 250 7 is_stmt 0
	ldr	r0, [r0]
.LVL40:
	bl	USB_StopDevice
.LVL41:
	.loc 1 250 6
	mov	r5, r0
	cbz	r0, .L35
	.loc 1 252 12
	movs	r5, #1
.LVL42:
.L31:
	.loc 1 271 1
	mov	r0, r5
	pop	{r3, r4, r5, pc}
.LVL43:
.L35:
	.loc 1 265 3 is_stmt 1
	mov	r0, r4
	bl	HAL_PCD_MspDeInit
.LVL44:
	.loc 1 268 3
	.loc 1 268 15 is_stmt 0
	movs	r3, #0
	strb	r3, [r4, #1173]
	.loc 1 270 3 is_stmt 1
	.loc 1 270 10 is_stmt 0
	b	.L31
.LVL45:
.L32:
	.loc 1 244 12
	movs	r5, #1
	b	.L31
	.cfi_endproc
.LFE336:
	.size	HAL_PCD_DeInit, .-HAL_PCD_DeInit
	.section	.text.HAL_PCD_Start,"ax",%progbits
	.align	1
	.global	HAL_PCD_Start
	.syntax unified
	.thumb
	.thumb_func
	.type	HAL_PCD_Start, %function
HAL_PCD_Start:
.LFB339:
	.loc 1 997 1 is_stmt 1
	.cfi_startproc
	@ args = 0, pretend = 0, frame = 0
	@ frame_needed = 0, uses_anonymous_args = 0
.LVL46:
	.loc 1 998 3
	.loc 1 998 26 is_stmt 0
	ldr	r3, [r0]
.LVL47:
	.loc 1 1000 3 is_stmt 1
	.loc 1 1000 7
	.loc 1 1000 16 is_stmt 0
	ldrb	r2, [r0, #1172]	@ zero_extendqisi2
	.loc 1 1000 9
	cmp	r2, #1
	beq	.L39
	.loc 1 997 1 discriminator 2
	push	{r4, lr}
	.cfi_def_cfa_offset 8
	.cfi_offset 4, -8
	.cfi_offset 14, -4
	mov	r4, r0
	.loc 1 1000 66 is_stmt 1 discriminator 2
	.loc 1 1000 79 is_stmt 0 discriminator 2
	movs	r2, #1
	strb	r2, [r0, #1172]
	.loc 1 1000 5 is_stmt 1 discriminator 2
	.loc 1 1002 3 discriminator 2
	.loc 1 1002 13 is_stmt 0 discriminator 2
	ldr	r2, [r3, #12]
	.loc 1 1002 6 discriminator 2
	tst	r2, #64
	beq	.L38
	.loc 1 1003 18 discriminator 1
	ldrb	r2, [r0, #13]	@ zero_extendqisi2
	.loc 1 1002 49 discriminator 1
	cmp	r2, #1
	beq	.L44
.L38:
	.loc 1 1009 3 is_stmt 1
	.loc 1 1009 9 is_stmt 0
	ldr	r0, [r4]
.LVL48:
	bl	USB_EnableGlobalInt
.LVL49:
	.loc 1 1010 3 is_stmt 1
	.loc 1 1010 9 is_stmt 0
	ldr	r0, [r4]
	bl	USB_DevConnect
.LVL50:
	.loc 1 1011 3 is_stmt 1
	.loc 1 1011 7
	.loc 1 1011 20 is_stmt 0
	movs	r0, #0
	strb	r0, [r4, #1172]
	.loc 1 1011 5 is_stmt 1
	.loc 1 1013 3
	.loc 1 1014 1 is_stmt 0
	pop	{r4, pc}
.LVL51:
.L44:
	.loc 1 1006 5 is_stmt 1
	.loc 1 1006 9 is_stmt 0
	ldr	r2, [r3, #56]
	.loc 1 1006 17
	orr	r2, r2, #65536
	str	r2, [r3, #56]
	b	.L38
.L39:
	.cfi_def_cfa_offset 0
	.cfi_restore 4
	.cfi_restore 14
	.loc 1 1000 47
	movs	r0, #2
.LVL52:
	.loc 1 1014 1
	bx	lr
	.cfi_endproc
.LFE339:
	.size	HAL_PCD_Start, .-HAL_PCD_Start
	.section	.text.HAL_PCD_Stop,"ax",%progbits
	.align	1
	.global	HAL_PCD_Stop
	.syntax unified
	.thumb
	.thumb_func
	.type	HAL_PCD_Stop, %function
HAL_PCD_Stop:
.LFB340:
	.loc 1 1022 1 is_stmt 1
	.cfi_startproc
	@ args = 0, pretend = 0, frame = 0
	@ frame_needed = 0, uses_anonymous_args = 0
.LVL53:
	push	{r3, r4, r5, lr}
	.cfi_def_cfa_offset 16
	.cfi_offset 3, -16
	.cfi_offset 4, -12
	.cfi_offset 5, -8
	.cfi_offset 14, -4
	.loc 1 1023 3
	.loc 1 1023 26 is_stmt 0
	ldr	r5, [r0]
.LVL54:
	.loc 1 1025 3 is_stmt 1
	.loc 1 1025 7
	.loc 1 1025 16 is_stmt 0
	ldrb	r3, [r0, #1172]	@ zero_extendqisi2
	.loc 1 1025 9
	cmp	r3, #1
	beq	.L48
	mov	r4, r0
	.loc 1 1025 66 is_stmt 1 discriminator 2
	.loc 1 1025 79 is_stmt 0 discriminator 2
	movs	r3, #1
	strb	r3, [r0, #1172]
	.loc 1 1025 5 is_stmt 1 discriminator 2
	.loc 1 1026 3 discriminator 2
	.loc 1 1026 9 is_stmt 0 discriminator 2
	mov	r0, r5
.LVL55:
	bl	USB_DisableGlobalInt
.LVL56:
	.loc 1 1027 3 is_stmt 1 discriminator 2
	.loc 1 1027 9 is_stmt 0 discriminator 2
	ldr	r0, [r4]
	bl	USB_DevDisconnect
.LVL57:
	.loc 1 1029 3 is_stmt 1 discriminator 2
	.loc 1 1029 9 is_stmt 0 discriminator 2
	movs	r1, #16
	ldr	r0, [r4]
	bl	USB_FlushTxFifo
.LVL58:
	.loc 1 1031 3 is_stmt 1 discriminator 2
	.loc 1 1031 13 is_stmt 0 discriminator 2
	ldr	r3, [r5, #12]
	.loc 1 1031 6 discriminator 2
	tst	r3, #64
	beq	.L47
	.loc 1 1032 18 discriminator 1
	ldrb	r3, [r4, #13]	@ zero_extendqisi2
	.loc 1 1031 49 discriminator 1
	cmp	r3, #1
	beq	.L50
.L47:
	.loc 1 1038 3 is_stmt 1
	.loc 1 1038 7
	.loc 1 1038 20 is_stmt 0
	movs	r0, #0
	strb	r0, [r4, #1172]
	.loc 1 1038 5 is_stmt 1
	.loc 1 1040 3
.LVL59:
.L46:
	.loc 1 1041 1 is_stmt 0
	pop	{r3, r4, r5, pc}
.LVL60:
.L50:
	.loc 1 1035 5 is_stmt 1
	.loc 1 1035 9 is_stmt 0
	ldr	r3, [r5, #56]
	.loc 1 1035 17
	bic	r3, r3, #65536
	str	r3, [r5, #56]
	b	.L47
.LVL61:
.L48:
	.loc 1 1025 47
	movs	r0, #2
.LVL62:
	b	.L46
	.cfi_endproc
.LFE340:
	.size	HAL_PCD_Stop, .-HAL_PCD_Stop
	.section	.text.HAL_PCD_DataOutStageCallback,"ax",%progbits
	.align	1
	.weak	HAL_PCD_DataOutStageCallback
	.syntax unified
	.thumb
	.thumb_func
	.type	HAL_PCD_DataOutStageCallback, %function
HAL_PCD_DataOutStageCallback:
.LFB342:
	.loc 1 1512 1 is_stmt 1
	.cfi_startproc
	@ args = 0, pretend = 0, frame = 0
	@ frame_needed = 0, uses_anonymous_args = 0
	@ link register save eliminated.
.LVL63:
	.loc 1 1514 3
	.loc 1 1515 3
	.loc 1 1520 1 is_stmt 0
	bx	lr
	.cfi_endproc
.LFE342:
	.size	HAL_PCD_DataOutStageCallback, .-HAL_PCD_DataOutStageCallback
	.section	.text.PCD_EP_OutXfrComplete_int,"ax",%progbits
	.align	1
	.syntax unified
	.thumb
	.thumb_func
	.type	PCD_EP_OutXfrComplete_int, %function
PCD_EP_OutXfrComplete_int:
.LFB370:
	.loc 1 2194 1 is_stmt 1
	.cfi_startproc
	@ args = 0, pretend = 0, frame = 0
	@ frame_needed = 0, uses_anonymous_args = 0
.LVL64:
	push	{r4, r5, r6, lr}
	.cfi_def_cfa_offset 16
	.cfi_offset 4, -16
	.cfi_offset 5, -12
	.cfi_offset 6, -8
	.cfi_offset 14, -4
	mov	r4, r0
	mov	r5, r1
	.loc 1 2195 3
	.loc 1 2196 3
	.loc 1 2196 32 is_stmt 0
	ldr	r0, [r0]
.LVL65:
	.loc 1 2197 3 is_stmt 1
	.loc 1 2198 3
	.loc 1 2198 12 is_stmt 0
	ldr	r6, [r0, #64]
.LVL66:
	.loc 1 2199 3 is_stmt 1
	.loc 1 2199 79 is_stmt 0
	add	r3, r0, r1, lsl #5
	add	r3, r3, #2816
	.loc 1 2199 12
	ldr	r2, [r3, #8]
.LVL67:
	.loc 1 2201 3 is_stmt 1
	.loc 1 2201 17 is_stmt 0
	ldrb	r1, [r4, #6]	@ zero_extendqisi2
.LVL68:
	.loc 1 2201 6
	cmp	r1, #1
	beq	.L65
	.loc 1 2258 5 is_stmt 1
	.loc 1 2258 8 is_stmt 0
	ldr	r1, .L69
	cmp	r6, r1
	beq	.L66
	.loc 1 2281 7 is_stmt 1
	.loc 1 2281 10 is_stmt 0
	cbnz	r5, .L63
	.loc 1 2281 48 discriminator 1
	add	r3, r5, r5, lsl #3
	add	r3, r4, r3, lsl #2
	ldr	r3, [r3, #612]
	.loc 1 2281 25 discriminator 1
	cmp	r3, #0
	beq	.L67
.LVL69:
.L63:
	.loc 1 2290 7 is_stmt 1
	uxtb	r1, r5
	mov	r0, r4
	bl	HAL_PCD_DataOutStageCallback
.LVL70:
.L55:
	.loc 1 2295 3
	.loc 1 2296 1 is_stmt 0
	movs	r0, #0
	pop	{r4, r5, r6, pc}
.LVL71:
.L65:
	.loc 1 2203 5 is_stmt 1
	.loc 1 2203 8 is_stmt 0
	tst	r2, #8
	beq	.L54
	.loc 1 2206 7 is_stmt 1
	.loc 1 2206 10 is_stmt 0
	ldr	r1, .L69+4
	cmp	r6, r1
	bls	.L55
	.loc 1 2206 35 discriminator 1
	tst	r2, #32768
	beq	.L55
	.loc 1 2209 9 is_stmt 1
	.loc 1 2209 98 is_stmt 0
	mov	r2, #32768
.LVL72:
	str	r2, [r3, #8]
	b	.L55
.LVL73:
.L54:
	.loc 1 2212 10 is_stmt 1
	.loc 1 2212 13 is_stmt 0
	tst	r2, #32
	beq	.L56
	.loc 1 2214 7 is_stmt 1
	.loc 1 2214 96 is_stmt 0
	movs	r2, #32
.LVL74:
	str	r2, [r3, #8]
	b	.L55
.LVL75:
.L56:
	.loc 1 2216 10 is_stmt 1
	.loc 1 2216 13 is_stmt 0
	tst	r2, #40
	bne	.L55
	.loc 1 2219 7 is_stmt 1
	.loc 1 2219 10 is_stmt 0
	ldr	r1, .L69+4
	cmp	r6, r1
	bls	.L57
	.loc 1 2219 35 discriminator 1
	tst	r2, #32768
	beq	.L57
	.loc 1 2222 9 is_stmt 1
	.loc 1 2222 98 is_stmt 0
	mov	r2, #32768
.LVL76:
	str	r2, [r3, #8]
	b	.L55
.LVL77:
.L57:
	.loc 1 2226 9 is_stmt 1
	.loc 1 2229 9
	.loc 1 2229 28 is_stmt 0
	add	r2, r5, r5, lsl #3
.LVL78:
	add	r2, r4, r2, lsl #2
	ldr	r1, [r2, #628]
	.loc 1 2229 121
	ldr	r3, [r3, #16]
	.loc 1 2229 132
	ubfx	r3, r3, #0, #19
	.loc 1 2229 40
	subs	r3, r1, r3
	.loc 1 2229 24
	str	r3, [r2, #616]
	.loc 1 2231 9 is_stmt 1
	.loc 1 2231 12 is_stmt 0
	cbnz	r5, .L58
	.loc 1 2233 11 is_stmt 1
	.loc 1 2233 17 is_stmt 0
	add	r2, r5, r5, lsl #3
	add	r2, r4, r2, lsl #2
	ldr	r2, [r2, #612]
	.loc 1 2233 14
	cbz	r2, .L68
	.loc 1 2240 13 is_stmt 1
	.loc 1 2240 15 is_stmt 0
	add	r2, r5, r5, lsl #3
	add	r2, r4, r2, lsl #2
	ldr	r1, [r2, #608]
	.loc 1 2240 27
	add	r1, r1, r3
	str	r1, [r2, #608]
.LVL79:
.L58:
	.loc 1 2247 9 is_stmt 1
	uxtb	r1, r5
	mov	r0, r4
	bl	HAL_PCD_DataOutStageCallback
.LVL80:
	b	.L55
.LVL81:
.L68:
	.loc 1 2236 13
	.loc 1 2236 19 is_stmt 0
	addw	r2, r4, #1180
	movs	r1, #1
	bl	USB_EP0_OutStart
.LVL82:
	b	.L58
.LVL83:
.L66:
	.loc 1 2261 7 is_stmt 1
	.loc 1 2261 10 is_stmt 0
	tst	r2, #32768
	beq	.L61
	.loc 1 2263 9 is_stmt 1
	.loc 1 2263 98 is_stmt 0
	mov	r2, #32768
.LVL84:
	str	r2, [r3, #8]
	b	.L55
.LVL85:
.L61:
	.loc 1 2267 9 is_stmt 1
	.loc 1 2267 12 is_stmt 0
	tst	r2, #32
	beq	.L62
	.loc 1 2269 11 is_stmt 1
	.loc 1 2269 100 is_stmt 0
	movs	r2, #32
.LVL86:
	str	r2, [r3, #8]
.L62:
	.loc 1 2275 9 is_stmt 1
	uxtb	r1, r5
	mov	r0, r4
.LVL87:
	bl	HAL_PCD_DataOutStageCallback
.LVL88:
	b	.L55
.LVL89:
.L67:
	.loc 1 2284 9
	.loc 1 2284 15 is_stmt 0
	addw	r2, r4, #1180
.LVL90:
	movs	r1, #0
	bl	USB_EP0_OutStart
.LVL91:
	b	.L63
.L70:
	.align	2
.L69:
	.word	1330917642
	.word	1330917386
	.cfi_endproc
.LFE370:
	.size	PCD_EP_OutXfrComplete_int, .-PCD_EP_OutXfrComplete_int
	.section	.text.HAL_PCD_DataInStageCallback,"ax",%progbits
	.align	1
	.weak	HAL_PCD_DataInStageCallback
	.syntax unified
	.thumb
	.thumb_func
	.type	HAL_PCD_DataInStageCallback, %function
HAL_PCD_DataInStageCallback:
.LFB343:
	.loc 1 1529 1 is_stmt 1
	.cfi_startproc
	@ args = 0, pretend = 0, frame = 0
	@ frame_needed = 0, uses_anonymous_args = 0
	@ link register save eliminated.
.LVL92:
	.loc 1 1531 3
	.loc 1 1532 3
	.loc 1 1537 1 is_stmt 0
	bx	lr
	.cfi_endproc
.LFE343:
	.size	HAL_PCD_DataInStageCallback, .-HAL_PCD_DataInStageCallback
	.section	.text.HAL_PCD_SetupStageCallback,"ax",%progbits
	.align	1
	.weak	HAL_PCD_SetupStageCallback
	.syntax unified
	.thumb
	.thumb_func
	.type	HAL_PCD_SetupStageCallback, %function
HAL_PCD_SetupStageCallback:
.LFB344:
	.loc 1 1544 1 is_stmt 1
	.cfi_startproc
	@ args = 0, pretend = 0, frame = 0
	@ frame_needed = 0, uses_anonymous_args = 0
	@ link register save eliminated.
.LVL93:
	.loc 1 1546 3
	.loc 1 1551 1 is_stmt 0
	bx	lr
	.cfi_endproc
.LFE344:
	.size	HAL_PCD_SetupStageCallback, .-HAL_PCD_SetupStageCallback
	.section	.text.PCD_EP_OutSetupPacket_int,"ax",%progbits
	.align	1
	.syntax unified
	.thumb
	.thumb_func
	.type	PCD_EP_OutSetupPacket_int, %function
PCD_EP_OutSetupPacket_int:
.LFB371:
	.loc 1 2306 1 is_stmt 1
	.cfi_startproc
	@ args = 0, pretend = 0, frame = 0
	@ frame_needed = 0, uses_anonymous_args = 0
.LVL94:
	push	{r3, r4, r5, lr}
	.cfi_def_cfa_offset 16
	.cfi_offset 3, -16
	.cfi_offset 4, -12
	.cfi_offset 5, -8
	.cfi_offset 14, -4
	mov	r4, r0
	.loc 1 2307 3
	.loc 1 2307 32 is_stmt 0
	ldr	r3, [r0]
.LVL95:
	.loc 1 2308 3 is_stmt 1
	.loc 1 2309 3
	.loc 1 2309 12 is_stmt 0
	ldr	r5, [r3, #64]
.LVL96:
	.loc 1 2310 3 is_stmt 1
	.loc 1 2310 79 is_stmt 0
	add	r3, r3, r1, lsl #5
.LVL97:
	.loc 1 2310 12
	ldr	r1, [r3, #2824]
.LVL98:
	.loc 1 2312 3 is_stmt 1
	.loc 1 2312 6 is_stmt 0
	ldr	r2, .L78
	cmp	r5, r2
	bls	.L74
	add	r3, r3, #2816
	.loc 1 2312 31 discriminator 1
	tst	r1, #32768
	beq	.L74
	.loc 1 2315 5 is_stmt 1
	.loc 1 2315 94 is_stmt 0
	mov	r2, #32768
	str	r2, [r3, #8]
.LVL99:
.L74:
	.loc 1 2322 3 is_stmt 1
	mov	r0, r4
.LVL100:
	bl	HAL_PCD_SetupStageCallback
.LVL101:
	.loc 1 2325 3
	.loc 1 2325 6 is_stmt 0
	ldr	r3, .L78
	cmp	r5, r3
	bls	.L75
	.loc 1 2325 45 discriminator 1
	ldrb	r3, [r4, #6]	@ zero_extendqisi2
	.loc 1 2325 31 discriminator 1
	cmp	r3, #1
	beq	.L77
.L75:
	.loc 1 2330 3 is_stmt 1
	.loc 1 2331 1 is_stmt 0
	movs	r0, #0
	pop	{r3, r4, r5, pc}
.LVL102:
.L77:
	.loc 1 2327 5 is_stmt 1
	.loc 1 2327 11 is_stmt 0
	addw	r2, r4, #1180
	movs	r1, #1
	ldr	r0, [r4]
	bl	USB_EP0_OutStart
.LVL103:
	b	.L75
.L79:
	.align	2
.L78:
	.word	1330917386
	.cfi_endproc
.LFE371:
	.size	PCD_EP_OutSetupPacket_int, .-PCD_EP_OutSetupPacket_int
	.section	.text.HAL_PCD_SOFCallback,"ax",%progbits
	.align	1
	.weak	HAL_PCD_SOFCallback
	.syntax unified
	.thumb
	.thumb_func
	.type	HAL_PCD_SOFCallback, %function
HAL_PCD_SOFCallback:
.LFB345:
	.loc 1 1559 1 is_stmt 1
	.cfi_startproc
	@ args = 0, pretend = 0, frame = 0
	@ frame_needed = 0, uses_anonymous_args = 0
	@ link register save eliminated.
.LVL104:
	.loc 1 1561 3
	.loc 1 1566 1 is_stmt 0
	bx	lr
	.cfi_endproc
.LFE345:
	.size	HAL_PCD_SOFCallback, .-HAL_PCD_SOFCallback
	.section	.text.HAL_PCD_ResetCallback,"ax",%progbits
	.align	1
	.weak	HAL_PCD_ResetCallback
	.syntax unified
	.thumb
	.thumb_func
	.type	HAL_PCD_ResetCallback, %function
HAL_PCD_ResetCallback:
.LFB346:
	.loc 1 1574 1 is_stmt 1
	.cfi_startproc
	@ args = 0, pretend = 0, frame = 0
	@ frame_needed = 0, uses_anonymous_args = 0
	@ link register save eliminated.
.LVL105:
	.loc 1 1576 3
	.loc 1 1581 1 is_stmt 0
	bx	lr
	.cfi_endproc
.LFE346:
	.size	HAL_PCD_ResetCallback, .-HAL_PCD_ResetCallback
	.section	.text.HAL_PCD_SuspendCallback,"ax",%progbits
	.align	1
	.weak	HAL_PCD_SuspendCallback
	.syntax unified
	.thumb
	.thumb_func
	.type	HAL_PCD_SuspendCallback, %function
HAL_PCD_SuspendCallback:
.LFB347:
	.loc 1 1589 1 is_stmt 1
	.cfi_startproc
	@ args = 0, pretend = 0, frame = 0
	@ frame_needed = 0, uses_anonymous_args = 0
	@ link register save eliminated.
.LVL106:
	.loc 1 1591 3
	.loc 1 1596 1 is_stmt 0
	bx	lr
	.cfi_endproc
.LFE347:
	.size	HAL_PCD_SuspendCallback, .-HAL_PCD_SuspendCallback
	.section	.text.HAL_PCD_ResumeCallback,"ax",%progbits
	.align	1
	.weak	HAL_PCD_ResumeCallback
	.syntax unified
	.thumb
	.thumb_func
	.type	HAL_PCD_ResumeCallback, %function
HAL_PCD_ResumeCallback:
.LFB348:
	.loc 1 1604 1 is_stmt 1
	.cfi_startproc
	@ args = 0, pretend = 0, frame = 0
	@ frame_needed = 0, uses_anonymous_args = 0
	@ link register save eliminated.
.LVL107:
	.loc 1 1606 3
	.loc 1 1611 1 is_stmt 0
	bx	lr
	.cfi_endproc
.LFE348:
	.size	HAL_PCD_ResumeCallback, .-HAL_PCD_ResumeCallback
	.section	.text.HAL_PCD_ISOOUTIncompleteCallback,"ax",%progbits
	.align	1
	.weak	HAL_PCD_ISOOUTIncompleteCallback
	.syntax unified
	.thumb
	.thumb_func
	.type	HAL_PCD_ISOOUTIncompleteCallback, %function
HAL_PCD_ISOOUTIncompleteCallback:
.LFB349:
	.loc 1 1620 1 is_stmt 1
	.cfi_startproc
	@ args = 0, pretend = 0, frame = 0
	@ frame_needed = 0, uses_anonymous_args = 0
	@ link register save eliminated.
.LVL108:
	.loc 1 1622 3
	.loc 1 1623 3
	.loc 1 1628 1 is_stmt 0
	bx	lr
	.cfi_endproc
.LFE349:
	.size	HAL_PCD_ISOOUTIncompleteCallback, .-HAL_PCD_ISOOUTIncompleteCallback
	.section	.text.HAL_PCD_ISOINIncompleteCallback,"ax",%progbits
	.align	1
	.weak	HAL_PCD_ISOINIncompleteCallback
	.syntax unified
	.thumb
	.thumb_func
	.type	HAL_PCD_ISOINIncompleteCallback, %function
HAL_PCD_ISOINIncompleteCallback:
.LFB350:
	.loc 1 1637 1 is_stmt 1
	.cfi_startproc
	@ args = 0, pretend = 0, frame = 0
	@ frame_needed = 0, uses_anonymous_args = 0
	@ link register save eliminated.
.LVL109:
	.loc 1 1639 3
	.loc 1 1640 3
	.loc 1 1645 1 is_stmt 0
	bx	lr
	.cfi_endproc
.LFE350:
	.size	HAL_PCD_ISOINIncompleteCallback, .-HAL_PCD_ISOINIncompleteCallback
	.section	.text.HAL_PCD_ConnectCallback,"ax",%progbits
	.align	1
	.weak	HAL_PCD_ConnectCallback
	.syntax unified
	.thumb
	.thumb_func
	.type	HAL_PCD_ConnectCallback, %function
HAL_PCD_ConnectCallback:
.LFB351:
	.loc 1 1653 1 is_stmt 1
	.cfi_startproc
	@ args = 0, pretend = 0, frame = 0
	@ frame_needed = 0, uses_anonymous_args = 0
	@ link register save eliminated.
.LVL110:
	.loc 1 1655 3
	.loc 1 1660 1 is_stmt 0
	bx	lr
	.cfi_endproc
.LFE351:
	.size	HAL_PCD_ConnectCallback, .-HAL_PCD_ConnectCallback
	.section	.text.HAL_PCD_DisconnectCallback,"ax",%progbits
	.align	1
	.weak	HAL_PCD_DisconnectCallback
	.syntax unified
	.thumb
	.thumb_func
	.type	HAL_PCD_DisconnectCallback, %function
HAL_PCD_DisconnectCallback:
.LFB352:
	.loc 1 1668 1 is_stmt 1
	.cfi_startproc
	@ args = 0, pretend = 0, frame = 0
	@ frame_needed = 0, uses_anonymous_args = 0
	@ link register save eliminated.
.LVL111:
	.loc 1 1670 3
	.loc 1 1675 1 is_stmt 0
	bx	lr
	.cfi_endproc
.LFE352:
	.size	HAL_PCD_DisconnectCallback, .-HAL_PCD_DisconnectCallback
	.section	.text.HAL_PCD_DevConnect,"ax",%progbits
	.align	1
	.global	HAL_PCD_DevConnect
	.syntax unified
	.thumb
	.thumb_func
	.type	HAL_PCD_DevConnect, %function
HAL_PCD_DevConnect:
.LFB353:
	.loc 1 1702 1 is_stmt 1
	.cfi_startproc
	@ args = 0, pretend = 0, frame = 0
	@ frame_needed = 0, uses_anonymous_args = 0
.LVL112:
	.loc 1 1703 3
	.loc 1 1703 26 is_stmt 0
	ldr	r3, [r0]
.LVL113:
	.loc 1 1705 3 is_stmt 1
	.loc 1 1705 7
	.loc 1 1705 16 is_stmt 0
	ldrb	r2, [r0, #1172]	@ zero_extendqisi2
	.loc 1 1705 9
	cmp	r2, #1
	beq	.L91
	.loc 1 1702 1 discriminator 2
	push	{r4, lr}
	.cfi_def_cfa_offset 8
	.cfi_offset 4, -8
	.cfi_offset 14, -4
	mov	r4, r0
	.loc 1 1705 66 is_stmt 1 discriminator 2
	.loc 1 1705 79 is_stmt 0 discriminator 2
	movs	r2, #1
	strb	r2, [r0, #1172]
	.loc 1 1705 5 is_stmt 1 discriminator 2
	.loc 1 1707 3 discriminator 2
	.loc 1 1707 13 is_stmt 0 discriminator 2
	ldr	r2, [r3, #12]
	.loc 1 1707 6 discriminator 2
	tst	r2, #64
	beq	.L90
	.loc 1 1708 18 discriminator 1
	ldrb	r2, [r0, #13]	@ zero_extendqisi2
	.loc 1 1707 49 discriminator 1
	cmp	r2, #1
	beq	.L96
.L90:
	.loc 1 1713 3 is_stmt 1
	.loc 1 1713 9 is_stmt 0
	ldr	r0, [r4]
.LVL114:
	bl	USB_DevConnect
.LVL115:
	.loc 1 1714 3 is_stmt 1
	.loc 1 1714 7
	.loc 1 1714 20 is_stmt 0
	movs	r0, #0
	strb	r0, [r4, #1172]
	.loc 1 1714 5 is_stmt 1
	.loc 1 1716 3
	.loc 1 1717 1 is_stmt 0
	pop	{r4, pc}
.LVL116:
.L96:
	.loc 1 1711 5 is_stmt 1
	.loc 1 1711 9 is_stmt 0
	ldr	r2, [r3, #56]
	.loc 1 1711 17
	orr	r2, r2, #65536
	str	r2, [r3, #56]
	b	.L90
.L91:
	.cfi_def_cfa_offset 0
	.cfi_restore 4
	.cfi_restore 14
	.loc 1 1705 47
	movs	r0, #2
.LVL117:
	.loc 1 1717 1
	bx	lr
	.cfi_endproc
.LFE353:
	.size	HAL_PCD_DevConnect, .-HAL_PCD_DevConnect
	.section	.text.HAL_PCD_DevDisconnect,"ax",%progbits
	.align	1
	.global	HAL_PCD_DevDisconnect
	.syntax unified
	.thumb
	.thumb_func
	.type	HAL_PCD_DevDisconnect, %function
HAL_PCD_DevDisconnect:
.LFB354:
	.loc 1 1725 1 is_stmt 1
	.cfi_startproc
	@ args = 0, pretend = 0, frame = 0
	@ frame_needed = 0, uses_anonymous_args = 0
.LVL118:
	push	{r3, r4, r5, lr}
	.cfi_def_cfa_offset 16
	.cfi_offset 3, -16
	.cfi_offset 4, -12
	.cfi_offset 5, -8
	.cfi_offset 14, -4
	.loc 1 1726 3
	.loc 1 1726 26 is_stmt 0
	ldr	r5, [r0]
.LVL119:
	.loc 1 1728 3 is_stmt 1
	.loc 1 1728 7
	.loc 1 1728 16 is_stmt 0
	ldrb	r3, [r0, #1172]	@ zero_extendqisi2
	.loc 1 1728 9
	cmp	r3, #1
	beq	.L100
	mov	r4, r0
	.loc 1 1728 66 is_stmt 1 discriminator 2
	.loc 1 1728 79 is_stmt 0 discriminator 2
	movs	r3, #1
	strb	r3, [r0, #1172]
	.loc 1 1728 5 is_stmt 1 discriminator 2
	.loc 1 1729 3 discriminator 2
	.loc 1 1729 9 is_stmt 0 discriminator 2
	mov	r0, r5
.LVL120:
	bl	USB_DevDisconnect
.LVL121:
	.loc 1 1731 3 is_stmt 1 discriminator 2
	.loc 1 1731 13 is_stmt 0 discriminator 2
	ldr	r3, [r5, #12]
	.loc 1 1731 6 discriminator 2
	tst	r3, #64
	beq	.L99
	.loc 1 1732 18 discriminator 1
	ldrb	r3, [r4, #13]	@ zero_extendqisi2
	.loc 1 1731 49 discriminator 1
	cmp	r3, #1
	beq	.L102
.L99:
	.loc 1 1738 3 is_stmt 1
	.loc 1 1738 7
	.loc 1 1738 20 is_stmt 0
	movs	r0, #0
	strb	r0, [r4, #1172]
	.loc 1 1738 5 is_stmt 1
	.loc 1 1740 3
.LVL122:
.L98:
	.loc 1 1741 1 is_stmt 0
	pop	{r3, r4, r5, pc}
.LVL123:
.L102:
	.loc 1 1735 5 is_stmt 1
	.loc 1 1735 9 is_stmt 0
	ldr	r3, [r5, #56]
	.loc 1 1735 17
	bic	r3, r3, #65536
	str	r3, [r5, #56]
	b	.L99
.LVL124:
.L100:
	.loc 1 1728 47
	movs	r0, #2
.LVL125:
	b	.L98
	.cfi_endproc
.LFE354:
	.size	HAL_PCD_DevDisconnect, .-HAL_PCD_DevDisconnect
	.section	.text.HAL_PCD_SetAddress,"ax",%progbits
	.align	1
	.global	HAL_PCD_SetAddress
	.syntax unified
	.thumb
	.thumb_func
	.type	HAL_PCD_SetAddress, %function
HAL_PCD_SetAddress:
.LFB355:
	.loc 1 1750 1 is_stmt 1
	.cfi_startproc
	@ args = 0, pretend = 0, frame = 0
	@ frame_needed = 0, uses_anonymous_args = 0
.LVL126:
	.loc 1 1751 3
	.loc 1 1751 7
	.loc 1 1751 16 is_stmt 0
	ldrb	r3, [r0, #1172]	@ zero_extendqisi2
	.loc 1 1751 9
	cmp	r3, #1
	beq	.L105
	.loc 1 1750 1 discriminator 2
	push	{r4, lr}
	.cfi_def_cfa_offset 8
	.cfi_offset 4, -8
	.cfi_offset 14, -4
	mov	r4, r0
	.loc 1 1751 66 is_stmt 1 discriminator 2
	.loc 1 1751 79 is_stmt 0 discriminator 2
	movs	r3, #1
	strb	r3, [r0, #1172]
	.loc 1 1751 5 is_stmt 1 discriminator 2
	.loc 1 1752 3 discriminator 2
	.loc 1 1752 21 is_stmt 0 discriminator 2
	strb	r1, [r0, #17]
	.loc 1 1753 3 is_stmt 1 discriminator 2
	.loc 1 1753 9 is_stmt 0 discriminator 2
	ldr	r0, [r0]
.LVL127:
	bl	USB_SetDevAddress
.LVL128:
	.loc 1 1754 3 is_stmt 1 discriminator 2
	.loc 1 1754 7 discriminator 2
	.loc 1 1754 20 is_stmt 0 discriminator 2
	movs	r0, #0
	strb	r0, [r4, #1172]
	.loc 1 1754 5 is_stmt 1 discriminator 2
	.loc 1 1756 3 discriminator 2
	.loc 1 1757 1 is_stmt 0 discriminator 2
	pop	{r4, pc}
.LVL129:
.L105:
	.cfi_def_cfa_offset 0
	.cfi_restore 4
	.cfi_restore 14
	.loc 1 1751 47
	movs	r0, #2
.LVL130:
	.loc 1 1757 1
	bx	lr
	.cfi_endproc
.LFE355:
	.size	HAL_PCD_SetAddress, .-HAL_PCD_SetAddress
	.section	.text.HAL_PCD_EP_Open,"ax",%progbits
	.align	1
	.global	HAL_PCD_EP_Open
	.syntax unified
	.thumb
	.thumb_func
	.type	HAL_PCD_EP_Open, %function
HAL_PCD_EP_Open:
.LFB356:
	.loc 1 1768 1 is_stmt 1
	.cfi_startproc
	@ args = 0, pretend = 0, frame = 0
	@ frame_needed = 0, uses_anonymous_args = 0
.LVL131:
	push	{r3, r4, r5, lr}
	.cfi_def_cfa_offset 16
	.cfi_offset 3, -16
	.cfi_offset 4, -12
	.cfi_offset 5, -8
	.cfi_offset 14, -4
	mov	r5, r0
	mov	ip, r1
	.loc 1 1769 3
.LVL132:
	.loc 1 1770 3
	.loc 1 1772 3
	.loc 1 1772 6 is_stmt 0
	tst	r1, #128
	bne	.L118
	.loc 1 1779 5 is_stmt 1
	.loc 1 1779 32 is_stmt 0
	and	lr, r1, #15
	.loc 1 1779 8
	add	r4, lr, lr, lsl #3
	lsls	r4, r4, #2
	add	r4, r4, #592
	add	r4, r4, r0
	adds	r1, r4, #4
.LVL133:
	.loc 1 1780 5 is_stmt 1
	.loc 1 1780 15 is_stmt 0
	add	lr, lr, lr, lsl #3
	add	lr, r0, lr, lsl #2
	movs	r0, #0
.LVL134:
	strb	r0, [lr, #597]
.L112:
	.loc 1 1783 3 is_stmt 1
	.loc 1 1783 21 is_stmt 0
	and	ip, ip, #15
	.loc 1 1783 11
	strb	ip, [r1]
	.loc 1 1784 3 is_stmt 1
	.loc 1 1784 17 is_stmt 0
	str	r2, [r1, #8]
	.loc 1 1785 3 is_stmt 1
	.loc 1 1785 12 is_stmt 0
	strb	r3, [r1, #4]
	.loc 1 1787 3 is_stmt 1
	.loc 1 1787 9 is_stmt 0
	ldrb	r2, [r1, #1]	@ zero_extendqisi2
.LVL135:
	.loc 1 1787 6
	cbz	r2, .L113
	.loc 1 1790 5 is_stmt 1
	.loc 1 1790 21 is_stmt 0
	strh	ip, [r1, #26]	@ movhi
.L113:
	.loc 1 1794 3 is_stmt 1
	.loc 1 1794 6 is_stmt 0
	cmp	r3, #2
	beq	.L119
.LVL136:
.L114:
	.loc 1 1799 3 is_stmt 1
	.loc 1 1799 7
	.loc 1 1799 16 is_stmt 0
	ldrb	r3, [r5, #1172]	@ zero_extendqisi2
	.loc 1 1799 9
	cmp	r3, #1
	beq	.L116
	.loc 1 1799 66 is_stmt 1 discriminator 2
	.loc 1 1799 79 is_stmt 0 discriminator 2
	movs	r3, #1
	strb	r3, [r5, #1172]
.LVL137:
	.loc 1 1799 5 is_stmt 1 discriminator 2
	.loc 1 1800 3 discriminator 2
	.loc 1 1800 9 is_stmt 0 discriminator 2
	ldr	r0, [r5]
	bl	USB_ActivateEndpoint
.LVL138:
	.loc 1 1801 3 is_stmt 1 discriminator 2
	.loc 1 1801 7 discriminator 2
	.loc 1 1801 20 is_stmt 0 discriminator 2
	movs	r0, #0
	strb	r0, [r5, #1172]
	.loc 1 1801 5 is_stmt 1 discriminator 2
	.loc 1 1803 3 discriminator 2
.L115:
	.loc 1 1804 1 is_stmt 0
	pop	{r3, r4, r5, pc}
.LVL139:
.L118:
	.loc 1 1774 5 is_stmt 1
	.loc 1 1774 31 is_stmt 0
	and	r0, r1, #15
.LVL140:
	.loc 1 1774 8
	add	r1, r0, r0, lsl #3
.LVL141:
	lsls	r1, r1, #2
	adds	r1, r1, #16
	add	r1, r1, r5
	adds	r1, r1, #4
.LVL142:
	.loc 1 1775 5 is_stmt 1
	.loc 1 1775 15 is_stmt 0
	add	r0, r0, r0, lsl #3
	add	r0, r5, r0, lsl #2
	movs	r4, #1
	strb	r4, [r0, #21]
	b	.L112
.LVL143:
.L119:
	.loc 1 1796 5 is_stmt 1
	.loc 1 1796 24 is_stmt 0
	movs	r3, #0
.LVL144:
	strb	r3, [r1, #5]
	b	.L114
.L116:
	.loc 1 1799 47
	movs	r0, #2
	b	.L115
	.cfi_endproc
.LFE356:
	.size	HAL_PCD_EP_Open, .-HAL_PCD_EP_Open
	.section	.text.HAL_PCD_EP_Close,"ax",%progbits
	.align	1
	.global	HAL_PCD_EP_Close
	.syntax unified
	.thumb
	.thumb_func
	.type	HAL_PCD_EP_Close, %function
HAL_PCD_EP_Close:
.LFB357:
	.loc 1 1813 1 is_stmt 1
	.cfi_startproc
	@ args = 0, pretend = 0, frame = 0
	@ frame_needed = 0, uses_anonymous_args = 0
.LVL145:
	push	{r4, lr}
	.cfi_def_cfa_offset 8
	.cfi_offset 4, -8
	.cfi_offset 14, -4
	mov	r4, r0
	mov	r2, r1
	.loc 1 1814 3
	.loc 1 1816 3
	.loc 1 1816 6 is_stmt 0
	tst	r1, #128
	bne	.L126
	.loc 1 1823 5 is_stmt 1
	.loc 1 1823 32 is_stmt 0
	and	r0, r1, #15
.LVL146:
	.loc 1 1823 8
	add	r3, r0, r0, lsl #3
	lsls	r3, r3, #2
	add	r3, r3, #592
	add	r3, r3, r4
	adds	r1, r3, #4
.LVL147:
	.loc 1 1824 5 is_stmt 1
	.loc 1 1824 15 is_stmt 0
	add	r0, r0, r0, lsl #3
	add	r0, r4, r0, lsl #2
	movs	r3, #0
	strb	r3, [r0, #597]
.L122:
	.loc 1 1826 3 is_stmt 1
	.loc 1 1826 21 is_stmt 0
	and	r2, r2, #15
	.loc 1 1826 11
	strb	r2, [r1]
	.loc 1 1828 3 is_stmt 1
	.loc 1 1828 7
	.loc 1 1828 16 is_stmt 0
	ldrb	r3, [r4, #1172]	@ zero_extendqisi2
	.loc 1 1828 9
	cmp	r3, #1
	beq	.L124
	.loc 1 1828 66 is_stmt 1 discriminator 2
	.loc 1 1828 79 is_stmt 0 discriminator 2
	movs	r3, #1
	strb	r3, [r4, #1172]
	.loc 1 1828 5 is_stmt 1 discriminator 2
	.loc 1 1829 3 discriminator 2
	.loc 1 1829 9 is_stmt 0 discriminator 2
	ldr	r0, [r4]
	bl	USB_DeactivateEndpoint
.LVL148:
	.loc 1 1830 3 is_stmt 1 discriminator 2
	.loc 1 1830 7 discriminator 2
	.loc 1 1830 20 is_stmt 0 discriminator 2
	movs	r0, #0
	strb	r0, [r4, #1172]
	.loc 1 1830 5 is_stmt 1 discriminator 2
	.loc 1 1831 3 discriminator 2
.L123:
	.loc 1 1832 1 is_stmt 0
	pop	{r4, pc}
.LVL149:
.L126:
	.loc 1 1818 5 is_stmt 1
	.loc 1 1818 31 is_stmt 0
	and	r0, r1, #15
.LVL150:
	.loc 1 1818 8
	add	r3, r0, r0, lsl #3
	lsls	r3, r3, #2
	adds	r3, r3, #16
	add	r3, r3, r4
	adds	r1, r3, #4
.LVL151:
	.loc 1 1819 5 is_stmt 1
	.loc 1 1819 15 is_stmt 0
	add	r0, r0, r0, lsl #3
	add	r0, r4, r0, lsl #2
	movs	r3, #1
	strb	r3, [r0, #21]
	b	.L122
.L124:
	.loc 1 1828 47
	movs	r0, #2
	b	.L123
	.cfi_endproc
.LFE357:
	.size	HAL_PCD_EP_Close, .-HAL_PCD_EP_Close
	.section	.text.HAL_PCD_EP_Receive,"ax",%progbits
	.align	1
	.global	HAL_PCD_EP_Receive
	.syntax unified
	.thumb
	.thumb_func
	.type	HAL_PCD_EP_Receive, %function
HAL_PCD_EP_Receive:
.LFB358:
	.loc 1 1844 1 is_stmt 1
	.cfi_startproc
	@ args = 0, pretend = 0, frame = 0
	@ frame_needed = 0, uses_anonymous_args = 0
.LVL152:
	push	{r4, lr}
	.cfi_def_cfa_offset 8
	.cfi_offset 4, -8
	.cfi_offset 14, -4
	mov	r4, r2
	.loc 1 1845 3
	.loc 1 1847 3
	and	ip, r1, #15
	.loc 1 1847 6 is_stmt 0
	add	r1, ip, ip, lsl #3
.LVL153:
	lsls	r1, r1, #2
	add	r1, r1, #592
	add	r1, r1, r0
	adds	r1, r1, #4
.LVL154:
	.loc 1 1850 3 is_stmt 1
	.loc 1 1850 17 is_stmt 0
	add	lr, ip, ip, lsl #3
	add	lr, r0, lr, lsl #2
	str	r2, [lr, #608]
	.loc 1 1851 3 is_stmt 1
	.loc 1 1851 16 is_stmt 0
	str	r3, [lr, #612]
	.loc 1 1852 3 is_stmt 1
	.loc 1 1852 18 is_stmt 0
	movs	r3, #0
.LVL155:
	str	r3, [lr, #616]
	.loc 1 1853 3 is_stmt 1
	.loc 1 1853 13 is_stmt 0
	strb	r3, [lr, #597]
	.loc 1 1854 3 is_stmt 1
	.loc 1 1854 11 is_stmt 0
	strb	ip, [lr, #596]
	.loc 1 1856 3 is_stmt 1
	.loc 1 1856 17 is_stmt 0
	ldrb	r2, [r0, #6]	@ zero_extendqisi2
.LVL156:
	.loc 1 1856 6
	cmp	r2, #1
	beq	.L130
.L128:
	.loc 1 1861 3 is_stmt 1
	.loc 1 1861 9 is_stmt 0
	ldr	r0, [r0]
.LVL157:
	bl	USB_EPStartXfer
.LVL158:
	.loc 1 1863 3 is_stmt 1
	.loc 1 1864 1 is_stmt 0
	movs	r0, #0
	pop	{r4, pc}
.LVL159:
.L130:
	.loc 1 1858 5 is_stmt 1
	.loc 1 1858 18 is_stmt 0
	str	r4, [lr, #624]
	b	.L128
	.cfi_endproc
.LFE358:
	.size	HAL_PCD_EP_Receive, .-HAL_PCD_EP_Receive
	.section	.text.HAL_PCD_EP_GetRxCount,"ax",%progbits
	.align	1
	.global	HAL_PCD_EP_GetRxCount
	.syntax unified
	.thumb
	.thumb_func
	.type	HAL_PCD_EP_GetRxCount, %function
HAL_PCD_EP_GetRxCount:
.LFB359:
	.loc 1 1873 1 is_stmt 1
	.cfi_startproc
	@ args = 0, pretend = 0, frame = 0
	@ frame_needed = 0, uses_anonymous_args = 0
	@ link register save eliminated.
.LVL160:
	.loc 1 1874 3
	.loc 1 1874 31 is_stmt 0
	and	r1, r1, #15
.LVL161:
	.loc 1 1874 38
	add	r1, r1, r1, lsl #3
	add	r0, r0, r1, lsl #2
.LVL162:
	.loc 1 1875 1
	ldr	r0, [r0, #616]
	bx	lr
	.cfi_endproc
.LFE359:
	.size	HAL_PCD_EP_GetRxCount, .-HAL_PCD_EP_GetRxCount
	.section	.text.HAL_PCD_EP_Transmit,"ax",%progbits
	.align	1
	.global	HAL_PCD_EP_Transmit
	.syntax unified
	.thumb
	.thumb_func
	.type	HAL_PCD_EP_Transmit, %function
HAL_PCD_EP_Transmit:
.LFB360:
	.loc 1 1885 1 is_stmt 1
	.cfi_startproc
	@ args = 0, pretend = 0, frame = 0
	@ frame_needed = 0, uses_anonymous_args = 0
.LVL163:
	push	{r4, lr}
	.cfi_def_cfa_offset 8
	.cfi_offset 4, -8
	.cfi_offset 14, -4
	mov	r4, r2
	.loc 1 1886 3
	.loc 1 1888 3
	and	ip, r1, #15
	.loc 1 1888 6 is_stmt 0
	add	r1, ip, ip, lsl #3
.LVL164:
	lsls	r1, r1, #2
	adds	r1, r1, #16
	add	r1, r1, r0
	adds	r1, r1, #4
.LVL165:
	.loc 1 1891 3 is_stmt 1
	.loc 1 1891 17 is_stmt 0
	add	lr, ip, ip, lsl #3
	add	lr, r0, lr, lsl #2
	str	r2, [lr, #32]
	.loc 1 1892 3 is_stmt 1
	.loc 1 1892 16 is_stmt 0
	str	r3, [lr, #36]
	.loc 1 1893 3 is_stmt 1
	.loc 1 1893 18 is_stmt 0
	movs	r3, #0
.LVL166:
	str	r3, [lr, #40]
	.loc 1 1894 3 is_stmt 1
	.loc 1 1894 13 is_stmt 0
	movs	r3, #1
	strb	r3, [lr, #21]
	.loc 1 1895 3 is_stmt 1
	.loc 1 1895 11 is_stmt 0
	strb	ip, [lr, #20]
	.loc 1 1897 3 is_stmt 1
	.loc 1 1897 17 is_stmt 0
	ldrb	r2, [r0, #6]	@ zero_extendqisi2
.LVL167:
	.loc 1 1897 6
	cmp	r2, r3
	beq	.L135
.L133:
	.loc 1 1902 3 is_stmt 1
	.loc 1 1902 9 is_stmt 0
	ldr	r0, [r0]
.LVL168:
	bl	USB_EPStartXfer
.LVL169:
	.loc 1 1904 3 is_stmt 1
	.loc 1 1905 1 is_stmt 0
	movs	r0, #0
	pop	{r4, pc}
.LVL170:
.L135:
	.loc 1 1899 5 is_stmt 1
	.loc 1 1899 18 is_stmt 0
	str	r4, [lr, #48]
	b	.L133
	.cfi_endproc
.LFE360:
	.size	HAL_PCD_EP_Transmit, .-HAL_PCD_EP_Transmit
	.section	.text.HAL_PCD_EP_SetStall,"ax",%progbits
	.align	1
	.global	HAL_PCD_EP_SetStall
	.syntax unified
	.thumb
	.thumb_func
	.type	HAL_PCD_EP_SetStall, %function
HAL_PCD_EP_SetStall:
.LFB361:
	.loc 1 1914 1 is_stmt 1
	.cfi_startproc
	@ args = 0, pretend = 0, frame = 0
	@ frame_needed = 0, uses_anonymous_args = 0
.LVL171:
	push	{r3, r4, r5, lr}
	.cfi_def_cfa_offset 16
	.cfi_offset 3, -16
	.cfi_offset 4, -12
	.cfi_offset 5, -8
	.cfi_offset 14, -4
	.loc 1 1915 3
	.loc 1 1917 3
	and	r5, r1, #15
	.loc 1 1917 46 is_stmt 0
	ldrb	r2, [r0, #4]	@ zero_extendqisi2
	.loc 1 1917 6
	cmp	r2, r5
	bcc	.L141
	mov	r4, r0
	mov	r3, r1
	.loc 1 1922 3 is_stmt 1
	.loc 1 1922 6 is_stmt 0
	tst	r1, #128
	bne	.L144
	.loc 1 1929 5 is_stmt 1
	.loc 1 1929 8 is_stmt 0
	add	r1, r1, r1, lsl #3
.LVL172:
	lsls	r1, r1, #2
	add	r1, r1, #592
	add	r1, r1, r0
	adds	r1, r1, #4
.LVL173:
	.loc 1 1930 5 is_stmt 1
	.loc 1 1930 15 is_stmt 0
	add	r3, r3, r3, lsl #3
	add	r3, r0, r3, lsl #2
	movs	r2, #0
	strb	r2, [r3, #597]
.L139:
	.loc 1 1933 3 is_stmt 1
	.loc 1 1933 16 is_stmt 0
	movs	r3, #1
	strb	r3, [r1, #2]
	.loc 1 1934 3 is_stmt 1
	.loc 1 1934 11 is_stmt 0
	strb	r5, [r1]
	.loc 1 1936 3 is_stmt 1
	.loc 1 1936 7
	.loc 1 1936 16 is_stmt 0
	ldrb	r3, [r4, #1172]	@ zero_extendqisi2
	.loc 1 1936 9
	cmp	r3, #1
	beq	.L142
	.loc 1 1936 66 is_stmt 1 discriminator 2
	.loc 1 1936 79 is_stmt 0 discriminator 2
	movs	r3, #1
	strb	r3, [r4, #1172]
	.loc 1 1936 5 is_stmt 1 discriminator 2
	.loc 1 1938 3 discriminator 2
	.loc 1 1938 9 is_stmt 0 discriminator 2
	ldr	r0, [r4]
.LVL174:
	bl	USB_EPSetStall
.LVL175:
	.loc 1 1940 3 is_stmt 1 discriminator 2
	.loc 1 1940 6 is_stmt 0 discriminator 2
	cbz	r5, .L145
.L140:
	.loc 1 1945 3 is_stmt 1
	.loc 1 1945 7
	.loc 1 1945 20 is_stmt 0
	movs	r0, #0
	strb	r0, [r4, #1172]
	.loc 1 1945 5 is_stmt 1
	.loc 1 1947 3
.LVL176:
.L137:
	.loc 1 1948 1 is_stmt 0
	pop	{r3, r4, r5, pc}
.LVL177:
.L144:
	.loc 1 1924 5 is_stmt 1
	.loc 1 1924 8 is_stmt 0
	add	r1, r5, r5, lsl #3
.LVL178:
	lsls	r1, r1, #2
	adds	r1, r1, #16
	add	r1, r1, r0
	adds	r1, r1, #4
.LVL179:
	.loc 1 1925 5 is_stmt 1
	.loc 1 1925 15 is_stmt 0
	add	r3, r5, r5, lsl #3
	add	r3, r0, r3, lsl #2
	movs	r2, #1
	strb	r2, [r3, #21]
	b	.L139
.LVL180:
.L145:
	.loc 1 1942 5 is_stmt 1
	.loc 1 1942 11 is_stmt 0
	addw	r2, r4, #1180
	ldrb	r1, [r4, #6]	@ zero_extendqisi2
	ldr	r0, [r4]
	bl	USB_EP0_OutStart
.LVL181:
	b	.L140
.LVL182:
.L141:
	.loc 1 1919 12
	movs	r0, #1
.LVL183:
	b	.L137
.LVL184:
.L142:
	.loc 1 1936 47
	movs	r0, #2
.LVL185:
	b	.L137
	.cfi_endproc
.LFE361:
	.size	HAL_PCD_EP_SetStall, .-HAL_PCD_EP_SetStall
	.section	.text.HAL_PCD_EP_ClrStall,"ax",%progbits
	.align	1
	.global	HAL_PCD_EP_ClrStall
	.syntax unified
	.thumb
	.thumb_func
	.type	HAL_PCD_EP_ClrStall, %function
HAL_PCD_EP_ClrStall:
.LFB362:
	.loc 1 1957 1 is_stmt 1
	.cfi_startproc
	@ args = 0, pretend = 0, frame = 0
	@ frame_needed = 0, uses_anonymous_args = 0
.LVL186:
	.loc 1 1958 3
	.loc 1 1960 3
	and	r3, r1, #15
	.loc 1 1960 47 is_stmt 0
	ldrb	r2, [r0, #4]	@ zero_extendqisi2
	.loc 1 1960 6
	cmp	r2, r3
	bcc	.L150
	.loc 1 1957 1
	push	{r4, lr}
	.cfi_def_cfa_offset 8
	.cfi_offset 4, -8
	.cfi_offset 14, -4
	mov	r4, r0
	.loc 1 1965 3 is_stmt 1
	.loc 1 1965 6 is_stmt 0
	tst	r1, #128
	bne	.L156
	.loc 1 1972 5 is_stmt 1
	.loc 1 1972 8 is_stmt 0
	add	r1, r3, r3, lsl #3
.LVL187:
	lsls	r1, r1, #2
	add	r1, r1, #592
	add	r1, r1, r0
	adds	r1, r1, #4
.LVL188:
	.loc 1 1973 5 is_stmt 1
	.loc 1 1973 15 is_stmt 0
	add	r2, r3, r3, lsl #3
	add	r2, r0, r2, lsl #2
	movs	r0, #0
.LVL189:
	strb	r0, [r2, #597]
.L149:
	.loc 1 1976 3 is_stmt 1
	.loc 1 1976 16 is_stmt 0
	movs	r2, #0
	strb	r2, [r1, #2]
	.loc 1 1977 3 is_stmt 1
	.loc 1 1977 11 is_stmt 0
	strb	r3, [r1]
	.loc 1 1979 3 is_stmt 1
	.loc 1 1979 7
	.loc 1 1979 16 is_stmt 0
	ldrb	r3, [r4, #1172]	@ zero_extendqisi2
	.loc 1 1979 9
	cmp	r3, #1
	beq	.L151
	.loc 1 1979 66 is_stmt 1 discriminator 2
	.loc 1 1979 79 is_stmt 0 discriminator 2
	movs	r3, #1
	strb	r3, [r4, #1172]
	.loc 1 1979 5 is_stmt 1 discriminator 2
	.loc 1 1980 3 discriminator 2
	.loc 1 1980 9 is_stmt 0 discriminator 2
	ldr	r0, [r4]
	bl	USB_EPClearStall
.LVL190:
	.loc 1 1981 3 is_stmt 1 discriminator 2
	.loc 1 1981 7 discriminator 2
	.loc 1 1981 20 is_stmt 0 discriminator 2
	movs	r0, #0
	strb	r0, [r4, #1172]
	.loc 1 1981 5 is_stmt 1 discriminator 2
	.loc 1 1983 3 discriminator 2
.L147:
	.loc 1 1984 1 is_stmt 0
	pop	{r4, pc}
.LVL191:
.L156:
	.loc 1 1967 5 is_stmt 1
	.loc 1 1967 8 is_stmt 0
	add	r1, r3, r3, lsl #3
.LVL192:
	lsls	r1, r1, #2
	adds	r1, r1, #16
	add	r1, r1, r0
	adds	r1, r1, #4
.LVL193:
	.loc 1 1968 5 is_stmt 1
	.loc 1 1968 15 is_stmt 0
	add	r2, r3, r3, lsl #3
	add	r2, r0, r2, lsl #2
	movs	r0, #1
.LVL194:
	strb	r0, [r2, #21]
	b	.L149
.LVL195:
.L150:
	.cfi_def_cfa_offset 0
	.cfi_restore 4
	.cfi_restore 14
	.loc 1 1962 12
	movs	r0, #1
.LVL196:
	.loc 1 1984 1
	bx	lr
.LVL197:
.L151:
	.cfi_def_cfa_offset 8
	.cfi_offset 4, -8
	.cfi_offset 14, -4
	.loc 1 1979 47
	movs	r0, #2
	b	.L147
	.cfi_endproc
.LFE362:
	.size	HAL_PCD_EP_ClrStall, .-HAL_PCD_EP_ClrStall
	.section	.text.HAL_PCD_EP_Abort,"ax",%progbits
	.align	1
	.global	HAL_PCD_EP_Abort
	.syntax unified
	.thumb
	.thumb_func
	.type	HAL_PCD_EP_Abort, %function
HAL_PCD_EP_Abort:
.LFB363:
	.loc 1 1993 1 is_stmt 1
	.cfi_startproc
	@ args = 0, pretend = 0, frame = 0
	@ frame_needed = 0, uses_anonymous_args = 0
.LVL198:
	push	{r3, lr}
	.cfi_def_cfa_offset 8
	.cfi_offset 3, -8
	.cfi_offset 14, -4
	.loc 1 1994 3
	.loc 1 1995 3
	.loc 1 1997 3
	.loc 1 1997 6 is_stmt 0
	tst	r1, #128
	bne	.L161
	.loc 1 2003 5 is_stmt 1
	.loc 1 2003 32 is_stmt 0
	and	r1, r1, #15
.LVL199:
	.loc 1 2003 8
	add	r1, r1, r1, lsl #3
	lsls	r1, r1, #2
	add	r1, r1, #592
	add	r1, r1, r0
	adds	r1, r1, #4
.LVL200:
.L159:
	.loc 1 2007 3 is_stmt 1
	.loc 1 2007 9 is_stmt 0
	ldr	r0, [r0]
.LVL201:
	bl	USB_EPStopXfer
.LVL202:
	.loc 1 2009 3 is_stmt 1
	.loc 1 2010 1 is_stmt 0
	pop	{r3, pc}
.LVL203:
.L161:
	.loc 1 1999 5 is_stmt 1
	.loc 1 1999 31 is_stmt 0
	and	r1, r1, #15
.LVL204:
	.loc 1 1999 8
	add	r1, r1, r1, lsl #3
	lsls	r1, r1, #2
	adds	r1, r1, #16
	add	r1, r1, r0
	adds	r1, r1, #4
.LVL205:
	b	.L159
	.cfi_endproc
.LFE363:
	.size	HAL_PCD_EP_Abort, .-HAL_PCD_EP_Abort
	.section	.text.HAL_PCD_IRQHandler,"ax",%progbits
	.align	1
	.global	HAL_PCD_IRQHandler
	.syntax unified
	.thumb
	.thumb_func
	.type	HAL_PCD_IRQHandler, %function
HAL_PCD_IRQHandler:
.LFB341:
	.loc 1 1050 1 is_stmt 1
	.cfi_startproc
	@ args = 0, pretend = 0, frame = 8
	@ frame_needed = 0, uses_anonymous_args = 0
.LVL206:
	push	{r4, r5, r6, r7, r8, r9, r10, fp, lr}
	.cfi_def_cfa_offset 36
	.cfi_offset 4, -36
	.cfi_offset 5, -32
	.cfi_offset 6, -28
	.cfi_offset 7, -24
	.cfi_offset 8, -20
	.cfi_offset 9, -16
	.cfi_offset 10, -12
	.cfi_offset 11, -8
	.cfi_offset 14, -4
	sub	sp, sp, #12
	.cfi_def_cfa_offset 48
	mov	r4, r0
	.loc 1 1051 3
	.loc 1 1051 26 is_stmt 0
	ldr	r5, [r0]
.LVL207:
	.loc 1 1052 3 is_stmt 1
	.loc 1 1053 3
	.loc 1 1054 3
	.loc 1 1055 3
	.loc 1 1056 3
	.loc 1 1057 3
	.loc 1 1058 3
	.loc 1 1059 3
	.loc 1 1062 3
	.loc 1 1062 7 is_stmt 0
	mov	r0, r5
.LVL208:
	bl	USB_GetMode
.LVL209:
	.loc 1 1062 6
	cbz	r0, .L222
.LVL210:
.L162:
	.loc 1 1501 1
	add	sp, sp, #12
	.cfi_remember_state
	.cfi_def_cfa_offset 36
	@ sp needed
	pop	{r4, r5, r6, r7, r8, r9, r10, fp, pc}
.LVL211:
.L222:
	.cfi_restore_state
	mov	r6, r0
	.loc 1 1065 5 is_stmt 1
	.loc 1 1065 10 is_stmt 0
	ldr	r0, [r4]
	bl	USB_ReadInterrupts
.LVL212:
	.loc 1 1065 8
	cmp	r0, #0
	beq	.L162
	.loc 1 1071 5 is_stmt 1
	.loc 1 1071 63 is_stmt 0
	add	r7, r5, #2048
	.loc 1 1071 76
	ldr	r3, [r7, #8]
	.loc 1 1071 105
	ubfx	r3, r3, #8, #14
	.loc 1 1071 23
	str	r3, [r4, #1236]
	.loc 1 1073 5 is_stmt 1
	.loc 1 1073 11 is_stmt 0
	ldr	r0, [r4]
	bl	USB_ReadInterrupts
.LVL213:
	.loc 1 1073 8
	tst	r0, #2
	beq	.L164
	.loc 1 1076 7 is_stmt 1
	.loc 1 1076 15 is_stmt 0
	ldr	r2, [r4]
	.loc 1 1076 25
	ldr	r3, [r2, #20]
	.loc 1 1076 36
	and	r3, r3, #2
	str	r3, [r2, #20]
.L164:
	.loc 1 1080 5 is_stmt 1
	.loc 1 1080 11 is_stmt 0
	ldr	r0, [r4]
	bl	USB_ReadInterrupts
.LVL214:
	.loc 1 1080 8
	tst	r0, #16
	beq	.L165
	.loc 1 1082 7 is_stmt 1
	.loc 1 1082 13 is_stmt 0
	ldr	r2, [r4]
	.loc 1 1082 24
	ldr	r3, [r2, #24]
	.loc 1 1082 34
	bic	r3, r3, #16
	str	r3, [r2, #24]
	.loc 1 1084 7 is_stmt 1
	.loc 1 1084 14 is_stmt 0
	ldr	r8, [r5, #32]
.LVL215:
	.loc 1 1086 7 is_stmt 1
	.loc 1 1086 33 is_stmt 0
	and	r9, r8, #15
.LVL216:
	.loc 1 1088 7 is_stmt 1
	.loc 1 1088 40 is_stmt 0
	ubfx	r3, r8, #17, #4
	.loc 1 1088 10
	cmp	r3, #2
	beq	.L223
	.loc 1 1099 12 is_stmt 1
	.loc 1 1099 15 is_stmt 0
	cmp	r3, #6
	beq	.L224
.LVL217:
.L167:
	.loc 1 1107 7 is_stmt 1
	.loc 1 1109 7
	.loc 1 1109 13 is_stmt 0
	ldr	r2, [r4]
	.loc 1 1109 24
	ldr	r3, [r2, #24]
	.loc 1 1109 34
	orr	r3, r3, #16
	str	r3, [r2, #24]
.LVL218:
.L165:
	.loc 1 1112 5 is_stmt 1
	.loc 1 1112 11 is_stmt 0
	ldr	r0, [r4]
	bl	USB_ReadInterrupts
.LVL219:
	.loc 1 1112 8
	tst	r0, #524288
	bne	.L225
.L168:
	.loc 1 1184 5 is_stmt 1
	.loc 1 1184 11 is_stmt 0
	ldr	r0, [r4]
	bl	USB_ReadInterrupts
.LVL220:
	.loc 1 1184 8
	tst	r0, #262144
	bne	.L226
.L179:
	.loc 1 1264 5 is_stmt 1
	.loc 1 1264 11 is_stmt 0
	ldr	r0, [r4]
	bl	USB_ReadInterrupts
.LVL221:
	.loc 1 1264 8
	cmp	r0, #0
	blt	.L227
.L190:
	.loc 1 1292 5 is_stmt 1
	.loc 1 1292 11 is_stmt 0
	ldr	r0, [r4]
	bl	USB_ReadInterrupts
.LVL222:
	.loc 1 1292 8
	tst	r0, #2048
	beq	.L193
	.loc 1 1294 7 is_stmt 1
	.loc 1 1294 62 is_stmt 0
	ldr	r3, [r7, #8]
	.loc 1 1294 10
	tst	r3, #1
	bne	.L228
.L194:
	.loc 1 1302 7 is_stmt 1
	.loc 1 1302 15 is_stmt 0
	ldr	r2, [r4]
	.loc 1 1302 25
	ldr	r3, [r2, #20]
	.loc 1 1302 36
	and	r3, r3, #2048
	str	r3, [r2, #20]
.L193:
	.loc 1 1306 5 is_stmt 1
	.loc 1 1306 11 is_stmt 0
	ldr	r0, [r4]
	bl	USB_ReadInterrupts
.LVL223:
	.loc 1 1306 8
	tst	r0, #134217728
	beq	.L195
	.loc 1 1308 7 is_stmt 1
	.loc 1 1308 15 is_stmt 0
	ldr	r2, [r4]
	.loc 1 1308 25
	ldr	r3, [r2, #20]
	.loc 1 1308 36
	and	r3, r3, #134217728
	str	r3, [r2, #20]
	.loc 1 1310 7 is_stmt 1
	.loc 1 1310 15 is_stmt 0
	ldrb	r3, [r4, #1228]	@ zero_extendqisi2
	.loc 1 1310 10
	cmp	r3, #0
	bne	.L196
	.loc 1 1312 9 is_stmt 1
	.loc 1 1312 25 is_stmt 0
	movs	r1, #1
	strb	r1, [r4, #1228]
	.loc 1 1313 9 is_stmt 1
	.loc 1 1313 27 is_stmt 0
	ldr	r3, [r4]
	.loc 1 1313 37
	ldr	r3, [r3, #84]
	.loc 1 1313 66
	ubfx	r3, r3, #2, #4
	.loc 1 1313 20
	str	r3, [r4, #1232]
	.loc 1 1318 9 is_stmt 1
	mov	r0, r4
	bl	HAL_PCDEx_LPM_Callback
.LVL224:
.L195:
	.loc 1 1332 5
	.loc 1 1332 11 is_stmt 0
	ldr	r0, [r4]
	bl	USB_ReadInterrupts
.LVL225:
	.loc 1 1332 8
	tst	r0, #4096
	bne	.L229
.L197:
	.loc 1 1381 5 is_stmt 1
	.loc 1 1381 11 is_stmt 0
	ldr	r0, [r4]
	bl	USB_ReadInterrupts
.LVL226:
	.loc 1 1381 8
	tst	r0, #8192
	bne	.L230
.L202:
	.loc 1 1401 5 is_stmt 1
	.loc 1 1401 11 is_stmt 0
	ldr	r0, [r4]
	bl	USB_ReadInterrupts
.LVL227:
	.loc 1 1401 8
	tst	r0, #8
	bne	.L231
.L203:
	.loc 1 1413 5 is_stmt 1
	.loc 1 1413 11 is_stmt 0
	ldr	r0, [r4]
	bl	USB_ReadInterrupts
.LVL228:
	.loc 1 1413 8
	tst	r0, #128
	beq	.L204
	.loc 1 1415 7 is_stmt 1
	.loc 1 1415 11 is_stmt 0
	ldr	r3, [r5, #24]
	.loc 1 1415 21
	bic	r3, r3, #128
	str	r3, [r5, #24]
	.loc 1 1417 7 is_stmt 1
.LVL229:
	.loc 1 1417 18 is_stmt 0
	movs	r6, #1
	.loc 1 1417 7
	b	.L205
.LVL230:
.L223:
	.loc 1 1090 9 is_stmt 1
	.loc 1 1090 12 is_stmt 0
	movw	r3, #32752
	tst	r8, r3
	beq	.L167
	.loc 1 1092 11 is_stmt 1
	.loc 1 1093 72 is_stmt 0
	lsr	r10, r8, #4
	.loc 1 1092 17
	lsl	r3, r9, #3
	str	r3, [sp, #4]
	add	fp, r9, r9, lsl #3
	add	fp, r4, fp, lsl #2
	ubfx	r2, r8, #4, #11
	ldr	r1, [fp, #608]
	mov	r0, r5
	bl	USB_ReadPacket
.LVL231:
	.loc 1 1095 11 is_stmt 1
	.loc 1 1095 13 is_stmt 0
	ldr	r3, [fp, #608]
	.loc 1 1095 57
	ubfx	r10, r10, #0, #11
	.loc 1 1095 25
	add	r3, r3, r10
	str	r3, [fp, #608]
	.loc 1 1096 11 is_stmt 1
	.loc 1 1096 13 is_stmt 0
	ldr	r3, [fp, #616]
	.loc 1 1096 26
	ldr	r2, [sp, #4]
	add	r2, r2, r9
	add	r2, r4, r2, lsl #2
	add	r3, r3, r10
	str	r3, [r2, #616]
	b	.L167
.L224:
	.loc 1 1101 9 is_stmt 1
	.loc 1 1101 15 is_stmt 0
	movs	r2, #8
	addw	r1, r4, #1180
	mov	r0, r5
	bl	USB_ReadPacket
.LVL232:
	.loc 1 1102 9 is_stmt 1
	.loc 1 1102 11 is_stmt 0
	add	r3, r9, r9, lsl #3
	add	r3, r4, r3, lsl #2
	ldr	r2, [r3, #616]
	.loc 1 1102 56
	ubfx	r8, r8, #4, #11
.LVL233:
	.loc 1 1102 24
	add	r2, r2, r8
	str	r2, [r3, #616]
	b	.L167
.LVL234:
.L225:
	.loc 1 1114 7 is_stmt 1
	.loc 1 1117 7
	.loc 1 1117 17 is_stmt 0
	ldr	r0, [r4]
	bl	USB_ReadDevAllOutEpInterrupt
.LVL235:
	mov	r8, r0
.LVL236:
	.loc 1 1119 7 is_stmt 1
	.loc 1 1114 13 is_stmt 0
	mov	r9, r6
	.loc 1 1119 13
	b	.L169
.LVL237:
.L233:
	.loc 1 1127 13 is_stmt 1
	.loc 1 1127 68 is_stmt 0
	add	r3, r5, r9, lsl #5
	.loc 1 1127 102
	movs	r2, #1
	str	r2, [r3, #2824]
	.loc 1 1128 13 is_stmt 1
	.loc 1 1128 19 is_stmt 0
	mov	r1, r9
	mov	r0, r4
.LVL238:
	bl	PCD_EP_OutXfrComplete_int
.LVL239:
	b	.L171
.L234:
	.loc 1 1133 13 is_stmt 1
	.loc 1 1133 68 is_stmt 0
	add	r3, r5, r9, lsl #5
	.loc 1 1133 102
	movs	r2, #8
	str	r2, [r3, #2824]
	.loc 1 1135 13 is_stmt 1
	.loc 1 1135 19 is_stmt 0
	mov	r1, r9
	mov	r0, r4
	bl	PCD_EP_OutSetupPacket_int
.LVL240:
	b	.L172
.L175:
	.loc 1 1151 13 is_stmt 1
.LVL241:
	.loc 1 1153 13
	.loc 1 1153 19 is_stmt 0
	add	r3, r9, r9, lsl #3
	add	r3, r4, r3, lsl #2
	ldrb	r3, [r3, #599]	@ zero_extendqisi2
	.loc 1 1153 16
	cmp	r3, #1
	beq	.L232
.L176:
	.loc 1 1164 13 is_stmt 1
	.loc 1 1164 68 is_stmt 0
	add	r3, r5, r9, lsl #5
	.loc 1 1164 102
	movs	r2, #2
	str	r2, [r3, #2824]
.LVL242:
.L174:
	.loc 1 1168 11 is_stmt 1
	.loc 1 1168 14 is_stmt 0
	tst	r10, #32
	beq	.L177
	.loc 1 1170 13 is_stmt 1
	.loc 1 1170 68 is_stmt 0
	add	r3, r5, r9, lsl #5
	.loc 1 1170 102
	movs	r2, #32
	str	r2, [r3, #2824]
.L177:
	.loc 1 1174 11 is_stmt 1
	.loc 1 1174 14 is_stmt 0
	tst	r10, #8192
	beq	.L170
	.loc 1 1176 13 is_stmt 1
	.loc 1 1176 68 is_stmt 0
	add	r3, r5, r9, lsl #5
	.loc 1 1176 102
	mov	r2, #8192
	str	r2, [r3, #2824]
.LVL243:
.L170:
	.loc 1 1179 9 is_stmt 1
	.loc 1 1179 14 is_stmt 0
	add	r9, r9, #1
.LVL244:
	.loc 1 1180 9 is_stmt 1
	.loc 1 1180 17 is_stmt 0
	lsr	r8, r8, #1
.LVL245:
.L169:
	.loc 1 1119 22 is_stmt 1
	cmp	r8, #0
	beq	.L168
	.loc 1 1121 9
	.loc 1 1121 12 is_stmt 0
	tst	r8, #1
	beq	.L170
	.loc 1 1123 11 is_stmt 1
	.loc 1 1123 19 is_stmt 0
	uxtb	fp, r9
	mov	r1, fp
	ldr	r0, [r4]
	bl	USB_ReadDevOutEPInterrupt
.LVL246:
	mov	r10, r0
.LVL247:
	.loc 1 1125 11 is_stmt 1
	.loc 1 1125 14 is_stmt 0
	tst	r0, #1
	bne	.L233
.LVL248:
.L171:
	.loc 1 1131 11 is_stmt 1
	.loc 1 1131 14 is_stmt 0
	tst	r10, #8
	bne	.L234
.L172:
	.loc 1 1138 11 is_stmt 1
	.loc 1 1138 14 is_stmt 0
	tst	r10, #16
	beq	.L173
	.loc 1 1140 13 is_stmt 1
	.loc 1 1140 68 is_stmt 0
	add	r3, r5, r9, lsl #5
	.loc 1 1140 102
	movs	r2, #16
	str	r2, [r3, #2824]
.L173:
	.loc 1 1144 11 is_stmt 1
	.loc 1 1144 14 is_stmt 0
	tst	r10, #2
	beq	.L174
	.loc 1 1146 13 is_stmt 1
	.loc 1 1146 22 is_stmt 0
	ldr	r3, [r5, #20]
	.loc 1 1146 16
	tst	r3, #128
	beq	.L175
	.loc 1 1148 15 is_stmt 1
	.loc 1 1148 65 is_stmt 0
	ldr	r3, [r7, #4]
	.loc 1 1148 72
	orr	r3, r3, #1024
	str	r3, [r7, #4]
	b	.L175
.LVL249:
.L232:
	.loc 1 1155 15 is_stmt 1
	.loc 1 1155 37 is_stmt 0
	add	r3, r9, r9, lsl #3
	add	r3, r4, r3, lsl #2
	movs	r2, #0
	strb	r2, [r3, #599]
	.loc 1 1160 15 is_stmt 1
	mov	r1, fp
	mov	r0, r4
	bl	HAL_PCD_ISOOUTIncompleteCallback
.LVL250:
	b	.L176
.LVL251:
.L226:
	.loc 1 1187 7
	.loc 1 1187 17 is_stmt 0
	ldr	r0, [r4]
	bl	USB_ReadDevAllInEpInterrupt
.LVL252:
	mov	r8, r0
.LVL253:
	.loc 1 1189 7 is_stmt 1
	.loc 1 1191 7
	.loc 1 1189 13 is_stmt 0
	mov	r9, r6
	.loc 1 1191 13
	b	.L180
.LVL254:
.L183:
	.loc 1 1219 13 is_stmt 1
	mov	r1, fp
	mov	r0, r4
	bl	HAL_PCD_DataInStageCallback
.LVL255:
.L182:
	.loc 1 1222 11
	.loc 1 1222 14 is_stmt 0
	tst	r10, #8
	beq	.L184
	.loc 1 1224 13 is_stmt 1
	.loc 1 1224 67 is_stmt 0
	add	r3, r5, r9, lsl #5
	.loc 1 1224 101
	movs	r2, #8
	str	r2, [r3, #2312]
.L184:
	.loc 1 1226 11 is_stmt 1
	.loc 1 1226 14 is_stmt 0
	tst	r10, #16
	beq	.L185
	.loc 1 1228 13 is_stmt 1
	.loc 1 1228 67 is_stmt 0
	add	r3, r5, r9, lsl #5
	.loc 1 1228 101
	movs	r2, #16
	str	r2, [r3, #2312]
.L185:
	.loc 1 1230 11 is_stmt 1
	.loc 1 1230 14 is_stmt 0
	tst	r10, #64
	beq	.L186
	.loc 1 1232 13 is_stmt 1
	.loc 1 1232 67 is_stmt 0
	add	r3, r5, r9, lsl #5
	.loc 1 1232 101
	movs	r2, #64
	str	r2, [r3, #2312]
.L186:
	.loc 1 1234 11 is_stmt 1
	.loc 1 1234 14 is_stmt 0
	tst	r10, #2
	bne	.L235
.L187:
	.loc 1 1253 11 is_stmt 1
	.loc 1 1253 14 is_stmt 0
	tst	r10, #128
	bne	.L236
.LVL256:
.L181:
	.loc 1 1258 9 is_stmt 1
	.loc 1 1258 14 is_stmt 0
	add	r9, r9, #1
.LVL257:
	.loc 1 1259 9 is_stmt 1
	.loc 1 1259 17 is_stmt 0
	lsr	r8, r8, #1
.LVL258:
.L180:
	.loc 1 1191 22 is_stmt 1
	cmp	r8, #0
	beq	.L179
	.loc 1 1193 9
	.loc 1 1193 12 is_stmt 0
	tst	r8, #1
	beq	.L181
	.loc 1 1195 11 is_stmt 1
	.loc 1 1195 19 is_stmt 0
	uxtb	fp, r9
	mov	r1, fp
	ldr	r0, [r4]
	bl	USB_ReadDevInEPInterrupt
.LVL259:
	mov	r10, r0
.LVL260:
	.loc 1 1197 11 is_stmt 1
	.loc 1 1197 14 is_stmt 0
	tst	r0, #1
	beq	.L182
	.loc 1 1199 13 is_stmt 1
	.loc 1 1199 55 is_stmt 0
	and	r2, r9, #15
	.loc 1 1199 26
	movs	r1, #1
	lsl	r2, r1, r2
.LVL261:
	.loc 1 1200 13 is_stmt 1
	.loc 1 1200 63 is_stmt 0
	ldr	r3, [r7, #52]
	.loc 1 1200 76
	bic	r3, r3, r2
	str	r3, [r7, #52]
	.loc 1 1202 13 is_stmt 1
	.loc 1 1202 67 is_stmt 0
	add	r3, r5, r9, lsl #5
	.loc 1 1202 101
	str	r1, [r3, #2312]
	.loc 1 1204 13 is_stmt 1
	.loc 1 1204 27 is_stmt 0
	ldrb	r3, [r4, #6]	@ zero_extendqisi2
	.loc 1 1204 16
	cmp	r3, r1
	bne	.L183
	.loc 1 1206 15 is_stmt 1
	.loc 1 1206 33 is_stmt 0
	add	r3, r9, r9, lsl #3
	add	r3, r4, r3, lsl #2
	ldr	r2, [r3, #32]
.LVL262:
	.loc 1 1206 65
	ldr	r1, [r3, #28]
.LVL263:
	.loc 1 1206 44
	add	r2, r2, r1
	str	r2, [r3, #32]
.LVL264:
	.loc 1 1209 15 is_stmt 1
	.loc 1 1209 18 is_stmt 0
	cmp	r9, #0
	bne	.L183
	.loc 1 1209 55 discriminator 1
	add	r3, r9, r9, lsl #3
	add	r3, r4, r3, lsl #2
	ldr	r3, [r3, #36]
	.loc 1 1209 33 discriminator 1
	cmp	r3, #0
	bne	.L183
	.loc 1 1212 17 is_stmt 1
	.loc 1 1212 23 is_stmt 0
	addw	r2, r4, #1180
	movs	r1, #1
.LVL265:
	ldr	r0, [r4]
.LVL266:
	bl	USB_EP0_OutStart
.LVL267:
	b	.L183
.LVL268:
.L235:
	.loc 1 1236 13 is_stmt 1
	.loc 1 1236 19 is_stmt 0
	mov	r1, r9
	mov	r0, r5
	bl	USB_FlushTxFifo
.LVL269:
	.loc 1 1238 13 is_stmt 1
	.loc 1 1240 13
	.loc 1 1240 19 is_stmt 0
	add	r3, r9, r9, lsl #3
	add	r3, r4, r3, lsl #2
	ldrb	r3, [r3, #23]	@ zero_extendqisi2
	.loc 1 1240 16
	cmp	r3, #1
	beq	.L237
.L188:
	.loc 1 1251 13 is_stmt 1
	.loc 1 1251 67 is_stmt 0
	add	r3, r5, r9, lsl #5
	.loc 1 1251 101
	movs	r2, #2
	str	r2, [r3, #2312]
	b	.L187
.L237:
	.loc 1 1242 15 is_stmt 1
	.loc 1 1242 37 is_stmt 0
	add	r3, r9, r9, lsl #3
	add	r3, r4, r3, lsl #2
	movs	r2, #0
	strb	r2, [r3, #23]
	.loc 1 1247 15 is_stmt 1
	mov	r1, fp
	mov	r0, r4
	bl	HAL_PCD_ISOINIncompleteCallback
.LVL270:
	b	.L188
.LVL271:
.L236:
	.loc 1 1255 13
	.loc 1 1255 19 is_stmt 0
	mov	r1, r9
	mov	r0, r4
	bl	PCD_WriteEmptyTxFifo
.LVL272:
	b	.L181
.LVL273:
.L227:
	.loc 1 1267 7 is_stmt 1
	.loc 1 1267 57 is_stmt 0
	ldr	r3, [r7, #4]
	.loc 1 1267 64
	bic	r3, r3, #1
	str	r3, [r7, #4]
	.loc 1 1269 7 is_stmt 1
	.loc 1 1269 15 is_stmt 0
	ldrb	r3, [r4, #1228]	@ zero_extendqisi2
	.loc 1 1269 10
	cmp	r3, #1
	beq	.L238
	.loc 1 1284 9 is_stmt 1
	mov	r0, r4
	bl	HAL_PCD_ResumeCallback
.LVL274:
.L192:
	.loc 1 1288 7
	.loc 1 1288 15 is_stmt 0
	ldr	r2, [r4]
	.loc 1 1288 25
	ldr	r3, [r2, #20]
	.loc 1 1288 36
	and	r3, r3, #-2147483648
	str	r3, [r2, #20]
	b	.L190
.L238:
	.loc 1 1271 9 is_stmt 1
	.loc 1 1271 25 is_stmt 0
	movs	r1, #0
	strb	r1, [r4, #1228]
	.loc 1 1276 9 is_stmt 1
	mov	r0, r4
	bl	HAL_PCDEx_LPM_Callback
.LVL275:
	b	.L192
.L228:
	.loc 1 1299 9
	mov	r0, r4
	bl	HAL_PCD_SuspendCallback
.LVL276:
	b	.L194
.L196:
	.loc 1 1326 9
	mov	r0, r4
	bl	HAL_PCD_SuspendCallback
.LVL277:
	b	.L195
.L229:
	.loc 1 1334 7
	.loc 1 1334 57 is_stmt 0
	ldr	r3, [r7, #4]
	.loc 1 1334 64
	bic	r3, r3, #1
	str	r3, [r7, #4]
	.loc 1 1335 7 is_stmt 1
	.loc 1 1335 13 is_stmt 0
	movs	r1, #16
	ldr	r0, [r4]
	bl	USB_FlushTxFifo
.LVL278:
	.loc 1 1337 7 is_stmt 1
	b	.L198
.LVL279:
.L199:
	.loc 1 1339 9 discriminator 3
	.loc 1 1339 62 is_stmt 0 discriminator 3
	add	r3, r5, r6, lsl #5
	.loc 1 1339 92 discriminator 3
	movw	r1, #64383
	str	r1, [r3, #2312]
	.loc 1 1340 9 is_stmt 1 discriminator 3
	.loc 1 1340 82 is_stmt 0 discriminator 3
	ldr	r2, [r3, #2304]
	.loc 1 1340 92 discriminator 3
	bic	r2, r2, #2097152
	str	r2, [r3, #2304]
	.loc 1 1341 9 is_stmt 1 discriminator 3
	.loc 1 1341 93 is_stmt 0 discriminator 3
	str	r1, [r3, #2824]
	.loc 1 1342 9 is_stmt 1 discriminator 3
	.loc 1 1342 83 is_stmt 0 discriminator 3
	ldr	r2, [r3, #2816]
	.loc 1 1342 93 discriminator 3
	bic	r2, r2, #2097152
	str	r2, [r3, #2816]
	.loc 1 1343 9 is_stmt 1 discriminator 3
	.loc 1 1343 83 is_stmt 0 discriminator 3
	ldr	r2, [r3, #2816]
	.loc 1 1343 93 discriminator 3
	orr	r2, r2, #134217728
	str	r2, [r3, #2816]
	.loc 1 1337 51 is_stmt 1 discriminator 3
	adds	r6, r6, #1
.LVL280:
.L198:
	.loc 1 1337 22 discriminator 1
	.loc 1 1337 34 is_stmt 0 discriminator 1
	ldrb	r3, [r4, #4]	@ zero_extendqisi2
	.loc 1 1337 22 discriminator 1
	cmp	r3, r6
	bhi	.L199
	.loc 1 1345 7 is_stmt 1
	.loc 1 1345 57 is_stmt 0
	ldr	r3, [r7, #28]
	.loc 1 1345 68
	orr	r3, r3, #65537
	str	r3, [r7, #28]
	.loc 1 1347 7 is_stmt 1
	.loc 1 1347 21 is_stmt 0
	ldrb	r3, [r4, #15]	@ zero_extendqisi2
	.loc 1 1347 10
	cbz	r3, .L200
	.loc 1 1349 9 is_stmt 1
	.loc 1 1349 59 is_stmt 0
	ldr	r3, [r7, #132]
	.loc 1 1349 72
	orr	r3, r3, #11
	str	r3, [r7, #132]
	.loc 1 1353 9 is_stmt 1
	.loc 1 1353 59 is_stmt 0
	ldr	r3, [r7, #68]
	.loc 1 1353 71
	orr	r3, r3, #11
	str	r3, [r7, #68]
.L201:
	.loc 1 1371 7 is_stmt 1
	.loc 1 1371 57 is_stmt 0
	ldr	r3, [r5, #2048]
	.loc 1 1371 64
	bic	r3, r3, #2032
	str	r3, [r5, #2048]
	.loc 1 1374 7 is_stmt 1
	.loc 1 1374 13 is_stmt 0
	addw	r2, r4, #1180
	ldrb	r1, [r4, #6]	@ zero_extendqisi2
	ldr	r0, [r4]
	bl	USB_EP0_OutStart
.LVL281:
	.loc 1 1377 7 is_stmt 1
	.loc 1 1377 15 is_stmt 0
	ldr	r2, [r4]
	.loc 1 1377 25
	ldr	r3, [r2, #20]
	.loc 1 1377 36
	and	r3, r3, #4096
	str	r3, [r2, #20]
	b	.L197
.L200:
	.loc 1 1359 9 is_stmt 1
	.loc 1 1359 59 is_stmt 0
	ldr	r2, [r7, #20]
	.loc 1 1359 69
	movw	r3, #8235
	orrs	r3, r3, r2
	str	r3, [r7, #20]
	.loc 1 1365 9 is_stmt 1
	.loc 1 1365 59 is_stmt 0
	ldr	r3, [r7, #16]
	.loc 1 1365 69
	orr	r3, r3, #11
	str	r3, [r7, #16]
	b	.L201
.LVL282:
.L230:
	.loc 1 1383 7 is_stmt 1
	.loc 1 1383 13 is_stmt 0
	ldr	r0, [r4]
	bl	USB_ActivateSetup
.LVL283:
	.loc 1 1384 7 is_stmt 1
	.loc 1 1384 26 is_stmt 0
	ldr	r0, [r4]
	bl	USB_GetDevSpeed
.LVL284:
	.loc 1 1384 24
	strb	r0, [r4, #7]
	.loc 1 1387 7 is_stmt 1
	.loc 1 1387 39 is_stmt 0
	ldr	r6, [r4]
	.loc 1 1387 13
	bl	HAL_RCC_GetHCLKFreq
.LVL285:
	mov	r1, r0
	ldrb	r2, [r4, #7]	@ zero_extendqisi2
	mov	r0, r6
	bl	USB_SetTurnaroundTime
.LVL286:
	.loc 1 1394 7 is_stmt 1
	mov	r0, r4
	bl	HAL_PCD_ResetCallback
.LVL287:
	.loc 1 1397 7
	.loc 1 1397 15 is_stmt 0
	ldr	r2, [r4]
	.loc 1 1397 25
	ldr	r3, [r2, #20]
	.loc 1 1397 36
	and	r3, r3, #8192
	str	r3, [r2, #20]
	b	.L202
.L231:
	.loc 1 1406 7 is_stmt 1
	mov	r0, r4
	bl	HAL_PCD_SOFCallback
.LVL288:
	.loc 1 1409 7
	.loc 1 1409 15 is_stmt 0
	ldr	r2, [r4]
	.loc 1 1409 25
	ldr	r3, [r2, #20]
	.loc 1 1409 36
	and	r3, r3, #8
	str	r3, [r2, #20]
	b	.L203
.LVL289:
.L206:
	.loc 1 1417 63 is_stmt 1 discriminator 2
	adds	r6, r6, #1
.LVL290:
.L205:
	.loc 1 1417 30 discriminator 1
	.loc 1 1417 42 is_stmt 0 discriminator 1
	ldrb	r3, [r4, #4]	@ zero_extendqisi2
	.loc 1 1417 30 discriminator 1
	cmp	r3, r6
	bls	.L204
	.loc 1 1419 9 is_stmt 1
	.loc 1 1419 32 is_stmt 0
	add	r3, r6, r6, lsl #3
	add	r3, r4, r3, lsl #2
	ldrb	r3, [r3, #599]	@ zero_extendqisi2
	.loc 1 1419 12
	cmp	r3, #1
	bne	.L206
	.loc 1 1422 11 is_stmt 1
	.loc 1 1422 17 is_stmt 0
	uxtb	r1, r6
	mov	r0, r4
	bl	HAL_PCD_EP_Abort
.LVL291:
	b	.L206
.LVL292:
.L204:
	.loc 1 1428 5 is_stmt 1
	.loc 1 1428 11 is_stmt 0
	ldr	r0, [r4]
	bl	USB_ReadInterrupts
.LVL293:
	.loc 1 1428 8
	tst	r0, #1048576
	bne	.L219
.L209:
	.loc 1 1448 5 is_stmt 1
	.loc 1 1448 11 is_stmt 0
	ldr	r0, [r4]
	bl	USB_ReadInterrupts
.LVL294:
	.loc 1 1448 8
	tst	r0, #2097152
	beq	.L213
	.loc 1 1450 18
	movs	r3, #1
	b	.L212
.LVL295:
.L210:
	.loc 1 1430 63 is_stmt 1 discriminator 2
	adds	r6, r6, #1
.LVL296:
.L208:
	.loc 1 1430 30 discriminator 1
	.loc 1 1430 42 is_stmt 0 discriminator 1
	ldrb	r3, [r4, #4]	@ zero_extendqisi2
	.loc 1 1430 30 discriminator 1
	cmp	r3, r6
	bls	.L239
	.loc 1 1432 9 is_stmt 1
	.loc 1 1432 71 is_stmt 0
	add	r3, r5, r6, lsl #5
	.loc 1 1432 16
	ldr	r2, [r3, #2304]
.LVL297:
	.loc 1 1434 9 is_stmt 1
	.loc 1 1434 32 is_stmt 0
	add	r3, r6, r6, lsl #3
	add	r3, r4, r3, lsl #2
	ldrb	r3, [r3, #24]	@ zero_extendqisi2
	.loc 1 1434 12
	cmp	r3, #1
	bne	.L210
	.loc 1 1434 45 discriminator 1
	cmp	r2, #0
	bge	.L210
	.loc 1 1437 11 is_stmt 1
	.loc 1 1437 48 is_stmt 0
	add	r3, r6, r6, lsl #3
	add	r3, r4, r3, lsl #2
	movs	r2, #1
.LVL298:
	strb	r2, [r3, #23]
	.loc 1 1440 11 is_stmt 1
	.loc 1 1440 17 is_stmt 0
	orn	r1, r6, #127
	uxtb	r1, r1
	mov	r0, r4
	bl	HAL_PCD_EP_Abort
.LVL299:
	b	.L210
.LVL300:
.L219:
	.loc 1 1430 18
	movs	r6, #1
	b	.L208
.LVL301:
.L239:
	.loc 1 1444 7 is_stmt 1
	.loc 1 1444 15 is_stmt 0
	ldr	r2, [r4]
	.loc 1 1444 25
	ldr	r3, [r2, #20]
	.loc 1 1444 36
	and	r3, r3, #1048576
	str	r3, [r2, #20]
	b	.L209
.LVL302:
.L214:
	.loc 1 1450 63 is_stmt 1 discriminator 2
	adds	r3, r3, #1
.LVL303:
.L212:
	.loc 1 1450 30 discriminator 1
	.loc 1 1450 42 is_stmt 0 discriminator 1
	ldrb	r2, [r4, #4]	@ zero_extendqisi2
	.loc 1 1450 30 discriminator 1
	cmp	r2, r3
	bls	.L215
	.loc 1 1452 9 is_stmt 1
	.loc 1 1452 72 is_stmt 0
	add	r2, r5, r3, lsl #5
	.loc 1 1452 16
	ldr	r1, [r2, #2816]
.LVL304:
	.loc 1 1454 9 is_stmt 1
	.loc 1 1454 33 is_stmt 0
	add	r2, r3, r3, lsl #3
	add	r2, r4, r2, lsl #2
	ldrb	r2, [r2, #600]	@ zero_extendqisi2
	.loc 1 1454 12
	cmp	r2, #1
	bne	.L214
	.loc 1 1454 46 discriminator 1
	cmp	r1, #0
	bge	.L214
	.loc 1 1456 22
	and	r1, r1, #65536
.LVL305:
	.loc 1 1456 46
	ldr	r2, [r4, #1236]
	.loc 1 1456 60
	and	r2, r2, #1
	.loc 1 1455 63
	cmp	r1, r2
	bne	.L214
	.loc 1 1458 11 is_stmt 1
	.loc 1 1458 49 is_stmt 0
	add	r2, r3, r3, lsl #3
	add	r2, r4, r2, lsl #2
	movs	r1, #1
	strb	r1, [r2, #599]
	.loc 1 1460 11 is_stmt 1
	.loc 1 1460 15 is_stmt 0
	ldr	r2, [r5, #24]
	.loc 1 1460 25
	orr	r2, r2, #128
	str	r2, [r5, #24]
	.loc 1 1462 11 is_stmt 1
	.loc 1 1462 20 is_stmt 0
	ldr	r2, [r5, #20]
	.loc 1 1462 14
	tst	r2, #128
	bne	.L214
	.loc 1 1464 13 is_stmt 1
	.loc 1 1464 63 is_stmt 0
	ldr	r3, [r7, #4]
.LVL306:
	.loc 1 1464 70
	orr	r3, r3, #512
	str	r3, [r7, #4]
	.loc 1 1465 13 is_stmt 1
.LVL307:
.L215:
	.loc 1 1470 7
	.loc 1 1470 15 is_stmt 0
	ldr	r2, [r4]
	.loc 1 1470 25
	ldr	r3, [r2, #20]
	.loc 1 1470 36
	and	r3, r3, #2097152
	str	r3, [r2, #20]
.LVL308:
.L213:
	.loc 1 1474 5 is_stmt 1
	.loc 1 1474 11 is_stmt 0
	ldr	r0, [r4]
	bl	USB_ReadInterrupts
.LVL309:
	.loc 1 1474 8
	tst	r0, #1073741824
	bne	.L240
.L217:
	.loc 1 1486 5 is_stmt 1
	.loc 1 1486 11 is_stmt 0
	ldr	r0, [r4]
	bl	USB_ReadInterrupts
.LVL310:
	.loc 1 1486 8
	tst	r0, #4
	beq	.L162
	.loc 1 1488 7 is_stmt 1
	.loc 1 1488 20 is_stmt 0
	ldr	r3, [r4]
	.loc 1 1488 14
	ldr	r5, [r3, #4]
.LVL311:
	.loc 1 1490 7 is_stmt 1
	.loc 1 1490 10 is_stmt 0
	tst	r5, #4
	bne	.L241
.L218:
	.loc 1 1498 7 is_stmt 1
	.loc 1 1498 11 is_stmt 0
	ldr	r2, [r4]
	.loc 1 1498 21
	ldr	r3, [r2, #4]
	.loc 1 1498 31
	orrs	r3, r3, r5
	str	r3, [r2, #4]
	b	.L162
.LVL312:
.L240:
	.loc 1 1479 7 is_stmt 1
	mov	r0, r4
	bl	HAL_PCD_ConnectCallback
.LVL313:
	.loc 1 1482 7
	.loc 1 1482 15 is_stmt 0
	ldr	r2, [r4]
	.loc 1 1482 25
	ldr	r3, [r2, #20]
	.loc 1 1482 36
	and	r3, r3, #1073741824
	str	r3, [r2, #20]
	b	.L217
.LVL314:
.L241:
	.loc 1 1495 9 is_stmt 1
	mov	r0, r4
	bl	HAL_PCD_DisconnectCallback
.LVL315:
	b	.L218
	.cfi_endproc
.LFE341:
	.size	HAL_PCD_IRQHandler, .-HAL_PCD_IRQHandler
	.section	.text.HAL_PCD_EP_Flush,"ax",%progbits
	.align	1
	.global	HAL_PCD_EP_Flush
	.syntax unified
	.thumb
	.thumb_func
	.type	HAL_PCD_EP_Flush, %function
HAL_PCD_EP_Flush:
.LFB364:
	.loc 1 2019 1
	.cfi_startproc
	@ args = 0, pretend = 0, frame = 0
	@ frame_needed = 0, uses_anonymous_args = 0
.LVL316:
	.loc 1 2020 3
	.loc 1 2020 7
	.loc 1 2020 16 is_stmt 0
	ldrb	r3, [r0, #1172]	@ zero_extendqisi2
	.loc 1 2020 9
	cmp	r3, #1
	beq	.L246
	.loc 1 2019 1 discriminator 2
	push	{r4, lr}
	.cfi_def_cfa_offset 8
	.cfi_offset 4, -8
	.cfi_offset 14, -4
	mov	r4, r0
	.loc 1 2020 66 is_stmt 1 discriminator 2
	.loc 1 2020 79 is_stmt 0 discriminator 2
	movs	r3, #1
	strb	r3, [r0, #1172]
	.loc 1 2020 5 is_stmt 1 discriminator 2
	.loc 1 2022 3 discriminator 2
	.loc 1 2022 6 is_stmt 0 discriminator 2
	tst	r1, #128
	bne	.L251
	.loc 1 2028 5 is_stmt 1
	.loc 1 2028 11 is_stmt 0
	ldr	r0, [r0]
.LVL317:
	bl	USB_FlushRxFifo
.LVL318:
.L245:
	.loc 1 2031 3 is_stmt 1
	.loc 1 2031 7
	.loc 1 2031 20 is_stmt 0
	movs	r0, #0
	strb	r0, [r4, #1172]
	.loc 1 2031 5 is_stmt 1
	.loc 1 2033 3
	.loc 1 2034 1 is_stmt 0
	pop	{r4, pc}
.LVL319:
.L251:
	.loc 1 2024 5 is_stmt 1
	.loc 1 2024 11 is_stmt 0
	and	r1, r1, #15
.LVL320:
	ldr	r0, [r0]
.LVL321:
	bl	USB_FlushTxFifo
.LVL322:
	b	.L245
.LVL323:
.L246:
	.cfi_def_cfa_offset 0
	.cfi_restore 4
	.cfi_restore 14
	.loc 1 2020 47
	movs	r0, #2
.LVL324:
	.loc 1 2034 1
	bx	lr
	.cfi_endproc
.LFE364:
	.size	HAL_PCD_EP_Flush, .-HAL_PCD_EP_Flush
	.section	.text.HAL_PCD_ActivateRemoteWakeup,"ax",%progbits
	.align	1
	.global	HAL_PCD_ActivateRemoteWakeup
	.syntax unified
	.thumb
	.thumb_func
	.type	HAL_PCD_ActivateRemoteWakeup, %function
HAL_PCD_ActivateRemoteWakeup:
.LFB365:
	.loc 1 2042 1 is_stmt 1
	.cfi_startproc
	@ args = 0, pretend = 0, frame = 0
	@ frame_needed = 0, uses_anonymous_args = 0
.LVL325:
	push	{r3, lr}
	.cfi_def_cfa_offset 8
	.cfi_offset 3, -8
	.cfi_offset 14, -4
	.loc 1 2043 3
	.loc 1 2043 11 is_stmt 0
	ldr	r0, [r0]
.LVL326:
	bl	USB_ActivateRemoteWakeup
.LVL327:
	.loc 1 2044 1
	pop	{r3, pc}
	.cfi_endproc
.LFE365:
	.size	HAL_PCD_ActivateRemoteWakeup, .-HAL_PCD_ActivateRemoteWakeup
	.section	.text.HAL_PCD_DeActivateRemoteWakeup,"ax",%progbits
	.align	1
	.global	HAL_PCD_DeActivateRemoteWakeup
	.syntax unified
	.thumb
	.thumb_func
	.type	HAL_PCD_DeActivateRemoteWakeup, %function
HAL_PCD_DeActivateRemoteWakeup:
.LFB366:
	.loc 1 2052 1 is_stmt 1
	.cfi_startproc
	@ args = 0, pretend = 0, frame = 0
	@ frame_needed = 0, uses_anonymous_args = 0
.LVL328:
	push	{r3, lr}
	.cfi_def_cfa_offset 8
	.cfi_offset 3, -8
	.cfi_offset 14, -4
	.loc 1 2053 3
	.loc 1 2053 11 is_stmt 0
	ldr	r0, [r0]
.LVL329:
	bl	USB_DeActivateRemoteWakeup
.LVL330:
	.loc 1 2054 1
	pop	{r3, pc}
	.cfi_endproc
.LFE366:
	.size	HAL_PCD_DeActivateRemoteWakeup, .-HAL_PCD_DeActivateRemoteWakeup
	.section	.text.HAL_PCD_GetState,"ax",%progbits
	.align	1
	.global	HAL_PCD_GetState
	.syntax unified
	.thumb
	.thumb_func
	.type	HAL_PCD_GetState, %function
HAL_PCD_GetState:
.LFB367:
	.loc 1 2081 1 is_stmt 1
	.cfi_startproc
	@ args = 0, pretend = 0, frame = 0
	@ frame_needed = 0, uses_anonymous_args = 0
	@ link register save eliminated.
.LVL331:
	.loc 1 2082 3
	.loc 1 2082 14 is_stmt 0
	ldrb	r0, [r0, #1173]	@ zero_extendqisi2
.LVL332:
	.loc 1 2083 1
	bx	lr
	.cfi_endproc
.LFE367:
	.size	HAL_PCD_GetState, .-HAL_PCD_GetState
	.section	.text.HAL_PCD_SetTestMode,"ax",%progbits
	.align	1
	.global	HAL_PCD_SetTestMode
	.syntax unified
	.thumb
	.thumb_func
	.type	HAL_PCD_SetTestMode, %function
HAL_PCD_SetTestMode:
.LFB368:
	.loc 1 2093 1 is_stmt 1
	.cfi_startproc
	@ args = 0, pretend = 0, frame = 0
	@ frame_needed = 0, uses_anonymous_args = 0
	@ link register save eliminated.
.LVL333:
	.loc 1 2094 3
	.loc 1 2094 32 is_stmt 0
	ldr	r3, [r0]
.LVL334:
	.loc 1 2095 3 is_stmt 1
	.loc 1 2097 3
	subs	r2, r1, #1
	cmp	r2, #4
	bhi	.L258
	.loc 1 2104 7
	.loc 1 2104 57 is_stmt 0
	ldr	r2, [r3, #2052]
	.loc 1 2104 64
	orr	r2, r2, r1, lsl #4
	str	r2, [r3, #2052]
	.loc 1 2105 7 is_stmt 1
.L258:
	.loc 1 2111 3
	.loc 1 2112 1 is_stmt 0
	movs	r0, #0
.LVL335:
	bx	lr
	.cfi_endproc
.LFE368:
	.size	HAL_PCD_SetTestMode, .-HAL_PCD_SetTestMode
	.text
.Letext0:
	.file 2 "m:\\noinstall\\arm-gnu-toolchain-12.2.rel1-mingw-w64-i686-arm-none-eabi\\arm-none-eabi\\include\\machine\\_default_types.h"
	.file 3 "m:\\noinstall\\arm-gnu-toolchain-12.2.rel1-mingw-w64-i686-arm-none-eabi\\arm-none-eabi\\include\\sys\\_stdint.h"
	.file 4 "D:/RTOS/Board/YD-STM32H7xxVx_ClassicV19/cmake-build-debug/_deps/stm32h7xx_cmsis_device-src/Include/stm32h743xx.h"
	.file 5 "D:/RTOS/Board/YD-STM32H7xxVx_ClassicV19/cmake-build-debug/_deps/stm32h7xx_hal_driver-src/Inc/stm32h7xx_hal_def.h"
	.file 6 "D:/RTOS/Board/YD-STM32H7xxVx_ClassicV19/cmake-build-debug/_deps/stm32h7xx_hal_driver-src/Inc/stm32h7xx_ll_usb.h"
	.file 7 "D:/RTOS/Board/YD-STM32H7xxVx_ClassicV19/cmake-build-debug/_deps/stm32h7xx_hal_driver-src/Inc/stm32h7xx_hal_pcd.h"
	.file 8 "D:/RTOS/Board/YD-STM32H7xxVx_ClassicV19/cmake-build-debug/_deps/stm32h7xx_hal_driver-src/Inc/stm32h7xx_hal_pcd_ex.h"
	.file 9 "D:/RTOS/Board/YD-STM32H7xxVx_ClassicV19/cmake-build-debug/_deps/stm32h7xx_hal_driver-src/Inc/stm32h7xx_hal_rcc.h"