	.cpu cortex-m7
	.arch armv7e-m
	.fpu fpv5-d16
	.eabi_attribute 28, 1
	.eabi_attribute 20, 1
	.eabi_attribute 21, 1
	.eabi_attribute 23, 3
	.eabi_attribute 24, 1
	.eabi_attribute 25, 1
	.eabi_attribute 26, 1
	.eabi_attribute 30, 1
	.eabi_attribute 34, 1
	.eabi_attribute 18, 4
	.file	"stm32h7xx_hal_sram.c"
	.text
.Ltext0:
	.cfi_sections	.debug_frame
	.file 1 "D:/RTOS/Board/YD-STM32H7xxVx_ClassicV19/cmake-build-debug/_deps/stm32h7xx_hal_driver-src/Src/stm32h7xx_hal_sram.c"
	.section	.text.HAL_SRAM_MspInit,"ax",%progbits
	.align	1
	.weak	HAL_SRAM_MspInit
	.syntax unified
	.thumb
	.thumb_func
	.type	HAL_SRAM_MspInit, %function
HAL_SRAM_MspInit:
.LFB337:
	.loc 1 265 1
	.cfi_startproc
	@ args = 0, pretend = 0, frame = 0
	@ frame_needed = 0, uses_anonymous_args = 0
	@ link register save eliminated.
.LVL0:
	.loc 1 267 3
	.loc 1 272 1 is_stmt 0
	bx	lr
	.cfi_endproc
.LFE337:
	.size	HAL_SRAM_MspInit, .-HAL_SRAM_MspInit
	.section	.text.HAL_SRAM_Init,"ax",%progbits
	.align	1
	.global	HAL_SRAM_Init
	.syntax unified
	.thumb
	.thumb_func
	.type	HAL_SRAM_Init, %function
HAL_SRAM_Init:
.LFB335:
	.loc 1 175 1 is_stmt 1
	.cfi_startproc
	@ args = 0, pretend = 0, frame = 0
	@ frame_needed = 0, uses_anonymous_args = 0
.LVL1:
	.loc 1 177 3
	.loc 1 177 6 is_stmt 0
	cbz	r0, .L5
	.loc 1 175 1
	push	{r4, r5, r6, lr}
	.cfi_def_cfa_offset 16
	.cfi_offset 4, -16
	.cfi_offset 5, -12
	.cfi_offset 6, -8
	.cfi_offset 14, -4
	mov	r6, r1
	mov	r5, r2
	mov	r4, r0
	.loc 1 182 3 is_stmt 1
	.loc 1 182 12 is_stmt 0
	ldrb	r3, [r0, #69]	@ zero_extendqisi2
	.loc 1 182 6
	cbz	r3, .L10
.LVL2:
.L4:
	.loc 1 204 3 is_stmt 1
	.loc 1 204 9 is_stmt 0
	mov	r1, r4
	ldr	r0, [r1], #8
	bl	FMC_NORSRAM_Init
.LVL3:
	.loc 1 207 3 is_stmt 1
	.loc 1 207 9 is_stmt 0
	ldr	r2, [r4, #8]
	mov	r1, r6
	ldr	r0, [r4]
	bl	FMC_NORSRAM_Timing_Init
.LVL4:
	.loc 1 210 3 is_stmt 1
	.loc 1 210 9 is_stmt 0
	ldr	r3, [r4, #44]
	ldr	r2, [r4, #8]
	mov	r1, r5
	ldr	r0, [r4, #4]
	bl	FMC_NORSRAM_Extended_Timing_Init
.LVL5:
	.loc 1 214 3 is_stmt 1
	.loc 1 214 10 is_stmt 0
	ldr	r2, [r4]
	.loc 1 214 40
	ldr	r1, [r4, #8]
	.loc 1 214 27
	ldr	r3, [r2, r1, lsl #2]
	.loc 1 214 50
	orr	r3, r3, #1
	str	r3, [r2, r1, lsl #2]
	.loc 1 217 3 is_stmt 1
	.loc 1 217 91 is_stmt 0
	ldr	r2, .L11
	ldr	r3, [r2]
	.loc 1 217 95
	orr	r3, r3, #-2147483648
	str	r3, [r2]
	.loc 1 220 3 is_stmt 1
	.loc 1 220 16 is_stmt 0
	movs	r3, #1
	strb	r3, [r4, #69]
	.loc 1 222 3 is_stmt 1
	.loc 1 222 10 is_stmt 0
	movs	r0, #0
	.loc 1 223 1
	pop	{r4, r5, r6, pc}
.LVL6:
.L10:
	.loc 1 185 5 is_stmt 1
	.loc 1 185 17 is_stmt 0
	strb	r3, [r0, #68]
	.loc 1 199 5 is_stmt 1
	bl	HAL_SRAM_MspInit
.LVL7:
	b	.L4
.LVL8:
.L5:
	.cfi_def_cfa_offset 0
	.cfi_restore 4
	.cfi_restore 5
	.cfi_restore 6
	.cfi_restore 14
	.loc 1 179 12 is_stmt 0
	movs	r0, #1
.LVL9:
	.loc 1 223 1
	bx	lr
.L12:
	.align	2
.L11:
	.word	1375748096
	.cfi_endproc
.LFE335:
	.size	HAL_SRAM_Init, .-HAL_SRAM_Init
	.section	.text.HAL_SRAM_MspDeInit,"ax",%progbits
	.align	1
	.weak	HAL_SRAM_MspDeInit
	.syntax unified
	.thumb
	.thumb_func
	.type	HAL_SRAM_MspDeInit, %function
HAL_SRAM_MspDeInit:
.LFB338:
	.loc 1 281 1 is_stmt 1
	.cfi_startproc
	@ args = 0, pretend = 0, frame = 0
	@ frame_needed = 0, uses_anonymous_args = 0
	@ link register save eliminated.
.LVL10:
	.loc 1 283 3
	.loc 1 288 1 is_stmt 0
	bx	lr
	.cfi_endproc
.LFE338:
	.size	HAL_SRAM_MspDeInit, .-HAL_SRAM_MspDeInit
	.section	.text.HAL_SRAM_DeInit,"ax",%progbits
	.align	1
	.global	HAL_SRAM_DeInit
	.syntax unified
	.thumb
	.thumb_func
	.type	HAL_SRAM_DeInit, %function
HAL_SRAM_DeInit:
.LFB336:
	.loc 1 232 1 is_stmt 1
	.cfi_startproc
	@ args = 0, pretend = 0, frame = 0
	@ frame_needed = 0, uses_anonymous_args = 0
.LVL11:
	push	{r4, lr}
	.cfi_def_cfa_offset 8
	.cfi_offset 4, -8
	.cfi_offset 14, -4
	mov	r4, r0
	.loc 1 243 3
	bl	HAL_SRAM_MspDeInit
.LVL12:
	.loc 1 247 3
	.loc 1 247 9 is_stmt 0
	ldr	r2, [r4, #8]
	ldr	r1, [r4, #4]
	ldr	r0, [r4]
	bl	FMC_NORSRAM_DeInit
.LVL13:
	.loc 1 250 3 is_stmt 1
	.loc 1 250 16 is_stmt 0
	movs	r0, #0
	strb	r0, [r4, #69]
	.loc 1 253 3 is_stmt 1
	.loc 1 253 7
	.loc 1 253 21 is_stmt 0
	strb	r0, [r4, #68]
	.loc 1 253 5 is_stmt 1
	.loc 1 255 3
	.loc 1 256 1 is_stmt 0
	pop	{r4, pc}
	.cfi_endproc
.LFE336:
	.size	HAL_SRAM_DeInit, .-HAL_SRAM_DeInit
	.section	.text.HAL_SRAM_DMA_XferCpltCallback,"ax",%progbits
	.align	1
	.weak	HAL_SRAM_DMA_XferCpltCallback
	.syntax unified
	.thumb
	.thumb_func
	.type	HAL_SRAM_DMA_XferCpltCallback, %function
HAL_SRAM_DMA_XferCpltCallback:
.LFB339:
	.loc 1 297 1 is_stmt 1
	.cfi_startproc
	@ args = 0, pretend = 0, frame = 0
	@ frame_needed = 0, uses_anonymous_args = 0
	@ link register save eliminated.
.LVL14:
	.loc 1 299 3
	.loc 1 304 1 is_stmt 0
	bx	lr
	.cfi_endproc
.LFE339:
	.size	HAL_SRAM_DMA_XferCpltCallback, .-HAL_SRAM_DMA_XferCpltCallback
	.section	.text.SRAM_DMACpltProt,"ax",%progbits
	.align	1
	.syntax unified
	.thumb
	.thumb_func
	.type	SRAM_DMACpltProt, %function
SRAM_DMACpltProt:
.LFB353:
	.loc 1 1064 1 is_stmt 1
	.cfi_startproc
	@ args = 0, pretend = 0, frame = 0
	@ frame_needed = 0, uses_anonymous_args = 0
.LVL15:
	push	{r3, lr}
	.cfi_def_cfa_offset 8
	.cfi_offset 3, -8
	.cfi_offset 14, -4
	.loc 1 1065 3
	.loc 1 1065 23 is_stmt 0
	ldr	r1, [r0, #64]
.LVL16:
	.loc 1 1068 3 is_stmt 1
	.loc 1 1068 11 is_stmt 0
	ldr	r2, [r0]
	.loc 1 1068 21
	ldr	r3, [r2, #12]
	.loc 1 1068 27
	bic	r3, r3, #1
	str	r3, [r2, #12]
	.loc 1 1071 3 is_stmt 1
	.loc 1 1071 16 is_stmt 0
	movs	r3, #4
	strb	r3, [r1, #69]
	.loc 1 1076 3 is_stmt 1
	bl	HAL_SRAM_DMA_XferCpltCallback
.LVL17:
	.loc 1 1078 1 is_stmt 0
	pop	{r3, pc}
	.cfi_endproc
.LFE353:
	.size	SRAM_DMACpltProt, .-SRAM_DMACpltProt
	.section	.text.SRAM_DMACplt,"ax",%progbits
	.align	1
	.syntax unified
	.thumb
	.thumb_func
	.type	SRAM_DMACplt, %function
SRAM_DMACplt:
.LFB352:
	.loc 1 1042 1 is_stmt 1
	.cfi_startproc
	@ args = 0, pretend = 0, frame = 0
	@ frame_needed = 0, uses_anonymous_args = 0
.LVL18:
	push	{r3, lr}
	.cfi_def_cfa_offset 8
	.cfi_offset 3, -8
	.cfi_offset 14, -4
	.loc 1 1043 3
	.loc 1 1043 23 is_stmt 0
	ldr	r1, [r0, #64]
.LVL19:
	.loc 1 1046 3 is_stmt 1
	.loc 1 1046 11 is_stmt 0
	ldr	r2, [r0]
	.loc 1 1046 21
	ldr	r3, [r2, #12]
	.loc 1 1046 27
	bic	r3, r3, #1
	str	r3, [r2, #12]
	.loc 1 1049 3 is_stmt 1
	.loc 1 1049 16 is_stmt 0
	movs	r3, #1
	strb	r3, [r1, #69]
	.loc 1 1054 3 is_stmt 1
	bl	HAL_SRAM_DMA_XferCpltCallback
.LVL20:
	.loc 1 1056 1 is_stmt 0
	pop	{r3, pc}
	.cfi_endproc
.LFE352:
	.size	SRAM_DMACplt, .-SRAM_DMACplt
	.section	.text.HAL_SRAM_DMA_XferErrorCallback,"ax",%progbits
	.align	1
	.weak	HAL_SRAM_DMA_XferErrorCallback
	.syntax unified
	.thumb
	.thumb_func
	.type	HAL_SRAM_DMA_XferErrorCallback, %function
HAL_SRAM_DMA_XferErrorCallback:
.LFB340:
	.loc 1 313 1 is_stmt 1
	.cfi_startproc
	@ args = 0, pretend = 0, frame = 0
	@ frame_needed = 0, uses_anonymous_args = 0
	@ link register save eliminated.
.LVL21:
	.loc 1 315 3
	.loc 1 320 1 is_stmt 0
	bx	lr
	.cfi_endproc
.LFE340:
	.size	HAL_SRAM_DMA_XferErrorCallback, .-HAL_SRAM_DMA_XferErrorCallback
	.section	.text.SRAM_DMAError,"ax",%progbits
	.align	1
	.syntax unified
	.thumb
	.thumb_func
	.type	SRAM_DMAError, %function
SRAM_DMAError:
.LFB354:
	.loc 1 1086 1 is_stmt 1
	.cfi_startproc
	@ args = 0, pretend = 0, frame = 0
	@ frame_needed = 0, uses_anonymous_args = 0
.LVL22:
	push	{r3, lr}
	.cfi_def_cfa_offset 8
	.cfi_offset 3, -8
	.cfi_offset 14, -4
	.loc 1 1087 3
	.loc 1 1087 23 is_stmt 0
	ldr	r1, [r0, #64]
.LVL23:
	.loc 1 1090 3 is_stmt 1
	.loc 1 1090 11 is_stmt 0
	ldr	r2, [r0]
	.loc 1 1090 21
	ldr	r3, [r2, #12]
	.loc 1 1090 27
	bic	r3, r3, #1
	str	r3, [r2, #12]
	.loc 1 1093 3 is_stmt 1
	.loc 1 1093 16 is_stmt 0
	movs	r3, #3
	strb	r3, [r1, #69]
	.loc 1 1098 3 is_stmt 1
	bl	HAL_SRAM_DMA_XferErrorCallback
.LVL24:
	.loc 1 1100 1 is_stmt 0
	pop	{r3, pc}
	.cfi_endproc
.LFE354:
	.size	SRAM_DMAError, .-SRAM_DMAError
	.section	.text.HAL_SRAM_Read_8b,"ax",%progbits
	.align	1
	.global	HAL_SRAM_Read_8b
	.syntax unified
	.thumb
	.thumb_func
	.type	HAL_SRAM_Read_8b, %function
HAL_SRAM_Read_8b:
.LFB341:
	.loc 1 351 1 is_stmt 1
	.cfi_startproc
	@ args = 0, pretend = 0, frame = 0
	@ frame_needed = 0, uses_anonymous_args = 0
.LVL25:
	push	{lr}
	.cfi_def_cfa_offset 4
	.cfi_offset 14, -4
	mov	lr, r0
	.loc 1 352 3
	.loc 1 353 3
.LVL26:
	.loc 1 354 3
	.loc 1 355 3
	.loc 1 355 25 is_stmt 0
	ldrb	r0, [r0, #69]	@ zero_extendqisi2
.LVL27:
	uxtb	r0, r0
.LVL28:
	.loc 1 358 3 is_stmt 1
	.loc 1 358 6 is_stmt 0
	cmp	r0, #4
	it	ne
	cmpne	r0, #1
	bne	.L28
	.loc 1 361 5 is_stmt 1
	.loc 1 361 9
	.loc 1 361 19 is_stmt 0
	ldrb	ip, [lr, #68]	@ zero_extendqisi2
	.loc 1 361 11
	cmp	ip, #1
	beq	.L29
	.loc 1 361 69 is_stmt 1 discriminator 2
	.loc 1 361 83 is_stmt 0 discriminator 2
	mov	ip, #1
	strb	ip, [lr, #68]
	.loc 1 361 7 is_stmt 1 discriminator 2
	.loc 1 364 5 discriminator 2
	.loc 1 364 18 is_stmt 0 discriminator 2
	mov	ip, #2
	strb	ip, [lr, #69]
	.loc 1 367 5 is_stmt 1 discriminator 2
.LVL29:
	b	.L26
.LVL30:
.L27:
	.loc 1 369 7 discriminator 3
	.loc 1 369 20 is_stmt 0 discriminator 3
	ldrb	ip, [r1], #1	@ zero_extendqisi2
.LVL31:
	.loc 1 369 18 discriminator 3
	strb	ip, [r2], #1
.LVL32:
	.loc 1 370 7 is_stmt 1 discriminator 3
	.loc 1 371 7 discriminator 3
	.loc 1 367 45 discriminator 3
	subs	r3, r3, #1
.LVL33:
.L26:
	.loc 1 367 34 discriminator 1
	cmp	r3, #0
	bne	.L27
	.loc 1 375 5
	.loc 1 375 18 is_stmt 0
	strb	r0, [lr, #69]
	.loc 1 378 5 is_stmt 1
	.loc 1 378 9
	.loc 1 378 23 is_stmt 0
	movs	r0, #0
.LVL34:
	strb	r0, [lr, #68]
	.loc 1 378 7 is_stmt 1
	.loc 1 385 3
.LVL35:
.L25:
	.loc 1 386 1 is_stmt 0
	ldr	pc, [sp], #4
.LVL36:
.L28:
	.loc 1 382 12
	movs	r0, #1
.LVL37:
	b	.L25
.LVL38:
.L29:
	.loc 1 361 50
	movs	r0, #2
.LVL39:
	b	.L25
	.cfi_endproc
.LFE341:
	.size	HAL_SRAM_Read_8b, .-HAL_SRAM_Read_8b
	.section	.text.HAL_SRAM_Write_8b,"ax",%progbits
	.align	1
	.global	HAL_SRAM_Write_8b
	.syntax unified
	.thumb
	.thumb_func
	.type	HAL_SRAM_Write_8b, %function
HAL_SRAM_Write_8b:
.LFB342:
	.loc 1 399 1 is_stmt 1
	.cfi_startproc
	@ args = 0, pretend = 0, frame = 0
	@ frame_needed = 0, uses_anonymous_args = 0
	@ link register save eliminated.
.LVL40:
	.loc 1 400 3
	.loc 1 401 3
	.loc 1 402 3
	.loc 1 405 3
	.loc 1 405 12 is_stmt 0
	ldrb	ip, [r0, #69]	@ zero_extendqisi2
	uxtb	ip, ip
	.loc 1 405 6
	cmp	ip, #1
	bne	.L35
	.loc 1 408 5 is_stmt 1
	.loc 1 408 9
	.loc 1 408 19 is_stmt 0
	ldrb	ip, [r0, #68]	@ zero_extendqisi2
	.loc 1 408 11
	cmp	ip, #1
	beq	.L36
	.loc 1 408 69 is_stmt 1 discriminator 2
	.loc 1 408 83 is_stmt 0 discriminator 2
	mov	ip, #1
	strb	ip, [r0, #68]
	.loc 1 408 7 is_stmt 1 discriminator 2
	.loc 1 411 5 discriminator 2
	.loc 1 411 18 is_stmt 0 discriminator 2
	mov	ip, #2
	strb	ip, [r0, #69]
	.loc 1 414 5 is_stmt 1 discriminator 2
.LVL41:
	b	.L33
.LVL42:
.L34:
	.loc 1 416 7 discriminator 3
	.loc 1 416 23 is_stmt 0 discriminator 3
	ldrb	ip, [r2], #1	@ zero_extendqisi2
.LVL43:
	.loc 1 416 21 discriminator 3
	strb	ip, [r1], #1
.LVL44:
	.loc 1 417 7 is_stmt 1 discriminator 3
	.loc 1 418 7 discriminator 3
	.loc 1 414 45 discriminator 3
	subs	r3, r3, #1
.LVL45:
.L33:
	.loc 1 414 34 discriminator 1
	cmp	r3, #0
	bne	.L34
	.loc 1 422 5
	.loc 1 422 18 is_stmt 0
	movs	r3, #1
.LVL46:
	strb	r3, [r0, #69]
	.loc 1 425 5 is_stmt 1
	.loc 1 425 9
	.loc 1 425 23 is_stmt 0
	movs	r3, #0
	strb	r3, [r0, #68]
	.loc 1 425 7 is_stmt 1
	.loc 1 432 3
	.loc 1 432 10 is_stmt 0
	mov	r0, r3
.LVL47:
	bx	lr
.LVL48:
.L35:
	.loc 1 429 12
	movs	r0, #1
.LVL49:
	bx	lr
.LVL50:
.L36:
	.loc 1 408 50
	movs	r0, #2
.LVL51:
	.loc 1 433 1
	bx	lr
	.cfi_endproc
.LFE342:
	.size	HAL_SRAM_Write_8b, .-HAL_SRAM_Write_8b
	.section	.text.HAL_SRAM_Read_16b,"ax",%progbits
	.align	1
	.global	HAL_SRAM_Read_16b
	.syntax unified
	.thumb
	.thumb_func
	.type	HAL_SRAM_Read_16b, %function
HAL_SRAM_Read_16b:
.LFB343:
	.loc 1 446 1 is_stmt 1
	.cfi_startproc
	@ args = 0, pretend = 0, frame = 0
	@ frame_needed = 0, uses_anonymous_args = 0
.LVL52:
	push	{r4, r5, lr}
	.cfi_def_cfa_offset 12
	.cfi_offset 4, -12
	.cfi_offset 5, -8
	.cfi_offset 14, -4
	.loc 1 447 3
	.loc 1 448 3
.LVL53:
	.loc 1 449 3
	.loc 1 450 3
	.loc 1 451 3
	.loc 1 451 25 is_stmt 0
	ldrb	r5, [r0, #69]	@ zero_extendqisi2
	uxtb	r5, r5
.LVL54:
	.loc 1 454 3 is_stmt 1
	.loc 1 454 6 is_stmt 0
	cmp	r5, #4
	it	ne
	cmpne	r5, #1
	bne	.L42
	mov	lr, r0
	.loc 1 457 5 is_stmt 1
	.loc 1 457 9
	.loc 1 457 19 is_stmt 0
	ldrb	r0, [r0, #68]	@ zero_extendqisi2
.LVL55:
	.loc 1 457 11
	cmp	r0, #1
	beq	.L43
	.loc 1 457 69 is_stmt 1 discriminator 2
	.loc 1 457 83 is_stmt 0 discriminator 2
	movs	r0, #1
	strb	r0, [lr, #68]
	.loc 1 457 7 is_stmt 1 discriminator 2
	.loc 1 460 5 discriminator 2
	.loc 1 460 18 is_stmt 0 discriminator 2
	movs	r0, #2
	strb	r0, [lr, #69]
	.loc 1 463 5 is_stmt 1 discriminator 2
	.loc 1 463 11 is_stmt 0 discriminator 2
	and	r0, r3, #1
.LVL56:
	.loc 1 466 5 is_stmt 1 discriminator 2
	b	.L39
.LVL57:
.L40:
	.loc 1 468 7 discriminator 3
	.loc 1 468 32 is_stmt 0 discriminator 3
	ldr	r4, [r1]
	.loc 1 468 18 discriminator 3
	strh	r4, [r2]	@ movhi
	.loc 1 469 7 is_stmt 1 discriminator 3
.LVL58:
	.loc 1 470 7 discriminator 3
	.loc 1 470 33 is_stmt 0 discriminator 3
	ldr	r4, [r1], #4
.LVL59:
	.loc 1 470 20 discriminator 3
	lsr	ip, r4, #16
	.loc 1 470 18 discriminator 3
	strh	ip, [r2, #2]	@ movhi
	.loc 1 471 7 is_stmt 1 discriminator 3
	.loc 1 471 16 is_stmt 0 discriminator 3
	adds	r2, r2, #4
.LVL60:
	.loc 1 472 7 is_stmt 1 discriminator 3
	.loc 1 466 49 discriminator 3
	subs	r3, r3, #2
.LVL61:
.L39:
	.loc 1 466 34 discriminator 1
	cmp	r0, r3
	bne	.L40
	.loc 1 476 5
	.loc 1 476 8 is_stmt 0
	cbz	r0, .L41
	.loc 1 478 7 is_stmt 1
	.loc 1 478 32 is_stmt 0
	ldr	r3, [r1]
.LVL62:
	.loc 1 478 18
	strh	r3, [r2]	@ movhi
.L41:
	.loc 1 482 5 is_stmt 1
	.loc 1 482 18 is_stmt 0
	strb	r5, [lr, #69]
	.loc 1 485 5 is_stmt 1
	.loc 1 485 9
	.loc 1 485 23 is_stmt 0
	movs	r0, #0
.LVL63:
	strb	r0, [lr, #68]
	.loc 1 485 7 is_stmt 1
	.loc 1 492 3
.LVL64:
.L38:
	.loc 1 493 1 is_stmt 0
	pop	{r4, r5, pc}
.LVL65:
.L42:
	.loc 1 489 12
	movs	r0, #1
.LVL66:
	b	.L38
.LVL67:
.L43:
	.loc 1 457 50
	movs	r0, #2
	b	.L38
	.cfi_endproc
.LFE343:
	.size	HAL_SRAM_Read_16b, .-HAL_SRAM_Read_16b
	.section	.text.HAL_SRAM_Write_16b,"ax",%progbits
	.align	1
	.global	HAL_SRAM_Write_16b
	.syntax unified
	.thumb
	.thumb_func
	.type	HAL_SRAM_Write_16b, %function
HAL_SRAM_Write_16b:
.LFB344:
	.loc 1 506 1 is_stmt 1
	.cfi_startproc
	@ args = 0, pretend = 0, frame = 0
	@ frame_needed = 0, uses_anonymous_args = 0
	@ link register save eliminated.
.LVL68:
	push	{r4, r5}
	.cfi_def_cfa_offset 8
	.cfi_offset 4, -8
	.cfi_offset 5, -4
	.loc 1 507 3
	.loc 1 508 3
.LVL69:
	.loc 1 509 3
	.loc 1 510 3
	.loc 1 513 3
	.loc 1 513 12 is_stmt 0
	ldrb	r4, [r0, #69]	@ zero_extendqisi2
	uxtb	r4, r4
	.loc 1 513 6
	cmp	r4, #1
	bne	.L50
	.loc 1 516 5 is_stmt 1
	.loc 1 516 9
	.loc 1 516 19 is_stmt 0
	ldrb	r4, [r0, #68]	@ zero_extendqisi2
	.loc 1 516 11
	cmp	r4, #1
	beq	.L51
	.loc 1 516 69 is_stmt 1 discriminator 2
	.loc 1 516 83 is_stmt 0 discriminator 2
	movs	r4, #1
	strb	r4, [r0, #68]
	.loc 1 516 7 is_stmt 1 discriminator 2
	.loc 1 519 5 discriminator 2
	.loc 1 519 18 is_stmt 0 discriminator 2
	movs	r4, #2
	strb	r4, [r0, #69]
	.loc 1 522 5 is_stmt 1 discriminator 2
	.loc 1 522 11 is_stmt 0 discriminator 2
	and	r5, r3, #1
.LVL70:
	.loc 1 525 5 is_stmt 1 discriminator 2
	b	.L47
.LVL71:
.L48:
	.loc 1 527 7 discriminator 3
	.loc 1 527 34 is_stmt 0 discriminator 3
	ldrh	r4, [r2]
	.loc 1 527 21 discriminator 3
	str	r4, [r1]
	.loc 1 528 7 is_stmt 1 discriminator 3
.LVL72:
	.loc 1 529 7 discriminator 3
	ldr	r4, [r1]
	.loc 1 529 36 is_stmt 0 discriminator 3
	ldrh	ip, [r2, #2]
	.loc 1 529 21 discriminator 3
	orr	r4, r4, ip, lsl #16
	str	r4, [r1], #4
.LVL73:
	.loc 1 530 7 is_stmt 1 discriminator 3
	.loc 1 530 15 is_stmt 0 discriminator 3
	adds	r2, r2, #4
.LVL74:
	.loc 1 531 7 is_stmt 1 discriminator 3
	.loc 1 525 49 discriminator 3
	subs	r3, r3, #2
.LVL75:
.L47:
	.loc 1 525 34 discriminator 1
	cmp	r5, r3
	bne	.L48
	.loc 1 535 5
	.loc 1 535 8 is_stmt 0
	cbz	r5, .L49
	.loc 1 537 7 is_stmt 1
	.loc 1 537 35 is_stmt 0
	ldrh	r3, [r2]
.LVL76:
	.loc 1 537 65
	ldr	r4, [r1]
	.loc 1 537 80
	ldr	r2, .L53
.LVL77:
	ands	r2, r2, r4
	.loc 1 537 61
	orrs	r3, r3, r2
	.loc 1 537 21
	str	r3, [r1]
.L49:
	.loc 1 541 5 is_stmt 1
	.loc 1 541 18 is_stmt 0
	movs	r3, #1
	strb	r3, [r0, #69]
	.loc 1 544 5 is_stmt 1
	.loc 1 544 9
	.loc 1 544 23 is_stmt 0
	movs	r3, #0
	strb	r3, [r0, #68]
	.loc 1 544 7 is_stmt 1
	.loc 1 551 3
	.loc 1 551 10 is_stmt 0
	mov	r0, r3
.LVL78:
	b	.L46
.LVL79:
.L50:
	.loc 1 548 12
	movs	r0, #1
.LVL80:
.L46:
	.loc 1 552 1
	pop	{r4, r5}
	.cfi_remember_state
	.cfi_restore 5
	.cfi_restore 4
	.cfi_def_cfa_offset 0
	bx	lr
.LVL81:
.L51:
	.cfi_restore_state
	.loc 1 516 50
	movs	r0, #2
.LVL82:
	b	.L46
.L54:
	.align	2
.L53:
	.word	-65536
	.cfi_endproc
.LFE344:
	.size	HAL_SRAM_Write_16b, .-HAL_SRAM_Write_16b
	.section	.text.HAL_SRAM_Read_32b,"ax",%progbits
	.align	1
	.global	HAL_SRAM_Read_32b
	.syntax unified
	.thumb
	.thumb_func
	.type	HAL_SRAM_Read_32b, %function
HAL_SRAM_Read_32b:
.LFB345:
	.loc 1 565 1 is_stmt 1
	.cfi_startproc
	@ args = 0, pretend = 0, frame = 0
	@ frame_needed = 0, uses_anonymous_args = 0
	@ link register save eliminated.
.LVL83:
	mov	ip, r0
	.loc 1 566 3
	.loc 1 567 3
.LVL84:
	.loc 1 568 3
	.loc 1 569 3
	.loc 1 569 25 is_stmt 0
	ldrb	r0, [r0, #69]	@ zero_extendqisi2
.LVL85:
	uxtb	r0, r0
.LVL86:
	.loc 1 572 3 is_stmt 1
	.loc 1 572 6 is_stmt 0
	cmp	r0, #4
	it	ne
	cmpne	r0, #1
	bne	.L59
	.loc 1 565 1
	push	{r4}
	.cfi_def_cfa_offset 4
	.cfi_offset 4, -4
	.loc 1 575 5 is_stmt 1
	.loc 1 575 9
	.loc 1 575 19 is_stmt 0
	ldrb	r4, [ip, #68]	@ zero_extendqisi2
	.loc 1 575 11
	cmp	r4, #1
	beq	.L60
	.loc 1 575 69 is_stmt 1 discriminator 2
	.loc 1 575 83 is_stmt 0 discriminator 2
	movs	r4, #1
	strb	r4, [ip, #68]
	.loc 1 575 7 is_stmt 1 discriminator 2
	.loc 1 578 5 discriminator 2
	.loc 1 578 18 is_stmt 0 discriminator 2
	movs	r4, #2
	strb	r4, [ip, #69]
	.loc 1 581 5 is_stmt 1 discriminator 2
.LVL87:
	b	.L57
.LVL88:
.L58:
	.loc 1 583 7 discriminator 3
	.loc 1 583 20 is_stmt 0 discriminator 3
	ldr	r4, [r1], #4
.LVL89:
	.loc 1 583 18 discriminator 3
	str	r4, [r2], #4
.LVL90:
	.loc 1 584 7 is_stmt 1 discriminator 3
	.loc 1 585 7 discriminator 3
	.loc 1 581 45 discriminator 3
	subs	r3, r3, #1
.LVL91:
.L57:
	.loc 1 581 34 discriminator 1
	cmp	r3, #0
	bne	.L58
	.loc 1 589 5
	.loc 1 589 18 is_stmt 0
	strb	r0, [ip, #69]
	.loc 1 592 5 is_stmt 1
	.loc 1 592 9
	.loc 1 592 23 is_stmt 0
	movs	r0, #0
.LVL92:
	strb	r0, [ip, #68]
	.loc 1 592 7 is_stmt 1
	.loc 1 599 3
.LVL93:
.L56:
	.loc 1 600 1 is_stmt 0
	ldr	r4, [sp], #4
	.cfi_restore 4
	.cfi_def_cfa_offset 0
	bx	lr
.LVL94:
.L59:
	.loc 1 596 12
	movs	r0, #1
.LVL95:
	.loc 1 600 1
	bx	lr
.LVL96:
.L60:
	.cfi_def_cfa_offset 4
	.cfi_offset 4, -4
	.loc 1 575 50
	movs	r0, #2
.LVL97:
	b	.L56
	.cfi_endproc
.LFE345:
	.size	HAL_SRAM_Read_32b, .-HAL_SRAM_Read_32b
	.section	.text.HAL_SRAM_Write_32b,"ax",%progbits
	.align	1
	.global	HAL_SRAM_Write_32b
	.syntax unified
	.thumb
	.thumb_func
	.type	HAL_SRAM_Write_32b, %function
HAL_SRAM_Write_32b:
.LFB346:
	.loc 1 613 1 is_stmt 1
	.cfi_startproc
	@ args = 0, pretend = 0, frame = 0
	@ frame_needed = 0, uses_anonymous_args = 0
	@ link register save eliminated.
.LVL98:
	push	{r4}
	.cfi_def_cfa_offset 4
	.cfi_offset 4, -4
	.loc 1 614 3
	.loc 1 615 3
.LVL99:
	.loc 1 616 3
	.loc 1 619 3
	.loc 1 619 12 is_stmt 0
	ldrb	r4, [r0, #69]	@ zero_extendqisi2
	uxtb	r4, r4
	.loc 1 619 6
	cmp	r4, #1
	bne	.L69
	.loc 1 622 5 is_stmt 1
	.loc 1 622 9
	.loc 1 622 19 is_stmt 0
	ldrb	r4, [r0, #68]	@ zero_extendqisi2
	.loc 1 622 11
	cmp	r4, #1
	beq	.L70
	.loc 1 622 69 is_stmt 1 discriminator 2
	.loc 1 622 83 is_stmt 0 discriminator 2
	movs	r4, #1
	strb	r4, [r0, #68]
	.loc 1 622 7 is_stmt 1 discriminator 2
	.loc 1 625 5 discriminator 2
	.loc 1 625 18 is_stmt 0 discriminator 2
	movs	r4, #2
	strb	r4, [r0, #69]
	.loc 1 628 5 is_stmt 1 discriminator 2
.LVL100:
	b	.L67
.LVL101:
.L68:
	.loc 1 630 7 discriminator 3
	.loc 1 630 23 is_stmt 0 discriminator 3
	ldr	r4, [r2], #4
.LVL102:
	.loc 1 630 21 discriminator 3
	str	r4, [r1], #4
.LVL103:
	.loc 1 631 7 is_stmt 1 discriminator 3
	.loc 1 632 7 discriminator 3
	.loc 1 628 45 discriminator 3
	subs	r3, r3, #1
.LVL104:
.L67:
	.loc 1 628 34 discriminator 1
	cmp	r3, #0
	bne	.L68
	.loc 1 636 5
	.loc 1 636 18 is_stmt 0
	movs	r3, #1
.LVL105:
	strb	r3, [r0, #69]
	.loc 1 639 5 is_stmt 1
	.loc 1 639 9
	.loc 1 639 23 is_stmt 0
	movs	r3, #0
	strb	r3, [r0, #68]
	.loc 1 639 7 is_stmt 1
	.loc 1 646 3
	.loc 1 646 10 is_stmt 0
	mov	r0, r3
.LVL106:
	b	.L66
.LVL107:
.L69:
	.loc 1 643 12
	movs	r0, #1
.LVL108:
.L66:
	.loc 1 647 1
	ldr	r4, [sp], #4
	.cfi_remember_state
	.cfi_restore 4
	.cfi_def_cfa_offset 0
	bx	lr
.LVL109:
.L70:
	.cfi_restore_state
	.loc 1 622 50
	movs	r0, #2
.LVL110:
	b	.L66
	.cfi_endproc
.LFE346:
	.size	HAL_SRAM_Write_32b, .-HAL_SRAM_Write_32b
	.section	.text.HAL_SRAM_Read_DMA,"ax",%progbits
	.align	1
	.global	HAL_SRAM_Read_DMA
	.syntax unified
	.thumb
	.thumb_func
	.type	HAL_SRAM_Read_DMA, %function
HAL_SRAM_Read_DMA:
.LFB347:
	.loc 1 660 1 is_stmt 1
	.cfi_startproc
	@ args = 0, pretend = 0, frame = 0
	@ frame_needed = 0, uses_anonymous_args = 0
.LVL111:
	push	{r4, r5, lr}
	.cfi_def_cfa_offset 12
	.cfi_offset 4, -12
	.cfi_offset 5, -8
	.cfi_offset 14, -4
	sub	sp, sp, #12
	.cfi_def_cfa_offset 24
	mov	r4, r0
	.loc 1 661 3
	.loc 1 662 3
	.loc 1 662 25 is_stmt 0
	ldrb	r0, [r0, #69]	@ zero_extendqisi2
.LVL112:
	uxtb	r0, r0
.LVL113:
	.loc 1 665 3 is_stmt 1
	.loc 1 665 6 is_stmt 0
	cmp	r0, #4
	it	ne
	cmpne	r0, #1
	bne	.L76
	.loc 1 668 5 is_stmt 1
	.loc 1 668 9
	.loc 1 668 19 is_stmt 0
	ldrb	ip, [r4, #68]	@ zero_extendqisi2
	.loc 1 668 11
	cmp	ip, #1
	beq	.L77
	.loc 1 668 69 is_stmt 1 discriminator 2
	.loc 1 668 83 is_stmt 0 discriminator 2
	movs	r5, #1
	strb	r5, [r4, #68]
	.loc 1 668 7 is_stmt 1 discriminator 2
	.loc 1 671 5 discriminator 2
	.loc 1 671 18 is_stmt 0 discriminator 2
	movs	r5, #2
	strb	r5, [r4, #69]
	.loc 1 674 5 is_stmt 1 discriminator 2
	.loc 1 674 8 is_stmt 0 discriminator 2
	cmp	r0, #1
	beq	.L79
	.loc 1 680 7 is_stmt 1
	.loc 1 680 12 is_stmt 0
	ldr	r0, [r4, #72]
.LVL114:
	.loc 1 680 38
	ldr	r5, .L80
	str	r5, [r0, #68]
.L75:
	.loc 1 682 5 is_stmt 1
	.loc 1 682 10 is_stmt 0
	ldr	r0, [r4, #72]
	.loc 1 682 37
	ldr	r5, .L80+4
	str	r5, [r0, #84]
	.loc 1 685 5 is_stmt 1
	.loc 1 685 14 is_stmt 0
	movs	r0, #1
	str	r0, [sp]
	lsls	r3, r3, #2
.LVL115:
	ldr	r0, [r4, #72]
	bl	HAL_MDMA_Start_IT
.LVL116:
	.loc 1 688 5 is_stmt 1
	.loc 1 688 9
	.loc 1 688 23 is_stmt 0
	movs	r3, #0
	strb	r3, [r4, #68]
	.loc 1 688 7 is_stmt 1
	b	.L73
.LVL117:
.L79:
	.loc 1 676 7
	.loc 1 676 12 is_stmt 0
	ldr	r0, [r4, #72]
.LVL118:
	.loc 1 676 38
	ldr	r5, .L80+8
	str	r5, [r0, #68]
	b	.L75
.LVL119:
.L76:
	.loc 1 692 12
	movs	r0, #1
.LVL120:
.L73:
	.loc 1 696 1
	add	sp, sp, #12
	.cfi_remember_state
	.cfi_def_cfa_offset 12
	@ sp needed
	pop	{r4, r5, pc}
.LVL121:
.L77:
	.cfi_restore_state
	.loc 1 668 50
	movs	r0, #2
.LVL122:
	b	.L73
.L81:
	.align	2
.L80:
	.word	SRAM_DMACpltProt
	.word	SRAM_DMAError
	.word	SRAM_DMACplt
	.cfi_endproc
.LFE347:
	.size	HAL_SRAM_Read_DMA, .-HAL_SRAM_Read_DMA
	.section	.text.HAL_SRAM_Write_DMA,"ax",%progbits
	.align	1
	.global	HAL_SRAM_Write_DMA
	.syntax unified
	.thumb
	.thumb_func
	.type	HAL_SRAM_Write_DMA, %function
HAL_SRAM_Write_DMA:
.LFB348:
	.loc 1 709 1 is_stmt 1
	.cfi_startproc
	@ args = 0, pretend = 0, frame = 0
	@ frame_needed = 0, uses_anonymous_args = 0
.LVL123:
	push	{r4, r5, lr}
	.cfi_def_cfa_offset 12
	.cfi_offset 4, -12
	.cfi_offset 5, -8
	.cfi_offset 14, -4
	sub	sp, sp, #12
	.cfi_def_cfa_offset 24
	mov	r4, r0
	.loc 1 710 3
	.loc 1 713 3
	.loc 1 713 12 is_stmt 0
	ldrb	r0, [r0, #69]	@ zero_extendqisi2
.LVL124:
	uxtb	r0, r0
	.loc 1 713 6
	cmp	r0, #1
	beq	.L87
	.loc 1 733 12
	movs	r0, #1
.LVL125:
.L83:
	.loc 1 737 1
	add	sp, sp, #12
	.cfi_remember_state
	.cfi_def_cfa_offset 12
	@ sp needed
	pop	{r4, r5, pc}
.LVL126:
.L87:
	.cfi_restore_state
	mov	ip, r1
	mov	r1, r2
.LVL127:
	.loc 1 716 5 is_stmt 1
	.loc 1 716 9
	.loc 1 716 19 is_stmt 0
	ldrb	r2, [r4, #68]	@ zero_extendqisi2
.LVL128:
	.loc 1 716 11
	cmp	r2, #1
	beq	.L85
	.loc 1 716 69 is_stmt 1 discriminator 2
	.loc 1 716 83 is_stmt 0 discriminator 2
	movs	r2, #1
	strb	r2, [r4, #68]
	.loc 1 716 7 is_stmt 1 discriminator 2
	.loc 1 719 5 discriminator 2
	.loc 1 719 18 is_stmt 0 discriminator 2
	movs	r0, #2
	strb	r0, [r4, #69]
	.loc 1 722 5 is_stmt 1 discriminator 2
	.loc 1 722 10 is_stmt 0 discriminator 2
	ldr	r0, [r4, #72]
	.loc 1 722 36 discriminator 2
	ldr	r5, .L88
	str	r5, [r0, #68]
	.loc 1 723 5 is_stmt 1 discriminator 2
	.loc 1 723 10 is_stmt 0 discriminator 2
	ldr	r0, [r4, #72]
	.loc 1 723 37 discriminator 2
	ldr	r5, .L88+4
	str	r5, [r0, #84]
	.loc 1 726 5 is_stmt 1 discriminator 2
	.loc 1 726 14 is_stmt 0 discriminator 2
	str	r2, [sp]
	lsls	r3, r3, #2
.LVL129:
	mov	r2, ip
	ldr	r0, [r4, #72]
	bl	HAL_MDMA_Start_IT
.LVL130:
	.loc 1 729 5 is_stmt 1 discriminator 2
	.loc 1 729 9 discriminator 2
	.loc 1 729 23 is_stmt 0 discriminator 2
	movs	r3, #0
	strb	r3, [r4, #68]
	.loc 1 729 7 is_stmt 1 discriminator 2
	b	.L83
.LVL131:
.L85:
	.loc 1 716 50 is_stmt 0
	movs	r0, #2
	b	.L83
.L89:
	.align	2
.L88:
	.word	SRAM_DMACplt
	.word	SRAM_DMAError
	.cfi_endproc
.LFE348:
	.size	HAL_SRAM_Write_DMA, .-HAL_SRAM_Write_DMA
	.section	.text.HAL_SRAM_WriteOperation_Enable,"ax",%progbits
	.align	1
	.global	HAL_SRAM_WriteOperation_Enable
	.syntax unified
	.thumb
	.thumb_func
	.type	HAL_SRAM_WriteOperation_Enable, %function
HAL_SRAM_WriteOperation_Enable:
.LFB349:
	.loc 1 933 1 is_stmt 1
	.cfi_startproc
	@ args = 0, pretend = 0, frame = 0
	@ frame_needed = 0, uses_anonymous_args = 0
.LVL132:
	push	{r3, r4, r5, lr}
	.cfi_def_cfa_offset 16
	.cfi_offset 3, -16
	.cfi_offset 4, -12
	.cfi_offset 5, -8
	.cfi_offset 14, -4
	.loc 1 935 3
	.loc 1 935 12 is_stmt 0
	ldrb	r3, [r0, #69]	@ zero_extendqisi2
	uxtb	r3, r3
	.loc 1 935 6
	cmp	r3, #4
	bne	.L92
	mov	r4, r0
	.loc 1 938 5 is_stmt 1
	.loc 1 938 9
	.loc 1 938 19 is_stmt 0
	ldrb	r3, [r0, #68]	@ zero_extendqisi2
	.loc 1 938 11
	cmp	r3, #1
	beq	.L93
	.loc 1 938 69 is_stmt 1 discriminator 2
	.loc 1 938 83 is_stmt 0 discriminator 2
	movs	r5, #1
	strb	r5, [r0, #68]
	.loc 1 938 7 is_stmt 1 discriminator 2
	.loc 1 941 5 discriminator 2
	.loc 1 941 18 is_stmt 0 discriminator 2
	movs	r3, #2
	strb	r3, [r0, #69]
	.loc 1 944 5 is_stmt 1 discriminator 2
	.loc 1 944 11 is_stmt 0 discriminator 2
	ldr	r1, [r0, #8]
	ldr	r0, [r0]
.LVL133:
	bl	FMC_NORSRAM_WriteOperation_Enable
.LVL134:
	.loc 1 947 5 is_stmt 1 discriminator 2
	.loc 1 947 18 is_stmt 0 discriminator 2
	strb	r5, [r4, #69]
	.loc 1 950 5 is_stmt 1 discriminator 2
	.loc 1 950 9 discriminator 2
	.loc 1 950 23 is_stmt 0 discriminator 2
	movs	r0, #0
	strb	r0, [r4, #68]
	.loc 1 950 7 is_stmt 1 discriminator 2
	.loc 1 957 3 discriminator 2
	.loc 1 957 10 is_stmt 0 discriminator 2
	b	.L91
.LVL135:
.L92:
	.loc 1 954 12
	movs	r0, #1
.LVL136:
.L91:
	.loc 1 958 1
	pop	{r3, r4, r5, pc}
.LVL137:
.L93:
	.loc 1 938 50
	movs	r0, #2
.LVL138:
	b	.L91
	.cfi_endproc
.LFE349:
	.size	HAL_SRAM_WriteOperation_Enable, .-HAL_SRAM_WriteOperation_Enable
	.section	.text.HAL_SRAM_WriteOperation_Disable,"ax",%progbits
	.align	1
	.global	HAL_SRAM_WriteOperation_Disable
	.syntax unified
	.thumb
	.thumb_func
	.type	HAL_SRAM_WriteOperation_Disable, %function
HAL_SRAM_WriteOperation_Disable:
.LFB350:
	.loc 1 967 1 is_stmt 1
	.cfi_startproc
	@ args = 0, pretend = 0, frame = 0
	@ frame_needed = 0, uses_anonymous_args = 0
.LVL139:
	.loc 1 969 3
	.loc 1 969 12 is_stmt 0
	ldrb	r3, [r0, #69]	@ zero_extendqisi2
	uxtb	r3, r3
	.loc 1 969 6
	cmp	r3, #1
	bne	.L97
	.loc 1 967 1
	push	{r4, lr}
	.cfi_def_cfa_offset 8
	.cfi_offset 4, -8
	.cfi_offset 14, -4
	mov	r4, r0
	.loc 1 972 5 is_stmt 1
	.loc 1 972 9
	.loc 1 972 19 is_stmt 0
	ldrb	r3, [r0, #68]	@ zero_extendqisi2
	.loc 1 972 11
	cmp	r3, #1
	beq	.L98
	.loc 1 972 69 is_stmt 1 discriminator 2
	.loc 1 972 83 is_stmt 0 discriminator 2
	movs	r3, #1
	strb	r3, [r0, #68]
	.loc 1 972 7 is_stmt 1 discriminator 2
	.loc 1 975 5 discriminator 2
	.loc 1 975 18 is_stmt 0 discriminator 2
	movs	r3, #2
	strb	r3, [r0, #69]
	.loc 1 978 5 is_stmt 1 discriminator 2
	.loc 1 978 11 is_stmt 0 discriminator 2
	ldr	r1, [r0, #8]
	ldr	r0, [r0]
.LVL140:
	bl	FMC_NORSRAM_WriteOperation_Disable
.LVL141:
	.loc 1 981 5 is_stmt 1 discriminator 2
	.loc 1 981 18 is_stmt 0 discriminator 2
	movs	r3, #4
	strb	r3, [r4, #69]
	.loc 1 984 5 is_stmt 1 discriminator 2
	.loc 1 984 9 discriminator 2
	.loc 1 984 23 is_stmt 0 discriminator 2
	movs	r0, #0
	strb	r0, [r4, #68]
	.loc 1 984 7 is_stmt 1 discriminator 2
	.loc 1 991 3 discriminator 2
.L96:
	.loc 1 992 1 is_stmt 0
	pop	{r4, pc}
.LVL142:
.L97:
	.cfi_def_cfa_offset 0
	.cfi_restore 4
	.cfi_restore 14
	.loc 1 988 12
	movs	r0, #1
.LVL143:
	.loc 1 992 1
	bx	lr
.LVL144:
.L98:
	.cfi_def_cfa_offset 8
	.cfi_offset 4, -8
	.cfi_offset 14, -4
	.loc 1 972 50
	movs	r0, #2
.LVL145:
	b	.L96
	.cfi_endproc
.LFE350:
	.size	HAL_SRAM_WriteOperation_Disable, .-HAL_SRAM_WriteOperation_Disable
	.section	.text.HAL_SRAM_GetState,"ax",%progbits
	.align	1
	.global	HAL_SRAM_GetState
	.syntax unified
	.thumb
	.thumb_func
	.type	HAL_SRAM_GetState, %function
HAL_SRAM_GetState:
.LFB351:
	.loc 1 1020 1 is_stmt 1
	.cfi_startproc
	@ args = 0, pretend = 0, frame = 0
	@ frame_needed = 0, uses_anonymous_args = 0
	@ link register save eliminated.
.LVL146:
	.loc 1 1021 3
	.loc 1 1021 15 is_stmt 0
	ldrb	r0, [r0, #69]	@ zero_extendqisi2
.LVL147:
	.loc 1 1022 1
	bx	lr
	.cfi_endproc
.LFE351:
	.size	HAL_SRAM_GetState, .-HAL_SRAM_GetState
	.text
.Letext0:
	.file 2 "m:\\noinstall\\arm-gnu-toolchain-12.2.rel1-mingw-w64-i686-arm-none-eabi\\arm-none-eabi\\include\\machine\\_default_types.h"
	.file 3 "m:\\noinstall\\arm-gnu-toolchain-12.2.rel1-mingw-w64-i686-arm-none-eabi\\arm-none-eabi\\include\\sys\\_stdint.h"
	.file 4 "D:/RTOS/Board/YD-STM32H7xxVx_ClassicV19/cmake-build-debug/_deps/stm32h7xx_cmsis_device-src/Include/stm32h743xx.h"
	.file 5 "D:/RTOS/Board/YD-STM32H7xxVx_ClassicV19/cmake-build-debug/_deps/stm32h7xx_hal_driver-src/Inc/stm32h7xx_hal_def.h"
	.file 6 "D:/RTOS/Board/YD-STM32H7xxVx_ClassicV19/cmake-build-debug/_deps/stm32h7xx_hal_driver-src/Inc/stm32h7xx_hal_mdma.h"
	.file 7 "D:/RTOS/Board/YD-STM32H7xxVx_ClassicV19/cmake-build-debug/_deps/stm32h7xx_hal_driver-src/Inc/stm32h7xx_ll_fmc.h"
	.file 8 "D:/RTOS/Board/YD-STM32H7xxVx_ClassicV19/cmake-build-debug/_deps/stm32h7xx_hal_driver-src/Inc/stm32h7xx_hal_sram.h"