	.cpu cortex-m7
	.arch armv7e-m
	.fpu fpv5-d16
	.eabi_attribute 28, 1
	.eabi_attribute 20, 1
	.eabi_attribute 21, 1
	.eabi_attribute 23, 3
	.eabi_attribute 24, 1
	.eabi_attribute 25, 1
	.eabi_attribute 26, 1
	.eabi_attribute 30, 1
	.eabi_attribute 34, 1
	.eabi_attribute 18, 4
	.file	"stm32h7xx_hal_rcc_ex.c"
	.text
.Ltext0:
	.cfi_sections	.debug_frame
	.file 1 "D:/RTOS/Board/YD-STM32H7xxVx_ClassicV19/cmake-build-debug/_deps/stm32h7xx_hal_driver-src/Src/stm32h7xx_hal_rcc_ex.c"
	.section	.text.RCCEx_PLL2_Config,"ax",%progbits
	.align	1
	.syntax unified
	.thumb
	.thumb_func
	.type	RCCEx_PLL2_Config, %function
RCCEx_PLL2_Config:
.LFB359:
	.loc 1 3694 1
	.cfi_startproc
	@ args = 0, pretend = 0, frame = 0
	@ frame_needed = 0, uses_anonymous_args = 0
.LVL0:
	.loc 1 3696 3
	.loc 1 3697 3
	.loc 1 3698 3
	.loc 1 3699 3
	.loc 1 3700 3
	.loc 1 3701 3
	.loc 1 3702 3
	.loc 1 3703 3
	.loc 1 3704 3
	.loc 1 3705 3
	.loc 1 3708 3
	.loc 1 3708 81 is_stmt 0
	ldr	r3, .L20
	ldr	r3, [r3, #40]
	.loc 1 3708 8
	and	r3, r3, #3
	.loc 1 3708 6
	cmp	r3, #3
	beq	.L10
	.loc 1 3694 1
	push	{r4, r5, r6, lr}
	.cfi_def_cfa_offset 16
	.cfi_offset 4, -16
	.cfi_offset 5, -12
	.cfi_offset 6, -8
	.cfi_offset 14, -4
	mov	r5, r0
	mov	r6, r1
	.loc 1 3717 5 is_stmt 1
	.loc 1 3717 69 is_stmt 0
	ldr	r2, .L20
	ldr	r3, [r2]
	.loc 1 3717 75
	bic	r3, r3, #67108864
	str	r3, [r2]
	.loc 1 3720 5 is_stmt 1
	.loc 1 3720 17 is_stmt 0
	bl	HAL_GetTick
.LVL1:
	mov	r4, r0
.LVL2:
	.loc 1 3723 5 is_stmt 1
.L3:
	.loc 1 3723 577
	.loc 1 3723 113 is_stmt 0
	ldr	r3, .L20
	ldr	r3, [r3]
	.loc 1 3723 577
	tst	r3, #134217728
	beq	.L17
	.loc 1 3725 7 is_stmt 1
	.loc 1 3725 12 is_stmt 0
	bl	HAL_GetTick
.LVL3:
	.loc 1 3725 26
	subs	r3, r0, r4
	.loc 1 3725 10
	cmp	r3, #2
	bls	.L3
	.loc 1 3727 16
	movs	r0, #3
.L2:
	.loc 1 3786 1
	pop	{r4, r5, r6, pc}
.LVL4:
.L17:
	.loc 1 3732 5 is_stmt 1
	.loc 1 3732 9
	.loc 1 3732 158 is_stmt 0
	ldr	r3, .L20
	ldr	r2, [r3, #40]
	.loc 1 3732 173
	bic	r2, r2, #258048
	.loc 1 3732 212
	ldr	r1, [r5]
	.loc 1 3732 202
	orr	r2, r2, r1, lsl #12
	.loc 1 3732 88
	str	r2, [r3, #40]
	.loc 1 3732 233 is_stmt 1
	.loc 1 3732 321 is_stmt 0
	ldr	r2, [r5, #4]
	.loc 1 3732 330
	subs	r2, r2, #1
	.loc 1 3732 337
	ubfx	r2, r2, #0, #9
	.loc 1 3732 368
	ldr	r1, [r5, #8]
	.loc 1 3732 377
	subs	r1, r1, #1
	.loc 1 3732 383
	lsls	r1, r1, #9
	.loc 1 3732 390
	uxth	r1, r1
	.loc 1 3732 358
	orrs	r2, r2, r1
	.loc 1 3732 420
	ldr	r1, [r5, #12]
	.loc 1 3732 429
	subs	r1, r1, #1
	.loc 1 3732 434
	lsls	r1, r1, #16
	.loc 1 3732 442
	and	r1, r1, #8323072
	.loc 1 3732 410
	orrs	r2, r2, r1
	.loc 1 3732 473
	ldr	r1, [r5, #16]
	.loc 1 3732 481
	subs	r1, r1, #1
	.loc 1 3732 487
	lsls	r1, r1, #24
	.loc 1 3732 495
	and	r1, r1, #2130706432
	.loc 1 3732 463
	orrs	r2, r2, r1
	.loc 1 3732 309
	str	r2, [r3, #56]
	.loc 1 3732 7 is_stmt 1
	.loc 1 3739 5
	.loc 1 3739 152 is_stmt 0
	ldr	r2, [r3, #44]
	.loc 1 3739 165
	bic	r2, r2, #192
	.loc 1 3739 197
	ldr	r1, [r5, #20]
	.loc 1 3739 189
	orrs	r2, r2, r1
	.loc 1 3739 82
	str	r2, [r3, #44]
	.loc 1 3742 5 is_stmt 1
	.loc 1 3742 152 is_stmt 0
	ldr	r2, [r3, #44]
	.loc 1 3742 165
	bic	r2, r2, #32
	.loc 1 3742 197
	ldr	r1, [r5, #24]
	.loc 1 3742 189
	orrs	r2, r2, r1
	.loc 1 3742 82
	str	r2, [r3, #44]
	.loc 1 3745 5 is_stmt 1
	.loc 1 3745 69 is_stmt 0
	ldr	r2, [r3, #44]
	.loc 1 3745 80
	bic	r2, r2, #16
	str	r2, [r3, #44]
	.loc 1 3748 5 is_stmt 1
	.loc 1 3748 154 is_stmt 0
	ldr	r1, [r3, #60]
	.loc 1 3748 169
	ldr	r2, .L20+4
	ands	r2, r2, r1
	.loc 1 3748 215
	ldr	r1, [r5, #28]
	.loc 1 3748 196
	orr	r2, r2, r1, lsl #3
	.loc 1 3748 84
	str	r2, [r3, #60]
	.loc 1 3751 5 is_stmt 1
	.loc 1 3751 69 is_stmt 0
	ldr	r2, [r3, #44]
	.loc 1 3751 80
	orr	r2, r2, #16
	str	r2, [r3, #44]
	.loc 1 3754 5 is_stmt 1
	.loc 1 3754 8 is_stmt 0
	cbnz	r6, .L5
	.loc 1 3756 7 is_stmt 1
	.loc 1 3756 71 is_stmt 0
	mov	r2, r3
	ldr	r3, [r3, #44]
	.loc 1 3756 82
	orr	r3, r3, #524288
	str	r3, [r2, #44]
.L6:
	.loc 1 3768 5 is_stmt 1
	.loc 1 3768 69 is_stmt 0
	ldr	r2, .L20
	ldr	r3, [r2]
	.loc 1 3768 75
	orr	r3, r3, #67108864
	str	r3, [r2]
	.loc 1 3771 5 is_stmt 1
	.loc 1 3771 17 is_stmt 0
	bl	HAL_GetTick
.LVL5:
	mov	r4, r0
.LVL6:
	.loc 1 3774 5 is_stmt 1
.L8:
	.loc 1 3774 577
	.loc 1 3774 113 is_stmt 0
	ldr	r3, .L20
	ldr	r3, [r3]
	.loc 1 3774 577
	tst	r3, #134217728
	bne	.L18
	.loc 1 3776 7 is_stmt 1
	.loc 1 3776 12 is_stmt 0
	bl	HAL_GetTick
.LVL7:
	.loc 1 3776 26
	subs	r0, r0, r4
	.loc 1 3776 10
	cmp	r0, #2
	bls	.L8
	.loc 1 3778 16
	movs	r0, #3
	b	.L2
.L5:
	.loc 1 3758 10 is_stmt 1
	.loc 1 3758 13 is_stmt 0
	cmp	r6, #1
	beq	.L19
	.loc 1 3764 7 is_stmt 1
	.loc 1 3764 71 is_stmt 0
	ldr	r2, .L20
	ldr	r3, [r2, #44]
	.loc 1 3764 82
	orr	r3, r3, #2097152
	str	r3, [r2, #44]
	b	.L6
.L19:
	.loc 1 3760 7 is_stmt 1
	.loc 1 3760 71 is_stmt 0
	ldr	r2, .L20
	ldr	r3, [r2, #44]
	.loc 1 3760 82
	orr	r3, r3, #1048576
	str	r3, [r2, #44]
	b	.L6
.L18:
	.loc 1 3785 10
	movs	r0, #0
	b	.L2
.LVL8:
.L10:
	.cfi_def_cfa_offset 0
	.cfi_restore 4
	.cfi_restore 5
	.cfi_restore 6
	.cfi_restore 14
	.loc 1 3710 12
	movs	r0, #1
.LVL9:
	.loc 1 3786 1
	bx	lr
.L21:
	.align	2
.L20:
	.word	1476543488
	.word	-65529
	.cfi_endproc
.LFE359:
	.size	RCCEx_PLL2_Config, .-RCCEx_PLL2_Config
	.section	.text.RCCEx_PLL3_Config,"ax",%progbits
	.align	1
	.syntax unified
	.thumb
	.thumb_func
	.type	RCCEx_PLL3_Config, %function
RCCEx_PLL3_Config:
.LFB360:
	.loc 1 3799 1 is_stmt 1
	.cfi_startproc
	@ args = 0, pretend = 0, frame = 0
	@ frame_needed = 0, uses_anonymous_args = 0
.LVL10:
	.loc 1 3800 3
	.loc 1 3801 3
	.loc 1 3802 3
	.loc 1 3803 3
	.loc 1 3804 3
	.loc 1 3805 3
	.loc 1 3806 3
	.loc 1 3807 3
	.loc 1 3808 3
	.loc 1 3809 3
	.loc 1 3812 3
	.loc 1 3812 81 is_stmt 0
	ldr	r3, .L41
	ldr	r3, [r3, #40]
	.loc 1 3812 8
	and	r3, r3, #3
	.loc 1 3812 6
	cmp	r3, #3
	beq	.L31
	.loc 1 3799 1
	push	{r4, r5, r6, lr}
	.cfi_def_cfa_offset 16
	.cfi_offset 4, -16
	.cfi_offset 5, -12
	.cfi_offset 6, -8
	.cfi_offset 14, -4
	mov	r5, r0
	mov	r6, r1
	.loc 1 3821 5 is_stmt 1
	.loc 1 3821 69 is_stmt 0
	ldr	r2, .L41
	ldr	r3, [r2]
	.loc 1 3821 75
	bic	r3, r3, #268435456
	str	r3, [r2]
	.loc 1 3824 5 is_stmt 1
	.loc 1 3824 17 is_stmt 0
	bl	HAL_GetTick
.LVL11:
	mov	r4, r0
.LVL12:
	.loc 1 3826 5 is_stmt 1
.L24:
	.loc 1 3826 577
	.loc 1 3826 113 is_stmt 0
	ldr	r3, .L41
	ldr	r3, [r3]
	.loc 1 3826 577
	tst	r3, #536870912
	beq	.L38
	.loc 1 3828 7 is_stmt 1
	.loc 1 3828 12 is_stmt 0
	bl	HAL_GetTick
.LVL13:
	.loc 1 3828 26
	subs	r3, r0, r4
	.loc 1 3828 10
	cmp	r3, #2
	bls	.L24
	.loc 1 3830 16
	movs	r0, #3
.L23:
	.loc 1 3889 1
	pop	{r4, r5, r6, pc}
.LVL14:
.L38:
	.loc 1 3835 5 is_stmt 1
	.loc 1 3835 9
	.loc 1 3835 158 is_stmt 0
	ldr	r3, .L41
	ldr	r2, [r3, #40]
	.loc 1 3835 173
	bic	r2, r2, #66060288
	.loc 1 3835 212
	ldr	r1, [r5]
	.loc 1 3835 202
	orr	r2, r2, r1, lsl #20
	.loc 1 3835 88
	str	r2, [r3, #40]
	.loc 1 3835 233 is_stmt 1
	.loc 1 3835 321 is_stmt 0
	ldr	r2, [r5, #4]
	.loc 1 3835 330
	subs	r2, r2, #1
	.loc 1 3835 337
	ubfx	r2, r2, #0, #9
	.loc 1 3835 368
	ldr	r1, [r5, #8]
	.loc 1 3835 377
	subs	r1, r1, #1
	.loc 1 3835 383
	lsls	r1, r1, #9
	.loc 1 3835 390
	uxth	r1, r1
	.loc 1 3835 358
	orrs	r2, r2, r1
	.loc 1 3835 420
	ldr	r1, [r5, #12]
	.loc 1 3835 429
	subs	r1, r1, #1
	.loc 1 3835 434
	lsls	r1, r1, #16
	.loc 1 3835 442
	and	r1, r1, #8323072
	.loc 1 3835 410
	orrs	r2, r2, r1
	.loc 1 3835 473
	ldr	r1, [r5, #16]
	.loc 1 3835 482
	subs	r1, r1, #1
	.loc 1 3835 488
	lsls	r1, r1, #24
	.loc 1 3835 496
	and	r1, r1, #2130706432
	.loc 1 3835 463
	orrs	r2, r2, r1
	.loc 1 3835 309
	str	r2, [r3, #64]
	.loc 1 3835 7 is_stmt 1
	.loc 1 3842 5
	.loc 1 3842 152 is_stmt 0
	ldr	r2, [r3, #44]
	.loc 1 3842 165
	bic	r2, r2, #3072
	.loc 1 3842 198
	ldr	r1, [r5, #20]
	.loc 1 3842 190
	orrs	r2, r2, r1
	.loc 1 3842 82
	str	r2, [r3, #44]
	.loc 1 3845 5 is_stmt 1
	.loc 1 3845 152 is_stmt 0
	ldr	r2, [r3, #44]
	.loc 1 3845 165
	bic	r2, r2, #512
	.loc 1 3845 197
	ldr	r1, [r5, #24]
	.loc 1 3845 189
	orrs	r2, r2, r1
	.loc 1 3845 82
	str	r2, [r3, #44]
	.loc 1 3848 5 is_stmt 1
	.loc 1 3848 69 is_stmt 0
	ldr	r2, [r3, #44]
	.loc 1 3848 80
	bic	r2, r2, #256
	str	r2, [r3, #44]
	.loc 1 3851 5 is_stmt 1
	.loc 1 3851 154 is_stmt 0
	ldr	r1, [r3, #68]
	.loc 1 3851 169
	ldr	r2, .L41+4
	ands	r2, r2, r1
	.loc 1 3851 214
	ldr	r1, [r5, #28]
	.loc 1 3851 196
	orr	r2, r2, r1, lsl #3
	.loc 1 3851 84
	str	r2, [r3, #68]
	.loc 1 3854 5 is_stmt 1
	.loc 1 3854 69 is_stmt 0
	ldr	r2, [r3, #44]
	.loc 1 3854 80
	orr	r2, r2, #256
	str	r2, [r3, #44]
	.loc 1 3857 5 is_stmt 1
	.loc 1 3857 8 is_stmt 0
	cbnz	r6, .L26
	.loc 1 3859 7 is_stmt 1
	.loc 1 3859 71 is_stmt 0
	mov	r2, r3
	ldr	r3, [r3, #44]
	.loc 1 3859 82
	orr	r3, r3, #4194304
	str	r3, [r2, #44]
.L27:
	.loc 1 3871 5 is_stmt 1
	.loc 1 3871 69 is_stmt 0
	ldr	r2, .L41
	ldr	r3, [r2]
	.loc 1 3871 75
	orr	r3, r3, #268435456
	str	r3, [r2]
	.loc 1 3874 5 is_stmt 1
	.loc 1 3874 17 is_stmt 0
	bl	HAL_GetTick
.LVL15:
	mov	r4, r0
.LVL16:
	.loc 1 3877 5 is_stmt 1
.L29:
	.loc 1 3877 577
	.loc 1 3877 113 is_stmt 0
	ldr	r3, .L41
	ldr	r3, [r3]
	.loc 1 3877 577
	tst	r3, #536870912
	bne	.L39
	.loc 1 3879 7 is_stmt 1
	.loc 1 3879 12 is_stmt 0
	bl	HAL_GetTick
.LVL17:
	.loc 1 3879 26
	subs	r0, r0, r4
	.loc 1 3879 10
	cmp	r0, #2
	bls	.L29
	.loc 1 3881 16
	movs	r0, #3
	b	.L23
.L26:
	.loc 1 3861 10 is_stmt 1
	.loc 1 3861 13 is_stmt 0
	cmp	r6, #1
	beq	.L40
	.loc 1 3867 7 is_stmt 1
	.loc 1 3867 71 is_stmt 0
	ldr	r2, .L41
	ldr	r3, [r2, #44]
	.loc 1 3867 82
	orr	r3, r3, #16777216
	str	r3, [r2, #44]
	b	.L27
.L40:
	.loc 1 3863 7 is_stmt 1
	.loc 1 3863 71 is_stmt 0
	ldr	r2, .L41
	ldr	r3, [r2, #44]
	.loc 1 3863 82
	orr	r3, r3, #8388608
	str	r3, [r2, #44]
	b	.L27
.L39:
	.loc 1 3888 10
	movs	r0, #0
	b	.L23
.LVL18:
.L31:
	.cfi_def_cfa_offset 0
	.cfi_restore 4
	.cfi_restore 5
	.cfi_restore 6
	.cfi_restore 14
	.loc 1 3814 12
	movs	r0, #1
.LVL19:
	.loc 1 3889 1
	bx	lr
.L42:
	.align	2
.L41:
	.word	1476543488
	.word	-65529
	.cfi_endproc
.LFE360:
	.size	RCCEx_PLL3_Config, .-RCCEx_PLL3_Config
	.section	.text.HAL_RCCEx_PeriphCLKConfig,"ax",%progbits
	.align	1
	.global	HAL_RCCEx_PeriphCLKConfig
	.syntax unified
	.thumb
	.thumb_func
	.type	HAL_RCCEx_PeriphCLKConfig, %function
HAL_RCCEx_PeriphCLKConfig:
.LFB335:
	.loc 1 106 1 is_stmt 1
	.cfi_startproc
	@ args = 0, pretend = 0, frame = 0
	@ frame_needed = 0, uses_anonymous_args = 0
.LVL20:
	push	{r3, r4, r5, r6, r7, lr}
	.cfi_def_cfa_offset 24
	.cfi_offset 3, -24
	.cfi_offset 4, -20
	.cfi_offset 5, -16
	.cfi_offset 6, -12
	.cfi_offset 7, -8
	.cfi_offset 14, -4
	mov	r4, r0
	.loc 1 107 3
	.loc 1 108 3
	.loc 1 109 3
.LVL21:
	.loc 1 110 3
	.loc 1 114 3
	.loc 1 114 22 is_stmt 0
	ldr	r3, [r0]
	.loc 1 114 6
	tst	r3, #134217728
	beq	.L177
	.loc 1 117 5 is_stmt 1
	.loc 1 117 26 is_stmt 0
	ldr	r3, [r0, #104]
	.loc 1 117 5
	cmp	r3, #2097152
	beq	.L45
	bhi	.L46
	cbz	r3, .L47
	cmp	r3, #1048576
	bne	.L226
	.loc 1 128 9 is_stmt 1
	.loc 1 128 15 is_stmt 0
	movs	r1, #2
	adds	r0, r0, #8
.LVL22:
	bl	RCCEx_PLL2_Config
.LVL23:
	mov	r5, r0
.LVL24:
	.loc 1 131 9 is_stmt 1
.L50:
	.loc 1 149 5
	.loc 1 149 8 is_stmt 0
	cbz	r5, .L49
	mov	r6, r5
	b	.L44
.LVL25:
.L226:
	.loc 1 117 5
	movs	r6, #1
	mov	r5, r6
	b	.L44
.L46:
	cmp	r3, #3145728
	bne	.L227
	movs	r5, #0
.LVL26:
.L49:
	.loc 1 152 7 is_stmt 1
	.loc 1 152 155 is_stmt 0
	ldr	r2, .L258
	ldr	r3, [r2, #80]
	.loc 1 152 169
	bic	r3, r3, #3145728
	.loc 1 152 211
	ldr	r1, [r4, #104]
	.loc 1 152 194
	orrs	r3, r3, r1
	.loc 1 152 85
	str	r3, [r2, #80]
	.loc 1 110 21
	movs	r6, #0
	b	.L44
.LVL27:
.L227:
	.loc 1 117 5
	movs	r6, #1
	mov	r5, r6
	b	.L44
.L47:
	.loc 1 121 9 is_stmt 1
	.loc 1 121 73 is_stmt 0
	ldr	r2, .L258
	ldr	r3, [r2, #44]
	.loc 1 121 84
	orr	r3, r3, #131072
	str	r3, [r2, #44]
	.loc 1 124 9 is_stmt 1
	.loc 1 149 5
	.loc 1 109 21 is_stmt 0
	movs	r5, #0
	b	.L49
.L45:
	.loc 1 134 9 is_stmt 1
	.loc 1 134 15 is_stmt 0
	movs	r1, #2
	adds	r0, r0, #40
.LVL28:
	bl	RCCEx_PLL3_Config
.LVL29:
	mov	r5, r0
.LVL30:
	.loc 1 137 9 is_stmt 1
	b	.L50
.LVL31:
.L177:
	.loc 1 110 21 is_stmt 0
	movs	r6, #0
	.loc 1 109 21
	mov	r5, r6
.LVL32:
.L44:
	.loc 1 162 3 is_stmt 1
	.loc 1 162 22 is_stmt 0
	ldr	r3, [r4]
	.loc 1 162 6
	tst	r3, #256
	beq	.L51
	.loc 1 164 5 is_stmt 1
	.loc 1 164 26 is_stmt 0
	ldr	r3, [r4, #88]
	.loc 1 164 5
	cmp	r3, #4
	bhi	.L180
	tbb	[pc, r3]
.L53:
	.byte	(.L56-.L53)/2
	.byte	(.L55-.L53)/2
	.byte	(.L54-.L53)/2
	.byte	(.L52-.L53)/2
	.byte	(.L52-.L53)/2
	.p2align 1
.L56:
	.loc 1 168 9 is_stmt 1
	.loc 1 168 73 is_stmt 0
	ldr	r2, .L258
	ldr	r3, [r2, #44]
	.loc 1 168 84
	orr	r3, r3, #131072
	str	r3, [r2, #44]
	.loc 1 171 9 is_stmt 1
.L52:
	.loc 1 201 5
	.loc 1 201 8 is_stmt 0
	cbnz	r5, .L181
	.loc 1 204 7 is_stmt 1
	.loc 1 204 155 is_stmt 0
	ldr	r2, .L258
	ldr	r3, [r2, #80]
	.loc 1 204 169
	bic	r3, r3, #7
	.loc 1 204 210
	ldr	r1, [r4, #88]
	.loc 1 204 193
	orrs	r3, r3, r1
	.loc 1 204 85
	str	r3, [r2, #80]
.LVL33:
.L51:
	.loc 1 215 3 is_stmt 1
	.loc 1 215 22 is_stmt 0
	ldr	r3, [r4]
	.loc 1 215 6
	tst	r3, #512
	beq	.L57
	.loc 1 217 5 is_stmt 1
	.loc 1 217 26 is_stmt 0
	ldr	r3, [r4, #92]
	.loc 1 217 5
	cmp	r3, #128
	beq	.L58
	bhi	.L59
	cmp	r3, #0
	beq	.L60
	cmp	r3, #64
	bne	.L228
	.loc 1 228 9 is_stmt 1
	.loc 1 228 15 is_stmt 0
	movs	r1, #0
	add	r0, r4, #8
	bl	RCCEx_PLL2_Config
.LVL34:
	mov	r5, r0
.LVL35:
	.loc 1 231 9 is_stmt 1
	b	.L62
.L55:
	.loc 1 175 9
	.loc 1 175 15 is_stmt 0
	movs	r1, #0
	add	r0, r4, #8
	bl	RCCEx_PLL2_Config
.LVL36:
	mov	r5, r0
.LVL37:
	.loc 1 178 9 is_stmt 1
	b	.L52
.L54:
	.loc 1 181 9
	.loc 1 181 15 is_stmt 0
	movs	r1, #0
	add	r0, r4, #40
	bl	RCCEx_PLL3_Config
.LVL38:
	mov	r5, r0
.LVL39:
	.loc 1 184 9 is_stmt 1
	b	.L52
.L180:
	.loc 1 164 5 is_stmt 0
	movs	r6, #1
.LVL40:
	mov	r5, r6
.LVL41:
	b	.L51
.LVL42:
.L181:
	mov	r6, r5
.LVL43:
	b	.L51
.LVL44:
.L228:
	.loc 1 217 5
	movs	r6, #1
.LVL45:
	mov	r5, r6
.LVL46:
	b	.L57
.LVL47:
.L59:
	cmp	r3, #192
	beq	.L62
	cmp	r3, #256
	bne	.L229
.L62:
	.loc 1 254 5 is_stmt 1
	.loc 1 254 8 is_stmt 0
	cbnz	r5, .L182
	.loc 1 257 7 is_stmt 1
	.loc 1 257 155 is_stmt 0
	ldr	r2, .L258
	ldr	r3, [r2, #80]
	.loc 1 257 169
	bic	r3, r3, #448
	.loc 1 257 210
	ldr	r1, [r4, #92]
	.loc 1 257 193
	orrs	r3, r3, r1
	.loc 1 257 85
	str	r3, [r2, #80]
.LVL48:
.L57:
	.loc 1 389 3 is_stmt 1
	.loc 1 389 22 is_stmt 0
	ldr	r3, [r4]
	.loc 1 389 6
	tst	r3, #1024
	beq	.L63
	.loc 1 391 5 is_stmt 1
	.loc 1 391 26 is_stmt 0
	ldr	r3, [r4, #168]
	.loc 1 391 5
	cmp	r3, #4194304
	beq	.L64
	bhi	.L65
	cbz	r3, .L66
	cmp	r3, #2097152
	bne	.L230
	.loc 1 402 9 is_stmt 1
	.loc 1 402 15 is_stmt 0
	movs	r1, #0
	add	r0, r4, #8
	bl	RCCEx_PLL2_Config
.LVL49:
	mov	r5, r0
.LVL50:
	.loc 1 405 9 is_stmt 1
	b	.L68
.L229:
	.loc 1 217 5 is_stmt 0
	movs	r6, #1
.LVL51:
	mov	r5, r6
.LVL52:
	b	.L57
.LVL53:
.L60:
	.loc 1 221 9 is_stmt 1
	.loc 1 221 73 is_stmt 0
	ldr	r2, .L258
	ldr	r3, [r2, #44]
	.loc 1 221 84
	orr	r3, r3, #131072
	str	r3, [r2, #44]
	.loc 1 224 9 is_stmt 1
	b	.L62
.L58:
	.loc 1 234 9
	.loc 1 234 15 is_stmt 0
	movs	r1, #0
	add	r0, r4, #40
	bl	RCCEx_PLL3_Config
.LVL54:
	mov	r5, r0
.LVL55:
	.loc 1 237 9 is_stmt 1
	b	.L62
.L182:
	mov	r6, r5
.LVL56:
	b	.L57
.LVL57:
.L230:
	.loc 1 391 5 is_stmt 0
	movs	r6, #1
.LVL58:
	mov	r5, r6
.LVL59:
	b	.L63
.LVL60:
.L65:
	cmp	r3, #6291456
	beq	.L68
	cmp	r3, #8388608
	bne	.L231
.L68:
	.loc 1 435 5 is_stmt 1
	.loc 1 435 8 is_stmt 0
	cbnz	r5, .L183
	.loc 1 438 7 is_stmt 1
	.loc 1 438 154 is_stmt 0
	ldr	r2, .L258
	ldr	r3, [r2, #88]
	.loc 1 438 167
	bic	r3, r3, #14680064
	.loc 1 438 209
	ldr	r1, [r4, #168]
	.loc 1 438 192
	orrs	r3, r3, r1
	.loc 1 438 84
	str	r3, [r2, #88]
	b	.L63
.L231:
	.loc 1 391 5
	movs	r6, #1
.LVL61:
	mov	r5, r6
.LVL62:
	b	.L63
.LVL63:
.L66:
	.loc 1 395 9 is_stmt 1
	.loc 1 395 73 is_stmt 0
	ldr	r2, .L258
	ldr	r3, [r2, #44]
	.loc 1 395 84
	orr	r3, r3, #131072
	str	r3, [r2, #44]
	.loc 1 398 9 is_stmt 1
	b	.L68
.L64:
	.loc 1 408 9
	.loc 1 408 15 is_stmt 0
	movs	r1, #0
	add	r0, r4, #40
	bl	RCCEx_PLL3_Config
.LVL64:
	mov	r5, r0
.LVL65:
	.loc 1 411 9 is_stmt 1
	b	.L68
.L183:
	mov	r6, r5
.LVL66:
.L63:
	.loc 1 447 3
	.loc 1 447 22 is_stmt 0
	ldr	r3, [r4]
	.loc 1 447 6
	tst	r3, #2048
	beq	.L69
	.loc 1 449 5 is_stmt 1
	.loc 1 449 26 is_stmt 0
	ldr	r3, [r4, #172]
	.loc 1 449 5
	cmp	r3, #33554432
	beq	.L70
	bhi	.L71
	cmp	r3, #0
	beq	.L72
	cmp	r3, #16777216
	bne	.L232
	.loc 1 460 9 is_stmt 1
	.loc 1 460 15 is_stmt 0
	movs	r1, #0
	add	r0, r4, #8
	bl	RCCEx_PLL2_Config
.LVL67:
	mov	r5, r0
.LVL68:
	.loc 1 463 9 is_stmt 1
	b	.L74
.L232:
	.loc 1 449 5 is_stmt 0
	movs	r6, #1
.LVL69:
	mov	r5, r6
.LVL70:
	b	.L69
.LVL71:
.L71:
	cmp	r3, #50331648
	beq	.L74
	cmp	r3, #67108864
	bne	.L233
.L74:
	.loc 1 493 5 is_stmt 1
	.loc 1 493 8 is_stmt 0
	cmp	r5, #0
	bne	.L184
	.loc 1 496 7 is_stmt 1
	.loc 1 496 154 is_stmt 0
	ldr	r2, .L258
	ldr	r3, [r2, #88]
	.loc 1 496 167
	bic	r3, r3, #117440512
	.loc 1 496 209
	ldr	r1, [r4, #172]
	.loc 1 496 192
	orrs	r3, r3, r1
	.loc 1 496 84
	str	r3, [r2, #88]
.LVL72:
.L69:
	.loc 1 508 3 is_stmt 1
	.loc 1 508 22 is_stmt 0
	ldr	r3, [r4]
	.loc 1 508 6
	tst	r3, #33554432
	beq	.L75
	.loc 1 510 5 is_stmt 1
	.loc 1 510 26 is_stmt 0
	ldr	r3, [r4, #76]
	.loc 1 510 5
	cmp	r3, #32
	beq	.L76
	bhi	.L77
	cbz	r3, .L78
	cmp	r3, #16
	bne	.L234
	.loc 1 514 9 is_stmt 1
	.loc 1 514 73 is_stmt 0
	ldr	r2, .L258
	ldr	r3, [r2, #44]
	.loc 1 514 84
	orr	r3, r3, #131072
	str	r3, [r2, #44]
	.loc 1 517 9 is_stmt 1
.L78:
	.loc 1 541 5
	.loc 1 541 8 is_stmt 0
	cmp	r5, #0
	bne	.L185
	.loc 1 544 7 is_stmt 1
	.loc 1 544 154 is_stmt 0
	ldr	r2, .L258
	ldr	r3, [r2, #76]
	.loc 1 544 167
	bic	r3, r3, #48
	.loc 1 544 218
	ldr	r1, [r4, #76]
	.loc 1 544 191
	orrs	r3, r3, r1
	.loc 1 544 84
	str	r3, [r2, #76]
	b	.L75
.L233:
	.loc 1 449 5
	movs	r6, #1
.LVL73:
	mov	r5, r6
.LVL74:
	b	.L69
.LVL75:
.L72:
	.loc 1 453 9 is_stmt 1
	.loc 1 453 73 is_stmt 0
	ldr	r2, .L258
	ldr	r3, [r2, #44]
	.loc 1 453 84
	orr	r3, r3, #131072
	str	r3, [r2, #44]
	.loc 1 456 9 is_stmt 1
	b	.L74
.L70:
	.loc 1 466 9
	.loc 1 466 15 is_stmt 0
	movs	r1, #0
	add	r0, r4, #40
	bl	RCCEx_PLL3_Config
.LVL76:
	mov	r5, r0
.LVL77:
	.loc 1 469 9 is_stmt 1
	b	.L74
.L184:
	mov	r6, r5
.LVL78:
	b	.L69
.LVL79:
.L234:
	.loc 1 510 5 is_stmt 0
	movs	r6, #1
.LVL80:
	mov	r5, r6
.LVL81:
	b	.L75
.LVL82:
.L77:
	cmp	r3, #48
	beq	.L78
	movs	r6, #1
.LVL83:
	mov	r5, r6
.LVL84:
.L75:
	.loc 1 603 3 is_stmt 1
	.loc 1 603 22 is_stmt 0
	ldr	r3, [r4]
	.loc 1 603 6
	tst	r3, #4096
	beq	.L80
	.loc 1 605 5 is_stmt 1
	.loc 1 605 26 is_stmt 0
	ldr	r3, [r4, #96]
	.loc 1 605 5
	cmp	r3, #8192
	beq	.L81
	bhi	.L82
	cmp	r3, #0
	beq	.L83
	cmp	r3, #4096
	bne	.L235
	.loc 1 615 9 is_stmt 1
	.loc 1 615 15 is_stmt 0
	movs	r1, #0
	add	r0, r4, #8
	bl	RCCEx_PLL2_Config
.LVL85:
	mov	r5, r0
.LVL86:
	.loc 1 618 9 is_stmt 1
	b	.L85
.L76:
	.loc 1 521 9
	.loc 1 521 15 is_stmt 0
	movs	r1, #2
	add	r0, r4, #8
	bl	RCCEx_PLL2_Config
.LVL87:
	mov	r5, r0
.LVL88:
	.loc 1 524 9 is_stmt 1
	b	.L78
.L185:
	mov	r6, r5
.LVL89:
	b	.L75
.LVL90:
.L235:
	.loc 1 605 5 is_stmt 0
	movs	r6, #1
.LVL91:
	mov	r5, r6
.LVL92:
	b	.L80
.L259:
	.align	2
.L258:
	.word	1476543488
.LVL93:
.L82:
	cmp	r3, #12288
	beq	.L85
	cmp	r3, #16384
	bne	.L236
.L85:
	.loc 1 641 5 is_stmt 1
	.loc 1 641 8 is_stmt 0
	cmp	r5, #0
	bne	.L186
	.loc 1 644 7 is_stmt 1
	.loc 1 644 155 is_stmt 0
	ldr	r2, .L260
	ldr	r3, [r2, #80]
	.loc 1 644 169
	bic	r3, r3, #28672
	.loc 1 644 211
	ldr	r1, [r4, #96]
	.loc 1 644 194
	orrs	r3, r3, r1
	.loc 1 644 85
	str	r3, [r2, #80]
.LVL94:
.L80:
	.loc 1 654 3 is_stmt 1
	.loc 1 654 22 is_stmt 0
	ldr	r3, [r4]
	.loc 1 654 6
	tst	r3, #8192
	beq	.L86
	.loc 1 656 5 is_stmt 1
	.loc 1 656 26 is_stmt 0
	ldr	r3, [r4, #100]
	.loc 1 656 5
	cmp	r3, #131072
	beq	.L87
	bhi	.L88
	cbz	r3, .L89
	cmp	r3, #65536
	bne	.L237
	.loc 1 664 9 is_stmt 1
	.loc 1 664 15 is_stmt 0
	movs	r1, #1
	add	r0, r4, #8
	bl	RCCEx_PLL2_Config
.LVL95:
	mov	r5, r0
.LVL96:
	.loc 1 667 9 is_stmt 1
.L89:
	.loc 1 693 5
	.loc 1 693 8 is_stmt 0
	cmp	r5, #0
	bne	.L187
	.loc 1 696 7 is_stmt 1
	.loc 1 696 155 is_stmt 0
	ldr	r2, .L260
	ldr	r3, [r2, #80]
	.loc 1 696 169
	bic	r3, r3, #458752
	.loc 1 696 211
	ldr	r1, [r4, #100]
	.loc 1 696 194
	orrs	r3, r3, r1
	.loc 1 696 85
	str	r3, [r2, #80]
	b	.L86
.L236:
	.loc 1 605 5
	movs	r6, #1
.LVL97:
	mov	r5, r6
.LVL98:
	b	.L80
.LVL99:
.L83:
	.loc 1 609 9 is_stmt 1
	.loc 1 609 73 is_stmt 0
	ldr	r2, .L260
	ldr	r3, [r2, #44]
	.loc 1 609 84
	orr	r3, r3, #131072
	str	r3, [r2, #44]
	.loc 1 612 9 is_stmt 1
	b	.L85
.L81:
	.loc 1 621 9
	.loc 1 621 15 is_stmt 0
	movs	r1, #0
	add	r0, r4, #40
	bl	RCCEx_PLL3_Config
.LVL100:
	mov	r5, r0
.LVL101:
	.loc 1 624 9 is_stmt 1
	b	.L85
.L186:
	mov	r6, r5
.LVL102:
	b	.L80
.LVL103:
.L237:
	.loc 1 656 5 is_stmt 0
	movs	r6, #1
.LVL104:
	mov	r5, r6
.LVL105:
	b	.L86
.LVL106:
.L88:
	cmp	r3, #262144
	beq	.L89
	cmp	r3, #327680
	beq	.L89
	cmp	r3, #196608
	beq	.L89
	movs	r6, #1
.LVL107:
	mov	r5, r6
.LVL108:
.L86:
	.loc 1 706 3 is_stmt 1
	.loc 1 706 22 is_stmt 0
	ldr	r3, [r4]
	.loc 1 706 6
	tst	r3, #16384
	beq	.L91
	.loc 1 708 5 is_stmt 1
	.loc 1 708 26 is_stmt 0
	ldr	r3, [r4, #176]
	.loc 1 708 5
	cmp	r3, #536870912
	beq	.L92
	bhi	.L93
	cbz	r3, .L94
	cmp	r3, #268435456
	bne	.L238
	.loc 1 716 9 is_stmt 1
	.loc 1 716 15 is_stmt 0
	movs	r1, #1
	add	r0, r4, #8
	bl	RCCEx_PLL2_Config
.LVL109:
	mov	r5, r0
.LVL110:
	.loc 1 719 9 is_stmt 1
.L94:
	.loc 1 751 5
	.loc 1 751 8 is_stmt 0
	cmp	r5, #0
	bne	.L188
	.loc 1 754 7 is_stmt 1
	.loc 1 754 154 is_stmt 0
	ldr	r2, .L260
	ldr	r3, [r2, #88]
	.loc 1 754 167
	bic	r3, r3, #1879048192
	.loc 1 754 209
	ldr	r1, [r4, #176]
	.loc 1 754 192
	orrs	r3, r3, r1
	.loc 1 754 84
	str	r3, [r2, #88]
	b	.L91
.L87:
	.loc 1 669 9 is_stmt 1
	.loc 1 669 15 is_stmt 0
	movs	r1, #1
	add	r0, r4, #40
	bl	RCCEx_PLL3_Config
.LVL111:
	mov	r5, r0
.LVL112:
	.loc 1 671 9 is_stmt 1
	b	.L89
.L187:
	mov	r6, r5
.LVL113:
	b	.L86
.LVL114:
.L238:
	.loc 1 708 5 is_stmt 0
	movs	r6, #1
.LVL115:
	mov	r5, r6
.LVL116:
	b	.L91
.LVL117:
.L93:
	cmp	r3, #1073741824
	beq	.L94
	cmp	r3, #1342177280
	beq	.L94
	cmp	r3, #805306368
	beq	.L94
	movs	r6, #1
.LVL118:
	mov	r5, r6
.LVL119:
.L91:
	.loc 1 802 3 is_stmt 1
	.loc 1 802 22 is_stmt 0
	ldr	r3, [r4]
	.loc 1 802 6
	tst	r3, #32768
	beq	.L96
	.loc 1 804 5 is_stmt 1
	.loc 1 804 26 is_stmt 0
	ldr	r3, [r4, #112]
	.loc 1 804 5
	cmp	r3, #268435456
	beq	.L97
	cmp	r3, #536870912
	beq	.L98
	cbz	r3, .L99
	movs	r6, #1
.LVL120:
	mov	r5, r6
.LVL121:
.L96:
	.loc 1 844 3 is_stmt 1
	.loc 1 844 22 is_stmt 0
	ldr	r3, [r4]
	.loc 1 844 6
	tst	r3, #16777216
	beq	.L100
	.loc 1 846 5 is_stmt 1
	.loc 1 846 26 is_stmt 0
	ldr	r3, [r4, #72]
	.loc 1 846 5
	cmp	r3, #3
	bhi	.L190
	tbb	[pc, r3]
.L102:
	.byte	(.L101-.L102)/2
	.byte	(.L104-.L102)/2
	.byte	(.L103-.L102)/2
	.byte	(.L101-.L102)/2
	.p2align 1
.L92:
	.loc 1 721 9 is_stmt 1
	.loc 1 721 15 is_stmt 0
	movs	r1, #1
	add	r0, r4, #40
	bl	RCCEx_PLL3_Config
.LVL122:
	mov	r5, r0
.LVL123:
	.loc 1 723 9 is_stmt 1
	b	.L94
.L188:
	mov	r6, r5
.LVL124:
	b	.L91
.LVL125:
.L97:
	.loc 1 808 9
	.loc 1 808 73 is_stmt 0
	ldr	r2, .L260
	ldr	r3, [r2, #44]
	.loc 1 808 84
	orr	r3, r3, #131072
	str	r3, [r2, #44]
	.loc 1 811 9 is_stmt 1
.L99:
	.loc 1 830 5
	.loc 1 830 8 is_stmt 0
	cbnz	r5, .L189
	.loc 1 833 7 is_stmt 1
	.loc 1 833 155 is_stmt 0
	ldr	r2, .L260
	ldr	r3, [r2, #80]
	.loc 1 833 169
	bic	r3, r3, #805306368
	.loc 1 833 221
	ldr	r1, [r4, #112]
	.loc 1 833 194
	orrs	r3, r3, r1
	.loc 1 833 85
	str	r3, [r2, #80]
	b	.L96
.L98:
	.loc 1 815 9 is_stmt 1
	.loc 1 815 15 is_stmt 0
	movs	r1, #1
	add	r0, r4, #8
	bl	RCCEx_PLL2_Config
.LVL126:
	mov	r5, r0
.LVL127:
	.loc 1 818 9 is_stmt 1
	b	.L99
.L189:
	mov	r6, r5
.LVL128:
	b	.L96
.LVL129:
.L104:
	.loc 1 850 9
	.loc 1 850 73 is_stmt 0
	ldr	r2, .L260
	ldr	r3, [r2, #44]
	.loc 1 850 84
	orr	r3, r3, #131072
	str	r3, [r2, #44]
	.loc 1 853 9 is_stmt 1
.L101:
	.loc 1 877 5
	.loc 1 877 8 is_stmt 0
	cbnz	r5, .L191
	.loc 1 880 7 is_stmt 1
	.loc 1 880 154 is_stmt 0
	ldr	r2, .L260
	ldr	r3, [r2, #76]
	.loc 1 880 167
	bic	r3, r3, #3
	.loc 1 880 218
	ldr	r1, [r4, #72]
	.loc 1 880 191
	orrs	r3, r3, r1
	.loc 1 880 84
	str	r3, [r2, #76]
.LVL130:
.L100:
	.loc 1 890 3 is_stmt 1
	.loc 1 890 22 is_stmt 0
	ldr	r3, [r4]
	.loc 1 890 6
	tst	r3, #4194304
	bne	.L239
.LVL131:
.L105:
	.loc 1 960 3 is_stmt 1
	.loc 1 960 22 is_stmt 0
	ldr	r3, [r4]
	.loc 1 960 6
	tst	r3, #1
	beq	.L115
	.loc 1 962 5 is_stmt 1
	.loc 1 962 26 is_stmt 0
	ldr	r3, [r4, #124]
	.loc 1 962 5
	cmp	r3, #40
	bhi	.L196
	tbb	[pc, r3]
.L117:
	.byte	(.L116-.L117)/2
	.byte	(.L196-.L117)/2
	.byte	(.L196-.L117)/2
	.byte	(.L196-.L117)/2
	.byte	(.L196-.L117)/2
	.byte	(.L196-.L117)/2
	.byte	(.L196-.L117)/2
	.byte	(.L196-.L117)/2
	.byte	(.L119-.L117)/2
	.byte	(.L196-.L117)/2
	.byte	(.L196-.L117)/2
	.byte	(.L196-.L117)/2
	.byte	(.L196-.L117)/2
	.byte	(.L196-.L117)/2
	.byte	(.L196-.L117)/2
	.byte	(.L196-.L117)/2
	.byte	(.L118-.L117)/2
	.byte	(.L196-.L117)/2
	.byte	(.L196-.L117)/2
	.byte	(.L196-.L117)/2
	.byte	(.L196-.L117)/2
	.byte	(.L196-.L117)/2
	.byte	(.L196-.L117)/2
	.byte	(.L196-.L117)/2
	.byte	(.L116-.L117)/2
	.byte	(.L196-.L117)/2
	.byte	(.L196-.L117)/2
	.byte	(.L196-.L117)/2
	.byte	(.L196-.L117)/2
	.byte	(.L196-.L117)/2
	.byte	(.L196-.L117)/2
	.byte	(.L196-.L117)/2
	.byte	(.L116-.L117)/2
	.byte	(.L196-.L117)/2
	.byte	(.L196-.L117)/2
	.byte	(.L196-.L117)/2
	.byte	(.L196-.L117)/2
	.byte	(.L196-.L117)/2
	.byte	(.L196-.L117)/2
	.byte	(.L196-.L117)/2
	.byte	(.L116-.L117)/2
	.p2align 1
.L103:
	.loc 1 857 9 is_stmt 1
	.loc 1 857 15 is_stmt 0
	movs	r1, #2
	add	r0, r4, #8
	bl	RCCEx_PLL2_Config
.LVL132:
	mov	r5, r0
.LVL133:
	.loc 1 860 9 is_stmt 1
	b	.L101
.L190:
	.loc 1 846 5 is_stmt 0
	movs	r6, #1
.LVL134:
	mov	r5, r6
.LVL135:
	b	.L100
.LVL136:
.L191:
	mov	r6, r5
.LVL137:
	b	.L100
.L261:
	.align	2
.L260:
	.word	1476543488
.LVL138:
.L239:
	.loc 1 893 5 is_stmt 1
	.loc 1 896 5
	.loc 1 896 69 is_stmt 0
	ldr	r2, .L262
	ldr	r3, [r2]
	.loc 1 896 76
	orr	r3, r3, #256
	str	r3, [r2]
	.loc 1 899 5 is_stmt 1
	.loc 1 899 17 is_stmt 0
	bl	HAL_GetTick
.LVL139:
	mov	r7, r0
.LVL140:
	.loc 1 901 5 is_stmt 1
.L106:
	.loc 1 901 100
	.loc 1 901 75 is_stmt 0
	ldr	r3, .L262
	ldr	r3, [r3]
	.loc 1 901 100
	tst	r3, #256
	bne	.L107
	.loc 1 903 7 is_stmt 1
	.loc 1 903 12 is_stmt 0
	bl	HAL_GetTick
.LVL141:
	.loc 1 903 26
	subs	r0, r0, r7
	.loc 1 903 10
	cmp	r0, #100
	bls	.L106
	.loc 1 905 13
	movs	r5, #3
.LVL142:
.L107:
	.loc 1 910 5 is_stmt 1
	.loc 1 910 8 is_stmt 0
	cmp	r5, #0
	bne	.L193
	.loc 1 913 7 is_stmt 1
	.loc 1 913 74 is_stmt 0
	ldr	r3, .L262+4
	ldr	r3, [r3, #112]
	.loc 1 913 117
	ldr	r2, [r4, #180]
	.loc 1 913 100
	eors	r3, r3, r2
	.loc 1 913 10
	tst	r3, #768
	beq	.L109
	.loc 1 916 9 is_stmt 1
	.loc 1 916 81 is_stmt 0
	ldr	r3, .L262+4
	ldr	r2, [r3, #112]
	.loc 1 916 16
	bic	r2, r2, #768
.LVL143:
	.loc 1 918 9 is_stmt 1
	.loc 1 918 73 is_stmt 0
	ldr	r1, [r3, #112]
	.loc 1 918 81
	orr	r1, r1, #65536
	str	r1, [r3, #112]
	.loc 1 919 9 is_stmt 1
	.loc 1 919 73 is_stmt 0
	ldr	r1, [r3, #112]
	.loc 1 919 81
	bic	r1, r1, #65536
	str	r1, [r3, #112]
	.loc 1 921 9 is_stmt 1
	.loc 1 921 78 is_stmt 0
	str	r2, [r3, #112]
.LVL144:
.L109:
	.loc 1 925 7 is_stmt 1
	.loc 1 925 24 is_stmt 0
	ldr	r3, [r4, #180]
	.loc 1 925 10
	cmp	r3, #256
	beq	.L240
.LVL145:
.L110:
	.loc 1 941 7 is_stmt 1
	.loc 1 941 10 is_stmt 0
	cbnz	r5, .L195
	.loc 1 943 9 is_stmt 1
	.loc 1 943 14
	.loc 1 943 30 is_stmt 0
	ldr	r3, [r4, #180]
	.loc 1 943 51
	and	r2, r3, #768
	.loc 1 943 335
	cmp	r2, #768
	beq	.L241
	.loc 1 943 401 discriminator 2
	ldr	r2, .L262+4
	ldr	r3, [r2, #16]
	.loc 1 943 409 discriminator 2
	bic	r3, r3, #16128
	str	r3, [r2, #16]
.L114:
	.loc 1 943 434 is_stmt 1 discriminator 4
	.loc 1 943 496 is_stmt 0 discriminator 4
	ldr	r1, .L262+4
	ldr	r3, [r1, #112]
	.loc 1 943 521 discriminator 4
	ldr	r2, [r4, #180]
	.loc 1 943 542 discriminator 4
	ubfx	r2, r2, #0, #12
	.loc 1 943 503 discriminator 4
	orrs	r3, r3, r2
	str	r3, [r1, #112]
	.loc 1 943 12 is_stmt 1 discriminator 4
	b	.L105
.L240:
	.loc 1 928 9
	.loc 1 928 21 is_stmt 0
	bl	HAL_GetTick
.LVL146:
	mov	r7, r0
.LVL147:
	.loc 1 931 9 is_stmt 1
.L111:
	.loc 1 931 581
	.loc 1 931 222 is_stmt 0
	ldr	r3, .L262+4
	ldr	r3, [r3, #112]
	.loc 1 931 581
	tst	r3, #2
	bne	.L110
	.loc 1 933 11 is_stmt 1
	.loc 1 933 16 is_stmt 0
	bl	HAL_GetTick
.LVL148:
	.loc 1 933 30
	subs	r0, r0, r7
	.loc 1 933 14
	movw	r3, #5000
	cmp	r0, r3
	bls	.L111
	.loc 1 935 17
	movs	r5, #3
.LVL149:
	b	.L110
.LVL150:
.L241:
	.loc 1 943 236 discriminator 1
	ldr	r0, .L262+4
	ldr	r2, [r0, #16]
	.loc 1 943 246 discriminator 1
	bic	r2, r2, #16128
	.loc 1 943 325 discriminator 1
	ldr	r1, .L262+8
	and	r3, r1, r3, lsr #4
	.loc 1 943 271 discriminator 1
	orrs	r3, r3, r2
	.loc 1 943 166 discriminator 1
	str	r3, [r0, #16]
	b	.L114
.L193:
	.loc 1 954 14
	mov	r6, r5
.LVL151:
	b	.L105
.LVL152:
.L195:
	.loc 1 948 16
	mov	r6, r5
.LVL153:
	b	.L105
.LVL154:
.L119:
	.loc 1 969 9 is_stmt 1
	.loc 1 969 15 is_stmt 0
	movs	r1, #1
	add	r0, r4, #8
	bl	RCCEx_PLL2_Config
.LVL155:
	mov	r5, r0
.LVL156:
	.loc 1 971 9 is_stmt 1
.L116:
	.loc 1 998 5
	.loc 1 998 8 is_stmt 0
	cbnz	r5, .L197
	.loc 1 1001 7 is_stmt 1
	.loc 1 1001 155 is_stmt 0
	ldr	r2, .L262+4
	ldr	r3, [r2, #84]
	.loc 1 1001 169
	bic	r3, r3, #56
	.loc 1 1001 220
	ldr	r1, [r4, #124]
	.loc 1 1001 193
	orrs	r3, r3, r1
	.loc 1 1001 85
	str	r3, [r2, #84]
	b	.L115
.L118:
	.loc 1 974 9 is_stmt 1
	.loc 1 974 15 is_stmt 0
	movs	r1, #1
	add	r0, r4, #40
	bl	RCCEx_PLL3_Config
.LVL157:
	mov	r5, r0
.LVL158:
	.loc 1 976 9 is_stmt 1
	b	.L116
.L196:
	.loc 1 962 5 is_stmt 0
	movs	r6, #1
.LVL159:
	mov	r5, r6
.LVL160:
.L115:
	.loc 1 1011 3 is_stmt 1
	.loc 1 1011 22 is_stmt 0
	ldr	r3, [r4]
	.loc 1 1011 6
	tst	r3, #2
	beq	.L120
	.loc 1 1013 5 is_stmt 1
	.loc 1 1013 26 is_stmt 0
	ldr	r3, [r4, #120]
	.loc 1 1013 5
	cmp	r3, #5
	bhi	.L198
	tbb	[pc, r3]
.L122:
	.byte	(.L121-.L122)/2
	.byte	(.L124-.L122)/2
	.byte	(.L123-.L122)/2
	.byte	(.L121-.L122)/2
	.byte	(.L121-.L122)/2
	.byte	(.L121-.L122)/2
	.p2align 1
.L197:
	mov	r6, r5
.LVL161:
	b	.L115
.LVL162:
.L124:
	.loc 1 1020 9 is_stmt 1
	.loc 1 1020 15 is_stmt 0
	movs	r1, #1
	add	r0, r4, #8
	bl	RCCEx_PLL2_Config
.LVL163:
	mov	r5, r0
.LVL164:
	.loc 1 1022 9 is_stmt 1
.L121:
	.loc 1 1049 5
	.loc 1 1049 8 is_stmt 0
	cbnz	r5, .L199
	.loc 1 1052 7 is_stmt 1
	.loc 1 1052 155 is_stmt 0
	ldr	r2, .L262+4
	ldr	r3, [r2, #84]
	.loc 1 1052 169
	bic	r3, r3, #7
	.loc 1 1052 220
	ldr	r1, [r4, #120]
	.loc 1 1052 193
	orrs	r3, r3, r1
	.loc 1 1052 85
	str	r3, [r2, #84]
.LVL165:
.L120:
	.loc 1 1062 3 is_stmt 1
	.loc 1 1062 22 is_stmt 0
	ldr	r3, [r4]
	.loc 1 1062 6
	tst	r3, #4
	beq	.L125
	.loc 1 1064 5 is_stmt 1
	.loc 1 1064 26 is_stmt 0
	ldr	r3, [r4, #148]
	.loc 1 1064 5
	cmp	r3, #5
	bhi	.L200
	tbb	[pc, r3]
.L127:
	.byte	(.L126-.L127)/2
	.byte	(.L129-.L127)/2
	.byte	(.L128-.L127)/2
	.byte	(.L126-.L127)/2
	.byte	(.L126-.L127)/2
	.byte	(.L126-.L127)/2
	.p2align 1
.L123:
	.loc 1 1025 9 is_stmt 1
	.loc 1 1025 15 is_stmt 0
	movs	r1, #1
	add	r0, r4, #40
	bl	RCCEx_PLL3_Config
.LVL166:
	mov	r5, r0
.LVL167:
	.loc 1 1027 9 is_stmt 1
	b	.L121
.L198:
	.loc 1 1013 5 is_stmt 0
	movs	r6, #1
.LVL168:
	mov	r5, r6
.LVL169:
	b	.L120
.LVL170:
.L199:
	mov	r6, r5
.LVL171:
	b	.L120
.LVL172:
.L129:
	.loc 1 1071 9 is_stmt 1
	.loc 1 1071 15 is_stmt 0
	movs	r1, #1
	add	r0, r4, #8
	bl	RCCEx_PLL2_Config
.LVL173:
	mov	r5, r0
.LVL174:
	.loc 1 1073 9 is_stmt 1
.L126:
	.loc 1 1100 5
	.loc 1 1100 8 is_stmt 0
	cbnz	r5, .L201
	.loc 1 1103 7 is_stmt 1
	.loc 1 1103 154 is_stmt 0
	ldr	r2, .L262+4
	ldr	r3, [r2, #88]
	.loc 1 1103 167
	bic	r3, r3, #7
	.loc 1 1103 218
	ldr	r1, [r4, #148]
	.loc 1 1103 191
	orrs	r3, r3, r1
	.loc 1 1103 84
	str	r3, [r2, #88]
.LVL175:
.L125:
	.loc 1 1113 3 is_stmt 1
	.loc 1 1113 22 is_stmt 0
	ldr	r3, [r4]
	.loc 1 1113 6
	tst	r3, #32
	beq	.L130
	.loc 1 1115 5 is_stmt 1
	.loc 1 1115 26 is_stmt 0
	ldr	r3, [r4, #144]
	.loc 1 1115 5
	cmp	r3, #536870912
	beq	.L131
	bhi	.L132
	cbz	r3, .L133
	cmp	r3, #268435456
	bne	.L242
	.loc 1 1123 9 is_stmt 1
	.loc 1 1123 15 is_stmt 0
	movs	r1, #0
	add	r0, r4, #8
	bl	RCCEx_PLL2_Config
.LVL176:
	mov	r5, r0
.LVL177:
	.loc 1 1126 9 is_stmt 1
.L133:
	.loc 1 1153 5
	.loc 1 1153 8 is_stmt 0
	cmp	r5, #0
	bne	.L202
	.loc 1 1156 7 is_stmt 1
	.loc 1 1156 155 is_stmt 0
	ldr	r2, .L262+4
	ldr	r3, [r2, #84]
	.loc 1 1156 169
	bic	r3, r3, #1879048192
	.loc 1 1156 221
	ldr	r1, [r4, #144]
	.loc 1 1156 194
	orrs	r3, r3, r1
	.loc 1 1156 85
	str	r3, [r2, #84]
	b	.L130
.L128:
	.loc 1 1076 9 is_stmt 1
	.loc 1 1076 15 is_stmt 0
	movs	r1, #1
	add	r0, r4, #40
	bl	RCCEx_PLL3_Config
.LVL178:
	mov	r5, r0
.LVL179:
	.loc 1 1078 9 is_stmt 1
	b	.L126
.L200:
	.loc 1 1064 5 is_stmt 0
	movs	r6, #1
.LVL180:
	mov	r5, r6
.LVL181:
	b	.L125
.LVL182:
.L201:
	mov	r6, r5
.LVL183:
	b	.L125
.LVL184:
.L242:
	.loc 1 1115 5
	movs	r6, #1
.LVL185:
	mov	r5, r6
.LVL186:
	b	.L130
.LVL187:
.L132:
	cmp	r3, #1073741824
	beq	.L133
	cmp	r3, #1342177280
	beq	.L133
	cmp	r3, #805306368
	beq	.L133
	movs	r6, #1
.LVL188:
	mov	r5, r6
.LVL189:
.L130:
	.loc 1 1166 3 is_stmt 1
	.loc 1 1166 22 is_stmt 0
	ldr	r3, [r4]
	.loc 1 1166 6
	tst	r3, #64
	beq	.L135
	.loc 1 1168 5 is_stmt 1
	.loc 1 1168 26 is_stmt 0
	ldr	r3, [r4, #156]
	.loc 1 1168 5
	cmp	r3, #2048
	beq	.L136
	bhi	.L137
	cbz	r3, .L138
	cmp	r3, #1024
	bne	.L243
	.loc 1 1176 9 is_stmt 1
	.loc 1 1176 15 is_stmt 0
	movs	r1, #0
	add	r0, r4, #8
	bl	RCCEx_PLL2_Config
.LVL190:
	mov	r5, r0
.LVL191:
	.loc 1 1179 9 is_stmt 1
.L138:
	.loc 1 1206 5
	.loc 1 1206 8 is_stmt 0
	cmp	r5, #0
	bne	.L203
	.loc 1 1209 7 is_stmt 1
	.loc 1 1209 154 is_stmt 0
	ldr	r2, .L262+4
	ldr	r3, [r2, #88]
	.loc 1 1209 167
	bic	r3, r3, #7168
	.loc 1 1209 219
	ldr	r1, [r4, #156]
	.loc 1 1209 192
	orrs	r3, r3, r1
	.loc 1 1209 84
	str	r3, [r2, #88]
	b	.L135
.L131:
	.loc 1 1129 9 is_stmt 1
	.loc 1 1129 15 is_stmt 0
	movs	r1, #2
	add	r0, r4, #40
	bl	RCCEx_PLL3_Config
.LVL192:
	mov	r5, r0
.LVL193:
	.loc 1 1132 9 is_stmt 1
	b	.L133
.L202:
	mov	r6, r5
.LVL194:
	b	.L130
.LVL195:
.L243:
	.loc 1 1168 5 is_stmt 0
	movs	r6, #1
.LVL196:
	mov	r5, r6
.LVL197:
	b	.L135
.L263:
	.align	2
.L262:
	.word	1476544512
	.word	1476543488
	.word	16777167
.LVL198:
.L137:
	cmp	r3, #4096
	beq	.L138
	cmp	r3, #5120
	beq	.L138
	cmp	r3, #3072
	beq	.L138
	movs	r6, #1
.LVL199:
	mov	r5, r6
.LVL200:
.L135:
	.loc 1 1219 3 is_stmt 1
	.loc 1 1219 22 is_stmt 0
	ldr	r3, [r4]
	.loc 1 1219 6
	tst	r3, #128
	beq	.L140
	.loc 1 1221 5 is_stmt 1
	.loc 1 1221 26 is_stmt 0
	ldr	r3, [r4, #160]
	.loc 1 1221 5
	cmp	r3, #16384
	beq	.L141
	bhi	.L142
	cbz	r3, .L143
	cmp	r3, #8192
	bne	.L244
	.loc 1 1229 9 is_stmt 1
	.loc 1 1229 15 is_stmt 0
	movs	r1, #0
	add	r0, r4, #8
	bl	RCCEx_PLL2_Config
.LVL201:
	mov	r5, r0
.LVL202:
	.loc 1 1232 9 is_stmt 1
.L143:
	.loc 1 1259 5
	.loc 1 1259 8 is_stmt 0
	cmp	r5, #0
	bne	.L204
	.loc 1 1262 7 is_stmt 1
	.loc 1 1262 154 is_stmt 0
	ldr	r2, .L264
	ldr	r3, [r2, #88]
	.loc 1 1262 167
	bic	r3, r3, #57344
	.loc 1 1262 219
	ldr	r1, [r4, #160]
	.loc 1 1262 192
	orrs	r3, r3, r1
	.loc 1 1262 84
	str	r3, [r2, #88]
	b	.L140
.L136:
	.loc 1 1182 9 is_stmt 1
	.loc 1 1182 15 is_stmt 0
	movs	r1, #2
	add	r0, r4, #40
	bl	RCCEx_PLL3_Config
.LVL203:
	mov	r5, r0
.LVL204:
	.loc 1 1185 9 is_stmt 1
	b	.L138
.L203:
	mov	r6, r5
.LVL205:
	b	.L135
.LVL206:
.L244:
	.loc 1 1221 5 is_stmt 0
	movs	r6, #1
.LVL207:
	mov	r5, r6
.LVL208:
	b	.L140
.LVL209:
.L142:
	cmp	r3, #32768
	beq	.L143
	cmp	r3, #40960
	beq	.L143
	cmp	r3, #24576
	beq	.L143
	movs	r6, #1
.LVL210:
	mov	r5, r6
.LVL211:
.L140:
	.loc 1 1290 3 is_stmt 1
	.loc 1 1290 22 is_stmt 0
	ldr	r3, [r4]
	.loc 1 1290 6
	tst	r3, #8
	beq	.L145
	.loc 1 1293 5 is_stmt 1
	.loc 1 1295 5
	.loc 1 1295 23 is_stmt 0
	ldr	r3, [r4, #132]
	.loc 1 1295 8
	cmp	r3, #4096
	beq	.L245
.LVL212:
.L146:
	.loc 1 1303 5 is_stmt 1
	.loc 1 1303 153 is_stmt 0
	ldr	r2, .L264
	ldr	r3, [r2, #84]
	.loc 1 1303 167
	bic	r3, r3, #12288
	.loc 1 1303 219
	ldr	r1, [r4, #132]
	.loc 1 1303 192
	orrs	r3, r3, r1
	.loc 1 1303 83
	str	r3, [r2, #84]
.L145:
	.loc 1 1309 3 is_stmt 1
	.loc 1 1309 22 is_stmt 0
	ldr	r3, [r4]
	.loc 1 1309 6
	tst	r3, #16
	beq	.L147
	.loc 1 1312 5 is_stmt 1
	.loc 1 1314 5
	.loc 1 1314 23 is_stmt 0
	ldr	r3, [r4, #152]
	.loc 1 1314 8
	cmp	r3, #256
	beq	.L246
.LVL213:
.L148:
	.loc 1 1322 5 is_stmt 1
	.loc 1 1322 152 is_stmt 0
	ldr	r2, .L264
	ldr	r3, [r2, #88]
	.loc 1 1322 165
	bic	r3, r3, #768
	.loc 1 1322 216
	ldr	r1, [r4, #152]
	.loc 1 1322 189
	orrs	r3, r3, r1
	.loc 1 1322 82
	str	r3, [r2, #88]
.L147:
	.loc 1 1327 3 is_stmt 1
	.loc 1 1327 22 is_stmt 0
	ldr	r3, [r4]
	.loc 1 1327 6
	tst	r3, #524288
	beq	.L149
	.loc 1 1329 5 is_stmt 1
	.loc 1 1329 26 is_stmt 0
	ldr	r3, [r4, #164]
	.loc 1 1329 5
	cmp	r3, #65536
	beq	.L150
	cmp	r3, #131072
	beq	.L151
	cmp	r3, #0
	beq	.L247
	movs	r6, #1
.LVL214:
	mov	r5, r6
.LVL215:
.L149:
	.loc 1 1368 3 is_stmt 1
	.loc 1 1368 22 is_stmt 0
	ldr	r3, [r4]
	.loc 1 1368 6
	tst	r3, #262144
	beq	.L152
	.loc 1 1371 5 is_stmt 1
	.loc 1 1371 26 is_stmt 0
	ldr	r3, [r4, #136]
	.loc 1 1371 5
	cmp	r3, #2097152
	beq	.L153
	cmp	r3, #3145728
	beq	.L154
	cmp	r3, #1048576
	beq	.L248
	movs	r6, #1
.LVL216:
	mov	r5, r6
.LVL217:
.L152:
	.loc 1 1411 3 is_stmt 1
	.loc 1 1411 22 is_stmt 0
	ldr	r3, [r4]
	.loc 1 1411 6
	tst	r3, #65536
	beq	.L155
	.loc 1 1414 5 is_stmt 1
	.loc 1 1416 5
	.loc 1 1416 26 is_stmt 0
	ldr	r3, [r4, #80]
	.loc 1 1416 5
	cmp	r3, #0
	beq	.L156
	cmp	r3, #65536
	beq	.L157
	movs	r6, #1
.LVL218:
	mov	r5, r6
.LVL219:
.L155:
	.loc 1 1451 3 is_stmt 1
	.loc 1 1451 22 is_stmt 0
	ldr	r3, [r4]
	.loc 1 1451 6
	tst	r3, #536870912
	bne	.L249
.LVL220:
.L159:
	.loc 1 1461 3 is_stmt 1
	.loc 1 1461 22 is_stmt 0
	ldr	r3, [r4]
	.loc 1 1461 6
	tst	r3, #131072
	beq	.L160
	.loc 1 1464 5 is_stmt 1
	.loc 1 1464 26 is_stmt 0
	ldr	r3, [r4, #128]
	.loc 1 1464 5
	cmp	r3, #256
	beq	.L161
	bls	.L250
	cmp	r3, #512
	beq	.L163
	cmp	r3, #768
	bne	.L251
.L163:
	.loc 1 1492 5 is_stmt 1
	.loc 1 1492 8 is_stmt 0
	cmp	r5, #0
	bne	.L213
	.loc 1 1495 7 is_stmt 1
	.loc 1 1495 155 is_stmt 0
	ldr	r2, .L264
	ldr	r3, [r2, #84]
	.loc 1 1495 169
	bic	r3, r3, #768
	.loc 1 1495 220
	ldr	r1, [r4, #128]
	.loc 1 1495 193
	orrs	r3, r3, r1
	.loc 1 1495 85
	str	r3, [r2, #84]
	b	.L160
.L141:
	.loc 1 1235 9 is_stmt 1
	.loc 1 1235 15 is_stmt 0
	movs	r1, #2
	add	r0, r4, #40
	bl	RCCEx_PLL3_Config
.LVL221:
	mov	r5, r0
.LVL222:
	.loc 1 1238 9 is_stmt 1
	b	.L143
.L204:
	mov	r6, r5
.LVL223:
	b	.L140
.LVL224:
.L245:
	.loc 1 1297 7
	.loc 1 1297 11 is_stmt 0
	movs	r1, #2
	add	r0, r4, #40
	bl	RCCEx_PLL3_Config
.LVL225:
	.loc 1 1297 10
	cmp	r0, #0
	beq	.L146
	.loc 1 1299 16
	movs	r6, #1
.LVL226:
	b	.L146
.LVL227:
.L246:
	.loc 1 1316 7 is_stmt 1
	.loc 1 1316 11 is_stmt 0
	movs	r1, #2
	add	r0, r4, #40
	bl	RCCEx_PLL3_Config
.LVL228:
	.loc 1 1316 10
	cmp	r0, #0
	beq	.L148
	.loc 1 1318 16
	movs	r6, #1
.LVL229:
	b	.L148
.LVL230:
.L247:
	.loc 1 1334 9 is_stmt 1
	.loc 1 1334 15 is_stmt 0
	movs	r1, #0
	add	r0, r4, #8
	bl	RCCEx_PLL2_Config
.LVL231:
	mov	r5, r0
.LVL232:
	.loc 1 1337 9 is_stmt 1
.L151:
	.loc 1 1355 5
	.loc 1 1355 8 is_stmt 0
	cbnz	r5, .L208
	.loc 1 1358 7 is_stmt 1
	.loc 1 1358 154 is_stmt 0
	ldr	r2, .L264
	ldr	r3, [r2, #88]
	.loc 1 1358 167
	bic	r3, r3, #196608
	.loc 1 1358 219
	ldr	r1, [r4, #164]
	.loc 1 1358 192
	orrs	r3, r3, r1
	.loc 1 1358 84
	str	r3, [r2, #88]
	b	.L149
.L150:
	.loc 1 1340 9 is_stmt 1
	.loc 1 1340 15 is_stmt 0
	movs	r1, #2
	add	r0, r4, #40
	bl	RCCEx_PLL3_Config
.LVL233:
	mov	r5, r0
.LVL234:
	.loc 1 1343 9 is_stmt 1
	b	.L151
.L208:
	mov	r6, r5
.LVL235:
	b	.L149
.LVL236:
.L248:
	.loc 1 1375 9
	.loc 1 1375 73 is_stmt 0
	ldr	r2, .L264
	ldr	r3, [r2, #44]
	.loc 1 1375 84
	orr	r3, r3, #131072
	str	r3, [r2, #44]
	.loc 1 1378 9 is_stmt 1
.L154:
	.loc 1 1397 5
	.loc 1 1397 8 is_stmt 0
	cbnz	r5, .L210
	.loc 1 1400 7 is_stmt 1
	.loc 1 1400 155 is_stmt 0
	ldr	r2, .L264
	ldr	r3, [r2, #84]
	.loc 1 1400 169
	bic	r3, r3, #3145728
	.loc 1 1400 221
	ldr	r1, [r4, #136]
	.loc 1 1400 194
	orrs	r3, r3, r1
	.loc 1 1400 85
	str	r3, [r2, #84]
	b	.L152
.L153:
	.loc 1 1382 9 is_stmt 1
	.loc 1 1382 15 is_stmt 0
	movs	r1, #1
	add	r0, r4, #40
	bl	RCCEx_PLL3_Config
.LVL237:
	mov	r5, r0
.LVL238:
	.loc 1 1385 9 is_stmt 1
	b	.L154
.L210:
	mov	r6, r5
.LVL239:
	b	.L152
.LVL240:
.L156:
	.loc 1 1420 9
	.loc 1 1420 73 is_stmt 0
	ldr	r2, .L264
	ldr	r3, [r2, #44]
	.loc 1 1420 84
	orr	r3, r3, #131072
	str	r3, [r2, #44]
	.loc 1 1423 9 is_stmt 1
.L158:
	.loc 1 1437 5
	.loc 1 1437 8 is_stmt 0
	cbnz	r5, .L211
	.loc 1 1440 7 is_stmt 1
	.loc 1 1440 154 is_stmt 0
	ldr	r2, .L264
	ldr	r3, [r2, #76]
	.loc 1 1440 167
	bic	r3, r3, #65536
	.loc 1 1440 219
	ldr	r1, [r4, #80]
	.loc 1 1440 192
	orrs	r3, r3, r1
	.loc 1 1440 84
	str	r3, [r2, #76]
	b	.L155
.L157:
	.loc 1 1427 9 is_stmt 1
	.loc 1 1427 15 is_stmt 0
	movs	r1, #2
	add	r0, r4, #8
	bl	RCCEx_PLL2_Config
.LVL241:
	mov	r5, r0
.LVL242:
	.loc 1 1430 9 is_stmt 1
	b	.L158
.L211:
	mov	r6, r5
.LVL243:
	b	.L155
.LVL244:
.L249:
	.loc 1 1453 5
	.loc 1 1453 9 is_stmt 0
	movs	r1, #2
	add	r0, r4, #40
	bl	RCCEx_PLL3_Config
.LVL245:
	.loc 1 1453 8
	cmp	r0, #0
	beq	.L159
	.loc 1 1455 14
	movs	r6, #1
.LVL246:
	b	.L159
.L265:
	.align	2
.L264:
	.word	1476543488
.LVL247:
.L250:
	.loc 1 1464 5
	cmp	r3, #0
	beq	.L163
	movs	r6, #1
.LVL248:
.L160:
	.loc 1 1506 3 is_stmt 1
	.loc 1 1506 22 is_stmt 0
	ldr	r3, [r4]
	.loc 1 1506 6
	tst	r3, #1048576
	beq	.L164
	.loc 1 1509 5 is_stmt 1
	.loc 1 1512 5
	.loc 1 1512 153 is_stmt 0
	ldr	r2, .L266
	ldr	r3, [r2, #80]
	.loc 1 1512 167
	bic	r3, r3, #-2147483648
	.loc 1 1512 219
	ldr	r1, [r4, #116]
	.loc 1 1512 192
	orrs	r3, r3, r1
	.loc 1 1512 83
	str	r3, [r2, #80]
.L164:
	.loc 1 1516 3 is_stmt 1
	.loc 1 1516 22 is_stmt 0
	ldr	r3, [r4]
	.loc 1 1516 6
	tst	r3, #268435456
	beq	.L165
	.loc 1 1519 5 is_stmt 1
	.loc 1 1522 5
	.loc 1 1522 149 is_stmt 0
	ldr	r2, .L266
	ldr	r3, [r2, #16]
	.loc 1 1522 159
	bic	r3, r3, #16384
	.loc 1 1522 211
	ldr	r1, [r4, #184]
	.loc 1 1522 184
	orrs	r3, r3, r1
	.loc 1 1522 79
	str	r3, [r2, #16]
.L165:
	.loc 1 1526 3 is_stmt 1
	.loc 1 1526 22 is_stmt 0
	ldr	r3, [r4]
	.loc 1 1526 6
	tst	r3, #2097152
	beq	.L166
	.loc 1 1529 5 is_stmt 1
	.loc 1 1532 5
	.loc 1 1532 153 is_stmt 0
	ldr	r2, .L266
	ldr	r3, [r2, #80]
	.loc 1 1532 167
	bic	r3, r3, #16777216
	.loc 1 1532 219
	ldr	r1, [r4, #108]
	.loc 1 1532 192
	orrs	r3, r3, r1
	.loc 1 1532 83
	str	r3, [r2, #80]
.L166:
	.loc 1 1548 3 is_stmt 1
	.loc 1 1548 22 is_stmt 0
	ldr	r3, [r4]
	.loc 1 1548 6
	tst	r3, #1073741824
	beq	.L167
	.loc 1 1551 5 is_stmt 1
	.loc 1 1554 5
	.loc 1 1554 9
	.loc 1 1554 71 is_stmt 0
	ldr	r3, .L266
	ldr	r2, [r3, #16]
	.loc 1 1554 78
	bic	r2, r2, #32768
	str	r2, [r3, #16]
	.loc 1 1554 102 is_stmt 1
	.loc 1 1554 164 is_stmt 0
	ldr	r2, [r3, #16]
	.loc 1 1554 188
	ldr	r1, [r4, #188]
	.loc 1 1554 171
	orrs	r2, r2, r1
	str	r2, [r3, #16]
.L167:
	.loc 1 1554 8 is_stmt 1 discriminator 1
	.loc 1 1558 3 discriminator 1
	.loc 1 1558 22 is_stmt 0 discriminator 1
	ldr	r3, [r4]
	.loc 1 1558 6 discriminator 1
	cmp	r3, #0
	bge	.L168
	.loc 1 1561 5 is_stmt 1
	.loc 1 1564 5
	.loc 1 1564 152 is_stmt 0
	ldr	r2, .L266
	ldr	r3, [r2, #76]
	.loc 1 1564 165
	bic	r3, r3, #805306368
	.loc 1 1564 217
	ldr	r1, [r4, #84]
	.loc 1 1564 190
	orrs	r3, r3, r1
	.loc 1 1564 82
	str	r3, [r2, #76]
.L168:
	.loc 1 1568 3 is_stmt 1
	.loc 1 1568 22 is_stmt 0
	ldr	r3, [r4]
	.loc 1 1568 6
	tst	r3, #8388608
	beq	.L169
	.loc 1 1571 5 is_stmt 1
	.loc 1 1574 5
	.loc 1 1574 153 is_stmt 0
	ldr	r2, .L266
	ldr	r3, [r2, #84]
	.loc 1 1574 167
	bic	r3, r3, #12582912
	.loc 1 1574 219
	ldr	r1, [r4, #140]
	.loc 1 1574 192
	orrs	r3, r3, r1
	.loc 1 1574 83
	str	r3, [r2, #84]
.L169:
	.loc 1 1578 3 is_stmt 1
	.loc 1 1578 22 is_stmt 0
	ldr	r3, [r4, #4]
	.loc 1 1578 6
	tst	r3, #1
	bne	.L252
.LVL249:
.L170:
	.loc 1 1594 3 is_stmt 1
	.loc 1 1594 22 is_stmt 0
	ldr	r3, [r4, #4]
	.loc 1 1594 6
	tst	r3, #2
	bne	.L253
.LVL250:
.L171:
	.loc 1 1610 3 is_stmt 1
	.loc 1 1610 22 is_stmt 0
	ldr	r3, [r4, #4]
	.loc 1 1610 6
	tst	r3, #4
	bne	.L254
.LVL251:
.L172:
	.loc 1 1627 3 is_stmt 1
	.loc 1 1627 22 is_stmt 0
	ldr	r3, [r4, #4]
	.loc 1 1627 6
	tst	r3, #8
	bne	.L255
.LVL252:
.L173:
	.loc 1 1643 3 is_stmt 1
	.loc 1 1643 22 is_stmt 0
	ldr	r3, [r4, #4]
	.loc 1 1643 6
	tst	r3, #16
	bne	.L256
.LVL253:
.L174:
	.loc 1 1659 3 is_stmt 1
	.loc 1 1659 22 is_stmt 0
	ldr	r3, [r4, #4]
	.loc 1 1659 6
	tst	r3, #32
	bne	.L257
.L175:
	.loc 1 1674 3 is_stmt 1
	.loc 1 1674 6 is_stmt 0
	cbz	r6, .L176
	.loc 1 1678 10
	movs	r6, #1
.LVL254:
.L176:
	.loc 1 1679 1
	mov	r0, r6
	pop	{r3, r4, r5, r6, r7, pc}
.LVL255:
.L251:
	.loc 1 1464 5
	movs	r6, #1
.LVL256:
	b	.L160
.LVL257:
.L161:
	.loc 1 1468 9 is_stmt 1
	.loc 1 1468 73 is_stmt 0
	ldr	r2, .L266
	ldr	r3, [r2, #44]
	.loc 1 1468 84
	orr	r3, r3, #131072
	str	r3, [r2, #44]
	.loc 1 1471 9 is_stmt 1
	b	.L163
.L213:
	mov	r6, r5
.LVL258:
	b	.L160
.LVL259:
.L252:
	.loc 1 1580 5
	.loc 1 1580 11 is_stmt 0
	movs	r1, #0
	add	r0, r4, #8
	bl	RCCEx_PLL2_Config
.LVL260:
	.loc 1 1582 5 is_stmt 1
	.loc 1 1582 8 is_stmt 0
	cmp	r0, #0
	beq	.L170
	.loc 1 1589 14
	mov	r6, r0
.LVL261:
	b	.L170
.LVL262:
.L253:
	.loc 1 1596 5 is_stmt 1
	.loc 1 1596 11 is_stmt 0
	movs	r1, #1
	add	r0, r4, #8
	bl	RCCEx_PLL2_Config
.LVL263:
	.loc 1 1598 5 is_stmt 1
	.loc 1 1598 8 is_stmt 0
	cmp	r0, #0
	beq	.L171
	.loc 1 1605 14
	mov	r6, r0
.LVL264:
	b	.L171
.LVL265:
.L254:
	.loc 1 1612 5 is_stmt 1
	.loc 1 1612 11 is_stmt 0
	movs	r1, #2
	add	r0, r4, #8
	bl	RCCEx_PLL2_Config
.LVL266:
	.loc 1 1614 5 is_stmt 1
	.loc 1 1614 8 is_stmt 0
	cmp	r0, #0
	beq	.L172
	.loc 1 1621 14
	mov	r6, r0
.LVL267:
	b	.L172
.LVL268:
.L255:
	.loc 1 1629 5 is_stmt 1
	.loc 1 1629 11 is_stmt 0
	movs	r1, #0
	add	r0, r4, #40
	bl	RCCEx_PLL3_Config
.LVL269:
	.loc 1 1631 5 is_stmt 1
	.loc 1 1631 8 is_stmt 0
	cmp	r0, #0
	beq	.L173
	.loc 1 1638 14
	mov	r6, r0
.LVL270:
	b	.L173
.LVL271:
.L256:
	.loc 1 1645 5 is_stmt 1
	.loc 1 1645 11 is_stmt 0
	movs	r1, #1
	add	r0, r4, #40
	bl	RCCEx_PLL3_Config
.LVL272:
	.loc 1 1647 5 is_stmt 1
	.loc 1 1647 8 is_stmt 0
	cmp	r0, #0
	beq	.L174
	.loc 1 1654 14
	mov	r6, r0
.LVL273:
	b	.L174
.LVL274:
.L257:
	.loc 1 1661 5 is_stmt 1
	.loc 1 1661 11 is_stmt 0
	movs	r1, #2
	add	r0, r4, #40
	bl	RCCEx_PLL3_Config
.LVL275:
	.loc 1 1663 5 is_stmt 1
	.loc 1 1663 8 is_stmt 0
	cmp	r0, #0
	beq	.L175
	.loc 1 1678 10
	movs	r6, #1
.LVL276:
	b	.L176
.L267:
	.align	2
.L266:
	.word	1476543488
	.cfi_endproc
.LFE335:
	.size	HAL_RCCEx_PeriphCLKConfig, .-HAL_RCCEx_PeriphCLKConfig
	.section	.text.HAL_RCCEx_GetPeriphCLKConfig,"ax",%progbits
	.align	1
	.global	HAL_RCCEx_GetPeriphCLKConfig
	.syntax unified
	.thumb
	.thumb_func
	.type	HAL_RCCEx_GetPeriphCLKConfig, %function
HAL_RCCEx_GetPeriphCLKConfig:
.LFB336:
	.loc 1 1693 1 is_stmt 1
	.cfi_startproc
	@ args = 0, pretend = 0, frame = 0
	@ frame_needed = 0, uses_anonymous_args = 0
	@ link register save eliminated.
.LVL277:
	.loc 1 1695 3
	.loc 1 1695 39 is_stmt 0
	ldr	r2, .L271
	movs	r3, #0
	strd	r2, [r0]
	.loc 1 1707 3 is_stmt 1
	.loc 1 1707 39 is_stmt 0
	ldr	r2, .L271+4
	movs	r3, #0
	strd	r2, [r0]
	.loc 1 1716 3 is_stmt 1
	.loc 1 1716 39 is_stmt 0
	ldr	r2, .L271+8
	movs	r3, #0
	strd	r2, [r0]
	.loc 1 1719 3 is_stmt 1
	.loc 1 1719 39 is_stmt 0
	ldr	r2, .L271+12
	movs	r3, #0
	strd	r2, [r0]
	.loc 1 1720 3 is_stmt 1
	.loc 1 1720 39 is_stmt 0
	mvn	r2, #905969664
	movs	r3, #0
	strd	r2, [r0]
	.loc 1 1726 3 is_stmt 1
	.loc 1 1726 39 is_stmt 0
	mvn	r2, #872415232
	movs	r3, #0
	strd	r2, [r0]
	.loc 1 1732 3 is_stmt 1
	.loc 1 1732 39 is_stmt 0
	mvn	r2, #603979776
	movs	r3, #0
	strd	r2, [r0]
	.loc 1 1735 3 is_stmt 1
	.loc 1 1735 39 is_stmt 0
	mvn	r2, #67108864
	movs	r3, #0
	strd	r2, [r0]
	.loc 1 1742 3 is_stmt 1
	.loc 1 1742 105 is_stmt 0
	ldr	r3, .L271+16
	ldr	r2, [r3, #40]
	.loc 1 1742 31
	ubfx	r2, r2, #20, #6
	.loc 1 1742 29
	str	r2, [r0, #40]
	.loc 1 1743 3 is_stmt 1
	.loc 1 1743 105 is_stmt 0
	ldr	r2, [r3, #64]
	.loc 1 1743 31
	ubfx	r2, r2, #0, #9
	.loc 1 1743 146
	adds	r2, r2, #1
	.loc 1 1743 29
	str	r2, [r0, #44]
	.loc 1 1744 3 is_stmt 1
	.loc 1 1744 105 is_stmt 0
	ldr	r2, [r3, #64]
	.loc 1 1744 31
	ubfx	r2, r2, #24, #7
	.loc 1 1744 147
	adds	r2, r2, #1
	.loc 1 1744 29
	str	r2, [r0, #56]
	.loc 1 1745 3 is_stmt 1
	.loc 1 1745 105 is_stmt 0
	ldr	r2, [r3, #64]
	.loc 1 1745 31
	ubfx	r2, r2, #9, #7
	.loc 1 1745 145
	adds	r2, r2, #1
	.loc 1 1745 29
	str	r2, [r0, #48]
	.loc 1 1746 3 is_stmt 1
	.loc 1 1746 105 is_stmt 0
	ldr	r2, [r3, #64]
	.loc 1 1746 31
	ubfx	r2, r2, #16, #7
	.loc 1 1746 147
	adds	r2, r2, #1
	.loc 1 1746 29
	str	r2, [r0, #52]
	.loc 1 1747 3 is_stmt 1
	.loc 1 1747 107 is_stmt 0
	ldr	r2, [r3, #44]
	.loc 1 1747 33
	ubfx	r2, r2, #10, #2
	.loc 1 1747 31
	str	r2, [r0, #60]
	.loc 1 1748 3 is_stmt 1
	.loc 1 1748 110 is_stmt 0
	ldr	r2, [r3, #44]
	.loc 1 1748 36
	ubfx	r2, r2, #9, #1
	.loc 1 1748 34
	str	r2, [r0, #64]
	.loc 1 1751 3 is_stmt 1
	.loc 1 1751 105 is_stmt 0
	ldr	r2, [r3, #40]
	.loc 1 1751 31
	ubfx	r2, r2, #12, #6
	.loc 1 1751 29
	str	r2, [r0, #8]
	.loc 1 1752 3 is_stmt 1
	.loc 1 1752 105 is_stmt 0
	ldr	r2, [r3, #56]
	.loc 1 1752 31
	ubfx	r2, r2, #0, #9
	.loc 1 1752 146
	adds	r2, r2, #1
	.loc 1 1752 29
	str	r2, [r0, #12]
	.loc 1 1753 3 is_stmt 1
	.loc 1 1753 105 is_stmt 0
	ldr	r2, [r3, #56]
	.loc 1 1753 31
	ubfx	r2, r2, #24, #7
	.loc 1 1753 147
	adds	r2, r2, #1
	.loc 1 1753 29
	str	r2, [r0, #24]
	.loc 1 1754 3 is_stmt 1
	.loc 1 1754 105 is_stmt 0
	ldr	r2, [r3, #56]
	.loc 1 1754 31
	ubfx	r2, r2, #9, #7
	.loc 1 1754 145
	adds	r2, r2, #1
	.loc 1 1754 29
	str	r2, [r0, #16]
	.loc 1 1755 3 is_stmt 1
	.loc 1 1755 105 is_stmt 0
	ldr	r2, [r3, #56]
	.loc 1 1755 31
	ubfx	r2, r2, #16, #7
	.loc 1 1755 147
	adds	r2, r2, #1
	.loc 1 1755 29
	str	r2, [r0, #20]
	.loc 1 1756 3 is_stmt 1
	.loc 1 1756 107 is_stmt 0
	ldr	r2, [r3, #44]
	.loc 1 1756 33
	ubfx	r2, r2, #6, #2
	.loc 1 1756 31
	str	r2, [r0, #28]
	.loc 1 1757 3 is_stmt 1
	.loc 1 1757 110 is_stmt 0
	ldr	r2, [r3, #44]
	.loc 1 1757 36
	ubfx	r2, r2, #5, #1
	.loc 1 1757 34
	str	r2, [r0, #32]
	.loc 1 1760 3 is_stmt 1
	.loc 1 1760 118 is_stmt 0
	ldr	r2, [r3, #84]
	.loc 1 1760 43
	and	r2, r2, #56
	.loc 1 1760 40
	str	r2, [r0, #124]
	.loc 1 1762 3 is_stmt 1
	.loc 1 1762 122 is_stmt 0
	ldr	r2, [r3, #84]
	.loc 1 1762 47
	and	r2, r2, #7
	.loc 1 1762 44
	str	r2, [r0, #120]
	.loc 1 1764 3 is_stmt 1
	.loc 1 1764 118 is_stmt 0
	ldr	r2, [r3, #88]
	.loc 1 1764 43
	and	r2, r2, #7
	.loc 1 1764 40
	str	r2, [r0, #148]
	.loc 1 1770 3 is_stmt 1
	.loc 1 1770 117 is_stmt 0
	ldr	r2, [r3, #84]
	.loc 1 1770 42
	and	r2, r2, #12288
	.loc 1 1770 39
	str	r2, [r0, #132]
	.loc 1 1773 3 is_stmt 1
	.loc 1 1773 117 is_stmt 0
	ldr	r2, [r3, #84]
	.loc 1 1773 42
	and	r2, r2, #1879048192
	.loc 1 1773 39
	str	r2, [r0, #144]
	.loc 1 1775 3 is_stmt 1
	.loc 1 1775 117 is_stmt 0
	ldr	r2, [r3, #88]
	.loc 1 1775 42
	and	r2, r2, #7168
	.loc 1 1775 39
	str	r2, [r0, #156]
	.loc 1 1777 3 is_stmt 1
	.loc 1 1777 119 is_stmt 0
	ldr	r2, [r3, #88]
	.loc 1 1777 44
	and	r2, r2, #57344
	.loc 1 1777 41
	str	r2, [r0, #160]
	.loc 1 1779 3 is_stmt 1
	.loc 1 1779 115 is_stmt 0
	ldr	r2, [r3, #80]
	.loc 1 1779 40
	and	r2, r2, #7
	.loc 1 1779 37
	str	r2, [r0, #88]
	.loc 1 1782 3 is_stmt 1
	.loc 1 1782 116 is_stmt 0
	ldr	r2, [r3, #80]
	.loc 1 1782 41
	and	r2, r2, #448
	.loc 1 1782 38
	str	r2, [r0, #92]
	.loc 1 1794 3 is_stmt 1
	.loc 1 1794 116 is_stmt 0
	ldr	r2, [r3, #88]
	.loc 1 1794 41
	and	r2, r2, #14680064
	.loc 1 1794 38
	str	r2, [r0, #168]
	.loc 1 1796 3 is_stmt 1
	.loc 1 1796 116 is_stmt 0
	ldr	r2, [r3, #88]
	.loc 1 1796 41
	and	r2, r2, #117440512
	.loc 1 1796 38
	str	r2, [r0, #172]
	.loc 1 1799 3 is_stmt 1
	.loc 1 1799 114 is_stmt 0
	ldr	r2, [r3, #112]
	.loc 1 1799 39
	and	r2, r2, #768
	.loc 1 1799 36
	str	r2, [r0, #180]
	.loc 1 1801 3 is_stmt 1
	.loc 1 1801 114 is_stmt 0
	ldr	r2, [r3, #84]
	.loc 1 1801 39
	and	r2, r2, #3145728
	.loc 1 1801 36
	str	r2, [r0, #136]
	.loc 1 1803 3 is_stmt 1
	.loc 1 1803 116 is_stmt 0
	ldr	r2, [r3, #76]
	.loc 1 1803 41
	and	r2, r2, #65536
	.loc 1 1803 38
	str	r2, [r0, #80]
	.loc 1 1805 3 is_stmt 1
	.loc 1 1805 114 is_stmt 0
	ldr	r2, [r3, #84]
	.loc 1 1805 39
	and	r2, r2, #768
	.loc 1 1805 36
	str	r2, [r0, #128]
	.loc 1 1808 3 is_stmt 1
	.loc 1 1808 117 is_stmt 0
	ldr	r2, [r3, #16]
	.loc 1 1808 42
	and	r2, r2, #16384
	.loc 1 1808 39
	str	r2, [r0, #184]
	.loc 1 1811 3 is_stmt 1
	.loc 1 1811 114 is_stmt 0
	ldr	r2, [r3, #88]
	.loc 1 1811 39
	and	r2, r2, #196608
	.loc 1 1811 36
	str	r2, [r0, #164]
	.loc 1 1813 3 is_stmt 1
	.loc 1 1813 117 is_stmt 0
	ldr	r2, [r3, #80]
	.loc 1 1813 42
	and	r2, r2, #-2147483648
	.loc 1 1813 39
	str	r2, [r0, #116]
	.loc 1 1815 3 is_stmt 1
	.loc 1 1815 117 is_stmt 0
	ldr	r2, [r3, #80]
	.loc 1 1815 42
	and	r2, r2, #16777216
	.loc 1 1815 39
	str	r2, [r0, #108]
	.loc 1 1821 3 is_stmt 1
	.loc 1 1821 118 is_stmt 0
	ldr	r2, [r3, #80]
	.loc 1 1821 43
	and	r2, r2, #3145728
	.loc 1 1821 40
	str	r2, [r0, #104]
	.loc 1 1823 3 is_stmt 1
	.loc 1 1823 117 is_stmt 0
	ldr	r2, [r3, #80]
	.loc 1 1823 42
	and	r2, r2, #28672
	.loc 1 1823 39
	str	r2, [r0, #96]
	.loc 1 1825 3 is_stmt 1
	.loc 1 1825 116 is_stmt 0
	ldr	r2, [r3, #80]
	.loc 1 1825 41
	and	r2, r2, #458752
	.loc 1 1825 38
	str	r2, [r0, #100]
	.loc 1 1827 3 is_stmt 1
	.loc 1 1827 115 is_stmt 0
	ldr	r2, [r3, #88]
	.loc 1 1827 40
	and	r2, r2, #1879048192
	.loc 1 1827 37
	str	r2, [r0, #176]
	.loc 1 1829 3 is_stmt 1
	.loc 1 1829 116 is_stmt 0
	ldr	r2, [r3, #80]
	.loc 1 1829 41
	and	r2, r2, #805306368
	.loc 1 1829 38
	str	r2, [r0, #112]
	.loc 1 1831 3 is_stmt 1
	.loc 1 1831 114 is_stmt 0
	ldr	r2, [r3, #84]
	.loc 1 1831 39
	and	r2, r2, #12582912
	.loc 1 1831 36
	str	r2, [r0, #140]
	.loc 1 1833 3 is_stmt 1
	.loc 1 1833 114 is_stmt 0
	ldr	r2, [r3, #76]
	.loc 1 1833 39
	and	r2, r2, #3
	.loc 1 1833 36
	str	r2, [r0, #72]
	.loc 1 1836 3 is_stmt 1
	.loc 1 1836 115 is_stmt 0
	ldr	r2, [r3, #76]
	.loc 1 1836 40
	and	r2, r2, #48
	.loc 1 1836 37
	str	r2, [r0, #76]
	.loc 1 1849 3 is_stmt 1
	.loc 1 1849 116 is_stmt 0
	ldr	r2, [r3, #76]
	.loc 1 1849 41
	and	r2, r2, #805306368
	.loc 1 1849 38
	str	r2, [r0, #84]
	.loc 1 1852 3 is_stmt 1
	.loc 1 1852 70 is_stmt 0
	ldr	r3, [r3, #16]
	.loc 1 1852 6
	tst	r3, #32768
	bne	.L269
	.loc 1 1854 5 is_stmt 1
	.loc 1 1854 37 is_stmt 0
	movs	r3, #0
	str	r3, [r0, #188]
	bx	lr
.L269:
	.loc 1 1858 5 is_stmt 1
	.loc 1 1858 37 is_stmt 0
	mov	r3, #32768
	str	r3, [r0, #188]
	.loc 1 1860 1
	bx	lr
.L272:
	.align	2
.L271:
	.word	-905973257
	.word	-905973249
	.word	-905972737
	.word	-905971713
	.word	1476543488
	.cfi_endproc
.LFE336:
	.size	HAL_RCCEx_GetPeriphCLKConfig, .-HAL_RCCEx_GetPeriphCLKConfig
	.section	.text.HAL_RCCEx_GetD1PCLK1Freq,"ax",%progbits
	.align	1
	.global	HAL_RCCEx_GetD1PCLK1Freq
	.syntax unified
	.thumb
	.thumb_func
	.type	HAL_RCCEx_GetD1PCLK1Freq, %function
HAL_RCCEx_GetD1PCLK1Freq:
.LFB338:
	.loc 1 2905 1 is_stmt 1
	.cfi_startproc
	@ args = 0, pretend = 0, frame = 0
	@ frame_needed = 0, uses_anonymous_args = 0
	push	{r3, lr}
	.cfi_def_cfa_offset 8
	.cfi_offset 3, -8
	.cfi_offset 14, -4
	.loc 1 2908 3
	.loc 1 2908 11 is_stmt 0
	bl	HAL_RCC_GetHCLKFreq
.LVL278:
	.loc 1 2908 117
	ldr	r3, .L275
	ldr	r3, [r3, #24]
	.loc 1 2908 145
	ubfx	r3, r3, #4, #3
	.loc 1 2908 53
	ldr	r2, .L275+4
	ldrb	r3, [r2, r3]	@ zero_extendqisi2
	.loc 1 2908 154
	and	r3, r3, #31
	.loc 1 2913 1
	lsrs	r0, r0, r3
	pop	{r3, pc}
.L276:
	.align	2
.L275:
	.word	1476543488
	.word	D1CorePrescTable
	.cfi_endproc
.LFE338:
	.size	HAL_RCCEx_GetD1PCLK1Freq, .-HAL_RCCEx_GetD1PCLK1Freq
	.section	.text.HAL_RCCEx_GetD3PCLK1Freq,"ax",%progbits
	.align	1
	.global	HAL_RCCEx_GetD3PCLK1Freq
	.syntax unified
	.thumb
	.thumb_func
	.type	HAL_RCCEx_GetD3PCLK1Freq, %function
HAL_RCCEx_GetD3PCLK1Freq:
.LFB339:
	.loc 1 2922 1 is_stmt 1
	.cfi_startproc
	@ args = 0, pretend = 0, frame = 0
	@ frame_needed = 0, uses_anonymous_args = 0
	push	{r3, lr}
	.cfi_def_cfa_offset 8
	.cfi_offset 3, -8
	.cfi_offset 14, -4
	.loc 1 2925 3
	.loc 1 2925 11 is_stmt 0
	bl	HAL_RCC_GetHCLKFreq
.LVL279:
	.loc 1 2925 117
	ldr	r3, .L279
	ldr	r3, [r3, #32]
	.loc 1 2925 145
	ubfx	r3, r3, #4, #3
	.loc 1 2925 53
	ldr	r2, .L279+4
	ldrb	r3, [r2, r3]	@ zero_extendqisi2
	.loc 1 2925 154
	and	r3, r3, #31
	.loc 1 2930 1
	lsrs	r0, r0, r3
	pop	{r3, pc}
.L280:
	.align	2
.L279:
	.word	1476543488
	.word	D1CorePrescTable
	.cfi_endproc
.LFE339:
	.size	HAL_RCCEx_GetD3PCLK1Freq, .-HAL_RCCEx_GetD3PCLK1Freq
	.section	.text.HAL_RCCEx_GetPLL2ClockFreq,"ax",%progbits
	.align	1
	.global	HAL_RCCEx_GetPLL2ClockFreq
	.syntax unified
	.thumb
	.thumb_func
	.type	HAL_RCCEx_GetPLL2ClockFreq, %function
HAL_RCCEx_GetPLL2ClockFreq:
.LFB340:
	.loc 1 2946 1 is_stmt 1
	.cfi_startproc
	@ args = 0, pretend = 0, frame = 0
	@ frame_needed = 0, uses_anonymous_args = 0
	@ link register save eliminated.
.LVL280:
	push	{r4}
	.cfi_def_cfa_offset 4
	.cfi_offset 4, -4
	.loc 1 2947 3
	.loc 1 2948 3
	.loc 1 2953 3
	.loc 1 2953 78 is_stmt 0
	ldr	r3, .L291
	ldr	r2, [r3, #40]
.LVL281:
	.loc 1 2954 3 is_stmt 1
	.loc 1 2954 75 is_stmt 0
	ldr	r4, [r3, #40]
	.loc 1 2954 9
	ubfx	ip, r4, #12, #6
.LVL282:
	.loc 1 2955 3 is_stmt 1
	.loc 1 2955 79 is_stmt 0
	ldr	r1, [r3, #44]
	.loc 1 2955 14
	ubfx	r1, r1, #4, #1
.LVL283:
	.loc 1 2956 3 is_stmt 1
	.loc 1 2956 109 is_stmt 0
	ldr	r3, [r3, #60]
	.loc 1 2956 143
	ubfx	r3, r3, #3, #13
	.loc 1 2956 21
	mul	r3, r1, r3
.LVL284:
	.loc 1 2958 3 is_stmt 1
	.loc 1 2958 6 is_stmt 0
	tst	r4, #258048
	beq	.L282
	and	r2, r2, #3
.LVL285:
	vmov	s15, r3	@ int
	vcvt.f32.u32	s15, s15
	.loc 1 2960 5 is_stmt 1
	cmp	r2, #1
	beq	.L283
	cmp	r2, #2
	beq	.L284
	cbz	r2, .L290
	.loc 1 2985 9
	.loc 1 2985 43 is_stmt 0
	vmov	s14, ip	@ int
	vcvt.f32.u32	s13, s14
	.loc 1 2985 41
	vldr.32	s12, .L291+4
	vdiv.f32	s14, s12, s13
	.loc 1 2985 144
	ldr	r3, .L291
.LVL286:
	ldr	r3, [r3, #56]
	.loc 1 2985 71
	ubfx	r3, r3, #0, #9
	.loc 1 2985 62
	vmov	s13, r3	@ int
	vcvt.f32.u32	s13, s13
	.loc 1 2985 186
	vldr.32	s12, .L291+8
	vmul.f32	s15, s15, s12
	.loc 1 2985 176
	vadd.f32	s15, s13, s15
	.loc 1 2985 205
	vmov.f32	s13, #1.0e+0
	vadd.f32	s15, s15, s13
	.loc 1 2985 17
	vmul.f32	s14, s14, s15
.LVL287:
	.loc 1 2986 9 is_stmt 1
	b	.L287
.LVL288:
.L290:
	.loc 1 2965 9
	.loc 1 2965 114 is_stmt 0
	ldr	r3, .L291
.LVL289:
	ldr	r3, [r3]
	.loc 1 2965 12
	tst	r3, #32
	beq	.L286
	.loc 1 2967 11 is_stmt 1
	.loc 1 2967 116 is_stmt 0
	ldr	r1, .L291
.LVL290:
	ldr	r2, [r1]
.LVL291:
	.loc 1 2967 145
	ubfx	r2, r2, #3, #2
	.loc 1 2967 20
	ldr	r3, .L291+12
	lsrs	r3, r3, r2
.LVL292:
	.loc 1 2968 11 is_stmt 1
	.loc 1 2968 22 is_stmt 0
	vmov	s14, r3	@ int
	vcvt.f32.u32	s13, s14
	.loc 1 2968 42
	vmov	s14, ip	@ int
	vcvt.f32.u32	s12, s14
	.loc 1 2968 40
	vdiv.f32	s14, s13, s12
	.loc 1 2968 143
	ldr	r3, [r1, #56]
.LVL293:
	.loc 1 2968 70
	ubfx	r3, r3, #0, #9
	.loc 1 2968 61
	vmov	s13, r3	@ int
	vcvt.f32.u32	s13, s13
	.loc 1 2968 185
	vldr.32	s12, .L291+8
	vmul.f32	s15, s15, s12
	.loc 1 2968 175
	vadd.f32	s15, s13, s15
	.loc 1 2968 204
	vmov.f32	s13, #1.0e+0
	vadd.f32	s15, s15, s13
	.loc 1 2968 19
	vmul.f32	s14, s14, s15
.LVL294:
	b	.L287
.LVL295:
.L286:
	.loc 1 2972 11 is_stmt 1
	.loc 1 2972 46 is_stmt 0
	vmov	s14, ip	@ int
	vcvt.f32.u32	s13, s14
	.loc 1 2972 44
	vldr.32	s12, .L291+16
	vdiv.f32	s14, s12, s13
	.loc 1 2972 147
	ldr	r3, .L291
	ldr	r3, [r3, #56]
	.loc 1 2972 74
	ubfx	r3, r3, #0, #9
	.loc 1 2972 65
	vmov	s13, r3	@ int
	vcvt.f32.u32	s13, s13
	.loc 1 2972 189
	vldr.32	s12, .L291+8
	vmul.f32	s15, s15, s12
	.loc 1 2972 179
	vadd.f32	s15, s13, s15
	.loc 1 2972 208
	vmov.f32	s13, #1.0e+0
	vadd.f32	s15, s15, s13
	.loc 1 2972 19
	vmul.f32	s14, s14, s15
.LVL296:
	b	.L287
.LVL297:
.L283:
	.loc 1 2977 9 is_stmt 1
	.loc 1 2977 43 is_stmt 0
	vmov	s14, ip	@ int
	vcvt.f32.u32	s13, s14
	.loc 1 2977 41
	vldr.32	s12, .L291+4
	vdiv.f32	s14, s12, s13
	.loc 1 2977 144
	ldr	r3, .L291
.LVL298:
	ldr	r3, [r3, #56]
	.loc 1 2977 71
	ubfx	r3, r3, #0, #9
	.loc 1 2977 62
	vmov	s13, r3	@ int
	vcvt.f32.u32	s13, s13
	.loc 1 2977 186
	vldr.32	s12, .L291+8
	vmul.f32	s15, s15, s12
	.loc 1 2977 176
	vadd.f32	s15, s13, s15
	.loc 1 2977 205
	vmov.f32	s13, #1.0e+0
	vadd.f32	s15, s15, s13
	.loc 1 2977 17
	vmul.f32	s14, s14, s15
.LVL299:
	.loc 1 2978 9 is_stmt 1
.L287:
	.loc 1 2988 5
	.loc 1 2988 151 is_stmt 0
	ldr	r2, .L291
	ldr	r3, [r2, #56]
	.loc 1 2988 77
	ubfx	r3, r3, #9, #7
	vmov	s15, r3	@ int
	.loc 1 2988 68
	vcvt.f32.u32	s15, s15
	.loc 1 2988 188
	vmov.f32	s13, #1.0e+0
	vadd.f32	s15, s15, s13
	.loc 1 2988 47
	vdiv.f32	s12, s14, s15
	.loc 1 2988 37
	vcvt.u32.f32	s12, s12
	.loc 1 2988 35
	vstr.32	s12, [r0]	@ int
	.loc 1 2989 5 is_stmt 1
	.loc 1 2989 151 is_stmt 0
	ldr	r3, [r2, #56]
	.loc 1 2989 77
	ubfx	r3, r3, #16, #7
	vmov	s15, r3	@ int
	.loc 1 2989 68
	vcvt.f32.u32	s15, s15
	.loc 1 2989 190
	vadd.f32	s15, s15, s13
	.loc 1 2989 47
	vdiv.f32	s12, s14, s15
	.loc 1 2989 37
	vcvt.u32.f32	s12, s12
	.loc 1 2989 35
	vstr.32	s12, [r0, #4]	@ int
	.loc 1 2990 5 is_stmt 1
	.loc 1 2990 151 is_stmt 0
	ldr	r3, [r2, #56]
	.loc 1 2990 77
	ubfx	r3, r3, #24, #7
	vmov	s15, r3	@ int
	.loc 1 2990 68
	vcvt.f32.u32	s15, s15
	.loc 1 2990 190
	vadd.f32	s15, s15, s13
	.loc 1 2990 47
	vdiv.f32	s13, s14, s15
	.loc 1 2990 37
	vcvt.u32.f32	s13, s13
	.loc 1 2990 35
	vstr.32	s13, [r0, #8]	@ int
.LVL300:
.L281:
	.loc 1 2998 1
	ldr	r4, [sp], #4
	.cfi_remember_state
	.cfi_restore 4
	.cfi_def_cfa_offset 0
	bx	lr
.LVL301:
.L284:
	.cfi_restore_state
	.loc 1 2981 9 is_stmt 1
	.loc 1 2981 44 is_stmt 0
	vmov	s14, ip	@ int
	vcvt.f32.u32	s13, s14
	.loc 1 2981 42
	vldr.32	s12, .L291+20
	vdiv.f32	s14, s12, s13
	.loc 1 2981 145
	ldr	r3, .L291
.LVL302:
	ldr	r3, [r3, #56]
	.loc 1 2981 72
	ubfx	r3, r3, #0, #9
	.loc 1 2981 63
	vmov	s13, r3	@ int
	vcvt.f32.u32	s13, s13
	.loc 1 2981 187
	vldr.32	s12, .L291+8
	vmul.f32	s15, s15, s12
	.loc 1 2981 177
	vadd.f32	s15, s13, s15
	.loc 1 2981 206
	vmov.f32	s13, #1.0e+0
	vadd.f32	s15, s15, s13
	.loc 1 2981 17
	vmul.f32	s14, s14, s15
.LVL303:
	.loc 1 2982 9 is_stmt 1
	b	.L287
.LVL304:
.L282:
	.loc 1 2994 5
	.loc 1 2994 35 is_stmt 0
	movs	r3, #0
.LVL305:
	str	r3, [r0]
	.loc 1 2995 5 is_stmt 1
	.loc 1 2995 35 is_stmt 0
	str	r3, [r0, #4]
	.loc 1 2996 5 is_stmt 1
	.loc 1 2996 35 is_stmt 0
	str	r3, [r0, #8]
	.loc 1 2998 1
	b	.L281
.L292:
	.align	2
.L291:
	.word	1476543488
	.word	1249125376
	.word	956301312
	.word	64000000
	.word	1282679808
	.word	1270791200
	.cfi_endproc
.LFE340:
	.size	HAL_RCCEx_GetPLL2ClockFreq, .-HAL_RCCEx_GetPLL2ClockFreq
	.section	.text.HAL_RCCEx_GetPLL3ClockFreq,"ax",%progbits
	.align	1
	.global	HAL_RCCEx_GetPLL3ClockFreq
	.syntax unified
	.thumb
	.thumb_func
	.type	HAL_RCCEx_GetPLL3ClockFreq, %function
HAL_RCCEx_GetPLL3ClockFreq:
.LFB341:
	.loc 1 3015 1 is_stmt 1
	.cfi_startproc
	@ args = 0, pretend = 0, frame = 0
	@ frame_needed = 0, uses_anonymous_args = 0
	@ link register save eliminated.
.LVL306:
	push	{r4}
	.cfi_def_cfa_offset 4
	.cfi_offset 4, -4
	.loc 1 3016 3
	.loc 1 3017 3
	.loc 1 3022 3
	.loc 1 3022 78 is_stmt 0
	ldr	r3, .L303
	ldr	r2, [r3, #40]
.LVL307:
	.loc 1 3023 3 is_stmt 1
	.loc 1 3023 75 is_stmt 0
	ldr	r4, [r3, #40]
	.loc 1 3023 9
	ubfx	ip, r4, #20, #6
.LVL308:
	.loc 1 3024 3 is_stmt 1
	.loc 1 3024 79 is_stmt 0
	ldr	r1, [r3, #44]
	.loc 1 3024 14
	ubfx	r1, r1, #8, #1
.LVL309:
	.loc 1 3025 3 is_stmt 1
	.loc 1 3025 109 is_stmt 0
	ldr	r3, [r3, #68]
	.loc 1 3025 143
	ubfx	r3, r3, #3, #13
	.loc 1 3025 21
	mul	r3, r1, r3
.LVL310:
	.loc 1 3027 3 is_stmt 1
	.loc 1 3027 6 is_stmt 0
	tst	r4, #66060288
	beq	.L294
	and	r2, r2, #3
.LVL311:
	vmov	s15, r3	@ int
	vcvt.f32.u32	s15, s15
	.loc 1 3029 5 is_stmt 1
	cmp	r2, #1
	beq	.L295
	cmp	r2, #2
	beq	.L296
	cbz	r2, .L302
	.loc 1 3052 9
	.loc 1 3052 43 is_stmt 0
	vmov	s14, ip	@ int
	vcvt.f32.u32	s13, s14
	.loc 1 3052 41
	vldr.32	s12, .L303+4
	vdiv.f32	s14, s12, s13
	.loc 1 3052 144
	ldr	r3, .L303
.LVL312:
	ldr	r3, [r3, #64]
	.loc 1 3052 71
	ubfx	r3, r3, #0, #9
	.loc 1 3052 62
	vmov	s13, r3	@ int
	vcvt.f32.u32	s13, s13
	.loc 1 3052 186
	vldr.32	s12, .L303+8
	vmul.f32	s15, s15, s12
	.loc 1 3052 176
	vadd.f32	s15, s13, s15
	.loc 1 3052 205
	vmov.f32	s13, #1.0e+0
	vadd.f32	s15, s15, s13
	.loc 1 3052 17
	vmul.f32	s14, s14, s15
.LVL313:
	.loc 1 3053 9 is_stmt 1
	b	.L299
.LVL314:
.L302:
	.loc 1 3033 9
	.loc 1 3033 114 is_stmt 0
	ldr	r3, .L303
.LVL315:
	ldr	r3, [r3]
	.loc 1 3033 12
	tst	r3, #32
	beq	.L298
	.loc 1 3035 11 is_stmt 1
	.loc 1 3035 116 is_stmt 0
	ldr	r1, .L303
.LVL316:
	ldr	r2, [r1]
.LVL317:
	.loc 1 3035 145
	ubfx	r2, r2, #3, #2
	.loc 1 3035 20
	ldr	r3, .L303+12
	lsrs	r3, r3, r2
.LVL318:
	.loc 1 3036 11 is_stmt 1
	.loc 1 3036 22 is_stmt 0
	vmov	s14, r3	@ int
	vcvt.f32.u32	s13, s14
	.loc 1 3036 42
	vmov	s14, ip	@ int
	vcvt.f32.u32	s12, s14
	.loc 1 3036 40
	vdiv.f32	s14, s13, s12
	.loc 1 3036 143
	ldr	r3, [r1, #64]
.LVL319:
	.loc 1 3036 70
	ubfx	r3, r3, #0, #9
	.loc 1 3036 61
	vmov	s13, r3	@ int
	vcvt.f32.u32	s13, s13
	.loc 1 3036 185
	vldr.32	s12, .L303+8
	vmul.f32	s15, s15, s12
	.loc 1 3036 175
	vadd.f32	s15, s13, s15
	.loc 1 3036 204
	vmov.f32	s13, #1.0e+0
	vadd.f32	s15, s15, s13
	.loc 1 3036 19
	vmul.f32	s14, s14, s15
.LVL320:
	b	.L299
.LVL321:
.L298:
	.loc 1 3040 11 is_stmt 1
	.loc 1 3040 46 is_stmt 0
	vmov	s14, ip	@ int
	vcvt.f32.u32	s13, s14
	.loc 1 3040 44
	vldr.32	s12, .L303+16
	vdiv.f32	s14, s12, s13
	.loc 1 3040 147
	ldr	r3, .L303
	ldr	r3, [r3, #64]
	.loc 1 3040 74
	ubfx	r3, r3, #0, #9
	.loc 1 3040 65
	vmov	s13, r3	@ int
	vcvt.f32.u32	s13, s13
	.loc 1 3040 189
	vldr.32	s12, .L303+8
	vmul.f32	s15, s15, s12
	.loc 1 3040 179
	vadd.f32	s15, s13, s15
	.loc 1 3040 208
	vmov.f32	s13, #1.0e+0
	vadd.f32	s15, s15, s13
	.loc 1 3040 19
	vmul.f32	s14, s14, s15
.LVL322:
	b	.L299
.LVL323:
.L295:
	.loc 1 3044 9 is_stmt 1
	.loc 1 3044 43 is_stmt 0
	vmov	s14, ip	@ int
	vcvt.f32.u32	s13, s14
	.loc 1 3044 41
	vldr.32	s12, .L303+4
	vdiv.f32	s14, s12, s13
	.loc 1 3044 144
	ldr	r3, .L303
.LVL324:
	ldr	r3, [r3, #64]
	.loc 1 3044 71
	ubfx	r3, r3, #0, #9
	.loc 1 3044 62
	vmov	s13, r3	@ int
	vcvt.f32.u32	s13, s13
	.loc 1 3044 186
	vldr.32	s12, .L303+8
	vmul.f32	s15, s15, s12
	.loc 1 3044 176
	vadd.f32	s15, s13, s15
	.loc 1 3044 205
	vmov.f32	s13, #1.0e+0
	vadd.f32	s15, s15, s13
	.loc 1 3044 17
	vmul.f32	s14, s14, s15
.LVL325:
	.loc 1 3045 9 is_stmt 1
.L299:
	.loc 1 3055 5
	.loc 1 3055 151 is_stmt 0
	ldr	r2, .L303
	ldr	r3, [r2, #64]
	.loc 1 3055 77
	ubfx	r3, r3, #9, #7
	vmov	s15, r3	@ int
	.loc 1 3055 68
	vcvt.f32.u32	s15, s15
	.loc 1 3055 188
	vmov.f32	s13, #1.0e+0
	vadd.f32	s15, s15, s13
	.loc 1 3055 47
	vdiv.f32	s12, s14, s15
	.loc 1 3055 37
	vcvt.u32.f32	s12, s12
	.loc 1 3055 35
	vstr.32	s12, [r0]	@ int
	.loc 1 3056 5 is_stmt 1
	.loc 1 3056 151 is_stmt 0
	ldr	r3, [r2, #64]
	.loc 1 3056 77
	ubfx	r3, r3, #16, #7
	vmov	s15, r3	@ int
	.loc 1 3056 68
	vcvt.f32.u32	s15, s15
	.loc 1 3056 190
	vadd.f32	s15, s15, s13
	.loc 1 3056 47
	vdiv.f32	s12, s14, s15
	.loc 1 3056 37
	vcvt.u32.f32	s12, s12
	.loc 1 3056 35
	vstr.32	s12, [r0, #4]	@ int
	.loc 1 3057 5 is_stmt 1
	.loc 1 3057 151 is_stmt 0
	ldr	r3, [r2, #64]
	.loc 1 3057 77
	ubfx	r3, r3, #24, #7
	vmov	s15, r3	@ int
	.loc 1 3057 68
	vcvt.f32.u32	s15, s15
	.loc 1 3057 190
	vadd.f32	s15, s15, s13
	.loc 1 3057 47
	vdiv.f32	s13, s14, s15
	.loc 1 3057 37
	vcvt.u32.f32	s13, s13
	.loc 1 3057 35
	vstr.32	s13, [r0, #8]	@ int
.LVL326:
.L293:
	.loc 1 3066 1
	ldr	r4, [sp], #4
	.cfi_remember_state
	.cfi_restore 4
	.cfi_def_cfa_offset 0
	bx	lr
.LVL327:
.L296:
	.cfi_restore_state
	.loc 1 3048 9 is_stmt 1
	.loc 1 3048 44 is_stmt 0
	vmov	s14, ip	@ int
	vcvt.f32.u32	s13, s14
	.loc 1 3048 42
	vldr.32	s12, .L303+20
	vdiv.f32	s14, s12, s13
	.loc 1 3048 145
	ldr	r3, .L303
.LVL328:
	ldr	r3, [r3, #64]
	.loc 1 3048 72
	ubfx	r3, r3, #0, #9
	.loc 1 3048 63
	vmov	s13, r3	@ int
	vcvt.f32.u32	s13, s13
	.loc 1 3048 187
	vldr.32	s12, .L303+8
	vmul.f32	s15, s15, s12
	.loc 1 3048 177
	vadd.f32	s15, s13, s15
	.loc 1 3048 206
	vmov.f32	s13, #1.0e+0
	vadd.f32	s15, s15, s13
	.loc 1 3048 17
	vmul.f32	s14, s14, s15
.LVL329:
	.loc 1 3049 9 is_stmt 1
	b	.L299
.LVL330:
.L294:
	.loc 1 3061 5
	.loc 1 3061 35 is_stmt 0
	movs	r3, #0
.LVL331:
	str	r3, [r0]
	.loc 1 3062 5 is_stmt 1
	.loc 1 3062 35 is_stmt 0
	str	r3, [r0, #4]
	.loc 1 3063 5 is_stmt 1
	.loc 1 3063 35 is_stmt 0
	str	r3, [r0, #8]
	.loc 1 3066 1
	b	.L293
.L304:
	.align	2
.L303:
	.word	1476543488
	.word	1249125376
	.word	956301312
	.word	64000000
	.word	1282679808
	.word	1270791200
	.cfi_endproc
.LFE341:
	.size	HAL_RCCEx_GetPLL3ClockFreq, .-HAL_RCCEx_GetPLL3ClockFreq
	.section	.text.HAL_RCCEx_GetPLL1ClockFreq,"ax",%progbits
	.align	1
	.global	HAL_RCCEx_GetPLL1ClockFreq
	.syntax unified
	.thumb
	.thumb_func
	.type	HAL_RCCEx_GetPLL1ClockFreq, %function
HAL_RCCEx_GetPLL1ClockFreq:
.LFB342:
	.loc 1 3083 1 is_stmt 1
	.cfi_startproc
	@ args = 0, pretend = 0, frame = 0
	@ frame_needed = 0, uses_anonymous_args = 0
	@ link register save eliminated.
.LVL332:
	push	{r4}
	.cfi_def_cfa_offset 4
	.cfi_offset 4, -4
	.loc 1 3084 3
	.loc 1 3085 3
	.loc 1 3087 3
	.loc 1 3087 78 is_stmt 0
	ldr	r3, .L315
	ldr	r2, [r3, #40]
.LVL333:
	.loc 1 3088 3 is_stmt 1
	.loc 1 3088 75 is_stmt 0
	ldr	r4, [r3, #40]
	.loc 1 3088 9
	ubfx	ip, r4, #4, #6
.LVL334:
	.loc 1 3089 3 is_stmt 1
	.loc 1 3089 78 is_stmt 0
	ldr	r1, [r3, #44]
	.loc 1 3089 14
	and	r1, r1, #1
.LVL335:
	.loc 1 3090 3 is_stmt 1
	.loc 1 3090 109 is_stmt 0
	ldr	r3, [r3, #52]
	.loc 1 3090 143
	ubfx	r3, r3, #3, #13
	.loc 1 3090 21
	mul	r3, r1, r3
.LVL336:
	.loc 1 3092 3 is_stmt 1
	.loc 1 3092 6 is_stmt 0
	tst	r4, #1008
	beq	.L306
	and	r2, r2, #3
.LVL337:
	vmov	s15, r3	@ int
	vcvt.f32.u32	s15, s15
	.loc 1 3094 5 is_stmt 1
	cmp	r2, #1
	beq	.L307
	cmp	r2, #2
	beq	.L308
	cbz	r2, .L314
	.loc 1 3118 9
	.loc 1 3118 44 is_stmt 0
	vmov	s14, ip	@ int
	vcvt.f32.u32	s13, s14
	.loc 1 3118 42
	vldr.32	s12, .L315+4
	vdiv.f32	s14, s12, s13
	.loc 1 3118 145
	ldr	r3, .L315
.LVL338:
	ldr	r3, [r3, #48]
	.loc 1 3118 72
	ubfx	r3, r3, #0, #9
	.loc 1 3118 63
	vmov	s13, r3	@ int
	vcvt.f32.u32	s13, s13
	.loc 1 3118 187
	vldr.32	s12, .L315+8
	vmul.f32	s15, s15, s12
	.loc 1 3118 177
	vadd.f32	s15, s13, s15
	.loc 1 3118 206
	vmov.f32	s13, #1.0e+0
	vadd.f32	s15, s15, s13
	.loc 1 3118 17
	vmul.f32	s14, s14, s15
.LVL339:
	.loc 1 3119 9 is_stmt 1
	b	.L311
.LVL340:
.L314:
	.loc 1 3099 9
	.loc 1 3099 114 is_stmt 0
	ldr	r3, .L315
.LVL341:
	ldr	r3, [r3]
	.loc 1 3099 12
	tst	r3, #32
	beq	.L310
	.loc 1 3101 11 is_stmt 1
	.loc 1 3101 116 is_stmt 0
	ldr	r1, .L315
.LVL342:
	ldr	r2, [r1]
.LVL343:
	.loc 1 3101 145
	ubfx	r2, r2, #3, #2
	.loc 1 3101 20
	ldr	r3, .L315+12
	lsrs	r3, r3, r2
.LVL344:
	.loc 1 3102 11 is_stmt 1
	.loc 1 3102 22 is_stmt 0
	vmov	s14, r3	@ int
	vcvt.f32.u32	s13, s14
	.loc 1 3102 42
	vmov	s14, ip	@ int
	vcvt.f32.u32	s12, s14
	.loc 1 3102 40
	vdiv.f32	s14, s13, s12
	.loc 1 3102 143
	ldr	r3, [r1, #48]
.LVL345:
	.loc 1 3102 70
	ubfx	r3, r3, #0, #9
	.loc 1 3102 61
	vmov	s13, r3	@ int
	vcvt.f32.u32	s13, s13
	.loc 1 3102 185
	vldr.32	s12, .L315+8
	vmul.f32	s15, s15, s12
	.loc 1 3102 175
	vadd.f32	s15, s13, s15
	.loc 1 3102 204
	vmov.f32	s13, #1.0e+0
	vadd.f32	s15, s15, s13
	.loc 1 3102 19
	vmul.f32	s14, s14, s15
.LVL346:
	b	.L311
.LVL347:
.L310:
	.loc 1 3106 11 is_stmt 1
	.loc 1 3106 46 is_stmt 0
	vmov	s14, ip	@ int
	vcvt.f32.u32	s13, s14
	.loc 1 3106 44
	vldr.32	s12, .L315+4
	vdiv.f32	s14, s12, s13
	.loc 1 3106 147
	ldr	r3, .L315
	ldr	r3, [r3, #48]
	.loc 1 3106 74
	ubfx	r3, r3, #0, #9
	.loc 1 3106 65
	vmov	s13, r3	@ int
	vcvt.f32.u32	s13, s13
	.loc 1 3106 189
	vldr.32	s12, .L315+8
	vmul.f32	s15, s15, s12
	.loc 1 3106 179
	vadd.f32	s15, s13, s15
	.loc 1 3106 208
	vmov.f32	s13, #1.0e+0
	vadd.f32	s15, s15, s13
	.loc 1 3106 19
	vmul.f32	s14, s14, s15
.LVL348:
	b	.L311
.LVL349:
.L307:
	.loc 1 3110 9 is_stmt 1
	.loc 1 3110 43 is_stmt 0
	vmov	s14, ip	@ int
	vcvt.f32.u32	s13, s14
	.loc 1 3110 41
	vldr.32	s12, .L315+16
	vdiv.f32	s14, s12, s13
	.loc 1 3110 144
	ldr	r3, .L315
.LVL350:
	ldr	r3, [r3, #48]
	.loc 1 3110 71
	ubfx	r3, r3, #0, #9
	.loc 1 3110 62
	vmov	s13, r3	@ int
	vcvt.f32.u32	s13, s13
	.loc 1 3110 186
	vldr.32	s12, .L315+8
	vmul.f32	s15, s15, s12
	.loc 1 3110 176
	vadd.f32	s15, s13, s15
	.loc 1 3110 205
	vmov.f32	s13, #1.0e+0
	vadd.f32	s15, s15, s13
	.loc 1 3110 17
	vmul.f32	s14, s14, s15
.LVL351:
	.loc 1 3111 9 is_stmt 1
.L311:
	.loc 1 3122 5
	.loc 1 3122 151 is_stmt 0
	ldr	r2, .L315
	ldr	r3, [r2, #48]
	.loc 1 3122 77
	ubfx	r3, r3, #9, #7
	vmov	s15, r3	@ int
	.loc 1 3122 68
	vcvt.f32.u32	s15, s15
	.loc 1 3122 188
	vmov.f32	s13, #1.0e+0
	vadd.f32	s15, s15, s13
	.loc 1 3122 47
	vdiv.f32	s12, s14, s15
	.loc 1 3122 37
	vcvt.u32.f32	s12, s12
	.loc 1 3122 35
	vstr.32	s12, [r0]	@ int
	.loc 1 3123 5 is_stmt 1
	.loc 1 3123 151 is_stmt 0
	ldr	r3, [r2, #48]
	.loc 1 3123 77
	ubfx	r3, r3, #16, #7
	vmov	s15, r3	@ int
	.loc 1 3123 68
	vcvt.f32.u32	s15, s15
	.loc 1 3123 190
	vadd.f32	s15, s15, s13
	.loc 1 3123 47
	vdiv.f32	s12, s14, s15
	.loc 1 3123 37
	vcvt.u32.f32	s12, s12
	.loc 1 3123 35
	vstr.32	s12, [r0, #4]	@ int
	.loc 1 3124 5 is_stmt 1
	.loc 1 3124 151 is_stmt 0
	ldr	r3, [r2, #48]
	.loc 1 3124 77
	ubfx	r3, r3, #24, #7
	vmov	s15, r3	@ int
	.loc 1 3124 68
	vcvt.f32.u32	s15, s15
	.loc 1 3124 190
	vadd.f32	s15, s15, s13
	.loc 1 3124 47
	vdiv.f32	s13, s14, s15
	.loc 1 3124 37
	vcvt.u32.f32	s13, s13
	.loc 1 3124 35
	vstr.32	s13, [r0, #8]	@ int
.LVL352:
.L305:
	.loc 1 3133 1
	ldr	r4, [sp], #4
	.cfi_remember_state
	.cfi_restore 4
	.cfi_def_cfa_offset 0
	bx	lr
.LVL353:
.L308:
	.cfi_restore_state
	.loc 1 3114 9 is_stmt 1
	.loc 1 3114 44 is_stmt 0
	vmov	s14, ip	@ int
	vcvt.f32.u32	s13, s14
	.loc 1 3114 42
	vldr.32	s12, .L315+20
	vdiv.f32	s14, s12, s13
	.loc 1 3114 145
	ldr	r3, .L315
.LVL354:
	ldr	r3, [r3, #48]
	.loc 1 3114 72
	ubfx	r3, r3, #0, #9
	.loc 1 3114 63
	vmov	s13, r3	@ int
	vcvt.f32.u32	s13, s13
	.loc 1 3114 187
	vldr.32	s12, .L315+8
	vmul.f32	s15, s15, s12
	.loc 1 3114 177
	vadd.f32	s15, s13, s15
	.loc 1 3114 206
	vmov.f32	s13, #1.0e+0
	vadd.f32	s15, s15, s13
	.loc 1 3114 17
	vmul.f32	s14, s14, s15
.LVL355:
	.loc 1 3115 9 is_stmt 1
	b	.L311
.LVL356:
.L306:
	.loc 1 3128 5
	.loc 1 3128 35 is_stmt 0
	movs	r3, #0
.LVL357:
	str	r3, [r0]
	.loc 1 3129 5 is_stmt 1
	.loc 1 3129 35 is_stmt 0
	str	r3, [r0, #4]
	.loc 1 3130 5 is_stmt 1
	.loc 1 3130 35 is_stmt 0
	str	r3, [r0, #8]
	.loc 1 3133 1
	b	.L305
.L316:
	.align	2
.L315:
	.word	1476543488
	.word	1282679808
	.word	956301312
	.word	64000000
	.word	1249125376
	.word	1270791200
	.cfi_endproc
.LFE342:
	.size	HAL_RCCEx_GetPLL1ClockFreq, .-HAL_RCCEx_GetPLL1ClockFreq
	.section	.text.HAL_RCCEx_GetPeriphCLKFreq,"ax",%progbits
	.align	1
	.global	HAL_RCCEx_GetPeriphCLKFreq
	.syntax unified
	.thumb
	.thumb_func
	.type	HAL_RCCEx_GetPeriphCLKFreq, %function
HAL_RCCEx_GetPeriphCLKFreq:
.LFB337:
	.loc 1 1882 1 is_stmt 1
	.cfi_startproc
	@ args = 0, pretend = 0, frame = 16
	@ frame_needed = 0, uses_anonymous_args = 0
.LVL358:
	push	{lr}
	.cfi_def_cfa_offset 4
	.cfi_offset 14, -4
	sub	sp, sp, #20
	.cfi_def_cfa_offset 24
	.loc 1 1883 3
	.loc 1 1884 3
	.loc 1 1885 3
	.loc 1 1888 3
	.loc 1 1890 3
	.loc 1 1891 3
	.loc 1 1892 3
	.loc 1 1894 3
	.loc 1 1894 6 is_stmt 0
	sub	r3, r0, #256
	orrs	r3, r3, r1
	beq	.L413
	.loc 1 1988 8 is_stmt 1
	.loc 1 1988 11 is_stmt 0
	sub	r3, r0, #512
	orrs	r3, r3, r1
	beq	.L414
	.loc 1 2275 8 is_stmt 1
	.loc 1 2275 11 is_stmt 0
	sub	r3, r0, #1024
	orrs	r3, r3, r1
	beq	.L415
	.loc 1 2369 8 is_stmt 1
	.loc 1 2369 11 is_stmt 0
	sub	r3, r0, #2048
	orrs	r3, r3, r1
	beq	.L416
	.loc 1 2463 8 is_stmt 1
	.loc 1 2463 11 is_stmt 0
	sub	r3, r0, #4096
	orrs	r3, r3, r1
	beq	.L417
	.loc 1 2555 8 is_stmt 1
	.loc 1 2555 11 is_stmt 0
	sub	r3, r0, #8192
	orrs	r3, r3, r1
	beq	.L418
	.loc 1 2635 8 is_stmt 1
	.loc 1 2635 11 is_stmt 0
	sub	r3, r0, #524288
	orrs	r3, r3, r1
	beq	.L419
	.loc 1 2708 8 is_stmt 1
	.loc 1 2708 11 is_stmt 0
	sub	r3, r0, #65536
	orrs	r3, r3, r1
	beq	.L420
	.loc 1 2749 8 is_stmt 1
	.loc 1 2749 11 is_stmt 0
	sub	r3, r0, #16384
	orrs	r3, r3, r1
	beq	.L421
	.loc 1 2837 8 is_stmt 1
	.loc 1 2837 11 is_stmt 0
	sub	r0, r0, #32768
.LVL359:
	orrs	r0, r0, r1
	beq	.L422
	.loc 1 2891 15
	movs	r0, #0
	b	.L317
.LVL360:
.L413:
	.loc 1 1897 5 is_stmt 1
	.loc 1 1897 98 is_stmt 0
	ldr	r3, .L443
	ldr	r3, [r3, #80]
	.loc 1 1897 20
	and	r3, r3, #7
.LVL361:
	.loc 1 1899 5 is_stmt 1
	cmp	r3, #4
	bhi	.L386
	tbb	[pc, r3]
.L321:
	.byte	(.L325-.L321)/2
	.byte	(.L324-.L321)/2
	.byte	(.L323-.L321)/2
	.byte	(.L322-.L321)/2
	.byte	(.L320-.L321)/2
	.p2align 1
.L322:
	ldr	r0, .L443+4
.LVL362:
	b	.L317
.LVL363:
.L325:
	.loc 1 1903 9
	.loc 1 1903 78 is_stmt 0
	ldr	r3, .L443
.LVL364:
	ldr	r0, [r3]
.LVL365:
	.loc 1 1903 12
	ands	r0, r0, #33554432
	beq	.L317
	.loc 1 1905 11 is_stmt 1
	add	r0, sp, #4
	bl	HAL_RCCEx_GetPLL1ClockFreq
.LVL366:
	.loc 1 1906 11
	.loc 1 1906 21 is_stmt 0
	ldr	r0, [sp, #8]
.LVL367:
	b	.L317
.LVL368:
.L324:
	.loc 1 1916 9 is_stmt 1
	.loc 1 1916 78 is_stmt 0
	ldr	r3, .L443
.LVL369:
	ldr	r0, [r3]
.LVL370:
	.loc 1 1916 12
	ands	r0, r0, #134217728
	beq	.L317
	.loc 1 1918 11 is_stmt 1
	add	r0, sp, #4
	bl	HAL_RCCEx_GetPLL2ClockFreq
.LVL371:
	.loc 1 1919 11
	.loc 1 1919 21 is_stmt 0
	ldr	r0, [sp, #4]
.LVL372:
	b	.L317
.LVL373:
.L323:
	.loc 1 1930 9 is_stmt 1
	.loc 1 1930 78 is_stmt 0
	ldr	r3, .L443
.LVL374:
	ldr	r0, [r3]
.LVL375:
	.loc 1 1930 12
	ands	r0, r0, #536870912
	beq	.L317
	.loc 1 1932 11 is_stmt 1
	add	r0, sp, #4
	bl	HAL_RCCEx_GetPLL3ClockFreq
.LVL376:
	.loc 1 1933 11
	.loc 1 1933 21 is_stmt 0
	ldr	r0, [sp, #4]
.LVL377:
	b	.L317
.LVL378:
.L320:
	.loc 1 1945 9 is_stmt 1
	.loc 1 1945 102 is_stmt 0
	ldr	r2, .L443
	ldr	r3, [r2, #76]
.LVL379:
	.loc 1 1945 24
	and	r3, r3, #805306368
.LVL380:
	.loc 1 1947 9 is_stmt 1
	.loc 1 1947 79 is_stmt 0
	ldr	r2, [r2]
	.loc 1 1947 12
	tst	r2, #4
	beq	.L326
	.loc 1 1947 129 discriminator 1
	cbnz	r3, .L326
	.loc 1 1950 11 is_stmt 1
	.loc 1 1950 117 is_stmt 0
	ldr	r3, .L443
.LVL381:
	ldr	r3, [r3]
	.loc 1 1950 146
	ubfx	r3, r3, #3, #2
	.loc 1 1950 21
	ldr	r0, .L443+8
.LVL382:
	lsrs	r0, r0, r3
.LVL383:
	b	.L317
.LVL384:
.L326:
	.loc 1 1953 14 is_stmt 1
	.loc 1 1953 84 is_stmt 0
	ldr	r2, .L443
	ldr	r2, [r2]
	.loc 1 1953 17
	tst	r2, #256
	beq	.L327
	.loc 1 1953 134 discriminator 1
	cmp	r3, #268435456
	beq	.L387
.L327:
	.loc 1 1959 14 is_stmt 1
	.loc 1 1959 84 is_stmt 0
	ldr	r2, .L443
	ldr	r2, [r2]
	.loc 1 1959 17
	tst	r2, #131072
	beq	.L388
	.loc 1 1959 136 discriminator 1
	cmp	r3, #536870912
	beq	.L389
	.loc 1 1968 21
	movs	r0, #0
.LVL385:
	b	.L317
.LVL386:
.L414:
	.loc 1 1991 5 is_stmt 1
	.loc 1 1991 98 is_stmt 0
	ldr	r3, .L443
	ldr	r3, [r3, #80]
	.loc 1 1991 20
	and	r3, r3, #448
.LVL387:
	.loc 1 1993 5 is_stmt 1
	cmp	r3, #128
	beq	.L329
	bls	.L423
	cmp	r3, #192
	beq	.L390
	cmp	r3, #256
	bne	.L424
	.loc 1 2039 9
	.loc 1 2039 102 is_stmt 0
	ldr	r2, .L443
	ldr	r3, [r2, #76]
.LVL388:
	.loc 1 2039 24
	and	r3, r3, #805306368
.LVL389:
	.loc 1 2041 9 is_stmt 1
	.loc 1 2041 79 is_stmt 0
	ldr	r2, [r2]
	.loc 1 2041 12
	tst	r2, #4
	beq	.L334
	.loc 1 2041 129 discriminator 1
	cbnz	r3, .L334
	.loc 1 2044 11 is_stmt 1
	.loc 1 2044 117 is_stmt 0
	ldr	r3, .L443
.LVL390:
	ldr	r3, [r3]
	.loc 1 2044 146
	ubfx	r3, r3, #3, #2
	.loc 1 2044 21
	ldr	r0, .L443+8
.LVL391:
	lsrs	r0, r0, r3
.LVL392:
	b	.L317
.LVL393:
.L423:
	.loc 1 1993 5
	cbz	r3, .L331
	cmp	r3, #64
	bne	.L425
	.loc 1 2010 9 is_stmt 1
	.loc 1 2010 78 is_stmt 0
	ldr	r3, .L443
.LVL394:
	ldr	r0, [r3]
.LVL395:
	.loc 1 2010 12
	ands	r0, r0, #134217728
	beq	.L317
	.loc 1 2012 11 is_stmt 1
	add	r0, sp, #4
	bl	HAL_RCCEx_GetPLL2ClockFreq
.LVL396:
	.loc 1 2013 11
	.loc 1 2013 21 is_stmt 0
	ldr	r0, [sp, #4]
.LVL397:
	b	.L317
.LVL398:
.L425:
	.loc 1 2075 19
	movs	r0, #0
.LVL399:
	b	.L317
.LVL400:
.L424:
	movs	r0, #0
.LVL401:
	b	.L317
.LVL402:
.L331:
	.loc 1 1997 9 is_stmt 1
	.loc 1 1997 78 is_stmt 0
	ldr	r3, .L443
.LVL403:
	ldr	r0, [r3]
.LVL404:
	.loc 1 1997 12
	ands	r0, r0, #33554432
	beq	.L317
	.loc 1 1999 11 is_stmt 1
	add	r0, sp, #4
	bl	HAL_RCCEx_GetPLL1ClockFreq
.LVL405:
	.loc 1 2000 11
	.loc 1 2000 21 is_stmt 0
	ldr	r0, [sp, #8]
.LVL406:
	b	.L317
.LVL407:
.L329:
	.loc 1 2024 9 is_stmt 1
	.loc 1 2024 78 is_stmt 0
	ldr	r3, .L443
.LVL408:
	ldr	r0, [r3]
.LVL409:
	.loc 1 2024 12
	ands	r0, r0, #536870912
	beq	.L317
	.loc 1 2026 11 is_stmt 1
	add	r0, sp, #4
	bl	HAL_RCCEx_GetPLL3ClockFreq
.LVL410:
	.loc 1 2027 11
	.loc 1 2027 21 is_stmt 0
	ldr	r0, [sp, #4]
.LVL411:
	b	.L317
.LVL412:
.L334:
	.loc 1 2047 14 is_stmt 1
	.loc 1 2047 84 is_stmt 0
	ldr	r2, .L443
	ldr	r2, [r2]
	.loc 1 2047 17
	tst	r2, #256
	beq	.L335
	.loc 1 2047 134 discriminator 1
	cmp	r3, #268435456
	beq	.L391
.L335:
	.loc 1 2053 14 is_stmt 1
	.loc 1 2053 84 is_stmt 0
	ldr	r2, .L443
	ldr	r2, [r2]
	.loc 1 2053 17
	tst	r2, #131072
	beq	.L392
	.loc 1 2053 136 discriminator 1
	cmp	r3, #536870912
	beq	.L393
	.loc 1 2062 21
	movs	r0, #0
.LVL413:
	b	.L317
.LVL414:
.L415:
	.loc 1 2278 5 is_stmt 1
	.loc 1 2278 98 is_stmt 0
	ldr	r3, .L443
	ldr	r3, [r3, #88]
	.loc 1 2278 20
	and	r3, r3, #14680064
.LVL415:
	.loc 1 2280 5 is_stmt 1
	cmp	r3, #4194304
	beq	.L337
	bls	.L426
	cmp	r3, #6291456
	beq	.L394
	cmp	r3, #8388608
	bne	.L427
	.loc 1 2326 9
	.loc 1 2326 102 is_stmt 0
	ldr	r2, .L443
	ldr	r3, [r2, #76]
.LVL416:
	.loc 1 2326 24
	and	r3, r3, #805306368
.LVL417:
	.loc 1 2328 9 is_stmt 1
	.loc 1 2328 79 is_stmt 0
	ldr	r2, [r2]
	.loc 1 2328 12
	tst	r2, #4
	beq	.L342
	.loc 1 2328 129 discriminator 1
	cbnz	r3, .L342
	.loc 1 2331 11 is_stmt 1
	.loc 1 2331 117 is_stmt 0
	ldr	r3, .L443
.LVL418:
	ldr	r3, [r3]
	.loc 1 2331 146
	ubfx	r3, r3, #3, #2
	.loc 1 2331 21
	ldr	r0, .L443+8
.LVL419:
	lsrs	r0, r0, r3
.LVL420:
	b	.L317
.LVL421:
.L426:
	.loc 1 2280 5
	cbz	r3, .L339
	cmp	r3, #2097152
	bne	.L428
	.loc 1 2297 9 is_stmt 1
	.loc 1 2297 78 is_stmt 0
	ldr	r3, .L443
.LVL422:
	ldr	r0, [r3]
.LVL423:
	.loc 1 2297 12
	ands	r0, r0, #134217728
	beq	.L317
	.loc 1 2299 11 is_stmt 1
	add	r0, sp, #4
	bl	HAL_RCCEx_GetPLL2ClockFreq
.LVL424:
	.loc 1 2300 11
	.loc 1 2300 21 is_stmt 0
	ldr	r0, [sp, #4]
.LVL425:
	b	.L317
.LVL426:
.L428:
	.loc 1 2363 19
	movs	r0, #0
.LVL427:
	b	.L317
.LVL428:
.L427:
	movs	r0, #0
.LVL429:
	b	.L317
.LVL430:
.L339:
	.loc 1 2284 9 is_stmt 1
	.loc 1 2284 78 is_stmt 0
	ldr	r3, .L443
.LVL431:
	ldr	r0, [r3]
.LVL432:
	.loc 1 2284 12
	ands	r0, r0, #33554432
	beq	.L317
	.loc 1 2286 11 is_stmt 1
	add	r0, sp, #4
	bl	HAL_RCCEx_GetPLL1ClockFreq
.LVL433:
	.loc 1 2287 11
	.loc 1 2287 21 is_stmt 0
	ldr	r0, [sp, #8]
.LVL434:
	b	.L317
.LVL435:
.L337:
	.loc 1 2311 9 is_stmt 1
	.loc 1 2311 78 is_stmt 0
	ldr	r3, .L443
.LVL436:
	ldr	r0, [r3]
.LVL437:
	.loc 1 2311 12
	ands	r0, r0, #536870912
	beq	.L317
	.loc 1 2313 11 is_stmt 1
	add	r0, sp, #4
	bl	HAL_RCCEx_GetPLL3ClockFreq
.LVL438:
	.loc 1 2314 11
	.loc 1 2314 21 is_stmt 0
	ldr	r0, [sp, #4]
.LVL439:
	b	.L317
.LVL440:
.L342:
	.loc 1 2334 14 is_stmt 1
	.loc 1 2334 84 is_stmt 0
	ldr	r2, .L443
	ldr	r2, [r2]
	.loc 1 2334 17
	tst	r2, #256
	beq	.L343
	.loc 1 2334 134 discriminator 1
	cmp	r3, #268435456
	beq	.L395
.L343:
	.loc 1 2340 14 is_stmt 1
	.loc 1 2340 84 is_stmt 0
	ldr	r2, .L443
	ldr	r2, [r2]
	.loc 1 2340 17
	tst	r2, #131072
	beq	.L396
	.loc 1 2340 136 discriminator 1
	cmp	r3, #536870912
	beq	.L397
	.loc 1 2349 21
	movs	r0, #0
.LVL441:
	b	.L317
.LVL442:
.L416:
	.loc 1 2372 5 is_stmt 1
	.loc 1 2372 98 is_stmt 0
	ldr	r3, .L443
	ldr	r3, [r3, #88]
	.loc 1 2372 20
	and	r3, r3, #117440512
.LVL443:
	.loc 1 2374 5 is_stmt 1
	cmp	r3, #33554432
	beq	.L345
	bls	.L429
	cmp	r3, #50331648
	beq	.L398
	cmp	r3, #67108864
	bne	.L430
	.loc 1 2420 9
	.loc 1 2420 102 is_stmt 0
	ldr	r2, .L443
	ldr	r3, [r2, #76]
.LVL444:
	.loc 1 2420 24
	and	r3, r3, #805306368
.LVL445:
	.loc 1 2422 9 is_stmt 1
	.loc 1 2422 79 is_stmt 0
	ldr	r2, [r2]
	.loc 1 2422 12
	tst	r2, #4
	beq	.L350
	.loc 1 2422 129 discriminator 1
	cmp	r3, #0
	bne	.L350
	.loc 1 2425 11 is_stmt 1
	.loc 1 2425 117 is_stmt 0
	ldr	r3, .L443
.LVL446:
	ldr	r3, [r3]
	.loc 1 2425 146
	ubfx	r3, r3, #3, #2
	.loc 1 2425 21
	ldr	r0, .L443+8
.LVL447:
	lsrs	r0, r0, r3
.LVL448:
	b	.L317
.L444:
	.align	2
.L443:
	.word	1476543488
	.word	12288000
	.word	64000000
.LVL449:
.L429:
	.loc 1 2374 5
	cbz	r3, .L347
	cmp	r3, #16777216
	bne	.L431
	.loc 1 2391 9 is_stmt 1
	.loc 1 2391 78 is_stmt 0
	ldr	r3, .L445
.LVL450:
	ldr	r0, [r3]
.LVL451:
	.loc 1 2391 12
	ands	r0, r0, #134217728
	beq	.L317
	.loc 1 2393 11 is_stmt 1
	add	r0, sp, #4
	bl	HAL_RCCEx_GetPLL2ClockFreq
.LVL452:
	.loc 1 2394 11
	.loc 1 2394 21 is_stmt 0
	ldr	r0, [sp, #4]
.LVL453:
	b	.L317
.LVL454:
.L431:
	.loc 1 2457 19
	movs	r0, #0
.LVL455:
	b	.L317
.LVL456:
.L430:
	movs	r0, #0
.LVL457:
	b	.L317
.LVL458:
.L347:
	.loc 1 2378 9 is_stmt 1
	.loc 1 2378 78 is_stmt 0
	ldr	r3, .L445
.LVL459:
	ldr	r0, [r3]
.LVL460:
	.loc 1 2378 12
	ands	r0, r0, #33554432
	beq	.L317
	.loc 1 2380 11 is_stmt 1
	add	r0, sp, #4
	bl	HAL_RCCEx_GetPLL1ClockFreq
.LVL461:
	.loc 1 2381 11
	.loc 1 2381 21 is_stmt 0
	ldr	r0, [sp, #8]
.LVL462:
	b	.L317
.LVL463:
.L345:
	.loc 1 2405 9 is_stmt 1
	.loc 1 2405 78 is_stmt 0
	ldr	r3, .L445
.LVL464:
	ldr	r0, [r3]
.LVL465:
	.loc 1 2405 12
	ands	r0, r0, #536870912
	beq	.L317
	.loc 1 2407 11 is_stmt 1
	add	r0, sp, #4
	bl	HAL_RCCEx_GetPLL3ClockFreq
.LVL466:
	.loc 1 2408 11
	.loc 1 2408 21 is_stmt 0
	ldr	r0, [sp, #4]
.LVL467:
	b	.L317
.LVL468:
.L350:
	.loc 1 2428 14 is_stmt 1
	.loc 1 2428 84 is_stmt 0
	ldr	r2, .L445
	ldr	r2, [r2]
	.loc 1 2428 17
	tst	r2, #256
	beq	.L351
	.loc 1 2428 134 discriminator 1
	cmp	r3, #268435456
	beq	.L399
.L351:
	.loc 1 2434 14 is_stmt 1
	.loc 1 2434 84 is_stmt 0
	ldr	r2, .L445
	ldr	r2, [r2]
	.loc 1 2434 17
	tst	r2, #131072
	beq	.L400
	.loc 1 2434 136 discriminator 1
	cmp	r3, #536870912
	beq	.L401
	.loc 1 2443 21
	movs	r0, #0
.LVL469:
	b	.L317
.LVL470:
.L417:
	.loc 1 2466 5 is_stmt 1
	.loc 1 2466 90 is_stmt 0
	ldr	r3, .L445
	ldr	r3, [r3, #80]
	.loc 1 2466 12
	and	r3, r3, #28672
.LVL471:
	.loc 1 2468 5 is_stmt 1
	cmp	r3, #8192
	beq	.L353
	bls	.L432
	cmp	r3, #12288
	beq	.L402
	cmp	r3, #16384
	bne	.L433
	.loc 1 2514 9
	.loc 1 2514 102 is_stmt 0
	ldr	r2, .L445
	ldr	r3, [r2, #76]
.LVL472:
	.loc 1 2514 24
	and	r3, r3, #805306368
.LVL473:
	.loc 1 2516 9 is_stmt 1
	.loc 1 2516 79 is_stmt 0
	ldr	r2, [r2]
	.loc 1 2516 12
	tst	r2, #4
	beq	.L358
	.loc 1 2516 129 discriminator 1
	cbnz	r3, .L358
	.loc 1 2519 11 is_stmt 1
	.loc 1 2519 117 is_stmt 0
	ldr	r3, .L445
.LVL474:
	ldr	r3, [r3]
	.loc 1 2519 146
	ubfx	r3, r3, #3, #2
	.loc 1 2519 21
	ldr	r0, .L445+4
.LVL475:
	lsrs	r0, r0, r3
.LVL476:
	b	.L317
.LVL477:
.L432:
	.loc 1 2468 5
	cbz	r3, .L355
	cmp	r3, #4096
	bne	.L434
	.loc 1 2485 9 is_stmt 1
	.loc 1 2485 78 is_stmt 0
	ldr	r3, .L445
.LVL478:
	ldr	r0, [r3]
.LVL479:
	.loc 1 2485 12
	ands	r0, r0, #134217728
	beq	.L317
	.loc 1 2487 11 is_stmt 1
	add	r0, sp, #4
	bl	HAL_RCCEx_GetPLL2ClockFreq
.LVL480:
	.loc 1 2488 11
	.loc 1 2488 21 is_stmt 0
	ldr	r0, [sp, #4]
.LVL481:
	b	.L317
.LVL482:
.L434:
	.loc 1 2550 19
	movs	r0, #0
.LVL483:
	b	.L317
.LVL484:
.L433:
	movs	r0, #0
.LVL485:
	b	.L317
.LVL486:
.L355:
	.loc 1 2472 9 is_stmt 1
	.loc 1 2472 78 is_stmt 0
	ldr	r3, .L445
.LVL487:
	ldr	r0, [r3]
.LVL488:
	.loc 1 2472 12
	ands	r0, r0, #33554432
	beq	.L317
	.loc 1 2474 11 is_stmt 1
	add	r0, sp, #4
	bl	HAL_RCCEx_GetPLL1ClockFreq
.LVL489:
	.loc 1 2475 11
	.loc 1 2475 21 is_stmt 0
	ldr	r0, [sp, #8]
.LVL490:
	b	.L317
.LVL491:
.L353:
	.loc 1 2499 9 is_stmt 1
	.loc 1 2499 78 is_stmt 0
	ldr	r3, .L445
.LVL492:
	ldr	r0, [r3]
.LVL493:
	.loc 1 2499 12
	ands	r0, r0, #536870912
	beq	.L317
	.loc 1 2501 11 is_stmt 1
	add	r0, sp, #4
	bl	HAL_RCCEx_GetPLL3ClockFreq
.LVL494:
	.loc 1 2502 11
	.loc 1 2502 21 is_stmt 0
	ldr	r0, [sp, #4]
.LVL495:
	b	.L317
.LVL496:
.L358:
	.loc 1 2522 14 is_stmt 1
	.loc 1 2522 84 is_stmt 0
	ldr	r2, .L445
	ldr	r2, [r2]
	.loc 1 2522 17
	tst	r2, #256
	beq	.L359
	.loc 1 2522 134 discriminator 1
	cmp	r3, #268435456
	beq	.L403
.L359:
	.loc 1 2528 14 is_stmt 1
	.loc 1 2528 84 is_stmt 0
	ldr	r2, .L445
	ldr	r2, [r2]
	.loc 1 2528 17
	tst	r2, #131072
	beq	.L404
	.loc 1 2528 136 discriminator 1
	cmp	r3, #536870912
	beq	.L405
	.loc 1 2537 21
	movs	r0, #0
.LVL497:
	b	.L317
.LVL498:
.L418:
	.loc 1 2558 5 is_stmt 1
	.loc 1 2558 90 is_stmt 0
	ldr	r3, .L445
	ldr	r3, [r3, #80]
	.loc 1 2558 12
	and	r3, r3, #458752
.LVL499:
	.loc 1 2559 5 is_stmt 1
	cmp	r3, #196608
	beq	.L361
	bhi	.L362
	cmp	r3, #65536
	beq	.L363
	cmp	r3, #131072
	bne	.L435
	.loc 1 2581 9
	.loc 1 2581 78 is_stmt 0
	ldr	r3, .L445
.LVL500:
	ldr	r0, [r3]
.LVL501:
	.loc 1 2581 12
	ands	r0, r0, #536870912
	beq	.L317
	.loc 1 2583 11 is_stmt 1
	add	r0, sp, #4
	bl	HAL_RCCEx_GetPLL3ClockFreq
.LVL502:
	.loc 1 2584 11
	.loc 1 2584 21 is_stmt 0
	ldr	r0, [sp, #8]
.LVL503:
	b	.L317
.LVL504:
.L435:
	.loc 1 2559 5
	cbnz	r3, .L436
	.loc 1 2563 9 is_stmt 1
	.loc 1 2563 21 is_stmt 0
	bl	HAL_RCC_GetPCLK1Freq
.LVL505:
	.loc 1 2564 9 is_stmt 1
	b	.L317
.LVL506:
.L436:
	.loc 1 2559 5 is_stmt 0
	movs	r0, #0
.LVL507:
	b	.L317
.LVL508:
.L362:
	cmp	r3, #262144
	beq	.L366
	cmp	r3, #327680
	bne	.L437
	.loc 1 2618 9 is_stmt 1
	.loc 1 2618 78 is_stmt 0
	ldr	r3, .L445
.LVL509:
	ldr	r0, [r3]
.LVL510:
	.loc 1 2618 12
	ands	r0, r0, #131072
	beq	.L317
	.loc 1 2620 21
	ldr	r0, .L445+8
	b	.L317
.LVL511:
.L437:
	.loc 1 2559 5
	movs	r0, #0
.LVL512:
	b	.L317
.LVL513:
.L363:
	.loc 1 2568 9 is_stmt 1
	.loc 1 2568 78 is_stmt 0
	ldr	r3, .L445
.LVL514:
	ldr	r0, [r3]
.LVL515:
	.loc 1 2568 12
	ands	r0, r0, #134217728
	beq	.L317
	.loc 1 2570 11 is_stmt 1
	add	r0, sp, #4
	bl	HAL_RCCEx_GetPLL2ClockFreq
.LVL516:
	.loc 1 2571 11
	.loc 1 2571 21 is_stmt 0
	ldr	r0, [sp, #8]
.LVL517:
	b	.L317
.LVL518:
.L361:
	.loc 1 2594 9 is_stmt 1
	.loc 1 2594 78 is_stmt 0
	ldr	r3, .L445
.LVL519:
	ldr	r0, [r3]
.LVL520:
	.loc 1 2594 12
	ands	r0, r0, #4
	beq	.L317
	.loc 1 2596 11 is_stmt 1
	.loc 1 2596 117 is_stmt 0
	ldr	r3, [r3]
	.loc 1 2596 146
	ubfx	r3, r3, #3, #2
	.loc 1 2596 21
	ldr	r0, .L445+4
	lsrs	r0, r0, r3
.LVL521:
	b	.L317
.LVL522:
.L366:
	.loc 1 2606 9 is_stmt 1
	.loc 1 2606 78 is_stmt 0
	ldr	r3, .L445
.LVL523:
	ldr	r0, [r3]
.LVL524:
	.loc 1 2606 12
	ands	r0, r0, #256
	beq	.L317
	.loc 1 2608 21
	ldr	r0, .L445+12
	b	.L317
.LVL525:
.L419:
	.loc 1 2638 5 is_stmt 1
	.loc 1 2638 90 is_stmt 0
	ldr	r3, .L445
	ldr	r3, [r3, #88]
	.loc 1 2638 12
	and	r3, r3, #196608
.LVL526:
	.loc 1 2640 5 is_stmt 1
	cmp	r3, #65536
	beq	.L369
	cmp	r3, #131072
	beq	.L370
	cbz	r3, .L438
	movs	r0, #0
.LVL527:
	b	.L317
.LVL528:
.L438:
	.loc 1 2644 9
	.loc 1 2644 78 is_stmt 0
	ldr	r3, .L445
.LVL529:
	ldr	r0, [r3]
.LVL530:
	.loc 1 2644 12
	ands	r0, r0, #134217728
	beq	.L317
	.loc 1 2646 11 is_stmt 1
	add	r0, sp, #4
	bl	HAL_RCCEx_GetPLL2ClockFreq
.LVL531:
	.loc 1 2647 11
	.loc 1 2647 21 is_stmt 0
	ldr	r0, [sp, #4]
.LVL532:
	b	.L317
.LVL533:
.L369:
	.loc 1 2657 9 is_stmt 1
	.loc 1 2657 78 is_stmt 0
	ldr	r3, .L445
.LVL534:
	ldr	r0, [r3]
.LVL535:
	.loc 1 2657 12
	ands	r0, r0, #536870912
	beq	.L317
	.loc 1 2659 11 is_stmt 1
	add	r0, sp, #4
	bl	HAL_RCCEx_GetPLL3ClockFreq
.LVL536:
	.loc 1 2660 11
	.loc 1 2660 21 is_stmt 0
	ldr	r0, [sp, #12]
.LVL537:
	b	.L317
.LVL538:
.L370:
	.loc 1 2672 9 is_stmt 1
	.loc 1 2672 102 is_stmt 0
	ldr	r2, .L445
	ldr	r3, [r2, #76]
.LVL539:
	.loc 1 2672 24
	and	r3, r3, #805306368
.LVL540:
	.loc 1 2674 9 is_stmt 1
	.loc 1 2674 79 is_stmt 0
	ldr	r2, [r2]
	.loc 1 2674 12
	tst	r2, #4
	beq	.L371
	.loc 1 2674 129 discriminator 1
	cbnz	r3, .L371
	.loc 1 2677 11 is_stmt 1
	.loc 1 2677 117 is_stmt 0
	ldr	r3, .L445
.LVL541:
	ldr	r3, [r3]
	.loc 1 2677 146
	ubfx	r3, r3, #3, #2
	.loc 1 2677 21
	ldr	r0, .L445+4
.LVL542:
	lsrs	r0, r0, r3
.LVL543:
	b	.L317
.LVL544:
.L371:
	.loc 1 2680 14 is_stmt 1
	.loc 1 2680 84 is_stmt 0
	ldr	r2, .L445
	ldr	r2, [r2]
	.loc 1 2680 17
	tst	r2, #256
	beq	.L372
	.loc 1 2680 134 discriminator 1
	cmp	r3, #268435456
	beq	.L407
.L372:
	.loc 1 2686 14 is_stmt 1
	.loc 1 2686 84 is_stmt 0
	ldr	r2, .L445
	ldr	r2, [r2]
	.loc 1 2686 17
	tst	r2, #131072
	beq	.L408
	.loc 1 2686 136 discriminator 1
	cmp	r3, #536870912
	beq	.L409
	.loc 1 2695 21
	movs	r0, #0
.LVL545:
	b	.L317
.LVL546:
.L420:
	.loc 1 2711 5 is_stmt 1
	.loc 1 2711 90 is_stmt 0
	ldr	r3, .L445
	ldr	r3, [r3, #76]
.LVL547:
	.loc 1 2713 5 is_stmt 1
	ands	r3, r3, #65536
.LVL548:
	beq	.L374
	cbnz	r3, .L375
	movs	r0, #0
.LVL549:
	b	.L317
.L446:
	.align	2
.L445:
	.word	1476543488
	.word	64000000
	.word	25000000
	.word	4000000
.LVL550:
.L374:
	.loc 1 2717 9
	.loc 1 2717 78 is_stmt 0
	ldr	r3, .L447
.LVL551:
	ldr	r0, [r3]
.LVL552:
	.loc 1 2717 12
	ands	r0, r0, #33554432
	beq	.L317
	.loc 1 2719 11 is_stmt 1
	add	r0, sp, #4
	bl	HAL_RCCEx_GetPLL1ClockFreq
.LVL553:
	.loc 1 2720 11
	.loc 1 2720 21 is_stmt 0
	ldr	r0, [sp, #8]
.LVL554:
	b	.L317
.LVL555:
.L375:
	.loc 1 2730 9 is_stmt 1
	.loc 1 2730 78 is_stmt 0
	ldr	r3, .L447
.LVL556:
	ldr	r0, [r3]
.LVL557:
	.loc 1 2730 12
	ands	r0, r0, #134217728
	beq	.L317
	.loc 1 2732 11 is_stmt 1
	add	r0, sp, #4
	bl	HAL_RCCEx_GetPLL2ClockFreq
.LVL558:
	.loc 1 2733 11
	.loc 1 2733 21 is_stmt 0
	ldr	r0, [sp, #12]
.LVL559:
	b	.L317
.LVL560:
.L421:
	.loc 1 2752 5 is_stmt 1
	.loc 1 2752 90 is_stmt 0
	ldr	r3, .L447
	ldr	r3, [r3, #88]
	.loc 1 2752 12
	and	r3, r3, #1879048192
.LVL561:
	.loc 1 2754 5 is_stmt 1
	cmp	r3, #805306368
	beq	.L377
	bhi	.L378
	cmp	r3, #268435456
	beq	.L379
	cmp	r3, #536870912
	bne	.L439
	.loc 1 2776 9
	.loc 1 2776 78 is_stmt 0
	ldr	r3, .L447
.LVL562:
	ldr	r0, [r3]
.LVL563:
	.loc 1 2776 12
	ands	r0, r0, #536870912
	beq	.L317
	.loc 1 2778 11 is_stmt 1
	add	r0, sp, #4
	bl	HAL_RCCEx_GetPLL3ClockFreq
.LVL564:
	.loc 1 2779 11
	.loc 1 2779 21 is_stmt 0
	ldr	r0, [sp, #8]
.LVL565:
	b	.L317
.LVL566:
.L439:
	.loc 1 2754 5
	cbnz	r3, .L440
	.loc 1 2758 9 is_stmt 1
	.loc 1 2758 21 is_stmt 0
	bl	HAL_RCCEx_GetD3PCLK1Freq
.LVL567:
	.loc 1 2759 9 is_stmt 1
	b	.L317
.LVL568:
.L440:
	.loc 1 2754 5 is_stmt 0
	movs	r0, #0
.LVL569:
	b	.L317
.LVL570:
.L378:
	cmp	r3, #1073741824
	beq	.L382
	cmp	r3, #1342177280
	bne	.L441
	.loc 1 2813 9 is_stmt 1
	.loc 1 2813 78 is_stmt 0
	ldr	r3, .L447
.LVL571:
	ldr	r0, [r3]
.LVL572:
	.loc 1 2813 12
	ands	r0, r0, #131072
	beq	.L317
	.loc 1 2815 21
	ldr	r0, .L447+4
	b	.L317
.LVL573:
.L441:
	.loc 1 2754 5
	movs	r0, #0
.LVL574:
	b	.L317
.LVL575:
.L379:
	.loc 1 2763 9 is_stmt 1
	.loc 1 2763 78 is_stmt 0
	ldr	r3, .L447
.LVL576:
	ldr	r0, [r3]
.LVL577:
	.loc 1 2763 12
	ands	r0, r0, #134217728
	beq	.L317
	.loc 1 2765 11 is_stmt 1
	add	r0, sp, #4
	bl	HAL_RCCEx_GetPLL2ClockFreq
.LVL578:
	.loc 1 2766 11
	.loc 1 2766 21 is_stmt 0
	ldr	r0, [sp, #8]
.LVL579:
	b	.L317
.LVL580:
.L377:
	.loc 1 2789 9 is_stmt 1
	.loc 1 2789 78 is_stmt 0
	ldr	r3, .L447
.LVL581:
	ldr	r0, [r3]
.LVL582:
	.loc 1 2789 12
	ands	r0, r0, #4
	beq	.L317
	.loc 1 2791 11 is_stmt 1
	.loc 1 2791 117 is_stmt 0
	ldr	r3, [r3]
	.loc 1 2791 146
	ubfx	r3, r3, #3, #2
	.loc 1 2791 21
	ldr	r0, .L447+8
	lsrs	r0, r0, r3
.LVL583:
	b	.L317
.LVL584:
.L382:
	.loc 1 2801 9 is_stmt 1
	.loc 1 2801 78 is_stmt 0
	ldr	r3, .L447
.LVL585:
	ldr	r0, [r3]
.LVL586:
	.loc 1 2801 12
	ands	r0, r0, #256
	beq	.L317
	.loc 1 2803 21
	ldr	r0, .L447+12
	b	.L317
.LVL587:
.L422:
	.loc 1 2840 5 is_stmt 1
	.loc 1 2840 90 is_stmt 0
	ldr	r3, .L447
	ldr	r3, [r3, #80]
	.loc 1 2840 12
	and	r3, r3, #805306368
.LVL588:
	.loc 1 2842 5 is_stmt 1
	cmp	r3, #268435456
	beq	.L384
	cmp	r3, #536870912
	beq	.L385
	cbz	r3, .L442
	movs	r0, #0
.LVL589:
	.loc 1 2894 3
	.loc 1 2894 10 is_stmt 0
	b	.L317
.LVL590:
.L442:
	.loc 1 2846 9 is_stmt 1
	.loc 1 2846 78 is_stmt 0
	ldr	r3, .L447
.LVL591:
	ldr	r0, [r3]
	.loc 1 2846 12
	ands	r0, r0, #131072
	beq	.L317
	.loc 1 2848 21
	ldr	r0, .L447+4
	b	.L317
.LVL592:
.L384:
	.loc 1 2858 9 is_stmt 1
	.loc 1 2858 78 is_stmt 0
	ldr	r3, .L447
.LVL593:
	ldr	r0, [r3]
	.loc 1 2858 12
	ands	r0, r0, #33554432
	beq	.L317
	.loc 1 2860 11 is_stmt 1
	add	r0, sp, #4
	bl	HAL_RCCEx_GetPLL1ClockFreq
.LVL594:
	.loc 1 2861 11
	.loc 1 2861 21 is_stmt 0
	ldr	r0, [sp, #8]
.LVL595:
	b	.L317
.LVL596:
.L385:
	.loc 1 2871 9 is_stmt 1
	.loc 1 2871 78 is_stmt 0
	ldr	r3, .L447
.LVL597:
	ldr	r0, [r3]
	.loc 1 2871 12
	ands	r0, r0, #134217728
	beq	.L317
	.loc 1 2873 11 is_stmt 1
	add	r0, sp, #4
	bl	HAL_RCCEx_GetPLL2ClockFreq
.LVL598:
	.loc 1 2874 11
	.loc 1 2874 21 is_stmt 0
	ldr	r0, [sp, #8]
.LVL599:
	b	.L317
.LVL600:
.L386:
	.loc 1 1981 19
	movs	r0, #0
.LVL601:
	b	.L317
.LVL602:
.L387:
	.loc 1 1956 21
	ldr	r0, .L447+12
.LVL603:
	b	.L317
.LVL604:
.L388:
	.loc 1 1968 21
	movs	r0, #0
.LVL605:
	b	.L317
.LVL606:
.L389:
	.loc 1 1962 21
	ldr	r0, .L447+4
.LVL607:
	b	.L317
.LVL608:
.L390:
	.loc 1 1993 5
	ldr	r0, .L447+16
.LVL609:
.L317:
	.loc 1 2895 1
	add	sp, sp, #20
	.cfi_remember_state
	.cfi_def_cfa_offset 4
	@ sp needed
	ldr	pc, [sp], #4
.LVL610:
.L391:
	.cfi_restore_state
	.loc 1 2050 21
	ldr	r0, .L447+12
.LVL611:
	b	.L317
.LVL612:
.L392:
	.loc 1 2062 21
	movs	r0, #0
.LVL613:
	b	.L317
.LVL614:
.L393:
	.loc 1 2056 21
	ldr	r0, .L447+4
.LVL615:
	b	.L317
.LVL616:
.L394:
	.loc 1 2280 5
	ldr	r0, .L447+16
.LVL617:
	b	.L317
.LVL618:
.L395:
	.loc 1 2337 21
	ldr	r0, .L447+12
.LVL619:
	b	.L317
.LVL620:
.L396:
	.loc 1 2349 21
	movs	r0, #0
.LVL621:
	b	.L317
.LVL622:
.L397:
	.loc 1 2343 21
	ldr	r0, .L447+4
.LVL623:
	b	.L317
.LVL624:
.L398:
	.loc 1 2374 5
	ldr	r0, .L447+16
.LVL625:
	b	.L317
.LVL626:
.L399:
	.loc 1 2431 21
	ldr	r0, .L447+12
.LVL627:
	b	.L317
.LVL628:
.L400:
	.loc 1 2443 21
	movs	r0, #0
.LVL629:
	b	.L317
.LVL630:
.L401:
	.loc 1 2437 21
	ldr	r0, .L447+4
.LVL631:
	b	.L317
.LVL632:
.L402:
	.loc 1 2468 5
	ldr	r0, .L447+16
.LVL633:
	b	.L317
.LVL634:
.L403:
	.loc 1 2525 21
	ldr	r0, .L447+12
.LVL635:
	b	.L317
.LVL636:
.L404:
	.loc 1 2537 21
	movs	r0, #0
.LVL637:
	b	.L317
.LVL638:
.L405:
	.loc 1 2531 21
	ldr	r0, .L447+4
.LVL639:
	b	.L317
.LVL640:
.L407:
	.loc 1 2683 21
	ldr	r0, .L447+12
.LVL641:
	b	.L317
.LVL642:
.L408:
	.loc 1 2695 21
	movs	r0, #0
.LVL643:
	b	.L317
.LVL644:
.L409:
	.loc 1 2689 21
	ldr	r0, .L447+4
.LVL645:
	b	.L317
.L448:
	.align	2
.L447:
	.word	1476543488
	.word	25000000
	.word	64000000
	.word	4000000
	.word	12288000
	.cfi_endproc
.LFE337:
	.size	HAL_RCCEx_GetPeriphCLKFreq, .-HAL_RCCEx_GetPeriphCLKFreq
	.section	.text.HAL_RCCEx_GetD1SysClockFreq,"ax",%progbits
	.align	1
	.global	HAL_RCCEx_GetD1SysClockFreq
	.syntax unified
	.thumb
	.thumb_func
	.type	HAL_RCCEx_GetD1SysClockFreq, %function
HAL_RCCEx_GetD1SysClockFreq:
.LFB343:
	.loc 1 3144 1 is_stmt 1
	.cfi_startproc
	@ args = 0, pretend = 0, frame = 0
	@ frame_needed = 0, uses_anonymous_args = 0
	push	{r3, lr}
	.cfi_def_cfa_offset 8
	.cfi_offset 3, -8
	.cfi_offset 14, -4
	.loc 1 3145 3
	.loc 1 3148 3
	.loc 1 3148 25 is_stmt 0
	bl	HAL_RCC_GetSysClockFreq
.LVL646:
	.loc 1 3148 135
	ldr	r1, .L451
	ldr	r3, [r1, #24]
	.loc 1 3148 163
	ubfx	r3, r3, #8, #4
	.loc 1 3148 71
	ldr	r2, .L451+4
	ldrb	r3, [r2, r3]	@ zero_extendqisi2
	.loc 1 3148 172
	and	r3, r3, #31
	.loc 1 3148 23
	lsrs	r0, r0, r3
.LVL647:
	.loc 1 3155 3 is_stmt 1
	.loc 1 3155 125 is_stmt 0
	ldr	r3, [r1, #24]
	.loc 1 3155 153
	and	r3, r3, #15
	.loc 1 3155 61
	ldrb	r3, [r2, r3]	@ zero_extendqisi2
	.loc 1 3155 163
	and	r3, r3, #31
	.loc 1 3155 40
	lsr	r3, r0, r3
	.loc 1 3155 17
	ldr	r2, .L451+8
	str	r3, [r2]
	.loc 1 3163 3 is_stmt 1
	.loc 1 3163 19 is_stmt 0
	ldr	r3, .L451+12
	str	r0, [r3]
	.loc 1 3166 3 is_stmt 1
	.loc 1 3167 1 is_stmt 0
	pop	{r3, pc}
.L452:
	.align	2
.L451:
	.word	1476543488
	.word	D1CorePrescTable
	.word	SystemD2Clock
	.word	SystemCoreClock
	.cfi_endproc
.LFE343:
	.size	HAL_RCCEx_GetD1SysClockFreq, .-HAL_RCCEx_GetD1SysClockFreq
	.section	.text.HAL_RCCEx_EnableLSECSS,"ax",%progbits
	.align	1
	.global	HAL_RCCEx_EnableLSECSS
	.syntax unified
	.thumb
	.thumb_func
	.type	HAL_RCCEx_EnableLSECSS, %function
HAL_RCCEx_EnableLSECSS:
.LFB344:
	.loc 1 3184 1 is_stmt 1
	.cfi_startproc
	@ args = 0, pretend = 0, frame = 0
	@ frame_needed = 0, uses_anonymous_args = 0
	@ link register save eliminated.
	.loc 1 3185 3
	.loc 1 3185 67 is_stmt 0
	ldr	r2, .L454
	ldr	r3, [r2, #112]
	.loc 1 3185 75
	orr	r3, r3, #32
	str	r3, [r2, #112]
	.loc 1 3186 1
	bx	lr
.L455:
	.align	2
.L454:
	.word	1476543488
	.cfi_endproc
.LFE344:
	.size	HAL_RCCEx_EnableLSECSS, .-HAL_RCCEx_EnableLSECSS
	.section	.text.HAL_RCCEx_DisableLSECSS,"ax",%progbits
	.align	1
	.global	HAL_RCCEx_DisableLSECSS
	.syntax unified
	.thumb
	.thumb_func
	.type	HAL_RCCEx_DisableLSECSS, %function
HAL_RCCEx_DisableLSECSS:
.LFB345:
	.loc 1 3194 1 is_stmt 1
	.cfi_startproc
	@ args = 0, pretend = 0, frame = 0
	@ frame_needed = 0, uses_anonymous_args = 0
	@ link register save eliminated.
	.loc 1 3195 3
	.loc 1 3195 67 is_stmt 0
	ldr	r3, .L457
	ldr	r2, [r3, #112]
	.loc 1 3195 75
	bic	r2, r2, #32
	str	r2, [r3, #112]
	.loc 1 3197 3 is_stmt 1
	.loc 1 3197 67 is_stmt 0
	ldr	r2, [r3, #96]
	.loc 1 3197 75
	bic	r2, r2, #512
	str	r2, [r3, #96]
	.loc 1 3198 1
	bx	lr
.L458:
	.align	2
.L457:
	.word	1476543488
	.cfi_endproc
.LFE345:
	.size	HAL_RCCEx_DisableLSECSS, .-HAL_RCCEx_DisableLSECSS
	.section	.text.HAL_RCCEx_EnableLSECSS_IT,"ax",%progbits
	.align	1
	.global	HAL_RCCEx_EnableLSECSS_IT
	.syntax unified
	.thumb
	.thumb_func
	.type	HAL_RCCEx_EnableLSECSS_IT, %function
HAL_RCCEx_EnableLSECSS_IT:
.LFB346:
	.loc 1 3206 1 is_stmt 1
	.cfi_startproc
	@ args = 0, pretend = 0, frame = 0
	@ frame_needed = 0, uses_anonymous_args = 0
	@ link register save eliminated.
	.loc 1 3208 3
	.loc 1 3208 67 is_stmt 0
	ldr	r3, .L460
	ldr	r2, [r3, #112]
	.loc 1 3208 75
	orr	r2, r2, #32
	str	r2, [r3, #112]
	.loc 1 3211 3 is_stmt 1
	.loc 1 3211 67 is_stmt 0
	ldr	r2, [r3, #96]
	.loc 1 3211 75
	orr	r2, r2, #512
	str	r2, [r3, #96]
	.loc 1 3217 3 is_stmt 1
	.loc 1 3217 68 is_stmt 0
	mov	r3, #1476395008
	ldr	r2, [r3, #128]
	.loc 1 3217 76
	orr	r2, r2, #262144
	str	r2, [r3, #128]
	.loc 1 3219 3 is_stmt 1
	.loc 1 3219 68 is_stmt 0
	ldr	r2, [r3]
	.loc 1 3219 77
	orr	r2, r2, #262144
	str	r2, [r3]
	.loc 1 3220 1
	bx	lr
.L461:
	.align	2
.L460:
	.word	1476543488
	.cfi_endproc
.LFE346:
	.size	HAL_RCCEx_EnableLSECSS_IT, .-HAL_RCCEx_EnableLSECSS_IT
	.section	.text.HAL_RCCEx_WakeUpStopCLKConfig,"ax",%progbits
	.align	1
	.global	HAL_RCCEx_WakeUpStopCLKConfig
	.syntax unified
	.thumb
	.thumb_func
	.type	HAL_RCCEx_WakeUpStopCLKConfig, %function
HAL_RCCEx_WakeUpStopCLKConfig:
.LFB347:
	.loc 1 3233 1 is_stmt 1
	.cfi_startproc
	@ args = 0, pretend = 0, frame = 0
	@ frame_needed = 0, uses_anonymous_args = 0
	@ link register save eliminated.
.LVL648:
	.loc 1 3234 3
	.loc 1 3236 3
	.loc 1 3236 147 is_stmt 0
	ldr	r2, .L463
	ldr	r3, [r2, #16]
	.loc 1 3236 157
	bic	r3, r3, #64
	.loc 1 3236 181
	orrs	r3, r3, r0
	.loc 1 3236 77
	str	r3, [r2, #16]
	.loc 1 3237 1
	bx	lr
.L464:
	.align	2
.L463:
	.word	1476543488
	.cfi_endproc
.LFE347:
	.size	HAL_RCCEx_WakeUpStopCLKConfig, .-HAL_RCCEx_WakeUpStopCLKConfig
	.section	.text.HAL_RCCEx_KerWakeUpStopCLKConfig,"ax",%progbits
	.align	1
	.global	HAL_RCCEx_KerWakeUpStopCLKConfig
	.syntax unified
	.thumb
	.thumb_func
	.type	HAL_RCCEx_KerWakeUpStopCLKConfig, %function
HAL_RCCEx_KerWakeUpStopCLKConfig:
.LFB348:
	.loc 1 3248 1 is_stmt 1
	.cfi_startproc
	@ args = 0, pretend = 0, frame = 0
	@ frame_needed = 0, uses_anonymous_args = 0
	@ link register save eliminated.
.LVL649:
	.loc 1 3249 3
	.loc 1 3251 3
	.loc 1 3251 147 is_stmt 0
	ldr	r2, .L466
	ldr	r3, [r2, #16]
	.loc 1 3251 157
	bic	r3, r3, #128
	.loc 1 3251 181
	orrs	r3, r3, r0
	.loc 1 3251 77
	str	r3, [r2, #16]
	.loc 1 3252 1
	bx	lr
.L467:
	.align	2
.L466:
	.word	1476543488
	.cfi_endproc
.LFE348:
	.size	HAL_RCCEx_KerWakeUpStopCLKConfig, .-HAL_RCCEx_KerWakeUpStopCLKConfig
	.section	.text.HAL_RCCEx_WWDGxSysResetConfig,"ax",%progbits
	.align	1
	.global	HAL_RCCEx_WWDGxSysResetConfig
	.syntax unified
	.thumb
	.thumb_func
	.type	HAL_RCCEx_WWDGxSysResetConfig, %function
HAL_RCCEx_WWDGxSysResetConfig:
.LFB349:
	.loc 1 3302 1 is_stmt 1
	.cfi_startproc
	@ args = 0, pretend = 0, frame = 0
	@ frame_needed = 0, uses_anonymous_args = 0
	@ link register save eliminated.
.LVL650:
	.loc 1 3303 3
	.loc 1 3304 3
	.loc 1 3304 67 is_stmt 0
	ldr	r2, .L469
	ldr	r3, [r2, #160]
	.loc 1 3304 74
	orrs	r3, r3, r0
	str	r3, [r2, #160]
	.loc 1 3305 1
	bx	lr
.L470:
	.align	2
.L469:
	.word	1476543488
	.cfi_endproc
.LFE349:
	.size	HAL_RCCEx_WWDGxSysResetConfig, .-HAL_RCCEx_WWDGxSysResetConfig
	.section	.text.HAL_RCCEx_CRSConfig,"ax",%progbits
	.align	1
	.global	HAL_RCCEx_CRSConfig
	.syntax unified
	.thumb
	.thumb_func
	.type	HAL_RCCEx_CRSConfig, %function
HAL_RCCEx_CRSConfig:
.LFB350:
	.loc 1 3383 1 is_stmt 1
	.cfi_startproc
	@ args = 0, pretend = 0, frame = 0
	@ frame_needed = 0, uses_anonymous_args = 0
.LVL651:
	push	{r4, lr}
	.cfi_def_cfa_offset 8
	.cfi_offset 4, -8
	.cfi_offset 14, -4
	mov	r4, r0
	.loc 1 3384 3
	.loc 1 3387 3
	.loc 1 3388 3
	.loc 1 3389 3
	.loc 1 3390 3
	.loc 1 3391 3
	.loc 1 3392 3
	.loc 1 3397 3
	.loc 1 3397 66 is_stmt 0
	ldr	r3, .L476
	ldr	r2, [r3, #148]
	.loc 1 3397 79
	orr	r2, r2, #2
	str	r2, [r3, #148]
	.loc 1 3398 3 is_stmt 1
	.loc 1 3398 66 is_stmt 0
	ldr	r2, [r3, #148]
	.loc 1 3398 79
	bic	r2, r2, #2
	str	r2, [r3, #148]
	.loc 1 3403 3 is_stmt 1
	.loc 1 3403 8 is_stmt 0
	bl	HAL_GetREVID
.LVL652:
	.loc 1 3403 6
	movw	r3, #4099
	cmp	r0, r3
	bhi	.L472
	.loc 1 3403 55 discriminator 1
	ldr	r3, [r4, #4]
	.loc 1 3403 46 discriminator 1
	cmp	r3, #805306368
	beq	.L475
.L472:
	.loc 1 3410 5 is_stmt 1
	.loc 1 3410 19 is_stmt 0
	ldr	r2, [r4]
	.loc 1 3410 38
	ldr	r3, [r4, #4]
	.loc 1 3410 31
	orrs	r2, r2, r3
	.loc 1 3410 54
	ldr	r3, [r4, #8]
	.loc 1 3410 11
	orrs	r2, r2, r3
.LVL653:
.L473:
	.loc 1 3413 3 is_stmt 1
	.loc 1 3413 17 is_stmt 0
	ldr	r3, [r4, #12]
	.loc 1 3413 9
	orrs	r3, r3, r2
.LVL654:
	.loc 1 3415 3 is_stmt 1
	.loc 1 3415 18 is_stmt 0
	ldr	r2, [r4, #16]
	.loc 1 3415 9
	orr	r2, r3, r2, lsl #16
.LVL655:
	.loc 1 3416 3 is_stmt 1
	.loc 1 3416 58 is_stmt 0
	ldr	r3, .L476+4
	str	r2, [r3, #4]
	.loc 1 3420 3 is_stmt 1
	.loc 1 3420 111 is_stmt 0
	ldr	r2, [r3]
.LVL656:
	.loc 1 3420 119
	bic	r2, r2, #16128
	.loc 1 3420 153
	ldr	r1, [r4, #20]
	.loc 1 3420 144
	orr	r2, r2, r1, lsl #8
	.loc 1 3420 58
	str	r2, [r3]
.LVL657:
	.loc 1 3425 3 is_stmt 1
	.loc 1 3425 50 is_stmt 0
	ldr	r2, [r3]
	.loc 1 3425 56
	orr	r2, r2, #96
	str	r2, [r3]
	.loc 1 3426 1
	pop	{r4, pc}
.LVL658:
.L475:
	.loc 1 3406 5 is_stmt 1
	.loc 1 3406 19 is_stmt 0
	ldr	r2, [r4]
	.loc 1 3406 54
	ldr	r3, [r4, #8]
	.loc 1 3406 11
	orrs	r2, r2, r3
.LVL659:
	b	.L473
.L477:
	.align	2
.L476:
	.word	1476543488
	.word	1073775616
	.cfi_endproc
.LFE350:
	.size	HAL_RCCEx_CRSConfig, .-HAL_RCCEx_CRSConfig
	.section	.text.HAL_RCCEx_CRSSoftwareSynchronizationGenerate,"ax",%progbits
	.align	1
	.global	HAL_RCCEx_CRSSoftwareSynchronizationGenerate
	.syntax unified
	.thumb
	.thumb_func
	.type	HAL_RCCEx_CRSSoftwareSynchronizationGenerate, %function
HAL_RCCEx_CRSSoftwareSynchronizationGenerate:
.LFB351:
	.loc 1 3433 1 is_stmt 1
	.cfi_startproc
	@ args = 0, pretend = 0, frame = 0
	@ frame_needed = 0, uses_anonymous_args = 0
	@ link register save eliminated.
	.loc 1 3434 3
	.loc 1 3434 50 is_stmt 0
	ldr	r2, .L479
	ldr	r3, [r2]
	.loc 1 3434 56
	orr	r3, r3, #128
	str	r3, [r2]
	.loc 1 3435 1
	bx	lr
.L480:
	.align	2
.L479:
	.word	1073775616
	.cfi_endproc
.LFE351:
	.size	HAL_RCCEx_CRSSoftwareSynchronizationGenerate, .-HAL_RCCEx_CRSSoftwareSynchronizationGenerate
	.section	.text.HAL_RCCEx_CRSGetSynchronizationInfo,"ax",%progbits
	.align	1
	.global	HAL_RCCEx_CRSGetSynchronizationInfo
	.syntax unified
	.thumb
	.thumb_func
	.type	HAL_RCCEx_CRSGetSynchronizationInfo, %function
HAL_RCCEx_CRSGetSynchronizationInfo:
.LFB352:
	.loc 1 3443 1 is_stmt 1
	.cfi_startproc
	@ args = 0, pretend = 0, frame = 0
	@ frame_needed = 0, uses_anonymous_args = 0
	@ link register save eliminated.
.LVL660:
	.loc 1 3445 3
	.loc 1 3448 3
	.loc 1 3448 89 is_stmt 0
	ldr	r3, .L482
	ldr	r2, [r3, #4]
	.loc 1 3448 31
	uxth	r2, r2
	.loc 1 3448 29
	str	r2, [r0]
	.loc 1 3451 3 is_stmt 1
	.loc 1 3451 99 is_stmt 0
	ldr	r2, [r3]
	.loc 1 3451 41
	ubfx	r2, r2, #8, #6
	.loc 1 3451 39
	str	r2, [r0, #4]
	.loc 1 3454 3 is_stmt 1
	.loc 1 3454 94 is_stmt 0
	ldr	r2, [r3, #8]
	.loc 1 3454 36
	lsrs	r2, r2, #16
	.loc 1 3454 34
	str	r2, [r0, #8]
	.loc 1 3457 3 is_stmt 1
	.loc 1 3457 96 is_stmt 0
	ldr	r3, [r3, #8]
	.loc 1 3457 38
	and	r3, r3, #32768
	.loc 1 3457 36
	str	r3, [r0, #12]
	.loc 1 3458 1
	bx	lr
.L483:
	.align	2
.L482:
	.word	1073775616
	.cfi_endproc
.LFE352:
	.size	HAL_RCCEx_CRSGetSynchronizationInfo, .-HAL_RCCEx_CRSGetSynchronizationInfo
	.section	.text.HAL_RCCEx_CRSWaitSynchronization,"ax",%progbits
	.align	1
	.global	HAL_RCCEx_CRSWaitSynchronization
	.syntax unified
	.thumb
	.thumb_func
	.type	HAL_RCCEx_CRSWaitSynchronization, %function
HAL_RCCEx_CRSWaitSynchronization:
.LFB353:
	.loc 1 3476 1 is_stmt 1
	.cfi_startproc
	@ args = 0, pretend = 0, frame = 0
	@ frame_needed = 0, uses_anonymous_args = 0
.LVL661:
	push	{r4, r5, r6, lr}
	.cfi_def_cfa_offset 16
	.cfi_offset 4, -16
	.cfi_offset 5, -12
	.cfi_offset 6, -8
	.cfi_offset 14, -4
	mov	r5, r0
	.loc 1 3477 3
.LVL662:
	.loc 1 3478 3
	.loc 1 3481 3
	.loc 1 3481 15 is_stmt 0
	bl	HAL_GetTick
.LVL663:
	mov	r6, r0
.LVL664:
	.loc 1 3477 12
	movs	r4, #0
	b	.L492
.LVL665:
.L497:
	.loc 1 3488 7 is_stmt 1
	.loc 1 3488 13 is_stmt 0
	bl	HAL_GetTick
.LVL666:
	.loc 1 3488 27
	subs	r0, r0, r6
	.loc 1 3488 10
	cmp	r0, r5
	bhi	.L493
	.loc 1 3488 51 discriminator 1
	cbnz	r5, .L485
	.loc 1 3490 19
	movs	r4, #1
.LVL667:
	b	.L485
.LVL668:
.L493:
	movs	r4, #1
.LVL669:
	b	.L485
.LVL670:
.L498:
	.loc 1 3547 7 is_stmt 1 discriminator 2
	.loc 1 3547 12 discriminator 2
	.loc 1 3547 290 discriminator 2
	.loc 1 3547 344 is_stmt 0 discriminator 2
	ldr	r3, .L499
	movs	r2, #8
	str	r2, [r3, #12]
.L491:
	.loc 1 3547 10 is_stmt 1 discriminator 4
	.loc 1 3550 24 discriminator 4
	cmp	r4, #0
	bne	.L496
.LVL671:
.L492:
	.loc 1 3484 3
	.loc 1 3486 5
	.loc 1 3486 8 is_stmt 0
	cmp	r5, #-1
	bne	.L497
.LVL672:
.L485:
	.loc 1 3494 5 is_stmt 1
	.loc 1 3494 57 is_stmt 0
	ldr	r3, .L499
	ldr	r3, [r3, #8]
	.loc 1 3494 8
	tst	r3, #1
	beq	.L486
	.loc 1 3497 7 is_stmt 1
	.loc 1 3497 17 is_stmt 0
	orr	r4, r4, #2
.LVL673:
	.loc 1 3500 7 is_stmt 1
	.loc 1 3500 12
	.loc 1 3500 290
	.loc 1 3500 344 is_stmt 0
	ldr	r3, .L499
	movs	r2, #1
	str	r2, [r3, #12]
.L486:
	.loc 1 3500 10 is_stmt 1 discriminator 4
	.loc 1 3504 5 discriminator 4
	.loc 1 3504 57 is_stmt 0 discriminator 4
	ldr	r3, .L499
	ldr	r3, [r3, #8]
	.loc 1 3504 8 discriminator 4
	tst	r3, #2
	beq	.L487
	.loc 1 3507 7 is_stmt 1
	.loc 1 3507 17 is_stmt 0
	orr	r4, r4, #4
.LVL674:
	.loc 1 3510 7 is_stmt 1
	.loc 1 3510 12
	.loc 1 3510 290
	.loc 1 3510 344 is_stmt 0
	ldr	r3, .L499
	movs	r2, #2
	str	r2, [r3, #12]
.L487:
	.loc 1 3510 10 is_stmt 1 discriminator 4
	.loc 1 3514 5 discriminator 4
	.loc 1 3514 57 is_stmt 0 discriminator 4
	ldr	r3, .L499
	ldr	r3, [r3, #8]
	.loc 1 3514 8 discriminator 4
	tst	r3, #1024
	beq	.L488
	.loc 1 3517 7 is_stmt 1
	.loc 1 3517 17 is_stmt 0
	orr	r4, r4, #32
.LVL675:
	.loc 1 3520 7 is_stmt 1
	.loc 1 3520 12
	.loc 1 3520 114
	.loc 1 3520 168 is_stmt 0
	ldr	r3, .L499
	movs	r2, #4
	str	r2, [r3, #12]
.L488:
	.loc 1 3520 10 is_stmt 1 discriminator 4
	.loc 1 3524 5 discriminator 4
	.loc 1 3524 57 is_stmt 0 discriminator 4
	ldr	r3, .L499
	ldr	r3, [r3, #8]
	.loc 1 3524 8 discriminator 4
	tst	r3, #256
	beq	.L489
	.loc 1 3527 7 is_stmt 1
	.loc 1 3527 17 is_stmt 0
	orr	r4, r4, #8
.LVL676:
	.loc 1 3530 7 is_stmt 1
	.loc 1 3530 12
	.loc 1 3530 113
	.loc 1 3530 167 is_stmt 0
	ldr	r3, .L499
	movs	r2, #4
	str	r2, [r3, #12]
.L489:
	.loc 1 3530 10 is_stmt 1 discriminator 4
	.loc 1 3534 5 discriminator 4
	.loc 1 3534 57 is_stmt 0 discriminator 4
	ldr	r3, .L499
	ldr	r3, [r3, #8]
	.loc 1 3534 8 discriminator 4
	tst	r3, #512
	beq	.L490
	.loc 1 3537 7 is_stmt 1
	.loc 1 3537 17 is_stmt 0
	orr	r4, r4, #16
.LVL677:
	.loc 1 3540 7 is_stmt 1
	.loc 1 3540 12
	.loc 1 3540 113
	.loc 1 3540 167 is_stmt 0
	ldr	r3, .L499
	movs	r2, #4
	str	r2, [r3, #12]
.L490:
	.loc 1 3540 10 is_stmt 1 discriminator 4
	.loc 1 3544 5 discriminator 4
	.loc 1 3544 57 is_stmt 0 discriminator 4
	ldr	r3, .L499
	ldr	r3, [r3, #8]
	.loc 1 3544 8 discriminator 4
	tst	r3, #8
	beq	.L491
	b	.L498
.L496:
	.loc 1 3552 3 is_stmt 1
	.loc 1 3553 1 is_stmt 0
	mov	r0, r4
	pop	{r4, r5, r6, pc}
.LVL678:
.L500:
	.align	2
.L499:
	.word	1073775616
	.cfi_endproc
.LFE353:
	.size	HAL_RCCEx_CRSWaitSynchronization, .-HAL_RCCEx_CRSWaitSynchronization
	.section	.text.HAL_RCCEx_CRS_SyncOkCallback,"ax",%progbits
	.align	1
	.weak	HAL_RCCEx_CRS_SyncOkCallback
	.syntax unified
	.thumb
	.thumb_func
	.type	HAL_RCCEx_CRS_SyncOkCallback, %function
HAL_RCCEx_CRS_SyncOkCallback:
.LFB355:
	.loc 1 3625 1 is_stmt 1
	.cfi_startproc
	@ args = 0, pretend = 0, frame = 0
	@ frame_needed = 0, uses_anonymous_args = 0
	@ link register save eliminated.
	.loc 1 3629 1
	bx	lr
	.cfi_endproc
.LFE355:
	.size	HAL_RCCEx_CRS_SyncOkCallback, .-HAL_RCCEx_CRS_SyncOkCallback
	.section	.text.HAL_RCCEx_CRS_SyncWarnCallback,"ax",%progbits
	.align	1
	.weak	HAL_RCCEx_CRS_SyncWarnCallback
	.syntax unified
	.thumb
	.thumb_func
	.type	HAL_RCCEx_CRS_SyncWarnCallback, %function
HAL_RCCEx_CRS_SyncWarnCallback:
.LFB356:
	.loc 1 3636 1
	.cfi_startproc
	@ args = 0, pretend = 0, frame = 0
	@ frame_needed = 0, uses_anonymous_args = 0
	@ link register save eliminated.
	.loc 1 3640 1
	bx	lr
	.cfi_endproc
.LFE356:
	.size	HAL_RCCEx_CRS_SyncWarnCallback, .-HAL_RCCEx_CRS_SyncWarnCallback
	.section	.text.HAL_RCCEx_CRS_ExpectedSyncCallback,"ax",%progbits
	.align	1
	.weak	HAL_RCCEx_CRS_ExpectedSyncCallback
	.syntax unified
	.thumb
	.thumb_func
	.type	HAL_RCCEx_CRS_ExpectedSyncCallback, %function
HAL_RCCEx_CRS_ExpectedSyncCallback:
.LFB357:
	.loc 1 3647 1
	.cfi_startproc
	@ args = 0, pretend = 0, frame = 0
	@ frame_needed = 0, uses_anonymous_args = 0
	@ link register save eliminated.
	.loc 1 3651 1
	bx	lr
	.cfi_endproc
.LFE357:
	.size	HAL_RCCEx_CRS_ExpectedSyncCallback, .-HAL_RCCEx_CRS_ExpectedSyncCallback
	.section	.text.HAL_RCCEx_CRS_ErrorCallback,"ax",%progbits
	.align	1
	.weak	HAL_RCCEx_CRS_ErrorCallback
	.syntax unified
	.thumb
	.thumb_func
	.type	HAL_RCCEx_CRS_ErrorCallback, %function
HAL_RCCEx_CRS_ErrorCallback:
.LFB358:
	.loc 1 3663 1
	.cfi_startproc
	@ args = 0, pretend = 0, frame = 0
	@ frame_needed = 0, uses_anonymous_args = 0
	@ link register save eliminated.
.LVL679:
	.loc 1 3665 3
	.loc 1 3670 1 is_stmt 0
	bx	lr
	.cfi_endproc
.LFE358:
	.size	HAL_RCCEx_CRS_ErrorCallback, .-HAL_RCCEx_CRS_ErrorCallback
	.section	.text.HAL_RCCEx_CRS_IRQHandler,"ax",%progbits
	.align	1
	.global	HAL_RCCEx_CRS_IRQHandler
	.syntax unified
	.thumb
	.thumb_func
	.type	HAL_RCCEx_CRS_IRQHandler, %function
HAL_RCCEx_CRS_IRQHandler:
.LFB354:
	.loc 1 3560 1 is_stmt 1
	.cfi_startproc
	@ args = 0, pretend = 0, frame = 0
	@ frame_needed = 0, uses_anonymous_args = 0
	push	{r3, lr}
	.cfi_def_cfa_offset 8
	.cfi_offset 3, -8
	.cfi_offset 14, -4
	.loc 1 3561 3
.LVL680:
	.loc 1 3563 3
	.loc 1 3563 12 is_stmt 0
	ldr	r2, .L518
	ldr	r3, [r2, #8]
.LVL681:
	.loc 1 3564 3 is_stmt 1
	.loc 1 3564 12 is_stmt 0
	ldr	r2, [r2]
.LVL682:
	.loc 1 3567 3 is_stmt 1
	.loc 1 3567 6 is_stmt 0
	tst	r3, #1
	beq	.L506
	.loc 1 3567 43 discriminator 1
	tst	r2, #1
	bne	.L515
.L506:
	.loc 1 3576 8 is_stmt 1
	.loc 1 3576 11 is_stmt 0
	tst	r3, #2
	beq	.L508
	.loc 1 3576 48 discriminator 1
	tst	r2, #2
	bne	.L516
.L508:
	.loc 1 3585 8 is_stmt 1
	.loc 1 3585 11 is_stmt 0
	tst	r3, #8
	beq	.L509
	.loc 1 3585 48 discriminator 1
	tst	r2, #8
	bne	.L517
.L509:
	.loc 1 3596 5 is_stmt 1
	.loc 1 3596 8 is_stmt 0
	tst	r3, #4
	beq	.L505
	.loc 1 3596 45 discriminator 1
	tst	r2, #4
	beq	.L505
	.loc 1 3598 7 is_stmt 1
	.loc 1 3598 10 is_stmt 0
	ands	r0, r3, #256
	beq	.L510
	.loc 1 3600 18
	movs	r0, #8
.L510:
.LVL683:
	.loc 1 3602 7 is_stmt 1
	.loc 1 3602 10 is_stmt 0
	tst	r3, #512
	beq	.L511
	.loc 1 3604 9 is_stmt 1
	.loc 1 3604 18 is_stmt 0
	orr	r0, r0, #16
.LVL684:
.L511:
	.loc 1 3606 7 is_stmt 1
	.loc 1 3606 10 is_stmt 0
	tst	r3, #1024
	beq	.L512
	.loc 1 3608 9 is_stmt 1
	.loc 1 3608 18 is_stmt 0
	orr	r0, r0, #32
.LVL685:
.L512:
	.loc 1 3612 7 is_stmt 1
	.loc 1 3612 61 is_stmt 0
	ldr	r3, .L518
.LVL686:
	movs	r2, #4
.LVL687:
	str	r2, [r3, #12]
	.loc 1 3615 7 is_stmt 1
	bl	HAL_RCCEx_CRS_ErrorCallback
.LVL688:
	.loc 1 3618 1 is_stmt 0
	b	.L505
.LVL689:
.L515:
	.loc 1 3570 5 is_stmt 1
	.loc 1 3570 59 is_stmt 0
	ldr	r3, .L518
.LVL690:
	movs	r2, #1
.LVL691:
	str	r2, [r3, #12]
	.loc 1 3573 5 is_stmt 1
	bl	HAL_RCCEx_CRS_SyncOkCallback
.LVL692:
.L505:
	.loc 1 3618 1 is_stmt 0
	pop	{r3, pc}
.LVL693:
.L516:
	.loc 1 3579 5 is_stmt 1
	.loc 1 3579 59 is_stmt 0
	ldr	r3, .L518
.LVL694:
	movs	r2, #2
.LVL695:
	str	r2, [r3, #12]
	.loc 1 3582 5 is_stmt 1
	bl	HAL_RCCEx_CRS_SyncWarnCallback
.LVL696:
	b	.L505
.LVL697:
.L517:
	.loc 1 3588 5
	.loc 1 3588 59 is_stmt 0
	ldr	r3, .L518
.LVL698:
	movs	r2, #8
.LVL699:
	str	r2, [r3, #12]
	.loc 1 3591 5 is_stmt 1
	bl	HAL_RCCEx_CRS_ExpectedSyncCallback
.LVL700:
	b	.L505
.L519:
	.align	2
.L518:
	.word	1073775616
	.cfi_endproc
.LFE354:
	.size	HAL_RCCEx_CRS_IRQHandler, .-HAL_RCCEx_CRS_IRQHandler
	.section	.text.HAL_RCCEx_LSECSS_Callback,"ax",%progbits
	.align	1
	.weak	HAL_RCCEx_LSECSS_Callback
	.syntax unified
	.thumb
	.thumb_func
	.type	HAL_RCCEx_LSECSS_Callback, %function
HAL_RCCEx_LSECSS_Callback:
.LFB362:
	.loc 1 3915 1
	.cfi_startproc
	@ args = 0, pretend = 0, frame = 0
	@ frame_needed = 0, uses_anonymous_args = 0
	@ link register save eliminated.
	.loc 1 3919 1
	bx	lr
	.cfi_endproc
.LFE362:
	.size	HAL_RCCEx_LSECSS_Callback, .-HAL_RCCEx_LSECSS_Callback
	.section	.text.HAL_RCCEx_LSECSS_IRQHandler,"ax",%progbits
	.align	1
	.global	HAL_RCCEx_LSECSS_IRQHandler
	.syntax unified
	.thumb
	.thumb_func
	.type	HAL_RCCEx_LSECSS_IRQHandler, %function
HAL_RCCEx_LSECSS_IRQHandler:
.LFB361:
	.loc 1 3896 1
	.cfi_startproc
	@ args = 0, pretend = 0, frame = 0
	@ frame_needed = 0, uses_anonymous_args = 0
	push	{r3, lr}
	.cfi_def_cfa_offset 8
	.cfi_offset 3, -8
	.cfi_offset 14, -4
	.loc 1 3898 3
	.loc 1 3898 71 is_stmt 0
	ldr	r3, .L525
	ldr	r3, [r3, #100]
	.loc 1 3898 6
	tst	r3, #512
	bne	.L524
.L521:
	.loc 1 3908 1
	pop	{r3, pc}
.L524:
	.loc 1 3902 5 is_stmt 1
	.loc 1 3902 75 is_stmt 0
	ldr	r3, .L525
	mov	r2, #512
	str	r2, [r3, #104]
	.loc 1 3905 5 is_stmt 1
	bl	HAL_RCCEx_LSECSS_Callback
.LVL701:
	.loc 1 3908 1 is_stmt 0
	b	.L521
.L526:
	.align	2
.L525:
	.word	1476543488
	.cfi_endproc
.LFE361:
	.size	HAL_RCCEx_LSECSS_IRQHandler, .-HAL_RCCEx_LSECSS_IRQHandler
	.text
.Letext0:
	.file 2 "m:\\noinstall\\arm-gnu-toolchain-12.2.rel1-mingw-w64-i686-arm-none-eabi\\arm-none-eabi\\include\\machine\\_default_types.h"
	.file 3 "m:\\noinstall\\arm-gnu-toolchain-12.2.rel1-mingw-w64-i686-arm-none-eabi\\arm-none-eabi\\include\\sys\\_stdint.h"
	.file 4 "D:/RTOS/Board/YD-STM32H7xxVx_ClassicV19/cmake-build-debug/_deps/stm32h7xx_cmsis_device-src/Include/system_stm32h7xx.h"
	.file 5 "D:/RTOS/Board/YD-STM32H7xxVx_ClassicV19/cmake-build-debug/_deps/stm32h7xx_cmsis_device-src/Include/stm32h743xx.h"
	.file 6 "m:\\noinstall\\arm-gnu-toolchain-12.2.rel1-mingw-w64-i686-arm-none-eabi\\arm-none-eabi\\include\\math.h"
	.file 7 "D:/RTOS/Board/YD-STM32H7xxVx_ClassicV19/cmake-build-debug/_deps/stm32h7xx_hal_driver-src/Inc/stm32h7xx_hal_def.h"
	.file 8 "D:/RTOS/Board/YD-STM32H7xxVx_ClassicV19/cmake-build-debug/_deps/stm32h7xx_hal_driver-src/Inc/stm32h7xx_hal_rcc_ex.h"
	.file 9 "D:/RTOS/Board/YD-STM32H7xxVx_ClassicV19/cmake-build-debug/_deps/stm32h7xx_hal_driver-src/Inc/stm32h7xx_hal.h"
	.file 10 "D:/RTOS/Board/YD-STM32H7xxVx_ClassicV19/cmake-build-debug/_deps/stm32h7xx_hal_driver-src/Inc/stm32h7xx_hal_rcc.h"