	.cpu cortex-m7
	.arch armv7e-m
	.fpu fpv5-d16
	.eabi_attribute 28, 1
	.eabi_attribute 20, 1
	.eabi_attribute 21, 1
	.eabi_attribute 23, 3
	.eabi_attribute 24, 1
	.eabi_attribute 25, 1
	.eabi_attribute 26, 1
	.eabi_attribute 30, 1
	.eabi_attribute 34, 1
	.eabi_attribute 18, 4
	.file	"stm32h7xx_hal_dac.c"
	.text
.Ltext0:
	.cfi_sections	.debug_frame
	.file 1 "D:/RTOS/Board/YD-STM32H7xxVx_ClassicV19/cmake-build-debug/_deps/stm32h7xx_hal_driver-src/Src/stm32h7xx_hal_dac.c"
	.section	.text.HAL_DAC_MspInit,"ax",%progbits
	.align	1
	.weak	HAL_DAC_MspInit
	.syntax unified
	.thumb
	.thumb_func
	.type	HAL_DAC_MspInit, %function
HAL_DAC_MspInit:
.LFB337:
	.loc 1 457 1
	.cfi_startproc
	@ args = 0, pretend = 0, frame = 0
	@ frame_needed = 0, uses_anonymous_args = 0
	@ link register save eliminated.
.LVL0:
	.loc 1 459 3
	.loc 1 464 1 is_stmt 0
	bx	lr
	.cfi_endproc
.LFE337:
	.size	HAL_DAC_MspInit, .-HAL_DAC_MspInit
	.section	.text.HAL_DAC_Init,"ax",%progbits
	.align	1
	.global	HAL_DAC_Init
	.syntax unified
	.thumb
	.thumb_func
	.type	HAL_DAC_Init, %function
HAL_DAC_Init:
.LFB335:
	.loc 1 351 1 is_stmt 1
	.cfi_startproc
	@ args = 0, pretend = 0, frame = 0
	@ frame_needed = 0, uses_anonymous_args = 0
.LVL1:
	.loc 1 353 3
	.loc 1 353 6 is_stmt 0
	cbz	r0, .L5
	.loc 1 351 1
	push	{r4, lr}
	.cfi_def_cfa_offset 8
	.cfi_offset 4, -8
	.cfi_offset 14, -4
	mov	r4, r0
	.loc 1 358 3 is_stmt 1
	.loc 1 360 3
	.loc 1 360 11 is_stmt 0
	ldrb	r3, [r0, #4]	@ zero_extendqisi2
	.loc 1 360 6
	cbz	r3, .L10
.LVL2:
.L4:
	.loc 1 393 3 is_stmt 1
	.loc 1 393 15 is_stmt 0
	movs	r3, #2
	strb	r3, [r4, #4]
	.loc 1 396 3 is_stmt 1
	.loc 1 396 19 is_stmt 0
	movs	r0, #0
	str	r0, [r4, #16]
	.loc 1 399 3 is_stmt 1
	.loc 1 399 15 is_stmt 0
	movs	r3, #1
	strb	r3, [r4, #4]
	.loc 1 402 3 is_stmt 1
	.loc 1 403 1 is_stmt 0
	pop	{r4, pc}
.LVL3:
.L10:
	.loc 1 381 5 is_stmt 1
	.loc 1 381 16 is_stmt 0
	strb	r3, [r0, #5]
	.loc 1 388 5 is_stmt 1
	bl	HAL_DAC_MspInit
.LVL4:
	b	.L4
.LVL5:
.L5:
	.cfi_def_cfa_offset 0
	.cfi_restore 4
	.cfi_restore 14
	.loc 1 355 12 is_stmt 0
	movs	r0, #1
.LVL6:
	.loc 1 403 1
	bx	lr
	.cfi_endproc
.LFE335:
	.size	HAL_DAC_Init, .-HAL_DAC_Init
	.section	.text.HAL_DAC_MspDeInit,"ax",%progbits
	.align	1
	.weak	HAL_DAC_MspDeInit
	.syntax unified
	.thumb
	.thumb_func
	.type	HAL_DAC_MspDeInit, %function
HAL_DAC_MspDeInit:
.LFB338:
	.loc 1 473 1 is_stmt 1
	.cfi_startproc
	@ args = 0, pretend = 0, frame = 0
	@ frame_needed = 0, uses_anonymous_args = 0
	@ link register save eliminated.
.LVL7:
	.loc 1 475 3
	.loc 1 480 1 is_stmt 0
	bx	lr
	.cfi_endproc
.LFE338:
	.size	HAL_DAC_MspDeInit, .-HAL_DAC_MspDeInit
	.section	.text.HAL_DAC_DeInit,"ax",%progbits
	.align	1
	.global	HAL_DAC_DeInit
	.syntax unified
	.thumb
	.thumb_func
	.type	HAL_DAC_DeInit, %function
HAL_DAC_DeInit:
.LFB336:
	.loc 1 412 1 is_stmt 1
	.cfi_startproc
	@ args = 0, pretend = 0, frame = 0
	@ frame_needed = 0, uses_anonymous_args = 0
.LVL8:
	.loc 1 414 3
	.loc 1 414 6 is_stmt 0
	cbz	r0, .L14
	.loc 1 412 1
	push	{r4, lr}
	.cfi_def_cfa_offset 8
	.cfi_offset 4, -8
	.cfi_offset 14, -4
	mov	r4, r0
	.loc 1 420 3 is_stmt 1
	.loc 1 423 3
	.loc 1 423 15 is_stmt 0
	movs	r3, #2
	strb	r3, [r0, #4]
	.loc 1 434 3 is_stmt 1
	bl	HAL_DAC_MspDeInit
.LVL9:
	.loc 1 438 3
	.loc 1 438 19 is_stmt 0
	movs	r0, #0
	str	r0, [r4, #16]
	.loc 1 441 3 is_stmt 1
	.loc 1 441 15 is_stmt 0
	strb	r0, [r4, #4]
	.loc 1 444 3 is_stmt 1
	.loc 1 444 7
	.loc 1 444 20 is_stmt 0
	strb	r0, [r4, #5]
	.loc 1 444 5 is_stmt 1
	.loc 1 447 3
	.loc 1 448 1 is_stmt 0
	pop	{r4, pc}
.LVL10:
.L14:
	.cfi_def_cfa_offset 0
	.cfi_restore 4
	.cfi_restore 14
	.loc 1 416 12
	movs	r0, #1
.LVL11:
	.loc 1 448 1
	bx	lr
	.cfi_endproc
.LFE336:
	.size	HAL_DAC_DeInit, .-HAL_DAC_DeInit
	.section	.text.HAL_DAC_Start,"ax",%progbits
	.align	1
	.global	HAL_DAC_Start
	.syntax unified
	.thumb
	.thumb_func
	.type	HAL_DAC_Start, %function
HAL_DAC_Start:
.LFB339:
	.loc 1 515 1 is_stmt 1
	.cfi_startproc
	@ args = 0, pretend = 0, frame = 0
	@ frame_needed = 0, uses_anonymous_args = 0
	@ link register save eliminated.
.LVL12:
	.loc 1 517 3
	.loc 1 517 6 is_stmt 0
	cbz	r0, .L23
	mov	r3, r0
	.loc 1 523 3 is_stmt 1
	.loc 1 526 3
	.loc 1 526 7
	.loc 1 526 16 is_stmt 0
	ldrb	r2, [r0, #5]	@ zero_extendqisi2
	.loc 1 526 9
	cmp	r2, #1
	beq	.L24
	.loc 1 515 1 discriminator 2
	push	{r4}
	.cfi_def_cfa_offset 4
	.cfi_offset 4, -4
	.loc 1 526 66 is_stmt 1 discriminator 2
	.loc 1 526 79 is_stmt 0 discriminator 2
	movs	r2, #1
	strb	r2, [r0, #5]
	.loc 1 526 5 is_stmt 1 discriminator 2
	.loc 1 529 3 discriminator 2
	.loc 1 529 15 is_stmt 0 discriminator 2
	movs	r0, #2
.LVL13:
	strb	r0, [r3, #4]
	.loc 1 532 3 is_stmt 1 discriminator 2
	.loc 1 532 10 is_stmt 0 discriminator 2
	ldr	r4, [r3]
	.loc 1 532 20 discriminator 2
	ldr	r0, [r4]
	.loc 1 532 59 discriminator 2
	and	ip, r1, #16
	.loc 1 532 45 discriminator 2
	lsl	r2, r2, ip
	.loc 1 532 25 discriminator 2
	orrs	r2, r2, r0
	str	r2, [r4]
	.loc 1 534 3 is_stmt 1 discriminator 2
	.loc 1 534 6 is_stmt 0 discriminator 2
	cbnz	r1, .L21
	.loc 1 537 5 is_stmt 1
	.loc 1 537 14 is_stmt 0
	ldr	r1, [r3]
.LVL14:
	.loc 1 537 24
	ldr	r2, [r1]
	.loc 1 537 29
	and	r2, r2, #62
	.loc 1 537 8
	cmp	r2, #2
	beq	.L29
.L22:
	.loc 1 556 3 is_stmt 1
	.loc 1 556 15 is_stmt 0
	movs	r2, #1
	strb	r2, [r3, #4]
	.loc 1 559 3 is_stmt 1
	.loc 1 559 7
	.loc 1 559 20 is_stmt 0
	movs	r0, #0
	strb	r0, [r3, #5]
	.loc 1 559 5 is_stmt 1
	.loc 1 562 3
	.loc 1 563 1 is_stmt 0
	ldr	r4, [sp], #4
	.cfi_remember_state
	.cfi_restore 4
	.cfi_def_cfa_offset 0
	bx	lr
.L29:
	.cfi_restore_state
	.loc 1 540 7 is_stmt 1
	.loc 1 540 23 is_stmt 0
	ldr	r2, [r1, #4]
	.loc 1 540 34
	orr	r2, r2, #1
	str	r2, [r1, #4]
	b	.L22
.LVL15:
.L21:
	.loc 1 547 5 is_stmt 1
	.loc 1 547 14 is_stmt 0
	ldr	r0, [r3]
	.loc 1 547 24
	ldr	r1, [r0]
.LVL16:
	.loc 1 547 29
	and	r1, r1, #4063232
	.loc 1 547 93
	movs	r2, #2
	lsl	r2, r2, ip
	.loc 1 547 8
	cmp	r1, r2
	bne	.L22
	.loc 1 550 7 is_stmt 1
	.loc 1 550 23 is_stmt 0
	ldr	r2, [r0, #4]
	.loc 1 550 34
	orr	r2, r2, #2
	str	r2, [r0, #4]
	b	.L22
.LVL17:
.L23:
	.cfi_def_cfa_offset 0
	.cfi_restore 4
	.loc 1 519 12
	movs	r0, #1
.LVL18:
	bx	lr
.LVL19:
.L24:
	.loc 1 526 47
	movs	r0, #2
.LVL20:
	.loc 1 563 1
	bx	lr
	.cfi_endproc
.LFE339:
	.size	HAL_DAC_Start, .-HAL_DAC_Start
	.section	.text.HAL_DAC_Stop,"ax",%progbits
	.align	1
	.global	HAL_DAC_Stop
	.syntax unified
	.thumb
	.thumb_func
	.type	HAL_DAC_Stop, %function
HAL_DAC_Stop:
.LFB340:
	.loc 1 576 1 is_stmt 1
	.cfi_startproc
	@ args = 0, pretend = 0, frame = 0
	@ frame_needed = 0, uses_anonymous_args = 0
	@ link register save eliminated.
.LVL21:
	.loc 1 578 3
	.loc 1 578 6 is_stmt 0
	cbz	r0, .L32
	.loc 1 576 1
	push	{r4}
	.cfi_def_cfa_offset 4
	.cfi_offset 4, -4
	mov	r2, r0
	.loc 1 584 3 is_stmt 1
	.loc 1 587 3
	.loc 1 587 10 is_stmt 0
	ldr	r4, [r0]
	.loc 1 587 20
	ldr	r3, [r4]
	.loc 1 587 60
	and	r1, r1, #16
.LVL22:
	.loc 1 587 46
	movs	r0, #1
.LVL23:
	lsl	r1, r0, r1
	.loc 1 587 25
	bic	r3, r3, r1
	str	r3, [r4]
	.loc 1 590 3 is_stmt 1
	.loc 1 590 15 is_stmt 0
	strb	r0, [r2, #4]
	.loc 1 593 3 is_stmt 1
	.loc 1 593 10 is_stmt 0
	movs	r0, #0
	.loc 1 594 1
	ldr	r4, [sp], #4
	.cfi_restore 4
	.cfi_def_cfa_offset 0
	bx	lr
.LVL24:
.L32:
	.loc 1 580 12
	movs	r0, #1
.LVL25:
	.loc 1 594 1
	bx	lr
	.cfi_endproc
.LFE340:
	.size	HAL_DAC_Stop, .-HAL_DAC_Stop
	.section	.text.HAL_DAC_Start_DMA,"ax",%progbits
	.align	1
	.global	HAL_DAC_Start_DMA
	.syntax unified
	.thumb
	.thumb_func
	.type	HAL_DAC_Start_DMA, %function
HAL_DAC_Start_DMA:
.LFB341:
	.loc 1 615 1 is_stmt 1
	.cfi_startproc
	@ args = 4, pretend = 0, frame = 0
	@ frame_needed = 0, uses_anonymous_args = 0
.LVL26:
	push	{r4, r5, r6, lr}
	.cfi_def_cfa_offset 16
	.cfi_offset 4, -16
	.cfi_offset 5, -12
	.cfi_offset 6, -8
	.cfi_offset 14, -4
	mov	r5, r1
	mov	r1, r2
.LVL27:
	ldr	r2, [sp, #16]
.LVL28:
	.loc 1 616 3
	.loc 1 617 3
	.loc 1 620 3
	.loc 1 620 6 is_stmt 0
	cmp	r0, #0
	beq	.L50
	mov	r4, r0
	.loc 1 626 3 is_stmt 1
	.loc 1 627 3
	.loc 1 630 3
	.loc 1 630 7
	.loc 1 630 16 is_stmt 0
	ldrb	r0, [r0, #5]	@ zero_extendqisi2
.LVL29:
	.loc 1 630 9
	cmp	r0, #1
	beq	.L51
	.loc 1 630 66 is_stmt 1 discriminator 2
	.loc 1 630 79 is_stmt 0 discriminator 2
	movs	r0, #1
	strb	r0, [r4, #5]
	.loc 1 630 5 is_stmt 1 discriminator 2
	.loc 1 633 3 discriminator 2
	.loc 1 633 15 is_stmt 0 discriminator 2
	movs	r0, #2
	strb	r0, [r4, #4]
	.loc 1 635 3 is_stmt 1 discriminator 2
	.loc 1 635 6 is_stmt 0 discriminator 2
	cmp	r5, #0
	bne	.L39
	.loc 1 638 5 is_stmt 1
	.loc 1 638 9 is_stmt 0
	ldr	r0, [r4, #8]
	.loc 1 638 41
	ldr	r6, .L55
	str	r6, [r0, #60]
	.loc 1 641 5 is_stmt 1
	.loc 1 641 9 is_stmt 0
	ldr	r0, [r4, #8]
	.loc 1 641 45
	ldr	r6, .L55+4
	str	r6, [r0, #64]
	.loc 1 644 5 is_stmt 1
	.loc 1 644 9 is_stmt 0
	ldr	r0, [r4, #8]
	.loc 1 644 42
	ldr	r6, .L55+8
	str	r6, [r0, #76]
	.loc 1 647 5 is_stmt 1
	.loc 1 647 11 is_stmt 0
	ldr	r6, [r4]
	.loc 1 647 21
	ldr	r0, [r6]
	.loc 1 647 27
	orr	r0, r0, #4096
	str	r0, [r6]
	.loc 1 650 5 is_stmt 1
	cbz	r2, .L40
	cmp	r2, #4
	beq	.L41
	.loc 1 662 9
	.loc 1 662 33 is_stmt 0
	ldr	r2, [r4]
	.loc 1 662 28
	adds	r2, r2, #16
.LVL30:
	.loc 1 663 9 is_stmt 1
	b	.L43
.LVL31:
.L40:
	.loc 1 654 9
	.loc 1 654 33 is_stmt 0
	ldr	r2, [r4]
	.loc 1 654 28
	adds	r2, r2, #8
.LVL32:
	.loc 1 655 9 is_stmt 1
.L43:
	.loc 1 699 3
	.loc 1 699 6 is_stmt 0
	cmp	r5, #0
	bne	.L47
	.loc 1 702 5 is_stmt 1
	.loc 1 702 13 is_stmt 0
	ldr	r6, [r4]
	.loc 1 702 23
	ldr	r0, [r6]
	.loc 1 702 29
	orr	r0, r0, #8192
	str	r0, [r6]
	.loc 1 705 5 is_stmt 1
	.loc 1 705 14 is_stmt 0
	ldr	r0, [r4, #8]
	bl	HAL_DMA_Start_IT
.LVL33:
.L48:
	.loc 1 719 3 is_stmt 1
	.loc 1 719 7
	.loc 1 719 20 is_stmt 0
	movs	r3, #0
	strb	r3, [r4, #5]
	.loc 1 719 5 is_stmt 1
	.loc 1 721 3
	.loc 1 721 6 is_stmt 0
	cmp	r0, #0
	bne	.L49
	.loc 1 724 5 is_stmt 1
	.loc 1 724 12 is_stmt 0
	ldr	r1, [r4]
	.loc 1 724 22
	ldr	r3, [r1]
	.loc 1 724 61
	and	r5, r5, #16
.LVL34:
	.loc 1 724 47
	movs	r2, #1
	lsls	r2, r2, r5
	.loc 1 724 27
	orrs	r3, r3, r2
	str	r3, [r1]
.LVL35:
.L38:
	.loc 1 733 1
	pop	{r4, r5, r6, pc}
.LVL36:
.L41:
	.loc 1 658 9 is_stmt 1
	.loc 1 658 33 is_stmt 0
	ldr	r2, [r4]
	.loc 1 658 28
	adds	r2, r2, #12
.LVL37:
	.loc 1 659 9 is_stmt 1
	b	.L43
.LVL38:
.L39:
	.loc 1 670 5
	.loc 1 670 9 is_stmt 0
	ldr	r0, [r4, #12]
	.loc 1 670 41
	ldr	r6, .L55+12
	str	r6, [r0, #60]
	.loc 1 673 5 is_stmt 1
	.loc 1 673 9 is_stmt 0
	ldr	r0, [r4, #12]
	.loc 1 673 45
	ldr	r6, .L55+16
	str	r6, [r0, #64]
	.loc 1 676 5 is_stmt 1
	.loc 1 676 9 is_stmt 0
	ldr	r0, [r4, #12]
	.loc 1 676 42
	ldr	r6, .L55+20
	str	r6, [r0, #76]
	.loc 1 679 5 is_stmt 1
	.loc 1 679 11 is_stmt 0
	ldr	r6, [r4]
	.loc 1 679 21
	ldr	r0, [r6]
	.loc 1 679 27
	orr	r0, r0, #268435456
	str	r0, [r6]
	.loc 1 682 5 is_stmt 1
	cbz	r2, .L44
	cmp	r2, #4
	beq	.L45
	.loc 1 694 9
	.loc 1 694 33 is_stmt 0
	ldr	r2, [r4]
	.loc 1 694 28
	adds	r2, r2, #28
.LVL39:
	.loc 1 695 9 is_stmt 1
	b	.L43
.LVL40:
.L44:
	.loc 1 686 9
	.loc 1 686 33 is_stmt 0
	ldr	r2, [r4]
	.loc 1 686 28
	adds	r2, r2, #20
.LVL41:
	.loc 1 687 9 is_stmt 1
	b	.L43
.LVL42:
.L45:
	.loc 1 690 9
	.loc 1 690 33 is_stmt 0
	ldr	r2, [r4]
	.loc 1 690 28
	adds	r2, r2, #24
.LVL43:
	.loc 1 691 9 is_stmt 1
	b	.L43
.L47:
	.loc 1 711 5
	.loc 1 711 13 is_stmt 0
	ldr	r6, [r4]
	.loc 1 711 23
	ldr	r0, [r6]
	.loc 1 711 29
	orr	r0, r0, #536870912
	str	r0, [r6]
	.loc 1 714 5 is_stmt 1
	.loc 1 714 14 is_stmt 0
	ldr	r0, [r4, #12]
	bl	HAL_DMA_Start_IT
.LVL44:
	b	.L48
.L49:
	.loc 1 728 5 is_stmt 1
	.loc 1 728 9 is_stmt 0
	ldr	r3, [r4, #16]
	.loc 1 728 21
	orr	r3, r3, #4
	str	r3, [r4, #16]
	b	.L38
.LVL45:
.L50:
	.loc 1 622 12
	movs	r0, #1
.LVL46:
	b	.L38
.LVL47:
.L51:
	.loc 1 630 47
	movs	r0, #2
	b	.L38
.L56:
	.align	2
.L55:
	.word	DAC_DMAConvCpltCh1
	.word	DAC_DMAHalfConvCpltCh1
	.word	DAC_DMAErrorCh1
	.word	DAC_DMAConvCpltCh2
	.word	DAC_DMAHalfConvCpltCh2
	.word	DAC_DMAErrorCh2
	.cfi_endproc
.LFE341:
	.size	HAL_DAC_Start_DMA, .-HAL_DAC_Start_DMA
	.section	.text.HAL_DAC_Stop_DMA,"ax",%progbits
	.align	1
	.global	HAL_DAC_Stop_DMA
	.syntax unified
	.thumb
	.thumb_func
	.type	HAL_DAC_Stop_DMA, %function
HAL_DAC_Stop_DMA:
.LFB342:
	.loc 1 746 1 is_stmt 1
	.cfi_startproc
	@ args = 0, pretend = 0, frame = 0
	@ frame_needed = 0, uses_anonymous_args = 0
.LVL48:
	.loc 1 748 3
	.loc 1 748 6 is_stmt 0
	cbz	r0, .L61
	.loc 1 746 1
	push	{r4, lr}
	.cfi_def_cfa_offset 8
	.cfi_offset 4, -8
	.cfi_offset 14, -4
	mov	r4, r0
	.loc 1 754 3 is_stmt 1
	.loc 1 757 3
	.loc 1 757 7 is_stmt 0
	ldr	r0, [r0]
.LVL49:
	.loc 1 757 17
	ldr	r3, [r0]
	.loc 1 757 56
	and	ip, r1, #16
	.loc 1 757 44
	mov	r2, #4096
	lsl	r2, r2, ip
	.loc 1 757 22
	bic	r3, r3, r2
	str	r3, [r0]
	.loc 1 760 3 is_stmt 1
	.loc 1 760 10 is_stmt 0
	ldr	r0, [r4]
	.loc 1 760 20
	ldr	r3, [r0]
	.loc 1 760 46
	movs	r2, #1
	lsl	r2, r2, ip
	.loc 1 760 25
	bic	r3, r3, r2
	str	r3, [r0]
	.loc 1 765 3 is_stmt 1
	.loc 1 765 6 is_stmt 0
	cbnz	r1, .L59
	.loc 1 768 5 is_stmt 1
	.loc 1 768 11 is_stmt 0
	ldr	r0, [r4, #8]
	bl	HAL_DMA_Abort
.LVL50:
	.loc 1 771 5 is_stmt 1
	.loc 1 771 13 is_stmt 0
	ldr	r2, [r4]
	.loc 1 771 23
	ldr	r3, [r2]
	.loc 1 771 29
	bic	r3, r3, #8192
	str	r3, [r2]
.L60:
	.loc 1 785 3 is_stmt 1
	.loc 1 785 15 is_stmt 0
	movs	r3, #1
	strb	r3, [r4, #4]
	.loc 1 788 3 is_stmt 1
	.loc 1 788 10 is_stmt 0
	movs	r0, #0
	.loc 1 789 1
	pop	{r4, pc}
.LVL51:
.L59:
	.loc 1 777 5 is_stmt 1
	.loc 1 777 11 is_stmt 0
	ldr	r0, [r4, #12]
	bl	HAL_DMA_Abort
.LVL52:
	.loc 1 780 5 is_stmt 1
	.loc 1 780 13 is_stmt 0
	ldr	r2, [r4]
	.loc 1 780 23
	ldr	r3, [r2]
	.loc 1 780 29
	bic	r3, r3, #536870912
	str	r3, [r2]
	b	.L60
.LVL53:
.L61:
	.cfi_def_cfa_offset 0
	.cfi_restore 4
	.cfi_restore 14
	.loc 1 750 12
	movs	r0, #1
.LVL54:
	.loc 1 789 1
	bx	lr
	.cfi_endproc
.LFE342:
	.size	HAL_DAC_Stop_DMA, .-HAL_DAC_Stop_DMA
	.section	.text.HAL_DAC_SetValue,"ax",%progbits
	.align	1
	.global	HAL_DAC_SetValue
	.syntax unified
	.thumb
	.thumb_func
	.type	HAL_DAC_SetValue, %function
HAL_DAC_SetValue:
.LFB344:
	.loc 1 876 1 is_stmt 1
	.cfi_startproc
	@ args = 0, pretend = 0, frame = 8
	@ frame_needed = 0, uses_anonymous_args = 0
	@ link register save eliminated.
.LVL55:
	push	{r4}
	.cfi_def_cfa_offset 4
	.cfi_offset 4, -4
	sub	sp, sp, #12
	.cfi_def_cfa_offset 16
	.loc 1 877 3
	.loc 1 877 21 is_stmt 0
	movs	r4, #0
	str	r4, [sp, #4]
	.loc 1 880 3 is_stmt 1
	.loc 1 880 6 is_stmt 0
	cbz	r0, .L70
	.loc 1 886 3 is_stmt 1
	.loc 1 887 3
	.loc 1 888 3
	.loc 1 890 3
	.loc 1 890 23 is_stmt 0
	ldr	r0, [r0]
.LVL56:
	.loc 1 890 7
	str	r0, [sp, #4]
	.loc 1 891 3 is_stmt 1
	.loc 1 891 6 is_stmt 0
	cbnz	r1, .L68
	.loc 1 893 5 is_stmt 1
	.loc 1 893 9 is_stmt 0
	ldr	r1, [sp, #4]
.LVL57:
	add	r2, r2, r1
.LVL58:
	adds	r2, r2, #8
	str	r2, [sp, #4]
.L69:
	.loc 1 903 3 is_stmt 1
	.loc 1 903 4 is_stmt 0
	ldr	r2, [sp, #4]
	.loc 1 903 30
	str	r3, [r2]
	.loc 1 906 3 is_stmt 1
	.loc 1 906 10 is_stmt 0
	movs	r0, #0
.L67:
	.loc 1 907 1
	add	sp, sp, #12
	.cfi_remember_state
	.cfi_def_cfa_offset 4
	@ sp needed
	ldr	r4, [sp], #4
	.cfi_restore 4
	.cfi_def_cfa_offset 0
	bx	lr
.LVL59:
.L68:
	.cfi_restore_state
	.loc 1 898 5 is_stmt 1
	.loc 1 898 9 is_stmt 0
	ldr	r1, [sp, #4]
.LVL60:
	add	r2, r2, r1
.LVL61:
	adds	r2, r2, #20
	str	r2, [sp, #4]
	b	.L69
.LVL62:
.L70:
	.loc 1 882 12
	movs	r0, #1
.LVL63:
	b	.L67
	.cfi_endproc
.LFE344:
	.size	HAL_DAC_SetValue, .-HAL_DAC_SetValue
	.section	.text.HAL_DAC_ConvCpltCallbackCh1,"ax",%progbits
	.align	1
	.weak	HAL_DAC_ConvCpltCallbackCh1
	.syntax unified
	.thumb
	.thumb_func
	.type	HAL_DAC_ConvCpltCallbackCh1, %function
HAL_DAC_ConvCpltCallbackCh1:
.LFB345:
	.loc 1 916 1 is_stmt 1
	.cfi_startproc
	@ args = 0, pretend = 0, frame = 0
	@ frame_needed = 0, uses_anonymous_args = 0
	@ link register save eliminated.
.LVL64:
	.loc 1 918 3
	.loc 1 923 1 is_stmt 0
	bx	lr
	.cfi_endproc
.LFE345:
	.size	HAL_DAC_ConvCpltCallbackCh1, .-HAL_DAC_ConvCpltCallbackCh1
	.section	.text.DAC_DMAConvCpltCh1,"ax",%progbits
	.align	1
	.global	DAC_DMAConvCpltCh1
	.syntax unified
	.thumb
	.thumb_func
	.type	DAC_DMAConvCpltCh1, %function
DAC_DMAConvCpltCh1:
.LFB353:
	.loc 1 1527 1 is_stmt 1
	.cfi_startproc
	@ args = 0, pretend = 0, frame = 0
	@ frame_needed = 0, uses_anonymous_args = 0
.LVL65:
	push	{r4, lr}
	.cfi_def_cfa_offset 8
	.cfi_offset 4, -8
	.cfi_offset 14, -4
	.loc 1 1528 3
	.loc 1 1528 22 is_stmt 0
	ldr	r4, [r0, #56]
.LVL66:
	.loc 1 1533 3 is_stmt 1
	mov	r0, r4
.LVL67:
	bl	HAL_DAC_ConvCpltCallbackCh1
.LVL68:
	.loc 1 1536 3
	.loc 1 1536 15 is_stmt 0
	movs	r3, #1
	strb	r3, [r4, #4]
	.loc 1 1537 1
	pop	{r4, pc}
	.cfi_endproc
.LFE353:
	.size	DAC_DMAConvCpltCh1, .-DAC_DMAConvCpltCh1
	.section	.text.HAL_DAC_ConvHalfCpltCallbackCh1,"ax",%progbits
	.align	1
	.weak	HAL_DAC_ConvHalfCpltCallbackCh1
	.syntax unified
	.thumb
	.thumb_func
	.type	HAL_DAC_ConvHalfCpltCallbackCh1, %function
HAL_DAC_ConvHalfCpltCallbackCh1:
.LFB346:
	.loc 1 932 1 is_stmt 1
	.cfi_startproc
	@ args = 0, pretend = 0, frame = 0
	@ frame_needed = 0, uses_anonymous_args = 0
	@ link register save eliminated.
.LVL69:
	.loc 1 934 3
	.loc 1 939 1 is_stmt 0
	bx	lr
	.cfi_endproc
.LFE346:
	.size	HAL_DAC_ConvHalfCpltCallbackCh1, .-HAL_DAC_ConvHalfCpltCallbackCh1
	.section	.text.DAC_DMAHalfConvCpltCh1,"ax",%progbits
	.align	1
	.global	DAC_DMAHalfConvCpltCh1
	.syntax unified
	.thumb
	.thumb_func
	.type	DAC_DMAHalfConvCpltCh1, %function
DAC_DMAHalfConvCpltCh1:
.LFB354:
	.loc 1 1546 1 is_stmt 1
	.cfi_startproc
	@ args = 0, pretend = 0, frame = 0
	@ frame_needed = 0, uses_anonymous_args = 0
.LVL70:
	push	{r3, lr}
	.cfi_def_cfa_offset 8
	.cfi_offset 3, -8
	.cfi_offset 14, -4
	.loc 1 1547 3
.LVL71:
	.loc 1 1552 3
	ldr	r0, [r0, #56]
.LVL72:
	bl	HAL_DAC_ConvHalfCpltCallbackCh1
.LVL73:
	.loc 1 1554 1 is_stmt 0
	pop	{r3, pc}
	.cfi_endproc
.LFE354:
	.size	DAC_DMAHalfConvCpltCh1, .-DAC_DMAHalfConvCpltCh1
	.section	.text.HAL_DAC_ErrorCallbackCh1,"ax",%progbits
	.align	1
	.weak	HAL_DAC_ErrorCallbackCh1
	.syntax unified
	.thumb
	.thumb_func
	.type	HAL_DAC_ErrorCallbackCh1, %function
HAL_DAC_ErrorCallbackCh1:
.LFB347:
	.loc 1 948 1 is_stmt 1
	.cfi_startproc
	@ args = 0, pretend = 0, frame = 0
	@ frame_needed = 0, uses_anonymous_args = 0
	@ link register save eliminated.
.LVL74:
	.loc 1 950 3
	.loc 1 955 1 is_stmt 0
	bx	lr
	.cfi_endproc
.LFE347:
	.size	HAL_DAC_ErrorCallbackCh1, .-HAL_DAC_ErrorCallbackCh1
	.section	.text.DAC_DMAErrorCh1,"ax",%progbits
	.align	1
	.global	DAC_DMAErrorCh1
	.syntax unified
	.thumb
	.thumb_func
	.type	DAC_DMAErrorCh1, %function
DAC_DMAErrorCh1:
.LFB355:
	.loc 1 1563 1 is_stmt 1
	.cfi_startproc
	@ args = 0, pretend = 0, frame = 0
	@ frame_needed = 0, uses_anonymous_args = 0
.LVL75:
	push	{r4, lr}
	.cfi_def_cfa_offset 8
	.cfi_offset 4, -8
	.cfi_offset 14, -4
	.loc 1 1564 3
	.loc 1 1564 22 is_stmt 0
	ldr	r4, [r0, #56]
.LVL76:
	.loc 1 1567 3 is_stmt 1
	.loc 1 1567 7 is_stmt 0
	ldr	r3, [r4, #16]
	.loc 1 1567 19
	orr	r3, r3, #4
	str	r3, [r4, #16]
	.loc 1 1572 3 is_stmt 1
	mov	r0, r4
.LVL77:
	bl	HAL_DAC_ErrorCallbackCh1
.LVL78:
	.loc 1 1575 3
	.loc 1 1575 15 is_stmt 0
	movs	r3, #1
	strb	r3, [r4, #4]
	.loc 1 1576 1
	pop	{r4, pc}
	.cfi_endproc
.LFE355:
	.size	DAC_DMAErrorCh1, .-DAC_DMAErrorCh1
	.section	.text.HAL_DAC_DMAUnderrunCallbackCh1,"ax",%progbits
	.align	1
	.weak	HAL_DAC_DMAUnderrunCallbackCh1
	.syntax unified
	.thumb
	.thumb_func
	.type	HAL_DAC_DMAUnderrunCallbackCh1, %function
HAL_DAC_DMAUnderrunCallbackCh1:
.LFB348:
	.loc 1 964 1 is_stmt 1
	.cfi_startproc
	@ args = 0, pretend = 0, frame = 0
	@ frame_needed = 0, uses_anonymous_args = 0
	@ link register save eliminated.
.LVL79:
	.loc 1 966 3
	.loc 1 971 1 is_stmt 0
	bx	lr
	.cfi_endproc
.LFE348:
	.size	HAL_DAC_DMAUnderrunCallbackCh1, .-HAL_DAC_DMAUnderrunCallbackCh1
	.section	.text.HAL_DAC_IRQHandler,"ax",%progbits
	.align	1
	.global	HAL_DAC_IRQHandler
	.syntax unified
	.thumb
	.thumb_func
	.type	HAL_DAC_IRQHandler, %function
HAL_DAC_IRQHandler:
.LFB343:
	.loc 1 800 1 is_stmt 1
	.cfi_startproc
	@ args = 0, pretend = 0, frame = 0
	@ frame_needed = 0, uses_anonymous_args = 0
.LVL80:
	push	{r4, r5, r6, lr}
	.cfi_def_cfa_offset 16
	.cfi_offset 4, -16
	.cfi_offset 5, -12
	.cfi_offset 6, -8
	.cfi_offset 14, -4
	mov	r4, r0
	.loc 1 801 3
	.loc 1 801 27 is_stmt 0
	ldr	r3, [r0]
	.loc 1 801 12
	ldr	r5, [r3]
.LVL81:
	.loc 1 802 3 is_stmt 1
	.loc 1 802 12 is_stmt 0
	ldr	r6, [r3, #52]
.LVL82:
	.loc 1 804 3 is_stmt 1
	.loc 1 804 6 is_stmt 0
	tst	r5, #8192
	beq	.L83
	.loc 1 807 5 is_stmt 1
	.loc 1 807 8 is_stmt 0
	tst	r6, #8192
	bne	.L86
.LVL83:
.L83:
	.loc 1 831 3 is_stmt 1
	.loc 1 831 6 is_stmt 0
	tst	r5, #536870912
	beq	.L82
	.loc 1 834 5 is_stmt 1
	.loc 1 834 8 is_stmt 0
	tst	r6, #536870912
	bne	.L87
.L82:
	.loc 1 857 1
	pop	{r4, r5, r6, pc}
.LVL84:
.L86:
	.loc 1 810 7 is_stmt 1
	.loc 1 810 19 is_stmt 0
	movs	r2, #4
	strb	r2, [r0, #4]
	.loc 1 813 7 is_stmt 1
	.loc 1 813 13 is_stmt 0
	ldr	r2, [r0, #16]
	.loc 1 813 26
	orr	r2, r2, #1
	str	r2, [r0, #16]
	.loc 1 816 7 is_stmt 1
	.loc 1 816 31 is_stmt 0
	mov	r2, #8192
	str	r2, [r3, #52]
	.loc 1 819 7 is_stmt 1
	.loc 1 819 15 is_stmt 0
	ldr	r2, [r0]
	.loc 1 819 25
	ldr	r3, [r2]
	.loc 1 819 31
	bic	r3, r3, #4096
	str	r3, [r2]
	.loc 1 825 7 is_stmt 1
	bl	HAL_DAC_DMAUnderrunCallbackCh1
.LVL85:
	b	.L83
.L87:
	.loc 1 837 7
	.loc 1 837 19 is_stmt 0
	movs	r3, #4
	strb	r3, [r4, #4]
	.loc 1 840 7 is_stmt 1
	.loc 1 840 13 is_stmt 0
	ldr	r3, [r4, #16]
	.loc 1 840 26
	orr	r3, r3, #2
	str	r3, [r4, #16]
	.loc 1 843 7 is_stmt 1
	.loc 1 843 15 is_stmt 0
	ldr	r3, [r4]
	.loc 1 843 31
	mov	r2, #536870912
	str	r2, [r3, #52]
	.loc 1 846 7 is_stmt 1
	.loc 1 846 15 is_stmt 0
	ldr	r2, [r4]
	.loc 1 846 25
	ldr	r3, [r2]
	.loc 1 846 31
	bic	r3, r3, #268435456
	str	r3, [r2]
	.loc 1 852 7 is_stmt 1
	mov	r0, r4
	bl	HAL_DACEx_DMAUnderrunCallbackCh2
.LVL86:
	.loc 1 857 1 is_stmt 0
	b	.L82
	.cfi_endproc
.LFE343:
	.size	HAL_DAC_IRQHandler, .-HAL_DAC_IRQHandler
	.section	.text.HAL_DAC_GetValue,"ax",%progbits
	.align	1
	.global	HAL_DAC_GetValue
	.syntax unified
	.thumb
	.thumb_func
	.type	HAL_DAC_GetValue, %function
HAL_DAC_GetValue:
.LFB349:
	.loc 1 1003 1 is_stmt 1
	.cfi_startproc
	@ args = 0, pretend = 0, frame = 0
	@ frame_needed = 0, uses_anonymous_args = 0
	@ link register save eliminated.
.LVL87:
	.loc 1 1004 3
	.loc 1 1007 3
	.loc 1 1010 3
	.loc 1 1012 3
	.loc 1 1012 6 is_stmt 0
	cbnz	r1, .L89
	.loc 1 1014 5 is_stmt 1
	.loc 1 1014 18 is_stmt 0
	ldr	r3, [r0]
	.loc 1 1014 12
	ldr	r0, [r3, #44]
.LVL88:
	bx	lr
.LVL89:
.L89:
	.loc 1 1019 5 is_stmt 1
	.loc 1 1019 18 is_stmt 0
	ldr	r3, [r0]
	.loc 1 1019 12
	ldr	r0, [r3, #48]
.LVL90:
	.loc 1 1023 3 is_stmt 1
	.loc 1 1024 1 is_stmt 0
	bx	lr
	.cfi_endproc
.LFE349:
	.size	HAL_DAC_GetValue, .-HAL_DAC_GetValue
	.section	.text.HAL_DAC_ConfigChannel,"ax",%progbits
	.align	1
	.global	HAL_DAC_ConfigChannel
	.syntax unified
	.thumb
	.thumb_func
	.type	HAL_DAC_ConfigChannel, %function
HAL_DAC_ConfigChannel:
.LFB350:
	.loc 1 1039 1 is_stmt 1
	.cfi_startproc
	@ args = 0, pretend = 0, frame = 0
	@ frame_needed = 0, uses_anonymous_args = 0
.LVL91:
	.loc 1 1040 3
	.loc 1 1041 3
	.loc 1 1042 3
	.loc 1 1043 3
	.loc 1 1044 3
	.loc 1 1047 3
	.loc 1 1047 6 is_stmt 0
	cmp	r1, #0
	it	ne
	cmpne	r0, #0
	beq	.L101
	.loc 1 1039 1
	push	{r3, r4, r5, r6, r7, lr}
	.cfi_def_cfa_offset 24
	.cfi_offset 3, -24
	.cfi_offset 4, -20
	.cfi_offset 5, -16
	.cfi_offset 6, -12
	.cfi_offset 7, -8
	.cfi_offset 14, -4
	mov	r6, r2
	mov	r4, r0
	mov	r5, r1
	.loc 1 1053 3 is_stmt 1
	.loc 1 1054 3
	.loc 1 1055 3
	.loc 1 1056 3
	.loc 1 1057 3
	.loc 1 1059 5
	.loc 1 1061 3
	.loc 1 1062 3
	.loc 1 1064 5
	.loc 1 1065 5
	.loc 1 1066 5
	.loc 1 1068 3
	.loc 1 1071 3
	.loc 1 1071 7
	.loc 1 1071 16 is_stmt 0
	ldrb	r3, [r0, #5]	@ zero_extendqisi2
	.loc 1 1071 9
	cmp	r3, #1
	beq	.L102
	.loc 1 1071 66 is_stmt 1 discriminator 2
	.loc 1 1071 79 is_stmt 0 discriminator 2
	movs	r3, #1
	strb	r3, [r0, #5]
	.loc 1 1071 5 is_stmt 1 discriminator 2
	.loc 1 1074 3 discriminator 2
	.loc 1 1074 15 is_stmt 0 discriminator 2
	movs	r3, #2
	strb	r3, [r0, #4]
	.loc 1 1077 3 is_stmt 1 discriminator 2
	.loc 1 1077 14 is_stmt 0 discriminator 2
	ldr	r3, [r1]
	.loc 1 1077 6 discriminator 2
	cmp	r3, #4
	beq	.L110
.LVL92:
.L93:
	.loc 1 1139 3 is_stmt 1
	.loc 1 1139 14 is_stmt 0
	ldr	r3, [r5, #16]
	.loc 1 1139 6
	cmp	r3, #1
	beq	.L111
.L99:
	.loc 1 1157 3 is_stmt 1
	.loc 1 1157 17 is_stmt 0
	ldr	r0, [r4]
	.loc 1 1157 11
	ldr	r1, [r0, #60]
.LVL93:
	.loc 1 1159 3 is_stmt 1
	.loc 1 1159 58 is_stmt 0
	and	r2, r6, #16
	.loc 1 1159 46
	movs	r3, #7
	lsls	r3, r3, r2
	.loc 1 1159 11
	bic	r1, r1, r3
.LVL94:
	.loc 1 1163 3 is_stmt 1
	.loc 1 1163 14 is_stmt 0
	ldr	r3, [r5, #12]
	.loc 1 1163 6
	cmp	r3, #1
	beq	.L103
	.loc 1 1167 8 is_stmt 1
	.loc 1 1167 11 is_stmt 0
	cmp	r3, #2
	beq	.L104
	.loc 1 1173 5 is_stmt 1
	.loc 1 1173 16 is_stmt 0
	ldr	r3, [r5, #8]
	.loc 1 1173 8
	cmp	r3, #0
	bne	.L105
	.loc 1 1175 21
	movs	r7, #1
	b	.L100
.LVL95:
.L110:
	.loc 1 1080 5 is_stmt 1
	.loc 1 1080 17 is_stmt 0
	bl	HAL_GetTick
.LVL96:
	mov	r7, r0
.LVL97:
	.loc 1 1082 5 is_stmt 1
	.loc 1 1082 8 is_stmt 0
	cbz	r6, .L94
.LVL98:
.L95:
	.loc 1 1109 56 is_stmt 1
	.loc 1 1109 20 is_stmt 0
	ldr	r3, [r4]
	.loc 1 1109 30
	ldr	r2, [r3, #52]
	.loc 1 1109 56
	cmp	r2, #0
	bge	.L112
	.loc 1 1112 9 is_stmt 1
	.loc 1 1112 14 is_stmt 0
	bl	HAL_GetTick
.LVL99:
	.loc 1 1112 28
	subs	r0, r0, r7
	.loc 1 1112 12
	cmp	r0, #1
	bls	.L95
	.loc 1 1115 11 is_stmt 1
	.loc 1 1115 21 is_stmt 0
	ldr	r3, [r4]
	.loc 1 1115 31
	ldr	r3, [r3, #52]
	.loc 1 1115 14
	cmp	r3, #0
	bge	.L95
	.loc 1 1118 13 is_stmt 1
	.loc 1 1118 19 is_stmt 0
	ldr	r3, [r4, #16]
	.loc 1 1118 32
	orr	r3, r3, #8
	str	r3, [r4, #16]
	.loc 1 1121 13 is_stmt 1
	.loc 1 1121 25 is_stmt 0
	movs	r0, #3
	strb	r0, [r4, #4]
	.loc 1 1123 13 is_stmt 1
	.loc 1 1123 20 is_stmt 0
	b	.L92
.L94:
	.loc 1 1085 59 is_stmt 1
	.loc 1 1085 20 is_stmt 0
	ldr	r2, [r4]
	.loc 1 1085 30
	ldr	r1, [r2, #52]
	.loc 1 1085 36
	ldr	r3, .L114
	ands	r3, r3, r1
	.loc 1 1085 59
	cbz	r3, .L113
	.loc 1 1088 9 is_stmt 1
	.loc 1 1088 14 is_stmt 0
	bl	HAL_GetTick
.LVL100:
	.loc 1 1088 28
	subs	r0, r0, r7
	.loc 1 1088 12
	cmp	r0, #1
	bls	.L94
	.loc 1 1091 11 is_stmt 1
	.loc 1 1091 21 is_stmt 0
	ldr	r3, [r4]
	.loc 1 1091 31
	ldr	r2, [r3, #52]
	.loc 1 1091 37
	ldr	r3, .L114
	ands	r3, r3, r2
	.loc 1 1091 14
	cmp	r3, #0
	beq	.L94
	.loc 1 1094 13 is_stmt 1
	.loc 1 1094 19 is_stmt 0
	ldr	r3, [r4, #16]
	.loc 1 1094 32
	orr	r3, r3, #8
	str	r3, [r4, #16]
	.loc 1 1097 13 is_stmt 1
	.loc 1 1097 25 is_stmt 0
	movs	r0, #3
	strb	r0, [r4, #4]
	.loc 1 1099 13 is_stmt 1
	.loc 1 1099 20 is_stmt 0
	b	.L92
.L113:
	.loc 1 1103 7 is_stmt 1
	.loc 1 1103 63 is_stmt 0
	ldr	r3, [r5, #24]
	.loc 1 1103 29
	str	r3, [r2, #64]
.L97:
	.loc 1 1132 5 is_stmt 1
	.loc 1 1132 43 is_stmt 0
	ldr	r0, [r4]
	.loc 1 1132 53
	ldr	r3, [r0, #72]
	.loc 1 1132 98
	and	r2, r6, #16
	.loc 1 1132 86
	movw	r1, #1023
	lsls	r1, r1, r2
	.loc 1 1132 63
	bic	r3, r3, r1
	.loc 1 1132 147
	ldr	r1, [r5, #28]
	.loc 1 1132 162
	lsls	r1, r1, r2
	.loc 1 1132 111
	orrs	r3, r3, r1
	.loc 1 1132 31
	str	r3, [r0, #72]
	.loc 1 1135 5 is_stmt 1
	.loc 1 1135 43 is_stmt 0
	ldr	r0, [r4]
	.loc 1 1135 53
	ldr	r3, [r0, #76]
	.loc 1 1135 85
	movs	r1, #255
	lsls	r1, r1, r2
	.loc 1 1135 63
	bic	r3, r3, r1
	.loc 1 1135 146
	ldr	r1, [r5, #32]
	.loc 1 1135 164
	lsls	r1, r1, r2
	.loc 1 1135 110
	orrs	r3, r3, r1
	.loc 1 1135 31
	str	r3, [r0, #76]
	b	.L93
.L112:
	.loc 1 1127 7 is_stmt 1
	.loc 1 1127 63 is_stmt 0
	ldr	r2, [r5, #24]
	.loc 1 1127 29
	str	r2, [r3, #68]
	b	.L97
.LVL101:
.L111:
	.loc 1 1143 5 is_stmt 1
	.loc 1 1143 19 is_stmt 0
	ldr	r1, [r4]
	.loc 1 1143 13
	ldr	r2, [r1, #56]
.LVL102:
	.loc 1 1145 5 is_stmt 1
	.loc 1 1145 61 is_stmt 0
	and	r0, r6, #16
	.loc 1 1145 49
	movs	r3, #31
	lsls	r3, r3, r0
	.loc 1 1145 13
	bic	r2, r2, r3
.LVL103:
	.loc 1 1147 5 is_stmt 1
	.loc 1 1147 13 is_stmt 0
	ldr	r3, [r5, #20]
.LVL104:
	.loc 1 1149 5 is_stmt 1
	.loc 1 1149 24 is_stmt 0
	lsls	r3, r3, r0
.LVL105:
	.loc 1 1149 13
	orrs	r3, r3, r2
.LVL106:
	.loc 1 1151 5 is_stmt 1
	.loc 1 1151 25 is_stmt 0
	str	r3, [r1, #56]
.LVL107:
	b	.L99
.LVL108:
.L103:
	.loc 1 1165 19
	movs	r7, #0
.L100:
.LVL109:
	.loc 1 1182 3 is_stmt 1
	.loc 1 1182 21 is_stmt 0
	ldr	r3, [r5]
	.loc 1 1182 50
	ldr	r6, [r5, #8]
.LVL110:
	.loc 1 1182 41
	orrs	r3, r3, r6
	.loc 1 1182 11
	orrs	r3, r3, r7
.LVL111:
	.loc 1 1184 3 is_stmt 1
	.loc 1 1184 22 is_stmt 0
	lsls	r3, r3, r2
.LVL112:
	.loc 1 1184 11
	orrs	r3, r3, r1
.LVL113:
	.loc 1 1186 3 is_stmt 1
	.loc 1 1186 23 is_stmt 0
	str	r3, [r0, #60]
.LVL114:
	.loc 1 1189 3 is_stmt 1
	.loc 1 1189 9 is_stmt 0
	ldr	r0, [r4]
	.loc 1 1189 19
	ldr	r3, [r0]
.LVL115:
	.loc 1 1189 47
	mov	r1, #16384
	lsls	r1, r1, r2
	.loc 1 1189 25
	bic	r3, r3, r1
	str	r3, [r0]
	.loc 1 1192 3 is_stmt 1
	.loc 1 1192 17 is_stmt 0
	ldr	r0, [r4]
	.loc 1 1192 11
	ldr	r1, [r0]
.LVL116:
	.loc 1 1194 3 is_stmt 1
	.loc 1 1194 100 is_stmt 0
	movw	r3, #4094
	lsls	r3, r3, r2
	.loc 1 1194 11
	bic	r1, r1, r3
.LVL117:
	.loc 1 1197 3 is_stmt 1
	.loc 1 1197 11 is_stmt 0
	ldr	r3, [r5, #4]
.LVL118:
	.loc 1 1199 3 is_stmt 1
	.loc 1 1199 22 is_stmt 0
	lsls	r3, r3, r2
.LVL119:
	.loc 1 1199 11
	orrs	r3, r3, r1
.LVL120:
	.loc 1 1201 3 is_stmt 1
	.loc 1 1201 22 is_stmt 0
	str	r3, [r0]
.LVL121:
	.loc 1 1203 3 is_stmt 1
	.loc 1 1203 9 is_stmt 0
	ldr	r0, [r4]
	.loc 1 1203 19
	ldr	r3, [r0]
.LVL122:
	.loc 1 1203 47
	movs	r1, #192
	lsl	r2, r1, r2
	.loc 1 1203 25
	bic	r3, r3, r2
	str	r3, [r0]
	.loc 1 1206 3 is_stmt 1
	.loc 1 1206 15 is_stmt 0
	movs	r3, #1
	strb	r3, [r4, #4]
	.loc 1 1209 3 is_stmt 1
	.loc 1 1209 7
	.loc 1 1209 20 is_stmt 0
	movs	r0, #0
	strb	r0, [r4, #5]
	.loc 1 1209 5 is_stmt 1
	.loc 1 1212 3
.LVL123:
.L92:
	.loc 1 1213 1 is_stmt 0
	pop	{r3, r4, r5, r6, r7, pc}
.LVL124:
.L104:
	.loc 1 1169 19
	movs	r7, #1
	b	.L100
.L105:
	.loc 1 1179 21
	movs	r7, #0
	b	.L100
.LVL125:
.L101:
	.cfi_def_cfa_offset 0
	.cfi_restore 3
	.cfi_restore 4
	.cfi_restore 5
	.cfi_restore 6
	.cfi_restore 7
	.cfi_restore 14
	.loc 1 1049 12
	movs	r0, #1
.LVL126:
	.loc 1 1213 1
	bx	lr
.LVL127:
.L102:
	.cfi_def_cfa_offset 24
	.cfi_offset 3, -24
	.cfi_offset 4, -20
	.cfi_offset 5, -16
	.cfi_offset 6, -12
	.cfi_offset 7, -8
	.cfi_offset 14, -4
	.loc 1 1071 47
	movs	r0, #2
.LVL128:
	b	.L92
.L115:
	.align	2
.L114:
	.word	536903680
	.cfi_endproc
.LFE350:
	.size	HAL_DAC_ConfigChannel, .-HAL_DAC_ConfigChannel
	.section	.text.HAL_DAC_GetState,"ax",%progbits
	.align	1
	.global	HAL_DAC_GetState
	.syntax unified
	.thumb
	.thumb_func
	.type	HAL_DAC_GetState, %function
HAL_DAC_GetState:
.LFB351:
	.loc 1 1242 1 is_stmt 1
	.cfi_startproc
	@ args = 0, pretend = 0, frame = 0
	@ frame_needed = 0, uses_anonymous_args = 0
	@ link register save eliminated.
.LVL129:
	.loc 1 1244 3
	.loc 1 1244 14 is_stmt 0
	ldrb	r0, [r0, #4]	@ zero_extendqisi2
.LVL130:
	.loc 1 1245 1
	bx	lr
	.cfi_endproc
.LFE351:
	.size	HAL_DAC_GetState, .-HAL_DAC_GetState
	.section	.text.HAL_DAC_GetError,"ax",%progbits
	.align	1
	.global	HAL_DAC_GetError
	.syntax unified
	.thumb
	.thumb_func
	.type	HAL_DAC_GetError, %function
HAL_DAC_GetError:
.LFB352:
	.loc 1 1255 1 is_stmt 1
	.cfi_startproc
	@ args = 0, pretend = 0, frame = 0
	@ frame_needed = 0, uses_anonymous_args = 0
	@ link register save eliminated.
.LVL131:
	.loc 1 1256 3
	.loc 1 1256 14 is_stmt 0
	ldr	r0, [r0, #16]
.LVL132:
	.loc 1 1257 1
	bx	lr
	.cfi_endproc
.LFE352:
	.size	HAL_DAC_GetError, .-HAL_DAC_GetError
	.text
.Letext0:
	.file 2 "m:\\noinstall\\arm-gnu-toolchain-12.2.rel1-mingw-w64-i686-arm-none-eabi\\arm-none-eabi\\include\\machine\\_default_types.h"
	.file 3 "m:\\noinstall\\arm-gnu-toolchain-12.2.rel1-mingw-w64-i686-arm-none-eabi\\arm-none-eabi\\include\\sys\\_stdint.h"
	.file 4 "D:/RTOS/Board/YD-STM32H7xxVx_ClassicV19/cmake-build-debug/_deps/stm32h7xx_cmsis_device-src/Include/stm32h743xx.h"
	.file 5 "D:/RTOS/Board/YD-STM32H7xxVx_ClassicV19/cmake-build-debug/_deps/stm32h7xx_hal_driver-src/Inc/stm32h7xx_hal_def.h"
	.file 6 "D:/RTOS/Board/YD-STM32H7xxVx_ClassicV19/cmake-build-debug/_deps/stm32h7xx_hal_driver-src/Inc/stm32h7xx_hal_dma.h"
	.file 7 "D:/RTOS/Board/YD-STM32H7xxVx_ClassicV19/cmake-build-debug/_deps/stm32h7xx_hal_driver-src/Inc/stm32h7xx_hal_dac.h"
	.file 8 "D:/RTOS/Board/YD-STM32H7xxVx_ClassicV19/cmake-build-debug/_deps/stm32h7xx_hal_driver-src/Inc/stm32h7xx_hal_dac_ex.h"
	.file 9 "D:/RTOS/Board/YD-STM32H7xxVx_ClassicV19/cmake-build-debug/_deps/stm32h7xx_hal_driver-src/Inc/stm32h7xx_hal.h"