	.cpu cortex-m7
	.arch armv7e-m
	.fpu fpv5-d16
	.eabi_attribute 28, 1
	.eabi_attribute 20, 1
	.eabi_attribute 21, 1
	.eabi_attribute 23, 3
	.eabi_attribute 24, 1
	.eabi_attribute 25, 1
	.eabi_attribute 26, 1
	.eabi_attribute 30, 1
	.eabi_attribute 34, 1
	.eabi_attribute 18, 4
	.file	"stm32h7xx_hal_hsem.c"
	.text
.Ltext0:
	.cfi_sections	.debug_frame
	.file 1 "D:/RTOS/Board/YD-STM32H7xxVx_ClassicV19/cmake-build-debug/_deps/stm32h7xx_hal_driver-src/Src/stm32h7xx_hal_hsem.c"
	.section	.text.HAL_HSEM_Take,"ax",%progbits
	.align	1
	.global	HAL_HSEM_Take
	.syntax unified
	.thumb
	.thumb_func
	.type	HAL_HSEM_Take, %function
HAL_HSEM_Take:
.LFB335:
	.loc 1 160 1
	.cfi_startproc
	@ args = 0, pretend = 0, frame = 0
	@ frame_needed = 0, uses_anonymous_args = 0
	@ link register save eliminated.
.LVL0:
	.loc 1 162 3
	.loc 1 163 3
	.loc 1 177 3
	.loc 1 177 116 is_stmt 0
	ldr	r3, .L4
	orrs	r3, r3, r1
	.loc 1 177 77
	ldr	r2, .L4+4
	str	r3, [r2, r0, lsl #2]
	.loc 1 180 3 is_stmt 1
	.loc 1 180 73 is_stmt 0
	ldr	r2, [r2, r0, lsl #2]
	.loc 1 180 6
	cmp	r3, r2
	beq	.L3
	.loc 1 188 10
	movs	r0, #1
.LVL1:
	bx	lr
.LVL2:
.L3:
	.loc 1 183 12
	movs	r0, #0
.LVL3:
	.loc 1 189 1
	bx	lr
.L5:
	.align	2
.L4:
	.word	-2147482880
	.word	1476551680
	.cfi_endproc
.LFE335:
	.size	HAL_HSEM_Take, .-HAL_HSEM_Take
	.section	.text.HAL_HSEM_FastTake,"ax",%progbits
	.align	1
	.global	HAL_HSEM_FastTake
	.syntax unified
	.thumb
	.thumb_func
	.type	HAL_HSEM_FastTake, %function
HAL_HSEM_FastTake:
.LFB336:
	.loc 1 197 1 is_stmt 1
	.cfi_startproc
	@ args = 0, pretend = 0, frame = 0
	@ frame_needed = 0, uses_anonymous_args = 0
	@ link register save eliminated.
.LVL4:
	.loc 1 199 3
	.loc 1 210 3
	.loc 1 210 75 is_stmt 0
	adds	r0, r0, #32
.LVL5:
	ldr	r3, .L9
	ldr	r2, [r3, r0, lsl #2]
	.loc 1 210 6
	ldr	r3, .L9+4
	cmp	r2, r3
	beq	.L8
	.loc 1 218 10
	movs	r0, #1
.LVL6:
	bx	lr
.L8:
	.loc 1 213 12
	movs	r0, #0
	.loc 1 219 1
	bx	lr
.L10:
	.align	2
.L9:
	.word	1476551680
	.word	-2147482880
	.cfi_endproc
.LFE336:
	.size	HAL_HSEM_FastTake, .-HAL_HSEM_FastTake
	.section	.text.HAL_HSEM_IsSemTaken,"ax",%progbits
	.align	1
	.global	HAL_HSEM_IsSemTaken
	.syntax unified
	.thumb
	.thumb_func
	.type	HAL_HSEM_IsSemTaken, %function
HAL_HSEM_IsSemTaken:
.LFB337:
	.loc 1 226 1 is_stmt 1
	.cfi_startproc
	@ args = 0, pretend = 0, frame = 0
	@ frame_needed = 0, uses_anonymous_args = 0
	@ link register save eliminated.
.LVL7:
	.loc 1 227 3
	.loc 1 227 79 is_stmt 0
	ldr	r3, .L15
	ldr	r3, [r3, r0, lsl #2]
	.loc 1 227 120
	cmp	r3, #0
	blt	.L14
	movs	r0, #0
.LVL8:
	.loc 1 228 1
	bx	lr
.LVL9:
.L14:
	.loc 1 227 120
	movs	r0, #1
.LVL10:
	bx	lr
.L16:
	.align	2
.L15:
	.word	1476551680
	.cfi_endproc
.LFE337:
	.size	HAL_HSEM_IsSemTaken, .-HAL_HSEM_IsSemTaken
	.section	.text.HAL_HSEM_Release,"ax",%progbits
	.align	1
	.global	HAL_HSEM_Release
	.syntax unified
	.thumb
	.thumb_func
	.type	HAL_HSEM_Release, %function
HAL_HSEM_Release:
.LFB338:
	.loc 1 238 1 is_stmt 1
	.cfi_startproc
	@ args = 0, pretend = 0, frame = 0
	@ frame_needed = 0, uses_anonymous_args = 0
	@ link register save eliminated.
.LVL11:
	.loc 1 240 3
	.loc 1 241 3
	.loc 1 247 3
	.loc 1 247 90 is_stmt 0
	orr	r1, r1, #768
.LVL12:
	.loc 1 247 77
	ldr	r3, .L18
	str	r1, [r3, r0, lsl #2]
	.loc 1 250 1
	bx	lr
.L19:
	.align	2
.L18:
	.word	1476551680
	.cfi_endproc
.LFE338:
	.size	HAL_HSEM_Release, .-HAL_HSEM_Release
	.section	.text.HAL_HSEM_ReleaseAll,"ax",%progbits
	.align	1
	.global	HAL_HSEM_ReleaseAll
	.syntax unified
	.thumb
	.thumb_func
	.type	HAL_HSEM_ReleaseAll, %function
HAL_HSEM_ReleaseAll:
.LFB339:
	.loc 1 259 1 is_stmt 1
	.cfi_startproc
	@ args = 0, pretend = 0, frame = 0
	@ frame_needed = 0, uses_anonymous_args = 0
	@ link register save eliminated.
.LVL13:
	.loc 1 260 3
	.loc 1 261 3
	.loc 1 263 3
	.loc 1 263 99 is_stmt 0
	lsls	r1, r1, #8
.LVL14:
	.loc 1 263 89
	orr	r1, r1, r0, lsl #16
	.loc 1 263 71
	ldr	r3, .L21
	str	r1, [r3, #320]
	.loc 1 264 1
	bx	lr
.L22:
	.align	2
.L21:
	.word	1476551680
	.cfi_endproc
.LFE339:
	.size	HAL_HSEM_ReleaseAll, .-HAL_HSEM_ReleaseAll
	.section	.text.HAL_HSEM_SetClearKey,"ax",%progbits
	.align	1
	.global	HAL_HSEM_SetClearKey
	.syntax unified
	.thumb
	.thumb_func
	.type	HAL_HSEM_SetClearKey, %function
HAL_HSEM_SetClearKey:
.LFB340:
	.loc 1 291 1 is_stmt 1
	.cfi_startproc
	@ args = 0, pretend = 0, frame = 0
	@ frame_needed = 0, uses_anonymous_args = 0
	@ link register save eliminated.
.LVL15:
	.loc 1 292 3
	.loc 1 294 3
	.loc 1 294 149 is_stmt 0
	ldr	r2, .L24
	ldr	r3, [r2, #324]
	.loc 1 294 159
	uxth	r3, r3
	.loc 1 294 187
	orr	r3, r3, r0, lsl #16
	.loc 1 294 78
	str	r3, [r2, #324]
	.loc 1 296 1
	bx	lr
.L25:
	.align	2
.L24:
	.word	1476551680
	.cfi_endproc
.LFE340:
	.size	HAL_HSEM_SetClearKey, .-HAL_HSEM_SetClearKey
	.section	.text.HAL_HSEM_GetClearKey,"ax",%progbits
	.align	1
	.global	HAL_HSEM_GetClearKey
	.syntax unified
	.thumb
	.thumb_func
	.type	HAL_HSEM_GetClearKey, %function
HAL_HSEM_GetClearKey:
.LFB341:
	.loc 1 303 1 is_stmt 1
	.cfi_startproc
	@ args = 0, pretend = 0, frame = 0
	@ frame_needed = 0, uses_anonymous_args = 0
	@ link register save eliminated.
	.loc 1 304 3
	.loc 1 304 74 is_stmt 0
	ldr	r3, .L27
	ldr	r0, [r3, #324]
	.loc 1 305 1
	lsrs	r0, r0, #16
	bx	lr
.L28:
	.align	2
.L27:
	.word	1476551680
	.cfi_endproc
.LFE341:
	.size	HAL_HSEM_GetClearKey, .-HAL_HSEM_GetClearKey
	.section	.text.HAL_HSEM_ActivateNotification,"ax",%progbits
	.align	1
	.global	HAL_HSEM_ActivateNotification
	.syntax unified
	.thumb
	.thumb_func
	.type	HAL_HSEM_ActivateNotification, %function
HAL_HSEM_ActivateNotification:
.LFB342:
	.loc 1 330 1 is_stmt 1
	.cfi_startproc
	@ args = 0, pretend = 0, frame = 0
	@ frame_needed = 0, uses_anonymous_args = 0
	@ link register save eliminated.
.LVL16:
	.loc 1 344 3
	.loc 1 344 85 is_stmt 0
	ldr	r2, .L30
	ldr	r3, [r2]
	.loc 1 344 91
	orrs	r3, r3, r0
	str	r3, [r2]
	.loc 1 346 1
	bx	lr
.L31:
	.align	2
.L30:
	.word	1476551936
	.cfi_endproc
.LFE342:
	.size	HAL_HSEM_ActivateNotification, .-HAL_HSEM_ActivateNotification
	.section	.text.HAL_HSEM_DeactivateNotification,"ax",%progbits
	.align	1
	.global	HAL_HSEM_DeactivateNotification
	.syntax unified
	.thumb
	.thumb_func
	.type	HAL_HSEM_DeactivateNotification, %function
HAL_HSEM_DeactivateNotification:
.LFB343:
	.loc 1 354 1 is_stmt 1
	.cfi_startproc
	@ args = 0, pretend = 0, frame = 0
	@ frame_needed = 0, uses_anonymous_args = 0
	@ link register save eliminated.
.LVL17:
	.loc 1 368 3
	.loc 1 368 85 is_stmt 0
	ldr	r2, .L33
	ldr	r3, [r2]
	.loc 1 368 91
	bic	r3, r3, r0
	str	r3, [r2]
	.loc 1 370 1
	bx	lr
.L34:
	.align	2
.L33:
	.word	1476551936
	.cfi_endproc
.LFE343:
	.size	HAL_HSEM_DeactivateNotification, .-HAL_HSEM_DeactivateNotification
	.section	.text.HAL_HSEM_FreeCallback,"ax",%progbits
	.align	1
	.weak	HAL_HSEM_FreeCallback
	.syntax unified
	.thumb
	.thumb_func
	.type	HAL_HSEM_FreeCallback, %function
HAL_HSEM_FreeCallback:
.LFB345:
	.loc 1 423 1 is_stmt 1
	.cfi_startproc
	@ args = 0, pretend = 0, frame = 0
	@ frame_needed = 0, uses_anonymous_args = 0
	@ link register save eliminated.
.LVL18:
	.loc 1 425 3
	.loc 1 430 1 is_stmt 0
	bx	lr
	.cfi_endproc
.LFE345:
	.size	HAL_HSEM_FreeCallback, .-HAL_HSEM_FreeCallback
	.section	.text.HAL_HSEM_IRQHandler,"ax",%progbits
	.align	1
	.global	HAL_HSEM_IRQHandler
	.syntax unified
	.thumb
	.thumb_func
	.type	HAL_HSEM_IRQHandler, %function
HAL_HSEM_IRQHandler:
.LFB344:
	.loc 1 377 1 is_stmt 1
	.cfi_startproc
	@ args = 0, pretend = 0, frame = 0
	@ frame_needed = 0, uses_anonymous_args = 0
	push	{r3, lr}
	.cfi_def_cfa_offset 8
	.cfi_offset 3, -8
	.cfi_offset 14, -4
	.loc 1 378 3
	.loc 1 404 3
	.loc 1 404 13 is_stmt 0
	ldr	r3, .L38
	ldr	r0, [r3, #12]
.LVL19:
	.loc 1 407 3 is_stmt 1
	.loc 1 407 85 is_stmt 0
	ldr	r2, [r3]
	.loc 1 407 91
	bic	r2, r2, r0
	str	r2, [r3]
	.loc 1 410 3 is_stmt 1
	.loc 1 410 91 is_stmt 0
	str	r0, [r3, #4]
	.loc 1 414 3 is_stmt 1
	bl	HAL_HSEM_FreeCallback
.LVL20:
	.loc 1 415 1 is_stmt 0
	pop	{r3, pc}
.L39:
	.align	2
.L38:
	.word	1476551936
	.cfi_endproc
.LFE344:
	.size	HAL_HSEM_IRQHandler, .-HAL_HSEM_IRQHandler
	.text
.Letext0:
	.file 2 "m:\\noinstall\\arm-gnu-toolchain-12.2.rel1-mingw-w64-i686-arm-none-eabi\\arm-none-eabi\\include\\machine\\_default_types.h"
	.file 3 "m:\\noinstall\\arm-gnu-toolchain-12.2.rel1-mingw-w64-i686-arm-none-eabi\\arm-none-eabi\\include\\sys\\_stdint.h"
	.file 4 "D:/RTOS/Board/YD-STM32H7xxVx_ClassicV19/cmake-build-debug/_deps/stm32h7xx_cmsis_device-src/Include/stm32h743xx.h"
	.file 5 "D:/RTOS/Board/YD-STM32H7xxVx_ClassicV19/cmake-build-debug/_deps/stm32h7xx_hal_driver-src/Inc/stm32h7xx_hal_def.h"