	.cpu cortex-m7
	.arch armv7e-m
	.fpu fpv5-d16
	.eabi_attribute 28, 1
	.eabi_attribute 20, 1
	.eabi_attribute 21, 1
	.eabi_attribute 23, 3
	.eabi_attribute 24, 1
	.eabi_attribute 25, 1
	.eabi_attribute 26, 1
	.eabi_attribute 30, 1
	.eabi_attribute 34, 1
	.eabi_attribute 18, 4
	.file	"stm32h7xx_hal_hrtim.c"
	.text
.Ltext0:
	.cfi_sections	.debug_frame
	.file 1 "D:/RTOS/Board/YD-STM32H7xxVx_ClassicV19/cmake-build-debug/_deps/stm32h7xx_hal_driver-src/Src/stm32h7xx_hal_hrtim.c"
	.section	.text.HRTIM_MasterBase_Config,"ax",%progbits
	.align	1
	.syntax unified
	.thumb
	.thumb_func
	.type	HRTIM_MasterBase_Config, %function
HRTIM_MasterBase_Config:
.LFB437:
	.loc 1 7473 1
	.cfi_startproc
	@ args = 0, pretend = 0, frame = 0
	@ frame_needed = 0, uses_anonymous_args = 0
	@ link register save eliminated.
.LVL0:
	push	{r4}
	.cfi_def_cfa_offset 4
	.cfi_offset 4, -4
	.loc 1 7474 3
	.loc 1 7477 3
	.loc 1 7477 21 is_stmt 0
	ldr	r4, [r0]
	.loc 1 7477 13
	ldr	r2, [r4]
.LVL1:
	.loc 1 7480 3 is_stmt 1
	.loc 1 7480 13 is_stmt 0
	bic	r2, r2, #7
.LVL2:
	.loc 1 7481 3 is_stmt 1
	.loc 1 7481 38 is_stmt 0
	ldr	r3, [r1, #8]
	.loc 1 7481 13
	orrs	r3, r3, r2
.LVL3:
	.loc 1 7484 3 is_stmt 1
	.loc 1 7484 13 is_stmt 0
	bic	r3, r3, #24
.LVL4:
	.loc 1 7485 3 is_stmt 1
	.loc 1 7485 38 is_stmt 0
	ldr	r2, [r1, #12]
	.loc 1 7485 13
	orrs	r2, r2, r3
.LVL5:
	.loc 1 7488 3 is_stmt 1
	.loc 1 7488 37 is_stmt 0
	str	r2, [r4]
	.loc 1 7489 3 is_stmt 1
	.loc 1 7489 9 is_stmt 0
	ldr	r3, [r0]
	.loc 1 7489 52
	ldr	r2, [r1]
.LVL6:
	.loc 1 7489 38
	str	r2, [r3, #20]
.LVL7:
	.loc 1 7490 3 is_stmt 1
	.loc 1 7490 9 is_stmt 0
	ldr	r3, [r0]
	.loc 1 7490 52
	ldr	r2, [r1, #4]
	.loc 1 7490 38
	str	r2, [r3, #24]
	.loc 1 7491 1
	ldr	r4, [sp], #4
	.cfi_restore 4
	.cfi_def_cfa_offset 0
	bx	lr
	.cfi_endproc
.LFE437:
	.size	HRTIM_MasterBase_Config, .-HRTIM_MasterBase_Config
	.section	.text.HRTIM_TimingUnitBase_Config,"ax",%progbits
	.align	1
	.syntax unified
	.thumb
	.thumb_func
	.type	HRTIM_TimingUnitBase_Config, %function
HRTIM_TimingUnitBase_Config:
.LFB438:
	.loc 1 7503 1 is_stmt 1
	.cfi_startproc
	@ args = 0, pretend = 0, frame = 0
	@ frame_needed = 0, uses_anonymous_args = 0
.LVL8:
	push	{r4, r5, lr}
	.cfi_def_cfa_offset 12
	.cfi_offset 4, -12
	.cfi_offset 5, -8
	.cfi_offset 14, -4
	.loc 1 7504 3
	.loc 1 7507 3
	.loc 1 7507 23 is_stmt 0
	ldr	r4, [r0]
	.loc 1 7507 15
	add	ip, r1, #1
	lsl	ip, ip, #7
	ldr	r3, [r4, ip]
.LVL9:
	.loc 1 7510 3 is_stmt 1
	.loc 1 7510 15 is_stmt 0
	bic	lr, r3, #7
.LVL10:
	.loc 1 7511 3 is_stmt 1
	.loc 1 7511 40 is_stmt 0
	ldr	r3, [r2, #8]
	.loc 1 7511 15
	orr	r3, r3, lr
.LVL11:
	.loc 1 7514 3 is_stmt 1
	.loc 1 7514 15 is_stmt 0
	bic	r3, r3, #24
.LVL12:
	.loc 1 7515 3 is_stmt 1
	.loc 1 7515 15 is_stmt 0
	ldr	r5, [r2, #12]
	orrs	r3, r3, r5
.LVL13:
	.loc 1 7518 3 is_stmt 1
	.loc 1 7518 50 is_stmt 0
	str	r3, [r4, ip]
	.loc 1 7519 3 is_stmt 1
	.loc 1 7519 9 is_stmt 0
	ldr	r3, [r0]
.LVL14:
	.loc 1 7519 63
	ldr	r4, [r2]
.LVL15:
	.loc 1 7519 49
	add	r3, r3, r1, lsl #7
	str	r4, [r3, #148]
	.loc 1 7520 3 is_stmt 1
	.loc 1 7520 9 is_stmt 0
	ldr	r3, [r0]
	.loc 1 7520 63
	ldr	r2, [r2, #4]
.LVL16:
	.loc 1 7520 49
	add	r3, r3, r1, lsl #7
	str	r2, [r3, #152]
	.loc 1 7521 1
	pop	{r4, r5, pc}
	.cfi_endproc
.LFE438:
	.size	HRTIM_TimingUnitBase_Config, .-HRTIM_TimingUnitBase_Config
	.section	.text.HRTIM_MasterWaveform_Config,"ax",%progbits
	.align	1
	.syntax unified
	.thumb
	.thumb_func
	.type	HRTIM_MasterWaveform_Config, %function
HRTIM_MasterWaveform_Config:
.LFB439:
	.loc 1 7531 1 is_stmt 1
	.cfi_startproc
	@ args = 0, pretend = 0, frame = 0
	@ frame_needed = 0, uses_anonymous_args = 0
	@ link register save eliminated.
.LVL17:
	push	{r4, r5}
	.cfi_def_cfa_offset 8
	.cfi_offset 4, -8
	.cfi_offset 5, -4
	.loc 1 7532 3
	.loc 1 7533 3
	.loc 1 7536 3
	.loc 1 7536 21 is_stmt 0
	ldr	r4, [r0]
	.loc 1 7536 13
	ldr	r2, [r4]
.LVL18:
	.loc 1 7537 3 is_stmt 1
	.loc 1 7537 14 is_stmt 0
	ldr	r5, [r4, #928]
.LVL19:
	.loc 1 7540 3 is_stmt 1
	.loc 1 7540 13 is_stmt 0
	bic	r2, r2, #32
.LVL20:
	.loc 1 7541 3 is_stmt 1
	.loc 1 7541 25 is_stmt 0
	ldr	r3, [r1, #20]
	.loc 1 7541 13
	orrs	r3, r3, r2
.LVL21:
	.loc 1 7544 3 is_stmt 1
	.loc 1 7544 13 is_stmt 0
	bic	r2, r3, #2048
.LVL22:
	.loc 1 7545 3 is_stmt 1
	.loc 1 7545 25 is_stmt 0
	ldr	r3, [r1, #24]
	.loc 1 7545 13
	orrs	r3, r3, r2
.LVL23:
	.loc 1 7548 3 is_stmt 1
	.loc 1 7548 13 is_stmt 0
	bic	r2, r3, #1024
.LVL24:
	.loc 1 7549 3 is_stmt 1
	.loc 1 7549 25 is_stmt 0
	ldr	r3, [r1, #28]
	.loc 1 7549 13
	orrs	r3, r3, r2
.LVL25:
	.loc 1 7552 3 is_stmt 1
	.loc 1 7552 13 is_stmt 0
	bic	r2, r3, #100663296
.LVL26:
	.loc 1 7553 3 is_stmt 1
	.loc 1 7553 25 is_stmt 0
	ldr	r3, [r1, #32]
	.loc 1 7553 13
	orrs	r3, r3, r2
.LVL27:
	.loc 1 7556 3 is_stmt 1
	.loc 1 7556 13 is_stmt 0
	bic	r2, r3, #134217728
.LVL28:
	.loc 1 7557 3 is_stmt 1
	.loc 1 7557 25 is_stmt 0
	ldr	r3, [r1, #36]
	.loc 1 7557 13
	orrs	r3, r3, r2
.LVL29:
	.loc 1 7560 3 is_stmt 1
	.loc 1 7560 13 is_stmt 0
	bic	r3, r3, #-1073741824
.LVL30:
	.loc 1 7561 3 is_stmt 1
	.loc 1 7561 26 is_stmt 0
	ldr	r2, [r1, #40]
	.loc 1 7561 13
	orr	r3, r3, r2, lsl #2
.LVL31:
	.loc 1 7564 3 is_stmt 1
	.loc 1 7564 13 is_stmt 0
	bic	r3, r3, #536870912
.LVL32:
	.loc 1 7565 3 is_stmt 1
	.loc 1 7565 25 is_stmt 0
	ldr	r2, [r1, #48]
	.loc 1 7565 13
	orrs	r2, r2, r3
.LVL33:
	.loc 1 7568 3 is_stmt 1
	.loc 1 7568 14 is_stmt 0
	bic	r5, r5, #65536
.LVL34:
	.loc 1 7569 3 is_stmt 1
	.loc 1 7569 26 is_stmt 0
	ldr	r3, [r1, #44]
	.loc 1 7569 14
	orrs	r5, r5, r3
.LVL35:
	.loc 1 7572 3 is_stmt 1
	.loc 1 7572 37 is_stmt 0
	str	r2, [r4]
	.loc 1 7573 3 is_stmt 1
	.loc 1 7573 9 is_stmt 0
	ldr	r3, [r0]
	.loc 1 7573 38
	str	r5, [r3, #928]
	.loc 1 7574 1
	pop	{r4, r5}
	.cfi_restore 5
	.cfi_restore 4
	.cfi_def_cfa_offset 0
.LVL36:
	bx	lr
	.cfi_endproc
.LFE439:
	.size	HRTIM_MasterWaveform_Config, .-HRTIM_MasterWaveform_Config
	.section	.text.HRTIM_TimingUnitWaveform_Config,"ax",%progbits
	.align	1
	.syntax unified
	.thumb
	.thumb_func
	.type	HRTIM_TimingUnitWaveform_Config, %function
HRTIM_TimingUnitWaveform_Config:
.LFB440:
	.loc 1 7586 1 is_stmt 1
	.cfi_startproc
	@ args = 0, pretend = 0, frame = 0
	@ frame_needed = 0, uses_anonymous_args = 0
.LVL37:
	push	{r4, r5, r6, r7, r8, lr}
	.cfi_def_cfa_offset 24
	.cfi_offset 4, -24
	.cfi_offset 5, -20
	.cfi_offset 6, -16
	.cfi_offset 7, -12
	.cfi_offset 8, -8
	.cfi_offset 14, -4
	.loc 1 7587 3
	.loc 1 7588 3
	.loc 1 7589 3
	.loc 1 7590 3
	.loc 1 7591 3
	.loc 1 7594 3
	.loc 1 7594 9 is_stmt 0
	ldr	r5, [r0]
	.loc 1 7594 42
	adds	r3, r1, #1
	lsls	r3, r3, #7
	ldr	r4, [r5, r3]
	.loc 1 7594 50
	bic	r4, r4, #-268435456
	str	r4, [r5, r3]
	.loc 1 7597 3 is_stmt 1
	.loc 1 7597 23 is_stmt 0
	ldr	r6, [r0]
	.loc 1 7597 15
	ldr	r3, [r6, r3]
.LVL38:
	.loc 1 7598 3 is_stmt 1
	.loc 1 7598 17 is_stmt 0
	add	r4, r6, r1, lsl #7
	ldr	r8, [r4, #232]
.LVL39:
	.loc 1 7599 3 is_stmt 1
	.loc 1 7599 17 is_stmt 0
	ldr	r4, [r4, #228]
.LVL40:
	.loc 1 7600 3 is_stmt 1
	.loc 1 7600 14 is_stmt 0
	ldr	r5, [r6, #928]
.LVL41:
	.loc 1 7603 3 is_stmt 1
	.loc 1 7603 15 is_stmt 0
	bic	ip, r3, #32
.LVL42:
	.loc 1 7604 3 is_stmt 1
	.loc 1 7604 27 is_stmt 0
	ldr	r3, [r2, #20]
	.loc 1 7604 15
	orr	r3, r3, ip
.LVL43:
	.loc 1 7607 3 is_stmt 1
	.loc 1 7607 15 is_stmt 0
	bic	ip, r3, #2048
.LVL44:
	.loc 1 7608 3 is_stmt 1
	.loc 1 7608 27 is_stmt 0
	ldr	r3, [r2, #24]
	.loc 1 7608 15
	orr	r3, r3, ip
.LVL45:
	.loc 1 7611 3 is_stmt 1
	.loc 1 7611 15 is_stmt 0
	bic	ip, r3, #1024
.LVL46:
	.loc 1 7612 3 is_stmt 1
	.loc 1 7612 27 is_stmt 0
	ldr	r3, [r2, #28]
	.loc 1 7612 15
	orr	r3, r3, ip
.LVL47:
	.loc 1 7615 3 is_stmt 1
	.loc 1 7615 15 is_stmt 0
	bic	ip, r3, #100663296
.LVL48:
	.loc 1 7616 3 is_stmt 1
	.loc 1 7616 27 is_stmt 0
	ldr	r3, [r2, #32]
	.loc 1 7616 15
	orr	r3, r3, ip
.LVL49:
	.loc 1 7619 3 is_stmt 1
	.loc 1 7619 15 is_stmt 0
	bic	ip, r3, #134217728
.LVL50:
	.loc 1 7620 3 is_stmt 1
	.loc 1 7620 27 is_stmt 0
	ldr	r3, [r2, #36]
	.loc 1 7620 15
	orr	r3, r3, ip
.LVL51:
	.loc 1 7623 3 is_stmt 1
	.loc 1 7623 15 is_stmt 0
	bic	ip, r3, #-268435456
.LVL52:
	.loc 1 7624 3 is_stmt 1
	.loc 1 7624 27 is_stmt 0
	ldr	r3, [r2, #40]
	.loc 1 7624 15
	orr	r3, r3, ip
.LVL53:
	.loc 1 7627 3 is_stmt 1
	.loc 1 7627 15 is_stmt 0
	bic	r3, r3, #131072
.LVL54:
	.loc 1 7628 3 is_stmt 1
	.loc 1 7628 6 is_stmt 0
	ldr	r7, [r2, #48]
	cmp	r7, #536870912
	beq	.L21
.L8:
	.loc 1 7634 3 is_stmt 1
	.loc 1 7634 15 is_stmt 0
	bic	r3, r3, #64
.LVL55:
	.loc 1 7635 3 is_stmt 1
	.loc 1 7635 27 is_stmt 0
	ldr	ip, [r2, #52]
	.loc 1 7635 15
	orr	r3, ip, r3
.LVL56:
	.loc 1 7638 3 is_stmt 1
	.loc 1 7638 15 is_stmt 0
	bic	r3, r3, #262144
.LVL57:
	.loc 1 7639 3 is_stmt 1
	.loc 1 7639 15 is_stmt 0
	ldr	r7, [r2, #80]
	orr	lr, r7, r3
.LVL58:
	.loc 1 7642 3 is_stmt 1
	.loc 1 7642 15 is_stmt 0
	bic	lr, lr, #33030144
.LVL59:
	.loc 1 7643 3 is_stmt 1
	.loc 1 7643 27 is_stmt 0
	ldr	r3, [r2, #72]
	.loc 1 7643 15
	orr	lr, r3, lr
.LVL60:
	.loc 1 7646 3 is_stmt 1
	.loc 1 7646 17 is_stmt 0
	bic	r7, r8, #31
.LVL61:
	.loc 1 7647 3 is_stmt 1
	.loc 1 7647 30 is_stmt 0
	ldr	r3, [r2, #56]
	.loc 1 7647 44
	and	r3, r3, #31
	.loc 1 7647 17
	orrs	r3, r3, r7
.LVL62:
	.loc 1 7650 3 is_stmt 1
	.loc 1 7650 17 is_stmt 0
	bic	r3, r3, #-2147483648
.LVL63:
	.loc 1 7651 3 is_stmt 1
	.loc 1 7651 29 is_stmt 0
	ldr	r7, [r2, #60]
	.loc 1 7651 17
	orrs	r3, r3, r7
.LVL64:
	.loc 1 7654 3 is_stmt 1
	.loc 1 7654 6 is_stmt 0
	cmp	ip, #0
	bne	.L9
	.loc 1 7657 5 is_stmt 1
	.loc 1 7657 19 is_stmt 0
	bic	r4, r4, #256
.LVL65:
	.loc 1 7658 5 is_stmt 1
	.loc 1 7658 31 is_stmt 0
	ldr	r7, [r2, #64]
	.loc 1 7658 19
	orrs	r4, r4, r7
.LVL66:
.L9:
	.loc 1 7665 3 is_stmt 1
	.loc 1 7665 19 is_stmt 0
	ldr	r7, [r2, #68]
	.loc 1 7665 6
	cmp	r7, #3584
	it	ne
	cmpne	r7, #7680
	bne	.L10
	.loc 1 7667 8
	cmp	ip, #64
	bne	.L11
.L10:
	.loc 1 7669 5 is_stmt 1
	.loc 1 7669 19 is_stmt 0
	bic	r4, r4, #7680
.LVL67:
	.loc 1 7670 5 is_stmt 1
	.loc 1 7670 19 is_stmt 0
	orrs	r4, r4, r7
.LVL68:
.L11:
	.loc 1 7674 3 is_stmt 1
	.loc 1 7674 17 is_stmt 0
	ldr	r7, [r2, #76]
.LVL69:
	.loc 1 7677 3 is_stmt 1
	cmp	r1, #4
	bhi	.L12
	tbb	[pc, r1]
.L14:
	.byte	(.L18-.L14)/2
	.byte	(.L17-.L14)/2
	.byte	(.L16-.L14)/2
	.byte	(.L15-.L14)/2
	.byte	(.L13-.L14)/2
.LVL70:
	.p2align 1
.L21:
	.loc 1 7630 5
	.loc 1 7630 17 is_stmt 0
	orr	r3, r3, #131072
.LVL71:
	b	.L8
.LVL72:
.L18:
	.loc 1 7681 7 is_stmt 1
	.loc 1 7681 18 is_stmt 0
	bic	r5, r5, #131072
.LVL73:
	.loc 1 7682 7 is_stmt 1
	.loc 1 7682 32 is_stmt 0
	ldr	r2, [r2, #44]
.LVL74:
	.loc 1 7682 18
	orr	r5, r5, r2, lsl #1
.LVL75:
	.loc 1 7683 7 is_stmt 1
.L12:
	.loc 1 7719 3
	.loc 1 7719 50 is_stmt 0
	adds	r2, r1, #1
	lsls	r2, r2, #7
	str	lr, [r6, r2]
	.loc 1 7720 3 is_stmt 1
	.loc 1 7720 9 is_stmt 0
	ldr	r2, [r0]
	.loc 1 7720 49
	add	r2, r2, r1, lsl #7
	str	r3, [r2, #232]
	.loc 1 7721 3 is_stmt 1
	.loc 1 7721 9 is_stmt 0
	ldr	r3, [r0]
.LVL76:
	.loc 1 7721 49
	add	r3, r3, r1, lsl #7
	str	r4, [r3, #228]
.LVL77:
	.loc 1 7722 3 is_stmt 1
	.loc 1 7722 9 is_stmt 0
	ldr	r3, [r0]
	.loc 1 7722 49
	add	r3, r3, r1, lsl #7
	str	r7, [r3, #212]
	.loc 1 7723 3 is_stmt 1
	.loc 1 7723 9 is_stmt 0
	ldr	r3, [r0]
	.loc 1 7723 38
	str	r5, [r3, #928]
	.loc 1 7724 1
	pop	{r4, r5, r6, r7, r8, pc}
.LVL78:
.L17:
	.loc 1 7688 7 is_stmt 1
	.loc 1 7688 18 is_stmt 0
	bic	r5, r5, #262144
.LVL79:
	.loc 1 7689 7 is_stmt 1
	.loc 1 7689 32 is_stmt 0
	ldr	r2, [r2, #44]
.LVL80:
	.loc 1 7689 18
	orr	r5, r5, r2, lsl #2
.LVL81:
	.loc 1 7690 7 is_stmt 1
	b	.L12
.LVL82:
.L16:
	.loc 1 7695 7
	.loc 1 7695 18 is_stmt 0
	bic	r5, r5, #524288
.LVL83:
	.loc 1 7696 7 is_stmt 1
	.loc 1 7696 32 is_stmt 0
	ldr	r2, [r2, #44]
.LVL84:
	.loc 1 7696 18
	orr	r5, r5, r2, lsl #3
.LVL85:
	.loc 1 7697 7 is_stmt 1
	b	.L12
.LVL86:
.L15:
	.loc 1 7702 7
	.loc 1 7702 18 is_stmt 0
	bic	r5, r5, #1048576
.LVL87:
	.loc 1 7703 7 is_stmt 1
	.loc 1 7703 32 is_stmt 0
	ldr	r2, [r2, #44]
.LVL88:
	.loc 1 7703 18
	orr	r5, r5, r2, lsl #4
.LVL89:
	.loc 1 7704 7 is_stmt 1
	b	.L12
.LVL90:
.L13:
	.loc 1 7709 7
	.loc 1 7709 18 is_stmt 0
	bic	r5, r5, #2097152
.LVL91:
	.loc 1 7710 7 is_stmt 1
	.loc 1 7710 32 is_stmt 0
	ldr	r2, [r2, #44]
.LVL92:
	.loc 1 7710 18
	orr	r5, r5, r2, lsl #5
.LVL93:
	.loc 1 7711 7 is_stmt 1
	b	.L12
	.cfi_endproc
.LFE440:
	.size	HRTIM_TimingUnitWaveform_Config, .-HRTIM_TimingUnitWaveform_Config
	.section	.text.HRTIM_CaptureUnitConfig,"ax",%progbits
	.align	1
	.syntax unified
	.thumb
	.thumb_func
	.type	HRTIM_CaptureUnitConfig, %function
HRTIM_CaptureUnitConfig:
.LFB441:
	.loc 1 7738 1
	.cfi_startproc
	@ args = 0, pretend = 0, frame = 0
	@ frame_needed = 0, uses_anonymous_args = 0
	@ link register save eliminated.
.LVL94:
	.loc 1 7739 3
	.loc 1 7741 3
	subs	r3, r3, #1
.LVL95:
	cmp	r3, #9
	bhi	.L23
	tbb	[pc, r3]
.L25:
	.byte	(.L38-.L25)/2
	.byte	(.L33-.L25)/2
	.byte	(.L32-.L25)/2
	.byte	(.L31-.L25)/2
	.byte	(.L30-.L25)/2
	.byte	(.L29-.L25)/2
	.byte	(.L28-.L25)/2
	.byte	(.L27-.L25)/2
	.byte	(.L26-.L25)/2
	.byte	(.L24-.L25)/2
	.p2align 1
.L23:
	mov	r3, #-1
.LVL96:
	b	.L34
.L33:
	.loc 1 7751 7
.LVL97:
	.loc 1 7752 7
	.loc 1 7751 22 is_stmt 0
	movs	r3, #8
	.loc 1 7752 7
	b	.L34
.LVL98:
.L32:
	.loc 1 7757 7 is_stmt 1
	.loc 1 7758 7
	.loc 1 7757 22 is_stmt 0
	movs	r3, #16
	.loc 1 7758 7
	b	.L34
.LVL99:
.L31:
	.loc 1 7763 7 is_stmt 1
	.loc 1 7764 7
	.loc 1 7763 22 is_stmt 0
	movs	r3, #32
	.loc 1 7764 7
	b	.L34
.LVL100:
.L30:
	.loc 1 7769 7 is_stmt 1
	.loc 1 7770 7
	.loc 1 7769 22 is_stmt 0
	movs	r3, #64
	.loc 1 7770 7
	b	.L34
.LVL101:
.L29:
	.loc 1 7775 7 is_stmt 1
	.loc 1 7776 7
	.loc 1 7775 22 is_stmt 0
	movs	r3, #128
	.loc 1 7776 7
	b	.L34
.LVL102:
.L28:
	.loc 1 7781 7 is_stmt 1
	.loc 1 7782 7
	.loc 1 7781 22 is_stmt 0
	mov	r3, #256
	.loc 1 7782 7
	b	.L34
.LVL103:
.L27:
	.loc 1 7787 7 is_stmt 1
	.loc 1 7788 7
	.loc 1 7787 22 is_stmt 0
	mov	r3, #512
	.loc 1 7788 7
	b	.L34
.LVL104:
.L26:
	.loc 1 7793 7 is_stmt 1
	.loc 1 7794 7
	.loc 1 7793 22 is_stmt 0
	mov	r3, #1024
	.loc 1 7794 7
	b	.L34
.LVL105:
.L24:
	.loc 1 7799 7 is_stmt 1
	.loc 1 7800 7
	.loc 1 7799 22 is_stmt 0
	mov	r3, #2048
	.loc 1 7800 7
	b	.L34
.LVL106:
.L38:
	.loc 1 7745 22
	movs	r3, #4
.LVL107:
.L34:
	.loc 1 7807 3 is_stmt 1
	cmp	r2, #1
	beq	.L35
	cmp	r2, #2
	beq	.L36
	bx	lr
.L35:
	.loc 1 7811 7
	.loc 1 7811 52 is_stmt 0
	rsb	r1, r1, r1, lsl #3
.LVL108:
	add	r0, r0, r1, lsl #2
.LVL109:
	str	r3, [r0, #24]
	.loc 1 7812 7 is_stmt 1
	bx	lr
.LVL110:
.L36:
	.loc 1 7817 7
	.loc 1 7817 52 is_stmt 0
	rsb	r1, r1, r1, lsl #3
.LVL111:
	add	r0, r0, r1, lsl #2
.LVL112:
	str	r3, [r0, #28]
	.loc 1 7818 7 is_stmt 1
	.loc 1 7824 1 is_stmt 0
	bx	lr
	.cfi_endproc
.LFE441:
	.size	HRTIM_CaptureUnitConfig, .-HRTIM_CaptureUnitConfig
	.section	.text.HRTIM_OutputConfig,"ax",%progbits
	.align	1
	.syntax unified
	.thumb
	.thumb_func
	.type	HRTIM_OutputConfig, %function
HRTIM_OutputConfig:
.LFB442:
	.loc 1 7838 1 is_stmt 1
	.cfi_startproc
	@ args = 0, pretend = 0, frame = 0
	@ frame_needed = 0, uses_anonymous_args = 0
	@ link register save eliminated.
.LVL113:
	push	{r4, r5, r6, r7}
	.cfi_def_cfa_offset 16
	.cfi_offset 4, -16
	.cfi_offset 5, -12
	.cfi_offset 6, -8
	.cfi_offset 7, -4
	.loc 1 7839 3
	.loc 1 7840 3
	.loc 1 7842 3
.LVL114:
	.loc 1 7844 3
	.loc 1 7844 22 is_stmt 0
	ldr	r7, [r0]
	.loc 1 7844 14
	add	r4, r7, r1, lsl #7
	ldr	r6, [r4, #228]
.LVL115:
	.loc 1 7845 3 is_stmt 1
	.loc 1 7845 13 is_stmt 0
	ldr	r5, [r4, #184]
.LVL116:
	.loc 1 7847 3 is_stmt 1
	cmp	r2, #32
	bhi	.L40
	cmp	r2, #2
	bcs	.L41
	cmp	r2, #1
	beq	.L42
	movs	r2, #0
.LVL117:
	b	.L43
.LVL118:
.L41:
	subs	r2, r2, #2
.LVL119:
	movs	r4, #1
	lsl	r2, r4, r2
.LVL120:
	ldr	r4, .L51
	tst	r2, r4
	bne	.L44
	movw	r4, #16388
	tst	r2, r4
	bne	.L42
	movs	r2, #0
.LVL121:
.L43:
	.loc 1 7879 3
	.loc 1 7884 37 is_stmt 0
	movs	r4, #254
	lsls	r4, r4, r2
	.loc 1 7879 14
	bic	r6, r6, r4
.LVL122:
	.loc 1 7887 3 is_stmt 1
	.loc 1 7887 28 is_stmt 0
	ldr	r4, [r3]
	.loc 1 7887 39
	lsls	r4, r4, r2
	.loc 1 7887 14
	orr	ip, r4, r6
.LVL123:
	.loc 1 7890 3 is_stmt 1
	.loc 1 7890 28 is_stmt 0
	ldr	r4, [r3, #12]
	.loc 1 7890 39
	lsls	r4, r4, r2
	.loc 1 7890 14
	orr	r4, r4, ip
.LVL124:
	.loc 1 7893 3 is_stmt 1
	.loc 1 7893 28 is_stmt 0
	ldr	r6, [r3, #16]
	.loc 1 7893 40
	lsl	ip, r6, r2
	.loc 1 7893 14
	orr	ip, ip, r4
.LVL125:
	.loc 1 7896 3 is_stmt 1
	.loc 1 7896 28 is_stmt 0
	ldr	r4, [r3, #20]
	.loc 1 7896 41
	lsls	r4, r4, r2
	.loc 1 7896 14
	orr	ip, r4, ip
.LVL126:
	.loc 1 7899 3 is_stmt 1
	.loc 1 7899 28 is_stmt 0
	ldr	r4, [r3, #24]
	.loc 1 7899 48
	lsls	r4, r4, r2
	.loc 1 7899 14
	orr	r4, r4, ip
.LVL127:
	.loc 1 7907 3 is_stmt 1
	.loc 1 7907 6 is_stmt 0
	cmp	r6, #8
	beq	.L48
.LVL128:
.L46:
	.loc 1 7915 3 is_stmt 1
	.loc 1 7915 9 is_stmt 0
	ldr	r3, [r0]
	.loc 1 7915 49
	add	r3, r3, r1, lsl #7
	str	r4, [r3, #228]
	.loc 1 7916 1
	pop	{r4, r5, r6, r7}
	.cfi_remember_state
	.cfi_restore 7
	.cfi_restore 6
	.cfi_restore 5
	.cfi_restore 4
	.cfi_def_cfa_offset 0
.LVL129:
	bx	lr
.LVL130:
.L40:
	.cfi_restore_state
	.loc 1 7847 3
	cmp	r2, #256
	beq	.L42
	bls	.L49
	cmp	r2, #512
	beq	.L44
	movs	r2, #0
.LVL131:
	b	.L43
.LVL132:
.L49:
	cmp	r2, #64
	beq	.L42
	cmp	r2, #128
	bne	.L50
.LVL133:
.L44:
	.loc 1 7868 7 is_stmt 1
	.loc 1 7868 66 is_stmt 0
	ldr	r2, [r3, #4]
	.loc 1 7868 54
	add	r7, r7, r1, lsl #7
	str	r2, [r7, #196]
	.loc 1 7869 7 is_stmt 1
	.loc 1 7869 13 is_stmt 0
	ldr	r2, [r0]
	.loc 1 7869 66
	ldr	r4, [r3, #8]
	.loc 1 7869 54
	add	r2, r2, r1, lsl #7
	str	r4, [r2, #200]
	.loc 1 7870 7 is_stmt 1
.LVL134:
	.loc 1 7871 7
	.loc 1 7870 13 is_stmt 0
	movs	r2, #16
	.loc 1 7871 7
	b	.L43
.LVL135:
.L50:
	.loc 1 7847 3
	movs	r2, #0
.LVL136:
	b	.L43
.L42:
	.loc 1 7856 7 is_stmt 1
	.loc 1 7856 66 is_stmt 0
	ldr	r2, [r3, #4]
	.loc 1 7856 54
	add	r7, r7, r1, lsl #7
	str	r2, [r7, #188]
	.loc 1 7857 7 is_stmt 1
	.loc 1 7857 13 is_stmt 0
	ldr	r2, [r0]
	.loc 1 7857 66
	ldr	r4, [r3, #8]
	.loc 1 7857 54
	add	r2, r2, r1, lsl #7
	str	r4, [r2, #192]
	.loc 1 7858 7 is_stmt 1
	.loc 1 7842 12 is_stmt 0
	movs	r2, #0
	.loc 1 7858 7
	b	.L43
.LVL137:
.L48:
	.loc 1 7908 58
	tst	r5, #33554944
	bne	.L46
	.loc 1 7911 5 is_stmt 1
	.loc 1 7911 30 is_stmt 0
	ldr	r3, [r3, #28]
.LVL138:
	.loc 1 7911 54
	lsls	r3, r3, r2
	.loc 1 7911 16
	orrs	r4, r4, r3
.LVL139:
	b	.L46
.L52:
	.align	2
.L51:
	.word	1073741889
	.cfi_endproc
.LFE442:
	.size	HRTIM_OutputConfig, .-HRTIM_OutputConfig
	.section	.text.HRTIM_EventConfig,"ax",%progbits
	.align	1
	.syntax unified
	.thumb
	.thumb_func
	.type	HRTIM_EventConfig, %function
HRTIM_EventConfig:
.LFB443:
	.loc 1 7928 1 is_stmt 1
	.cfi_startproc
	@ args = 0, pretend = 0, frame = 0
	@ frame_needed = 0, uses_anonymous_args = 0
	@ link register save eliminated.
.LVL140:
	push	{r4, r5, r6}
	.cfi_def_cfa_offset 12
	.cfi_offset 4, -12
	.cfi_offset 5, -8
	.cfi_offset 6, -4
	.loc 1 7929 3
	.loc 1 7930 3
	.loc 1 7931 3
	.loc 1 7934 3
	.loc 1 7934 23 is_stmt 0
	ldr	r3, [r0]
	.loc 1 7934 15
	ldr	r6, [r3, #944]
.LVL141:
	.loc 1 7935 3 is_stmt 1
	.loc 1 7935 15 is_stmt 0
	ldr	r5, [r3, #948]
.LVL142:
	.loc 1 7936 3 is_stmt 1
	.loc 1 7936 15 is_stmt 0
	ldr	r4, [r3, #952]
.LVL143:
	.loc 1 7938 3 is_stmt 1
	cmp	r1, #10
	bhi	.L53
	tbh	[pc, r1, lsl #1]
.L56:
	.2byte	(.L66-.L56)/2
	.2byte	(.L65-.L56)/2
	.2byte	(.L64-.L56)/2
	.2byte	(.L63-.L56)/2
	.2byte	(.L62-.L56)/2
	.2byte	(.L61-.L56)/2
	.2byte	(.L60-.L56)/2
	.2byte	(.L59-.L56)/2
	.2byte	(.L58-.L56)/2
	.2byte	(.L57-.L56)/2
	.2byte	(.L55-.L56)/2
	.p2align 1
.L66:
	.loc 1 7943 7
	.loc 1 7943 43 is_stmt 0
	movs	r2, #0
.LVL144:
	str	r2, [r3, #944]
	.loc 1 7944 7 is_stmt 1
	.loc 1 7944 13 is_stmt 0
	ldr	r3, [r0]
	.loc 1 7944 43
	str	r2, [r3, #948]
	.loc 1 7945 7 is_stmt 1
	.loc 1 7945 13 is_stmt 0
	ldr	r3, [r0]
	.loc 1 7945 43
	str	r2, [r3, #952]
	.loc 1 7946 7 is_stmt 1
.LVL145:
.L53:
	.loc 1 8092 1 is_stmt 0
	pop	{r4, r5, r6}
	.cfi_remember_state
	.cfi_restore 6
	.cfi_restore 5
	.cfi_restore 4
	.cfi_def_cfa_offset 0
	bx	lr
.LVL146:
.L65:
	.cfi_restore_state
	.loc 1 7951 7 is_stmt 1
	.loc 1 7951 19 is_stmt 0
	bic	r6, r6, #63
.LVL147:
	.loc 1 7952 7 is_stmt 1
	.loc 1 7952 32 is_stmt 0
	ldr	r1, [r2]
.LVL148:
	.loc 1 7952 41
	and	r1, r1, #3
	.loc 1 7952 19
	orr	r4, r1, r6
.LVL149:
	.loc 1 7953 7 is_stmt 1
	.loc 1 7953 32 is_stmt 0
	ldr	r1, [r2, #4]
	.loc 1 7953 43
	and	r1, r1, #4
	.loc 1 7953 19
	orrs	r4, r4, r1
.LVL150:
	.loc 1 7954 7 is_stmt 1
	.loc 1 7954 32 is_stmt 0
	ldr	r1, [r2, #8]
	.loc 1 7954 46
	and	r1, r1, #24
	.loc 1 7954 19
	orrs	r1, r1, r4
.LVL151:
	.loc 1 7956 7 is_stmt 1
	.loc 1 7956 43 is_stmt 0
	str	r1, [r3, #944]
	.loc 1 7958 7 is_stmt 1
	.loc 1 7958 32 is_stmt 0
	ldr	r3, [r2, #16]
	.loc 1 7958 43
	and	r3, r3, #32
	.loc 1 7958 19
	orrs	r3, r3, r1
.LVL152:
	.loc 1 7959 7 is_stmt 1
	.loc 1 7959 13 is_stmt 0
	ldr	r2, [r0]
.LVL153:
	.loc 1 7959 43
	str	r3, [r2, #944]
	.loc 1 7960 7 is_stmt 1
	b	.L53
.LVL154:
.L64:
	.loc 1 7965 7
	.loc 1 7965 19 is_stmt 0
	bic	r6, r6, #4032
.LVL155:
	.loc 1 7966 7 is_stmt 1
	.loc 1 7966 33 is_stmt 0
	ldr	r1, [r2]
.LVL156:
	.loc 1 7966 42
	lsls	r5, r1, #6
.LVL157:
	.loc 1 7966 49
	uxtb	r5, r5
	.loc 1 7966 19
	orrs	r5, r5, r6
.LVL158:
	.loc 1 7967 7 is_stmt 1
	.loc 1 7967 33 is_stmt 0
	ldr	r1, [r2, #4]
	.loc 1 7967 44
	lsls	r4, r1, #6
.LVL159:
	.loc 1 7967 51
	and	r4, r4, #256
	.loc 1 7967 19
	orrs	r4, r4, r5
.LVL160:
	.loc 1 7968 7 is_stmt 1
	.loc 1 7968 33 is_stmt 0
	ldr	r1, [r2, #8]
	.loc 1 7968 47
	lsls	r1, r1, #6
	.loc 1 7968 54
	and	r1, r1, #1536
	.loc 1 7968 19
	orrs	r1, r1, r4
.LVL161:
	.loc 1 7970 7 is_stmt 1
	.loc 1 7970 43 is_stmt 0
	str	r1, [r3, #944]
	.loc 1 7972 7 is_stmt 1
	.loc 1 7972 33 is_stmt 0
	ldr	r3, [r2, #16]
	.loc 1 7972 44
	lsls	r3, r3, #6
	.loc 1 7972 51
	and	r3, r3, #2048
	.loc 1 7972 19
	orrs	r3, r3, r1
.LVL162:
	.loc 1 7973 7 is_stmt 1
	.loc 1 7973 13 is_stmt 0
	ldr	r2, [r0]
.LVL163:
	.loc 1 7973 43
	str	r3, [r2, #944]
	.loc 1 7974 7 is_stmt 1
	b	.L53
.LVL164:
.L63:
	.loc 1 7979 7
	.loc 1 7979 19 is_stmt 0
	bic	r6, r6, #258048
.LVL165:
	.loc 1 7980 7 is_stmt 1
	.loc 1 7980 33 is_stmt 0
	ldr	r1, [r2]
.LVL166:
	.loc 1 7980 42
	lsls	r5, r1, #12
.LVL167:
	.loc 1 7980 50
	and	r5, r5, #12288
	.loc 1 7980 19
	orrs	r5, r5, r6
.LVL168:
	.loc 1 7981 7 is_stmt 1
	.loc 1 7981 33 is_stmt 0
	ldr	r1, [r2, #4]
	.loc 1 7981 44
	lsls	r4, r1, #12
.LVL169:
	.loc 1 7981 52
	and	r4, r4, #16384
	.loc 1 7981 19
	orrs	r4, r4, r5
.LVL170:
	.loc 1 7982 7 is_stmt 1
	.loc 1 7982 33 is_stmt 0
	ldr	r1, [r2, #8]
	.loc 1 7982 47
	lsls	r1, r1, #12
	.loc 1 7982 55
	and	r1, r1, #98304
	.loc 1 7982 19
	orrs	r1, r1, r4
.LVL171:
	.loc 1 7984 7 is_stmt 1
	.loc 1 7984 43 is_stmt 0
	str	r1, [r3, #944]
	.loc 1 7986 7 is_stmt 1
	.loc 1 7986 33 is_stmt 0
	ldr	r3, [r2, #16]
	.loc 1 7986 44
	lsls	r3, r3, #12
	.loc 1 7986 52
	and	r3, r3, #131072
	.loc 1 7986 19
	orrs	r3, r3, r1
.LVL172:
	.loc 1 7987 7 is_stmt 1
	.loc 1 7987 13 is_stmt 0
	ldr	r2, [r0]
.LVL173:
	.loc 1 7987 43
	str	r3, [r2, #944]
	.loc 1 7988 7 is_stmt 1
	b	.L53
.LVL174:
.L62:
	.loc 1 7993 7
	.loc 1 7993 19 is_stmt 0
	bic	r6, r6, #16515072
.LVL175:
	.loc 1 7994 7 is_stmt 1
	.loc 1 7994 33 is_stmt 0
	ldr	r1, [r2]
.LVL176:
	.loc 1 7994 42
	lsls	r5, r1, #18
.LVL177:
	.loc 1 7994 50
	and	r5, r5, #786432
	.loc 1 7994 19
	orrs	r5, r5, r6
.LVL178:
	.loc 1 7995 7 is_stmt 1
	.loc 1 7995 33 is_stmt 0
	ldr	r1, [r2, #4]
	.loc 1 7995 44
	lsls	r4, r1, #18
.LVL179:
	.loc 1 7995 52
	and	r4, r4, #1048576
	.loc 1 7995 19
	orrs	r4, r4, r5
.LVL180:
	.loc 1 7996 7 is_stmt 1
	.loc 1 7996 33 is_stmt 0
	ldr	r1, [r2, #8]
	.loc 1 7996 47
	lsls	r1, r1, #18
	.loc 1 7996 55
	and	r1, r1, #6291456
	.loc 1 7996 19
	orrs	r1, r1, r4
.LVL181:
	.loc 1 7998 7 is_stmt 1
	.loc 1 7998 43 is_stmt 0
	str	r1, [r3, #944]
	.loc 1 8000 7 is_stmt 1
	.loc 1 8000 33 is_stmt 0
	ldr	r3, [r2, #16]
	.loc 1 8000 44
	lsls	r3, r3, #18
	.loc 1 8000 52
	and	r3, r3, #8388608
	.loc 1 8000 19
	orrs	r3, r3, r1
.LVL182:
	.loc 1 8001 7 is_stmt 1
	.loc 1 8001 13 is_stmt 0
	ldr	r2, [r0]
.LVL183:
	.loc 1 8001 43
	str	r3, [r2, #944]
	.loc 1 8002 7 is_stmt 1
	b	.L53
.LVL184:
.L61:
	.loc 1 8007 7
	.loc 1 8007 19 is_stmt 0
	bic	r6, r6, #1056964608
.LVL185:
	.loc 1 8008 7 is_stmt 1
	.loc 1 8008 33 is_stmt 0
	ldr	r1, [r2]
.LVL186:
	.loc 1 8008 42
	lsls	r5, r1, #24
.LVL187:
	.loc 1 8008 50
	and	r5, r5, #50331648
	.loc 1 8008 19
	orrs	r5, r5, r6
.LVL188:
	.loc 1 8009 7 is_stmt 1
	.loc 1 8009 33 is_stmt 0
	ldr	r1, [r2, #4]
	.loc 1 8009 44
	lsls	r4, r1, #24
.LVL189:
	.loc 1 8009 52
	and	r4, r4, #67108864
	.loc 1 8009 19
	orrs	r4, r4, r5
.LVL190:
	.loc 1 8010 7 is_stmt 1
	.loc 1 8010 33 is_stmt 0
	ldr	r1, [r2, #8]
	.loc 1 8010 47
	lsls	r1, r1, #24
	.loc 1 8010 55
	and	r1, r1, #402653184
	.loc 1 8010 19
	orrs	r1, r1, r4
.LVL191:
	.loc 1 8012 7 is_stmt 1
	.loc 1 8012 43 is_stmt 0
	str	r1, [r3, #944]
	.loc 1 8014 7 is_stmt 1
	.loc 1 8014 33 is_stmt 0
	ldr	r3, [r2, #16]
	.loc 1 8014 44
	lsls	r3, r3, #24
	.loc 1 8014 52
	and	r3, r3, #536870912
	.loc 1 8014 19
	orrs	r3, r3, r1
.LVL192:
	.loc 1 8015 7 is_stmt 1
	.loc 1 8015 13 is_stmt 0
	ldr	r2, [r0]
.LVL193:
	.loc 1 8015 43
	str	r3, [r2, #944]
	.loc 1 8016 7 is_stmt 1
	b	.L53
.LVL194:
.L60:
	.loc 1 8021 7
	.loc 1 8021 19 is_stmt 0
	bic	r5, r5, #31
.LVL195:
	.loc 1 8022 7 is_stmt 1
	.loc 1 8022 32 is_stmt 0
	ldr	r1, [r2]
.LVL196:
	.loc 1 8022 41
	and	r1, r1, #3
	.loc 1 8022 19
	orrs	r5, r5, r1
.LVL197:
	.loc 1 8023 7 is_stmt 1
	.loc 1 8023 32 is_stmt 0
	ldr	r1, [r2, #4]
	.loc 1 8023 43
	and	r1, r1, #4
	.loc 1 8023 19
	orrs	r5, r5, r1
.LVL198:
	.loc 1 8024 7 is_stmt 1
	.loc 1 8024 32 is_stmt 0
	ldr	r1, [r2, #8]
	.loc 1 8024 46
	and	r1, r1, #24
	.loc 1 8024 19
	orrs	r1, r1, r5
.LVL199:
	.loc 1 8025 7 is_stmt 1
	.loc 1 8025 19 is_stmt 0
	bic	r4, r4, #15
.LVL200:
	.loc 1 8026 7 is_stmt 1
	.loc 1 8026 32 is_stmt 0
	ldr	r2, [r2, #12]
.LVL201:
	.loc 1 8026 41
	and	r2, r2, #15
	.loc 1 8026 19
	orrs	r2, r2, r4
.LVL202:
	.loc 1 8028 7 is_stmt 1
	.loc 1 8028 43 is_stmt 0
	str	r1, [r3, #948]
	.loc 1 8029 7 is_stmt 1
	.loc 1 8029 13 is_stmt 0
	ldr	r3, [r0]
	.loc 1 8029 43
	str	r2, [r3, #952]
	.loc 1 8030 7 is_stmt 1
	b	.L53
.LVL203:
.L59:
	.loc 1 8035 7
	.loc 1 8035 19 is_stmt 0
	bic	r5, r5, #1984
.LVL204:
	.loc 1 8036 7 is_stmt 1
	.loc 1 8036 33 is_stmt 0
	ldr	r1, [r2]
.LVL205:
	.loc 1 8036 42
	lsls	r6, r1, #6
.LVL206:
	.loc 1 8036 49
	uxtb	r6, r6
	.loc 1 8036 19
	orrs	r6, r6, r5
.LVL207:
	.loc 1 8037 7 is_stmt 1
	.loc 1 8037 33 is_stmt 0
	ldr	r1, [r2, #4]
	.loc 1 8037 44
	lsls	r5, r1, #6
	.loc 1 8037 51
	and	r5, r5, #256
	.loc 1 8037 19
	orrs	r5, r5, r6
.LVL208:
	.loc 1 8038 7 is_stmt 1
	.loc 1 8038 33 is_stmt 0
	ldr	r1, [r2, #8]
	.loc 1 8038 47
	lsls	r1, r1, #6
	.loc 1 8038 54
	and	r1, r1, #1536
	.loc 1 8038 19
	orrs	r1, r1, r5
.LVL209:
	.loc 1 8039 7 is_stmt 1
	.loc 1 8039 19 is_stmt 0
	bic	r4, r4, #960
.LVL210:
	.loc 1 8040 7 is_stmt 1
	.loc 1 8040 33 is_stmt 0
	ldr	r2, [r2, #12]
.LVL211:
	.loc 1 8040 42
	lsls	r2, r2, #6
	.loc 1 8040 49
	and	r2, r2, #960
	.loc 1 8040 19
	orrs	r2, r2, r4
.LVL212:
	.loc 1 8042 7 is_stmt 1
	.loc 1 8042 43 is_stmt 0
	str	r1, [r3, #948]
	.loc 1 8043 7 is_stmt 1
	.loc 1 8043 13 is_stmt 0
	ldr	r3, [r0]
	.loc 1 8043 43
	str	r2, [r3, #952]
	.loc 1 8044 7 is_stmt 1
	b	.L53
.LVL213:
.L58:
	.loc 1 8049 7
	.loc 1 8049 19 is_stmt 0
	bic	r5, r5, #126976
.LVL214:
	.loc 1 8050 7 is_stmt 1
	.loc 1 8050 33 is_stmt 0
	ldr	r1, [r2]
.LVL215:
	.loc 1 8050 42
	lsls	r6, r1, #12
.LVL216:
	.loc 1 8050 50
	and	r6, r6, #12288
	.loc 1 8050 19
	orrs	r6, r6, r5
.LVL217:
	.loc 1 8051 7 is_stmt 1
	.loc 1 8051 33 is_stmt 0
	ldr	r1, [r2, #4]
	.loc 1 8051 44
	lsls	r5, r1, #12
	.loc 1 8051 52
	and	r5, r5, #16384
	.loc 1 8051 19
	orrs	r5, r5, r6
.LVL218:
	.loc 1 8052 7 is_stmt 1
	.loc 1 8052 33 is_stmt 0
	ldr	r1, [r2, #8]
	.loc 1 8052 47
	lsls	r1, r1, #12
	.loc 1 8052 55
	and	r1, r1, #98304
	.loc 1 8052 19
	orrs	r1, r1, r5
.LVL219:
	.loc 1 8053 7 is_stmt 1
	.loc 1 8053 19 is_stmt 0
	bic	r4, r4, #61440
.LVL220:
	.loc 1 8054 7 is_stmt 1
	.loc 1 8054 33 is_stmt 0
	ldr	r2, [r2, #12]
.LVL221:
	.loc 1 8054 42
	lsls	r2, r2, #12
	.loc 1 8054 50
	uxth	r2, r2
	.loc 1 8054 19
	orrs	r2, r2, r4
.LVL222:
	.loc 1 8056 7 is_stmt 1
	.loc 1 8056 43 is_stmt 0
	str	r1, [r3, #948]
	.loc 1 8057 7 is_stmt 1
	.loc 1 8057 13 is_stmt 0
	ldr	r3, [r0]
	.loc 1 8057 43
	str	r2, [r3, #952]
	.loc 1 8058 7 is_stmt 1
	b	.L53
.LVL223:
.L57:
	.loc 1 8063 7
	.loc 1 8063 19 is_stmt 0
	bic	r5, r5, #8126464
.LVL224:
	.loc 1 8064 7 is_stmt 1
	.loc 1 8064 33 is_stmt 0
	ldr	r1, [r2]
.LVL225:
	.loc 1 8064 42
	lsls	r6, r1, #18
.LVL226:
	.loc 1 8064 50
	and	r6, r6, #786432
	.loc 1 8064 19
	orrs	r6, r6, r5
.LVL227:
	.loc 1 8065 7 is_stmt 1
	.loc 1 8065 33 is_stmt 0
	ldr	r1, [r2, #4]
	.loc 1 8065 44
	lsls	r5, r1, #18
	.loc 1 8065 52
	and	r5, r5, #1048576
	.loc 1 8065 19
	orrs	r5, r5, r6
.LVL228:
	.loc 1 8066 7 is_stmt 1
	.loc 1 8066 33 is_stmt 0
	ldr	r1, [r2, #8]
	.loc 1 8066 47
	lsls	r1, r1, #18
	.loc 1 8066 55
	and	r1, r1, #6291456
	.loc 1 8066 19
	orrs	r1, r1, r5
.LVL229:
	.loc 1 8067 7 is_stmt 1
	.loc 1 8067 19 is_stmt 0
	bic	r4, r4, #3932160
.LVL230:
	.loc 1 8068 7 is_stmt 1
	.loc 1 8068 33 is_stmt 0
	ldr	r2, [r2, #12]
.LVL231:
	.loc 1 8068 42
	lsls	r2, r2, #18
	.loc 1 8068 50
	and	r2, r2, #3932160
	.loc 1 8068 19
	orrs	r2, r2, r4
.LVL232:
	.loc 1 8070 7 is_stmt 1
	.loc 1 8070 43 is_stmt 0
	str	r1, [r3, #948]
	.loc 1 8071 7 is_stmt 1
	.loc 1 8071 13 is_stmt 0
	ldr	r3, [r0]
	.loc 1 8071 43
	str	r2, [r3, #952]
	.loc 1 8072 7 is_stmt 1
	b	.L53
.LVL233:
.L55:
	.loc 1 8077 7
	.loc 1 8077 19 is_stmt 0
	bic	r5, r5, #520093696
.LVL234:
	.loc 1 8078 7 is_stmt 1
	.loc 1 8078 33 is_stmt 0
	ldr	r1, [r2]
.LVL235:
	.loc 1 8078 42
	lsls	r6, r1, #24
.LVL236:
	.loc 1 8078 50
	and	r6, r6, #50331648
	.loc 1 8078 19
	orrs	r6, r6, r5
.LVL237:
	.loc 1 8079 7 is_stmt 1
	.loc 1 8079 33 is_stmt 0
	ldr	r1, [r2, #4]
	.loc 1 8079 44
	lsls	r5, r1, #24
	.loc 1 8079 52
	and	r5, r5, #67108864
	.loc 1 8079 19
	orrs	r5, r5, r6
.LVL238:
	.loc 1 8080 7 is_stmt 1
	.loc 1 8080 33 is_stmt 0
	ldr	r1, [r2, #8]
	.loc 1 8080 47
	lsls	r1, r1, #24
	.loc 1 8080 55
	and	r1, r1, #402653184
	.loc 1 8080 19
	orrs	r1, r1, r5
.LVL239:
	.loc 1 8081 7 is_stmt 1
	.loc 1 8081 19 is_stmt 0
	bic	r4, r4, #251658240
.LVL240:
	.loc 1 8082 7 is_stmt 1
	.loc 1 8082 33 is_stmt 0
	ldr	r2, [r2, #12]
.LVL241:
	.loc 1 8082 42
	lsls	r2, r2, #24
	.loc 1 8082 50
	and	r2, r2, #251658240
	.loc 1 8082 19
	orrs	r2, r2, r4
.LVL242:
	.loc 1 8084 7 is_stmt 1
	.loc 1 8084 43 is_stmt 0
	str	r1, [r3, #948]
	.loc 1 8085 7 is_stmt 1
	.loc 1 8085 13 is_stmt 0
	ldr	r3, [r0]
	.loc 1 8085 43
	str	r2, [r3, #952]
	.loc 1 8086 7 is_stmt 1
	.loc 1 8092 1 is_stmt 0
	b	.L53
	.cfi_endproc
.LFE443:
	.size	HRTIM_EventConfig, .-HRTIM_EventConfig
	.section	.text.HRTIM_TIM_ResetConfig,"ax",%progbits
	.align	1
	.syntax unified
	.thumb
	.thumb_func
	.type	HRTIM_TIM_ResetConfig, %function
HRTIM_TIM_ResetConfig:
.LFB444:
	.loc 1 8104 1 is_stmt 1
	.cfi_startproc
	@ args = 0, pretend = 0, frame = 0
	@ frame_needed = 0, uses_anonymous_args = 0
	@ link register save eliminated.
.LVL243:
	.loc 1 8105 3
	subs	r2, r2, #1
.LVL244:
	cmp	r2, #9
	bhi	.L69
	tbb	[pc, r2]
.L72:
	.byte	(.L81-.L72)/2
	.byte	(.L80-.L72)/2
	.byte	(.L79-.L72)/2
	.byte	(.L78-.L72)/2
	.byte	(.L77-.L72)/2
	.byte	(.L76-.L72)/2
	.byte	(.L75-.L72)/2
	.byte	(.L74-.L72)/2
	.byte	(.L73-.L72)/2
	.byte	(.L71-.L72)/2
	.p2align 1
.L81:
	.loc 1 8109 7
	.loc 1 8109 13 is_stmt 0
	ldr	r3, [r0]
	.loc 1 8109 53
	add	r3, r3, r1, lsl #7
	mov	r2, #512
.LVL245:
	str	r2, [r3, #212]
	.loc 1 8110 7 is_stmt 1
	bx	lr
.L80:
	.loc 1 8115 7
	.loc 1 8115 13 is_stmt 0
	ldr	r3, [r0]
	.loc 1 8115 53
	add	r3, r3, r1, lsl #7
	mov	r2, #1024
	str	r2, [r3, #212]
	.loc 1 8116 7 is_stmt 1
	bx	lr
.L79:
	.loc 1 8121 7
	.loc 1 8121 13 is_stmt 0
	ldr	r3, [r0]
	.loc 1 8121 53
	add	r3, r3, r1, lsl #7
	mov	r2, #2048
	str	r2, [r3, #212]
	.loc 1 8122 7 is_stmt 1
	bx	lr
.L78:
	.loc 1 8127 7
	.loc 1 8127 13 is_stmt 0
	ldr	r3, [r0]
	.loc 1 8127 53
	add	r3, r3, r1, lsl #7
	mov	r2, #4096
	str	r2, [r3, #212]
	.loc 1 8128 7 is_stmt 1
	bx	lr
.L77:
	.loc 1 8133 7
	.loc 1 8133 13 is_stmt 0
	ldr	r3, [r0]
	.loc 1 8133 53
	add	r3, r3, r1, lsl #7
	mov	r2, #8192
	str	r2, [r3, #212]
	.loc 1 8134 7 is_stmt 1
	bx	lr
.L76:
	.loc 1 8139 7
	.loc 1 8139 13 is_stmt 0
	ldr	r3, [r0]
	.loc 1 8139 53
	add	r3, r3, r1, lsl #7
	mov	r2, #16384
	str	r2, [r3, #212]
	.loc 1 8140 7 is_stmt 1
	bx	lr
.L75:
	.loc 1 8145 7
	.loc 1 8145 13 is_stmt 0
	ldr	r3, [r0]
	.loc 1 8145 53
	add	r3, r3, r1, lsl #7
	mov	r2, #32768
	str	r2, [r3, #212]
	.loc 1 8146 7 is_stmt 1
	bx	lr
.L74:
	.loc 1 8151 7
	.loc 1 8151 13 is_stmt 0
	ldr	r3, [r0]
	.loc 1 8151 53
	add	r3, r3, r1, lsl #7
	mov	r2, #65536
	str	r2, [r3, #212]
	.loc 1 8152 7 is_stmt 1
	bx	lr
.L73:
	.loc 1 8157 7
	.loc 1 8157 13 is_stmt 0
	ldr	r3, [r0]
	.loc 1 8157 53
	add	r3, r3, r1, lsl #7
	mov	r2, #131072
	str	r2, [r3, #212]
	.loc 1 8158 7 is_stmt 1
	bx	lr
.L71:
	.loc 1 8163 7
	.loc 1 8163 13 is_stmt 0
	ldr	r3, [r0]
	.loc 1 8163 53
	add	r3, r3, r1, lsl #7
	mov	r2, #262144
	str	r2, [r3, #212]
	.loc 1 8164 7 is_stmt 1
.L69:
	.loc 1 8170 1 is_stmt 0
	bx	lr
	.cfi_endproc
.LFE444:
	.size	HRTIM_TIM_ResetConfig, .-HRTIM_TIM_ResetConfig
	.section	.text.HRTIM_GetITFromOCMode,"ax",%progbits
	.align	1
	.syntax unified
	.thumb
	.thumb_func
	.type	HRTIM_GetITFromOCMode, %function
HRTIM_GetITFromOCMode:
.LFB445:
	.loc 1 8194 1 is_stmt 1
	.cfi_startproc
	@ args = 0, pretend = 0, frame = 0
	@ frame_needed = 0, uses_anonymous_args = 0
	@ link register save eliminated.
.LVL246:
	.loc 1 8195 3
	.loc 1 8196 3
	.loc 1 8197 3
	.loc 1 8199 3
	cmp	r2, #32
	bhi	.L84
	cmp	r2, #2
	bcs	.L85
	cmp	r2, #1
	beq	.L86
	movs	r0, #0
.LVL247:
	bx	lr
.LVL248:
.L85:
	subs	r2, r2, #2
.LVL249:
	movs	r3, #1
	lsls	r3, r3, r2
	ldr	r2, .L105
.LVL250:
	tst	r3, r2
	bne	.L88
	movw	r2, #16388
	tst	r3, r2
	bne	.L86
	movs	r0, #0
.LVL251:
	bx	lr
.LVL252:
.L84:
	cmp	r2, #256
	beq	.L86
	bls	.L102
	cmp	r2, #512
	beq	.L88
	movs	r0, #0
.LVL253:
	bx	lr
.LVL254:
.L102:
	cmp	r2, #64
	beq	.L86
	cmp	r2, #128
	bne	.L103
.LVL255:
.L88:
	.loc 1 8243 7
	.loc 1 8243 25 is_stmt 0
	ldr	r3, [r0]
	.loc 1 8243 17
	add	r3, r3, r1, lsl #7
	ldr	r2, [r3, #196]
.LVL256:
	.loc 1 8244 7 is_stmt 1
	.loc 1 8244 19 is_stmt 0
	ldr	r0, [r3, #200]
.LVL257:
	.loc 1 8246 7 is_stmt 1
	.loc 1 8246 10 is_stmt 0
	ands	r3, r2, #16
	beq	.L92
	.loc 1 8246 66 discriminator 1
	tst	r0, #16
	bne	.L98
.L92:
	.loc 1 8252 12 is_stmt 1
	.loc 1 8252 15 is_stmt 0
	cbz	r3, .L93
	.loc 1 8252 71 discriminator 1
	cbz	r0, .L99
.L93:
	.loc 1 8258 12 is_stmt 1
	.loc 1 8258 15 is_stmt 0
	cbnz	r2, .L100
	.loc 1 8258 34 discriminator 1
	ands	r0, r0, #16
.LVL258:
	bne	.L104
.LVL259:
.L83:
	.loc 1 8276 1
	bx	lr
.LVL260:
.L103:
	.loc 1 8199 3
	movs	r0, #0
.LVL261:
	bx	lr
.LVL262:
.L86:
	.loc 1 8208 7 is_stmt 1
	.loc 1 8208 25 is_stmt 0
	ldr	r3, [r0]
	.loc 1 8208 17
	add	r3, r3, r1, lsl #7
	ldr	r2, [r3, #188]
.LVL263:
	.loc 1 8209 7 is_stmt 1
	.loc 1 8209 19 is_stmt 0
	ldr	r0, [r3, #192]
.LVL264:
	.loc 1 8211 7 is_stmt 1
	.loc 1 8211 10 is_stmt 0
	ands	r3, r2, #8
	beq	.L90
	.loc 1 8211 66 discriminator 1
	tst	r0, #8
	bne	.L94
.L90:
	.loc 1 8217 12 is_stmt 1
	.loc 1 8217 15 is_stmt 0
	cbz	r3, .L91
	.loc 1 8217 71 discriminator 1
	cbz	r0, .L95
.L91:
	.loc 1 8223 12 is_stmt 1
	.loc 1 8223 15 is_stmt 0
	cbnz	r2, .L96
	.loc 1 8223 34 discriminator 1
	ands	r0, r0, #8
.LVL265:
	beq	.L83
	.loc 1 8227 19
	mov	r0, #1024
	bx	lr
.LVL266:
.L94:
	.loc 1 8215 19
	movs	r0, #1
.LVL267:
	bx	lr
.LVL268:
.L95:
	.loc 1 8221 19
	mov	r0, #512
.LVL269:
	bx	lr
.LVL270:
.L96:
	.loc 1 8197 12
	movs	r0, #0
.LVL271:
	bx	lr
.LVL272:
.L98:
	.loc 1 8250 19
	movs	r0, #2
.LVL273:
	bx	lr
.LVL274:
.L99:
	.loc 1 8256 19
	mov	r0, #2048
.LVL275:
	bx	lr
.LVL276:
.L100:
	.loc 1 8197 12
	movs	r0, #0
.LVL277:
	bx	lr
.L104:
	.loc 1 8262 19
	mov	r0, #4096
.LVL278:
	.loc 1 8275 3 is_stmt 1
	.loc 1 8275 10 is_stmt 0
	b	.L83
.L106:
	.align	2
.L105:
	.word	1073741889
	.cfi_endproc
.LFE445:
	.size	HRTIM_GetITFromOCMode, .-HRTIM_GetITFromOCMode
	.section	.text.HRTIM_GetDMAFromOCMode,"ax",%progbits
	.align	1
	.syntax unified
	.thumb
	.thumb_func
	.type	HRTIM_GetDMAFromOCMode, %function
HRTIM_GetDMAFromOCMode:
.LFB446:
	.loc 1 8300 1 is_stmt 1
	.cfi_startproc
	@ args = 0, pretend = 0, frame = 0
	@ frame_needed = 0, uses_anonymous_args = 0
	@ link register save eliminated.
.LVL279:
	.loc 1 8301 3
	.loc 1 8302 3
	.loc 1 8303 3
	.loc 1 8305 3
	cmp	r2, #32
	bhi	.L108
	cmp	r2, #2
	bcs	.L109
	cmp	r2, #1
	beq	.L110
	movs	r0, #0
.LVL280:
	bx	lr
.LVL281:
.L109:
	subs	r2, r2, #2
.LVL282:
	movs	r3, #1
	lsls	r3, r3, r2
	ldr	r2, .L129
.LVL283:
	tst	r3, r2
	bne	.L112
	movw	r2, #16388
	tst	r3, r2
	bne	.L110
	movs	r0, #0
.LVL284:
	bx	lr
.LVL285:
.L108:
	cmp	r2, #256
	beq	.L110
	bls	.L126
	cmp	r2, #512
	beq	.L112
	movs	r0, #0
.LVL286:
	bx	lr
.LVL287:
.L126:
	cmp	r2, #64
	beq	.L110
	cmp	r2, #128
	bne	.L127
.LVL288:
.L112:
	.loc 1 8349 7
	.loc 1 8349 25 is_stmt 0
	ldr	r3, [r0]
	.loc 1 8349 17
	add	r3, r3, r1, lsl #7
	ldr	r2, [r3, #196]
.LVL289:
	.loc 1 8350 7 is_stmt 1
	.loc 1 8350 19 is_stmt 0
	ldr	r0, [r3, #200]
.LVL290:
	.loc 1 8352 7 is_stmt 1
	.loc 1 8352 10 is_stmt 0
	ands	r3, r2, #16
	beq	.L116
	.loc 1 8352 66 discriminator 1
	tst	r0, #16
	bne	.L122
.L116:
	.loc 1 8358 12 is_stmt 1
	.loc 1 8358 15 is_stmt 0
	cbz	r3, .L117
	.loc 1 8358 71 discriminator 1
	cbz	r0, .L123
.L117:
	.loc 1 8364 12 is_stmt 1
	.loc 1 8364 15 is_stmt 0
	cbnz	r2, .L124
	.loc 1 8364 34 discriminator 1
	ands	r0, r0, #16
.LVL291:
	beq	.L107
	.loc 1 8368 21
	mov	r0, #268435456
.LVL292:
	.loc 1 8381 3 is_stmt 1
	.loc 1 8381 10 is_stmt 0
	b	.L107
.LVL293:
.L127:
	.loc 1 8305 3
	movs	r0, #0
.LVL294:
	bx	lr
.LVL295:
.L110:
	.loc 1 8314 7 is_stmt 1
	.loc 1 8314 25 is_stmt 0
	ldr	r3, [r0]
	.loc 1 8314 17
	add	r3, r3, r1, lsl #7
	ldr	r2, [r3, #188]
.LVL296:
	.loc 1 8315 7 is_stmt 1
	.loc 1 8315 19 is_stmt 0
	ldr	r0, [r3, #192]
.LVL297:
	.loc 1 8317 7 is_stmt 1
	.loc 1 8317 10 is_stmt 0
	ands	r3, r2, #8
	beq	.L114
	.loc 1 8317 66 discriminator 1
	tst	r0, #8
	bne	.L118
.L114:
	.loc 1 8323 12 is_stmt 1
	.loc 1 8323 15 is_stmt 0
	cbz	r3, .L115
	.loc 1 8323 71 discriminator 1
	cbz	r0, .L119
.L115:
	.loc 1 8329 12 is_stmt 1
	.loc 1 8329 15 is_stmt 0
	cbnz	r2, .L120
	.loc 1 8329 34 discriminator 1
	ands	r0, r0, #8
.LVL298:
	bne	.L128
.LVL299:
.L107:
	.loc 1 8382 1
	bx	lr
.LVL300:
.L118:
	.loc 1 8321 21
	mov	r0, #65536
.LVL301:
	bx	lr
.LVL302:
.L119:
	.loc 1 8327 21
	mov	r0, #33554432
.LVL303:
	bx	lr
.LVL304:
.L120:
	.loc 1 8303 12
	movs	r0, #0
.LVL305:
	bx	lr
.L128:
	.loc 1 8333 21
	mov	r0, #67108864
	bx	lr
.LVL306:
.L122:
	.loc 1 8356 21
	mov	r0, #131072
.LVL307:
	bx	lr
.LVL308:
.L123:
	.loc 1 8362 21
	mov	r0, #134217728
.LVL309:
	bx	lr
.LVL310:
.L124:
	.loc 1 8303 12
	movs	r0, #0
.LVL311:
	bx	lr
.L130:
	.align	2
.L129:
	.word	1073741889
	.cfi_endproc
.LFE446:
	.size	HRTIM_GetDMAFromOCMode, .-HRTIM_GetDMAFromOCMode
	.section	.text.HRTIM_GetDMAHandleFromTimerIdx,"ax",%progbits
	.align	1
	.syntax unified
	.thumb
	.thumb_func
	.type	HRTIM_GetDMAHandleFromTimerIdx, %function
HRTIM_GetDMAHandleFromTimerIdx:
.LFB447:
	.loc 1 8386 1 is_stmt 1
	.cfi_startproc
	@ args = 0, pretend = 0, frame = 0
	@ frame_needed = 0, uses_anonymous_args = 0
	@ link register save eliminated.
.LVL312:
	.loc 1 8387 3
	.loc 1 8389 3
	cmp	r1, #5
	bhi	.L140
	tbb	[pc, r1]
.L134:
	.byte	(.L139-.L134)/2
	.byte	(.L138-.L134)/2
	.byte	(.L137-.L134)/2
	.byte	(.L136-.L134)/2
	.byte	(.L135-.L134)/2
	.byte	(.L133-.L134)/2
	.p2align 1
.L133:
	.loc 1 8393 7
	.loc 1 8393 12 is_stmt 0
	ldr	r0, [r0, #196]
.LVL313:
	.loc 1 8394 7 is_stmt 1
	bx	lr
.LVL314:
.L139:
	.loc 1 8399 7
	.loc 1 8399 12 is_stmt 0
	ldr	r0, [r0, #200]
.LVL315:
	.loc 1 8400 7 is_stmt 1
	bx	lr
.LVL316:
.L138:
	.loc 1 8405 7
	.loc 1 8405 12 is_stmt 0
	ldr	r0, [r0, #204]
.LVL317:
	.loc 1 8406 7 is_stmt 1
	bx	lr
.LVL318:
.L137:
	.loc 1 8411 7
	.loc 1 8411 12 is_stmt 0
	ldr	r0, [r0, #208]
.LVL319:
	.loc 1 8412 7 is_stmt 1
	bx	lr
.LVL320:
.L136:
	.loc 1 8417 7
	.loc 1 8417 12 is_stmt 0
	ldr	r0, [r0, #212]
.LVL321:
	.loc 1 8418 7 is_stmt 1
	bx	lr
.LVL322:
.L135:
	.loc 1 8423 7
	.loc 1 8423 12 is_stmt 0
	ldr	r0, [r0, #216]
.LVL323:
	.loc 1 8424 7 is_stmt 1
	bx	lr
.LVL324:
.L140:
	.loc 1 8389 3 is_stmt 0
	movs	r0, #0
.LVL325:
	.loc 1 8431 3 is_stmt 1
	.loc 1 8432 1 is_stmt 0
	bx	lr
	.cfi_endproc
.LFE447:
	.size	HRTIM_GetDMAHandleFromTimerIdx, .-HRTIM_GetDMAHandleFromTimerIdx
	.section	.text.GetTimerIdxFromDMAHandle,"ax",%progbits
	.align	1
	.syntax unified
	.thumb
	.thumb_func
	.type	GetTimerIdxFromDMAHandle, %function
GetTimerIdxFromDMAHandle:
.LFB448:
	.loc 1 8436 1 is_stmt 1
	.cfi_startproc
	@ args = 0, pretend = 0, frame = 0
	@ frame_needed = 0, uses_anonymous_args = 0
	@ link register save eliminated.
.LVL326:
	.loc 1 8437 3
	.loc 1 8439 3
	.loc 1 8439 21 is_stmt 0
	ldr	r3, [r0, #196]
	.loc 1 8439 6
	cmp	r3, r1
	beq	.L143
	.loc 1 8443 8 is_stmt 1
	.loc 1 8443 26 is_stmt 0
	ldr	r3, [r0, #200]
	.loc 1 8443 11
	cmp	r3, r1
	beq	.L144
	.loc 1 8447 8 is_stmt 1
	.loc 1 8447 26 is_stmt 0
	ldr	r3, [r0, #204]
	.loc 1 8447 11
	cmp	r3, r1
	beq	.L145
	.loc 1 8451 8 is_stmt 1
	.loc 1 8451 26 is_stmt 0
	ldr	r3, [r0, #208]
	.loc 1 8451 11
	cmp	r3, r1
	beq	.L146
	.loc 1 8455 8 is_stmt 1
	.loc 1 8455 26 is_stmt 0
	ldr	r3, [r0, #212]
	.loc 1 8455 11
	cmp	r3, r1
	beq	.L147
	.loc 1 8459 8 is_stmt 1
	.loc 1 8459 26 is_stmt 0
	ldr	r3, [r0, #216]
	.loc 1 8459 11
	cmp	r3, r1
	beq	.L148
	.loc 1 8437 12
	mov	r0, #-1
.LVL327:
	bx	lr
.LVL328:
.L143:
	.loc 1 8441 15
	movs	r0, #5
.LVL329:
	bx	lr
.LVL330:
.L144:
	.loc 1 8445 15
	movs	r0, #0
.LVL331:
	bx	lr
.LVL332:
.L145:
	.loc 1 8449 15
	movs	r0, #1
.LVL333:
	bx	lr
.LVL334:
.L146:
	.loc 1 8453 15
	movs	r0, #2
.LVL335:
	bx	lr
.LVL336:
.L147:
	.loc 1 8457 15
	movs	r0, #3
.LVL337:
	bx	lr
.LVL338:
.L148:
	.loc 1 8461 15
	movs	r0, #4
.LVL339:
	.loc 1 8466 3 is_stmt 1
	.loc 1 8467 3
	.loc 1 8468 1 is_stmt 0
	bx	lr
	.cfi_endproc
.LFE448:
	.size	GetTimerIdxFromDMAHandle, .-GetTimerIdxFromDMAHandle
	.section	.text.HRTIM_ForceRegistersUpdate,"ax",%progbits
	.align	1
	.syntax unified
	.thumb
	.thumb_func
	.type	HRTIM_ForceRegistersUpdate, %function
HRTIM_ForceRegistersUpdate:
.LFB449:
	.loc 1 8479 1 is_stmt 1
	.cfi_startproc
	@ args = 0, pretend = 0, frame = 0
	@ frame_needed = 0, uses_anonymous_args = 0
	@ link register save eliminated.
.LVL340:
	.loc 1 8480 3
	cmp	r1, #5
	bhi	.L149
	tbb	[pc, r1]
.L152:
	.byte	(.L157-.L152)/2
	.byte	(.L156-.L152)/2
	.byte	(.L155-.L152)/2
	.byte	(.L154-.L152)/2
	.byte	(.L153-.L152)/2
	.byte	(.L151-.L152)/2
	.p2align 1
.L151:
	.loc 1 8484 7
	.loc 1 8484 13 is_stmt 0
	ldr	r2, [r0]
	.loc 1 8484 36
	ldr	r3, [r2, #900]
	.loc 1 8484 41
	orr	r3, r3, #1
	str	r3, [r2, #900]
	.loc 1 8485 7 is_stmt 1
	bx	lr
.L157:
	.loc 1 8490 7
	.loc 1 8490 13 is_stmt 0
	ldr	r2, [r0]
	.loc 1 8490 36
	ldr	r3, [r2, #900]
	.loc 1 8490 41
	orr	r3, r3, #2
	str	r3, [r2, #900]
	.loc 1 8491 7 is_stmt 1
	bx	lr
.L156:
	.loc 1 8496 7
	.loc 1 8496 13 is_stmt 0
	ldr	r2, [r0]
	.loc 1 8496 36
	ldr	r3, [r2, #900]
	.loc 1 8496 41
	orr	r3, r3, #4
	str	r3, [r2, #900]
	.loc 1 8497 7 is_stmt 1
	bx	lr
.L155:
	.loc 1 8502 7
	.loc 1 8502 13 is_stmt 0
	ldr	r2, [r0]
	.loc 1 8502 36
	ldr	r3, [r2, #900]
	.loc 1 8502 41
	orr	r3, r3, #8
	str	r3, [r2, #900]
	.loc 1 8503 7 is_stmt 1
	bx	lr
.L154:
	.loc 1 8508 7
	.loc 1 8508 13 is_stmt 0
	ldr	r2, [r0]
	.loc 1 8508 36
	ldr	r3, [r2, #900]
	.loc 1 8508 41
	orr	r3, r3, #16
	str	r3, [r2, #900]
	.loc 1 8509 7 is_stmt 1
	bx	lr
.L153:
	.loc 1 8514 7
	.loc 1 8514 13 is_stmt 0
	ldr	r2, [r0]
	.loc 1 8514 36
	ldr	r3, [r2, #900]
	.loc 1 8514 41
	orr	r3, r3, #32
	str	r3, [r2, #900]
	.loc 1 8515 7 is_stmt 1
.L149:
	.loc 1 8521 1 is_stmt 0
	bx	lr
	.cfi_endproc
.LFE449:
	.size	HRTIM_ForceRegistersUpdate, .-HRTIM_ForceRegistersUpdate
	.section	.text.HAL_HRTIM_MspInit,"ax",%progbits
	.align	1
	.weak	HAL_HRTIM_MspInit
	.syntax unified
	.thumb
	.thumb_func
	.type	HAL_HRTIM_MspInit, %function
HAL_HRTIM_MspInit:
.LFB337:
	.loc 1 700 1 is_stmt 1
	.cfi_startproc
	@ args = 0, pretend = 0, frame = 0
	@ frame_needed = 0, uses_anonymous_args = 0
	@ link register save eliminated.
.LVL341:
	.loc 1 702 3
	.loc 1 707 1 is_stmt 0
	bx	lr
	.cfi_endproc
.LFE337:
	.size	HAL_HRTIM_MspInit, .-HAL_HRTIM_MspInit
	.section	.text.HAL_HRTIM_Init,"ax",%progbits
	.align	1
	.global	HAL_HRTIM_Init
	.syntax unified
	.thumb
	.thumb_func
	.type	HAL_HRTIM_Init, %function
HAL_HRTIM_Init:
.LFB335:
	.loc 1 522 1 is_stmt 1
	.cfi_startproc
	@ args = 0, pretend = 0, frame = 8
	@ frame_needed = 0, uses_anonymous_args = 0
.LVL342:
	.loc 1 523 3
	.loc 1 524 3
	.loc 1 527 3
	.loc 1 527 5 is_stmt 0
	cmp	r0, #0
	beq	.L167
	.loc 1 522 1
	push	{r4, lr}
	.cfi_def_cfa_offset 8
	.cfi_offset 4, -8
	.cfi_offset 14, -4
	sub	sp, sp, #8
	.cfi_def_cfa_offset 16
	mov	r4, r0
	.loc 1 533 3 is_stmt 1
	.loc 1 534 3
	.loc 1 573 3
	.loc 1 573 17 is_stmt 0
	movs	r3, #2
	strb	r3, [r0, #193]
	.loc 1 576 3 is_stmt 1
	.loc 1 576 22 is_stmt 0
	movs	r3, #0
	str	r3, [r0, #196]
	.loc 1 577 3 is_stmt 1
	.loc 1 577 22 is_stmt 0
	str	r3, [r0, #200]
	.loc 1 578 3 is_stmt 1
	.loc 1 578 22 is_stmt 0
	str	r3, [r0, #204]
	.loc 1 579 3 is_stmt 1
	.loc 1 579 22 is_stmt 0
	str	r3, [r0, #208]
	.loc 1 580 3 is_stmt 1
	.loc 1 580 22 is_stmt 0
	str	r3, [r0, #212]
	.loc 1 581 3 is_stmt 1
	.loc 1 581 22 is_stmt 0
	str	r3, [r0, #216]
	.loc 1 584 3 is_stmt 1
	.loc 1 584 20 is_stmt 0
	ldr	r3, [r0, #8]
	.loc 1 584 6
	tst	r3, #1
	beq	.L162
	.loc 1 587 5 is_stmt 1
	.loc 1 588 5
	.loc 1 593 5
	.loc 1 593 15 is_stmt 0
	ldr	r2, [r0]
	.loc 1 593 8
	ldr	r3, .L173
	cmp	r2, r3
	beq	.L172
.L163:
	.loc 1 596 10 is_stmt 1 discriminator 1
	.loc 1 599 5 discriminator 1
	.loc 1 599 23 is_stmt 0 discriminator 1
	ldr	r1, [r4]
	.loc 1 599 15 discriminator 1
	ldr	r2, [r1]
.LVL343:
	.loc 1 602 5 is_stmt 1 discriminator 1
	.loc 1 602 15 is_stmt 0 discriminator 1
	bic	r2, r2, #49152
.LVL344:
	.loc 1 603 5 is_stmt 1 discriminator 1
	.loc 1 603 31 is_stmt 0 discriminator 1
	ldr	r3, [r4, #16]
	.loc 1 603 49 discriminator 1
	and	r3, r3, #49152
	.loc 1 603 15 discriminator 1
	orrs	r3, r3, r2
.LVL345:
	.loc 1 606 5 is_stmt 1 discriminator 1
	.loc 1 606 15 is_stmt 0 discriminator 1
	bic	r3, r3, #12288
.LVL346:
	.loc 1 607 5 is_stmt 1 discriminator 1
	.loc 1 607 31 is_stmt 0 discriminator 1
	ldr	r2, [r4, #20]
	.loc 1 607 51 discriminator 1
	and	r2, r2, #12288
	.loc 1 607 15 discriminator 1
	orrs	r2, r2, r3
.LVL347:
	.loc 1 610 5 is_stmt 1 discriminator 1
	.loc 1 610 39 is_stmt 0 discriminator 1
	str	r2, [r1]
.LVL348:
.L162:
	.loc 1 617 3 is_stmt 1
	mov	r0, r4
.LVL349:
	bl	HAL_HRTIM_MspInit
.LVL350:
	.loc 1 621 3
	.loc 1 621 20 is_stmt 0
	ldr	r3, [r4, #8]
	.loc 1 621 6
	tst	r3, #2
	beq	.L164
	.loc 1 624 5 is_stmt 1
	.loc 1 626 5
	.loc 1 626 23 is_stmt 0
	ldr	r1, [r4]
	.loc 1 626 15
	ldr	r2, [r1]
.LVL351:
	.loc 1 629 5 is_stmt 1
	.loc 1 629 15 is_stmt 0
	bic	r2, r2, #768
.LVL352:
	.loc 1 630 5 is_stmt 1
	.loc 1 630 31 is_stmt 0
	ldr	r3, [r4, #12]
	.loc 1 630 48
	and	r3, r3, #768
	.loc 1 630 15
	orrs	r3, r3, r2
.LVL353:
	.loc 1 633 5 is_stmt 1
	.loc 1 633 39 is_stmt 0
	str	r3, [r1]
.LVL354:
.L164:
	.loc 1 637 3 is_stmt 1
	.loc 1 637 17 is_stmt 0
	movs	r3, #1
	strb	r3, [r4, #193]
	.loc 1 640 3 is_stmt 1
	.loc 1 640 7
	.loc 1 640 22 is_stmt 0
	movs	r3, #0
	strb	r3, [r4, #192]
	.loc 1 640 5 is_stmt 1
	.loc 1 643 3
.LVL355:
	b	.L165
.LVL356:
.L172:
	.loc 1 596 7
.LBB2:
	.loc 1 596 12
	.loc 1 596 38
	.loc 1 596 102 is_stmt 0
	ldr	r3, .L173+4
	ldr	r2, [r3, #240]
	.loc 1 596 113
	orr	r2, r2, #536870912
	str	r2, [r3, #240]
	.loc 1 596 137 is_stmt 1
	.loc 1 596 210 is_stmt 0
	ldr	r3, [r3, #240]
	.loc 1 596 221
	and	r3, r3, #536870912
	.loc 1 596 144
	str	r3, [sp, #4]
	.loc 1 596 244 is_stmt 1
	.loc 1 596 245 is_stmt 0
	ldr	r3, [sp, #4]
	b	.L163
.LVL357:
.L166:
.LBE2:
	.loc 1 647 5 is_stmt 1
	.loc 1 647 51 is_stmt 0
	rsb	r2, r3, r3, lsl #3
	add	r2, r4, r2, lsl #2
	movs	r1, #0
	str	r1, [r2, #24]
	.loc 1 648 5 is_stmt 1
	.loc 1 648 51 is_stmt 0
	str	r1, [r2, #28]
	.loc 1 649 5 is_stmt 1
	.loc 1 649 53 is_stmt 0
	str	r1, [r2, #32]
	.loc 1 650 5 is_stmt 1
	.loc 1 650 47 is_stmt 0
	str	r1, [r2, #36]
	.loc 1 651 5 is_stmt 1
	.loc 1 651 49 is_stmt 0
	str	r1, [r2, #40]
	.loc 1 652 5 is_stmt 1
	.loc 1 652 43 is_stmt 0
	rsb	r2, r3, r3, lsl #3
	add	r2, r4, r2, lsl #2
	str	r1, [r2, #48]
	.loc 1 645 17 is_stmt 1
	adds	r3, r3, #1
.LVL358:
	uxtb	r3, r3
.LVL359:
.L165:
	.loc 1 644 18
	cmp	r3, #5
	bls	.L166
	.loc 1 655 10 is_stmt 0
	movs	r0, #0
	.loc 1 656 1
	add	sp, sp, #8
	.cfi_def_cfa_offset 8
	@ sp needed
	pop	{r4, pc}
.LVL360:
.L167:
	.cfi_def_cfa_offset 0
	.cfi_restore 4
	.cfi_restore 14
	.loc 1 529 12
	movs	r0, #1
.LVL361:
	.loc 1 656 1
	bx	lr
.L174:
	.align	2
.L173:
	.word	1073837056
	.word	1476543488
	.cfi_endproc
.LFE335:
	.size	HAL_HRTIM_Init, .-HAL_HRTIM_Init
	.section	.text.HAL_HRTIM_MspDeInit,"ax",%progbits
	.align	1
	.weak	HAL_HRTIM_MspDeInit
	.syntax unified
	.thumb
	.thumb_func
	.type	HAL_HRTIM_MspDeInit, %function
HAL_HRTIM_MspDeInit:
.LFB338:
	.loc 1 715 1 is_stmt 1
	.cfi_startproc
	@ args = 0, pretend = 0, frame = 0
	@ frame_needed = 0, uses_anonymous_args = 0
	@ link register save eliminated.
.LVL362:
	.loc 1 717 3
	.loc 1 722 1 is_stmt 0
	bx	lr
	.cfi_endproc
.LFE338:
	.size	HAL_HRTIM_MspDeInit, .-HAL_HRTIM_MspDeInit
	.section	.text.HAL_HRTIM_DeInit,"ax",%progbits
	.align	1
	.global	HAL_HRTIM_DeInit
	.syntax unified
	.thumb
	.thumb_func
	.type	HAL_HRTIM_DeInit, %function
HAL_HRTIM_DeInit:
.LFB336:
	.loc 1 664 1 is_stmt 1
	.cfi_startproc
	@ args = 0, pretend = 0, frame = 0
	@ frame_needed = 0, uses_anonymous_args = 0
.LVL363:
	.loc 1 666 3
	.loc 1 666 5 is_stmt 0
	cbz	r0, .L178
	.loc 1 664 1
	push	{r4, lr}
	.cfi_def_cfa_offset 8
	.cfi_offset 4, -8
	.cfi_offset 14, -4
	mov	r4, r0
	.loc 1 672 3 is_stmt 1
	.loc 1 675 3
	.loc 1 675 17 is_stmt 0
	movs	r3, #2
	strb	r3, [r0, #193]
	.loc 1 686 3 is_stmt 1
	bl	HAL_HRTIM_MspDeInit
.LVL364:
	.loc 1 689 3
	.loc 1 689 17 is_stmt 0
	movs	r3, #1
	strb	r3, [r4, #193]
	.loc 1 691 3 is_stmt 1
	.loc 1 691 10 is_stmt 0
	movs	r0, #0
	.loc 1 692 1
	pop	{r4, pc}
.LVL365:
.L178:
	.cfi_def_cfa_offset 0
	.cfi_restore 4
	.cfi_restore 14
	.loc 1 668 12
	movs	r0, #1
.LVL366:
	.loc 1 692 1
	bx	lr
	.cfi_endproc
.LFE336:
	.size	HAL_HRTIM_DeInit, .-HAL_HRTIM_DeInit
	.section	.text.HAL_HRTIM_TimeBaseConfig,"ax",%progbits
	.align	1
	.global	HAL_HRTIM_TimeBaseConfig
	.syntax unified
	.thumb
	.thumb_func
	.type	HAL_HRTIM_TimeBaseConfig, %function
HAL_HRTIM_TimeBaseConfig:
.LFB339:
	.loc 1 747 1 is_stmt 1
	.cfi_startproc
	@ args = 0, pretend = 0, frame = 0
	@ frame_needed = 0, uses_anonymous_args = 0
.LVL367:
	push	{r4, lr}
	.cfi_def_cfa_offset 8
	.cfi_offset 4, -8
	.cfi_offset 14, -4
	mov	r4, r0
	.loc 1 749 3
	.loc 1 750 3
	.loc 1 751 3
	.loc 1 753 3
	.loc 1 753 12 is_stmt 0
	ldrb	r0, [r0, #193]	@ zero_extendqisi2
.LVL368:
	uxtb	r0, r0
	.loc 1 753 5
	cmp	r0, #2
	beq	.L184
	.loc 1 759 3 is_stmt 1
	.loc 1 759 17 is_stmt 0
	movs	r3, #2
	strb	r3, [r4, #193]
	.loc 1 761 3 is_stmt 1
	.loc 1 761 6 is_stmt 0
	cmp	r1, #5
	beq	.L188
	.loc 1 769 5 is_stmt 1
	mov	r0, r4
	bl	HRTIM_TimingUnitBase_Config
.LVL369:
.L186:
	.loc 1 773 3
	.loc 1 773 17 is_stmt 0
	movs	r3, #1
	strb	r3, [r4, #193]
	.loc 1 775 3 is_stmt 1
	.loc 1 775 10 is_stmt 0
	movs	r0, #0
.L184:
	.loc 1 776 1
	pop	{r4, pc}
.LVL370:
.L188:
	.loc 1 764 5 is_stmt 1
	mov	r1, r2
.LVL371:
	mov	r0, r4
	bl	HRTIM_MasterBase_Config
.LVL372:
	b	.L186
	.cfi_endproc
.LFE339:
	.size	HAL_HRTIM_TimeBaseConfig, .-HAL_HRTIM_TimeBaseConfig
	.section	.text.HAL_HRTIM_SimpleBaseStart,"ax",%progbits
	.align	1
	.global	HAL_HRTIM_SimpleBaseStart
	.syntax unified
	.thumb
	.thumb_func
	.type	HAL_HRTIM_SimpleBaseStart, %function
HAL_HRTIM_SimpleBaseStart:
.LFB340:
	.loc 1 817 1
	.cfi_startproc
	@ args = 0, pretend = 0, frame = 0
	@ frame_needed = 0, uses_anonymous_args = 0
	@ link register save eliminated.
.LVL373:
	.loc 1 819 3
	.loc 1 822 3
	.loc 1 822 7
	.loc 1 822 18 is_stmt 0
	ldrb	r3, [r0, #192]	@ zero_extendqisi2
	.loc 1 822 9
	cmp	r3, #1
	beq	.L191
	.loc 1 817 1 discriminator 2
	push	{r4, r5}
	.cfi_def_cfa_offset 8
	.cfi_offset 4, -8
	.cfi_offset 5, -4
	.loc 1 822 68 is_stmt 1 discriminator 2
	.loc 1 822 83 is_stmt 0 discriminator 2
	movs	r2, #1
	strb	r2, [r0, #192]
	.loc 1 822 5 is_stmt 1 discriminator 2
	.loc 1 824 3 discriminator 2
	.loc 1 824 17 is_stmt 0 discriminator 2
	movs	r3, #2
	strb	r3, [r0, #193]
	.loc 1 827 3 is_stmt 1 discriminator 2
	.loc 1 827 12 is_stmt 0 discriminator 2
	ldr	r4, [r0]
	.loc 1 827 35 discriminator 2
	ldr	r3, [r4]
	.loc 1 827 61 discriminator 2
	ldr	r5, .L196
	ldr	r1, [r5, r1, lsl #2]
.LVL374:
	.loc 1 827 40 discriminator 2
	orrs	r3, r3, r1
	str	r3, [r4]
	.loc 1 829 3 is_stmt 1 discriminator 2
	.loc 1 829 17 is_stmt 0 discriminator 2
	strb	r2, [r0, #193]
	.loc 1 832 3 is_stmt 1 discriminator 2
	.loc 1 832 7 discriminator 2
	.loc 1 832 22 is_stmt 0 discriminator 2
	movs	r3, #0
	strb	r3, [r0, #192]
	.loc 1 832 5 is_stmt 1 discriminator 2
	.loc 1 834 3 discriminator 2
	.loc 1 834 10 is_stmt 0 discriminator 2
	mov	r0, r3
.LVL375:
	.loc 1 835 1 discriminator 2
	pop	{r4, r5}
	.cfi_restore 5
	.cfi_restore 4
	.cfi_def_cfa_offset 0
	bx	lr
.LVL376:
.L191:
	.loc 1 822 49
	movs	r0, #2
.LVL377:
	.loc 1 835 1
	bx	lr
.L197:
	.align	2
.L196:
	.word	TimerIdxToTimerId
	.cfi_endproc
.LFE340:
	.size	HAL_HRTIM_SimpleBaseStart, .-HAL_HRTIM_SimpleBaseStart
	.section	.text.HAL_HRTIM_SimpleBaseStop,"ax",%progbits
	.align	1
	.global	HAL_HRTIM_SimpleBaseStop
	.syntax unified
	.thumb
	.thumb_func
	.type	HAL_HRTIM_SimpleBaseStop, %function
HAL_HRTIM_SimpleBaseStop:
.LFB341:
	.loc 1 852 1 is_stmt 1
	.cfi_startproc
	@ args = 0, pretend = 0, frame = 0
	@ frame_needed = 0, uses_anonymous_args = 0
	@ link register save eliminated.
.LVL378:
	mov	r3, r0
	.loc 1 854 3
	.loc 1 857 3
	.loc 1 857 7
	.loc 1 857 18 is_stmt 0
	ldrb	r2, [r0, #192]	@ zero_extendqisi2
	.loc 1 857 9
	cmp	r2, #1
	beq	.L206
	.loc 1 857 68 is_stmt 1 discriminator 2
	.loc 1 857 83 is_stmt 0 discriminator 2
	movs	r2, #1
	strb	r2, [r0, #192]
	.loc 1 857 5 is_stmt 1 discriminator 2
	.loc 1 859 3 discriminator 2
	.loc 1 859 17 is_stmt 0 discriminator 2
	movs	r2, #2
	strb	r2, [r0, #193]
	.loc 1 862 3 is_stmt 1 discriminator 2
	.loc 1 862 8 discriminator 2
	.loc 1 862 31 is_stmt 0 discriminator 2
	ldr	r2, .L207
	ldr	r2, [r2, r1, lsl #2]
	.loc 1 862 11 discriminator 2
	tst	r2, #65536
	beq	.L200
	.loc 1 862 90 is_stmt 1 discriminator 1
	.loc 1 862 99 is_stmt 0 discriminator 1
	ldr	r0, [r0]
.LVL379:
	.loc 1 862 122 discriminator 1
	ldr	r2, [r0]
	.loc 1 862 127 discriminator 1
	bic	r2, r2, #65536
	str	r2, [r0]
.L200:
	.loc 1 862 154 is_stmt 1 discriminator 3
	.loc 1 862 177 is_stmt 0 discriminator 3
	ldr	r2, .L207
	ldr	r2, [r2, r1, lsl #2]
	.loc 1 862 157 discriminator 3
	tst	r2, #131072
	beq	.L201
	.loc 1 862 236 is_stmt 1 discriminator 4
	.loc 1 862 249 is_stmt 0 discriminator 4
	ldr	r2, [r3]
	.loc 1 862 272 discriminator 4
	ldr	r0, [r2, #916]
	.loc 1 862 239 discriminator 4
	tst	r0, #3
	bne	.L201
	.loc 1 862 339 is_stmt 1 discriminator 6
	.loc 1 862 371 is_stmt 0 discriminator 6
	ldr	r0, [r2]
	.loc 1 862 376 discriminator 6
	bic	r0, r0, #131072
	str	r0, [r2]
.L201:
	.loc 1 862 405 is_stmt 1 discriminator 8
	.loc 1 862 428 is_stmt 0 discriminator 8
	ldr	r2, .L207
	ldr	r2, [r2, r1, lsl #2]
	.loc 1 862 408 discriminator 8
	tst	r2, #262144
	beq	.L202
	.loc 1 862 487 is_stmt 1 discriminator 9
	.loc 1 862 500 is_stmt 0 discriminator 9
	ldr	r2, [r3]
	.loc 1 862 523 discriminator 9
	ldr	r0, [r2, #916]
	.loc 1 862 490 discriminator 9
	tst	r0, #12
	bne	.L202
	.loc 1 862 590 is_stmt 1 discriminator 11
	.loc 1 862 622 is_stmt 0 discriminator 11
	ldr	r0, [r2]
	.loc 1 862 627 discriminator 11
	bic	r0, r0, #262144
	str	r0, [r2]
.L202:
	.loc 1 862 656 is_stmt 1 discriminator 13
	.loc 1 862 679 is_stmt 0 discriminator 13
	ldr	r2, .L207
	ldr	r2, [r2, r1, lsl #2]
	.loc 1 862 659 discriminator 13
	tst	r2, #524288
	beq	.L203
	.loc 1 862 738 is_stmt 1 discriminator 14
	.loc 1 862 751 is_stmt 0 discriminator 14
	ldr	r2, [r3]
	.loc 1 862 774 discriminator 14
	ldr	r0, [r2, #916]
	.loc 1 862 741 discriminator 14
	tst	r0, #48
	bne	.L203
	.loc 1 862 841 is_stmt 1 discriminator 16
	.loc 1 862 873 is_stmt 0 discriminator 16
	ldr	r0, [r2]
	.loc 1 862 878 discriminator 16
	bic	r0, r0, #524288
	str	r0, [r2]
.L203:
	.loc 1 862 907 is_stmt 1 discriminator 18
	.loc 1 862 930 is_stmt 0 discriminator 18
	ldr	r2, .L207
	ldr	r2, [r2, r1, lsl #2]
	.loc 1 862 910 discriminator 18
	tst	r2, #1048576
	beq	.L204
	.loc 1 862 989 is_stmt 1 discriminator 19
	.loc 1 862 1002 is_stmt 0 discriminator 19
	ldr	r2, [r3]
	.loc 1 862 1025 discriminator 19
	ldr	r0, [r2, #916]
	.loc 1 862 992 discriminator 19
	tst	r0, #192
	bne	.L204
	.loc 1 862 1092 is_stmt 1 discriminator 21
	.loc 1 862 1124 is_stmt 0 discriminator 21
	ldr	r0, [r2]
	.loc 1 862 1129 discriminator 21
	bic	r0, r0, #1048576
	str	r0, [r2]
.L204:
	.loc 1 862 1158 is_stmt 1 discriminator 23
	.loc 1 862 1181 is_stmt 0 discriminator 23
	ldr	r2, .L207
	ldr	r2, [r2, r1, lsl #2]
	.loc 1 862 1161 discriminator 23
	tst	r2, #2097152
	beq	.L205
	.loc 1 862 1240 is_stmt 1 discriminator 24
	.loc 1 862 1253 is_stmt 0 discriminator 24
	ldr	r2, [r3]
	.loc 1 862 1276 discriminator 24
	ldr	r1, [r2, #916]
.LVL380:
	.loc 1 862 1243 discriminator 24
	tst	r1, #768
	bne	.L205
	.loc 1 862 1343 is_stmt 1 discriminator 26
	.loc 1 862 1375 is_stmt 0 discriminator 26
	ldr	r1, [r2]
	.loc 1 862 1380 discriminator 26
	bic	r1, r1, #2097152
	str	r1, [r2]
.L205:
	.loc 1 862 6 is_stmt 1 discriminator 28
	.loc 1 864 3 discriminator 28
	.loc 1 864 17 is_stmt 0 discriminator 28
	movs	r2, #1
	strb	r2, [r3, #193]
	.loc 1 867 3 is_stmt 1 discriminator 28
	.loc 1 867 7 discriminator 28
	.loc 1 867 22 is_stmt 0 discriminator 28
	movs	r0, #0
	strb	r0, [r3, #192]
	.loc 1 867 5 is_stmt 1 discriminator 28
	.loc 1 869 3 discriminator 28
	.loc 1 869 10 is_stmt 0 discriminator 28
	bx	lr
.LVL381:
.L206:
	.loc 1 857 49
	movs	r0, #2
.LVL382:
	.loc 1 870 1
	bx	lr
.L208:
	.align	2
.L207:
	.word	TimerIdxToTimerId
	.cfi_endproc
.LFE341:
	.size	HAL_HRTIM_SimpleBaseStop, .-HAL_HRTIM_SimpleBaseStop
	.section	.text.HAL_HRTIM_SimpleBaseStart_IT,"ax",%progbits
	.align	1
	.global	HAL_HRTIM_SimpleBaseStart_IT
	.syntax unified
	.thumb
	.thumb_func
	.type	HAL_HRTIM_SimpleBaseStart_IT, %function
HAL_HRTIM_SimpleBaseStart_IT:
.LFB342:
	.loc 1 888 1 is_stmt 1
	.cfi_startproc
	@ args = 0, pretend = 0, frame = 0
	@ frame_needed = 0, uses_anonymous_args = 0
	@ link register save eliminated.
.LVL383:
	.loc 1 890 3
	.loc 1 893 3
	.loc 1 893 7
	.loc 1 893 18 is_stmt 0
	ldrb	r2, [r0, #192]	@ zero_extendqisi2
	.loc 1 893 9
	cmp	r2, #1
	beq	.L213
	.loc 1 888 1 discriminator 2
	push	{r4}
	.cfi_def_cfa_offset 4
	.cfi_offset 4, -4
	mov	r3, r0
	.loc 1 893 68 is_stmt 1 discriminator 2
	.loc 1 893 83 is_stmt 0 discriminator 2
	movs	r2, #1
	strb	r2, [r0, #192]
	.loc 1 893 5 is_stmt 1 discriminator 2
	.loc 1 895 3 discriminator 2
	.loc 1 895 17 is_stmt 0 discriminator 2
	movs	r2, #2
	strb	r2, [r0, #193]
	.loc 1 898 3 is_stmt 1 discriminator 2
	.loc 1 898 6 is_stmt 0 discriminator 2
	cmp	r1, #5
	beq	.L218
	.loc 1 904 5 is_stmt 1
	.loc 1 904 14 is_stmt 0
	ldr	r2, [r0]
	.loc 1 904 49
	add	r2, r2, r1, lsl #7
	ldr	r0, [r2, #140]
.LVL384:
	.loc 1 904 59
	orr	r0, r0, #16
	str	r0, [r2, #140]
.L212:
	.loc 1 908 3 is_stmt 1
	.loc 1 908 12 is_stmt 0
	ldr	r0, [r3]
	.loc 1 908 35
	ldr	r2, [r0]
	.loc 1 908 61
	ldr	r4, .L219
	ldr	r1, [r4, r1, lsl #2]
.LVL385:
	.loc 1 908 40
	orrs	r2, r2, r1
	str	r2, [r0]
	.loc 1 910 3 is_stmt 1
	.loc 1 910 17 is_stmt 0
	movs	r2, #1
	strb	r2, [r3, #193]
	.loc 1 913 3 is_stmt 1
	.loc 1 913 7
	.loc 1 913 22 is_stmt 0
	movs	r0, #0
	strb	r0, [r3, #192]
	.loc 1 913 5 is_stmt 1
	.loc 1 915 3
	.loc 1 916 1 is_stmt 0
	ldr	r4, [sp], #4
	.cfi_remember_state
	.cfi_restore 4
	.cfi_def_cfa_offset 0
	bx	lr
.LVL386:
.L218:
	.cfi_restore_state
	.loc 1 900 5 is_stmt 1
	.loc 1 900 14 is_stmt 0
	ldr	r0, [r0]
.LVL387:
	.loc 1 900 37
	ldr	r2, [r0, #12]
	.loc 1 900 44
	orr	r2, r2, #16
	str	r2, [r0, #12]
	b	.L212
.LVL388:
.L213:
	.cfi_def_cfa_offset 0
	.cfi_restore 4
	.loc 1 893 49
	movs	r0, #2
.LVL389:
	.loc 1 916 1
	bx	lr
.L220:
	.align	2
.L219:
	.word	TimerIdxToTimerId
	.cfi_endproc
.LFE342:
	.size	HAL_HRTIM_SimpleBaseStart_IT, .-HAL_HRTIM_SimpleBaseStart_IT
	.section	.text.HAL_HRTIM_SimpleBaseStop_IT,"ax",%progbits
	.align	1
	.global	HAL_HRTIM_SimpleBaseStop_IT
	.syntax unified
	.thumb
	.thumb_func
	.type	HAL_HRTIM_SimpleBaseStop_IT, %function
HAL_HRTIM_SimpleBaseStop_IT:
.LFB343:
	.loc 1 934 1 is_stmt 1
	.cfi_startproc
	@ args = 0, pretend = 0, frame = 0
	@ frame_needed = 0, uses_anonymous_args = 0
	@ link register save eliminated.
.LVL390:
	mov	r3, r0
	.loc 1 936 3
	.loc 1 939 3
	.loc 1 939 7
	.loc 1 939 18 is_stmt 0
	ldrb	r2, [r0, #192]	@ zero_extendqisi2
	.loc 1 939 9
	cmp	r2, #1
	beq	.L231
	.loc 1 939 68 is_stmt 1 discriminator 2
	.loc 1 939 83 is_stmt 0 discriminator 2
	movs	r2, #1
	strb	r2, [r0, #192]
	.loc 1 939 5 is_stmt 1 discriminator 2
	.loc 1 941 3 discriminator 2
	.loc 1 941 17 is_stmt 0 discriminator 2
	movs	r2, #2
	strb	r2, [r0, #193]
	.loc 1 944 3 is_stmt 1 discriminator 2
	.loc 1 944 6 is_stmt 0 discriminator 2
	cmp	r1, #5
	beq	.L232
	.loc 1 950 5 is_stmt 1
	.loc 1 950 14 is_stmt 0
	ldr	r2, [r0]
	.loc 1 950 49
	add	r2, r2, r1, lsl #7
	ldr	r0, [r2, #140]
.LVL391:
	.loc 1 950 59
	bic	r0, r0, #16
	str	r0, [r2, #140]
.L224:
	.loc 1 954 3 is_stmt 1
	.loc 1 954 8
	.loc 1 954 31 is_stmt 0
	ldr	r2, .L233
	ldr	r2, [r2, r1, lsl #2]
	.loc 1 954 11
	tst	r2, #65536
	beq	.L225
	.loc 1 954 90 is_stmt 1 discriminator 1
	.loc 1 954 99 is_stmt 0 discriminator 1
	ldr	r0, [r3]
	.loc 1 954 122 discriminator 1
	ldr	r2, [r0]
	.loc 1 954 127 discriminator 1
	bic	r2, r2, #65536
	str	r2, [r0]
.L225:
	.loc 1 954 154 is_stmt 1 discriminator 3
	.loc 1 954 177 is_stmt 0 discriminator 3
	ldr	r2, .L233
	ldr	r2, [r2, r1, lsl #2]
	.loc 1 954 157 discriminator 3
	tst	r2, #131072
	beq	.L226
	.loc 1 954 236 is_stmt 1 discriminator 4
	.loc 1 954 249 is_stmt 0 discriminator 4
	ldr	r2, [r3]
	.loc 1 954 272 discriminator 4
	ldr	r0, [r2, #916]
	.loc 1 954 239 discriminator 4
	tst	r0, #3
	bne	.L226
	.loc 1 954 339 is_stmt 1 discriminator 6
	.loc 1 954 371 is_stmt 0 discriminator 6
	ldr	r0, [r2]
	.loc 1 954 376 discriminator 6
	bic	r0, r0, #131072
	str	r0, [r2]
.L226:
	.loc 1 954 405 is_stmt 1 discriminator 8
	.loc 1 954 428 is_stmt 0 discriminator 8
	ldr	r2, .L233
	ldr	r2, [r2, r1, lsl #2]
	.loc 1 954 408 discriminator 8
	tst	r2, #262144
	beq	.L227
	.loc 1 954 487 is_stmt 1 discriminator 9
	.loc 1 954 500 is_stmt 0 discriminator 9
	ldr	r2, [r3]
	.loc 1 954 523 discriminator 9
	ldr	r0, [r2, #916]
	.loc 1 954 490 discriminator 9
	tst	r0, #12
	bne	.L227
	.loc 1 954 590 is_stmt 1 discriminator 11
	.loc 1 954 622 is_stmt 0 discriminator 11
	ldr	r0, [r2]
	.loc 1 954 627 discriminator 11
	bic	r0, r0, #262144
	str	r0, [r2]
.L227:
	.loc 1 954 656 is_stmt 1 discriminator 13
	.loc 1 954 679 is_stmt 0 discriminator 13
	ldr	r2, .L233
	ldr	r2, [r2, r1, lsl #2]
	.loc 1 954 659 discriminator 13
	tst	r2, #524288
	beq	.L228
	.loc 1 954 738 is_stmt 1 discriminator 14
	.loc 1 954 751 is_stmt 0 discriminator 14
	ldr	r2, [r3]
	.loc 1 954 774 discriminator 14
	ldr	r0, [r2, #916]
	.loc 1 954 741 discriminator 14
	tst	r0, #48
	bne	.L228
	.loc 1 954 841 is_stmt 1 discriminator 16
	.loc 1 954 873 is_stmt 0 discriminator 16
	ldr	r0, [r2]
	.loc 1 954 878 discriminator 16
	bic	r0, r0, #524288
	str	r0, [r2]
.L228:
	.loc 1 954 907 is_stmt 1 discriminator 18
	.loc 1 954 930 is_stmt 0 discriminator 18
	ldr	r2, .L233
	ldr	r2, [r2, r1, lsl #2]
	.loc 1 954 910 discriminator 18
	tst	r2, #1048576
	beq	.L229
	.loc 1 954 989 is_stmt 1 discriminator 19
	.loc 1 954 1002 is_stmt 0 discriminator 19
	ldr	r2, [r3]
	.loc 1 954 1025 discriminator 19
	ldr	r0, [r2, #916]
	.loc 1 954 992 discriminator 19
	tst	r0, #192
	bne	.L229
	.loc 1 954 1092 is_stmt 1 discriminator 21
	.loc 1 954 1124 is_stmt 0 discriminator 21
	ldr	r0, [r2]
	.loc 1 954 1129 discriminator 21
	bic	r0, r0, #1048576
	str	r0, [r2]
.L229:
	.loc 1 954 1158 is_stmt 1 discriminator 23
	.loc 1 954 1181 is_stmt 0 discriminator 23
	ldr	r2, .L233
	ldr	r2, [r2, r1, lsl #2]
	.loc 1 954 1161 discriminator 23
	tst	r2, #2097152
	beq	.L230
	.loc 1 954 1240 is_stmt 1 discriminator 24
	.loc 1 954 1253 is_stmt 0 discriminator 24
	ldr	r2, [r3]
	.loc 1 954 1276 discriminator 24
	ldr	r1, [r2, #916]
.LVL392:
	.loc 1 954 1243 discriminator 24
	tst	r1, #768
	bne	.L230
	.loc 1 954 1343 is_stmt 1 discriminator 26
	.loc 1 954 1375 is_stmt 0 discriminator 26
	ldr	r1, [r2]
	.loc 1 954 1380 discriminator 26
	bic	r1, r1, #2097152
	str	r1, [r2]
.L230:
	.loc 1 954 6 is_stmt 1 discriminator 28
	.loc 1 956 3 discriminator 28
	.loc 1 956 17 is_stmt 0 discriminator 28
	movs	r2, #1
	strb	r2, [r3, #193]
	.loc 1 959 3 is_stmt 1 discriminator 28
	.loc 1 959 7 discriminator 28
	.loc 1 959 22 is_stmt 0 discriminator 28
	movs	r0, #0
	strb	r0, [r3, #192]
	.loc 1 959 5 is_stmt 1 discriminator 28
	.loc 1 961 3 discriminator 28
	.loc 1 961 10 is_stmt 0 discriminator 28
	bx	lr
.LVL393:
.L232:
	.loc 1 946 5 is_stmt 1
	.loc 1 946 14 is_stmt 0
	ldr	r0, [r0]
.LVL394:
	.loc 1 946 37
	ldr	r2, [r0, #12]
	.loc 1 946 44
	bic	r2, r2, #16
	str	r2, [r0, #12]
	b	.L224
.LVL395:
.L231:
	.loc 1 939 49
	movs	r0, #2
.LVL396:
	.loc 1 962 1
	bx	lr
.L234:
	.align	2
.L233:
	.word	TimerIdxToTimerId
	.cfi_endproc
.LFE343:
	.size	HAL_HRTIM_SimpleBaseStop_IT, .-HAL_HRTIM_SimpleBaseStop_IT
	.section	.text.HAL_HRTIM_SimpleBaseStart_DMA,"ax",%progbits
	.align	1
	.global	HAL_HRTIM_SimpleBaseStart_DMA
	.syntax unified
	.thumb
	.thumb_func
	.type	HAL_HRTIM_SimpleBaseStart_DMA, %function
HAL_HRTIM_SimpleBaseStart_DMA:
.LFB344:
	.loc 1 986 1 is_stmt 1
	.cfi_startproc
	@ args = 4, pretend = 0, frame = 0
	@ frame_needed = 0, uses_anonymous_args = 0
.LVL397:
	push	{r3, r4, r5, r6, r7, lr}
	.cfi_def_cfa_offset 24
	.cfi_offset 3, -24
	.cfi_offset 4, -20
	.cfi_offset 5, -16
	.cfi_offset 6, -12
	.cfi_offset 7, -8
	.cfi_offset 14, -4
	mov	r4, r0
	.loc 1 987 3
	.loc 1 990 3
	.loc 1 992 3
	.loc 1 992 12 is_stmt 0
	ldrb	ip, [r0, #193]	@ zero_extendqisi2
	uxtb	r0, ip
.LVL398:
	.loc 1 992 5
	cmp	r0, #2
	beq	.L236
	mov	r5, r1
	mov	r7, r2
	mov	r6, r3
	.loc 1 996 3 is_stmt 1
	.loc 1 996 12 is_stmt 0
	ldrb	r0, [r4, #193]	@ zero_extendqisi2
	uxtb	r0, r0
	.loc 1 996 5
	cmp	r0, #1
	beq	.L246
.LVL399:
.L237:
	.loc 1 1009 3 is_stmt 1
	.loc 1 1009 7
	.loc 1 1009 18 is_stmt 0
	ldrb	r3, [r4, #192]	@ zero_extendqisi2
	.loc 1 1009 9
	cmp	r3, #1
	beq	.L244
	.loc 1 1009 68 is_stmt 1 discriminator 2
	.loc 1 1009 83 is_stmt 0 discriminator 2
	movs	r3, #1
	strb	r3, [r4, #192]
	.loc 1 1009 5 is_stmt 1 discriminator 2
	.loc 1 1012 3 discriminator 2
	.loc 1 1012 10 is_stmt 0 discriminator 2
	mov	r1, r5
.LVL400:
	mov	r0, r4
	bl	HRTIM_GetDMAHandleFromTimerIdx
.LVL401:
	.loc 1 1014 3 is_stmt 1 discriminator 2
	.loc 1 1014 6 is_stmt 0 discriminator 2
	mov	ip, r0
	cbz	r0, .L247
	.loc 1 1025 3 is_stmt 1
	.loc 1 1025 6 is_stmt 0
	cmp	r5, #5
	beq	.L248
	.loc 1 1031 5 is_stmt 1
	.loc 1 1031 28 is_stmt 0
	ldr	r3, .L251
	str	r3, [r0, #60]
.L240:
	.loc 1 1035 3 is_stmt 1
	.loc 1 1035 27 is_stmt 0
	ldr	r3, .L251+4
	str	r3, [ip, #76]
	.loc 1 1038 3 is_stmt 1
	.loc 1 1038 7 is_stmt 0
	ldr	r3, [sp, #24]
	mov	r2, r6
	mov	r1, r7
	mov	r0, ip
.LVL402:
	bl	HAL_DMA_Start_IT
.LVL403:
	.loc 1 1038 6
	cbnz	r0, .L249
	.loc 1 1049 3 is_stmt 1
	.loc 1 1049 6 is_stmt 0
	cmp	r5, #5
	beq	.L250
	.loc 1 1055 5 is_stmt 1
	.loc 1 1055 14 is_stmt 0
	ldr	r3, [r4]
	.loc 1 1055 49
	add	r3, r3, r5, lsl #7
	ldr	r2, [r3, #140]
	.loc 1 1055 59
	orr	r2, r2, #1048576
	str	r2, [r3, #140]
.L243:
	.loc 1 1059 3 is_stmt 1
	.loc 1 1059 12 is_stmt 0
	ldr	r2, [r4]
	.loc 1 1059 35
	ldr	r3, [r2]
	.loc 1 1059 61
	ldr	r1, .L251+8
	ldr	r1, [r1, r5, lsl #2]
	.loc 1 1059 40
	orrs	r3, r3, r1
	str	r3, [r2]
	.loc 1 1061 3 is_stmt 1
	.loc 1 1061 17 is_stmt 0
	movs	r3, #1
	strb	r3, [r4, #193]
	.loc 1 1064 3 is_stmt 1
	.loc 1 1064 7
	.loc 1 1064 22 is_stmt 0
	movs	r3, #0
	strb	r3, [r4, #192]
	.loc 1 1064 5 is_stmt 1
	.loc 1 1066 3
.LVL404:
.L236:
	.loc 1 1067 1 is_stmt 0
	pop	{r3, r4, r5, r6, r7, pc}
.LVL405:
.L246:
	.loc 1 998 5 is_stmt 1
	.loc 1 998 7 is_stmt 0
	cmp	r3, #0
	it	ne
	cmpne	r2, #0
	beq	.L236
	.loc 1 998 46 discriminator 1
	ldr	r3, [sp, #24]
.LVL406:
	cmp	r3, #0
	beq	.L236
	.loc 1 1004 7 is_stmt 1
	.loc 1 1004 21 is_stmt 0
	movs	r3, #2
	strb	r3, [r4, #193]
	b	.L237
.LVL407:
.L247:
	.loc 1 1016 4 is_stmt 1
	.loc 1 1016 18 is_stmt 0
	movs	r3, #7
	strb	r3, [r4, #193]
	.loc 1 1019 4 is_stmt 1
	.loc 1 1019 8
	.loc 1 1019 23 is_stmt 0
	movs	r3, #0
	strb	r3, [r4, #192]
	.loc 1 1019 6 is_stmt 1
	.loc 1 1021 4
	.loc 1 1021 11 is_stmt 0
	movs	r0, #1
.LVL408:
	b	.L236
.LVL409:
.L248:
	.loc 1 1027 5 is_stmt 1
	.loc 1 1027 28 is_stmt 0
	ldr	r3, .L251+12
	str	r3, [r0, #60]
	b	.L240
.LVL410:
.L249:
	.loc 1 1040 9 is_stmt 1
	.loc 1 1040 23 is_stmt 0
	movs	r3, #7
	strb	r3, [r4, #193]
	.loc 1 1043 9 is_stmt 1
	.loc 1 1043 13
	.loc 1 1043 28 is_stmt 0
	movs	r3, #0
	strb	r3, [r4, #192]
	.loc 1 1043 11 is_stmt 1
	.loc 1 1045 9
	.loc 1 1045 16 is_stmt 0
	movs	r0, #1
	b	.L236
.L250:
	.loc 1 1051 5 is_stmt 1
	.loc 1 1051 14 is_stmt 0
	ldr	r2, [r4]
	.loc 1 1051 37
	ldr	r3, [r2, #12]
	.loc 1 1051 44
	orr	r3, r3, #1048576
	str	r3, [r2, #12]
	b	.L243
.LVL411:
.L244:
	.loc 1 1009 49
	movs	r0, #2
	b	.L236
.L252:
	.align	2
.L251:
	.word	HRTIM_DMATimerxCplt
	.word	HRTIM_DMAError
	.word	TimerIdxToTimerId
	.word	HRTIM_DMAMasterCplt
	.cfi_endproc
.LFE344:
	.size	HAL_HRTIM_SimpleBaseStart_DMA, .-HAL_HRTIM_SimpleBaseStart_DMA
	.section	.text.HAL_HRTIM_SimpleBaseStop_DMA,"ax",%progbits
	.align	1
	.global	HAL_HRTIM_SimpleBaseStop_DMA
	.syntax unified
	.thumb
	.thumb_func
	.type	HAL_HRTIM_SimpleBaseStop_DMA, %function
HAL_HRTIM_SimpleBaseStop_DMA:
.LFB345:
	.loc 1 1085 1 is_stmt 1
	.cfi_startproc
	@ args = 0, pretend = 0, frame = 0
	@ frame_needed = 0, uses_anonymous_args = 0
.LVL412:
	push	{r3, r4, r5, lr}
	.cfi_def_cfa_offset 16
	.cfi_offset 3, -16
	.cfi_offset 4, -12
	.cfi_offset 5, -8
	.cfi_offset 14, -4
	.loc 1 1086 3
	.loc 1 1089 3
	.loc 1 1092 3
	.loc 1 1092 7
	.loc 1 1092 18 is_stmt 0
	ldrb	r3, [r0, #192]	@ zero_extendqisi2
	.loc 1 1092 9
	cmp	r3, #1
	beq	.L266
	mov	r4, r0
	mov	r5, r1
	.loc 1 1092 68 is_stmt 1 discriminator 2
	.loc 1 1092 83 is_stmt 0 discriminator 2
	movs	r3, #1
	strb	r3, [r0, #192]
	.loc 1 1092 5 is_stmt 1 discriminator 2
	.loc 1 1094 3 discriminator 2
	.loc 1 1094 6 is_stmt 0 discriminator 2
	cmp	r1, #5
	beq	.L269
	.loc 1 1109 5 is_stmt 1
	.loc 1 1109 12 is_stmt 0
	bl	HRTIM_GetDMAHandleFromTimerIdx
.LVL413:
	.loc 1 1111 5 is_stmt 1
	.loc 1 1111 8 is_stmt 0
	cmp	r0, #0
	beq	.L270
	.loc 1 1117 7 is_stmt 1
	.loc 1 1117 21 is_stmt 0
	movs	r2, #1
	strb	r2, [r4, #193]
	.loc 1 1120 7 is_stmt 1
	.loc 1 1120 11 is_stmt 0
	bl	HAL_DMA_Abort
.LVL414:
	.loc 1 1120 10
	cbz	r0, .L259
	.loc 1 1122 10 is_stmt 1
	.loc 1 1122 24 is_stmt 0
	movs	r3, #7
	strb	r3, [r4, #193]
.L259:
	.loc 1 1126 7 is_stmt 1
	.loc 1 1126 16 is_stmt 0
	ldr	r3, [r4]
	.loc 1 1126 51
	add	r3, r3, r5, lsl #7
	ldr	r2, [r3, #140]
	.loc 1 1126 61
	bic	r2, r2, #1048576
	str	r2, [r3, #140]
.LVL415:
.L257:
	.loc 1 1131 3 is_stmt 1
	.loc 1 1131 8
	.loc 1 1131 31 is_stmt 0
	ldr	r3, .L272
	ldr	r3, [r3, r5, lsl #2]
	.loc 1 1131 11
	tst	r3, #65536
	beq	.L260
	.loc 1 1131 90 is_stmt 1 discriminator 1
	.loc 1 1131 99 is_stmt 0 discriminator 1
	ldr	r2, [r4]
	.loc 1 1131 122 discriminator 1
	ldr	r3, [r2]
	.loc 1 1131 127 discriminator 1
	bic	r3, r3, #65536
	str	r3, [r2]
.L260:
	.loc 1 1131 154 is_stmt 1 discriminator 3
	.loc 1 1131 177 is_stmt 0 discriminator 3
	ldr	r3, .L272
	ldr	r3, [r3, r5, lsl #2]
	.loc 1 1131 157 discriminator 3
	tst	r3, #131072
	beq	.L261
	.loc 1 1131 236 is_stmt 1 discriminator 4
	.loc 1 1131 249 is_stmt 0 discriminator 4
	ldr	r3, [r4]
	.loc 1 1131 272 discriminator 4
	ldr	r2, [r3, #916]
	.loc 1 1131 239 discriminator 4
	tst	r2, #3
	bne	.L261
	.loc 1 1131 339 is_stmt 1 discriminator 6
	.loc 1 1131 371 is_stmt 0 discriminator 6
	ldr	r2, [r3]
	.loc 1 1131 376 discriminator 6
	bic	r2, r2, #131072
	str	r2, [r3]
.L261:
	.loc 1 1131 405 is_stmt 1 discriminator 8
	.loc 1 1131 428 is_stmt 0 discriminator 8
	ldr	r3, .L272
	ldr	r3, [r3, r5, lsl #2]
	.loc 1 1131 408 discriminator 8
	tst	r3, #262144
	beq	.L262
	.loc 1 1131 487 is_stmt 1 discriminator 9
	.loc 1 1131 500 is_stmt 0 discriminator 9
	ldr	r3, [r4]
	.loc 1 1131 523 discriminator 9
	ldr	r2, [r3, #916]
	.loc 1 1131 490 discriminator 9
	tst	r2, #12
	bne	.L262
	.loc 1 1131 590 is_stmt 1 discriminator 11
	.loc 1 1131 622 is_stmt 0 discriminator 11
	ldr	r2, [r3]
	.loc 1 1131 627 discriminator 11
	bic	r2, r2, #262144
	str	r2, [r3]
.L262:
	.loc 1 1131 656 is_stmt 1 discriminator 13
	.loc 1 1131 679 is_stmt 0 discriminator 13
	ldr	r3, .L272
	ldr	r3, [r3, r5, lsl #2]
	.loc 1 1131 659 discriminator 13
	tst	r3, #524288
	beq	.L263
	.loc 1 1131 738 is_stmt 1 discriminator 14
	.loc 1 1131 751 is_stmt 0 discriminator 14
	ldr	r3, [r4]
	.loc 1 1131 774 discriminator 14
	ldr	r2, [r3, #916]
	.loc 1 1131 741 discriminator 14
	tst	r2, #48
	bne	.L263
	.loc 1 1131 841 is_stmt 1 discriminator 16
	.loc 1 1131 873 is_stmt 0 discriminator 16
	ldr	r2, [r3]
	.loc 1 1131 878 discriminator 16
	bic	r2, r2, #524288
	str	r2, [r3]
.L263:
	.loc 1 1131 907 is_stmt 1 discriminator 18
	.loc 1 1131 930 is_stmt 0 discriminator 18
	ldr	r3, .L272
	ldr	r3, [r3, r5, lsl #2]
	.loc 1 1131 910 discriminator 18
	tst	r3, #1048576
	beq	.L264
	.loc 1 1131 989 is_stmt 1 discriminator 19
	.loc 1 1131 1002 is_stmt 0 discriminator 19
	ldr	r3, [r4]
	.loc 1 1131 1025 discriminator 19
	ldr	r2, [r3, #916]
	.loc 1 1131 992 discriminator 19
	tst	r2, #192
	bne	.L264
	.loc 1 1131 1092 is_stmt 1 discriminator 21
	.loc 1 1131 1124 is_stmt 0 discriminator 21
	ldr	r2, [r3]
	.loc 1 1131 1129 discriminator 21
	bic	r2, r2, #1048576
	str	r2, [r3]
.L264:
	.loc 1 1131 1158 is_stmt 1 discriminator 23
	.loc 1 1131 1181 is_stmt 0 discriminator 23
	ldr	r3, .L272
	ldr	r3, [r3, r5, lsl #2]
	.loc 1 1131 1161 discriminator 23
	tst	r3, #2097152
	beq	.L265
	.loc 1 1131 1240 is_stmt 1 discriminator 24
	.loc 1 1131 1253 is_stmt 0 discriminator 24
	ldr	r3, [r4]
	.loc 1 1131 1276 discriminator 24
	ldr	r2, [r3, #916]
	.loc 1 1131 1243 discriminator 24
	tst	r2, #768
	bne	.L265
	.loc 1 1131 1343 is_stmt 1 discriminator 26
	.loc 1 1131 1375 is_stmt 0 discriminator 26
	ldr	r2, [r3]
	.loc 1 1131 1380 discriminator 26
	bic	r2, r2, #2097152
	str	r2, [r3]
.L265:
	.loc 1 1131 6 is_stmt 1 discriminator 28
	.loc 1 1134 3 discriminator 28
	.loc 1 1134 7 discriminator 28
	.loc 1 1134 22 is_stmt 0 discriminator 28
	movs	r3, #0
	strb	r3, [r4, #192]
	.loc 1 1134 5 is_stmt 1 discriminator 28
	.loc 1 1136 3 discriminator 28
	.loc 1 1136 13 is_stmt 0 discriminator 28
	ldrb	r3, [r4, #193]	@ zero_extendqisi2
	uxtb	r3, r3
	.loc 1 1136 6 discriminator 28
	cmp	r3, #7
	beq	.L271
	.loc 1 1142 14
	movs	r0, #0
.LVL416:
.L254:
	.loc 1 1144 1
	pop	{r3, r4, r5, pc}
.LVL417:
.L269:
	.loc 1 1096 5 is_stmt 1
	.loc 1 1096 19 is_stmt 0
	strb	r3, [r0, #193]
	.loc 1 1099 5 is_stmt 1
	.loc 1 1099 9 is_stmt 0
	ldr	r0, [r0, #196]
.LVL418:
	bl	HAL_DMA_Abort
.LVL419:
	.loc 1 1099 8
	cbz	r0, .L256
	.loc 1 1101 9 is_stmt 1
	.loc 1 1101 23 is_stmt 0
	movs	r3, #7
	strb	r3, [r4, #193]
.L256:
	.loc 1 1104 5 is_stmt 1
	.loc 1 1104 14 is_stmt 0
	ldr	r2, [r4]
	.loc 1 1104 37
	ldr	r3, [r2, #12]
	.loc 1 1104 44
	bic	r3, r3, #1048576
	str	r3, [r2, #12]
	b	.L257
.LVL420:
.L270:
	.loc 1 1113 7 is_stmt 1
	.loc 1 1113 21 is_stmt 0
	movs	r3, #7
	strb	r3, [r4, #193]
	b	.L257
.LVL421:
.L271:
	.loc 1 1138 14
	movs	r0, #1
	b	.L254
.LVL422:
.L266:
	.loc 1 1092 49
	movs	r0, #2
.LVL423:
	b	.L254
.L273:
	.align	2
.L272:
	.word	TimerIdxToTimerId
	.cfi_endproc
.LFE345:
	.size	HAL_HRTIM_SimpleBaseStop_DMA, .-HAL_HRTIM_SimpleBaseStop_DMA
	.section	.text.HAL_HRTIM_SimpleOCChannelConfig,"ax",%progbits
	.align	1
	.global	HAL_HRTIM_SimpleOCChannelConfig
	.syntax unified
	.thumb
	.thumb_func
	.type	HAL_HRTIM_SimpleOCChannelConfig, %function
HAL_HRTIM_SimpleOCChannelConfig:
.LFB346:
	.loc 1 1209 1 is_stmt 1
	.cfi_startproc
	@ args = 0, pretend = 0, frame = 32
	@ frame_needed = 0, uses_anonymous_args = 0
.LVL424:
	push	{r4, r5, lr}
	.cfi_def_cfa_offset 12
	.cfi_offset 4, -12
	.cfi_offset 5, -8
	.cfi_offset 14, -4
	sub	sp, sp, #36
	.cfi_def_cfa_offset 48
	mov	r4, r0
	.loc 1 1210 3
.LVL425:
	.loc 1 1211 3
	.loc 1 1214 3
	.loc 1 1215 3
	.loc 1 1216 3
	.loc 1 1217 3
	.loc 1 1218 3
	.loc 1 1220 3
	.loc 1 1220 12 is_stmt 0
	ldrb	r0, [r0, #193]	@ zero_extendqisi2
.LVL426:
	uxtb	r0, r0
	.loc 1 1220 5
	cmp	r0, #2
	beq	.L275
	.loc 1 1226 3 is_stmt 1
	.loc 1 1226 7
	.loc 1 1226 18 is_stmt 0
	ldrb	r0, [r4, #192]	@ zero_extendqisi2
	.loc 1 1226 9
	cmp	r0, #1
	beq	.L293
	.loc 1 1226 68 is_stmt 1 discriminator 2
	.loc 1 1226 83 is_stmt 0 discriminator 2
	movs	r0, #1
	strb	r0, [r4, #192]
	.loc 1 1226 5 is_stmt 1 discriminator 2
	.loc 1 1229 3 discriminator 2
	.loc 1 1229 17 is_stmt 0 discriminator 2
	movs	r0, #2
	strb	r0, [r4, #193]
	.loc 1 1232 3 is_stmt 1 discriminator 2
	cmp	r2, #32
	bhi	.L276
	.loc 1 1232 3 is_stmt 0
	cmp	r2, r0
	bcs	.L277
	cmp	r2, #1
	bne	.L279
.L278:
	.loc 1 1240 7 is_stmt 1
.LVL427:
	.loc 1 1241 7
	.loc 1 1241 13 is_stmt 0
	ldr	r0, [r4]
	.loc 1 1241 75
	ldr	r5, [r3, #4]
	.loc 1 1241 54
	add	r0, r0, r1, lsl #7
	str	r5, [r0, #156]
	.loc 1 1242 7 is_stmt 1
	.loc 1 1240 19 is_stmt 0
	mov	ip, #1
.LVL428:
.L282:
	.loc 1 1265 3 is_stmt 1
	.loc 1 1265 12 is_stmt 0
	ldrb	r0, [r4, #193]	@ zero_extendqisi2
	uxtb	r0, r0
	.loc 1 1265 5
	cmp	r0, #7
	beq	.L294
	.loc 1 1271 3 is_stmt 1
	.loc 1 1271 44 is_stmt 0
	ldr	r0, [r3, #8]
	.loc 1 1271 55
	and	r0, r0, #2
	.loc 1 1271 22
	str	r0, [sp]
	.loc 1 1272 3 is_stmt 1
	.loc 1 1272 45 is_stmt 0
	ldr	r0, [r3, #12]
	.loc 1 1272 57
	and	r0, r0, #8
	.loc 1 1272 23
	str	r0, [sp, #16]
	.loc 1 1273 3 is_stmt 1
	.loc 1 1273 24 is_stmt 0
	movs	r0, #0
	str	r0, [sp, #20]
	.loc 1 1274 3 is_stmt 1
	.loc 1 1274 22 is_stmt 0
	str	r0, [sp, #12]
	.loc 1 1275 3 is_stmt 1
	.loc 1 1275 31 is_stmt 0
	str	r0, [sp, #24]
	.loc 1 1276 3 is_stmt 1
	.loc 1 1276 35 is_stmt 0
	str	r0, [sp, #28]
	.loc 1 1278 3 is_stmt 1
	.loc 1 1278 30 is_stmt 0
	ldr	r3, [r3]
.LVL429:
	.loc 1 1278 3
	cmp	r3, #2
	beq	.L283
	cmp	r3, #3
	beq	.L284
	cmp	r3, #1
	beq	.L297
	.loc 1 1324 7 is_stmt 1
	.loc 1 1324 27 is_stmt 0
	movs	r3, #0
	str	r3, [sp, #4]
	.loc 1 1325 7 is_stmt 1
	.loc 1 1325 29 is_stmt 0
	str	r3, [sp, #8]
	.loc 1 1327 7 is_stmt 1
	.loc 1 1327 21 is_stmt 0
	movs	r0, #7
	strb	r0, [r4, #193]
	.loc 1 1330 7 is_stmt 1
	.loc 1 1330 11
	.loc 1 1330 26 is_stmt 0
	strb	r3, [r4, #192]
	.loc 1 1330 9 is_stmt 1
	.loc 1 1332 7
	b	.L288
.LVL430:
.L277:
	.loc 1 1232 3 is_stmt 0
	subs	r5, r2, #2
	movs	r0, #1
	lsls	r0, r0, r5
	ldr	r5, .L302
	tst	r0, r5
	bne	.L280
	movw	r5, #16388
	tst	r0, r5
	bne	.L278
.L279:
	.loc 1 1256 7 is_stmt 1
	.loc 1 1256 21 is_stmt 0
	movs	r0, #7
	strb	r0, [r4, #193]
	.loc 1 1259 7 is_stmt 1
	.loc 1 1259 11
	.loc 1 1259 26 is_stmt 0
	mov	ip, #0
	strb	ip, [r4, #192]
	.loc 1 1259 9 is_stmt 1
	.loc 1 1261 7
	b	.L282
.L276:
	.loc 1 1232 3 is_stmt 0
	cmp	r2, #256
	beq	.L278
	bls	.L298
	cmp	r2, #512
	bne	.L279
	b	.L280
.L298:
	cmp	r2, #64
	beq	.L278
	cmp	r2, #128
	bne	.L279
.L280:
	.loc 1 1250 7 is_stmt 1
.LVL431:
	.loc 1 1251 7
	.loc 1 1251 13 is_stmt 0
	ldr	r0, [r4]
	.loc 1 1251 75
	ldr	r5, [r3, #4]
	.loc 1 1251 54
	add	r0, r0, r1, lsl #7
	str	r5, [r0, #164]
	.loc 1 1252 7 is_stmt 1
	.loc 1 1250 19 is_stmt 0
	mov	ip, #2
	.loc 1 1252 7
	b	.L282
.LVL432:
.L297:
	.loc 1 1282 7 is_stmt 1
	.loc 1 1282 10 is_stmt 0
	cmp	ip, #1
	beq	.L299
	.loc 1 1288 9 is_stmt 1
	.loc 1 1288 29 is_stmt 0
	movs	r3, #16
	str	r3, [sp, #4]
.L287:
	.loc 1 1290 7 is_stmt 1
	.loc 1 1290 40 is_stmt 0
	ldr	r3, [sp, #4]
	.loc 1 1290 29
	str	r3, [sp, #8]
	.loc 1 1291 7 is_stmt 1
.L288:
	.loc 1 1336 3
	.loc 1 1336 12 is_stmt 0
	ldrb	r3, [r4, #193]	@ zero_extendqisi2
	uxtb	r3, r3
	.loc 1 1336 5
	cmp	r3, #7
	beq	.L295
	.loc 1 1341 3 is_stmt 1
	mov	r3, sp
	mov	r0, r4
	bl	HRTIM_OutputConfig
.LVL433:
	.loc 1 1347 3
	.loc 1 1347 17 is_stmt 0
	movs	r3, #1
	strb	r3, [r4, #193]
	.loc 1 1350 3 is_stmt 1
	.loc 1 1350 7
	.loc 1 1350 22 is_stmt 0
	movs	r0, #0
	strb	r0, [r4, #192]
	.loc 1 1350 5 is_stmt 1
	.loc 1 1352 3
.LVL434:
.L275:
	.loc 1 1353 1 is_stmt 0
	add	sp, sp, #36
	.cfi_remember_state
	.cfi_def_cfa_offset 12
	@ sp needed
	pop	{r4, r5, pc}
.LVL435:
.L299:
	.cfi_restore_state
	.loc 1 1284 9 is_stmt 1
	.loc 1 1284 29 is_stmt 0
	movs	r3, #8
	str	r3, [sp, #4]
	b	.L287
.L284:
	.loc 1 1296 7 is_stmt 1
	.loc 1 1296 10 is_stmt 0
	cmp	ip, #1
	beq	.L300
	.loc 1 1302 9 is_stmt 1
	.loc 1 1302 29 is_stmt 0
	movs	r3, #16
	str	r3, [sp, #4]
.L290:
	.loc 1 1304 7 is_stmt 1
	.loc 1 1304 29 is_stmt 0
	movs	r3, #0
	str	r3, [sp, #8]
	.loc 1 1305 7 is_stmt 1
	b	.L288
.L300:
	.loc 1 1298 9
	.loc 1 1298 29 is_stmt 0
	movs	r3, #8
	str	r3, [sp, #4]
	b	.L290
.L283:
	.loc 1 1310 7 is_stmt 1
	.loc 1 1310 10 is_stmt 0
	cmp	ip, #1
	beq	.L301
	.loc 1 1316 9 is_stmt 1
	.loc 1 1316 31 is_stmt 0
	movs	r3, #16
	str	r3, [sp, #8]
.L292:
	.loc 1 1318 7 is_stmt 1
	.loc 1 1318 27 is_stmt 0
	movs	r3, #0
	str	r3, [sp, #4]
	.loc 1 1319 7 is_stmt 1
	b	.L288
.L301:
	.loc 1 1312 9
	.loc 1 1312 31 is_stmt 0
	movs	r3, #8
	str	r3, [sp, #8]
	b	.L292
.LVL436:
.L293:
	.loc 1 1226 49
	movs	r0, #2
	b	.L275
.LVL437:
.L294:
	.loc 1 1267 13
	movs	r0, #1
	b	.L275
.LVL438:
.L295:
	.loc 1 1338 13
	movs	r0, #1
	b	.L275
.L303:
	.align	2
.L302:
	.word	1073741889
	.cfi_endproc
.LFE346:
	.size	HAL_HRTIM_SimpleOCChannelConfig, .-HAL_HRTIM_SimpleOCChannelConfig
	.section	.text.HAL_HRTIM_SimpleOCStart,"ax",%progbits
	.align	1
	.global	HAL_HRTIM_SimpleOCStart
	.syntax unified
	.thumb
	.thumb_func
	.type	HAL_HRTIM_SimpleOCStart, %function
HAL_HRTIM_SimpleOCStart:
.LFB347:
	.loc 1 1382 1 is_stmt 1
	.cfi_startproc
	@ args = 0, pretend = 0, frame = 0
	@ frame_needed = 0, uses_anonymous_args = 0
	@ link register save eliminated.
.LVL439:
	mov	r3, r0
	.loc 1 1384 3
	.loc 1 1387 3
	.loc 1 1387 7
	.loc 1 1387 18 is_stmt 0
	ldrb	r0, [r0, #192]	@ zero_extendqisi2
.LVL440:
	.loc 1 1387 9
	cmp	r0, #1
	beq	.L306
	.loc 1 1382 1 discriminator 2
	push	{r4}
	.cfi_def_cfa_offset 4
	.cfi_offset 4, -4
	.loc 1 1387 68 is_stmt 1 discriminator 2
	.loc 1 1387 83 is_stmt 0 discriminator 2
	mov	ip, #1
	strb	ip, [r3, #192]
	.loc 1 1387 5 is_stmt 1 discriminator 2
	.loc 1 1389 3 discriminator 2
	.loc 1 1389 17 is_stmt 0 discriminator 2
	movs	r0, #2
	strb	r0, [r3, #193]
	.loc 1 1392 3 is_stmt 1 discriminator 2
	.loc 1 1392 9 is_stmt 0 discriminator 2
	ldr	r4, [r3]
	.loc 1 1392 32 discriminator 2
	ldr	r0, [r4, #916]
	.loc 1 1392 38 discriminator 2
	orrs	r2, r2, r0
.LVL441:
	str	r2, [r4, #916]
	.loc 1 1395 3 is_stmt 1 discriminator 2
	.loc 1 1395 12 is_stmt 0 discriminator 2
	ldr	r0, [r3]
	.loc 1 1395 35 discriminator 2
	ldr	r2, [r0]
	.loc 1 1395 61 discriminator 2
	ldr	r4, .L311
	ldr	r1, [r4, r1, lsl #2]
.LVL442:
	.loc 1 1395 40 discriminator 2
	orrs	r2, r2, r1
	str	r2, [r0]
	.loc 1 1397 3 is_stmt 1 discriminator 2
	.loc 1 1397 17 is_stmt 0 discriminator 2
	strb	ip, [r3, #193]
	.loc 1 1400 3 is_stmt 1 discriminator 2
	.loc 1 1400 7 discriminator 2
	.loc 1 1400 22 is_stmt 0 discriminator 2
	movs	r0, #0
	strb	r0, [r3, #192]
	.loc 1 1400 5 is_stmt 1 discriminator 2
	.loc 1 1402 3 discriminator 2
	.loc 1 1403 1 is_stmt 0 discriminator 2
	ldr	r4, [sp], #4
	.cfi_restore 4
	.cfi_def_cfa_offset 0
	bx	lr
.LVL443:
.L306:
	.loc 1 1387 49
	movs	r0, #2
	.loc 1 1403 1
	bx	lr
.L312:
	.align	2
.L311:
	.word	TimerIdxToTimerId
	.cfi_endproc
.LFE347:
	.size	HAL_HRTIM_SimpleOCStart, .-HAL_HRTIM_SimpleOCStart
	.section	.text.HAL_HRTIM_SimpleOCStop,"ax",%progbits
	.align	1
	.global	HAL_HRTIM_SimpleOCStop
	.syntax unified
	.thumb
	.thumb_func
	.type	HAL_HRTIM_SimpleOCStop, %function
HAL_HRTIM_SimpleOCStop:
.LFB348:
	.loc 1 1432 1 is_stmt 1
	.cfi_startproc
	@ args = 0, pretend = 0, frame = 0
	@ frame_needed = 0, uses_anonymous_args = 0
	@ link register save eliminated.
.LVL444:
	mov	r3, r0
	.loc 1 1434 3
	.loc 1 1437 3
	.loc 1 1437 7
	.loc 1 1437 18 is_stmt 0
	ldrb	r0, [r0, #192]	@ zero_extendqisi2
.LVL445:
	.loc 1 1437 9
	cmp	r0, #1
	beq	.L321
	.loc 1 1432 1 discriminator 2
	push	{r4}
	.cfi_def_cfa_offset 4
	.cfi_offset 4, -4
	.loc 1 1437 68 is_stmt 1 discriminator 2
	.loc 1 1437 83 is_stmt 0 discriminator 2
	movs	r0, #1
	strb	r0, [r3, #192]
	.loc 1 1437 5 is_stmt 1 discriminator 2
	.loc 1 1439 3 discriminator 2
	.loc 1 1439 17 is_stmt 0 discriminator 2
	movs	r0, #2
	strb	r0, [r3, #193]
	.loc 1 1442 3 is_stmt 1 discriminator 2
	.loc 1 1442 9 is_stmt 0 discriminator 2
	ldr	r4, [r3]
	.loc 1 1442 32 discriminator 2
	ldr	r0, [r4, #920]
	.loc 1 1442 39 discriminator 2
	orrs	r2, r2, r0
.LVL446:
	str	r2, [r4, #920]
	.loc 1 1445 3 is_stmt 1 discriminator 2
	.loc 1 1445 8 discriminator 2
	.loc 1 1445 31 is_stmt 0 discriminator 2
	ldr	r2, .L326
	ldr	r2, [r2, r1, lsl #2]
	.loc 1 1445 11 discriminator 2
	tst	r2, #65536
	beq	.L315
	.loc 1 1445 90 is_stmt 1 discriminator 1
	.loc 1 1445 99 is_stmt 0 discriminator 1
	ldr	r0, [r3]
	.loc 1 1445 122 discriminator 1
	ldr	r2, [r0]
	.loc 1 1445 127 discriminator 1
	bic	r2, r2, #65536
	str	r2, [r0]
.L315:
	.loc 1 1445 154 is_stmt 1 discriminator 3
	.loc 1 1445 177 is_stmt 0 discriminator 3
	ldr	r2, .L326
	ldr	r2, [r2, r1, lsl #2]
	.loc 1 1445 157 discriminator 3
	tst	r2, #131072
	beq	.L316
	.loc 1 1445 236 is_stmt 1 discriminator 4
	.loc 1 1445 249 is_stmt 0 discriminator 4
	ldr	r2, [r3]
	.loc 1 1445 272 discriminator 4
	ldr	r0, [r2, #916]
	.loc 1 1445 239 discriminator 4
	tst	r0, #3
	bne	.L316
	.loc 1 1445 339 is_stmt 1 discriminator 6
	.loc 1 1445 371 is_stmt 0 discriminator 6
	ldr	r0, [r2]
	.loc 1 1445 376 discriminator 6
	bic	r0, r0, #131072
	str	r0, [r2]
.L316:
	.loc 1 1445 405 is_stmt 1 discriminator 8
	.loc 1 1445 428 is_stmt 0 discriminator 8
	ldr	r2, .L326
	ldr	r2, [r2, r1, lsl #2]
	.loc 1 1445 408 discriminator 8
	tst	r2, #262144
	beq	.L317
	.loc 1 1445 487 is_stmt 1 discriminator 9
	.loc 1 1445 500 is_stmt 0 discriminator 9
	ldr	r2, [r3]
	.loc 1 1445 523 discriminator 9
	ldr	r0, [r2, #916]
	.loc 1 1445 490 discriminator 9
	tst	r0, #12
	bne	.L317
	.loc 1 1445 590 is_stmt 1 discriminator 11
	.loc 1 1445 622 is_stmt 0 discriminator 11
	ldr	r0, [r2]
	.loc 1 1445 627 discriminator 11
	bic	r0, r0, #262144
	str	r0, [r2]
.L317:
	.loc 1 1445 656 is_stmt 1 discriminator 13
	.loc 1 1445 679 is_stmt 0 discriminator 13
	ldr	r2, .L326
	ldr	r2, [r2, r1, lsl #2]
	.loc 1 1445 659 discriminator 13
	tst	r2, #524288
	beq	.L318
	.loc 1 1445 738 is_stmt 1 discriminator 14
	.loc 1 1445 751 is_stmt 0 discriminator 14
	ldr	r2, [r3]
	.loc 1 1445 774 discriminator 14
	ldr	r0, [r2, #916]
	.loc 1 1445 741 discriminator 14
	tst	r0, #48
	bne	.L318
	.loc 1 1445 841 is_stmt 1 discriminator 16
	.loc 1 1445 873 is_stmt 0 discriminator 16
	ldr	r0, [r2]
	.loc 1 1445 878 discriminator 16
	bic	r0, r0, #524288
	str	r0, [r2]
.L318:
	.loc 1 1445 907 is_stmt 1 discriminator 18
	.loc 1 1445 930 is_stmt 0 discriminator 18
	ldr	r2, .L326
	ldr	r2, [r2, r1, lsl #2]
	.loc 1 1445 910 discriminator 18
	tst	r2, #1048576
	beq	.L319
	.loc 1 1445 989 is_stmt 1 discriminator 19
	.loc 1 1445 1002 is_stmt 0 discriminator 19
	ldr	r2, [r3]
	.loc 1 1445 1025 discriminator 19
	ldr	r0, [r2, #916]
	.loc 1 1445 992 discriminator 19
	tst	r0, #192
	bne	.L319
	.loc 1 1445 1092 is_stmt 1 discriminator 21
	.loc 1 1445 1124 is_stmt 0 discriminator 21
	ldr	r0, [r2]
	.loc 1 1445 1129 discriminator 21
	bic	r0, r0, #1048576
	str	r0, [r2]
.L319:
	.loc 1 1445 1158 is_stmt 1 discriminator 23
	.loc 1 1445 1181 is_stmt 0 discriminator 23
	ldr	r2, .L326
	ldr	r2, [r2, r1, lsl #2]
	.loc 1 1445 1161 discriminator 23
	tst	r2, #2097152
	beq	.L320
	.loc 1 1445 1240 is_stmt 1 discriminator 24
	.loc 1 1445 1253 is_stmt 0 discriminator 24
	ldr	r2, [r3]
	.loc 1 1445 1276 discriminator 24
	ldr	r1, [r2, #916]
.LVL447:
	.loc 1 1445 1243 discriminator 24
	tst	r1, #768
	bne	.L320
	.loc 1 1445 1343 is_stmt 1 discriminator 26
	.loc 1 1445 1375 is_stmt 0 discriminator 26
	ldr	r1, [r2]
	.loc 1 1445 1380 discriminator 26
	bic	r1, r1, #2097152
	str	r1, [r2]
.L320:
	.loc 1 1445 6 is_stmt 1 discriminator 28
	.loc 1 1447 3 discriminator 28
	.loc 1 1447 17 is_stmt 0 discriminator 28
	movs	r2, #1
	strb	r2, [r3, #193]
	.loc 1 1450 3 is_stmt 1 discriminator 28
	.loc 1 1450 7 discriminator 28
	.loc 1 1450 22 is_stmt 0 discriminator 28
	movs	r0, #0
	strb	r0, [r3, #192]
	.loc 1 1450 5 is_stmt 1 discriminator 28
	.loc 1 1452 3 discriminator 28
	.loc 1 1453 1 is_stmt 0 discriminator 28
	ldr	r4, [sp], #4
	.cfi_restore 4
	.cfi_def_cfa_offset 0
	bx	lr
.LVL448:
.L321:
	.loc 1 1437 49
	movs	r0, #2
	.loc 1 1453 1
	bx	lr
.L327:
	.align	2
.L326:
	.word	TimerIdxToTimerId
	.cfi_endproc
.LFE348:
	.size	HAL_HRTIM_SimpleOCStop, .-HAL_HRTIM_SimpleOCStop
	.section	.text.HAL_HRTIM_SimpleOCStart_IT,"ax",%progbits
	.align	1
	.global	HAL_HRTIM_SimpleOCStart_IT
	.syntax unified
	.thumb
	.thumb_func
	.type	HAL_HRTIM_SimpleOCStart_IT, %function
HAL_HRTIM_SimpleOCStart_IT:
.LFB349:
	.loc 1 1487 1 is_stmt 1
	.cfi_startproc
	@ args = 0, pretend = 0, frame = 0
	@ frame_needed = 0, uses_anonymous_args = 0
.LVL449:
	push	{r3, r4, r5, r6, r7, lr}
	.cfi_def_cfa_offset 24
	.cfi_offset 3, -24
	.cfi_offset 4, -20
	.cfi_offset 5, -16
	.cfi_offset 6, -12
	.cfi_offset 7, -8
	.cfi_offset 14, -4
	.loc 1 1488 3
	.loc 1 1491 3
	.loc 1 1494 3
	.loc 1 1494 7
	.loc 1 1494 18 is_stmt 0
	ldrb	r3, [r0, #192]	@ zero_extendqisi2
	.loc 1 1494 9
	cmp	r3, #1
	beq	.L330
	mov	r4, r0
	mov	r5, r1
	mov	r6, r2
	.loc 1 1494 68 is_stmt 1 discriminator 2
	.loc 1 1494 83 is_stmt 0 discriminator 2
	movs	r7, #1
	strb	r7, [r0, #192]
	.loc 1 1494 5 is_stmt 1 discriminator 2
	.loc 1 1496 3 discriminator 2
	.loc 1 1496 17 is_stmt 0 discriminator 2
	movs	r3, #2
	strb	r3, [r0, #193]
	.loc 1 1499 3 is_stmt 1 discriminator 2
	.loc 1 1499 15 is_stmt 0 discriminator 2
	bl	HRTIM_GetITFromOCMode
.LVL450:
	.loc 1 1502 3 is_stmt 1 discriminator 2
	.loc 1 1502 9 is_stmt 0 discriminator 2
	ldr	r2, [r4]
	.loc 1 1502 32 discriminator 2
	ldr	r3, [r2, #916]
	.loc 1 1502 38 discriminator 2
	orrs	r3, r3, r6
	str	r3, [r2, #916]
	.loc 1 1505 3 is_stmt 1 discriminator 2
	.loc 1 1505 12 is_stmt 0 discriminator 2
	ldr	r3, [r4]
	.loc 1 1505 47 discriminator 2
	add	r3, r3, r5, lsl #7
	ldr	r2, [r3, #140]
	.loc 1 1505 57 discriminator 2
	orrs	r2, r2, r0
	str	r2, [r3, #140]
	.loc 1 1508 3 is_stmt 1 discriminator 2
	.loc 1 1508 12 is_stmt 0 discriminator 2
	ldr	r2, [r4]
	.loc 1 1508 35 discriminator 2
	ldr	r3, [r2]
	.loc 1 1508 61 discriminator 2
	ldr	r1, .L332
	ldr	r1, [r1, r5, lsl #2]
	.loc 1 1508 40 discriminator 2
	orrs	r3, r3, r1
	str	r3, [r2]
	.loc 1 1510 3 is_stmt 1 discriminator 2
	.loc 1 1510 17 is_stmt 0 discriminator 2
	strb	r7, [r4, #193]
	.loc 1 1513 3 is_stmt 1 discriminator 2
	.loc 1 1513 7 discriminator 2
	.loc 1 1513 22 is_stmt 0 discriminator 2
	movs	r0, #0
.LVL451:
	strb	r0, [r4, #192]
	.loc 1 1513 5 is_stmt 1 discriminator 2
	.loc 1 1515 3 discriminator 2
.LVL452:
.L329:
	.loc 1 1516 1 is_stmt 0
	pop	{r3, r4, r5, r6, r7, pc}
.LVL453:
.L330:
	.loc 1 1494 49
	movs	r0, #2
.LVL454:
	b	.L329
.L333:
	.align	2
.L332:
	.word	TimerIdxToTimerId
	.cfi_endproc
.LFE349:
	.size	HAL_HRTIM_SimpleOCStart_IT, .-HAL_HRTIM_SimpleOCStart_IT
	.section	.text.HAL_HRTIM_SimpleOCStop_IT,"ax",%progbits
	.align	1
	.global	HAL_HRTIM_SimpleOCStop_IT
	.syntax unified
	.thumb
	.thumb_func
	.type	HAL_HRTIM_SimpleOCStop_IT, %function
HAL_HRTIM_SimpleOCStop_IT:
.LFB350:
	.loc 1 1546 1 is_stmt 1
	.cfi_startproc
	@ args = 0, pretend = 0, frame = 0
	@ frame_needed = 0, uses_anonymous_args = 0
.LVL455:
	push	{r3, r4, r5, lr}
	.cfi_def_cfa_offset 16
	.cfi_offset 3, -16
	.cfi_offset 4, -12
	.cfi_offset 5, -8
	.cfi_offset 14, -4
	.loc 1 1547 3
	.loc 1 1550 3
	.loc 1 1553 3
	.loc 1 1553 7
	.loc 1 1553 18 is_stmt 0
	ldrb	r3, [r0, #192]	@ zero_extendqisi2
	.loc 1 1553 9
	cmp	r3, #1
	beq	.L342
	mov	r4, r0
	mov	r5, r1
	.loc 1 1553 68 is_stmt 1 discriminator 2
	.loc 1 1553 83 is_stmt 0 discriminator 2
	movs	r3, #1
	strb	r3, [r0, #192]
	.loc 1 1553 5 is_stmt 1 discriminator 2
	.loc 1 1555 3 discriminator 2
	.loc 1 1555 17 is_stmt 0 discriminator 2
	movs	r3, #2
	strb	r3, [r0, #193]
	.loc 1 1558 3 is_stmt 1 discriminator 2
	.loc 1 1558 9 is_stmt 0 discriminator 2
	ldr	r1, [r0]
.LVL456:
	.loc 1 1558 32 discriminator 2
	ldr	r3, [r1, #920]
	.loc 1 1558 39 discriminator 2
	orrs	r3, r3, r2
	str	r3, [r1, #920]
	.loc 1 1561 3 is_stmt 1 discriminator 2
	.loc 1 1561 15 is_stmt 0 discriminator 2
	mov	r1, r5
	bl	HRTIM_GetITFromOCMode
.LVL457:
	.loc 1 1564 3 is_stmt 1 discriminator 2
	.loc 1 1564 12 is_stmt 0 discriminator 2
	ldr	r3, [r4]
	.loc 1 1564 47 discriminator 2
	add	r3, r3, r5, lsl #7
	ldr	r2, [r3, #140]
	.loc 1 1564 57 discriminator 2
	bic	r2, r2, r0
	str	r2, [r3, #140]
	.loc 1 1567 3 is_stmt 1 discriminator 2
	.loc 1 1567 8 discriminator 2
	.loc 1 1567 31 is_stmt 0 discriminator 2
	ldr	r3, .L344
	ldr	r3, [r3, r5, lsl #2]
	.loc 1 1567 11 discriminator 2
	tst	r3, #65536
	beq	.L336
	.loc 1 1567 90 is_stmt 1 discriminator 1
	.loc 1 1567 99 is_stmt 0 discriminator 1
	ldr	r2, [r4]
	.loc 1 1567 122 discriminator 1
	ldr	r3, [r2]
	.loc 1 1567 127 discriminator 1
	bic	r3, r3, #65536
	str	r3, [r2]
.L336:
	.loc 1 1567 154 is_stmt 1 discriminator 3
	.loc 1 1567 177 is_stmt 0 discriminator 3
	ldr	r3, .L344
	ldr	r3, [r3, r5, lsl #2]
	.loc 1 1567 157 discriminator 3
	tst	r3, #131072
	beq	.L337
	.loc 1 1567 236 is_stmt 1 discriminator 4
	.loc 1 1567 249 is_stmt 0 discriminator 4
	ldr	r3, [r4]
	.loc 1 1567 272 discriminator 4
	ldr	r2, [r3, #916]
	.loc 1 1567 239 discriminator 4
	tst	r2, #3
	bne	.L337
	.loc 1 1567 339 is_stmt 1 discriminator 6
	.loc 1 1567 371 is_stmt 0 discriminator 6
	ldr	r2, [r3]
	.loc 1 1567 376 discriminator 6
	bic	r2, r2, #131072
	str	r2, [r3]
.L337:
	.loc 1 1567 405 is_stmt 1 discriminator 8
	.loc 1 1567 428 is_stmt 0 discriminator 8
	ldr	r3, .L344
	ldr	r3, [r3, r5, lsl #2]
	.loc 1 1567 408 discriminator 8
	tst	r3, #262144
	beq	.L338
	.loc 1 1567 487 is_stmt 1 discriminator 9
	.loc 1 1567 500 is_stmt 0 discriminator 9
	ldr	r3, [r4]
	.loc 1 1567 523 discriminator 9
	ldr	r2, [r3, #916]
	.loc 1 1567 490 discriminator 9
	tst	r2, #12
	bne	.L338
	.loc 1 1567 590 is_stmt 1 discriminator 11
	.loc 1 1567 622 is_stmt 0 discriminator 11
	ldr	r2, [r3]
	.loc 1 1567 627 discriminator 11
	bic	r2, r2, #262144
	str	r2, [r3]
.L338:
	.loc 1 1567 656 is_stmt 1 discriminator 13
	.loc 1 1567 679 is_stmt 0 discriminator 13
	ldr	r3, .L344
	ldr	r3, [r3, r5, lsl #2]
	.loc 1 1567 659 discriminator 13
	tst	r3, #524288
	beq	.L339
	.loc 1 1567 738 is_stmt 1 discriminator 14
	.loc 1 1567 751 is_stmt 0 discriminator 14
	ldr	r3, [r4]
	.loc 1 1567 774 discriminator 14
	ldr	r2, [r3, #916]
	.loc 1 1567 741 discriminator 14
	tst	r2, #48
	bne	.L339
	.loc 1 1567 841 is_stmt 1 discriminator 16
	.loc 1 1567 873 is_stmt 0 discriminator 16
	ldr	r2, [r3]
	.loc 1 1567 878 discriminator 16
	bic	r2, r2, #524288
	str	r2, [r3]
.L339:
	.loc 1 1567 907 is_stmt 1 discriminator 18
	.loc 1 1567 930 is_stmt 0 discriminator 18
	ldr	r3, .L344
	ldr	r3, [r3, r5, lsl #2]
	.loc 1 1567 910 discriminator 18
	tst	r3, #1048576
	beq	.L340
	.loc 1 1567 989 is_stmt 1 discriminator 19
	.loc 1 1567 1002 is_stmt 0 discriminator 19
	ldr	r3, [r4]
	.loc 1 1567 1025 discriminator 19
	ldr	r2, [r3, #916]
	.loc 1 1567 992 discriminator 19
	tst	r2, #192
	bne	.L340
	.loc 1 1567 1092 is_stmt 1 discriminator 21
	.loc 1 1567 1124 is_stmt 0 discriminator 21
	ldr	r2, [r3]
	.loc 1 1567 1129 discriminator 21
	bic	r2, r2, #1048576
	str	r2, [r3]
.L340:
	.loc 1 1567 1158 is_stmt 1 discriminator 23
	.loc 1 1567 1181 is_stmt 0 discriminator 23
	ldr	r3, .L344
	ldr	r3, [r3, r5, lsl #2]
	.loc 1 1567 1161 discriminator 23
	tst	r3, #2097152
	beq	.L341
	.loc 1 1567 1240 is_stmt 1 discriminator 24
	.loc 1 1567 1253 is_stmt 0 discriminator 24
	ldr	r3, [r4]
	.loc 1 1567 1276 discriminator 24
	ldr	r2, [r3, #916]
	.loc 1 1567 1243 discriminator 24
	tst	r2, #768
	bne	.L341
	.loc 1 1567 1343 is_stmt 1 discriminator 26
	.loc 1 1567 1375 is_stmt 0 discriminator 26
	ldr	r2, [r3]
	.loc 1 1567 1380 discriminator 26
	bic	r2, r2, #2097152
	str	r2, [r3]
.L341:
	.loc 1 1567 6 is_stmt 1 discriminator 28
	.loc 1 1569 3 discriminator 28
	.loc 1 1569 17 is_stmt 0 discriminator 28
	movs	r3, #1
	strb	r3, [r4, #193]
	.loc 1 1572 3 is_stmt 1 discriminator 28
	.loc 1 1572 7 discriminator 28
	.loc 1 1572 22 is_stmt 0 discriminator 28
	movs	r0, #0
.LVL458:
	strb	r0, [r4, #192]
	.loc 1 1572 5 is_stmt 1 discriminator 28
	.loc 1 1574 3 discriminator 28
.LVL459:
.L335:
	.loc 1 1575 1 is_stmt 0
	pop	{r3, r4, r5, pc}
.LVL460:
.L342:
	.loc 1 1553 49
	movs	r0, #2
.LVL461:
	b	.L335
.L345:
	.align	2
.L344:
	.word	TimerIdxToTimerId
	.cfi_endproc
.LFE350:
	.size	HAL_HRTIM_SimpleOCStop_IT, .-HAL_HRTIM_SimpleOCStop_IT
	.section	.text.HAL_HRTIM_SimpleOCStart_DMA,"ax",%progbits
	.align	1
	.global	HAL_HRTIM_SimpleOCStart_DMA
	.syntax unified
	.thumb
	.thumb_func
	.type	HAL_HRTIM_SimpleOCStart_DMA, %function
HAL_HRTIM_SimpleOCStart_DMA:
.LFB351:
	.loc 1 1616 1 is_stmt 1
	.cfi_startproc
	@ args = 8, pretend = 0, frame = 0
	@ frame_needed = 0, uses_anonymous_args = 0
.LVL462:
	push	{r3, r4, r5, r6, r7, lr}
	.cfi_def_cfa_offset 24
	.cfi_offset 3, -24
	.cfi_offset 4, -20
	.cfi_offset 5, -16
	.cfi_offset 6, -12
	.cfi_offset 7, -8
	.cfi_offset 14, -4
	mov	r4, r0
	.loc 1 1617 3
	.loc 1 1618 3
	.loc 1 1621 3
	.loc 1 1623 3
	.loc 1 1623 12 is_stmt 0
	ldrb	r0, [r0, #193]	@ zero_extendqisi2
.LVL463:
	uxtb	r0, r0
	.loc 1 1623 5
	cmp	r0, #2
	beq	.L347
	mov	r5, r1
	mov	r6, r3
	.loc 1 1627 3 is_stmt 1
	.loc 1 1627 12 is_stmt 0
	ldrb	r0, [r4, #193]	@ zero_extendqisi2
	uxtb	r0, r0
	.loc 1 1627 5
	cmp	r0, #1
	beq	.L353
.LVL464:
.L348:
	.loc 1 1640 3 is_stmt 1
	.loc 1 1640 7
	.loc 1 1640 18 is_stmt 0
	ldrb	r3, [r4, #192]	@ zero_extendqisi2
	.loc 1 1640 9
	cmp	r3, #1
	beq	.L351
	.loc 1 1640 68 is_stmt 1 discriminator 2
	.loc 1 1640 83 is_stmt 0 discriminator 2
	movs	r3, #1
	strb	r3, [r4, #192]
	.loc 1 1640 5 is_stmt 1 discriminator 2
	.loc 1 1643 3 discriminator 2
	.loc 1 1643 9 is_stmt 0 discriminator 2
	ldr	r3, [r4]
	.loc 1 1643 32 discriminator 2
	ldr	r0, [r3, #916]
	.loc 1 1643 38 discriminator 2
	orrs	r0, r0, r2
	str	r0, [r3, #916]
	.loc 1 1646 3 is_stmt 1 discriminator 2
	.loc 1 1646 17 is_stmt 0 discriminator 2
	mov	r1, r5
.LVL465:
	mov	r0, r4
	bl	HRTIM_GetDMAFromOCMode
.LVL466:
	mov	r7, r0
.LVL467:
	.loc 1 1649 3 is_stmt 1 discriminator 2
	.loc 1 1649 10 is_stmt 0 discriminator 2
	mov	r1, r5
	mov	r0, r4
.LVL468:
	bl	HRTIM_GetDMAHandleFromTimerIdx
.LVL469:
	.loc 1 1651 3 is_stmt 1 discriminator 2
	.loc 1 1651 6 is_stmt 0 discriminator 2
	cbz	r0, .L354
	.loc 1 1662 3 is_stmt 1
	.loc 1 1662 27 is_stmt 0
	ldr	r3, .L356
	str	r3, [r0, #76]
	.loc 1 1665 3 is_stmt 1
	.loc 1 1665 26 is_stmt 0
	ldr	r3, .L356+4
	str	r3, [r0, #60]
	.loc 1 1668 3 is_stmt 1
	.loc 1 1668 7 is_stmt 0
	ldr	r3, [sp, #28]
	ldr	r2, [sp, #24]
	mov	r1, r6
	bl	HAL_DMA_Start_IT
.LVL470:
	.loc 1 1668 6
	cbnz	r0, .L355
	.loc 1 1679 3 is_stmt 1
	.loc 1 1679 12 is_stmt 0
	ldr	r3, [r4]
	.loc 1 1679 47
	add	r3, r3, r5, lsl #7
	ldr	r2, [r3, #140]
	.loc 1 1679 57
	orrs	r2, r2, r7
	str	r2, [r3, #140]
	.loc 1 1682 3 is_stmt 1
	.loc 1 1682 12 is_stmt 0
	ldr	r2, [r4]
	.loc 1 1682 35
	ldr	r3, [r2]
	.loc 1 1682 61
	ldr	r1, .L356+8
	ldr	r1, [r1, r5, lsl #2]
	.loc 1 1682 40
	orrs	r3, r3, r1
	str	r3, [r2]
	.loc 1 1684 3 is_stmt 1
	.loc 1 1684 17 is_stmt 0
	movs	r3, #1
	strb	r3, [r4, #193]
	.loc 1 1687 3 is_stmt 1
	.loc 1 1687 7
	.loc 1 1687 22 is_stmt 0
	movs	r3, #0
	strb	r3, [r4, #192]
	.loc 1 1687 5 is_stmt 1
	.loc 1 1689 3
.LVL471:
.L347:
	.loc 1 1690 1 is_stmt 0
	pop	{r3, r4, r5, r6, r7, pc}
.LVL472:
.L353:
	.loc 1 1629 5 is_stmt 1
	.loc 1 1629 7 is_stmt 0
	ldr	r3, [sp, #24]
.LVL473:
	cmp	r3, #0
	it	ne
	cmpne	r6, #0
	beq	.L347
	.loc 1 1629 46 discriminator 1
	ldr	r3, [sp, #28]
	cmp	r3, #0
	beq	.L347
	.loc 1 1635 7 is_stmt 1
	.loc 1 1635 21 is_stmt 0
	movs	r3, #2
	strb	r3, [r4, #193]
	b	.L348
.LVL474:
.L354:
	.loc 1 1653 4 is_stmt 1
	.loc 1 1653 18 is_stmt 0
	movs	r3, #7
	strb	r3, [r4, #193]
	.loc 1 1656 4 is_stmt 1
	.loc 1 1656 8
	.loc 1 1656 23 is_stmt 0
	movs	r3, #0
	strb	r3, [r4, #192]
	.loc 1 1656 6 is_stmt 1
	.loc 1 1658 4
	.loc 1 1658 11 is_stmt 0
	movs	r0, #1
.LVL475:
	b	.L347
.L355:
	.loc 1 1670 9 is_stmt 1
	.loc 1 1670 23 is_stmt 0
	movs	r3, #7
	strb	r3, [r4, #193]
	.loc 1 1673 9 is_stmt 1
	.loc 1 1673 13
	.loc 1 1673 28 is_stmt 0
	movs	r3, #0
	strb	r3, [r4, #192]
	.loc 1 1673 11 is_stmt 1
	.loc 1 1675 9
	.loc 1 1675 16 is_stmt 0
	movs	r0, #1
	b	.L347
.LVL476:
.L351:
	.loc 1 1640 49
	movs	r0, #2
	b	.L347
.L357:
	.align	2
.L356:
	.word	HRTIM_DMAError
	.word	HRTIM_DMATimerxCplt
	.word	TimerIdxToTimerId
	.cfi_endproc
.LFE351:
	.size	HAL_HRTIM_SimpleOCStart_DMA, .-HAL_HRTIM_SimpleOCStart_DMA
	.section	.text.HAL_HRTIM_SimpleOCStop_DMA,"ax",%progbits
	.align	1
	.global	HAL_HRTIM_SimpleOCStop_DMA
	.syntax unified
	.thumb
	.thumb_func
	.type	HAL_HRTIM_SimpleOCStop_DMA, %function
HAL_HRTIM_SimpleOCStop_DMA:
.LFB352:
	.loc 1 1720 1 is_stmt 1
	.cfi_startproc
	@ args = 0, pretend = 0, frame = 0
	@ frame_needed = 0, uses_anonymous_args = 0
.LVL477:
	push	{r3, r4, r5, r6, r7, lr}
	.cfi_def_cfa_offset 24
	.cfi_offset 3, -24
	.cfi_offset 4, -20
	.cfi_offset 5, -16
	.cfi_offset 6, -12
	.cfi_offset 7, -8
	.cfi_offset 14, -4
	.loc 1 1721 3
	.loc 1 1724 3
	.loc 1 1727 3
	.loc 1 1727 7
	.loc 1 1727 18 is_stmt 0
	ldrb	r3, [r0, #192]	@ zero_extendqisi2
	.loc 1 1727 9
	cmp	r3, #1
	beq	.L367
	mov	r4, r0
	mov	r5, r1
	mov	r6, r2
	.loc 1 1727 68 is_stmt 1 discriminator 2
	.loc 1 1727 83 is_stmt 0 discriminator 2
	movs	r3, #1
	strb	r3, [r0, #192]
	.loc 1 1727 5 is_stmt 1 discriminator 2
	.loc 1 1729 3 discriminator 2
	.loc 1 1729 17 is_stmt 0 discriminator 2
	movs	r3, #2
	strb	r3, [r0, #193]
	.loc 1 1732 3 is_stmt 1 discriminator 2
	.loc 1 1732 9 is_stmt 0 discriminator 2
	ldr	r2, [r0]
.LVL478:
	.loc 1 1732 32 discriminator 2
	ldr	r3, [r2, #920]
	.loc 1 1732 39 discriminator 2
	orrs	r3, r3, r6
	str	r3, [r2, #920]
	.loc 1 1736 3 is_stmt 1 discriminator 2
	.loc 1 1736 7 is_stmt 0 discriminator 2
	bl	HRTIM_GetDMAHandleFromTimerIdx
.LVL479:
	bl	HAL_DMA_Abort
.LVL480:
	.loc 1 1736 6 discriminator 2
	mov	r7, r0
	cbz	r0, .L360
	.loc 1 1738 5 is_stmt 1
	.loc 1 1738 19 is_stmt 0
	movs	r3, #7
	strb	r3, [r4, #193]
	.loc 1 1741 5 is_stmt 1
	.loc 1 1741 9
	.loc 1 1741 24 is_stmt 0
	movs	r3, #0
	strb	r3, [r4, #192]
	.loc 1 1741 7 is_stmt 1
	.loc 1 1743 5
	.loc 1 1743 12 is_stmt 0
	movs	r7, #1
.LVL481:
.L359:
	.loc 1 1761 1
	mov	r0, r7
	pop	{r3, r4, r5, r6, r7, pc}
.LVL482:
.L360:
	.loc 1 1747 3 is_stmt 1
	.loc 1 1747 17 is_stmt 0
	mov	r2, r6
	mov	r1, r5
	mov	r0, r4
	bl	HRTIM_GetDMAFromOCMode
.LVL483:
	.loc 1 1750 3 is_stmt 1
	.loc 1 1750 12 is_stmt 0
	ldr	r3, [r4]
	.loc 1 1750 47
	add	r3, r3, r5, lsl #7
	ldr	r2, [r3, #140]
	.loc 1 1750 57
	bic	r2, r2, r0
	str	r2, [r3, #140]
	.loc 1 1753 3 is_stmt 1
	.loc 1 1753 8
	.loc 1 1753 31 is_stmt 0
	ldr	r3, .L369
	ldr	r3, [r3, r5, lsl #2]
	.loc 1 1753 11
	tst	r3, #65536
	beq	.L361
	.loc 1 1753 90 is_stmt 1 discriminator 1
	.loc 1 1753 99 is_stmt 0 discriminator 1
	ldr	r2, [r4]
	.loc 1 1753 122 discriminator 1
	ldr	r3, [r2]
	.loc 1 1753 127 discriminator 1
	bic	r3, r3, #65536
	str	r3, [r2]
.L361:
	.loc 1 1753 154 is_stmt 1 discriminator 3
	.loc 1 1753 177 is_stmt 0 discriminator 3
	ldr	r3, .L369
	ldr	r3, [r3, r5, lsl #2]
	.loc 1 1753 157 discriminator 3
	tst	r3, #131072
	beq	.L362
	.loc 1 1753 236 is_stmt 1 discriminator 4
	.loc 1 1753 249 is_stmt 0 discriminator 4
	ldr	r3, [r4]
	.loc 1 1753 272 discriminator 4
	ldr	r2, [r3, #916]
	.loc 1 1753 239 discriminator 4
	tst	r2, #3
	bne	.L362
	.loc 1 1753 339 is_stmt 1 discriminator 6
	.loc 1 1753 371 is_stmt 0 discriminator 6
	ldr	r2, [r3]
	.loc 1 1753 376 discriminator 6
	bic	r2, r2, #131072
	str	r2, [r3]
.L362:
	.loc 1 1753 405 is_stmt 1 discriminator 8
	.loc 1 1753 428 is_stmt 0 discriminator 8
	ldr	r3, .L369
	ldr	r3, [r3, r5, lsl #2]
	.loc 1 1753 408 discriminator 8
	tst	r3, #262144
	beq	.L363
	.loc 1 1753 487 is_stmt 1 discriminator 9
	.loc 1 1753 500 is_stmt 0 discriminator 9
	ldr	r3, [r4]
	.loc 1 1753 523 discriminator 9
	ldr	r2, [r3, #916]
	.loc 1 1753 490 discriminator 9
	tst	r2, #12
	bne	.L363
	.loc 1 1753 590 is_stmt 1 discriminator 11
	.loc 1 1753 622 is_stmt 0 discriminator 11
	ldr	r2, [r3]
	.loc 1 1753 627 discriminator 11
	bic	r2, r2, #262144
	str	r2, [r3]
.L363:
	.loc 1 1753 656 is_stmt 1 discriminator 13
	.loc 1 1753 679 is_stmt 0 discriminator 13
	ldr	r3, .L369
	ldr	r3, [r3, r5, lsl #2]
	.loc 1 1753 659 discriminator 13
	tst	r3, #524288
	beq	.L364
	.loc 1 1753 738 is_stmt 1 discriminator 14
	.loc 1 1753 751 is_stmt 0 discriminator 14
	ldr	r3, [r4]
	.loc 1 1753 774 discriminator 14
	ldr	r2, [r3, #916]
	.loc 1 1753 741 discriminator 14
	tst	r2, #48
	bne	.L364
	.loc 1 1753 841 is_stmt 1 discriminator 16
	.loc 1 1753 873 is_stmt 0 discriminator 16
	ldr	r2, [r3]
	.loc 1 1753 878 discriminator 16
	bic	r2, r2, #524288
	str	r2, [r3]
.L364:
	.loc 1 1753 907 is_stmt 1 discriminator 18
	.loc 1 1753 930 is_stmt 0 discriminator 18
	ldr	r3, .L369
	ldr	r3, [r3, r5, lsl #2]
	.loc 1 1753 910 discriminator 18
	tst	r3, #1048576
	beq	.L365
	.loc 1 1753 989 is_stmt 1 discriminator 19
	.loc 1 1753 1002 is_stmt 0 discriminator 19
	ldr	r3, [r4]
	.loc 1 1753 1025 discriminator 19
	ldr	r2, [r3, #916]
	.loc 1 1753 992 discriminator 19
	tst	r2, #192
	bne	.L365
	.loc 1 1753 1092 is_stmt 1 discriminator 21
	.loc 1 1753 1124 is_stmt 0 discriminator 21
	ldr	r2, [r3]
	.loc 1 1753 1129 discriminator 21
	bic	r2, r2, #1048576
	str	r2, [r3]
.L365:
	.loc 1 1753 1158 is_stmt 1 discriminator 23
	.loc 1 1753 1181 is_stmt 0 discriminator 23
	ldr	r3, .L369
	ldr	r3, [r3, r5, lsl #2]
	.loc 1 1753 1161 discriminator 23
	tst	r3, #2097152
	beq	.L366
	.loc 1 1753 1240 is_stmt 1 discriminator 24
	.loc 1 1753 1253 is_stmt 0 discriminator 24
	ldr	r3, [r4]
	.loc 1 1753 1276 discriminator 24
	ldr	r2, [r3, #916]
	.loc 1 1753 1243 discriminator 24
	tst	r2, #768
	bne	.L366
	.loc 1 1753 1343 is_stmt 1 discriminator 26
	.loc 1 1753 1375 is_stmt 0 discriminator 26
	ldr	r2, [r3]
	.loc 1 1753 1380 discriminator 26
	bic	r2, r2, #2097152
	str	r2, [r3]
.L366:
	.loc 1 1753 6 is_stmt 1 discriminator 28
	.loc 1 1755 3 discriminator 28
	.loc 1 1755 17 is_stmt 0 discriminator 28
	movs	r3, #1
	strb	r3, [r4, #193]
	.loc 1 1758 3 is_stmt 1 discriminator 28
	.loc 1 1758 7 discriminator 28
	.loc 1 1758 22 is_stmt 0 discriminator 28
	movs	r3, #0
	strb	r3, [r4, #192]
	.loc 1 1758 5 is_stmt 1 discriminator 28
	.loc 1 1760 3 discriminator 28
	.loc 1 1760 10 is_stmt 0 discriminator 28
	b	.L359
.LVL484:
.L367:
	.loc 1 1727 49
	movs	r7, #2
	b	.L359
.L370:
	.align	2
.L369:
	.word	TimerIdxToTimerId
	.cfi_endproc
.LFE352:
	.size	HAL_HRTIM_SimpleOCStop_DMA, .-HAL_HRTIM_SimpleOCStop_DMA
	.section	.text.HAL_HRTIM_SimplePWMChannelConfig,"ax",%progbits
	.align	1
	.global	HAL_HRTIM_SimplePWMChannelConfig
	.syntax unified
	.thumb
	.thumb_func
	.type	HAL_HRTIM_SimplePWMChannelConfig, %function
HAL_HRTIM_SimplePWMChannelConfig:
.LFB353:
	.loc 1 1829 1 is_stmt 1
	.cfi_startproc
	@ args = 0, pretend = 0, frame = 32
	@ frame_needed = 0, uses_anonymous_args = 0
.LVL485:
	push	{r4, r5, r6, lr}
	.cfi_def_cfa_offset 16
	.cfi_offset 4, -16
	.cfi_offset 5, -12
	.cfi_offset 6, -8
	.cfi_offset 14, -4
	sub	sp, sp, #32
	.cfi_def_cfa_offset 48
	mov	r4, r0
	.loc 1 1830 3
	.loc 1 1831 3
	.loc 1 1834 3
	.loc 1 1835 3
	.loc 1 1836 3
	.loc 1 1837 3
	.loc 1 1839 3
	.loc 1 1839 12 is_stmt 0
	ldrb	r0, [r0, #193]	@ zero_extendqisi2
.LVL486:
	uxtb	r0, r0
	.loc 1 1839 5
	cmp	r0, #2
	beq	.L372
	mov	r6, r1
	.loc 1 1845 3 is_stmt 1
	.loc 1 1845 7
	.loc 1 1845 18 is_stmt 0
	ldrb	r1, [r4, #192]	@ zero_extendqisi2
.LVL487:
	.loc 1 1845 9
	cmp	r1, #1
	beq	.L380
	.loc 1 1845 68 is_stmt 1 discriminator 2
	.loc 1 1845 83 is_stmt 0 discriminator 2
	movs	r1, #1
	strb	r1, [r4, #192]
	.loc 1 1845 5 is_stmt 1 discriminator 2
	.loc 1 1847 3 discriminator 2
	.loc 1 1847 17 is_stmt 0 discriminator 2
	movs	r1, #2
	strb	r1, [r4, #193]
	.loc 1 1850 3 is_stmt 1 discriminator 2
	cmp	r2, #32
	bhi	.L373
	.loc 1 1850 3 is_stmt 0
	cmp	r2, r1
	bcs	.L374
	cmp	r2, #1
	bne	.L376
.L375:
	.loc 1 1858 7 is_stmt 1
	.loc 1 1858 13 is_stmt 0
	ldr	r1, [r4]
	.loc 1 1858 76
	ldr	r0, [r3]
	.loc 1 1858 54
	add	r1, r1, r6, lsl #7
	str	r0, [r1, #156]
	.loc 1 1859 7 is_stmt 1
	.loc 1 1859 27 is_stmt 0
	movs	r1, #8
	str	r1, [sp, #4]
	.loc 1 1860 7 is_stmt 1
.L379:
	.loc 1 1887 3
	.loc 1 1887 12 is_stmt 0
	ldrb	r1, [r4, #193]	@ zero_extendqisi2
	uxtb	r1, r1
	.loc 1 1887 5
	cmp	r1, #7
	beq	.L381
	.loc 1 1893 3 is_stmt 1
	.loc 1 1893 45 is_stmt 0
	ldr	r1, [r3, #4]
	.loc 1 1893 56
	and	r1, r1, #2
	.loc 1 1893 22
	str	r1, [sp]
	.loc 1 1894 3 is_stmt 1
	.loc 1 1894 46 is_stmt 0
	ldr	r3, [r3, #8]
.LVL488:
	.loc 1 1894 57
	and	r3, r3, #8
	.loc 1 1894 23
	str	r3, [sp, #16]
	.loc 1 1895 3 is_stmt 1
	.loc 1 1895 24 is_stmt 0
	movs	r5, #0
	str	r5, [sp, #20]
	.loc 1 1896 3 is_stmt 1
	.loc 1 1896 22 is_stmt 0
	str	r5, [sp, #12]
	.loc 1 1897 3 is_stmt 1
	.loc 1 1897 31 is_stmt 0
	str	r5, [sp, #24]
	.loc 1 1898 3 is_stmt 1
	.loc 1 1898 35 is_stmt 0
	str	r5, [sp, #28]
	.loc 1 1899 3 is_stmt 1
	.loc 1 1899 25 is_stmt 0
	movs	r3, #4
	str	r3, [sp, #8]
	.loc 1 1901 3 is_stmt 1
	mov	r3, sp
	mov	r1, r6
	mov	r0, r4
	bl	HRTIM_OutputConfig
.LVL489:
	.loc 1 1907 3
	.loc 1 1907 23 is_stmt 0
	ldr	r2, [r4]
	.loc 1 1907 15
	adds	r6, r6, #1
.LVL490:
	lsls	r6, r6, #7
.LVL491:
	ldr	r3, [r2, r6]
.LVL492:
	.loc 1 1908 3 is_stmt 1
	.loc 1 1908 15 is_stmt 0
	orr	r3, r3, #134217728
.LVL493:
	.loc 1 1909 3 is_stmt 1
	.loc 1 1909 50 is_stmt 0
	str	r3, [r2, r6]
	.loc 1 1911 3 is_stmt 1
	.loc 1 1911 17 is_stmt 0
	movs	r3, #1
.LVL494:
	strb	r3, [r4, #193]
.LVL495:
	.loc 1 1914 3 is_stmt 1
	.loc 1 1914 7
	.loc 1 1914 22 is_stmt 0
	strb	r5, [r4, #192]
	.loc 1 1914 5 is_stmt 1
	.loc 1 1916 3
	.loc 1 1916 10 is_stmt 0
	mov	r0, r5
.LVL496:
.L372:
	.loc 1 1917 1
	add	sp, sp, #32
	.cfi_remember_state
	.cfi_def_cfa_offset 16
	@ sp needed
	pop	{r4, r5, r6, pc}
.LVL497:
.L374:
	.cfi_restore_state
	.loc 1 1850 3
	subs	r0, r2, #2
	movs	r1, #1
	lsls	r1, r1, r0
	ldr	r0, .L384
	tst	r1, r0
	bne	.L377
	movw	r0, #16388
	tst	r1, r0
	bne	.L375
.L376:
	.loc 1 1875 7 is_stmt 1
	.loc 1 1875 27 is_stmt 0
	movs	r1, #0
	str	r1, [sp, #4]
	.loc 1 1876 7 is_stmt 1
	.loc 1 1876 29 is_stmt 0
	str	r1, [sp, #8]
	.loc 1 1878 7 is_stmt 1
	.loc 1 1878 21 is_stmt 0
	movs	r0, #7
	strb	r0, [r4, #193]
	.loc 1 1881 7 is_stmt 1
	.loc 1 1881 11
	.loc 1 1881 26 is_stmt 0
	strb	r1, [r4, #192]
	.loc 1 1881 9 is_stmt 1
	.loc 1 1883 7
	b	.L379
.L373:
	.loc 1 1850 3 is_stmt 0
	cmp	r2, #256
	beq	.L375
	bls	.L383
	cmp	r2, #512
	bne	.L376
	b	.L377
.L383:
	cmp	r2, #64
	beq	.L375
	cmp	r2, #128
	bne	.L376
.L377:
	.loc 1 1869 7 is_stmt 1
	.loc 1 1869 13 is_stmt 0
	ldr	r1, [r4]
	.loc 1 1869 76
	ldr	r0, [r3]
	.loc 1 1869 54
	add	r1, r1, r6, lsl #7
	str	r0, [r1, #164]
	.loc 1 1870 7 is_stmt 1
	.loc 1 1870 27 is_stmt 0
	movs	r1, #16
	str	r1, [sp, #4]
	.loc 1 1871 7 is_stmt 1
	b	.L379
.L380:
	.loc 1 1845 49 is_stmt 0
	movs	r0, #2
	b	.L372
.L381:
	.loc 1 1889 13
	movs	r0, #1
	b	.L372
.L385:
	.align	2
.L384:
	.word	1073741889
	.cfi_endproc
.LFE353:
	.size	HAL_HRTIM_SimplePWMChannelConfig, .-HAL_HRTIM_SimplePWMChannelConfig
	.section	.text.HAL_HRTIM_SimplePWMStart,"ax",%progbits
	.align	1
	.global	HAL_HRTIM_SimplePWMStart
	.syntax unified
	.thumb
	.thumb_func
	.type	HAL_HRTIM_SimplePWMStart, %function
HAL_HRTIM_SimplePWMStart:
.LFB354:
	.loc 1 1946 1 is_stmt 1
	.cfi_startproc
	@ args = 0, pretend = 0, frame = 0
	@ frame_needed = 0, uses_anonymous_args = 0
	@ link register save eliminated.
.LVL498:
	mov	r3, r0
	.loc 1 1948 3
	.loc 1 1951 3
	.loc 1 1951 7
	.loc 1 1951 18 is_stmt 0
	ldrb	r0, [r0, #192]	@ zero_extendqisi2
.LVL499:
	.loc 1 1951 9
	cmp	r0, #1
	beq	.L388
	.loc 1 1946 1 discriminator 2
	push	{r4}
	.cfi_def_cfa_offset 4
	.cfi_offset 4, -4
	.loc 1 1951 68 is_stmt 1 discriminator 2
	.loc 1 1951 83 is_stmt 0 discriminator 2
	mov	ip, #1
	strb	ip, [r3, #192]
	.loc 1 1951 5 is_stmt 1 discriminator 2
	.loc 1 1953 3 discriminator 2
	.loc 1 1953 17 is_stmt 0 discriminator 2
	movs	r0, #2
	strb	r0, [r3, #193]
	.loc 1 1956 3 is_stmt 1 discriminator 2
	.loc 1 1956 9 is_stmt 0 discriminator 2
	ldr	r4, [r3]
	.loc 1 1956 32 discriminator 2
	ldr	r0, [r4, #916]
	.loc 1 1956 38 discriminator 2
	orrs	r2, r2, r0
.LVL500:
	str	r2, [r4, #916]
	.loc 1 1959 3 is_stmt 1 discriminator 2
	.loc 1 1959 12 is_stmt 0 discriminator 2
	ldr	r0, [r3]
	.loc 1 1959 35 discriminator 2
	ldr	r2, [r0]
	.loc 1 1959 61 discriminator 2
	ldr	r4, .L393
	ldr	r1, [r4, r1, lsl #2]
.LVL501:
	.loc 1 1959 40 discriminator 2
	orrs	r2, r2, r1
	str	r2, [r0]
	.loc 1 1961 3 is_stmt 1 discriminator 2
	.loc 1 1961 17 is_stmt 0 discriminator 2
	strb	ip, [r3, #193]
	.loc 1 1964 3 is_stmt 1 discriminator 2
	.loc 1 1964 7 discriminator 2
	.loc 1 1964 22 is_stmt 0 discriminator 2
	movs	r0, #0
	strb	r0, [r3, #192]
	.loc 1 1964 5 is_stmt 1 discriminator 2
	.loc 1 1966 3 discriminator 2
	.loc 1 1967 1 is_stmt 0 discriminator 2
	ldr	r4, [sp], #4
	.cfi_restore 4
	.cfi_def_cfa_offset 0
	bx	lr
.LVL502:
.L388:
	.loc 1 1951 49
	movs	r0, #2
	.loc 1 1967 1
	bx	lr
.L394:
	.align	2
.L393:
	.word	TimerIdxToTimerId
	.cfi_endproc
.LFE354:
	.size	HAL_HRTIM_SimplePWMStart, .-HAL_HRTIM_SimplePWMStart
	.section	.text.HAL_HRTIM_SimplePWMStop,"ax",%progbits
	.align	1
	.global	HAL_HRTIM_SimplePWMStop
	.syntax unified
	.thumb
	.thumb_func
	.type	HAL_HRTIM_SimplePWMStop, %function
HAL_HRTIM_SimplePWMStop:
.LFB355:
	.loc 1 1996 1 is_stmt 1
	.cfi_startproc
	@ args = 0, pretend = 0, frame = 0
	@ frame_needed = 0, uses_anonymous_args = 0
	@ link register save eliminated.
.LVL503:
	mov	r3, r0
	.loc 1 1998 3
	.loc 1 2001 3
	.loc 1 2001 7
	.loc 1 2001 18 is_stmt 0
	ldrb	r0, [r0, #192]	@ zero_extendqisi2
.LVL504:
	.loc 1 2001 9
	cmp	r0, #1
	beq	.L403
	.loc 1 1996 1 discriminator 2
	push	{r4}
	.cfi_def_cfa_offset 4
	.cfi_offset 4, -4
	.loc 1 2001 68 is_stmt 1 discriminator 2
	.loc 1 2001 83 is_stmt 0 discriminator 2
	movs	r0, #1
	strb	r0, [r3, #192]
	.loc 1 2001 5 is_stmt 1 discriminator 2
	.loc 1 2003 3 discriminator 2
	.loc 1 2003 17 is_stmt 0 discriminator 2
	movs	r0, #2
	strb	r0, [r3, #193]
	.loc 1 2006 3 is_stmt 1 discriminator 2
	.loc 1 2006 9 is_stmt 0 discriminator 2
	ldr	r4, [r3]
	.loc 1 2006 32 discriminator 2
	ldr	r0, [r4, #920]
	.loc 1 2006 39 discriminator 2
	orrs	r2, r2, r0
.LVL505:
	str	r2, [r4, #920]
	.loc 1 2009 3 is_stmt 1 discriminator 2
	.loc 1 2009 8 discriminator 2
	.loc 1 2009 31 is_stmt 0 discriminator 2
	ldr	r2, .L408
	ldr	r2, [r2, r1, lsl #2]
	.loc 1 2009 11 discriminator 2
	tst	r2, #65536
	beq	.L397
	.loc 1 2009 90 is_stmt 1 discriminator 1
	.loc 1 2009 99 is_stmt 0 discriminator 1
	ldr	r0, [r3]
	.loc 1 2009 122 discriminator 1
	ldr	r2, [r0]
	.loc 1 2009 127 discriminator 1
	bic	r2, r2, #65536
	str	r2, [r0]
.L397:
	.loc 1 2009 154 is_stmt 1 discriminator 3
	.loc 1 2009 177 is_stmt 0 discriminator 3
	ldr	r2, .L408
	ldr	r2, [r2, r1, lsl #2]
	.loc 1 2009 157 discriminator 3
	tst	r2, #131072
	beq	.L398
	.loc 1 2009 236 is_stmt 1 discriminator 4
	.loc 1 2009 249 is_stmt 0 discriminator 4
	ldr	r2, [r3]
	.loc 1 2009 272 discriminator 4
	ldr	r0, [r2, #916]
	.loc 1 2009 239 discriminator 4
	tst	r0, #3
	bne	.L398
	.loc 1 2009 339 is_stmt 1 discriminator 6
	.loc 1 2009 371 is_stmt 0 discriminator 6
	ldr	r0, [r2]
	.loc 1 2009 376 discriminator 6
	bic	r0, r0, #131072
	str	r0, [r2]
.L398:
	.loc 1 2009 405 is_stmt 1 discriminator 8
	.loc 1 2009 428 is_stmt 0 discriminator 8
	ldr	r2, .L408
	ldr	r2, [r2, r1, lsl #2]
	.loc 1 2009 408 discriminator 8
	tst	r2, #262144
	beq	.L399
	.loc 1 2009 487 is_stmt 1 discriminator 9
	.loc 1 2009 500 is_stmt 0 discriminator 9
	ldr	r2, [r3]
	.loc 1 2009 523 discriminator 9
	ldr	r0, [r2, #916]
	.loc 1 2009 490 discriminator 9
	tst	r0, #12
	bne	.L399
	.loc 1 2009 590 is_stmt 1 discriminator 11
	.loc 1 2009 622 is_stmt 0 discriminator 11
	ldr	r0, [r2]
	.loc 1 2009 627 discriminator 11
	bic	r0, r0, #262144
	str	r0, [r2]
.L399:
	.loc 1 2009 656 is_stmt 1 discriminator 13
	.loc 1 2009 679 is_stmt 0 discriminator 13
	ldr	r2, .L408
	ldr	r2, [r2, r1, lsl #2]
	.loc 1 2009 659 discriminator 13
	tst	r2, #524288
	beq	.L400
	.loc 1 2009 738 is_stmt 1 discriminator 14
	.loc 1 2009 751 is_stmt 0 discriminator 14
	ldr	r2, [r3]
	.loc 1 2009 774 discriminator 14
	ldr	r0, [r2, #916]
	.loc 1 2009 741 discriminator 14
	tst	r0, #48
	bne	.L400
	.loc 1 2009 841 is_stmt 1 discriminator 16
	.loc 1 2009 873 is_stmt 0 discriminator 16
	ldr	r0, [r2]
	.loc 1 2009 878 discriminator 16
	bic	r0, r0, #524288
	str	r0, [r2]
.L400:
	.loc 1 2009 907 is_stmt 1 discriminator 18
	.loc 1 2009 930 is_stmt 0 discriminator 18
	ldr	r2, .L408
	ldr	r2, [r2, r1, lsl #2]
	.loc 1 2009 910 discriminator 18
	tst	r2, #1048576
	beq	.L401
	.loc 1 2009 989 is_stmt 1 discriminator 19
	.loc 1 2009 1002 is_stmt 0 discriminator 19
	ldr	r2, [r3]
	.loc 1 2009 1025 discriminator 19
	ldr	r0, [r2, #916]
	.loc 1 2009 992 discriminator 19
	tst	r0, #192
	bne	.L401
	.loc 1 2009 1092 is_stmt 1 discriminator 21
	.loc 1 2009 1124 is_stmt 0 discriminator 21
	ldr	r0, [r2]
	.loc 1 2009 1129 discriminator 21
	bic	r0, r0, #1048576
	str	r0, [r2]
.L401:
	.loc 1 2009 1158 is_stmt 1 discriminator 23
	.loc 1 2009 1181 is_stmt 0 discriminator 23
	ldr	r2, .L408
	ldr	r2, [r2, r1, lsl #2]
	.loc 1 2009 1161 discriminator 23
	tst	r2, #2097152
	beq	.L402
	.loc 1 2009 1240 is_stmt 1 discriminator 24
	.loc 1 2009 1253 is_stmt 0 discriminator 24
	ldr	r2, [r3]
	.loc 1 2009 1276 discriminator 24
	ldr	r1, [r2, #916]
.LVL506:
	.loc 1 2009 1243 discriminator 24
	tst	r1, #768
	bne	.L402
	.loc 1 2009 1343 is_stmt 1 discriminator 26
	.loc 1 2009 1375 is_stmt 0 discriminator 26
	ldr	r1, [r2]
	.loc 1 2009 1380 discriminator 26
	bic	r1, r1, #2097152
	str	r1, [r2]
.L402:
	.loc 1 2009 6 is_stmt 1 discriminator 28
	.loc 1 2011 3 discriminator 28
	.loc 1 2011 17 is_stmt 0 discriminator 28
	movs	r2, #1
	strb	r2, [r3, #193]
	.loc 1 2014 3 is_stmt 1 discriminator 28
	.loc 1 2014 7 discriminator 28
	.loc 1 2014 22 is_stmt 0 discriminator 28
	movs	r0, #0
	strb	r0, [r3, #192]
	.loc 1 2014 5 is_stmt 1 discriminator 28
	.loc 1 2016 3 discriminator 28
	.loc 1 2017 1 is_stmt 0 discriminator 28
	ldr	r4, [sp], #4
	.cfi_restore 4
	.cfi_def_cfa_offset 0
	bx	lr
.LVL507:
.L403:
	.loc 1 2001 49
	movs	r0, #2
	.loc 1 2017 1
	bx	lr
.L409:
	.align	2
.L408:
	.word	TimerIdxToTimerId
	.cfi_endproc
.LFE355:
	.size	HAL_HRTIM_SimplePWMStop, .-HAL_HRTIM_SimplePWMStop
	.section	.text.HAL_HRTIM_SimplePWMStart_IT,"ax",%progbits
	.align	1
	.global	HAL_HRTIM_SimplePWMStart_IT
	.syntax unified
	.thumb
	.thumb_func
	.type	HAL_HRTIM_SimplePWMStart_IT, %function
HAL_HRTIM_SimplePWMStart_IT:
.LFB356:
	.loc 1 2047 1 is_stmt 1
	.cfi_startproc
	@ args = 0, pretend = 0, frame = 0
	@ frame_needed = 0, uses_anonymous_args = 0
	@ link register save eliminated.
.LVL508:
	mov	r3, r0
	.loc 1 2049 3
	.loc 1 2052 3
	.loc 1 2052 7
	.loc 1 2052 18 is_stmt 0
	ldrb	r0, [r0, #192]	@ zero_extendqisi2
.LVL509:
	.loc 1 2052 9
	cmp	r0, #1
	beq	.L419
	.loc 1 2047 1 discriminator 2
	push	{r4}
	.cfi_def_cfa_offset 4
	.cfi_offset 4, -4
	.loc 1 2052 68 is_stmt 1 discriminator 2
	.loc 1 2052 83 is_stmt 0 discriminator 2
	movs	r0, #1
	strb	r0, [r3, #192]
	.loc 1 2052 5 is_stmt 1 discriminator 2
	.loc 1 2054 3 discriminator 2
	.loc 1 2054 17 is_stmt 0 discriminator 2
	movs	r0, #2
	strb	r0, [r3, #193]
	.loc 1 2057 3 is_stmt 1 discriminator 2
	.loc 1 2057 9 is_stmt 0 discriminator 2
	ldr	r4, [r3]
	.loc 1 2057 32 discriminator 2
	ldr	r0, [r4, #916]
	.loc 1 2057 38 discriminator 2
	orrs	r0, r0, r2
	str	r0, [r4, #916]
	.loc 1 2060 3 is_stmt 1 discriminator 2
	cmp	r2, #32
	bhi	.L412
	.loc 1 2060 3 is_stmt 0
	cmp	r2, #2
	bcs	.L413
	cmp	r2, #1
	bne	.L415
.LVL510:
.L414:
	.loc 1 2068 7 is_stmt 1
	.loc 1 2068 16 is_stmt 0
	ldr	r2, [r3]
	.loc 1 2068 51
	add	r2, r2, r1, lsl #7
	ldr	r0, [r2, #140]
	.loc 1 2068 61
	orr	r0, r0, #1
	str	r0, [r2, #140]
	.loc 1 2069 7 is_stmt 1
.L418:
	.loc 1 2093 3
	.loc 1 2093 12 is_stmt 0
	ldrb	r2, [r3, #193]	@ zero_extendqisi2
	uxtb	r2, r2
	.loc 1 2093 5
	cmp	r2, #7
	beq	.L420
	.loc 1 2099 3 is_stmt 1
	.loc 1 2099 12 is_stmt 0
	ldr	r0, [r3]
	.loc 1 2099 35
	ldr	r2, [r0]
	.loc 1 2099 61
	ldr	r4, .L426
	ldr	r1, [r4, r1, lsl #2]
.LVL511:
	.loc 1 2099 40
	orrs	r2, r2, r1
	str	r2, [r0]
	.loc 1 2101 3 is_stmt 1
	.loc 1 2101 17 is_stmt 0
	movs	r2, #1
	strb	r2, [r3, #193]
	.loc 1 2104 3 is_stmt 1
	.loc 1 2104 7
	.loc 1 2104 22 is_stmt 0
	movs	r0, #0
	strb	r0, [r3, #192]
	.loc 1 2104 5 is_stmt 1
	.loc 1 2106 3
.L411:
	.loc 1 2107 1 is_stmt 0
	ldr	r4, [sp], #4
	.cfi_remember_state
	.cfi_restore 4
	.cfi_def_cfa_offset 0
	bx	lr
.LVL512:
.L413:
	.cfi_restore_state
	.loc 1 2060 3
	subs	r2, r2, #2
.LVL513:
	movs	r0, #1
	lsl	r2, r0, r2
.LVL514:
	ldr	r0, .L426+4
	tst	r2, r0
	bne	.L416
	movw	r0, #16388
	tst	r2, r0
	bne	.L414
.L415:
	.loc 1 2084 7 is_stmt 1
	.loc 1 2084 21 is_stmt 0
	movs	r2, #7
	strb	r2, [r3, #193]
	.loc 1 2087 7 is_stmt 1
	.loc 1 2087 11
	.loc 1 2087 26 is_stmt 0
	movs	r2, #0
	strb	r2, [r3, #192]
	.loc 1 2087 9 is_stmt 1
	.loc 1 2089 7
	b	.L418
.LVL515:
.L412:
	.loc 1 2060 3 is_stmt 0
	cmp	r2, #256
	beq	.L414
	bls	.L425
	cmp	r2, #512
	bne	.L415
	b	.L416
.L425:
	cmp	r2, #64
	beq	.L414
	cmp	r2, #128
	bne	.L415
.LVL516:
.L416:
	.loc 1 2078 7 is_stmt 1
	.loc 1 2078 16 is_stmt 0
	ldr	r2, [r3]
	.loc 1 2078 51
	add	r2, r2, r1, lsl #7
	ldr	r0, [r2, #140]
	.loc 1 2078 61
	orr	r0, r0, #2
	str	r0, [r2, #140]
	.loc 1 2079 7 is_stmt 1
	b	.L418
.LVL517:
.L419:
	.cfi_def_cfa_offset 0
	.cfi_restore 4
	.loc 1 2052 49 is_stmt 0
	movs	r0, #2
	.loc 1 2107 1
	bx	lr
.LVL518:
.L420:
	.cfi_def_cfa_offset 4
	.cfi_offset 4, -4
	.loc 1 2095 13
	movs	r0, #1
	b	.L411
.L427:
	.align	2
.L426:
	.word	TimerIdxToTimerId
	.word	1073741889
	.cfi_endproc
.LFE356:
	.size	HAL_HRTIM_SimplePWMStart_IT, .-HAL_HRTIM_SimplePWMStart_IT
	.section	.text.HAL_HRTIM_SimplePWMStop_IT,"ax",%progbits
	.align	1
	.global	HAL_HRTIM_SimplePWMStop_IT
	.syntax unified
	.thumb
	.thumb_func
	.type	HAL_HRTIM_SimplePWMStop_IT, %function
HAL_HRTIM_SimplePWMStop_IT:
.LFB357:
	.loc 1 2137 1 is_stmt 1
	.cfi_startproc
	@ args = 0, pretend = 0, frame = 0
	@ frame_needed = 0, uses_anonymous_args = 0
	@ link register save eliminated.
.LVL519:
	mov	r3, r0
	.loc 1 2139 3
	.loc 1 2142 3
	.loc 1 2142 7
	.loc 1 2142 18 is_stmt 0
	ldrb	r0, [r0, #192]	@ zero_extendqisi2
.LVL520:
	.loc 1 2142 9
	cmp	r0, #1
	beq	.L443
	.loc 1 2137 1 discriminator 2
	push	{r4}
	.cfi_def_cfa_offset 4
	.cfi_offset 4, -4
	.loc 1 2142 68 is_stmt 1 discriminator 2
	.loc 1 2142 83 is_stmt 0 discriminator 2
	movs	r0, #1
	strb	r0, [r3, #192]
	.loc 1 2142 5 is_stmt 1 discriminator 2
	.loc 1 2144 3 discriminator 2
	.loc 1 2144 17 is_stmt 0 discriminator 2
	movs	r0, #2
	strb	r0, [r3, #193]
	.loc 1 2147 3 is_stmt 1 discriminator 2
	.loc 1 2147 9 is_stmt 0 discriminator 2
	ldr	r4, [r3]
	.loc 1 2147 32 discriminator 2
	ldr	r0, [r4, #920]
	.loc 1 2147 39 discriminator 2
	orrs	r0, r0, r2
	str	r0, [r4, #920]
	.loc 1 2150 3 is_stmt 1 discriminator 2
	cmp	r2, #32
	bhi	.L430
	.loc 1 2150 3 is_stmt 0
	cmp	r2, #2
	bcs	.L431
	cmp	r2, #1
	bne	.L433
.LVL521:
.L432:
	.loc 1 2158 7 is_stmt 1
	.loc 1 2158 16 is_stmt 0
	ldr	r2, [r3]
	.loc 1 2158 51
	add	r2, r2, r1, lsl #7
	ldr	r0, [r2, #140]
	.loc 1 2158 61
	bic	r0, r0, #1
	str	r0, [r2, #140]
	.loc 1 2159 7 is_stmt 1
.L436:
	.loc 1 2183 3
	.loc 1 2183 12 is_stmt 0
	ldrb	r2, [r3, #193]	@ zero_extendqisi2
	uxtb	r2, r2
	.loc 1 2183 5
	cmp	r2, #7
	beq	.L444
	.loc 1 2189 3 is_stmt 1
	.loc 1 2189 8
	.loc 1 2189 31 is_stmt 0
	ldr	r2, .L450
	ldr	r2, [r2, r1, lsl #2]
	.loc 1 2189 11
	tst	r2, #65536
	beq	.L437
	.loc 1 2189 90 is_stmt 1 discriminator 1
	.loc 1 2189 99 is_stmt 0 discriminator 1
	ldr	r0, [r3]
	.loc 1 2189 122 discriminator 1
	ldr	r2, [r0]
	.loc 1 2189 127 discriminator 1
	bic	r2, r2, #65536
	str	r2, [r0]
.L437:
	.loc 1 2189 154 is_stmt 1 discriminator 3
	.loc 1 2189 177 is_stmt 0 discriminator 3
	ldr	r2, .L450
	ldr	r2, [r2, r1, lsl #2]
	.loc 1 2189 157 discriminator 3
	tst	r2, #131072
	beq	.L438
	.loc 1 2189 236 is_stmt 1 discriminator 4
	.loc 1 2189 249 is_stmt 0 discriminator 4
	ldr	r2, [r3]
	.loc 1 2189 272 discriminator 4
	ldr	r0, [r2, #916]
	.loc 1 2189 239 discriminator 4
	tst	r0, #3
	bne	.L438
	.loc 1 2189 339 is_stmt 1 discriminator 6
	.loc 1 2189 371 is_stmt 0 discriminator 6
	ldr	r0, [r2]
	.loc 1 2189 376 discriminator 6
	bic	r0, r0, #131072
	str	r0, [r2]
.L438:
	.loc 1 2189 405 is_stmt 1 discriminator 8
	.loc 1 2189 428 is_stmt 0 discriminator 8
	ldr	r2, .L450
	ldr	r2, [r2, r1, lsl #2]
	.loc 1 2189 408 discriminator 8
	tst	r2, #262144
	beq	.L439
	.loc 1 2189 487 is_stmt 1 discriminator 9
	.loc 1 2189 500 is_stmt 0 discriminator 9
	ldr	r2, [r3]
	.loc 1 2189 523 discriminator 9
	ldr	r0, [r2, #916]
	.loc 1 2189 490 discriminator 9
	tst	r0, #12
	bne	.L439
	.loc 1 2189 590 is_stmt 1 discriminator 11
	.loc 1 2189 622 is_stmt 0 discriminator 11
	ldr	r0, [r2]
	.loc 1 2189 627 discriminator 11
	bic	r0, r0, #262144
	str	r0, [r2]
.L439:
	.loc 1 2189 656 is_stmt 1 discriminator 13
	.loc 1 2189 679 is_stmt 0 discriminator 13
	ldr	r2, .L450
	ldr	r2, [r2, r1, lsl #2]
	.loc 1 2189 659 discriminator 13
	tst	r2, #524288
	beq	.L440
	.loc 1 2189 738 is_stmt 1 discriminator 14
	.loc 1 2189 751 is_stmt 0 discriminator 14
	ldr	r2, [r3]
	.loc 1 2189 774 discriminator 14
	ldr	r0, [r2, #916]
	.loc 1 2189 741 discriminator 14
	tst	r0, #48
	bne	.L440
	.loc 1 2189 841 is_stmt 1 discriminator 16
	.loc 1 2189 873 is_stmt 0 discriminator 16
	ldr	r0, [r2]
	.loc 1 2189 878 discriminator 16
	bic	r0, r0, #524288
	str	r0, [r2]
.L440:
	.loc 1 2189 907 is_stmt 1 discriminator 18
	.loc 1 2189 930 is_stmt 0 discriminator 18
	ldr	r2, .L450
	ldr	r2, [r2, r1, lsl #2]
	.loc 1 2189 910 discriminator 18
	tst	r2, #1048576
	beq	.L441
	.loc 1 2189 989 is_stmt 1 discriminator 19
	.loc 1 2189 1002 is_stmt 0 discriminator 19
	ldr	r2, [r3]
	.loc 1 2189 1025 discriminator 19
	ldr	r0, [r2, #916]
	.loc 1 2189 992 discriminator 19
	tst	r0, #192
	bne	.L441
	.loc 1 2189 1092 is_stmt 1 discriminator 21
	.loc 1 2189 1124 is_stmt 0 discriminator 21
	ldr	r0, [r2]
	.loc 1 2189 1129 discriminator 21
	bic	r0, r0, #1048576
	str	r0, [r2]
.L441:
	.loc 1 2189 1158 is_stmt 1 discriminator 23
	.loc 1 2189 1181 is_stmt 0 discriminator 23
	ldr	r2, .L450
	ldr	r2, [r2, r1, lsl #2]
	.loc 1 2189 1161 discriminator 23
	tst	r2, #2097152
	beq	.L442
	.loc 1 2189 1240 is_stmt 1 discriminator 24
	.loc 1 2189 1253 is_stmt 0 discriminator 24
	ldr	r2, [r3]
	.loc 1 2189 1276 discriminator 24
	ldr	r1, [r2, #916]
.LVL522:
	.loc 1 2189 1243 discriminator 24
	tst	r1, #768
	bne	.L442
	.loc 1 2189 1343 is_stmt 1 discriminator 26
	.loc 1 2189 1375 is_stmt 0 discriminator 26
	ldr	r1, [r2]
	.loc 1 2189 1380 discriminator 26
	bic	r1, r1, #2097152
	str	r1, [r2]
.L442:
	.loc 1 2189 6 is_stmt 1 discriminator 28
	.loc 1 2191 3 discriminator 28
	.loc 1 2191 17 is_stmt 0 discriminator 28
	movs	r2, #1
	strb	r2, [r3, #193]
	.loc 1 2194 3 is_stmt 1 discriminator 28
	.loc 1 2194 7 discriminator 28
	.loc 1 2194 22 is_stmt 0 discriminator 28
	movs	r0, #0
	strb	r0, [r3, #192]
	.loc 1 2194 5 is_stmt 1 discriminator 28
	.loc 1 2196 3 discriminator 28
.L429:
	.loc 1 2197 1 is_stmt 0
	ldr	r4, [sp], #4
	.cfi_remember_state
	.cfi_restore 4
	.cfi_def_cfa_offset 0
	bx	lr
.LVL523:
.L431:
	.cfi_restore_state
	.loc 1 2150 3
	subs	r2, r2, #2
.LVL524:
	movs	r0, #1
	lsl	r2, r0, r2
.LVL525:
	ldr	r0, .L450+4
	tst	r2, r0
	bne	.L434
	movw	r0, #16388
	tst	r2, r0
	bne	.L432
.L433:
	.loc 1 2174 7 is_stmt 1
	.loc 1 2174 21 is_stmt 0
	movs	r2, #7
	strb	r2, [r3, #193]
	.loc 1 2177 7 is_stmt 1
	.loc 1 2177 11
	.loc 1 2177 26 is_stmt 0
	movs	r2, #0
	strb	r2, [r3, #192]
	.loc 1 2177 9 is_stmt 1
	.loc 1 2179 7
	b	.L436
.LVL526:
.L430:
	.loc 1 2150 3 is_stmt 0
	cmp	r2, #256
	beq	.L432
	bls	.L449
	cmp	r2, #512
	bne	.L433
	b	.L434
.L449:
	cmp	r2, #64
	beq	.L432
	cmp	r2, #128
	bne	.L433
.LVL527:
.L434:
	.loc 1 2168 7 is_stmt 1
	.loc 1 2168 16 is_stmt 0
	ldr	r2, [r3]
	.loc 1 2168 51
	add	r2, r2, r1, lsl #7
	ldr	r0, [r2, #140]
	.loc 1 2168 61
	bic	r0, r0, #2
	str	r0, [r2, #140]
	.loc 1 2169 7 is_stmt 1
	b	.L436
.LVL528:
.L443:
	.cfi_def_cfa_offset 0
	.cfi_restore 4
	.loc 1 2142 49 is_stmt 0
	movs	r0, #2
	.loc 1 2197 1
	bx	lr
.LVL529:
.L444:
	.cfi_def_cfa_offset 4
	.cfi_offset 4, -4
	.loc 1 2185 13
	movs	r0, #1
	b	.L429
.L451:
	.align	2
.L450:
	.word	TimerIdxToTimerId
	.word	1073741889
	.cfi_endproc
.LFE357:
	.size	HAL_HRTIM_SimplePWMStop_IT, .-HAL_HRTIM_SimplePWMStop_IT
	.section	.text.HAL_HRTIM_SimplePWMStart_DMA,"ax",%progbits
	.align	1
	.global	HAL_HRTIM_SimplePWMStart_DMA
	.syntax unified
	.thumb
	.thumb_func
	.type	HAL_HRTIM_SimplePWMStart_DMA, %function
HAL_HRTIM_SimplePWMStart_DMA:
.LFB358:
	.loc 1 2234 1 is_stmt 1
	.cfi_startproc
	@ args = 8, pretend = 0, frame = 0
	@ frame_needed = 0, uses_anonymous_args = 0
.LVL530:
	push	{r3, r4, r5, r6, r7, lr}
	.cfi_def_cfa_offset 24
	.cfi_offset 3, -24
	.cfi_offset 4, -20
	.cfi_offset 5, -16
	.cfi_offset 6, -12
	.cfi_offset 7, -8
	.cfi_offset 14, -4
	mov	r4, r0
	.loc 1 2235 3
	.loc 1 2238 3
	.loc 1 2240 3
	.loc 1 2240 12 is_stmt 0
	ldrb	r0, [r0, #193]	@ zero_extendqisi2
.LVL531:
	uxtb	r0, r0
	.loc 1 2240 5
	cmp	r0, #2
	beq	.L453
	mov	r6, r1
	mov	r5, r2
	mov	r7, r3
	.loc 1 2244 3 is_stmt 1
	.loc 1 2244 12 is_stmt 0
	ldrb	r0, [r4, #193]	@ zero_extendqisi2
	uxtb	r0, r0
	.loc 1 2244 5
	cmp	r0, #1
	beq	.L467
.LVL532:
.L454:
	.loc 1 2257 3 is_stmt 1
	.loc 1 2257 7
	.loc 1 2257 18 is_stmt 0
	ldrb	r3, [r4, #192]	@ zero_extendqisi2
	.loc 1 2257 9
	cmp	r3, #1
	beq	.L464
	.loc 1 2257 68 is_stmt 1 discriminator 2
	.loc 1 2257 83 is_stmt 0 discriminator 2
	movs	r3, #1
	strb	r3, [r4, #192]
	.loc 1 2257 5 is_stmt 1 discriminator 2
	.loc 1 2260 3 discriminator 2
	.loc 1 2260 9 is_stmt 0 discriminator 2
	ldr	r3, [r4]
	.loc 1 2260 32 discriminator 2
	ldr	r0, [r3, #916]
	.loc 1 2260 38 discriminator 2
	orrs	r0, r0, r5
	str	r0, [r3, #916]
	.loc 1 2263 3 is_stmt 1 discriminator 2
	.loc 1 2263 10 is_stmt 0 discriminator 2
	mov	r1, r6
.LVL533:
	mov	r0, r4
	bl	HRTIM_GetDMAHandleFromTimerIdx
.LVL534:
	.loc 1 2265 3 is_stmt 1 discriminator 2
	.loc 1 2265 6 is_stmt 0 discriminator 2
	cmp	r0, #0
	beq	.L468
	.loc 1 2276 3 is_stmt 1
	.loc 1 2276 27 is_stmt 0
	ldr	r3, .L471
	str	r3, [r0, #76]
	.loc 1 2279 3 is_stmt 1
	.loc 1 2279 26 is_stmt 0
	ldr	r3, .L471+4
	str	r3, [r0, #60]
	.loc 1 2282 3 is_stmt 1
	.loc 1 2282 7 is_stmt 0
	ldr	r3, [sp, #28]
	ldr	r2, [sp, #24]
	mov	r1, r7
	bl	HAL_DMA_Start_IT
.LVL535:
	.loc 1 2282 6
	cbnz	r0, .L469
	.loc 1 2293 3 is_stmt 1
	cmp	r5, #32
	bhi	.L457
	cmp	r5, #2
	bcs	.L458
	cmp	r5, #1
	bne	.L460
.LVL536:
.L459:
	.loc 1 2301 7
	.loc 1 2301 16 is_stmt 0
	ldr	r3, [r4]
	.loc 1 2301 51
	add	r3, r3, r6, lsl #7
	ldr	r2, [r3, #140]
	.loc 1 2301 61
	orr	r2, r2, #65536
	str	r2, [r3, #140]
	.loc 1 2302 7 is_stmt 1
.L463:
	.loc 1 2326 3
	.loc 1 2326 12 is_stmt 0
	ldrb	r3, [r4, #193]	@ zero_extendqisi2
	uxtb	r3, r3
	.loc 1 2326 5
	cmp	r3, #7
	beq	.L465
	.loc 1 2332 3 is_stmt 1
	.loc 1 2332 12 is_stmt 0
	ldr	r2, [r4]
	.loc 1 2332 35
	ldr	r3, [r2]
	.loc 1 2332 61
	ldr	r1, .L471+8
	ldr	r1, [r1, r6, lsl #2]
	.loc 1 2332 40
	orrs	r3, r3, r1
	str	r3, [r2]
	.loc 1 2334 3 is_stmt 1
	.loc 1 2334 17 is_stmt 0
	movs	r3, #1
	strb	r3, [r4, #193]
	.loc 1 2337 3 is_stmt 1
	.loc 1 2337 7
	.loc 1 2337 22 is_stmt 0
	movs	r3, #0
	strb	r3, [r4, #192]
	.loc 1 2337 5 is_stmt 1
	.loc 1 2339 3
.LVL537:
.L453:
	.loc 1 2340 1 is_stmt 0
	pop	{r3, r4, r5, r6, r7, pc}
.LVL538:
.L467:
	.loc 1 2246 5 is_stmt 1
	.loc 1 2246 7 is_stmt 0
	ldr	r3, [sp, #24]
.LVL539:
	cmp	r3, #0
	it	ne
	cmpne	r7, #0
	beq	.L453
	.loc 1 2246 46 discriminator 1
	ldr	r3, [sp, #28]
	cmp	r3, #0
	beq	.L453
	.loc 1 2252 7 is_stmt 1
	.loc 1 2252 21 is_stmt 0
	movs	r3, #2
	strb	r3, [r4, #193]
	b	.L454
.LVL540:
.L468:
	.loc 1 2267 5 is_stmt 1
	.loc 1 2267 19 is_stmt 0
	movs	r3, #7
	strb	r3, [r4, #193]
	.loc 1 2270 5 is_stmt 1
	.loc 1 2270 9
	.loc 1 2270 24 is_stmt 0
	movs	r3, #0
	strb	r3, [r4, #192]
	.loc 1 2270 7 is_stmt 1
	.loc 1 2272 5
	.loc 1 2272 12 is_stmt 0
	movs	r0, #1
.LVL541:
	b	.L453
.L469:
	.loc 1 2284 9 is_stmt 1
	.loc 1 2284 23 is_stmt 0
	movs	r3, #7
	strb	r3, [r4, #193]
	.loc 1 2287 9 is_stmt 1
	.loc 1 2287 13
	.loc 1 2287 28 is_stmt 0
	movs	r3, #0
	strb	r3, [r4, #192]
	.loc 1 2287 11 is_stmt 1
	.loc 1 2289 9
	.loc 1 2289 16 is_stmt 0
	movs	r0, #1
	b	.L453
.L458:
	.loc 1 2293 3
	subs	r5, r5, #2
.LVL542:
	movs	r3, #1
	lsl	r5, r3, r5
.LVL543:
	ldr	r3, .L471+12
	tst	r5, r3
	bne	.L461
	movw	r3, #16388
	tst	r5, r3
	bne	.L459
.L460:
	.loc 1 2317 7 is_stmt 1
	.loc 1 2317 21 is_stmt 0
	movs	r3, #7
	strb	r3, [r4, #193]
	.loc 1 2320 7 is_stmt 1
	.loc 1 2320 11
	.loc 1 2320 26 is_stmt 0
	movs	r3, #0
	strb	r3, [r4, #192]
	.loc 1 2320 9 is_stmt 1
	.loc 1 2322 7
	b	.L463
.LVL544:
.L457:
	.loc 1 2293 3 is_stmt 0
	cmp	r5, #256
	beq	.L459
	bls	.L470
	cmp	r5, #512
	bne	.L460
	b	.L461
.L470:
	cmp	r5, #64
	beq	.L459
	cmp	r5, #128
	bne	.L460
.LVL545:
.L461:
	.loc 1 2311 7 is_stmt 1
	.loc 1 2311 16 is_stmt 0
	ldr	r3, [r4]
	.loc 1 2311 51
	add	r3, r3, r6, lsl #7
	ldr	r2, [r3, #140]
	.loc 1 2311 61
	orr	r2, r2, #131072
	str	r2, [r3, #140]
	.loc 1 2312 7 is_stmt 1
	b	.L463
.LVL546:
.L464:
	.loc 1 2257 49 is_stmt 0
	movs	r0, #2
	b	.L453
.LVL547:
.L465:
	.loc 1 2328 13
	movs	r0, #1
	b	.L453
.L472:
	.align	2
.L471:
	.word	HRTIM_DMAError
	.word	HRTIM_DMATimerxCplt
	.word	TimerIdxToTimerId
	.word	1073741889
	.cfi_endproc
.LFE358:
	.size	HAL_HRTIM_SimplePWMStart_DMA, .-HAL_HRTIM_SimplePWMStart_DMA
	.section	.text.HAL_HRTIM_SimplePWMStop_DMA,"ax",%progbits
	.align	1
	.global	HAL_HRTIM_SimplePWMStop_DMA
	.syntax unified
	.thumb
	.thumb_func
	.type	HAL_HRTIM_SimplePWMStop_DMA, %function
HAL_HRTIM_SimplePWMStop_DMA:
.LFB359:
	.loc 1 2370 1 is_stmt 1
	.cfi_startproc
	@ args = 0, pretend = 0, frame = 0
	@ frame_needed = 0, uses_anonymous_args = 0
.LVL548:
	.loc 1 2372 3
	.loc 1 2375 3
	.loc 1 2375 7
	.loc 1 2375 18 is_stmt 0
	ldrb	r3, [r0, #192]	@ zero_extendqisi2
	.loc 1 2375 9
	cmp	r3, #1
	beq	.L489
	.loc 1 2370 1 discriminator 2
	push	{r4, r5, r6, lr}
	.cfi_def_cfa_offset 16
	.cfi_offset 4, -16
	.cfi_offset 5, -12
	.cfi_offset 6, -8
	.cfi_offset 14, -4
	mov	r4, r0
	mov	r6, r1
	mov	r5, r2
	.loc 1 2375 68 is_stmt 1 discriminator 2
	.loc 1 2375 83 is_stmt 0 discriminator 2
	movs	r3, #1
	strb	r3, [r0, #192]
	.loc 1 2375 5 is_stmt 1 discriminator 2
	.loc 1 2377 3 discriminator 2
	.loc 1 2377 17 is_stmt 0 discriminator 2
	movs	r3, #2
	strb	r3, [r0, #193]
	.loc 1 2380 3 is_stmt 1 discriminator 2
	.loc 1 2380 9 is_stmt 0 discriminator 2
	ldr	r2, [r0]
.LVL549:
	.loc 1 2380 32 discriminator 2
	ldr	r3, [r2, #920]
	.loc 1 2380 39 discriminator 2
	orrs	r3, r3, r5
	str	r3, [r2, #920]
	.loc 1 2384 3 is_stmt 1 discriminator 2
	.loc 1 2384 7 is_stmt 0 discriminator 2
	bl	HRTIM_GetDMAHandleFromTimerIdx
.LVL550:
	bl	HAL_DMA_Abort
.LVL551:
	.loc 1 2384 6 discriminator 2
	cmp	r0, #0
	bne	.L495
	.loc 1 2395 3 is_stmt 1
	cmp	r5, #32
	bhi	.L476
	cmp	r5, #2
	bcs	.L477
	cmp	r5, #1
	bne	.L479
.LVL552:
.L478:
	.loc 1 2403 7
	.loc 1 2403 16 is_stmt 0
	ldr	r3, [r4]
	.loc 1 2403 51
	add	r3, r3, r6, lsl #7
	ldr	r2, [r3, #140]
	.loc 1 2403 61
	bic	r2, r2, #65536
	str	r2, [r3, #140]
	.loc 1 2404 7 is_stmt 1
.L482:
	.loc 1 2428 3
	.loc 1 2428 12 is_stmt 0
	ldrb	r3, [r4, #193]	@ zero_extendqisi2
	uxtb	r3, r3
	.loc 1 2428 5
	cmp	r3, #7
	beq	.L490
	.loc 1 2434 3 is_stmt 1
	.loc 1 2434 8
	.loc 1 2434 31 is_stmt 0
	ldr	r3, .L497
	ldr	r3, [r3, r6, lsl #2]
	.loc 1 2434 11
	tst	r3, #65536
	beq	.L483
	.loc 1 2434 90 is_stmt 1 discriminator 1
	.loc 1 2434 99 is_stmt 0 discriminator 1
	ldr	r2, [r4]
	.loc 1 2434 122 discriminator 1
	ldr	r3, [r2]
	.loc 1 2434 127 discriminator 1
	bic	r3, r3, #65536
	str	r3, [r2]
.L483:
	.loc 1 2434 154 is_stmt 1 discriminator 3
	.loc 1 2434 177 is_stmt 0 discriminator 3
	ldr	r3, .L497
	ldr	r3, [r3, r6, lsl #2]
	.loc 1 2434 157 discriminator 3
	tst	r3, #131072
	beq	.L484
	.loc 1 2434 236 is_stmt 1 discriminator 4
	.loc 1 2434 249 is_stmt 0 discriminator 4
	ldr	r3, [r4]
	.loc 1 2434 272 discriminator 4
	ldr	r2, [r3, #916]
	.loc 1 2434 239 discriminator 4
	tst	r2, #3
	bne	.L484
	.loc 1 2434 339 is_stmt 1 discriminator 6
	.loc 1 2434 371 is_stmt 0 discriminator 6
	ldr	r2, [r3]
	.loc 1 2434 376 discriminator 6
	bic	r2, r2, #131072
	str	r2, [r3]
.L484:
	.loc 1 2434 405 is_stmt 1 discriminator 8
	.loc 1 2434 428 is_stmt 0 discriminator 8
	ldr	r3, .L497
	ldr	r3, [r3, r6, lsl #2]
	.loc 1 2434 408 discriminator 8
	tst	r3, #262144
	beq	.L485
	.loc 1 2434 487 is_stmt 1 discriminator 9
	.loc 1 2434 500 is_stmt 0 discriminator 9
	ldr	r3, [r4]
	.loc 1 2434 523 discriminator 9
	ldr	r2, [r3, #916]
	.loc 1 2434 490 discriminator 9
	tst	r2, #12
	bne	.L485
	.loc 1 2434 590 is_stmt 1 discriminator 11
	.loc 1 2434 622 is_stmt 0 discriminator 11
	ldr	r2, [r3]
	.loc 1 2434 627 discriminator 11
	bic	r2, r2, #262144
	str	r2, [r3]
.L485:
	.loc 1 2434 656 is_stmt 1 discriminator 13
	.loc 1 2434 679 is_stmt 0 discriminator 13
	ldr	r3, .L497
	ldr	r3, [r3, r6, lsl #2]
	.loc 1 2434 659 discriminator 13
	tst	r3, #524288
	beq	.L486
	.loc 1 2434 738 is_stmt 1 discriminator 14
	.loc 1 2434 751 is_stmt 0 discriminator 14
	ldr	r3, [r4]
	.loc 1 2434 774 discriminator 14
	ldr	r2, [r3, #916]
	.loc 1 2434 741 discriminator 14
	tst	r2, #48
	bne	.L486
	.loc 1 2434 841 is_stmt 1 discriminator 16
	.loc 1 2434 873 is_stmt 0 discriminator 16
	ldr	r2, [r3]
	.loc 1 2434 878 discriminator 16
	bic	r2, r2, #524288
	str	r2, [r3]
.L486:
	.loc 1 2434 907 is_stmt 1 discriminator 18
	.loc 1 2434 930 is_stmt 0 discriminator 18
	ldr	r3, .L497
	ldr	r3, [r3, r6, lsl #2]
	.loc 1 2434 910 discriminator 18
	tst	r3, #1048576
	beq	.L487
	.loc 1 2434 989 is_stmt 1 discriminator 19
	.loc 1 2434 1002 is_stmt 0 discriminator 19
	ldr	r3, [r4]
	.loc 1 2434 1025 discriminator 19
	ldr	r2, [r3, #916]
	.loc 1 2434 992 discriminator 19
	tst	r2, #192
	bne	.L487
	.loc 1 2434 1092 is_stmt 1 discriminator 21
	.loc 1 2434 1124 is_stmt 0 discriminator 21
	ldr	r2, [r3]
	.loc 1 2434 1129 discriminator 21
	bic	r2, r2, #1048576
	str	r2, [r3]
.L487:
	.loc 1 2434 1158 is_stmt 1 discriminator 23
	.loc 1 2434 1181 is_stmt 0 discriminator 23
	ldr	r3, .L497
	ldr	r3, [r3, r6, lsl #2]
	.loc 1 2434 1161 discriminator 23
	tst	r3, #2097152
	beq	.L488
	.loc 1 2434 1240 is_stmt 1 discriminator 24
	.loc 1 2434 1253 is_stmt 0 discriminator 24
	ldr	r3, [r4]
	.loc 1 2434 1276 discriminator 24
	ldr	r2, [r3, #916]
	.loc 1 2434 1243 discriminator 24
	tst	r2, #768
	bne	.L488
	.loc 1 2434 1343 is_stmt 1 discriminator 26
	.loc 1 2434 1375 is_stmt 0 discriminator 26
	ldr	r2, [r3]
	.loc 1 2434 1380 discriminator 26
	bic	r2, r2, #2097152
	str	r2, [r3]
.L488:
	.loc 1 2434 6 is_stmt 1 discriminator 28
	.loc 1 2436 3 discriminator 28
	.loc 1 2436 17 is_stmt 0 discriminator 28
	movs	r3, #1
	strb	r3, [r4, #193]
	.loc 1 2439 3 is_stmt 1 discriminator 28
	.loc 1 2439 7 discriminator 28
	.loc 1 2439 22 is_stmt 0 discriminator 28
	movs	r3, #0
	strb	r3, [r4, #192]
	.loc 1 2439 5 is_stmt 1 discriminator 28
	.loc 1 2441 3 discriminator 28
.L474:
	.loc 1 2442 1 is_stmt 0
	pop	{r4, r5, r6, pc}
.LVL553:
.L495:
	.loc 1 2386 5 is_stmt 1
	.loc 1 2386 19 is_stmt 0
	movs	r3, #7
	strb	r3, [r4, #193]
	.loc 1 2389 5 is_stmt 1
	.loc 1 2389 9
	.loc 1 2389 24 is_stmt 0
	movs	r3, #0
	strb	r3, [r4, #192]
	.loc 1 2389 7 is_stmt 1
	.loc 1 2391 5
	.loc 1 2391 12 is_stmt 0
	movs	r0, #1
	b	.L474
.L477:
	.loc 1 2395 3
	subs	r5, r5, #2
.LVL554:
	movs	r3, #1
	lsl	r5, r3, r5
.LVL555:
	ldr	r3, .L497+4
	tst	r5, r3
	bne	.L480
	movw	r3, #16388
	tst	r5, r3
	bne	.L478
.L479:
	.loc 1 2419 7 is_stmt 1
	.loc 1 2419 21 is_stmt 0
	movs	r3, #7
	strb	r3, [r4, #193]
	.loc 1 2422 7 is_stmt 1
	.loc 1 2422 11
	.loc 1 2422 26 is_stmt 0
	movs	r3, #0
	strb	r3, [r4, #192]
	.loc 1 2422 9 is_stmt 1
	.loc 1 2424 7
	b	.L482
.LVL556:
.L476:
	.loc 1 2395 3 is_stmt 0
	cmp	r5, #256
	beq	.L478
	bls	.L496
	cmp	r5, #512
	bne	.L479
	b	.L480
.L496:
	cmp	r5, #64
	beq	.L478
	cmp	r5, #128
	bne	.L479
.LVL557:
.L480:
	.loc 1 2413 7 is_stmt 1
	.loc 1 2413 16 is_stmt 0
	ldr	r3, [r4]
	.loc 1 2413 51
	add	r3, r3, r6, lsl #7
	ldr	r2, [r3, #140]
	.loc 1 2413 61
	bic	r2, r2, #131072
	str	r2, [r3, #140]
	.loc 1 2414 7 is_stmt 1
	b	.L482
.LVL558:
.L489:
	.cfi_def_cfa_offset 0
	.cfi_restore 4
	.cfi_restore 5
	.cfi_restore 6
	.cfi_restore 14
	.loc 1 2375 49 is_stmt 0
	movs	r0, #2
.LVL559:
	.loc 1 2442 1
	bx	lr
.LVL560:
.L490:
	.cfi_def_cfa_offset 16
	.cfi_offset 4, -16
	.cfi_offset 5, -12
	.cfi_offset 6, -8
	.cfi_offset 14, -4
	.loc 1 2430 13
	movs	r0, #1
	b	.L474
.L498:
	.align	2
.L497:
	.word	TimerIdxToTimerId
	.word	1073741889
	.cfi_endproc
.LFE359:
	.size	HAL_HRTIM_SimplePWMStop_DMA, .-HAL_HRTIM_SimplePWMStop_DMA
	.section	.text.HAL_HRTIM_SimpleCaptureChannelConfig,"ax",%progbits
	.align	1
	.global	HAL_HRTIM_SimpleCaptureChannelConfig
	.syntax unified
	.thumb
	.thumb_func
	.type	HAL_HRTIM_SimpleCaptureChannelConfig, %function
HAL_HRTIM_SimpleCaptureChannelConfig:
.LFB360:
	.loc 1 2495 1 is_stmt 1
	.cfi_startproc
	@ args = 0, pretend = 0, frame = 24
	@ frame_needed = 0, uses_anonymous_args = 0
.LVL561:
	push	{r4, r5, r6, r7, r8, r9, lr}
	.cfi_def_cfa_offset 28
	.cfi_offset 4, -28
	.cfi_offset 5, -24
	.cfi_offset 6, -20
	.cfi_offset 7, -16
	.cfi_offset 8, -12
	.cfi_offset 9, -8
	.cfi_offset 14, -4
	sub	sp, sp, #28
	.cfi_def_cfa_offset 56
	mov	r5, r0
	.loc 1 2496 3
	.loc 1 2499 3
	.loc 1 2500 3
	.loc 1 2501 3
	.loc 1 2502 3
	.loc 1 2504 3
	.loc 1 2505 3
	.loc 1 2508 3
	.loc 1 2508 12 is_stmt 0
	ldrb	r4, [r0, #193]	@ zero_extendqisi2
	uxtb	r0, r4
.LVL562:
	.loc 1 2508 5
	cmp	r0, #2
	beq	.L500
	mov	r7, r1
	mov	r8, r2
	mov	r6, r3
	.loc 1 2514 3 is_stmt 1
	.loc 1 2514 7
	.loc 1 2514 18 is_stmt 0
	ldrb	r3, [r5, #192]	@ zero_extendqisi2
.LVL563:
	.loc 1 2514 9
	cmp	r3, #1
	beq	.L501
	.loc 1 2514 68 is_stmt 1 discriminator 2
	.loc 1 2514 83 is_stmt 0 discriminator 2
	mov	r9, #1
	strb	r9, [r5, #192]
	.loc 1 2514 5 is_stmt 1 discriminator 2
	.loc 1 2516 3 discriminator 2
	.loc 1 2516 17 is_stmt 0 discriminator 2
	movs	r3, #2
	strb	r3, [r5, #193]
	.loc 1 2519 3 is_stmt 1 discriminator 2
	.loc 1 2519 21 is_stmt 0 discriminator 2
	movs	r4, #0
	str	r4, [sp, #20]
	.loc 1 2520 3 is_stmt 1 discriminator 2
	.loc 1 2520 46 is_stmt 0 discriminator 2
	ldr	r3, [r6, #12]
	.loc 1 2520 60 discriminator 2
	and	r3, r3, #15
	.loc 1 2520 19 discriminator 2
	str	r3, [sp, #16]
	.loc 1 2521 3 is_stmt 1 discriminator 2
	.loc 1 2521 48 is_stmt 0 discriminator 2
	ldr	r3, [r6, #4]
	.loc 1 2521 64 discriminator 2
	and	r3, r3, #4
	.loc 1 2521 21 discriminator 2
	str	r3, [sp, #8]
	.loc 1 2522 3 is_stmt 1 discriminator 2
	.loc 1 2522 51 is_stmt 0 discriminator 2
	ldr	r3, [r6, #8]
	.loc 1 2522 70 discriminator 2
	and	r3, r3, #24
	.loc 1 2522 24 discriminator 2
	str	r3, [sp, #12]
	.loc 1 2523 3 is_stmt 1 discriminator 2
	.loc 1 2523 19 is_stmt 0 discriminator 2
	str	r4, [sp, #4]
	.loc 1 2525 3 is_stmt 1 discriminator 2
	add	r2, sp, #4
.LVL564:
	ldr	r1, [r6]
.LVL565:
	mov	r0, r5
	bl	HRTIM_EventConfig
.LVL566:
	.loc 1 2530 3 discriminator 2
	ldr	r3, [r6]
	mov	r2, r8
	mov	r1, r7
	mov	r0, r5
	bl	HRTIM_CaptureUnitConfig
.LVL567:
	.loc 1 2535 3 discriminator 2
	.loc 1 2535 17 is_stmt 0 discriminator 2
	strb	r9, [r5, #193]
	.loc 1 2538 3 is_stmt 1 discriminator 2
	.loc 1 2538 7 discriminator 2
	.loc 1 2538 22 is_stmt 0 discriminator 2
	strb	r4, [r5, #192]
	.loc 1 2538 5 is_stmt 1 discriminator 2
	.loc 1 2540 3 discriminator 2
	.loc 1 2540 10 is_stmt 0 discriminator 2
	mov	r0, r4
.LVL568:
.L500:
	.loc 1 2541 1
	add	sp, sp, #28
	.cfi_remember_state
	.cfi_def_cfa_offset 28
	@ sp needed
	pop	{r4, r5, r6, r7, r8, r9, pc}
.LVL569:
.L501:
	.cfi_restore_state
	.loc 1 2514 49
	movs	r0, #2
	b	.L500
	.cfi_endproc
.LFE360:
	.size	HAL_HRTIM_SimpleCaptureChannelConfig, .-HAL_HRTIM_SimpleCaptureChannelConfig
	.section	.text.HAL_HRTIM_SimpleCaptureStart,"ax",%progbits
	.align	1
	.global	HAL_HRTIM_SimpleCaptureStart
	.syntax unified
	.thumb
	.thumb_func
	.type	HAL_HRTIM_SimpleCaptureStart, %function
HAL_HRTIM_SimpleCaptureStart:
.LFB361:
	.loc 1 2565 1 is_stmt 1
	.cfi_startproc
	@ args = 0, pretend = 0, frame = 0
	@ frame_needed = 0, uses_anonymous_args = 0
	@ link register save eliminated.
.LVL570:
	mov	r3, r0
	.loc 1 2567 3
	.loc 1 2568 3
	.loc 1 2571 3
	.loc 1 2571 7
	.loc 1 2571 18 is_stmt 0
	ldrb	r0, [r0, #192]	@ zero_extendqisi2
.LVL571:
	.loc 1 2571 9
	cmp	r0, #1
	beq	.L509
	.loc 1 2571 68 is_stmt 1 discriminator 2
	.loc 1 2571 83 is_stmt 0 discriminator 2
	movs	r0, #1
	strb	r0, [r3, #192]
	.loc 1 2571 5 is_stmt 1 discriminator 2
	.loc 1 2573 3 discriminator 2
	.loc 1 2573 17 is_stmt 0 discriminator 2
	movs	r0, #2
	strb	r0, [r3, #193]
	.loc 1 2576 3 is_stmt 1 discriminator 2
	cmp	r2, #1
	beq	.L505
	.loc 1 2576 3 is_stmt 0
	cmp	r2, r0
	beq	.L506
	.loc 1 2592 7 is_stmt 1
	.loc 1 2592 21 is_stmt 0
	movs	r2, #7
.LVL572:
	strb	r2, [r3, #193]
	.loc 1 2595 7 is_stmt 1
	.loc 1 2595 11
	.loc 1 2595 26 is_stmt 0
	movs	r2, #0
	strb	r2, [r3, #192]
	.loc 1 2595 9 is_stmt 1
	.loc 1 2597 7
	b	.L508
.LVL573:
.L505:
	.loc 1 2580 7
	.loc 1 2580 13 is_stmt 0
	ldr	r2, [r3]
.LVL574:
	.loc 1 2580 85
	rsb	r0, r1, r1, lsl #3
	add	r0, r3, r0, lsl #2
	ldr	r0, [r0, #24]
	.loc 1 2580 55
	add	r2, r2, r1, lsl #7
	str	r0, [r2, #220]
	.loc 1 2581 7 is_stmt 1
.L508:
	.loc 1 2601 3
	.loc 1 2601 12 is_stmt 0
	ldrb	r2, [r3, #193]	@ zero_extendqisi2
	uxtb	r2, r2
	.loc 1 2601 5
	cmp	r2, #7
	beq	.L510
	.loc 1 2565 1
	push	{r4}
	.cfi_def_cfa_offset 4
	.cfi_offset 4, -4
	.loc 1 2607 3 is_stmt 1
	.loc 1 2607 12 is_stmt 0
	ldr	r0, [r3]
	.loc 1 2607 35
	ldr	r2, [r0]
	.loc 1 2607 61
	ldr	r4, .L516
	ldr	r1, [r4, r1, lsl #2]
.LVL575:
	.loc 1 2607 40
	orrs	r2, r2, r1
	str	r2, [r0]
	.loc 1 2609 3 is_stmt 1
	.loc 1 2609 17 is_stmt 0
	movs	r2, #1
	strb	r2, [r3, #193]
	.loc 1 2612 3 is_stmt 1
	.loc 1 2612 7
	.loc 1 2612 22 is_stmt 0
	movs	r0, #0
	strb	r0, [r3, #192]
	.loc 1 2612 5 is_stmt 1
	.loc 1 2614 3
	.loc 1 2615 1 is_stmt 0
	ldr	r4, [sp], #4
	.cfi_restore 4
	.cfi_def_cfa_offset 0
	bx	lr
.LVL576:
.L506:
	.loc 1 2586 7 is_stmt 1
	.loc 1 2586 13 is_stmt 0
	ldr	r2, [r3]
.LVL577:
	.loc 1 2586 85
	rsb	r0, r1, r1, lsl #3
	add	r0, r3, r0, lsl #2
	ldr	r0, [r0, #28]
	.loc 1 2586 55
	add	r2, r2, r1, lsl #7
	str	r0, [r2, #224]
	.loc 1 2587 7 is_stmt 1
	b	.L508
.LVL578:
.L509:
	.loc 1 2571 49 is_stmt 0
	movs	r0, #2
	bx	lr
.LVL579:
.L510:
	.loc 1 2603 13
	movs	r0, #1
	.loc 1 2615 1
	bx	lr
.L517:
	.align	2
.L516:
	.word	TimerIdxToTimerId
	.cfi_endproc
.LFE361:
	.size	HAL_HRTIM_SimpleCaptureStart, .-HAL_HRTIM_SimpleCaptureStart
	.section	.text.HAL_HRTIM_SimpleCaptureStop,"ax",%progbits
	.align	1
	.global	HAL_HRTIM_SimpleCaptureStop
	.syntax unified
	.thumb
	.thumb_func
	.type	HAL_HRTIM_SimpleCaptureStop, %function
HAL_HRTIM_SimpleCaptureStop:
.LFB362:
	.loc 1 2636 1 is_stmt 1
	.cfi_startproc
	@ args = 0, pretend = 0, frame = 0
	@ frame_needed = 0, uses_anonymous_args = 0
	@ link register save eliminated.
.LVL580:
	mov	r3, r0
	.loc 1 2637 3
	.loc 1 2638 3
	.loc 1 2641 3
	.loc 1 2642 3
	.loc 1 2645 3
	.loc 1 2645 7
	.loc 1 2645 18 is_stmt 0
	ldrb	r0, [r0, #192]	@ zero_extendqisi2
.LVL581:
	.loc 1 2645 9
	cmp	r0, #1
	beq	.L530
	.loc 1 2645 68 is_stmt 1 discriminator 2
	.loc 1 2645 83 is_stmt 0 discriminator 2
	movs	r0, #1
	strb	r0, [r3, #192]
	.loc 1 2645 5 is_stmt 1 discriminator 2
	.loc 1 2647 3 discriminator 2
	.loc 1 2647 17 is_stmt 0 discriminator 2
	movs	r0, #2
	strb	r0, [r3, #193]
	.loc 1 2650 3 is_stmt 1 discriminator 2
	cmp	r2, #1
	beq	.L520
	.loc 1 2650 3 is_stmt 0
	cmp	r2, r0
	beq	.L521
	.loc 1 2666 7 is_stmt 1
	.loc 1 2666 21 is_stmt 0
	movs	r2, #7
.LVL582:
	strb	r2, [r3, #193]
	.loc 1 2669 7 is_stmt 1
	.loc 1 2669 11
	.loc 1 2669 26 is_stmt 0
	movs	r2, #0
	strb	r2, [r3, #192]
	.loc 1 2669 9 is_stmt 1
	.loc 1 2671 7
	b	.L523
.LVL583:
.L520:
	.loc 1 2654 7
	.loc 1 2654 13 is_stmt 0
	ldr	r2, [r3]
.LVL584:
	.loc 1 2654 55
	add	r2, r2, r1, lsl #7
	movs	r0, #0
	str	r0, [r2, #220]
	.loc 1 2655 7 is_stmt 1
.L523:
	.loc 1 2675 3
	.loc 1 2675 12 is_stmt 0
	ldrb	r2, [r3, #193]	@ zero_extendqisi2
	uxtb	r2, r2
	.loc 1 2675 5
	cmp	r2, #7
	beq	.L531
	.loc 1 2636 1
	push	{r4}
	.cfi_def_cfa_offset 4
	.cfi_offset 4, -4
	.loc 1 2680 3 is_stmt 1
	.loc 1 2680 24 is_stmt 0
	ldr	r4, [r3]
	.loc 1 2680 16
	add	r0, r4, r1, lsl #7
	ldr	r2, [r0, #220]
.LVL585:
	.loc 1 2681 3 is_stmt 1
	.loc 1 2681 16 is_stmt 0
	ldr	r0, [r0, #224]
.LVL586:
	.loc 1 2684 3 is_stmt 1
	.loc 1 2684 6 is_stmt 0
	orrs	r2, r2, r0
.LVL587:
	bne	.L524
	.loc 1 2687 5 is_stmt 1
	.loc 1 2687 10
	.loc 1 2687 33 is_stmt 0
	ldr	r2, .L537
	ldr	r2, [r2, r1, lsl #2]
	.loc 1 2687 13
	tst	r2, #65536
	beq	.L525
	.loc 1 2687 92 is_stmt 1 discriminator 1
	.loc 1 2687 124 is_stmt 0 discriminator 1
	ldr	r2, [r4]
	.loc 1 2687 129 discriminator 1
	bic	r2, r2, #65536
	str	r2, [r4]
.L525:
	.loc 1 2687 156 is_stmt 1 discriminator 3
	.loc 1 2687 179 is_stmt 0 discriminator 3
	ldr	r2, .L537
	ldr	r2, [r2, r1, lsl #2]
	.loc 1 2687 159 discriminator 3
	tst	r2, #131072
	beq	.L526
	.loc 1 2687 238 is_stmt 1 discriminator 4
	.loc 1 2687 251 is_stmt 0 discriminator 4
	ldr	r2, [r3]
	.loc 1 2687 274 discriminator 4
	ldr	r0, [r2, #916]
.LVL588:
	.loc 1 2687 241 discriminator 4
	tst	r0, #3
	bne	.L526
	.loc 1 2687 341 is_stmt 1 discriminator 6
	.loc 1 2687 373 is_stmt 0 discriminator 6
	ldr	r0, [r2]
	.loc 1 2687 378 discriminator 6
	bic	r0, r0, #131072
	str	r0, [r2]
.L526:
	.loc 1 2687 407 is_stmt 1 discriminator 8
	.loc 1 2687 430 is_stmt 0 discriminator 8
	ldr	r2, .L537
	ldr	r2, [r2, r1, lsl #2]
	.loc 1 2687 410 discriminator 8
	tst	r2, #262144
	beq	.L527
	.loc 1 2687 489 is_stmt 1 discriminator 9
	.loc 1 2687 502 is_stmt 0 discriminator 9
	ldr	r2, [r3]
	.loc 1 2687 525 discriminator 9
	ldr	r0, [r2, #916]
	.loc 1 2687 492 discriminator 9
	tst	r0, #12
	bne	.L527
	.loc 1 2687 592 is_stmt 1 discriminator 11
	.loc 1 2687 624 is_stmt 0 discriminator 11
	ldr	r0, [r2]
	.loc 1 2687 629 discriminator 11
	bic	r0, r0, #262144
	str	r0, [r2]
.L527:
	.loc 1 2687 658 is_stmt 1 discriminator 13
	.loc 1 2687 681 is_stmt 0 discriminator 13
	ldr	r2, .L537
	ldr	r2, [r2, r1, lsl #2]
	.loc 1 2687 661 discriminator 13
	tst	r2, #524288
	beq	.L528
	.loc 1 2687 740 is_stmt 1 discriminator 14
	.loc 1 2687 753 is_stmt 0 discriminator 14
	ldr	r2, [r3]
	.loc 1 2687 776 discriminator 14
	ldr	r0, [r2, #916]
	.loc 1 2687 743 discriminator 14
	tst	r0, #48
	bne	.L528
	.loc 1 2687 843 is_stmt 1 discriminator 16
	.loc 1 2687 875 is_stmt 0 discriminator 16
	ldr	r0, [r2]
	.loc 1 2687 880 discriminator 16
	bic	r0, r0, #524288
	str	r0, [r2]
.L528:
	.loc 1 2687 909 is_stmt 1 discriminator 18
	.loc 1 2687 932 is_stmt 0 discriminator 18
	ldr	r2, .L537
	ldr	r2, [r2, r1, lsl #2]
	.loc 1 2687 912 discriminator 18
	tst	r2, #1048576
	beq	.L529
	.loc 1 2687 991 is_stmt 1 discriminator 19
	.loc 1 2687 1004 is_stmt 0 discriminator 19
	ldr	r2, [r3]
	.loc 1 2687 1027 discriminator 19
	ldr	r0, [r2, #916]
	.loc 1 2687 994 discriminator 19
	tst	r0, #192
	bne	.L529
	.loc 1 2687 1094 is_stmt 1 discriminator 21
	.loc 1 2687 1126 is_stmt 0 discriminator 21
	ldr	r0, [r2]
	.loc 1 2687 1131 discriminator 21
	bic	r0, r0, #1048576
	str	r0, [r2]
.L529:
	.loc 1 2687 1160 is_stmt 1 discriminator 23
	.loc 1 2687 1183 is_stmt 0 discriminator 23
	ldr	r2, .L537
	ldr	r2, [r2, r1, lsl #2]
	.loc 1 2687 1163 discriminator 23
	tst	r2, #2097152
	beq	.L524
	.loc 1 2687 1242 is_stmt 1 discriminator 24
	.loc 1 2687 1255 is_stmt 0 discriminator 24
	ldr	r2, [r3]
	.loc 1 2687 1278 discriminator 24
	ldr	r1, [r2, #916]
.LVL589:
	.loc 1 2687 1245 discriminator 24
	tst	r1, #768
	bne	.L524
	.loc 1 2687 1345 is_stmt 1 discriminator 26
	.loc 1 2687 1377 is_stmt 0 discriminator 26
	ldr	r1, [r2]
	.loc 1 2687 1382 discriminator 26
	bic	r1, r1, #2097152
	str	r1, [r2]
.L524:
	.loc 1 2687 8 is_stmt 1 discriminator 28
	.loc 1 2690 3 discriminator 28
	.loc 1 2690 17 is_stmt 0 discriminator 28
	movs	r2, #1
	strb	r2, [r3, #193]
	.loc 1 2693 3 is_stmt 1 discriminator 28
	.loc 1 2693 7 discriminator 28
	.loc 1 2693 22 is_stmt 0 discriminator 28
	movs	r0, #0
	strb	r0, [r3, #192]
	.loc 1 2693 5 is_stmt 1 discriminator 28
	.loc 1 2695 3 discriminator 28
	.loc 1 2696 1 is_stmt 0 discriminator 28
	ldr	r4, [sp], #4
	.cfi_restore 4
	.cfi_def_cfa_offset 0
	bx	lr
.LVL590:
.L521:
	.loc 1 2660 7 is_stmt 1
	.loc 1 2660 13 is_stmt 0
	ldr	r2, [r3]
.LVL591:
	.loc 1 2660 55
	add	r2, r2, r1, lsl #7
	movs	r0, #0
	str	r0, [r2, #224]
	.loc 1 2661 7 is_stmt 1
	b	.L523
.LVL592:
.L530:
	.loc 1 2645 49 is_stmt 0
	movs	r0, #2
	bx	lr
.LVL593:
.L531:
	.loc 1 2677 13
	movs	r0, #1
	.loc 1 2696 1
	bx	lr
.L538:
	.align	2
.L537:
	.word	TimerIdxToTimerId
	.cfi_endproc
.LFE362:
	.size	HAL_HRTIM_SimpleCaptureStop, .-HAL_HRTIM_SimpleCaptureStop
	.section	.text.HAL_HRTIM_SimpleCaptureStart_IT,"ax",%progbits
	.align	1
	.global	HAL_HRTIM_SimpleCaptureStart_IT
	.syntax unified
	.thumb
	.thumb_func
	.type	HAL_HRTIM_SimpleCaptureStart_IT, %function
HAL_HRTIM_SimpleCaptureStart_IT:
.LFB363:
	.loc 1 2718 1 is_stmt 1
	.cfi_startproc
	@ args = 0, pretend = 0, frame = 0
	@ frame_needed = 0, uses_anonymous_args = 0
	@ link register save eliminated.
.LVL594:
	mov	r3, r0
	.loc 1 2720 3
	.loc 1 2721 3
	.loc 1 2724 3
	.loc 1 2724 7
	.loc 1 2724 18 is_stmt 0
	ldrb	r0, [r0, #192]	@ zero_extendqisi2
.LVL595:
	.loc 1 2724 9
	cmp	r0, #1
	beq	.L545
	.loc 1 2724 68 is_stmt 1 discriminator 2
	.loc 1 2724 83 is_stmt 0 discriminator 2
	movs	r0, #1
	strb	r0, [r3, #192]
	.loc 1 2724 5 is_stmt 1 discriminator 2
	.loc 1 2726 3 discriminator 2
	.loc 1 2726 17 is_stmt 0 discriminator 2
	movs	r0, #2
	strb	r0, [r3, #193]
	.loc 1 2729 3 is_stmt 1 discriminator 2
	cmp	r2, #1
	beq	.L541
	.loc 1 2729 3 is_stmt 0
	cmp	r2, r0
	beq	.L542
	.loc 1 2751 7 is_stmt 1
	.loc 1 2751 21 is_stmt 0
	movs	r2, #7
.LVL596:
	strb	r2, [r3, #193]
	.loc 1 2754 7 is_stmt 1
	.loc 1 2754 11
	.loc 1 2754 26 is_stmt 0
	movs	r2, #0
	strb	r2, [r3, #192]
	.loc 1 2754 9 is_stmt 1
	.loc 1 2756 7
	b	.L544
.LVL597:
.L541:
	.loc 1 2733 7
	.loc 1 2733 13 is_stmt 0
	ldr	r2, [r3]
.LVL598:
	.loc 1 2733 85
	rsb	r0, r1, r1, lsl #3
	add	r0, r3, r0, lsl #2
	ldr	r0, [r0, #24]
	.loc 1 2733 55
	add	r2, r2, r1, lsl #7
	str	r0, [r2, #220]
	.loc 1 2736 7 is_stmt 1
	.loc 1 2736 16 is_stmt 0
	ldr	r2, [r3]
	.loc 1 2736 51
	add	r2, r2, r1, lsl #7
	ldr	r0, [r2, #140]
	.loc 1 2736 61
	orr	r0, r0, #128
	str	r0, [r2, #140]
	.loc 1 2737 7 is_stmt 1
.L544:
	.loc 1 2760 3
	.loc 1 2760 12 is_stmt 0
	ldrb	r2, [r3, #193]	@ zero_extendqisi2
	uxtb	r2, r2
	.loc 1 2760 5
	cmp	r2, #7
	beq	.L546
	.loc 1 2718 1
	push	{r4}
	.cfi_def_cfa_offset 4
	.cfi_offset 4, -4
	.loc 1 2766 3 is_stmt 1
	.loc 1 2766 12 is_stmt 0
	ldr	r0, [r3]
	.loc 1 2766 35
	ldr	r2, [r0]
	.loc 1 2766 61
	ldr	r4, .L552
	ldr	r1, [r4, r1, lsl #2]
.LVL599:
	.loc 1 2766 40
	orrs	r2, r2, r1
	str	r2, [r0]
	.loc 1 2768 3 is_stmt 1
	.loc 1 2768 17 is_stmt 0
	movs	r2, #1
	strb	r2, [r3, #193]
	.loc 1 2771 3 is_stmt 1
	.loc 1 2771 7
	.loc 1 2771 22 is_stmt 0
	movs	r0, #0
	strb	r0, [r3, #192]
	.loc 1 2771 5 is_stmt 1
	.loc 1 2773 3
	.loc 1 2774 1 is_stmt 0
	ldr	r4, [sp], #4
	.cfi_restore 4
	.cfi_def_cfa_offset 0
	bx	lr
.LVL600:
.L542:
	.loc 1 2742 7 is_stmt 1
	.loc 1 2742 13 is_stmt 0
	ldr	r2, [r3]
.LVL601:
	.loc 1 2742 85
	rsb	r0, r1, r1, lsl #3
	add	r0, r3, r0, lsl #2
	ldr	r0, [r0, #28]
	.loc 1 2742 55
	add	r2, r2, r1, lsl #7
	str	r0, [r2, #224]
	.loc 1 2745 7 is_stmt 1
	.loc 1 2745 16 is_stmt 0
	ldr	r2, [r3]
	.loc 1 2745 51
	add	r2, r2, r1, lsl #7
	ldr	r0, [r2, #140]
	.loc 1 2745 61
	orr	r0, r0, #256
	str	r0, [r2, #140]
	.loc 1 2746 7 is_stmt 1
	b	.L544
.LVL602:
.L545:
	.loc 1 2724 49 is_stmt 0
	movs	r0, #2
	bx	lr
.LVL603:
.L546:
	.loc 1 2762 13
	movs	r0, #1
	.loc 1 2774 1
	bx	lr
.L553:
	.align	2
.L552:
	.word	TimerIdxToTimerId
	.cfi_endproc
.LFE363:
	.size	HAL_HRTIM_SimpleCaptureStart_IT, .-HAL_HRTIM_SimpleCaptureStart_IT
	.section	.text.HAL_HRTIM_SimpleCaptureStop_IT,"ax",%progbits
	.align	1
	.global	HAL_HRTIM_SimpleCaptureStop_IT
	.syntax unified
	.thumb
	.thumb_func
	.type	HAL_HRTIM_SimpleCaptureStop_IT, %function
HAL_HRTIM_SimpleCaptureStop_IT:
.LFB364:
	.loc 1 2796 1 is_stmt 1
	.cfi_startproc
	@ args = 0, pretend = 0, frame = 0
	@ frame_needed = 0, uses_anonymous_args = 0
	@ link register save eliminated.
.LVL604:
	mov	r3, r0
	.loc 1 2798 3
	.loc 1 2799 3
	.loc 1 2802 3
	.loc 1 2803 3
	.loc 1 2806 3
	.loc 1 2806 7
	.loc 1 2806 18 is_stmt 0
	ldrb	r0, [r0, #192]	@ zero_extendqisi2
.LVL605:
	.loc 1 2806 9
	cmp	r0, #1
	beq	.L566
	.loc 1 2806 68 is_stmt 1 discriminator 2
	.loc 1 2806 83 is_stmt 0 discriminator 2
	movs	r0, #1
	strb	r0, [r3, #192]
	.loc 1 2806 5 is_stmt 1 discriminator 2
	.loc 1 2808 3 discriminator 2
	.loc 1 2808 17 is_stmt 0 discriminator 2
	movs	r0, #2
	strb	r0, [r3, #193]
	.loc 1 2811 3 is_stmt 1 discriminator 2
	cmp	r2, #1
	beq	.L556
	.loc 1 2811 3 is_stmt 0
	cmp	r2, r0
	beq	.L557
	.loc 1 2833 7 is_stmt 1
	.loc 1 2833 21 is_stmt 0
	movs	r2, #7
.LVL606:
	strb	r2, [r3, #193]
	.loc 1 2836 7 is_stmt 1
	.loc 1 2836 11
	.loc 1 2836 26 is_stmt 0
	movs	r2, #0
	strb	r2, [r3, #192]
	.loc 1 2836 9 is_stmt 1
	.loc 1 2838 7
	b	.L559
.LVL607:
.L556:
	.loc 1 2815 7
	.loc 1 2815 13 is_stmt 0
	ldr	r2, [r3]
.LVL608:
	.loc 1 2815 55
	add	r2, r2, r1, lsl #7
	movs	r0, #0
	str	r0, [r2, #220]
	.loc 1 2818 7 is_stmt 1
	.loc 1 2818 16 is_stmt 0
	ldr	r2, [r3]
	.loc 1 2818 51
	add	r2, r2, r1, lsl #7
	ldr	r0, [r2, #140]
	.loc 1 2818 61
	bic	r0, r0, #128
	str	r0, [r2, #140]
	.loc 1 2819 7 is_stmt 1
.L559:
	.loc 1 2842 3
	.loc 1 2842 12 is_stmt 0
	ldrb	r2, [r3, #193]	@ zero_extendqisi2
	uxtb	r2, r2
	.loc 1 2842 5
	cmp	r2, #7
	beq	.L567
	.loc 1 2796 1
	push	{r4}
	.cfi_def_cfa_offset 4
	.cfi_offset 4, -4
	.loc 1 2847 3 is_stmt 1
	.loc 1 2847 24 is_stmt 0
	ldr	r4, [r3]
	.loc 1 2847 16
	add	r0, r4, r1, lsl #7
	ldr	r2, [r0, #220]
.LVL609:
	.loc 1 2848 3 is_stmt 1
	.loc 1 2848 16 is_stmt 0
	ldr	r0, [r0, #224]
.LVL610:
	.loc 1 2851 3 is_stmt 1
	.loc 1 2851 6 is_stmt 0
	orrs	r2, r2, r0
.LVL611:
	bne	.L560
	.loc 1 2854 5 is_stmt 1
	.loc 1 2854 10
	.loc 1 2854 33 is_stmt 0
	ldr	r2, .L573
	ldr	r2, [r2, r1, lsl #2]
	.loc 1 2854 13
	tst	r2, #65536
	beq	.L561
	.loc 1 2854 92 is_stmt 1 discriminator 1
	.loc 1 2854 124 is_stmt 0 discriminator 1
	ldr	r2, [r4]
	.loc 1 2854 129 discriminator 1
	bic	r2, r2, #65536
	str	r2, [r4]
.L561:
	.loc 1 2854 156 is_stmt 1 discriminator 3
	.loc 1 2854 179 is_stmt 0 discriminator 3
	ldr	r2, .L573
	ldr	r2, [r2, r1, lsl #2]
	.loc 1 2854 159 discriminator 3
	tst	r2, #131072
	beq	.L562
	.loc 1 2854 238 is_stmt 1 discriminator 4
	.loc 1 2854 251 is_stmt 0 discriminator 4
	ldr	r2, [r3]
	.loc 1 2854 274 discriminator 4
	ldr	r0, [r2, #916]
.LVL612:
	.loc 1 2854 241 discriminator 4
	tst	r0, #3
	bne	.L562
	.loc 1 2854 341 is_stmt 1 discriminator 6
	.loc 1 2854 373 is_stmt 0 discriminator 6
	ldr	r0, [r2]
	.loc 1 2854 378 discriminator 6
	bic	r0, r0, #131072
	str	r0, [r2]
.L562:
	.loc 1 2854 407 is_stmt 1 discriminator 8
	.loc 1 2854 430 is_stmt 0 discriminator 8
	ldr	r2, .L573
	ldr	r2, [r2, r1, lsl #2]
	.loc 1 2854 410 discriminator 8
	tst	r2, #262144
	beq	.L563
	.loc 1 2854 489 is_stmt 1 discriminator 9
	.loc 1 2854 502 is_stmt 0 discriminator 9
	ldr	r2, [r3]
	.loc 1 2854 525 discriminator 9
	ldr	r0, [r2, #916]
	.loc 1 2854 492 discriminator 9
	tst	r0, #12
	bne	.L563
	.loc 1 2854 592 is_stmt 1 discriminator 11
	.loc 1 2854 624 is_stmt 0 discriminator 11
	ldr	r0, [r2]
	.loc 1 2854 629 discriminator 11
	bic	r0, r0, #262144
	str	r0, [r2]
.L563:
	.loc 1 2854 658 is_stmt 1 discriminator 13
	.loc 1 2854 681 is_stmt 0 discriminator 13
	ldr	r2, .L573
	ldr	r2, [r2, r1, lsl #2]
	.loc 1 2854 661 discriminator 13
	tst	r2, #524288
	beq	.L564
	.loc 1 2854 740 is_stmt 1 discriminator 14
	.loc 1 2854 753 is_stmt 0 discriminator 14
	ldr	r2, [r3]
	.loc 1 2854 776 discriminator 14
	ldr	r0, [r2, #916]
	.loc 1 2854 743 discriminator 14
	tst	r0, #48
	bne	.L564
	.loc 1 2854 843 is_stmt 1 discriminator 16
	.loc 1 2854 875 is_stmt 0 discriminator 16
	ldr	r0, [r2]
	.loc 1 2854 880 discriminator 16
	bic	r0, r0, #524288
	str	r0, [r2]
.L564:
	.loc 1 2854 909 is_stmt 1 discriminator 18
	.loc 1 2854 932 is_stmt 0 discriminator 18
	ldr	r2, .L573
	ldr	r2, [r2, r1, lsl #2]
	.loc 1 2854 912 discriminator 18
	tst	r2, #1048576
	beq	.L565
	.loc 1 2854 991 is_stmt 1 discriminator 19
	.loc 1 2854 1004 is_stmt 0 discriminator 19
	ldr	r2, [r3]
	.loc 1 2854 1027 discriminator 19
	ldr	r0, [r2, #916]
	.loc 1 2854 994 discriminator 19
	tst	r0, #192
	bne	.L565
	.loc 1 2854 1094 is_stmt 1 discriminator 21
	.loc 1 2854 1126 is_stmt 0 discriminator 21
	ldr	r0, [r2]
	.loc 1 2854 1131 discriminator 21
	bic	r0, r0, #1048576
	str	r0, [r2]
.L565:
	.loc 1 2854 1160 is_stmt 1 discriminator 23
	.loc 1 2854 1183 is_stmt 0 discriminator 23
	ldr	r2, .L573
	ldr	r2, [r2, r1, lsl #2]
	.loc 1 2854 1163 discriminator 23
	tst	r2, #2097152
	beq	.L560
	.loc 1 2854 1242 is_stmt 1 discriminator 24
	.loc 1 2854 1255 is_stmt 0 discriminator 24
	ldr	r2, [r3]
	.loc 1 2854 1278 discriminator 24
	ldr	r1, [r2, #916]
.LVL613:
	.loc 1 2854 1245 discriminator 24
	tst	r1, #768
	bne	.L560
	.loc 1 2854 1345 is_stmt 1 discriminator 26
	.loc 1 2854 1377 is_stmt 0 discriminator 26
	ldr	r1, [r2]
	.loc 1 2854 1382 discriminator 26
	bic	r1, r1, #2097152
	str	r1, [r2]
.L560:
	.loc 1 2854 8 is_stmt 1 discriminator 28
	.loc 1 2857 3 discriminator 28
	.loc 1 2857 17 is_stmt 0 discriminator 28
	movs	r2, #1
	strb	r2, [r3, #193]
	.loc 1 2860 3 is_stmt 1 discriminator 28
	.loc 1 2860 7 discriminator 28
	.loc 1 2860 22 is_stmt 0 discriminator 28
	movs	r0, #0
	strb	r0, [r3, #192]
	.loc 1 2860 5 is_stmt 1 discriminator 28
	.loc 1 2862 3 discriminator 28
	.loc 1 2863 1 is_stmt 0 discriminator 28
	ldr	r4, [sp], #4
	.cfi_restore 4
	.cfi_def_cfa_offset 0
	bx	lr
.LVL614:
.L557:
	.loc 1 2824 7 is_stmt 1
	.loc 1 2824 13 is_stmt 0
	ldr	r2, [r3]
.LVL615:
	.loc 1 2824 55
	add	r2, r2, r1, lsl #7
	movs	r0, #0
	str	r0, [r2, #224]
	.loc 1 2827 7 is_stmt 1
	.loc 1 2827 16 is_stmt 0
	ldr	r2, [r3]
	.loc 1 2827 51
	add	r2, r2, r1, lsl #7
	ldr	r0, [r2, #140]
	.loc 1 2827 61
	bic	r0, r0, #256
	str	r0, [r2, #140]
	.loc 1 2828 7 is_stmt 1
	b	.L559
.LVL616:
.L566:
	.loc 1 2806 49 is_stmt 0
	movs	r0, #2
	bx	lr
.LVL617:
.L567:
	.loc 1 2844 13
	movs	r0, #1
	.loc 1 2863 1
	bx	lr
.L574:
	.align	2
.L573:
	.word	TimerIdxToTimerId
	.cfi_endproc
.LFE364:
	.size	HAL_HRTIM_SimpleCaptureStop_IT, .-HAL_HRTIM_SimpleCaptureStop_IT
	.section	.text.HAL_HRTIM_SimpleCaptureStart_DMA,"ax",%progbits
	.align	1
	.global	HAL_HRTIM_SimpleCaptureStart_DMA
	.syntax unified
	.thumb
	.thumb_func
	.type	HAL_HRTIM_SimpleCaptureStart_DMA, %function
HAL_HRTIM_SimpleCaptureStart_DMA:
.LFB365:
	.loc 1 2892 1 is_stmt 1
	.cfi_startproc
	@ args = 8, pretend = 0, frame = 0
	@ frame_needed = 0, uses_anonymous_args = 0
.LVL618:
	push	{r3, r4, r5, r6, r7, lr}
	.cfi_def_cfa_offset 24
	.cfi_offset 3, -24
	.cfi_offset 4, -20
	.cfi_offset 5, -16
	.cfi_offset 6, -12
	.cfi_offset 7, -8
	.cfi_offset 14, -4
	mov	r6, r2
	.loc 1 2893 3
	.loc 1 2896 3
	.loc 1 2897 3
	.loc 1 2900 3
	.loc 1 2900 7
	.loc 1 2900 18 is_stmt 0
	ldrb	r2, [r0, #192]	@ zero_extendqisi2
.LVL619:
	.loc 1 2900 9
	cmp	r2, #1
	beq	.L583
	mov	r4, r0
	mov	r5, r1
	mov	r7, r3
	.loc 1 2900 68 is_stmt 1 discriminator 2
	.loc 1 2900 83 is_stmt 0 discriminator 2
	movs	r3, #1
.LVL620:
	strb	r3, [r0, #192]
	.loc 1 2900 5 is_stmt 1 discriminator 2
	.loc 1 2902 3 discriminator 2
	.loc 1 2902 17 is_stmt 0 discriminator 2
	movs	r3, #2
	strb	r3, [r0, #193]
	.loc 1 2905 3 is_stmt 1 discriminator 2
	.loc 1 2905 10 is_stmt 0 discriminator 2
	bl	HRTIM_GetDMAHandleFromTimerIdx
.LVL621:
	.loc 1 2907 3 is_stmt 1 discriminator 2
	.loc 1 2907 6 is_stmt 0 discriminator 2
	cbz	r0, .L587
	.loc 1 2918 3 is_stmt 1
	.loc 1 2918 27 is_stmt 0
	ldr	r3, .L589
	str	r3, [r0, #76]
	.loc 1 2921 3 is_stmt 1
	.loc 1 2921 26 is_stmt 0
	ldr	r3, .L589+4
	str	r3, [r0, #60]
	.loc 1 2924 3 is_stmt 1
	.loc 1 2924 7 is_stmt 0
	ldr	r3, [sp, #28]
	ldr	r2, [sp, #24]
	mov	r1, r7
	bl	HAL_DMA_Start_IT
.LVL622:
	.loc 1 2924 6
	cbnz	r0, .L588
	.loc 1 2934 3 is_stmt 1
	cmp	r6, #1
	beq	.L579
	cmp	r6, #2
	beq	.L580
	.loc 1 2957 7
	.loc 1 2957 21 is_stmt 0
	movs	r3, #7
	strb	r3, [r4, #193]
	.loc 1 2960 7 is_stmt 1
	.loc 1 2960 11
	.loc 1 2960 26 is_stmt 0
	movs	r3, #0
	strb	r3, [r4, #192]
	.loc 1 2960 9 is_stmt 1
	.loc 1 2962 7
	b	.L582
.LVL623:
.L587:
	.loc 1 2909 4
	.loc 1 2909 18 is_stmt 0
	movs	r3, #7
	strb	r3, [r4, #193]
	.loc 1 2912 4 is_stmt 1
	.loc 1 2912 8
	.loc 1 2912 23 is_stmt 0
	movs	r3, #0
	strb	r3, [r4, #192]
	.loc 1 2912 6 is_stmt 1
	.loc 1 2914 4
	.loc 1 2914 11 is_stmt 0
	movs	r0, #1
.LVL624:
	b	.L576
.L588:
	.loc 1 2926 9 is_stmt 1
	.loc 1 2926 23 is_stmt 0
	movs	r3, #7
	strb	r3, [r4, #193]
	.loc 1 2929 9 is_stmt 1
	.loc 1 2929 13
	.loc 1 2929 28 is_stmt 0
	movs	r3, #0
	strb	r3, [r4, #192]
	.loc 1 2929 11 is_stmt 1
	.loc 1 2931 9
	.loc 1 2931 16 is_stmt 0
	movs	r0, #1
	b	.L576
.L579:
	.loc 1 2939 7 is_stmt 1
	.loc 1 2939 13 is_stmt 0
	ldr	r3, [r4]
	.loc 1 2939 85
	rsb	r2, r5, r5, lsl #3
	add	r2, r4, r2, lsl #2
	ldr	r2, [r2, #24]
	.loc 1 2939 55
	add	r3, r3, r5, lsl #7
	str	r2, [r3, #220]
	.loc 1 2941 7 is_stmt 1
	.loc 1 2941 16 is_stmt 0
	ldr	r3, [r4]
	.loc 1 2941 51
	add	r3, r3, r5, lsl #7
	ldr	r2, [r3, #140]
	.loc 1 2941 61
	orr	r2, r2, #8388608
	str	r2, [r3, #140]
	.loc 1 2942 7 is_stmt 1
.L582:
	.loc 1 2966 2
	.loc 1 2966 11 is_stmt 0
	ldrb	r3, [r4, #193]	@ zero_extendqisi2
	uxtb	r3, r3
	.loc 1 2966 4
	cmp	r3, #7
	beq	.L584
	.loc 1 2972 3 is_stmt 1
	.loc 1 2972 12 is_stmt 0
	ldr	r2, [r4]
	.loc 1 2972 35
	ldr	r3, [r2]
	.loc 1 2972 61
	ldr	r1, .L589+8
	ldr	r1, [r1, r5, lsl #2]
	.loc 1 2972 40
	orrs	r3, r3, r1
	str	r3, [r2]
	.loc 1 2974 3 is_stmt 1
	.loc 1 2974 17 is_stmt 0
	movs	r3, #1
	strb	r3, [r4, #193]
	.loc 1 2977 3 is_stmt 1
	.loc 1 2977 7
	.loc 1 2977 22 is_stmt 0
	movs	r3, #0
	strb	r3, [r4, #192]
	.loc 1 2977 5 is_stmt 1
	.loc 1 2979 3
.LVL625:
.L576:
	.loc 1 2980 1 is_stmt 0
	pop	{r3, r4, r5, r6, r7, pc}
.LVL626:
.L580:
	.loc 1 2948 7 is_stmt 1
	.loc 1 2948 13 is_stmt 0
	ldr	r3, [r4]
	.loc 1 2948 85
	rsb	r2, r5, r5, lsl #3
	add	r2, r4, r2, lsl #2
	ldr	r2, [r2, #28]
	.loc 1 2948 55
	add	r3, r3, r5, lsl #7
	str	r2, [r3, #224]
	.loc 1 2951 7 is_stmt 1
	.loc 1 2951 16 is_stmt 0
	ldr	r3, [r4]
	.loc 1 2951 51
	add	r3, r3, r5, lsl #7
	ldr	r2, [r3, #140]
	.loc 1 2951 61
	orr	r2, r2, #16777216
	str	r2, [r3, #140]
	.loc 1 2952 7 is_stmt 1
	b	.L582
.LVL627:
.L583:
	.loc 1 2900 49 is_stmt 0
	movs	r0, #2
.LVL628:
	b	.L576
.LVL629:
.L584:
	.loc 1 2968 13
	movs	r0, #1
	b	.L576
.L590:
	.align	2
.L589:
	.word	HRTIM_DMAError
	.word	HRTIM_DMATimerxCplt
	.word	TimerIdxToTimerId
	.cfi_endproc
.LFE365:
	.size	HAL_HRTIM_SimpleCaptureStart_DMA, .-HAL_HRTIM_SimpleCaptureStart_DMA
	.section	.text.HAL_HRTIM_SimpleCaptureStop_DMA,"ax",%progbits
	.align	1
	.global	HAL_HRTIM_SimpleCaptureStop_DMA
	.syntax unified
	.thumb
	.thumb_func
	.type	HAL_HRTIM_SimpleCaptureStop_DMA, %function
HAL_HRTIM_SimpleCaptureStop_DMA:
.LFB366:
	.loc 1 3002 1 is_stmt 1
	.cfi_startproc
	@ args = 0, pretend = 0, frame = 0
	@ frame_needed = 0, uses_anonymous_args = 0
.LVL630:
	.loc 1 3004 3
	.loc 1 3005 3
	.loc 1 3008 3
	.loc 1 3009 3
	.loc 1 3012 3
	.loc 1 3012 7
	.loc 1 3012 18 is_stmt 0
	ldrb	r3, [r0, #192]	@ zero_extendqisi2
	.loc 1 3012 9
	cmp	r3, #1
	beq	.L604
	.loc 1 3002 1 discriminator 2
	push	{r4, r5, r6, lr}
	.cfi_def_cfa_offset 16
	.cfi_offset 4, -16
	.cfi_offset 5, -12
	.cfi_offset 6, -8
	.cfi_offset 14, -4
	mov	r4, r0
	mov	r5, r1
	mov	r6, r2
	.loc 1 3012 68 is_stmt 1 discriminator 2
	.loc 1 3012 83 is_stmt 0 discriminator 2
	movs	r3, #1
	strb	r3, [r0, #192]
	.loc 1 3012 5 is_stmt 1 discriminator 2
	.loc 1 3014 3 discriminator 2
	.loc 1 3014 17 is_stmt 0 discriminator 2
	movs	r3, #2
	strb	r3, [r0, #193]
	.loc 1 3018 3 is_stmt 1 discriminator 2
	.loc 1 3018 7 is_stmt 0 discriminator 2
	bl	HRTIM_GetDMAHandleFromTimerIdx
.LVL631:
	bl	HAL_DMA_Abort
.LVL632:
	.loc 1 3018 6 discriminator 2
	cbnz	r0, .L611
	.loc 1 3028 3 is_stmt 1
	cmp	r6, #1
	beq	.L594
	cmp	r6, #2
	beq	.L595
	.loc 1 3052 7
	.loc 1 3052 21 is_stmt 0
	movs	r3, #7
	strb	r3, [r4, #193]
	.loc 1 3055 7 is_stmt 1
	.loc 1 3055 11
	.loc 1 3055 26 is_stmt 0
	movs	r3, #0
	strb	r3, [r4, #192]
	.loc 1 3055 9 is_stmt 1
	.loc 1 3057 7
	b	.L597
.L611:
	.loc 1 3020 9
	.loc 1 3020 23 is_stmt 0
	movs	r3, #7
	strb	r3, [r4, #193]
	.loc 1 3023 9 is_stmt 1
	.loc 1 3023 13
	.loc 1 3023 28 is_stmt 0
	movs	r3, #0
	strb	r3, [r4, #192]
	.loc 1 3023 11 is_stmt 1
	.loc 1 3025 9
	.loc 1 3025 16 is_stmt 0
	movs	r0, #1
	b	.L592
.L594:
	.loc 1 3033 7 is_stmt 1
	.loc 1 3033 13 is_stmt 0
	ldr	r3, [r4]
	.loc 1 3033 55
	add	r3, r3, r5, lsl #7
	movs	r2, #0
	str	r2, [r3, #220]
	.loc 1 3036 7 is_stmt 1
	.loc 1 3036 16 is_stmt 0
	ldr	r3, [r4]
	.loc 1 3036 51
	add	r3, r3, r5, lsl #7
	ldr	r2, [r3, #140]
	.loc 1 3036 61
	bic	r2, r2, #8388608
	str	r2, [r3, #140]
	.loc 1 3037 7 is_stmt 1
.L597:
	.loc 1 3061 3
	.loc 1 3061 12 is_stmt 0
	ldrb	r3, [r4, #193]	@ zero_extendqisi2
	uxtb	r3, r3
	.loc 1 3061 5
	cmp	r3, #7
	beq	.L605
	.loc 1 3066 3 is_stmt 1
	.loc 1 3066 24 is_stmt 0
	ldr	r1, [r4]
	.loc 1 3066 16
	add	r2, r1, r5, lsl #7
	ldr	r3, [r2, #220]
.LVL633:
	.loc 1 3067 3 is_stmt 1
	.loc 1 3067 16 is_stmt 0
	ldr	r2, [r2, #224]
.LVL634:
	.loc 1 3070 3 is_stmt 1
	.loc 1 3070 6 is_stmt 0
	orrs	r3, r3, r2
.LVL635:
	bne	.L598
	.loc 1 3073 5 is_stmt 1
	.loc 1 3073 10
	.loc 1 3073 33 is_stmt 0
	ldr	r3, .L612
	ldr	r3, [r3, r5, lsl #2]
	.loc 1 3073 13
	tst	r3, #65536
	beq	.L599
	.loc 1 3073 92 is_stmt 1 discriminator 1
	.loc 1 3073 124 is_stmt 0 discriminator 1
	ldr	r3, [r1]
	.loc 1 3073 129 discriminator 1
	bic	r3, r3, #65536
	str	r3, [r1]
.L599:
	.loc 1 3073 156 is_stmt 1 discriminator 3
	.loc 1 3073 179 is_stmt 0 discriminator 3
	ldr	r3, .L612
	ldr	r3, [r3, r5, lsl #2]
	.loc 1 3073 159 discriminator 3
	tst	r3, #131072
	beq	.L600
	.loc 1 3073 238 is_stmt 1 discriminator 4
	.loc 1 3073 251 is_stmt 0 discriminator 4
	ldr	r3, [r4]
	.loc 1 3073 274 discriminator 4
	ldr	r2, [r3, #916]
.LVL636:
	.loc 1 3073 241 discriminator 4
	tst	r2, #3
	bne	.L600
	.loc 1 3073 341 is_stmt 1 discriminator 6
	.loc 1 3073 373 is_stmt 0 discriminator 6
	ldr	r2, [r3]
	.loc 1 3073 378 discriminator 6
	bic	r2, r2, #131072
	str	r2, [r3]
.L600:
	.loc 1 3073 407 is_stmt 1 discriminator 8
	.loc 1 3073 430 is_stmt 0 discriminator 8
	ldr	r3, .L612
	ldr	r3, [r3, r5, lsl #2]
	.loc 1 3073 410 discriminator 8
	tst	r3, #262144
	beq	.L601
	.loc 1 3073 489 is_stmt 1 discriminator 9
	.loc 1 3073 502 is_stmt 0 discriminator 9
	ldr	r3, [r4]
	.loc 1 3073 525 discriminator 9
	ldr	r2, [r3, #916]
	.loc 1 3073 492 discriminator 9
	tst	r2, #12
	bne	.L601
	.loc 1 3073 592 is_stmt 1 discriminator 11
	.loc 1 3073 624 is_stmt 0 discriminator 11
	ldr	r2, [r3]
	.loc 1 3073 629 discriminator 11
	bic	r2, r2, #262144
	str	r2, [r3]
.L601:
	.loc 1 3073 658 is_stmt 1 discriminator 13
	.loc 1 3073 681 is_stmt 0 discriminator 13
	ldr	r3, .L612
	ldr	r3, [r3, r5, lsl #2]
	.loc 1 3073 661 discriminator 13
	tst	r3, #524288
	beq	.L602
	.loc 1 3073 740 is_stmt 1 discriminator 14
	.loc 1 3073 753 is_stmt 0 discriminator 14
	ldr	r3, [r4]
	.loc 1 3073 776 discriminator 14
	ldr	r2, [r3, #916]
	.loc 1 3073 743 discriminator 14
	tst	r2, #48
	bne	.L602
	.loc 1 3073 843 is_stmt 1 discriminator 16
	.loc 1 3073 875 is_stmt 0 discriminator 16
	ldr	r2, [r3]
	.loc 1 3073 880 discriminator 16
	bic	r2, r2, #524288
	str	r2, [r3]
.L602:
	.loc 1 3073 909 is_stmt 1 discriminator 18
	.loc 1 3073 932 is_stmt 0 discriminator 18
	ldr	r3, .L612
	ldr	r3, [r3, r5, lsl #2]
	.loc 1 3073 912 discriminator 18
	tst	r3, #1048576
	beq	.L603
	.loc 1 3073 991 is_stmt 1 discriminator 19
	.loc 1 3073 1004 is_stmt 0 discriminator 19
	ldr	r3, [r4]
	.loc 1 3073 1027 discriminator 19
	ldr	r2, [r3, #916]
	.loc 1 3073 994 discriminator 19
	tst	r2, #192
	bne	.L603
	.loc 1 3073 1094 is_stmt 1 discriminator 21
	.loc 1 3073 1126 is_stmt 0 discriminator 21
	ldr	r2, [r3]
	.loc 1 3073 1131 discriminator 21
	bic	r2, r2, #1048576
	str	r2, [r3]
.L603:
	.loc 1 3073 1160 is_stmt 1 discriminator 23
	.loc 1 3073 1183 is_stmt 0 discriminator 23
	ldr	r3, .L612
	ldr	r3, [r3, r5, lsl #2]
	.loc 1 3073 1163 discriminator 23
	tst	r3, #2097152
	beq	.L598
	.loc 1 3073 1242 is_stmt 1 discriminator 24
	.loc 1 3073 1255 is_stmt 0 discriminator 24
	ldr	r3, [r4]
	.loc 1 3073 1278 discriminator 24
	ldr	r2, [r3, #916]
	.loc 1 3073 1245 discriminator 24
	tst	r2, #768
	bne	.L598
	.loc 1 3073 1345 is_stmt 1 discriminator 26
	.loc 1 3073 1377 is_stmt 0 discriminator 26
	ldr	r2, [r3]
	.loc 1 3073 1382 discriminator 26
	bic	r2, r2, #2097152
	str	r2, [r3]
.L598:
	.loc 1 3073 8 is_stmt 1 discriminator 28
	.loc 1 3076 3 discriminator 28
	.loc 1 3076 17 is_stmt 0 discriminator 28
	movs	r3, #1
	strb	r3, [r4, #193]
	.loc 1 3079 3 is_stmt 1 discriminator 28
	.loc 1 3079 7 discriminator 28
	.loc 1 3079 22 is_stmt 0 discriminator 28
	movs	r3, #0
	strb	r3, [r4, #192]
	.loc 1 3079 5 is_stmt 1 discriminator 28
	.loc 1 3081 3 discriminator 28
.LVL637:
.L592:
	.loc 1 3082 1 is_stmt 0
	pop	{r4, r5, r6, pc}
.LVL638:
.L595:
	.loc 1 3043 7 is_stmt 1
	.loc 1 3043 13 is_stmt 0
	ldr	r3, [r4]
	.loc 1 3043 55
	add	r3, r3, r5, lsl #7
	movs	r2, #0
	str	r2, [r3, #224]
	.loc 1 3046 7 is_stmt 1
	.loc 1 3046 16 is_stmt 0
	ldr	r3, [r4]
	.loc 1 3046 51
	add	r3, r3, r5, lsl #7
	ldr	r2, [r3, #140]
	.loc 1 3046 61
	bic	r2, r2, #16777216
	str	r2, [r3, #140]
	.loc 1 3047 7 is_stmt 1
	b	.L597
.LVL639:
.L604:
	.cfi_def_cfa_offset 0
	.cfi_restore 4
	.cfi_restore 5
	.cfi_restore 6
	.cfi_restore 14
	.loc 1 3012 49 is_stmt 0
	movs	r0, #2
.LVL640:
	.loc 1 3082 1
	bx	lr
.LVL641:
.L605:
	.cfi_def_cfa_offset 16
	.cfi_offset 4, -16
	.cfi_offset 5, -12
	.cfi_offset 6, -8
	.cfi_offset 14, -4
	.loc 1 3063 13
	movs	r0, #1
	b	.L592
.L613:
	.align	2
.L612:
	.word	TimerIdxToTimerId
	.cfi_endproc
.LFE366:
	.size	HAL_HRTIM_SimpleCaptureStop_DMA, .-HAL_HRTIM_SimpleCaptureStop_DMA
	.section	.text.HAL_HRTIM_SimpleOnePulseChannelConfig,"ax",%progbits
	.align	1
	.global	HAL_HRTIM_SimpleOnePulseChannelConfig
	.syntax unified
	.thumb
	.thumb_func
	.type	HAL_HRTIM_SimpleOnePulseChannelConfig, %function
HAL_HRTIM_SimpleOnePulseChannelConfig:
.LFB367:
	.loc 1 3150 1 is_stmt 1
	.cfi_startproc
	@ args = 0, pretend = 0, frame = 56
	@ frame_needed = 0, uses_anonymous_args = 0
.LVL642:
	push	{r4, r5, r6, r7, lr}
	.cfi_def_cfa_offset 20
	.cfi_offset 4, -20
	.cfi_offset 5, -16
	.cfi_offset 6, -12
	.cfi_offset 7, -8
	.cfi_offset 14, -4
	sub	sp, sp, #60
	.cfi_def_cfa_offset 80
	mov	r4, r0
	.loc 1 3151 3
	.loc 1 3152 3
	.loc 1 3155 3
	.loc 1 3156 3
	.loc 1 3157 3
	.loc 1 3158 3
	.loc 1 3159 3
	.loc 1 3160 3
	.loc 1 3162 3
	.loc 1 3163 3
	.loc 1 3166 3
	.loc 1 3166 12 is_stmt 0
	ldrb	r0, [r0, #193]	@ zero_extendqisi2
.LVL643:
	uxtb	r0, r0
	.loc 1 3166 5
	cmp	r0, #2
	beq	.L615
	mov	r6, r1
	mov	r5, r3
	.loc 1 3172 3 is_stmt 1
	.loc 1 3172 7
	.loc 1 3172 18 is_stmt 0
	ldrb	r3, [r4, #192]	@ zero_extendqisi2
.LVL644:
	.loc 1 3172 9
	cmp	r3, #1
	beq	.L623
	.loc 1 3172 68 is_stmt 1 discriminator 2
	.loc 1 3172 83 is_stmt 0 discriminator 2
	movs	r3, #1
	strb	r3, [r4, #192]
	.loc 1 3172 5 is_stmt 1 discriminator 2
	.loc 1 3174 3 discriminator 2
	.loc 1 3174 17 is_stmt 0 discriminator 2
	movs	r3, #2
	strb	r3, [r4, #193]
	.loc 1 3177 3 is_stmt 1 discriminator 2
	cmp	r2, #32
	bhi	.L616
	.loc 1 3177 3 is_stmt 0
	cmp	r2, r3
	bcs	.L617
	cmp	r2, #1
	bne	.L619
.LVL645:
.L618:
	.loc 1 3185 7 is_stmt 1
	.loc 1 3185 13 is_stmt 0
	ldr	r3, [r4]
	.loc 1 3185 81
	ldr	r1, [r5]
	.loc 1 3185 54
	add	r3, r3, r6, lsl #7
	str	r1, [r3, #156]
	.loc 1 3186 7 is_stmt 1
	.loc 1 3186 27 is_stmt 0
	movs	r3, #8
	str	r3, [sp, #28]
	.loc 1 3187 7 is_stmt 1
.L622:
	.loc 1 3215 3
	.loc 1 3215 12 is_stmt 0
	ldrb	r3, [r4, #193]	@ zero_extendqisi2
	uxtb	r3, r3
	.loc 1 3215 5
	cmp	r3, #7
	beq	.L624
	.loc 1 3221 3 is_stmt 1
	.loc 1 3221 50 is_stmt 0
	ldr	r3, [r5, #4]
	.loc 1 3221 67
	and	r3, r3, #2
	.loc 1 3221 22
	str	r3, [sp, #24]
	.loc 1 3222 3 is_stmt 1
	.loc 1 3222 51 is_stmt 0
	ldr	r3, [r5, #8]
	.loc 1 3222 69
	and	r3, r3, #8
	.loc 1 3222 23
	str	r3, [sp, #40]
	.loc 1 3223 3 is_stmt 1
	.loc 1 3223 24 is_stmt 0
	movs	r7, #0
	str	r7, [sp, #44]
	.loc 1 3224 3 is_stmt 1
	.loc 1 3224 22 is_stmt 0
	str	r7, [sp, #36]
	.loc 1 3225 3 is_stmt 1
	.loc 1 3225 31 is_stmt 0
	str	r7, [sp, #48]
	.loc 1 3226 3 is_stmt 1
	.loc 1 3226 35 is_stmt 0
	str	r7, [sp, #52]
	.loc 1 3227 3 is_stmt 1
	.loc 1 3227 25 is_stmt 0
	movs	r3, #4
	str	r3, [sp, #32]
	.loc 1 3229 3 is_stmt 1
	add	r3, sp, #24
	mov	r1, r6
	mov	r0, r4
	bl	HRTIM_OutputConfig
.LVL646:
	.loc 1 3235 3
	.loc 1 3235 21 is_stmt 0
	str	r7, [sp, #20]
	.loc 1 3236 3 is_stmt 1
	.loc 1 3236 47 is_stmt 0
	ldr	r3, [r5, #24]
	.loc 1 3236 61
	and	r3, r3, #15
	.loc 1 3236 19
	str	r3, [sp, #16]
	.loc 1 3237 3 is_stmt 1
	.loc 1 3237 49 is_stmt 0
	ldr	r3, [r5, #16]
	.loc 1 3237 65
	and	r3, r3, #2
	.loc 1 3237 21
	str	r3, [sp, #8]
	.loc 1 3238 3 is_stmt 1
	.loc 1 3238 52 is_stmt 0
	ldr	r3, [r5, #20]
	.loc 1 3238 71
	and	r3, r3, #24
	.loc 1 3238 24
	str	r3, [sp, #12]
	.loc 1 3239 3 is_stmt 1
	.loc 1 3239 19 is_stmt 0
	str	r7, [sp, #4]
	.loc 1 3241 3 is_stmt 1
	add	r2, sp, #4
	ldr	r1, [r5, #12]
	mov	r0, r4
	bl	HRTIM_EventConfig
.LVL647:
	.loc 1 3246 3
	ldr	r2, [r5, #12]
	mov	r1, r6
	mov	r0, r4
	bl	HRTIM_TIM_ResetConfig
.LVL648:
	.loc 1 3250 3
	.loc 1 3250 17 is_stmt 0
	movs	r3, #1
	strb	r3, [r4, #193]
	.loc 1 3253 3 is_stmt 1
	.loc 1 3253 7
	.loc 1 3253 22 is_stmt 0
	strb	r7, [r4, #192]
	.loc 1 3253 5 is_stmt 1
	.loc 1 3255 3
	.loc 1 3255 10 is_stmt 0
	mov	r0, r7
.LVL649:
.L615:
	.loc 1 3256 1
	add	sp, sp, #60
	.cfi_remember_state
	.cfi_def_cfa_offset 20
	@ sp needed
	pop	{r4, r5, r6, r7, pc}
.LVL650:
.L617:
	.cfi_restore_state
	.loc 1 3177 3
	subs	r1, r2, #2
.LVL651:
	movs	r3, #1
	lsls	r3, r3, r1
	ldr	r1, .L627
	tst	r3, r1
	bne	.L620
	movw	r1, #16388
	tst	r3, r1
	bne	.L618
.L619:
	.loc 1 3203 7 is_stmt 1
	.loc 1 3203 27 is_stmt 0
	movs	r3, #0
	str	r3, [sp, #28]
	.loc 1 3204 7 is_stmt 1
	.loc 1 3204 29 is_stmt 0
	str	r3, [sp, #32]
	.loc 1 3206 7 is_stmt 1
	.loc 1 3206 21 is_stmt 0
	movs	r1, #7
	strb	r1, [r4, #193]
	.loc 1 3209 7 is_stmt 1
	.loc 1 3209 11
	.loc 1 3209 26 is_stmt 0
	strb	r3, [r4, #192]
	.loc 1 3209 9 is_stmt 1
	.loc 1 3211 7
	b	.L622
.LVL652:
.L616:
	.loc 1 3177 3 is_stmt 0
	cmp	r2, #256
	beq	.L618
	bls	.L626
	cmp	r2, #512
	bne	.L619
	b	.L620
.L626:
	cmp	r2, #64
	beq	.L618
	cmp	r2, #128
	bne	.L619
.LVL653:
.L620:
	.loc 1 3196 7 is_stmt 1
	.loc 1 3196 13 is_stmt 0
	ldr	r3, [r4]
	.loc 1 3196 81
	ldr	r1, [r5]
	.loc 1 3196 54
	add	r3, r3, r6, lsl #7
	str	r1, [r3, #164]
	.loc 1 3197 7 is_stmt 1
	.loc 1 3197 27 is_stmt 0
	movs	r3, #16
	str	r3, [sp, #28]
	.loc 1 3198 7 is_stmt 1
	b	.L622
.LVL654:
.L623:
	.loc 1 3172 49 is_stmt 0
	movs	r0, #2
	b	.L615
.LVL655:
.L624:
	.loc 1 3217 13
	movs	r0, #1
	b	.L615
.L628:
	.align	2
.L627:
	.word	1073741889
	.cfi_endproc
.LFE367:
	.size	HAL_HRTIM_SimpleOnePulseChannelConfig, .-HAL_HRTIM_SimpleOnePulseChannelConfig
	.section	.text.HAL_HRTIM_SimpleOnePulseStart,"ax",%progbits
	.align	1
	.global	HAL_HRTIM_SimpleOnePulseStart
	.syntax unified
	.thumb
	.thumb_func
	.type	HAL_HRTIM_SimpleOnePulseStart, %function
HAL_HRTIM_SimpleOnePulseStart:
.LFB368:
	.loc 1 3285 1 is_stmt 1
	.cfi_startproc
	@ args = 0, pretend = 0, frame = 0
	@ frame_needed = 0, uses_anonymous_args = 0
	@ link register save eliminated.
.LVL656:
	mov	r3, r0
	.loc 1 3287 3
	.loc 1 3290 3
	.loc 1 3290 7
	.loc 1 3290 18 is_stmt 0
	ldrb	r0, [r0, #192]	@ zero_extendqisi2
.LVL657:
	.loc 1 3290 9
	cmp	r0, #1
	beq	.L631
	.loc 1 3285 1 discriminator 2
	push	{r4}
	.cfi_def_cfa_offset 4
	.cfi_offset 4, -4
	.loc 1 3290 68 is_stmt 1 discriminator 2
	.loc 1 3290 83 is_stmt 0 discriminator 2
	mov	ip, #1
	strb	ip, [r3, #192]
	.loc 1 3290 5 is_stmt 1 discriminator 2
	.loc 1 3292 3 discriminator 2
	.loc 1 3292 17 is_stmt 0 discriminator 2
	movs	r0, #2
	strb	r0, [r3, #193]
	.loc 1 3295 3 is_stmt 1 discriminator 2
	.loc 1 3295 9 is_stmt 0 discriminator 2
	ldr	r4, [r3]
	.loc 1 3295 32 discriminator 2
	ldr	r0, [r4, #916]
	.loc 1 3295 38 discriminator 2
	orrs	r2, r2, r0
.LVL658:
	str	r2, [r4, #916]
	.loc 1 3298 3 is_stmt 1 discriminator 2
	.loc 1 3298 12 is_stmt 0 discriminator 2
	ldr	r0, [r3]
	.loc 1 3298 35 discriminator 2
	ldr	r2, [r0]
	.loc 1 3298 61 discriminator 2
	ldr	r4, .L636
	ldr	r1, [r4, r1, lsl #2]
.LVL659:
	.loc 1 3298 40 discriminator 2
	orrs	r2, r2, r1
	str	r2, [r0]
	.loc 1 3300 3 is_stmt 1 discriminator 2
	.loc 1 3300 17 is_stmt 0 discriminator 2
	strb	ip, [r3, #193]
	.loc 1 3303 3 is_stmt 1 discriminator 2
	.loc 1 3303 7 discriminator 2
	.loc 1 3303 22 is_stmt 0 discriminator 2
	movs	r0, #0
	strb	r0, [r3, #192]
	.loc 1 3303 5 is_stmt 1 discriminator 2
	.loc 1 3305 3 discriminator 2
	.loc 1 3306 1 is_stmt 0 discriminator 2
	ldr	r4, [sp], #4
	.cfi_restore 4
	.cfi_def_cfa_offset 0
	bx	lr
.LVL660:
.L631:
	.loc 1 3290 49
	movs	r0, #2
	.loc 1 3306 1
	bx	lr
.L637:
	.align	2
.L636:
	.word	TimerIdxToTimerId
	.cfi_endproc
.LFE368:
	.size	HAL_HRTIM_SimpleOnePulseStart, .-HAL_HRTIM_SimpleOnePulseStart
	.section	.text.HAL_HRTIM_SimpleOnePulseStop,"ax",%progbits
	.align	1
	.global	HAL_HRTIM_SimpleOnePulseStop
	.syntax unified
	.thumb
	.thumb_func
	.type	HAL_HRTIM_SimpleOnePulseStop, %function
HAL_HRTIM_SimpleOnePulseStop:
.LFB369:
	.loc 1 3335 1 is_stmt 1
	.cfi_startproc
	@ args = 0, pretend = 0, frame = 0
	@ frame_needed = 0, uses_anonymous_args = 0
	@ link register save eliminated.
.LVL661:
	mov	r3, r0
	.loc 1 3337 3
	.loc 1 3340 3
	.loc 1 3340 7
	.loc 1 3340 18 is_stmt 0
	ldrb	r0, [r0, #192]	@ zero_extendqisi2
.LVL662:
	.loc 1 3340 9
	cmp	r0, #1
	beq	.L646
	.loc 1 3335 1 discriminator 2
	push	{r4}
	.cfi_def_cfa_offset 4
	.cfi_offset 4, -4
	.loc 1 3340 68 is_stmt 1 discriminator 2
	.loc 1 3340 83 is_stmt 0 discriminator 2
	movs	r0, #1
	strb	r0, [r3, #192]
	.loc 1 3340 5 is_stmt 1 discriminator 2
	.loc 1 3342 3 discriminator 2
	.loc 1 3342 17 is_stmt 0 discriminator 2
	movs	r0, #2
	strb	r0, [r3, #193]
	.loc 1 3345 3 is_stmt 1 discriminator 2
	.loc 1 3345 9 is_stmt 0 discriminator 2
	ldr	r4, [r3]
	.loc 1 3345 32 discriminator 2
	ldr	r0, [r4, #920]
	.loc 1 3345 39 discriminator 2
	orrs	r2, r2, r0
.LVL663:
	str	r2, [r4, #920]
	.loc 1 3348 3 is_stmt 1 discriminator 2
	.loc 1 3348 8 discriminator 2
	.loc 1 3348 31 is_stmt 0 discriminator 2
	ldr	r2, .L651
	ldr	r2, [r2, r1, lsl #2]
	.loc 1 3348 11 discriminator 2
	tst	r2, #65536
	beq	.L640
	.loc 1 3348 90 is_stmt 1 discriminator 1
	.loc 1 3348 99 is_stmt 0 discriminator 1
	ldr	r0, [r3]
	.loc 1 3348 122 discriminator 1
	ldr	r2, [r0]
	.loc 1 3348 127 discriminator 1
	bic	r2, r2, #65536
	str	r2, [r0]
.L640:
	.loc 1 3348 154 is_stmt 1 discriminator 3
	.loc 1 3348 177 is_stmt 0 discriminator 3
	ldr	r2, .L651
	ldr	r2, [r2, r1, lsl #2]
	.loc 1 3348 157 discriminator 3
	tst	r2, #131072
	beq	.L641
	.loc 1 3348 236 is_stmt 1 discriminator 4
	.loc 1 3348 249 is_stmt 0 discriminator 4
	ldr	r2, [r3]
	.loc 1 3348 272 discriminator 4
	ldr	r0, [r2, #916]
	.loc 1 3348 239 discriminator 4
	tst	r0, #3
	bne	.L641
	.loc 1 3348 339 is_stmt 1 discriminator 6
	.loc 1 3348 371 is_stmt 0 discriminator 6
	ldr	r0, [r2]
	.loc 1 3348 376 discriminator 6
	bic	r0, r0, #131072
	str	r0, [r2]
.L641:
	.loc 1 3348 405 is_stmt 1 discriminator 8
	.loc 1 3348 428 is_stmt 0 discriminator 8
	ldr	r2, .L651
	ldr	r2, [r2, r1, lsl #2]
	.loc 1 3348 408 discriminator 8
	tst	r2, #262144
	beq	.L642
	.loc 1 3348 487 is_stmt 1 discriminator 9
	.loc 1 3348 500 is_stmt 0 discriminator 9
	ldr	r2, [r3]
	.loc 1 3348 523 discriminator 9
	ldr	r0, [r2, #916]
	.loc 1 3348 490 discriminator 9
	tst	r0, #12
	bne	.L642
	.loc 1 3348 590 is_stmt 1 discriminator 11
	.loc 1 3348 622 is_stmt 0 discriminator 11
	ldr	r0, [r2]
	.loc 1 3348 627 discriminator 11
	bic	r0, r0, #262144
	str	r0, [r2]
.L642:
	.loc 1 3348 656 is_stmt 1 discriminator 13
	.loc 1 3348 679 is_stmt 0 discriminator 13
	ldr	r2, .L651
	ldr	r2, [r2, r1, lsl #2]
	.loc 1 3348 659 discriminator 13
	tst	r2, #524288
	beq	.L643
	.loc 1 3348 738 is_stmt 1 discriminator 14
	.loc 1 3348 751 is_stmt 0 discriminator 14
	ldr	r2, [r3]
	.loc 1 3348 774 discriminator 14
	ldr	r0, [r2, #916]
	.loc 1 3348 741 discriminator 14
	tst	r0, #48
	bne	.L643
	.loc 1 3348 841 is_stmt 1 discriminator 16
	.loc 1 3348 873 is_stmt 0 discriminator 16
	ldr	r0, [r2]
	.loc 1 3348 878 discriminator 16
	bic	r0, r0, #524288
	str	r0, [r2]
.L643:
	.loc 1 3348 907 is_stmt 1 discriminator 18
	.loc 1 3348 930 is_stmt 0 discriminator 18
	ldr	r2, .L651
	ldr	r2, [r2, r1, lsl #2]
	.loc 1 3348 910 discriminator 18
	tst	r2, #1048576
	beq	.L644
	.loc 1 3348 989 is_stmt 1 discriminator 19
	.loc 1 3348 1002 is_stmt 0 discriminator 19
	ldr	r2, [r3]
	.loc 1 3348 1025 discriminator 19
	ldr	r0, [r2, #916]
	.loc 1 3348 992 discriminator 19
	tst	r0, #192
	bne	.L644
	.loc 1 3348 1092 is_stmt 1 discriminator 21
	.loc 1 3348 1124 is_stmt 0 discriminator 21
	ldr	r0, [r2]
	.loc 1 3348 1129 discriminator 21
	bic	r0, r0, #1048576
	str	r0, [r2]
.L644:
	.loc 1 3348 1158 is_stmt 1 discriminator 23
	.loc 1 3348 1181 is_stmt 0 discriminator 23
	ldr	r2, .L651
	ldr	r2, [r2, r1, lsl #2]
	.loc 1 3348 1161 discriminator 23
	tst	r2, #2097152
	beq	.L645
	.loc 1 3348 1240 is_stmt 1 discriminator 24
	.loc 1 3348 1253 is_stmt 0 discriminator 24
	ldr	r2, [r3]
	.loc 1 3348 1276 discriminator 24
	ldr	r1, [r2, #916]
.LVL664:
	.loc 1 3348 1243 discriminator 24
	tst	r1, #768
	bne	.L645
	.loc 1 3348 1343 is_stmt 1 discriminator 26
	.loc 1 3348 1375 is_stmt 0 discriminator 26
	ldr	r1, [r2]
	.loc 1 3348 1380 discriminator 26
	bic	r1, r1, #2097152
	str	r1, [r2]
.L645:
	.loc 1 3348 6 is_stmt 1 discriminator 28
	.loc 1 3350 3 discriminator 28
	.loc 1 3350 17 is_stmt 0 discriminator 28
	movs	r2, #1
	strb	r2, [r3, #193]
	.loc 1 3353 3 is_stmt 1 discriminator 28
	.loc 1 3353 7 discriminator 28
	.loc 1 3353 22 is_stmt 0 discriminator 28
	movs	r0, #0
	strb	r0, [r3, #192]
	.loc 1 3353 5 is_stmt 1 discriminator 28
	.loc 1 3355 3 discriminator 28
	.loc 1 3356 1 is_stmt 0 discriminator 28
	ldr	r4, [sp], #4
	.cfi_restore 4
	.cfi_def_cfa_offset 0
	bx	lr
.LVL665:
.L646:
	.loc 1 3340 49
	movs	r0, #2
	.loc 1 3356 1
	bx	lr
.L652:
	.align	2
.L651:
	.word	TimerIdxToTimerId
	.cfi_endproc
.LFE369:
	.size	HAL_HRTIM_SimpleOnePulseStop, .-HAL_HRTIM_SimpleOnePulseStop
	.section	.text.HAL_HRTIM_SimpleOnePulseStart_IT,"ax",%progbits
	.align	1
	.global	HAL_HRTIM_SimpleOnePulseStart_IT
	.syntax unified
	.thumb
	.thumb_func
	.type	HAL_HRTIM_SimpleOnePulseStart_IT, %function
HAL_HRTIM_SimpleOnePulseStart_IT:
.LFB370:
	.loc 1 3386 1 is_stmt 1
	.cfi_startproc
	@ args = 0, pretend = 0, frame = 0
	@ frame_needed = 0, uses_anonymous_args = 0
	@ link register save eliminated.
.LVL666:
	mov	r3, r0
	.loc 1 3388 3
	.loc 1 3391 3
	.loc 1 3391 7
	.loc 1 3391 18 is_stmt 0
	ldrb	r0, [r0, #192]	@ zero_extendqisi2
.LVL667:
	.loc 1 3391 9
	cmp	r0, #1
	beq	.L662
	.loc 1 3386 1 discriminator 2
	push	{r4}
	.cfi_def_cfa_offset 4
	.cfi_offset 4, -4
	.loc 1 3391 68 is_stmt 1 discriminator 2
	.loc 1 3391 83 is_stmt 0 discriminator 2
	movs	r0, #1
	strb	r0, [r3, #192]
	.loc 1 3391 5 is_stmt 1 discriminator 2
	.loc 1 3393 3 discriminator 2
	.loc 1 3393 17 is_stmt 0 discriminator 2
	movs	r0, #2
	strb	r0, [r3, #193]
	.loc 1 3396 3 is_stmt 1 discriminator 2
	.loc 1 3396 9 is_stmt 0 discriminator 2
	ldr	r4, [r3]
	.loc 1 3396 32 discriminator 2
	ldr	r0, [r4, #916]
	.loc 1 3396 38 discriminator 2
	orrs	r0, r0, r2
	str	r0, [r4, #916]
	.loc 1 3399 3 is_stmt 1 discriminator 2
	cmp	r2, #32
	bhi	.L655
	.loc 1 3399 3 is_stmt 0
	cmp	r2, #2
	bcs	.L656
	cmp	r2, #1
	bne	.L658
.LVL668:
.L657:
	.loc 1 3407 7 is_stmt 1
	.loc 1 3407 16 is_stmt 0
	ldr	r2, [r3]
	.loc 1 3407 51
	add	r2, r2, r1, lsl #7
	ldr	r0, [r2, #140]
	.loc 1 3407 61
	orr	r0, r0, #1
	str	r0, [r2, #140]
	.loc 1 3408 7 is_stmt 1
.L661:
	.loc 1 3432 3
	.loc 1 3432 12 is_stmt 0
	ldrb	r2, [r3, #193]	@ zero_extendqisi2
	uxtb	r2, r2
	.loc 1 3432 5
	cmp	r2, #7
	beq	.L663
	.loc 1 3438 3 is_stmt 1
	.loc 1 3438 12 is_stmt 0
	ldr	r0, [r3]
	.loc 1 3438 35
	ldr	r2, [r0]
	.loc 1 3438 61
	ldr	r4, .L669
	ldr	r1, [r4, r1, lsl #2]
.LVL669:
	.loc 1 3438 40
	orrs	r2, r2, r1
	str	r2, [r0]
	.loc 1 3440 3 is_stmt 1
	.loc 1 3440 17 is_stmt 0
	movs	r2, #1
	strb	r2, [r3, #193]
	.loc 1 3443 3 is_stmt 1
	.loc 1 3443 7
	.loc 1 3443 22 is_stmt 0
	movs	r0, #0
	strb	r0, [r3, #192]
	.loc 1 3443 5 is_stmt 1
	.loc 1 3445 3
.L654:
	.loc 1 3446 1 is_stmt 0
	ldr	r4, [sp], #4
	.cfi_remember_state
	.cfi_restore 4
	.cfi_def_cfa_offset 0
	bx	lr
.LVL670:
.L656:
	.cfi_restore_state
	.loc 1 3399 3
	subs	r2, r2, #2
.LVL671:
	movs	r0, #1
	lsl	r2, r0, r2
.LVL672:
	ldr	r0, .L669+4
	tst	r2, r0
	bne	.L659
	movw	r0, #16388
	tst	r2, r0
	bne	.L657
.L658:
	.loc 1 3423 7 is_stmt 1
	.loc 1 3423 21 is_stmt 0
	movs	r2, #7
	strb	r2, [r3, #193]
	.loc 1 3426 7 is_stmt 1
	.loc 1 3426 11
	.loc 1 3426 26 is_stmt 0
	movs	r2, #0
	strb	r2, [r3, #192]
	.loc 1 3426 9 is_stmt 1
	.loc 1 3428 7
	b	.L661
.LVL673:
.L655:
	.loc 1 3399 3 is_stmt 0
	cmp	r2, #256
	beq	.L657
	bls	.L668
	cmp	r2, #512
	bne	.L658
	b	.L659
.L668:
	cmp	r2, #64
	beq	.L657
	cmp	r2, #128
	bne	.L658
.LVL674:
.L659:
	.loc 1 3417 7 is_stmt 1
	.loc 1 3417 16 is_stmt 0
	ldr	r2, [r3]
	.loc 1 3417 51
	add	r2, r2, r1, lsl #7
	ldr	r0, [r2, #140]
	.loc 1 3417 61
	orr	r0, r0, #2
	str	r0, [r2, #140]
	.loc 1 3418 7 is_stmt 1
	b	.L661
.LVL675:
.L662:
	.cfi_def_cfa_offset 0
	.cfi_restore 4
	.loc 1 3391 49 is_stmt 0
	movs	r0, #2
	.loc 1 3446 1
	bx	lr
.LVL676:
.L663:
	.cfi_def_cfa_offset 4
	.cfi_offset 4, -4
	.loc 1 3434 13
	movs	r0, #1
	b	.L654
.L670:
	.align	2
.L669:
	.word	TimerIdxToTimerId
	.word	1073741889
	.cfi_endproc
.LFE370:
	.size	HAL_HRTIM_SimpleOnePulseStart_IT, .-HAL_HRTIM_SimpleOnePulseStart_IT
	.section	.text.HAL_HRTIM_SimpleOnePulseStop_IT,"ax",%progbits
	.align	1
	.global	HAL_HRTIM_SimpleOnePulseStop_IT
	.syntax unified
	.thumb
	.thumb_func
	.type	HAL_HRTIM_SimpleOnePulseStop_IT, %function
HAL_HRTIM_SimpleOnePulseStop_IT:
.LFB371:
	.loc 1 3476 1 is_stmt 1
	.cfi_startproc
	@ args = 0, pretend = 0, frame = 0
	@ frame_needed = 0, uses_anonymous_args = 0
	@ link register save eliminated.
.LVL677:
	mov	r3, r0
	.loc 1 3478 3
	.loc 1 3481 3
	.loc 1 3481 7
	.loc 1 3481 18 is_stmt 0
	ldrb	r0, [r0, #192]	@ zero_extendqisi2
.LVL678:
	.loc 1 3481 9
	cmp	r0, #1
	beq	.L686
	.loc 1 3476 1 discriminator 2
	push	{r4}
	.cfi_def_cfa_offset 4
	.cfi_offset 4, -4
	.loc 1 3481 68 is_stmt 1 discriminator 2
	.loc 1 3481 83 is_stmt 0 discriminator 2
	movs	r0, #1
	strb	r0, [r3, #192]
	.loc 1 3481 5 is_stmt 1 discriminator 2
	.loc 1 3483 3 discriminator 2
	.loc 1 3483 17 is_stmt 0 discriminator 2
	movs	r0, #2
	strb	r0, [r3, #193]
	.loc 1 3486 3 is_stmt 1 discriminator 2
	.loc 1 3486 9 is_stmt 0 discriminator 2
	ldr	r4, [r3]
	.loc 1 3486 32 discriminator 2
	ldr	r0, [r4, #920]
	.loc 1 3486 39 discriminator 2
	orrs	r0, r0, r2
	str	r0, [r4, #920]
	.loc 1 3489 3 is_stmt 1 discriminator 2
	cmp	r2, #32
	bhi	.L673
	.loc 1 3489 3 is_stmt 0
	cmp	r2, #2
	bcs	.L674
	cmp	r2, #1
	bne	.L676
.LVL679:
.L675:
	.loc 1 3497 7 is_stmt 1
	.loc 1 3497 16 is_stmt 0
	ldr	r2, [r3]
	.loc 1 3497 51
	add	r2, r2, r1, lsl #7
	ldr	r0, [r2, #140]
	.loc 1 3497 61
	bic	r0, r0, #1
	str	r0, [r2, #140]
	.loc 1 3498 7 is_stmt 1
.L679:
	.loc 1 3522 3
	.loc 1 3522 12 is_stmt 0
	ldrb	r2, [r3, #193]	@ zero_extendqisi2
	uxtb	r2, r2
	.loc 1 3522 5
	cmp	r2, #7
	beq	.L687
	.loc 1 3528 3 is_stmt 1
	.loc 1 3528 8
	.loc 1 3528 31 is_stmt 0
	ldr	r2, .L693
	ldr	r2, [r2, r1, lsl #2]
	.loc 1 3528 11
	tst	r2, #65536
	beq	.L680
	.loc 1 3528 90 is_stmt 1 discriminator 1
	.loc 1 3528 99 is_stmt 0 discriminator 1
	ldr	r0, [r3]
	.loc 1 3528 122 discriminator 1
	ldr	r2, [r0]
	.loc 1 3528 127 discriminator 1
	bic	r2, r2, #65536
	str	r2, [r0]
.L680:
	.loc 1 3528 154 is_stmt 1 discriminator 3
	.loc 1 3528 177 is_stmt 0 discriminator 3
	ldr	r2, .L693
	ldr	r2, [r2, r1, lsl #2]
	.loc 1 3528 157 discriminator 3
	tst	r2, #131072
	beq	.L681
	.loc 1 3528 236 is_stmt 1 discriminator 4
	.loc 1 3528 249 is_stmt 0 discriminator 4
	ldr	r2, [r3]
	.loc 1 3528 272 discriminator 4
	ldr	r0, [r2, #916]
	.loc 1 3528 239 discriminator 4
	tst	r0, #3
	bne	.L681
	.loc 1 3528 339 is_stmt 1 discriminator 6
	.loc 1 3528 371 is_stmt 0 discriminator 6
	ldr	r0, [r2]
	.loc 1 3528 376 discriminator 6
	bic	r0, r0, #131072
	str	r0, [r2]
.L681:
	.loc 1 3528 405 is_stmt 1 discriminator 8
	.loc 1 3528 428 is_stmt 0 discriminator 8
	ldr	r2, .L693
	ldr	r2, [r2, r1, lsl #2]
	.loc 1 3528 408 discriminator 8
	tst	r2, #262144
	beq	.L682
	.loc 1 3528 487 is_stmt 1 discriminator 9
	.loc 1 3528 500 is_stmt 0 discriminator 9
	ldr	r2, [r3]
	.loc 1 3528 523 discriminator 9
	ldr	r0, [r2, #916]
	.loc 1 3528 490 discriminator 9
	tst	r0, #12
	bne	.L682
	.loc 1 3528 590 is_stmt 1 discriminator 11
	.loc 1 3528 622 is_stmt 0 discriminator 11
	ldr	r0, [r2]
	.loc 1 3528 627 discriminator 11
	bic	r0, r0, #262144
	str	r0, [r2]
.L682:
	.loc 1 3528 656 is_stmt 1 discriminator 13
	.loc 1 3528 679 is_stmt 0 discriminator 13
	ldr	r2, .L693
	ldr	r2, [r2, r1, lsl #2]
	.loc 1 3528 659 discriminator 13
	tst	r2, #524288
	beq	.L683
	.loc 1 3528 738 is_stmt 1 discriminator 14
	.loc 1 3528 751 is_stmt 0 discriminator 14
	ldr	r2, [r3]
	.loc 1 3528 774 discriminator 14
	ldr	r0, [r2, #916]
	.loc 1 3528 741 discriminator 14
	tst	r0, #48
	bne	.L683
	.loc 1 3528 841 is_stmt 1 discriminator 16
	.loc 1 3528 873 is_stmt 0 discriminator 16
	ldr	r0, [r2]
	.loc 1 3528 878 discriminator 16
	bic	r0, r0, #524288
	str	r0, [r2]
.L683:
	.loc 1 3528 907 is_stmt 1 discriminator 18
	.loc 1 3528 930 is_stmt 0 discriminator 18
	ldr	r2, .L693
	ldr	r2, [r2, r1, lsl #2]
	.loc 1 3528 910 discriminator 18
	tst	r2, #1048576
	beq	.L684
	.loc 1 3528 989 is_stmt 1 discriminator 19
	.loc 1 3528 1002 is_stmt 0 discriminator 19
	ldr	r2, [r3]
	.loc 1 3528 1025 discriminator 19
	ldr	r0, [r2, #916]
	.loc 1 3528 992 discriminator 19
	tst	r0, #192
	bne	.L684
	.loc 1 3528 1092 is_stmt 1 discriminator 21
	.loc 1 3528 1124 is_stmt 0 discriminator 21
	ldr	r0, [r2]
	.loc 1 3528 1129 discriminator 21
	bic	r0, r0, #1048576
	str	r0, [r2]
.L684:
	.loc 1 3528 1158 is_stmt 1 discriminator 23
	.loc 1 3528 1181 is_stmt 0 discriminator 23
	ldr	r2, .L693
	ldr	r2, [r2, r1, lsl #2]
	.loc 1 3528 1161 discriminator 23
	tst	r2, #2097152
	beq	.L685
	.loc 1 3528 1240 is_stmt 1 discriminator 24
	.loc 1 3528 1253 is_stmt 0 discriminator 24
	ldr	r2, [r3]
	.loc 1 3528 1276 discriminator 24
	ldr	r1, [r2, #916]
.LVL680:
	.loc 1 3528 1243 discriminator 24
	tst	r1, #768
	bne	.L685
	.loc 1 3528 1343 is_stmt 1 discriminator 26
	.loc 1 3528 1375 is_stmt 0 discriminator 26
	ldr	r1, [r2]
	.loc 1 3528 1380 discriminator 26
	bic	r1, r1, #2097152
	str	r1, [r2]
.L685:
	.loc 1 3528 6 is_stmt 1 discriminator 28
	.loc 1 3530 3 discriminator 28
	.loc 1 3530 17 is_stmt 0 discriminator 28
	movs	r2, #1
	strb	r2, [r3, #193]
	.loc 1 3533 3 is_stmt 1 discriminator 28
	.loc 1 3533 7 discriminator 28
	.loc 1 3533 22 is_stmt 0 discriminator 28
	movs	r0, #0
	strb	r0, [r3, #192]
	.loc 1 3533 5 is_stmt 1 discriminator 28
	.loc 1 3535 3 discriminator 28
.L672:
	.loc 1 3536 1 is_stmt 0
	ldr	r4, [sp], #4
	.cfi_remember_state
	.cfi_restore 4
	.cfi_def_cfa_offset 0
	bx	lr
.LVL681:
.L674:
	.cfi_restore_state
	.loc 1 3489 3
	subs	r2, r2, #2
.LVL682:
	movs	r0, #1
	lsl	r2, r0, r2
.LVL683:
	ldr	r0, .L693+4
	tst	r2, r0
	bne	.L677
	movw	r0, #16388
	tst	r2, r0
	bne	.L675
.L676:
	.loc 1 3513 7 is_stmt 1
	.loc 1 3513 21 is_stmt 0
	movs	r2, #7
	strb	r2, [r3, #193]
	.loc 1 3516 7 is_stmt 1
	.loc 1 3516 11
	.loc 1 3516 26 is_stmt 0
	movs	r2, #0
	strb	r2, [r3, #192]
	.loc 1 3516 9 is_stmt 1
	.loc 1 3518 7
	b	.L679
.LVL684:
.L673:
	.loc 1 3489 3 is_stmt 0
	cmp	r2, #256
	beq	.L675
	bls	.L692
	cmp	r2, #512
	bne	.L676
	b	.L677
.L692:
	cmp	r2, #64
	beq	.L675
	cmp	r2, #128
	bne	.L676
.LVL685:
.L677:
	.loc 1 3507 7 is_stmt 1
	.loc 1 3507 16 is_stmt 0
	ldr	r2, [r3]
	.loc 1 3507 51
	add	r2, r2, r1, lsl #7
	ldr	r0, [r2, #140]
	.loc 1 3507 61
	bic	r0, r0, #2
	str	r0, [r2, #140]
	.loc 1 3508 7 is_stmt 1
	b	.L679
.LVL686:
.L686:
	.cfi_def_cfa_offset 0
	.cfi_restore 4
	.loc 1 3481 49 is_stmt 0
	movs	r0, #2
	.loc 1 3536 1
	bx	lr
.LVL687:
.L687:
	.cfi_def_cfa_offset 4
	.cfi_offset 4, -4
	.loc 1 3524 13
	movs	r0, #1
	b	.L672
.L694:
	.align	2
.L693:
	.word	TimerIdxToTimerId
	.word	1073741889
	.cfi_endproc
.LFE371:
	.size	HAL_HRTIM_SimpleOnePulseStop_IT, .-HAL_HRTIM_SimpleOnePulseStop_IT
	.section	.text.HAL_HRTIM_BurstModeConfig,"ax",%progbits
	.align	1
	.global	HAL_HRTIM_BurstModeConfig
	.syntax unified
	.thumb
	.thumb_func
	.type	HAL_HRTIM_BurstModeConfig, %function
HAL_HRTIM_BurstModeConfig:
.LFB372:
	.loc 1 3572 1 is_stmt 1
	.cfi_startproc
	@ args = 0, pretend = 0, frame = 0
	@ frame_needed = 0, uses_anonymous_args = 0
.LVL688:
	mov	r3, r0
	.loc 1 3573 3
	.loc 1 3576 3
	.loc 1 3577 3
	.loc 1 3578 3
	.loc 1 3579 3
	.loc 1 3580 3
	.loc 1 3582 3
	.loc 1 3582 12 is_stmt 0
	ldrb	r0, [r0, #193]	@ zero_extendqisi2
.LVL689:
	uxtb	r0, r0
	.loc 1 3582 5
	cmp	r0, #2
	beq	.L699
	.loc 1 3588 3 is_stmt 1
	.loc 1 3588 7
	.loc 1 3588 18 is_stmt 0
	ldrb	r2, [r3, #192]	@ zero_extendqisi2
	.loc 1 3588 9
	cmp	r2, #1
	beq	.L697
	.loc 1 3572 1 discriminator 2
	push	{r4, lr}
	.cfi_def_cfa_offset 8
	.cfi_offset 4, -8
	.cfi_offset 14, -4
	.loc 1 3588 68 is_stmt 1 discriminator 2
	.loc 1 3588 83 is_stmt 0 discriminator 2
	mov	ip, #1
	strb	ip, [r3, #192]
	.loc 1 3588 5 is_stmt 1 discriminator 2
	.loc 1 3590 3 discriminator 2
	.loc 1 3590 17 is_stmt 0 discriminator 2
	movs	r2, #2
	strb	r2, [r3, #193]
	.loc 1 3592 3 is_stmt 1 discriminator 2
	.loc 1 3592 22 is_stmt 0 discriminator 2
	ldr	r4, [r3]
	.loc 1 3592 14 discriminator 2
	ldr	r2, [r4, #928]
.LVL690:
	.loc 1 3595 3 is_stmt 1 discriminator 2
	.loc 1 3595 14 is_stmt 0 discriminator 2
	bic	lr, r2, #2
.LVL691:
	.loc 1 3596 3 is_stmt 1 discriminator 2
	.loc 1 3596 31 is_stmt 0 discriminator 2
	ldr	r2, [r1]
	.loc 1 3596 38 discriminator 2
	and	r0, r2, #2
	.loc 1 3596 14 discriminator 2
	orr	r0, r0, lr
.LVL692:
	.loc 1 3599 3 is_stmt 1 discriminator 2
	.loc 1 3599 14 is_stmt 0 discriminator 2
	bic	r0, r0, #60
.LVL693:
	.loc 1 3600 3 is_stmt 1 discriminator 2
	.loc 1 3600 31 is_stmt 0 discriminator 2
	ldr	r2, [r1, #4]
	.loc 1 3600 45 discriminator 2
	and	r2, r2, #60
	.loc 1 3600 14 discriminator 2
	orrs	r2, r2, r0
.LVL694:
	.loc 1 3603 3 is_stmt 1 discriminator 2
	.loc 1 3603 14 is_stmt 0 discriminator 2
	bic	r2, r2, #960
.LVL695:
	.loc 1 3604 3 is_stmt 1 discriminator 2
	.loc 1 3604 30 is_stmt 0 discriminator 2
	ldr	r0, [r1, #8]
	.loc 1 3604 14 discriminator 2
	orrs	r0, r0, r2
.LVL696:
	.loc 1 3607 3 is_stmt 1 discriminator 2
	.loc 1 3607 14 is_stmt 0 discriminator 2
	bic	r0, r0, #1024
.LVL697:
	.loc 1 3608 3 is_stmt 1 discriminator 2
	.loc 1 3608 31 is_stmt 0 discriminator 2
	ldr	r2, [r1, #12]
	.loc 1 3608 47 discriminator 2
	and	r2, r2, #1024
	.loc 1 3608 14 discriminator 2
	orrs	r2, r2, r0
.LVL698:
	.loc 1 3611 3 is_stmt 1 discriminator 2
	.loc 1 3611 55 is_stmt 0 discriminator 2
	ldr	r0, [r1, #16]
	.loc 1 3611 40 discriminator 2
	str	r0, [r4, #932]
	.loc 1 3614 3 is_stmt 1 discriminator 2
	.loc 1 3614 9 is_stmt 0 discriminator 2
	ldr	r0, [r3]
	.loc 1 3614 55 discriminator 2
	ldr	r4, [r1, #20]
	.loc 1 3614 40 discriminator 2
	str	r4, [r0, #936]
	.loc 1 3617 3 is_stmt 1 discriminator 2
	.loc 1 3617 9 is_stmt 0 discriminator 2
	ldr	r0, [r3]
	.loc 1 3617 54 discriminator 2
	ldr	r1, [r1, #24]
.LVL699:
	.loc 1 3617 39 discriminator 2
	str	r1, [r0, #940]
	.loc 1 3620 3 is_stmt 1 discriminator 2
	.loc 1 3620 9 is_stmt 0 discriminator 2
	ldr	r1, [r3]
	.loc 1 3620 38 discriminator 2
	str	r2, [r1, #928]
	.loc 1 3622 3 is_stmt 1 discriminator 2
	.loc 1 3622 17 is_stmt 0 discriminator 2
	strb	ip, [r3, #193]
	.loc 1 3625 3 is_stmt 1 discriminator 2
	.loc 1 3625 7 discriminator 2
	.loc 1 3625 22 is_stmt 0 discriminator 2
	movs	r0, #0
	strb	r0, [r3, #192]
	.loc 1 3625 5 is_stmt 1 discriminator 2
	.loc 1 3627 3 discriminator 2
	.loc 1 3628 1 is_stmt 0 discriminator 2
	pop	{r4, pc}
.LVL700:
.L697:
	.cfi_def_cfa_offset 0
	.cfi_restore 4
	.cfi_restore 14
	.loc 1 3588 49
	movs	r0, #2
	bx	lr
.L699:
	.loc 1 3628 1
	bx	lr
	.cfi_endproc
.LFE372:
	.size	HAL_HRTIM_BurstModeConfig, .-HAL_HRTIM_BurstModeConfig
	.section	.text.HAL_HRTIM_EventConfig,"ax",%progbits
	.align	1
	.global	HAL_HRTIM_EventConfig
	.syntax unified
	.thumb
	.thumb_func
	.type	HAL_HRTIM_EventConfig, %function
HAL_HRTIM_EventConfig:
.LFB373:
	.loc 1 3653 1 is_stmt 1
	.cfi_startproc
	@ args = 0, pretend = 0, frame = 0
	@ frame_needed = 0, uses_anonymous_args = 0
.LVL701:
	push	{r3, r4, r5, lr}
	.cfi_def_cfa_offset 16
	.cfi_offset 3, -16
	.cfi_offset 4, -12
	.cfi_offset 5, -8
	.cfi_offset 14, -4
	mov	r4, r0
	.loc 1 3655 3
	.loc 1 3656 3
	.loc 1 3657 3
	.loc 1 3658 3
	.loc 1 3659 3
	.loc 1 3660 3
	.loc 1 3662 3
	.loc 1 3662 12 is_stmt 0
	ldrb	r0, [r0, #193]	@ zero_extendqisi2
.LVL702:
	uxtb	r0, r0
	.loc 1 3662 5
	cmp	r0, #2
	beq	.L703
	.loc 1 3668 3 is_stmt 1
	.loc 1 3668 7
	.loc 1 3668 18 is_stmt 0
	ldrb	r3, [r4, #192]	@ zero_extendqisi2
	.loc 1 3668 9
	cmp	r3, #1
	beq	.L704
	.loc 1 3668 68 is_stmt 1 discriminator 2
	.loc 1 3668 83 is_stmt 0 discriminator 2
	movs	r5, #1
	strb	r5, [r4, #192]
	.loc 1 3668 5 is_stmt 1 discriminator 2
	.loc 1 3670 3 discriminator 2
	.loc 1 3670 17 is_stmt 0 discriminator 2
	movs	r3, #2
	strb	r3, [r4, #193]
	.loc 1 3673 3 is_stmt 1 discriminator 2
	mov	r0, r4
	bl	HRTIM_EventConfig
.LVL703:
	.loc 1 3675 3 discriminator 2
	.loc 1 3675 17 is_stmt 0 discriminator 2
	strb	r5, [r4, #193]
	.loc 1 3678 3 is_stmt 1 discriminator 2
	.loc 1 3678 7 discriminator 2
	.loc 1 3678 22 is_stmt 0 discriminator 2
	movs	r0, #0
	strb	r0, [r4, #192]
	.loc 1 3678 5 is_stmt 1 discriminator 2
	.loc 1 3680 3 discriminator 2
.L703:
	.loc 1 3681 1 is_stmt 0
	pop	{r3, r4, r5, pc}
.LVL704:
.L704:
	.loc 1 3668 49
	movs	r0, #2
	b	.L703
	.cfi_endproc
.LFE373:
	.size	HAL_HRTIM_EventConfig, .-HAL_HRTIM_EventConfig
	.section	.text.HAL_HRTIM_EventPrescalerConfig,"ax",%progbits
	.align	1
	.global	HAL_HRTIM_EventPrescalerConfig
	.syntax unified
	.thumb
	.thumb_func
	.type	HAL_HRTIM_EventPrescalerConfig, %function
HAL_HRTIM_EventPrescalerConfig:
.LFB374:
	.loc 1 3697 1 is_stmt 1
	.cfi_startproc
	@ args = 0, pretend = 0, frame = 0
	@ frame_needed = 0, uses_anonymous_args = 0
	@ link register save eliminated.
.LVL705:
	mov	r3, r0
	.loc 1 3699 3
	.loc 1 3701 3
	.loc 1 3701 12 is_stmt 0
	ldrb	r0, [r0, #193]	@ zero_extendqisi2
.LVL706:
	uxtb	r0, r0
	.loc 1 3701 5
	cmp	r0, #2
	beq	.L710
	.loc 1 3707 3 is_stmt 1
	.loc 1 3707 7
	.loc 1 3707 18 is_stmt 0
	ldrb	r2, [r3, #192]	@ zero_extendqisi2
	.loc 1 3707 9
	cmp	r2, #1
	beq	.L708
	.loc 1 3697 1 discriminator 2
	push	{r4}
	.cfi_def_cfa_offset 4
	.cfi_offset 4, -4
	.loc 1 3707 68 is_stmt 1 discriminator 2
	.loc 1 3707 83 is_stmt 0 discriminator 2
	movs	r0, #1
	strb	r0, [r3, #192]
	.loc 1 3707 5 is_stmt 1 discriminator 2
	.loc 1 3709 3 discriminator 2
	.loc 1 3709 17 is_stmt 0 discriminator 2
	movs	r2, #2
	strb	r2, [r3, #193]
	.loc 1 3712 3 is_stmt 1 discriminator 2
	.loc 1 3712 58 is_stmt 0 discriminator 2
	ldr	r4, [r3]
	.loc 1 3712 81 discriminator 2
	ldr	r2, [r4, #952]
	.loc 1 3712 91 discriminator 2
	bic	r2, r2, #-1073741824
	.loc 1 3712 130 discriminator 2
	and	r1, r1, #-1073741824
.LVL707:
	.loc 1 3712 116 discriminator 2
	orrs	r2, r2, r1
	.loc 1 3712 44 discriminator 2
	str	r2, [r4, #952]
	.loc 1 3714 3 is_stmt 1 discriminator 2
	.loc 1 3714 17 is_stmt 0 discriminator 2
	strb	r0, [r3, #193]
	.loc 1 3717 3 is_stmt 1 discriminator 2
	.loc 1 3717 7 discriminator 2
	.loc 1 3717 22 is_stmt 0 discriminator 2
	movs	r0, #0
	strb	r0, [r3, #192]
	.loc 1 3717 5 is_stmt 1 discriminator 2
	.loc 1 3719 3 discriminator 2
	.loc 1 3720 1 is_stmt 0 discriminator 2
	ldr	r4, [sp], #4
	.cfi_restore 4
	.cfi_def_cfa_offset 0
	bx	lr
.LVL708:
.L708:
	.loc 1 3707 49
	movs	r0, #2
	bx	lr
.L710:
	.loc 1 3720 1
	bx	lr
	.cfi_endproc
.LFE374:
	.size	HAL_HRTIM_EventPrescalerConfig, .-HAL_HRTIM_EventPrescalerConfig
	.section	.text.HAL_HRTIM_FaultConfig,"ax",%progbits
	.align	1
	.global	HAL_HRTIM_FaultConfig
	.syntax unified
	.thumb
	.thumb_func
	.type	HAL_HRTIM_FaultConfig, %function
HAL_HRTIM_FaultConfig:
.LFB375:
	.loc 1 3740 1 is_stmt 1
	.cfi_startproc
	@ args = 0, pretend = 0, frame = 0
	@ frame_needed = 0, uses_anonymous_args = 0
	@ link register save eliminated.
.LVL709:
	mov	r3, r0
	.loc 1 3741 3
	.loc 1 3742 3
	.loc 1 3745 3
	.loc 1 3746 3
	.loc 1 3747 3
	.loc 1 3748 3
	.loc 1 3749 3
	.loc 1 3751 3
	.loc 1 3751 12 is_stmt 0
	ldrb	r0, [r0, #193]	@ zero_extendqisi2
.LVL710:
	uxtb	r0, r0
	.loc 1 3751 5
	cmp	r0, #2
	beq	.L726
	.loc 1 3757 3 is_stmt 1
	.loc 1 3757 7
	.loc 1 3757 18 is_stmt 0
	ldrb	r0, [r3, #192]	@ zero_extendqisi2
	.loc 1 3757 9
	cmp	r0, #1
	beq	.L723
	.loc 1 3740 1 discriminator 2
	push	{r4, r5}
	.cfi_def_cfa_offset 8
	.cfi_offset 4, -8
	.cfi_offset 5, -4
	.loc 1 3757 68 is_stmt 1 discriminator 2
	.loc 1 3757 83 is_stmt 0 discriminator 2
	movs	r0, #1
	strb	r0, [r3, #192]
	.loc 1 3757 5 is_stmt 1 discriminator 2
	.loc 1 3759 3 discriminator 2
	.loc 1 3759 17 is_stmt 0 discriminator 2
	movs	r0, #2
	strb	r0, [r3, #193]
	.loc 1 3762 3 is_stmt 1 discriminator 2
	.loc 1 3762 25 is_stmt 0 discriminator 2
	ldr	r4, [r3]
	.loc 1 3762 17 discriminator 2
	ldr	r0, [r4, #976]
.LVL711:
	.loc 1 3763 3 is_stmt 1 discriminator 2
	.loc 1 3763 17 is_stmt 0 discriminator 2
	ldr	r5, [r4, #980]
.LVL712:
	.loc 1 3765 3 is_stmt 1 discriminator 2
	subs	r1, r1, #1
.LVL713:
	cmp	r1, #15
	bhi	.L715
	tbb	[pc, r1]
.L717:
	.byte	(.L721-.L717)/2
	.byte	(.L720-.L717)/2
	.byte	(.L715-.L717)/2
	.byte	(.L719-.L717)/2
	.byte	(.L715-.L717)/2
	.byte	(.L715-.L717)/2
	.byte	(.L715-.L717)/2
	.byte	(.L718-.L717)/2
	.byte	(.L715-.L717)/2
	.byte	(.L715-.L717)/2
	.byte	(.L715-.L717)/2
	.byte	(.L715-.L717)/2
	.byte	(.L715-.L717)/2
	.byte	(.L715-.L717)/2
	.byte	(.L715-.L717)/2
	.byte	(.L716-.L717)/2
	.p2align 1
.L721:
	.loc 1 3769 7
	.loc 1 3769 21 is_stmt 0
	bic	r0, r0, #254
.LVL714:
	.loc 1 3770 7 is_stmt 1
	.loc 1 3770 34 is_stmt 0
	ldr	r1, [r2, #4]
.LVL715:
	.loc 1 3770 45
	and	r1, r1, #2
	.loc 1 3770 21
	orrs	r0, r0, r1
.LVL716:
	.loc 1 3771 7 is_stmt 1
	.loc 1 3771 34 is_stmt 0
	ldr	r1, [r2]
	.loc 1 3771 43
	and	r1, r1, #4
	.loc 1 3771 21
	orrs	r0, r0, r1
.LVL717:
	.loc 1 3772 7 is_stmt 1
	.loc 1 3772 34 is_stmt 0
	ldr	r1, [r2, #8]
	.loc 1 3772 43
	and	r1, r1, #120
	.loc 1 3772 21
	orrs	r1, r1, r0
.LVL718:
	.loc 1 3773 7 is_stmt 1
	.loc 1 3773 34 is_stmt 0
	ldr	r0, [r2, #12]
	.loc 1 3773 41
	and	r0, r0, #128
	.loc 1 3773 21
	orrs	r0, r0, r1
.LVL719:
	.loc 1 3774 7 is_stmt 1
.L722:
	.loc 1 3828 3
	.loc 1 3828 12 is_stmt 0
	ldrb	r1, [r3, #193]	@ zero_extendqisi2
	uxtb	r1, r1
	.loc 1 3828 5
	cmp	r1, #7
	beq	.L724
	.loc 1 3834 3 is_stmt 1
	.loc 1 3834 58 is_stmt 0
	and	r2, r0, #2139062143
	.loc 1 3834 41
	str	r2, [r4, #976]
	.loc 1 3835 3 is_stmt 1
	.loc 1 3835 9 is_stmt 0
	ldr	r2, [r3]
	.loc 1 3835 58
	ldr	r1, .L729
	ands	r1, r1, r5
	.loc 1 3835 41
	str	r1, [r2, #980]
	.loc 1 3838 3 is_stmt 1
	.loc 1 3838 11 is_stmt 0
	ldr	r2, [r3]
	.loc 1 3838 34
	ldr	r1, [r2, #976]
	.loc 1 3838 63
	and	r0, r0, #-2139062144
.LVL720:
	.loc 1 3838 44
	orrs	r1, r1, r0
	str	r1, [r2, #976]
	.loc 1 3839 3 is_stmt 1
	.loc 1 3839 11 is_stmt 0
	ldr	r0, [r3]
	.loc 1 3839 34
	ldr	r1, [r0, #980]
	.loc 1 3839 63
	movw	r2, #32896
	ands	r2, r2, r5
	.loc 1 3839 44
	orrs	r2, r2, r1
	str	r2, [r0, #980]
	.loc 1 3841 3 is_stmt 1
	.loc 1 3841 17 is_stmt 0
	movs	r2, #1
	strb	r2, [r3, #193]
	.loc 1 3844 3 is_stmt 1
	.loc 1 3844 7
	.loc 1 3844 22 is_stmt 0
	movs	r0, #0
	strb	r0, [r3, #192]
	.loc 1 3844 5 is_stmt 1
	.loc 1 3846 3
.L714:
	.loc 1 3847 1 is_stmt 0
	pop	{r4, r5}
	.cfi_remember_state
	.cfi_restore 5
	.cfi_restore 4
	.cfi_def_cfa_offset 0
.LVL721:
	bx	lr
.LVL722:
.L720:
	.cfi_restore_state
	.loc 1 3779 7 is_stmt 1
	.loc 1 3779 21 is_stmt 0
	bic	r0, r0, #65024
.LVL723:
	.loc 1 3780 7 is_stmt 1
	.loc 1 3780 35 is_stmt 0
	ldr	r1, [r2, #4]
	.loc 1 3780 46
	lsl	ip, r1, #8
	.loc 1 3780 53
	and	ip, ip, #512
	.loc 1 3780 21
	orr	ip, ip, r0
.LVL724:
	.loc 1 3781 7 is_stmt 1
	.loc 1 3781 35 is_stmt 0
	ldr	r1, [r2]
	.loc 1 3781 44
	lsls	r0, r1, #8
	.loc 1 3781 51
	and	r0, r0, #1024
	.loc 1 3781 21
	orr	r0, r0, ip
.LVL725:
	.loc 1 3782 7 is_stmt 1
	.loc 1 3782 35 is_stmt 0
	ldr	r1, [r2, #8]
	.loc 1 3782 44
	lsls	r1, r1, #8
	.loc 1 3782 51
	and	r1, r1, #30720
	.loc 1 3782 21
	orrs	r1, r1, r0
.LVL726:
	.loc 1 3783 7 is_stmt 1
	.loc 1 3783 35 is_stmt 0
	ldr	r0, [r2, #12]
	.loc 1 3783 42
	lsls	r0, r0, #8
	.loc 1 3783 49
	and	r0, r0, #32768
	.loc 1 3783 21
	orrs	r0, r0, r1
.LVL727:
	.loc 1 3784 7 is_stmt 1
	b	.L722
.L719:
	.loc 1 3789 7
	.loc 1 3789 21 is_stmt 0
	bic	r0, r0, #16646144
.LVL728:
	.loc 1 3790 7 is_stmt 1
	.loc 1 3790 35 is_stmt 0
	ldr	r1, [r2, #4]
	.loc 1 3790 46
	lsl	ip, r1, #16
	.loc 1 3790 54
	and	ip, ip, #131072
	.loc 1 3790 21
	orr	ip, ip, r0
.LVL729:
	.loc 1 3791 7 is_stmt 1
	.loc 1 3791 35 is_stmt 0
	ldr	r1, [r2]
	.loc 1 3791 44
	lsls	r0, r1, #16
	.loc 1 3791 52
	and	r0, r0, #262144
	.loc 1 3791 21
	orr	r0, r0, ip
.LVL730:
	.loc 1 3792 7 is_stmt 1
	.loc 1 3792 35 is_stmt 0
	ldr	r1, [r2, #8]
	.loc 1 3792 44
	lsls	r1, r1, #16
	.loc 1 3792 52
	and	r1, r1, #7864320
	.loc 1 3792 21
	orrs	r1, r1, r0
.LVL731:
	.loc 1 3793 7 is_stmt 1
	.loc 1 3793 35 is_stmt 0
	ldr	r0, [r2, #12]
	.loc 1 3793 42
	lsls	r0, r0, #16
	.loc 1 3793 50
	and	r0, r0, #8388608
	.loc 1 3793 21
	orrs	r0, r0, r1
.LVL732:
	.loc 1 3794 7 is_stmt 1
	b	.L722
.L718:
	.loc 1 3799 7
	.loc 1 3799 21 is_stmt 0
	bic	r0, r0, #-33554432
.LVL733:
	.loc 1 3800 7 is_stmt 1
	.loc 1 3800 35 is_stmt 0
	ldr	r1, [r2, #4]
	.loc 1 3800 46
	lsl	ip, r1, #24
	.loc 1 3800 54
	and	ip, ip, #33554432
	.loc 1 3800 21
	orr	ip, ip, r0
.LVL734:
	.loc 1 3801 7 is_stmt 1
	.loc 1 3801 35 is_stmt 0
	ldr	r1, [r2]
	.loc 1 3801 44
	lsls	r0, r1, #24
	.loc 1 3801 52
	and	r0, r0, #67108864
	.loc 1 3801 21
	orr	r0, r0, ip
.LVL735:
	.loc 1 3802 7 is_stmt 1
	.loc 1 3802 35 is_stmt 0
	ldr	r1, [r2, #8]
	.loc 1 3802 44
	lsls	r1, r1, #24
	.loc 1 3802 52
	and	r1, r1, #2013265920
	.loc 1 3802 21
	orrs	r1, r1, r0
.LVL736:
	.loc 1 3803 7 is_stmt 1
	.loc 1 3803 35 is_stmt 0
	ldr	r0, [r2, #12]
	.loc 1 3803 42
	lsls	r0, r0, #24
	.loc 1 3803 50
	and	r0, r0, #-2147483648
	.loc 1 3803 21
	orrs	r0, r0, r1
.LVL737:
	.loc 1 3804 7 is_stmt 1
	b	.L722
.L716:
	.loc 1 3809 7
	.loc 1 3809 21 is_stmt 0
	bic	r5, r5, #254
.LVL738:
	.loc 1 3810 7 is_stmt 1
	.loc 1 3810 34 is_stmt 0
	ldr	r1, [r2, #4]
	.loc 1 3810 45
	and	r1, r1, #2
	.loc 1 3810 21
	orrs	r5, r5, r1
.LVL739:
	.loc 1 3811 7 is_stmt 1
	.loc 1 3811 34 is_stmt 0
	ldr	r1, [r2]
	.loc 1 3811 43
	and	r1, r1, #4
	.loc 1 3811 21
	orrs	r5, r5, r1
.LVL740:
	.loc 1 3812 7 is_stmt 1
	.loc 1 3812 34 is_stmt 0
	ldr	r1, [r2, #8]
	.loc 1 3812 43
	and	r1, r1, #120
	.loc 1 3812 21
	orrs	r1, r1, r5
.LVL741:
	.loc 1 3813 7 is_stmt 1
	.loc 1 3813 34 is_stmt 0
	ldr	r2, [r2, #12]
.LVL742:
	.loc 1 3813 41
	and	r2, r2, #128
	.loc 1 3813 21
	orr	r5, r2, r1
.LVL743:
	.loc 1 3814 7 is_stmt 1
	b	.L722
.LVL744:
.L715:
	.loc 1 3819 7
	.loc 1 3819 21 is_stmt 0
	movs	r2, #7
.LVL745:
	strb	r2, [r3, #193]
	.loc 1 3822 7 is_stmt 1
	.loc 1 3822 11
	.loc 1 3822 26 is_stmt 0
	movs	r2, #0
	strb	r2, [r3, #192]
	.loc 1 3822 9 is_stmt 1
	.loc 1 3824 7
	b	.L722
.LVL746:
.L723:
	.cfi_def_cfa_offset 0
	.cfi_restore 4
	.cfi_restore 5
	.loc 1 3757 49 is_stmt 0
	movs	r0, #2
	bx	lr
.LVL747:
.L724:
	.cfi_def_cfa_offset 8
	.cfi_offset 4, -8
	.cfi_offset 5, -4
	.loc 1 3830 13
	movs	r0, #1
.LVL748:
	b	.L714
.LVL749:
.L726:
	.cfi_def_cfa_offset 0
	.cfi_restore 4
	.cfi_restore 5
	.loc 1 3847 1
	bx	lr
.L730:
	.align	2
.L729:
	.word	-32897
	.cfi_endproc
.LFE375:
	.size	HAL_HRTIM_FaultConfig, .-HAL_HRTIM_FaultConfig
	.section	.text.HAL_HRTIM_FaultPrescalerConfig,"ax",%progbits
	.align	1
	.global	HAL_HRTIM_FaultPrescalerConfig
	.syntax unified
	.thumb
	.thumb_func
	.type	HAL_HRTIM_FaultPrescalerConfig, %function
HAL_HRTIM_FaultPrescalerConfig:
.LFB376:
	.loc 1 3864 1 is_stmt 1
	.cfi_startproc
	@ args = 0, pretend = 0, frame = 0
	@ frame_needed = 0, uses_anonymous_args = 0
	@ link register save eliminated.
.LVL750:
	mov	r3, r0
	.loc 1 3866 3
	.loc 1 3868 3
	.loc 1 3868 12 is_stmt 0
	ldrb	r0, [r0, #193]	@ zero_extendqisi2
.LVL751:
	uxtb	r0, r0
	.loc 1 3868 5
	cmp	r0, #2
	beq	.L735
	.loc 1 3874 3 is_stmt 1
	.loc 1 3874 7
	.loc 1 3874 18 is_stmt 0
	ldrb	r2, [r3, #192]	@ zero_extendqisi2
	.loc 1 3874 9
	cmp	r2, #1
	beq	.L733
	.loc 1 3864 1 discriminator 2
	push	{r4}
	.cfi_def_cfa_offset 4
	.cfi_offset 4, -4
	.loc 1 3874 68 is_stmt 1 discriminator 2
	.loc 1 3874 83 is_stmt 0 discriminator 2
	movs	r0, #1
	strb	r0, [r3, #192]
	.loc 1 3874 5 is_stmt 1 discriminator 2
	.loc 1 3876 3 discriminator 2
	.loc 1 3876 17 is_stmt 0 discriminator 2
	movs	r2, #2
	strb	r2, [r3, #193]
	.loc 1 3879 3 is_stmt 1 discriminator 2
	.loc 1 3879 60 is_stmt 0 discriminator 2
	ldr	r4, [r3]
	.loc 1 3879 83 discriminator 2
	ldr	r2, [r4, #980]
	.loc 1 3879 95 discriminator 2
	bic	r2, r2, #50331648
	.loc 1 3879 134 discriminator 2
	and	r1, r1, #50331648
.LVL752:
	.loc 1 3879 120 discriminator 2
	orrs	r2, r2, r1
	.loc 1 3879 46 discriminator 2
	str	r2, [r4, #980]
	.loc 1 3881 3 is_stmt 1 discriminator 2
	.loc 1 3881 17 is_stmt 0 discriminator 2
	strb	r0, [r3, #193]
	.loc 1 3884 3 is_stmt 1 discriminator 2
	.loc 1 3884 7 discriminator 2
	.loc 1 3884 22 is_stmt 0 discriminator 2
	movs	r0, #0
	strb	r0, [r3, #192]
	.loc 1 3884 5 is_stmt 1 discriminator 2
	.loc 1 3886 3 discriminator 2
	.loc 1 3887 1 is_stmt 0 discriminator 2
	ldr	r4, [sp], #4
	.cfi_restore 4
	.cfi_def_cfa_offset 0
	bx	lr
.LVL753:
.L733:
	.loc 1 3874 49
	movs	r0, #2
	bx	lr
.L735:
	.loc 1 3887 1
	bx	lr
	.cfi_endproc
.LFE376:
	.size	HAL_HRTIM_FaultPrescalerConfig, .-HAL_HRTIM_FaultPrescalerConfig
	.section	.text.HAL_HRTIM_FaultModeCtl,"ax",%progbits
	.align	1
	.global	HAL_HRTIM_FaultModeCtl
	.syntax unified
	.thumb
	.thumb_func
	.type	HAL_HRTIM_FaultModeCtl, %function
HAL_HRTIM_FaultModeCtl:
.LFB377:
	.loc 1 3908 1 is_stmt 1
	.cfi_startproc
	@ args = 0, pretend = 0, frame = 0
	@ frame_needed = 0, uses_anonymous_args = 0
	@ link register save eliminated.
.LVL754:
	push	{r4}
	.cfi_def_cfa_offset 4
	.cfi_offset 4, -4
	.loc 1 3910 3
	.loc 1 3911 3
	.loc 1 3913 3
	.loc 1 3913 6 is_stmt 0
	tst	r1, #1
	beq	.L739
	.loc 1 3915 5 is_stmt 1
	.loc 1 3915 62 is_stmt 0
	ldr	r4, [r0]
	.loc 1 3915 85
	ldr	r3, [r4, #976]
	.loc 1 3915 97
	bic	r3, r3, #1
	.loc 1 3915 132
	and	ip, r2, #1
	.loc 1 3915 121
	orr	r3, r3, ip
	.loc 1 3915 48
	str	r3, [r4, #976]
.L739:
	.loc 1 3917 3 is_stmt 1
	.loc 1 3917 6 is_stmt 0
	tst	r1, #2
	beq	.L740
	.loc 1 3919 5 is_stmt 1
	.loc 1 3919 62 is_stmt 0
	ldr	r4, [r0]
	.loc 1 3919 85
	ldr	r3, [r4, #976]
	.loc 1 3919 97
	bic	r3, r3, #256
	.loc 1 3919 133
	lsl	ip, r2, #8
	.loc 1 3919 140
	and	ip, ip, #256
	.loc 1 3919 121
	orr	r3, r3, ip
	.loc 1 3919 48
	str	r3, [r4, #976]
.L740:
	.loc 1 3921 3 is_stmt 1
	.loc 1 3921 6 is_stmt 0
	tst	r1, #4
	beq	.L741
	.loc 1 3923 5 is_stmt 1
	.loc 1 3923 62 is_stmt 0
	ldr	r4, [r0]
	.loc 1 3923 85
	ldr	r3, [r4, #976]
	.loc 1 3923 97
	bic	r3, r3, #65536
	.loc 1 3923 134
	lsl	ip, r2, #16
	.loc 1 3923 142
	and	ip, ip, #65536
	.loc 1 3923 122
	orr	r3, r3, ip
	.loc 1 3923 48
	str	r3, [r4, #976]
.L741:
	.loc 1 3925 3 is_stmt 1
	.loc 1 3925 6 is_stmt 0
	tst	r1, #8
	beq	.L742
	.loc 1 3927 5 is_stmt 1
	.loc 1 3927 62 is_stmt 0
	ldr	r4, [r0]
	.loc 1 3927 85
	ldr	r3, [r4, #976]
	.loc 1 3927 97
	bic	r3, r3, #16777216
	.loc 1 3927 134
	lsl	ip, r2, #24
	.loc 1 3927 142
	and	ip, ip, #16777216
	.loc 1 3927 122
	orr	r3, r3, ip
	.loc 1 3927 48
	str	r3, [r4, #976]
.L742:
	.loc 1 3929 3 is_stmt 1
	.loc 1 3929 6 is_stmt 0
	tst	r1, #16
	beq	.L738
	.loc 1 3931 5 is_stmt 1
	.loc 1 3931 62 is_stmt 0
	ldr	r1, [r0]
.LVL755:
	.loc 1 3931 85
	ldr	r3, [r1, #980]
	.loc 1 3931 97
	bic	r3, r3, #1
	.loc 1 3931 134
	and	r2, r2, #1
.LVL756:
	.loc 1 3931 121
	orrs	r3, r3, r2
	.loc 1 3931 48
	str	r3, [r1, #980]
.L738:
	.loc 1 3933 1
	ldr	r4, [sp], #4
	.cfi_restore 4
	.cfi_def_cfa_offset 0
	bx	lr
	.cfi_endproc
.LFE377:
	.size	HAL_HRTIM_FaultModeCtl, .-HAL_HRTIM_FaultModeCtl
	.section	.text.HAL_HRTIM_ADCTriggerConfig,"ax",%progbits
	.align	1
	.global	HAL_HRTIM_ADCTriggerConfig
	.syntax unified
	.thumb
	.thumb_func
	.type	HAL_HRTIM_ADCTriggerConfig, %function
HAL_HRTIM_ADCTriggerConfig:
.LFB378:
	.loc 1 3952 1 is_stmt 1
	.cfi_startproc
	@ args = 0, pretend = 0, frame = 0
	@ frame_needed = 0, uses_anonymous_args = 0
	@ link register save eliminated.
.LVL757:
	mov	r3, r0
	.loc 1 3953 3
	.loc 1 3956 3
	.loc 1 3957 3
	.loc 1 3959 3
	.loc 1 3959 12 is_stmt 0
	ldrb	r0, [r0, #193]	@ zero_extendqisi2
.LVL758:
	uxtb	r0, r0
	.loc 1 3959 5
	cmp	r0, #2
	beq	.L757
	.loc 1 3965 3 is_stmt 1
	.loc 1 3965 7
	.loc 1 3965 18 is_stmt 0
	ldrb	r0, [r3, #192]	@ zero_extendqisi2
	.loc 1 3965 9
	cmp	r0, #1
	beq	.L754
	.loc 1 3952 1 discriminator 2
	push	{r4}
	.cfi_def_cfa_offset 4
	.cfi_offset 4, -4
	.loc 1 3965 68 is_stmt 1 discriminator 2
	.loc 1 3965 83 is_stmt 0 discriminator 2
	movs	r0, #1
	strb	r0, [r3, #192]
	.loc 1 3965 5 is_stmt 1 discriminator 2
	.loc 1 3967 3 discriminator 2
	.loc 1 3967 17 is_stmt 0 discriminator 2
	movs	r0, #2
	strb	r0, [r3, #193]
	.loc 1 3970 3 is_stmt 1 discriminator 2
	.loc 1 3970 21 is_stmt 0 discriminator 2
	ldr	r4, [r3]
	.loc 1 3970 13 discriminator 2
	ldr	r0, [r4, #896]
.LVL759:
	.loc 1 3972 3 is_stmt 1 discriminator 2
	subs	r1, r1, #1
.LVL760:
	cmp	r1, #7
	bhi	.L747
	tbb	[pc, r1]
.L749:
	.byte	(.L752-.L749)/2
	.byte	(.L751-.L749)/2
	.byte	(.L747-.L749)/2
	.byte	(.L750-.L749)/2
	.byte	(.L747-.L749)/2
	.byte	(.L747-.L749)/2
	.byte	(.L747-.L749)/2
	.byte	(.L748-.L749)/2
	.p2align 1
.L752:
	.loc 1 3976 7
	.loc 1 3976 17 is_stmt 0
	bic	r0, r0, #458752
.LVL761:
	.loc 1 3977 7 is_stmt 1
	.loc 1 3977 35 is_stmt 0
	ldr	r1, [r2]
.LVL762:
	.loc 1 3977 50
	and	r1, r1, #458752
	.loc 1 3977 17
	orrs	r0, r0, r1
.LVL763:
	.loc 1 3980 7 is_stmt 1
	.loc 1 3980 59 is_stmt 0
	ldr	r2, [r2, #4]
.LVL764:
	.loc 1 3980 43
	str	r2, [r4, #956]
	.loc 1 3981 7 is_stmt 1
.L753:
	.loc 1 4025 3
	.loc 1 4025 12 is_stmt 0
	ldrb	r2, [r3, #193]	@ zero_extendqisi2
	uxtb	r2, r2
	.loc 1 4025 5
	cmp	r2, #7
	beq	.L755
	.loc 1 4031 3 is_stmt 1
	.loc 1 4031 9 is_stmt 0
	ldr	r2, [r3]
	.loc 1 4031 37
	str	r0, [r2, #896]
	.loc 1 4033 3 is_stmt 1
	.loc 1 4033 17 is_stmt 0
	movs	r2, #1
	strb	r2, [r3, #193]
	.loc 1 4036 3 is_stmt 1
	.loc 1 4036 7
	.loc 1 4036 22 is_stmt 0
	movs	r0, #0
.LVL765:
	strb	r0, [r3, #192]
	.loc 1 4036 5 is_stmt 1
	.loc 1 4038 3
.L746:
	.loc 1 4039 1 is_stmt 0
	ldr	r4, [sp], #4
	.cfi_remember_state
	.cfi_restore 4
	.cfi_def_cfa_offset 0
	bx	lr
.LVL766:
.L751:
	.cfi_restore_state
	.loc 1 3986 7 is_stmt 1
	.loc 1 3986 17 is_stmt 0
	bic	r0, r0, #3670016
.LVL767:
	.loc 1 3987 7 is_stmt 1
	.loc 1 3987 36 is_stmt 0
	ldr	r1, [r2]
	.loc 1 3987 51
	lsls	r1, r1, #3
	.loc 1 3987 58
	and	r1, r1, #3670016
	.loc 1 3987 17
	orrs	r0, r0, r1
.LVL768:
	.loc 1 3990 7 is_stmt 1
	.loc 1 3990 59 is_stmt 0
	ldr	r2, [r2, #4]
.LVL769:
	.loc 1 3990 43
	str	r2, [r4, #960]
	.loc 1 3991 7 is_stmt 1
	b	.L753
.LVL770:
.L750:
	.loc 1 3996 7
	.loc 1 3996 17 is_stmt 0
	bic	r0, r0, #29360128
.LVL771:
	.loc 1 3997 7 is_stmt 1
	.loc 1 3997 36 is_stmt 0
	ldr	r1, [r2]
	.loc 1 3997 51
	lsls	r1, r1, #6
	.loc 1 3997 58
	and	r1, r1, #29360128
	.loc 1 3997 17
	orrs	r0, r0, r1
.LVL772:
	.loc 1 4000 7 is_stmt 1
	.loc 1 4000 59 is_stmt 0
	ldr	r2, [r2, #4]
.LVL773:
	.loc 1 4000 43
	str	r2, [r4, #964]
	.loc 1 4001 7 is_stmt 1
	b	.L753
.LVL774:
.L748:
	.loc 1 4006 7
	.loc 1 4006 17 is_stmt 0
	bic	r0, r0, #234881024
.LVL775:
	.loc 1 4007 7 is_stmt 1
	.loc 1 4007 36 is_stmt 0
	ldr	r1, [r2]
	.loc 1 4007 51
	lsls	r1, r1, #9
	.loc 1 4007 58
	and	r1, r1, #234881024
	.loc 1 4007 17
	orrs	r0, r0, r1
.LVL776:
	.loc 1 4010 7 is_stmt 1
	.loc 1 4010 59 is_stmt 0
	ldr	r2, [r2, #4]
.LVL777:
	.loc 1 4010 43
	str	r2, [r4, #968]
	.loc 1 4011 7 is_stmt 1
	b	.L753
.LVL778:
.L747:
	.loc 1 4016 7
	.loc 1 4016 21 is_stmt 0
	movs	r2, #7
.LVL779:
	strb	r2, [r3, #193]
	.loc 1 4019 7 is_stmt 1
	.loc 1 4019 11
	.loc 1 4019 26 is_stmt 0
	movs	r2, #0
	strb	r2, [r3, #192]
	.loc 1 4019 9 is_stmt 1
	.loc 1 4021 7
	b	.L753
.LVL780:
.L754:
	.cfi_def_cfa_offset 0
	.cfi_restore 4
	.loc 1 3965 49 is_stmt 0
	movs	r0, #2
	bx	lr
.LVL781:
.L755:
	.cfi_def_cfa_offset 4
	.cfi_offset 4, -4
	.loc 1 4027 13
	movs	r0, #1
.LVL782:
	b	.L746
.LVL783:
.L757:
	.cfi_def_cfa_offset 0
	.cfi_restore 4
	.loc 1 4039 1
	bx	lr
	.cfi_endproc
.LFE378:
	.size	HAL_HRTIM_ADCTriggerConfig, .-HAL_HRTIM_ADCTriggerConfig
	.section	.text.HAL_HRTIM_WaveformTimerConfig,"ax",%progbits
	.align	1
	.global	HAL_HRTIM_WaveformTimerConfig
	.syntax unified
	.thumb
	.thumb_func
	.type	HAL_HRTIM_WaveformTimerConfig, %function
HAL_HRTIM_WaveformTimerConfig:
.LFB379:
	.loc 1 4104 1 is_stmt 1
	.cfi_startproc
	@ args = 0, pretend = 0, frame = 0
	@ frame_needed = 0, uses_anonymous_args = 0
.LVL784:
	push	{r4, r5, r6, lr}
	.cfi_def_cfa_offset 16
	.cfi_offset 4, -16
	.cfi_offset 5, -12
	.cfi_offset 6, -8
	.cfi_offset 14, -4
	mov	r4, r0
	.loc 1 4106 3
	.loc 1 4109 3
	.loc 1 4110 3
	.loc 1 4111 3
	.loc 1 4112 3
	.loc 1 4113 3
	.loc 1 4114 3
	.loc 1 4115 3
	.loc 1 4117 3
	.loc 1 4117 12 is_stmt 0
	ldrb	r0, [r0, #193]	@ zero_extendqisi2
.LVL785:
	uxtb	r0, r0
	.loc 1 4117 5
	cmp	r0, #2
	beq	.L761
	mov	r6, r1
	mov	r5, r2
	.loc 1 4123 3 is_stmt 1
	.loc 1 4123 7
	.loc 1 4123 18 is_stmt 0
	ldrb	r3, [r4, #192]	@ zero_extendqisi2
	.loc 1 4123 9
	cmp	r3, #1
	beq	.L764
	.loc 1 4123 68 is_stmt 1 discriminator 2
	.loc 1 4123 83 is_stmt 0 discriminator 2
	movs	r3, #1
	strb	r3, [r4, #192]
	.loc 1 4123 5 is_stmt 1 discriminator 2
	.loc 1 4125 3 discriminator 2
	.loc 1 4125 17 is_stmt 0 discriminator 2
	movs	r3, #2
	strb	r3, [r4, #193]
	.loc 1 4127 3 is_stmt 1 discriminator 2
	.loc 1 4127 6 is_stmt 0 discriminator 2
	cmp	r1, #5
	beq	.L766
	.loc 1 4140 5 is_stmt 1
	.loc 1 4141 5
	.loc 1 4142 5
	.loc 1 4143 5
	.loc 1 4144 5
	.loc 1 4145 5
	.loc 1 4146 5
	.loc 1 4148 5
	.loc 1 4150 5
	.loc 1 4151 5
	.loc 1 4152 5
	.loc 1 4155 5
	mov	r0, r4
	bl	HRTIM_TimingUnitWaveform_Config
.LVL786:
.L763:
	.loc 1 4159 3
	.loc 1 4159 61 is_stmt 0
	ldr	r2, [r5]
	.loc 1 4159 50
	rsb	r3, r6, r6, lsl #3
	add	r3, r4, r3, lsl #2
	str	r2, [r3, #32]
	.loc 1 4160 3 is_stmt 1
	.loc 1 4160 55 is_stmt 0
	ldr	r2, [r5, #4]
	.loc 1 4160 44
	str	r2, [r3, #36]
	.loc 1 4161 3 is_stmt 1
	.loc 1 4161 57 is_stmt 0
	ldr	r2, [r5, #8]
	.loc 1 4161 46
	str	r2, [r3, #40]
	.loc 1 4162 3 is_stmt 1
	.loc 1 4162 57 is_stmt 0
	ldr	r2, [r5, #12]
	.loc 1 4162 46
	str	r2, [r3, #44]
	.loc 1 4163 3 is_stmt 1
	.loc 1 4163 51 is_stmt 0
	ldr	r2, [r5, #16]
	.loc 1 4163 40
	str	r2, [r3, #48]
	.loc 1 4166 3 is_stmt 1
	mov	r1, r6
	mov	r0, r4
	bl	HRTIM_ForceRegistersUpdate
.LVL787:
	.loc 1 4168 3
	.loc 1 4168 17 is_stmt 0
	movs	r3, #1
	strb	r3, [r4, #193]
	.loc 1 4171 3 is_stmt 1
	.loc 1 4171 7
	.loc 1 4171 22 is_stmt 0
	movs	r0, #0
	strb	r0, [r4, #192]
	.loc 1 4171 5 is_stmt 1
	.loc 1 4173 3
.LVL788:
.L761:
	.loc 1 4174 1 is_stmt 0
	pop	{r4, r5, r6, pc}
.LVL789:
.L766:
	.loc 1 4130 5 is_stmt 1
	.loc 1 4131 5
	.loc 1 4132 5
	.loc 1 4135 5
	mov	r1, r2
.LVL790:
	mov	r0, r4
	bl	HRTIM_MasterWaveform_Config
.LVL791:
	b	.L763
.LVL792:
.L764:
	.loc 1 4123 49 is_stmt 0
	movs	r0, #2
	b	.L761
	.cfi_endproc
.LFE379:
	.size	HAL_HRTIM_WaveformTimerConfig, .-HAL_HRTIM_WaveformTimerConfig
	.section	.text.HAL_HRTIM_TimerEventFilteringConfig,"ax",%progbits
	.align	1
	.global	HAL_HRTIM_TimerEventFilteringConfig
	.syntax unified
	.thumb
	.thumb_func
	.type	HAL_HRTIM_TimerEventFilteringConfig, %function
HAL_HRTIM_TimerEventFilteringConfig:
.LFB380:
	.loc 1 4206 1 is_stmt 1
	.cfi_startproc
	@ args = 0, pretend = 0, frame = 0
	@ frame_needed = 0, uses_anonymous_args = 0
	@ link register save eliminated.
.LVL793:
	mov	ip, r0
	.loc 1 4208 3
	.loc 1 4209 3
	.loc 1 4210 3
	.loc 1 4212 3
	.loc 1 4214 3
	.loc 1 4214 12 is_stmt 0
	ldrb	r0, [r0, #193]	@ zero_extendqisi2
.LVL794:
	uxtb	r0, r0
	.loc 1 4214 5
	cmp	r0, #2
	beq	.L768
	.loc 1 4220 3 is_stmt 1
	.loc 1 4220 7
	.loc 1 4220 18 is_stmt 0
	ldrb	r0, [ip, #192]	@ zero_extendqisi2
	.loc 1 4220 9
	cmp	r0, #1
	beq	.L783
	.loc 1 4220 68 is_stmt 1 discriminator 2
	.loc 1 4220 83 is_stmt 0 discriminator 2
	movs	r0, #1
	strb	r0, [ip, #192]
	.loc 1 4220 5 is_stmt 1 discriminator 2
	.loc 1 4222 3 discriminator 2
	.loc 1 4222 17 is_stmt 0 discriminator 2
	movs	r0, #2
	strb	r0, [ip, #193]
	.loc 1 4225 3 is_stmt 1 discriminator 2
	cmp	r2, #10
	bhi	.L769
	tbb	[pc, r2]
.L771:
	.byte	(.L781-.L771)/2
	.byte	(.L780-.L771)/2
	.byte	(.L779-.L771)/2
	.byte	(.L778-.L771)/2
	.byte	(.L777-.L771)/2
	.byte	(.L776-.L771)/2
	.byte	(.L775-.L771)/2
	.byte	(.L774-.L771)/2
	.byte	(.L773-.L771)/2
	.byte	(.L772-.L771)/2
	.byte	(.L770-.L771)/2
	.p2align 1
.L781:
	.loc 1 4229 7
	.loc 1 4229 15 is_stmt 0
	ldr	r3, [ip]
.LVL795:
	.loc 1 4229 57
	add	r3, r3, r1, lsl #7
	movs	r2, #0
.LVL796:
	str	r2, [r3, #204]
	.loc 1 4230 7 is_stmt 1
	.loc 1 4230 15 is_stmt 0
	ldr	r3, [ip]
	.loc 1 4230 57
	add	r3, r3, r1, lsl #7
	str	r2, [r3, #208]
	.loc 1 4231 7 is_stmt 1
.LVL797:
.L782:
	.loc 1 4305 3
	.loc 1 4305 12 is_stmt 0
	ldrb	r3, [ip, #193]	@ zero_extendqisi2
	uxtb	r3, r3
	.loc 1 4305 5
	cmp	r3, #7
	beq	.L784
	.loc 1 4310 3 is_stmt 1
	.loc 1 4310 17 is_stmt 0
	movs	r3, #1
	strb	r3, [ip, #193]
	.loc 1 4313 3 is_stmt 1
	.loc 1 4313 7
	.loc 1 4313 22 is_stmt 0
	movs	r0, #0
	strb	r0, [ip, #192]
	.loc 1 4313 5 is_stmt 1
	.loc 1 4315 3
	.loc 1 4315 10 is_stmt 0
	bx	lr
.LVL798:
.L780:
	.loc 1 4236 7 is_stmt 1
	.loc 1 4236 73 is_stmt 0
	ldr	r2, [ip]
.LVL799:
	.loc 1 4236 106
	add	r1, r2, r1, lsl #7
.LVL800:
	ldr	r2, [r1, #204]
	.loc 1 4236 117
	bic	r2, r2, #31
	.loc 1 4236 188
	ldr	r0, [r3]
	.loc 1 4236 222
	ldr	r3, [r3, #4]
.LVL801:
	.loc 1 4236 197
	orrs	r3, r3, r0
	.loc 1 4236 161
	orrs	r3, r3, r2
	.loc 1 4236 59
	str	r3, [r1, #204]
	.loc 1 4237 7 is_stmt 1
	b	.L782
.LVL802:
.L779:
	.loc 1 4242 7
	.loc 1 4242 73 is_stmt 0
	ldr	r2, [ip]
.LVL803:
	.loc 1 4242 106
	add	r1, r2, r1, lsl #7
.LVL804:
	ldr	r2, [r1, #204]
	.loc 1 4242 117
	bic	r2, r2, #1984
	.loc 1 4242 189
	ldr	r0, [r3]
	.loc 1 4242 223
	ldr	r3, [r3, #4]
.LVL805:
	.loc 1 4242 198
	orrs	r3, r3, r0
	.loc 1 4242 161
	orr	r3, r2, r3, lsl #6
	.loc 1 4242 59
	str	r3, [r1, #204]
	.loc 1 4243 7 is_stmt 1
	b	.L782
.LVL806:
.L778:
	.loc 1 4248 7
	.loc 1 4248 73 is_stmt 0
	ldr	r2, [ip]
.LVL807:
	.loc 1 4248 106
	add	r1, r2, r1, lsl #7
.LVL808:
	ldr	r2, [r1, #204]
	.loc 1 4248 117
	bic	r2, r2, #126976
	.loc 1 4248 191
	ldr	r0, [r3]
	.loc 1 4248 225
	ldr	r3, [r3, #4]
.LVL809:
	.loc 1 4248 200
	orrs	r3, r3, r0
	.loc 1 4248 163
	orr	r3, r2, r3, lsl #12
	.loc 1 4248 59
	str	r3, [r1, #204]
	.loc 1 4249 7 is_stmt 1
	b	.L782
.LVL810:
.L777:
	.loc 1 4254 7
	.loc 1 4254 73 is_stmt 0
	ldr	r2, [ip]
.LVL811:
	.loc 1 4254 106
	add	r1, r2, r1, lsl #7
.LVL812:
	ldr	r2, [r1, #204]
	.loc 1 4254 117
	bic	r2, r2, #8126464
	.loc 1 4254 191
	ldr	r0, [r3]
	.loc 1 4254 225
	ldr	r3, [r3, #4]
.LVL813:
	.loc 1 4254 200
	orrs	r3, r3, r0
	.loc 1 4254 163
	orr	r3, r2, r3, lsl #18
	.loc 1 4254 59
	str	r3, [r1, #204]
	.loc 1 4255 7 is_stmt 1
	b	.L782
.LVL814:
.L776:
	.loc 1 4260 7
	.loc 1 4260 73 is_stmt 0
	ldr	r2, [ip]
.LVL815:
	.loc 1 4260 106
	add	r1, r2, r1, lsl #7
.LVL816:
	ldr	r2, [r1, #204]
	.loc 1 4260 117
	bic	r2, r2, #520093696
	.loc 1 4260 191
	ldr	r0, [r3]
	.loc 1 4260 225
	ldr	r3, [r3, #4]
.LVL817:
	.loc 1 4260 200
	orrs	r3, r3, r0
	.loc 1 4260 163
	orr	r3, r2, r3, lsl #24
	.loc 1 4260 59
	str	r3, [r1, #204]
	.loc 1 4261 7 is_stmt 1
	b	.L782
.LVL818:
.L775:
	.loc 1 4266 7
	.loc 1 4266 73 is_stmt 0
	ldr	r2, [ip]
.LVL819:
	.loc 1 4266 106
	add	r1, r2, r1, lsl #7
.LVL820:
	ldr	r2, [r1, #208]
	.loc 1 4266 117
	bic	r2, r2, #31
	.loc 1 4266 188
	ldr	r0, [r3]
	.loc 1 4266 222
	ldr	r3, [r3, #4]
.LVL821:
	.loc 1 4266 197
	orrs	r3, r3, r0
	.loc 1 4266 161
	orrs	r3, r3, r2
	.loc 1 4266 59
	str	r3, [r1, #208]
	.loc 1 4267 7 is_stmt 1
	b	.L782
.LVL822:
.L774:
	.loc 1 4272 7
	.loc 1 4272 73 is_stmt 0
	ldr	r2, [ip]
.LVL823:
	.loc 1 4272 106
	add	r1, r2, r1, lsl #7
.LVL824:
	ldr	r2, [r1, #208]
	.loc 1 4272 117
	bic	r2, r2, #1984
	.loc 1 4272 189
	ldr	r0, [r3]
	.loc 1 4272 223
	ldr	r3, [r3, #4]
.LVL825:
	.loc 1 4272 198
	orrs	r3, r3, r0
	.loc 1 4272 161
	orr	r3, r2, r3, lsl #6
	.loc 1 4272 59
	str	r3, [r1, #208]
	.loc 1 4273 7 is_stmt 1
	b	.L782
.LVL826:
.L773:
	.loc 1 4278 7
	.loc 1 4278 73 is_stmt 0
	ldr	r2, [ip]
.LVL827:
	.loc 1 4278 106
	add	r1, r2, r1, lsl #7
.LVL828:
	ldr	r2, [r1, #208]
	.loc 1 4278 117
	bic	r2, r2, #126976
	.loc 1 4278 191
	ldr	r0, [r3]
	.loc 1 4278 225
	ldr	r3, [r3, #4]
.LVL829:
	.loc 1 4278 200
	orrs	r3, r3, r0
	.loc 1 4278 163
	orr	r3, r2, r3, lsl #12
	.loc 1 4278 59
	str	r3, [r1, #208]
	.loc 1 4279 7 is_stmt 1
	b	.L782
.LVL830:
.L772:
	.loc 1 4284 7
	.loc 1 4284 73 is_stmt 0
	ldr	r2, [ip]
.LVL831:
	.loc 1 4284 106
	add	r1, r2, r1, lsl #7
.LVL832:
	ldr	r2, [r1, #208]
	.loc 1 4284 117
	bic	r2, r2, #8126464
	.loc 1 4284 191
	ldr	r0, [r3]
	.loc 1 4284 225
	ldr	r3, [r3, #4]
.LVL833:
	.loc 1 4284 200
	orrs	r3, r3, r0
	.loc 1 4284 163
	orr	r3, r2, r3, lsl #18
	.loc 1 4284 59
	str	r3, [r1, #208]
	.loc 1 4285 7 is_stmt 1
	b	.L782
.LVL834:
.L770:
	.loc 1 4290 7
	.loc 1 4290 73 is_stmt 0
	ldr	r2, [ip]
.LVL835:
	.loc 1 4290 106
	add	r1, r2, r1, lsl #7
.LVL836:
	ldr	r2, [r1, #208]
	.loc 1 4290 117
	bic	r2, r2, #520093696
	.loc 1 4290 191
	ldr	r0, [r3]
	.loc 1 4290 225
	ldr	r3, [r3, #4]
.LVL837:
	.loc 1 4290 200
	orrs	r3, r3, r0
	.loc 1 4290 163
	orr	r3, r2, r3, lsl #24
	.loc 1 4290 59
	str	r3, [r1, #208]
	.loc 1 4291 7 is_stmt 1
	b	.L782
.LVL838:
.L769:
	.loc 1 4296 7
	.loc 1 4296 21 is_stmt 0
	movs	r3, #7
.LVL839:
	strb	r3, [ip, #193]
	.loc 1 4299 7 is_stmt 1
	.loc 1 4299 11
	.loc 1 4299 26 is_stmt 0
	movs	r3, #0
	strb	r3, [ip, #192]
	.loc 1 4299 9 is_stmt 1
	.loc 1 4301 7
	b	.L782
.LVL840:
.L783:
	.loc 1 4220 49 is_stmt 0
	movs	r0, #2
	bx	lr
.LVL841:
.L784:
	.loc 1 4307 13
	movs	r0, #1
.L768:
	.loc 1 4316 1
	bx	lr
	.cfi_endproc
.LFE380:
	.size	HAL_HRTIM_TimerEventFilteringConfig, .-HAL_HRTIM_TimerEventFilteringConfig
	.section	.text.HAL_HRTIM_DeadTimeConfig,"ax",%progbits
	.align	1
	.global	HAL_HRTIM_DeadTimeConfig
	.syntax unified
	.thumb
	.thumb_func
	.type	HAL_HRTIM_DeadTimeConfig, %function
HAL_HRTIM_DeadTimeConfig:
.LFB381:
	.loc 1 4335 1 is_stmt 1
	.cfi_startproc
	@ args = 0, pretend = 0, frame = 0
	@ frame_needed = 0, uses_anonymous_args = 0
.LVL842:
	mov	r3, r0
	.loc 1 4336 3
	.loc 1 4339 3
	.loc 1 4340 3
	.loc 1 4341 3
	.loc 1 4342 3
	.loc 1 4343 3
	.loc 1 4344 3
	.loc 1 4345 3
	.loc 1 4346 3
	.loc 1 4348 3
	.loc 1 4348 12 is_stmt 0
	ldrb	r0, [r0, #193]	@ zero_extendqisi2
.LVL843:
	uxtb	r0, r0
	.loc 1 4348 5
	cmp	r0, #2
	beq	.L789
	.loc 1 4354 3 is_stmt 1
	.loc 1 4354 7
	.loc 1 4354 18 is_stmt 0
	ldrb	r0, [r3, #192]	@ zero_extendqisi2
	.loc 1 4354 9
	cmp	r0, #1
	beq	.L787
	.loc 1 4335 1 discriminator 2
	push	{r4, r5, lr}
	.cfi_def_cfa_offset 12
	.cfi_offset 4, -12
	.cfi_offset 5, -8
	.cfi_offset 14, -4
	.loc 1 4354 68 is_stmt 1 discriminator 2
	.loc 1 4354 83 is_stmt 0 discriminator 2
	mov	lr, #1
	strb	lr, [r3, #192]
	.loc 1 4354 5 is_stmt 1 discriminator 2
	.loc 1 4356 3 discriminator 2
	.loc 1 4356 17 is_stmt 0 discriminator 2
	movs	r0, #2
	strb	r0, [r3, #193]
	.loc 1 4359 3 is_stmt 1 discriminator 2
	.loc 1 4359 28 is_stmt 0 discriminator 2
	ldr	r0, [r2]
	.loc 1 4359 13 discriminator 2
	and	r4, r0, #7168
.LVL844:
	.loc 1 4360 3 is_stmt 1 discriminator 2
	.loc 1 4360 29 is_stmt 0 discriminator 2
	ldr	r0, [r2, #4]
	.loc 1 4360 43 discriminator 2
	ubfx	r0, r0, #0, #9
	.loc 1 4360 13 discriminator 2
	orrs	r4, r4, r0
.LVL845:
	.loc 1 4361 3 is_stmt 1 discriminator 2
	.loc 1 4361 29 is_stmt 0 discriminator 2
	ldr	r0, [r2, #8]
	.loc 1 4361 42 discriminator 2
	and	r0, r0, #512
	.loc 1 4361 13 discriminator 2
	orrs	r4, r4, r0
.LVL846:
	.loc 1 4362 3 is_stmt 1 discriminator 2
	.loc 1 4362 29 is_stmt 0 discriminator 2
	ldr	r0, [r2, #16]
	.loc 1 4362 46 discriminator 2
	and	r0, r0, #16384
	.loc 1 4362 13 discriminator 2
	orrs	r4, r4, r0
.LVL847:
	.loc 1 4363 3 is_stmt 1 discriminator 2
	.loc 1 4363 29 is_stmt 0 discriminator 2
	ldr	r0, [r2, #12]
	.loc 1 4363 42 discriminator 2
	and	r0, r0, #32768
	.loc 1 4363 13 discriminator 2
	orrs	r4, r4, r0
.LVL848:
	.loc 1 4364 3 is_stmt 1 discriminator 2
	.loc 1 4364 53 is_stmt 0 discriminator 2
	ldr	r0, .L792
	ldr	r5, [r2, #20]
	and	ip, r0, r5, lsl #16
	.loc 1 4364 13 discriminator 2
	orr	ip, ip, r4
.LVL849:
	.loc 1 4365 3 is_stmt 1 discriminator 2
	.loc 1 4365 29 is_stmt 0 discriminator 2
	ldr	r0, [r2, #24]
	.loc 1 4365 43 discriminator 2
	and	r0, r0, #33554432
	.loc 1 4365 13 discriminator 2
	orr	ip, r0, ip
.LVL850:
	.loc 1 4366 3 is_stmt 1 discriminator 2
	.loc 1 4366 29 is_stmt 0 discriminator 2
	ldr	r0, [r2, #32]
	.loc 1 4366 47 discriminator 2
	and	r0, r0, #1073741824
	.loc 1 4366 13 discriminator 2
	orr	ip, r0, ip
.LVL851:
	.loc 1 4367 3 is_stmt 1 discriminator 2
	.loc 1 4367 29 is_stmt 0 discriminator 2
	ldr	r0, [r2, #28]
	.loc 1 4367 43 discriminator 2
	and	r0, r0, #-2147483648
	.loc 1 4367 13 discriminator 2
	orr	r0, r0, ip
.LVL852:
	.loc 1 4370 3 is_stmt 1 discriminator 2
	.loc 1 4370 67 is_stmt 0 discriminator 2
	ldr	r2, [r3]
.LVL853:
	.loc 1 4370 100 discriminator 2
	add	r1, r2, r1, lsl #7
.LVL854:
	ldr	r4, [r1, #184]
	.loc 1 4370 109 discriminator 2
	ldr	r2, .L792+4
	ands	r2, r2, r4
	.loc 1 4370 291 discriminator 2
	orrs	r2, r2, r0
	.loc 1 4370 53 discriminator 2
	str	r2, [r1, #184]
	.loc 1 4375 3 is_stmt 1 discriminator 2
	.loc 1 4375 17 is_stmt 0 discriminator 2
	strb	lr, [r3, #193]
	.loc 1 4378 3 is_stmt 1 discriminator 2
	.loc 1 4378 7 discriminator 2
	.loc 1 4378 22 is_stmt 0 discriminator 2
	movs	r0, #0
.LVL855:
	strb	r0, [r3, #192]
	.loc 1 4378 5 is_stmt 1 discriminator 2
	.loc 1 4380 3 discriminator 2
	.loc 1 4381 1 is_stmt 0 discriminator 2
	pop	{r4, r5, pc}
.LVL856:
.L787:
	.cfi_def_cfa_offset 0
	.cfi_restore 4
	.cfi_restore 5
	.cfi_restore 14
	.loc 1 4354 49
	movs	r0, #2
	bx	lr
.L789:
	.loc 1 4381 1
	bx	lr
.L793:
	.align	2
.L792:
	.word	33488896
	.word	1006641152
	.cfi_endproc
.LFE381:
	.size	HAL_HRTIM_DeadTimeConfig, .-HAL_HRTIM_DeadTimeConfig
	.section	.text.HAL_HRTIM_ChopperModeConfig,"ax",%progbits
	.align	1
	.global	HAL_HRTIM_ChopperModeConfig
	.syntax unified
	.thumb
	.thumb_func
	.type	HAL_HRTIM_ChopperModeConfig, %function
HAL_HRTIM_ChopperModeConfig:
.LFB382:
	.loc 1 4400 1 is_stmt 1
	.cfi_startproc
	@ args = 0, pretend = 0, frame = 0
	@ frame_needed = 0, uses_anonymous_args = 0
.LVL857:
	mov	r3, r0
	.loc 1 4401 3
	.loc 1 4404 3
	.loc 1 4405 3
	.loc 1 4406 3
	.loc 1 4407 3
	.loc 1 4409 3
	.loc 1 4409 12 is_stmt 0
	ldrb	r0, [r0, #193]	@ zero_extendqisi2
.LVL858:
	uxtb	r0, r0
	.loc 1 4409 5
	cmp	r0, #2
	beq	.L798
	.loc 1 4415 3 is_stmt 1
	.loc 1 4415 7
	.loc 1 4415 18 is_stmt 0
	ldrb	r0, [r3, #192]	@ zero_extendqisi2
	.loc 1 4415 9
	cmp	r0, #1
	beq	.L796
	.loc 1 4400 1 discriminator 2
	push	{r4, lr}
	.cfi_def_cfa_offset 8
	.cfi_offset 4, -8
	.cfi_offset 14, -4
	.loc 1 4415 68 is_stmt 1 discriminator 2
	.loc 1 4415 83 is_stmt 0 discriminator 2
	mov	lr, #1
	strb	lr, [r3, #192]
	.loc 1 4415 5 is_stmt 1 discriminator 2
	.loc 1 4417 3 discriminator 2
	.loc 1 4417 17 is_stmt 0 discriminator 2
	movs	r0, #2
	strb	r0, [r3, #193]
	.loc 1 4420 3 is_stmt 1 discriminator 2
	.loc 1 4420 32 is_stmt 0 discriminator 2
	ldr	r0, [r2]
	.loc 1 4420 14 discriminator 2
	and	ip, r0, #15
.LVL859:
	.loc 1 4421 3 is_stmt 1 discriminator 2
	.loc 1 4421 33 is_stmt 0 discriminator 2
	ldr	r0, [r2, #4]
	.loc 1 4421 45 discriminator 2
	and	r0, r0, #112
	.loc 1 4421 14 discriminator 2
	orr	ip, r0, ip
.LVL860:
	.loc 1 4422 3 is_stmt 1 discriminator 2
	.loc 1 4422 33 is_stmt 0 discriminator 2
	ldr	r0, [r2, #8]
	.loc 1 4422 46 discriminator 2
	and	r0, r0, #1920
	.loc 1 4422 14 discriminator 2
	orr	r0, r0, ip
.LVL861:
	.loc 1 4425 3 is_stmt 1 discriminator 2
	.loc 1 4425 68 is_stmt 0 discriminator 2
	ldr	r2, [r3]
.LVL862:
	.loc 1 4425 101 discriminator 2
	add	r1, r2, r1, lsl #7
.LVL863:
	ldr	r4, [r1, #216]
	.loc 1 4425 111 discriminator 2
	ldr	r2, .L801
	ands	r2, r2, r4
	.loc 1 4425 173 discriminator 2
	orrs	r2, r2, r0
	.loc 1 4425 54 discriminator 2
	str	r2, [r1, #216]
	.loc 1 4429 3 is_stmt 1 discriminator 2
	.loc 1 4429 17 is_stmt 0 discriminator 2
	strb	lr, [r3, #193]
	.loc 1 4432 3 is_stmt 1 discriminator 2
	.loc 1 4432 7 discriminator 2
	.loc 1 4432 22 is_stmt 0 discriminator 2
	movs	r0, #0
.LVL864:
	strb	r0, [r3, #192]
	.loc 1 4432 5 is_stmt 1 discriminator 2
	.loc 1 4434 3 discriminator 2
	.loc 1 4435 1 is_stmt 0 discriminator 2
	pop	{r4, pc}
.LVL865:
.L796:
	.cfi_def_cfa_offset 0
	.cfi_restore 4
	.cfi_restore 14
	.loc 1 4415 49
	movs	r0, #2
	bx	lr
.L798:
	.loc 1 4435 1
	bx	lr
.L802:
	.align	2
.L801:
	.word	-2048
	.cfi_endproc
.LFE382:
	.size	HAL_HRTIM_ChopperModeConfig, .-HAL_HRTIM_ChopperModeConfig
	.section	.text.HAL_HRTIM_BurstDMAConfig,"ax",%progbits
	.align	1
	.global	HAL_HRTIM_BurstDMAConfig
	.syntax unified
	.thumb
	.thumb_func
	.type	HAL_HRTIM_BurstDMAConfig, %function
HAL_HRTIM_BurstDMAConfig:
.LFB383:
	.loc 1 4477 1 is_stmt 1
	.cfi_startproc
	@ args = 0, pretend = 0, frame = 0
	@ frame_needed = 0, uses_anonymous_args = 0
	@ link register save eliminated.
.LVL866:
	mov	r3, r0
	.loc 1 4479 3
	.loc 1 4481 3
	.loc 1 4481 12 is_stmt 0
	ldrb	r0, [r0, #193]	@ zero_extendqisi2
.LVL867:
	uxtb	r0, r0
	.loc 1 4481 5
	cmp	r0, #2
	beq	.L804
	.loc 1 4487 3 is_stmt 1
	.loc 1 4487 7
	.loc 1 4487 18 is_stmt 0
	ldrb	r0, [r3, #192]	@ zero_extendqisi2
	.loc 1 4487 9
	cmp	r0, #1
	beq	.L814
	.loc 1 4487 68 is_stmt 1 discriminator 2
	.loc 1 4487 83 is_stmt 0 discriminator 2
	movs	r0, #1
	strb	r0, [r3, #192]
	.loc 1 4487 5 is_stmt 1 discriminator 2
	.loc 1 4489 3 discriminator 2
	.loc 1 4489 17 is_stmt 0 discriminator 2
	movs	r0, #2
	strb	r0, [r3, #193]
	.loc 1 4492 3 is_stmt 1 discriminator 2
	cmp	r1, #5
	bhi	.L805
	tbb	[pc, r1]
.L807:
	.byte	(.L812-.L807)/2
	.byte	(.L811-.L807)/2
	.byte	(.L810-.L807)/2
	.byte	(.L809-.L807)/2
	.byte	(.L808-.L807)/2
	.byte	(.L806-.L807)/2
	.p2align 1
.L812:
	.loc 1 4496 7
	.loc 1 4496 13 is_stmt 0
	ldr	r1, [r3]
.LVL868:
	.loc 1 4496 45
	str	r2, [r1, #988]
	.loc 1 4497 7 is_stmt 1
.LVL869:
.L813:
	.loc 1 4541 3
	.loc 1 4541 12 is_stmt 0
	ldrb	r2, [r3, #193]	@ zero_extendqisi2
	uxtb	r2, r2
	.loc 1 4541 5
	cmp	r2, #7
	beq	.L815
	.loc 1 4546 3 is_stmt 1
	.loc 1 4546 17 is_stmt 0
	movs	r2, #1
	strb	r2, [r3, #193]
	.loc 1 4549 3 is_stmt 1
	.loc 1 4549 7
	.loc 1 4549 22 is_stmt 0
	movs	r0, #0
	strb	r0, [r3, #192]
	.loc 1 4549 5 is_stmt 1
	.loc 1 4551 3
	.loc 1 4551 10 is_stmt 0
	bx	lr
.LVL870:
.L811:
	.loc 1 4502 7 is_stmt 1
	.loc 1 4502 13 is_stmt 0
	ldr	r1, [r3]
.LVL871:
	.loc 1 4502 45
	str	r2, [r1, #992]
	.loc 1 4503 7 is_stmt 1
	b	.L813
.LVL872:
.L810:
	.loc 1 4508 7
	.loc 1 4508 13 is_stmt 0
	ldr	r1, [r3]
.LVL873:
	.loc 1 4508 45
	str	r2, [r1, #996]
	.loc 1 4509 7 is_stmt 1
	b	.L813
.LVL874:
.L809:
	.loc 1 4514 7
	.loc 1 4514 13 is_stmt 0
	ldr	r1, [r3]
.LVL875:
	.loc 1 4514 45
	str	r2, [r1, #1000]
	.loc 1 4515 7 is_stmt 1
	b	.L813
.LVL876:
.L808:
	.loc 1 4520 7
	.loc 1 4520 13 is_stmt 0
	ldr	r1, [r3]
.LVL877:
	.loc 1 4520 45
	str	r2, [r1, #1004]
	.loc 1 4521 7 is_stmt 1
	b	.L813
.LVL878:
.L806:
	.loc 1 4526 7
	.loc 1 4526 13 is_stmt 0
	ldr	r1, [r3]
.LVL879:
	.loc 1 4526 44
	str	r2, [r1, #984]
	.loc 1 4527 7 is_stmt 1
	b	.L813
.LVL880:
.L805:
	.loc 1 4532 7
	.loc 1 4532 21 is_stmt 0
	movs	r2, #7
.LVL881:
	strb	r2, [r3, #193]
	.loc 1 4535 7 is_stmt 1
	.loc 1 4535 11
	.loc 1 4535 26 is_stmt 0
	movs	r2, #0
	strb	r2, [r3, #192]
	.loc 1 4535 9 is_stmt 1
	.loc 1 4537 7
	b	.L813
.LVL882:
.L814:
	.loc 1 4487 49 is_stmt 0
	movs	r0, #2
	bx	lr
.LVL883:
.L815:
	.loc 1 4543 13
	movs	r0, #1
.L804:
	.loc 1 4552 1
	bx	lr
	.cfi_endproc
.LFE383:
	.size	HAL_HRTIM_BurstDMAConfig, .-HAL_HRTIM_BurstDMAConfig
	.section	.text.HAL_HRTIM_WaveformCompareConfig,"ax",%progbits
	.align	1
	.global	HAL_HRTIM_WaveformCompareConfig
	.syntax unified
	.thumb
	.thumb_func
	.type	HAL_HRTIM_WaveformCompareConfig, %function
HAL_HRTIM_WaveformCompareConfig:
.LFB384:
	.loc 1 4585 1 is_stmt 1
	.cfi_startproc
	@ args = 0, pretend = 0, frame = 0
	@ frame_needed = 0, uses_anonymous_args = 0
	@ link register save eliminated.
.LVL884:
	mov	ip, r0
	.loc 1 4587 3
	.loc 1 4589 3
	.loc 1 4589 12 is_stmt 0
	ldrb	r0, [r0, #193]	@ zero_extendqisi2
.LVL885:
	uxtb	r0, r0
	.loc 1 4589 5
	cmp	r0, #2
	beq	.L842
	.loc 1 4595 3 is_stmt 1
	.loc 1 4595 7
	.loc 1 4595 18 is_stmt 0
	ldrb	r0, [ip, #192]	@ zero_extendqisi2
	.loc 1 4595 9
	cmp	r0, #1
	beq	.L838
	.loc 1 4585 1 discriminator 2
	push	{r4, r5}
	.cfi_def_cfa_offset 8
	.cfi_offset 4, -8
	.cfi_offset 5, -4
	.loc 1 4595 68 is_stmt 1 discriminator 2
	.loc 1 4595 83 is_stmt 0 discriminator 2
	movs	r0, #1
	strb	r0, [ip, #192]
	.loc 1 4595 5 is_stmt 1 discriminator 2
	.loc 1 4597 3 discriminator 2
	.loc 1 4597 17 is_stmt 0 discriminator 2
	movs	r0, #2
	strb	r0, [ip, #193]
	.loc 1 4600 3 is_stmt 1 discriminator 2
	.loc 1 4600 6 is_stmt 0 discriminator 2
	cmp	r1, #5
	beq	.L845
	.loc 1 4647 5 is_stmt 1
	subs	r2, r2, #1
.LVL886:
	cmp	r2, #7
	bhi	.L827
	tbb	[pc, r2]
.L829:
	.byte	(.L832-.L829)/2
	.byte	(.L831-.L829)/2
	.byte	(.L827-.L829)/2
	.byte	(.L830-.L829)/2
	.byte	(.L827-.L829)/2
	.byte	(.L827-.L829)/2
	.byte	(.L827-.L829)/2
	.byte	(.L828-.L829)/2
.LVL887:
	.p2align 1
.L845:
	.loc 1 4602 5
	subs	r2, r2, #1
.LVL888:
	cmp	r2, #7
	bhi	.L819
	tbb	[pc, r2]
.LVL889:
.L821:
	.byte	(.L824-.L821)/2
	.byte	(.L823-.L821)/2
	.byte	(.L819-.L821)/2
	.byte	(.L822-.L821)/2
	.byte	(.L819-.L821)/2
	.byte	(.L819-.L821)/2
	.byte	(.L819-.L821)/2
	.byte	(.L820-.L821)/2
	.p2align 1
.L824:
	.loc 1 4606 9
	.loc 1 4606 15 is_stmt 0
	ldr	r2, [ip]
.LVL890:
	.loc 1 4606 59
	ldr	r3, [r3]
.LVL891:
	.loc 1 4606 46
	str	r3, [r2, #28]
	.loc 1 4607 9 is_stmt 1
.L825:
	.loc 1 4639 5
	.loc 1 4639 14 is_stmt 0
	ldrb	r3, [ip, #193]	@ zero_extendqisi2
	uxtb	r3, r3
	.loc 1 4639 7
	cmp	r3, #7
	bne	.L826
	.loc 1 4641 13
	movs	r0, #1
	b	.L817
.LVL892:
.L823:
	.loc 1 4612 9 is_stmt 1
	.loc 1 4612 15 is_stmt 0
	ldr	r2, [ip]
	.loc 1 4612 59
	ldr	r3, [r3]
.LVL893:
	.loc 1 4612 46
	str	r3, [r2, #36]
	.loc 1 4613 9 is_stmt 1
	b	.L825
.LVL894:
.L822:
	.loc 1 4618 9
	.loc 1 4618 15 is_stmt 0
	ldr	r2, [ip]
	.loc 1 4618 59
	ldr	r3, [r3]
.LVL895:
	.loc 1 4618 46
	str	r3, [r2, #40]
	.loc 1 4619 9 is_stmt 1
	b	.L825
.LVL896:
.L820:
	.loc 1 4624 9
	.loc 1 4624 15 is_stmt 0
	ldr	r2, [ip]
	.loc 1 4624 59
	ldr	r3, [r3]
.LVL897:
	.loc 1 4624 46
	str	r3, [r2, #44]
	.loc 1 4625 9 is_stmt 1
	b	.L825
.LVL898:
.L819:
	.loc 1 4630 9
	.loc 1 4630 23 is_stmt 0
	movs	r3, #7
.LVL899:
	strb	r3, [ip, #193]
	.loc 1 4633 9 is_stmt 1
	.loc 1 4633 13
	.loc 1 4633 28 is_stmt 0
	movs	r3, #0
	strb	r3, [ip, #192]
	.loc 1 4633 11 is_stmt 1
	.loc 1 4635 9
	b	.L825
.LVL900:
.L832:
	.loc 1 4652 9
	.loc 1 4652 15 is_stmt 0
	ldr	r2, [ip]
.LVL901:
	.loc 1 4652 69
	ldr	r3, [r3]
.LVL902:
	.loc 1 4652 56
	add	r2, r2, r1, lsl #7
	str	r3, [r2, #156]
	.loc 1 4653 9 is_stmt 1
.LVL903:
.L833:
	.loc 1 4750 4
	.loc 1 4750 13 is_stmt 0
	ldrb	r3, [ip, #193]	@ zero_extendqisi2
	uxtb	r3, r3
	.loc 1 4750 6
	cmp	r3, #7
	beq	.L840
.L826:
	.loc 1 4756 3 is_stmt 1
	.loc 1 4756 17 is_stmt 0
	movs	r3, #1
	strb	r3, [ip, #193]
	.loc 1 4759 3 is_stmt 1
	.loc 1 4759 7
	.loc 1 4759 22 is_stmt 0
	movs	r0, #0
	strb	r0, [ip, #192]
	.loc 1 4759 5 is_stmt 1
	.loc 1 4761 3
.L817:
	.loc 1 4762 1 is_stmt 0
	pop	{r4, r5}
	.cfi_remember_state
	.cfi_restore 5
	.cfi_restore 4
	.cfi_def_cfa_offset 0
	bx	lr
.LVL904:
.L831:
	.cfi_restore_state
	.loc 1 4659 9 is_stmt 1
	.loc 1 4662 9
	.loc 1 4662 15 is_stmt 0
	ldr	r2, [ip]
	.loc 1 4662 69
	ldr	r0, [r3]
	.loc 1 4662 56
	add	r2, r2, r1, lsl #7
	str	r0, [r2, #164]
	.loc 1 4664 9 is_stmt 1
	.loc 1 4664 24 is_stmt 0
	ldr	r2, [r3, #4]
	.loc 1 4664 12
	cbz	r2, .L834
	.loc 1 4669 11 is_stmt 1
	.loc 1 4669 17 is_stmt 0
	ldr	r4, [ip]
	.loc 1 4669 50
	adds	r2, r1, #1
	lsls	r2, r2, #7
	ldr	r0, [r4, r2]
	.loc 1 4669 58
	bic	r0, r0, #12288
	str	r0, [r4, r2]
	.loc 1 4670 11 is_stmt 1
	.loc 1 4670 17 is_stmt 0
	ldr	r4, [ip]
	.loc 1 4670 50
	ldr	r0, [r4, r2]
	.loc 1 4670 58
	ldr	r5, [r3, #4]
	orrs	r0, r0, r5
	str	r0, [r4, r2]
	.loc 1 4673 11 is_stmt 1
	.loc 1 4673 26 is_stmt 0
	ldr	r2, [r3, #4]
	.loc 1 4673 14
	cmp	r2, #8192
	beq	.L846
	.loc 1 4677 16 is_stmt 1
	.loc 1 4677 19 is_stmt 0
	cmp	r2, #12288
	bne	.L833
	.loc 1 4679 13 is_stmt 1
	.loc 1 4679 19 is_stmt 0
	ldr	r2, [ip]
	.loc 1 4679 73
	ldr	r3, [r3, #8]
.LVL905:
	.loc 1 4679 60
	add	r2, r2, r1, lsl #7
	str	r3, [r2, #168]
	b	.L833
.LVL906:
.L846:
	.loc 1 4675 13 is_stmt 1
	.loc 1 4675 19 is_stmt 0
	ldr	r2, [ip]
	.loc 1 4675 73
	ldr	r3, [r3, #8]
.LVL907:
	.loc 1 4675 60
	add	r2, r2, r1, lsl #7
	str	r3, [r2, #156]
	b	.L833
.LVL908:
.L834:
	.loc 1 4689 11 is_stmt 1
	.loc 1 4689 77 is_stmt 0
	ldr	r2, [ip]
	.loc 1 4689 110
	adds	r1, r1, #1
.LVL909:
	lsls	r1, r1, #7
.LVL910:
	ldr	r3, [r2, r1]
.LVL911:
	.loc 1 4689 146
	bic	r3, r3, #12288
	.loc 1 4689 63
	str	r3, [r2, r1]
	b	.L833
.LVL912:
.L830:
	.loc 1 4697 9 is_stmt 1
	.loc 1 4697 15 is_stmt 0
	ldr	r2, [ip]
	.loc 1 4697 69
	ldr	r3, [r3]
.LVL913:
	.loc 1 4697 56
	add	r2, r2, r1, lsl #7
	str	r3, [r2, #168]
	.loc 1 4698 9 is_stmt 1
	b	.L833
.LVL914:
.L828:
	.loc 1 4704 9
	.loc 1 4707 9
	.loc 1 4707 15 is_stmt 0
	ldr	r2, [ip]
	.loc 1 4707 69
	ldr	r0, [r3]
	.loc 1 4707 56
	add	r2, r2, r1, lsl #7
	str	r0, [r2, #172]
	.loc 1 4709 9 is_stmt 1
	.loc 1 4709 24 is_stmt 0
	ldr	r2, [r3, #4]
	.loc 1 4709 12
	cbz	r2, .L836
	.loc 1 4714 11 is_stmt 1
	.loc 1 4714 17 is_stmt 0
	ldr	r4, [ip]
	.loc 1 4714 50
	adds	r2, r1, #1
	lsls	r2, r2, #7
	ldr	r0, [r4, r2]
	.loc 1 4714 58
	bic	r0, r0, #49152
	str	r0, [r4, r2]
	.loc 1 4715 11 is_stmt 1
	.loc 1 4715 17 is_stmt 0
	ldr	r4, [ip]
	.loc 1 4715 50
	ldr	r0, [r4, r2]
	.loc 1 4715 58
	ldr	r5, [r3, #4]
	orr	r0, r0, r5, lsl #2
	str	r0, [r4, r2]
	.loc 1 4718 11 is_stmt 1
	.loc 1 4718 26 is_stmt 0
	ldr	r2, [r3, #4]
	.loc 1 4718 14
	cmp	r2, #8192
	beq	.L847
	.loc 1 4722 16 is_stmt 1
	.loc 1 4722 19 is_stmt 0
	cmp	r2, #12288
	bne	.L833
	.loc 1 4724 13 is_stmt 1
	.loc 1 4724 19 is_stmt 0
	ldr	r2, [ip]
	.loc 1 4724 73
	ldr	r3, [r3, #8]
.LVL915:
	.loc 1 4724 60
	add	r2, r2, r1, lsl #7
	str	r3, [r2, #168]
	b	.L833
.LVL916:
.L847:
	.loc 1 4720 13 is_stmt 1
	.loc 1 4720 19 is_stmt 0
	ldr	r2, [ip]
	.loc 1 4720 73
	ldr	r3, [r3, #8]
.LVL917:
	.loc 1 4720 60
	add	r2, r2, r1, lsl #7
	str	r3, [r2, #156]
	b	.L833
.LVL918:
.L836:
	.loc 1 4734 11 is_stmt 1
	.loc 1 4734 77 is_stmt 0
	ldr	r2, [ip]
	.loc 1 4734 110
	adds	r1, r1, #1
.LVL919:
	lsls	r1, r1, #7
.LVL920:
	ldr	r3, [r2, r1]
.LVL921:
	.loc 1 4734 146
	bic	r3, r3, #49152
	.loc 1 4734 63
	str	r3, [r2, r1]
	b	.L833
.LVL922:
.L827:
	.loc 1 4741 7 is_stmt 1
	.loc 1 4741 21 is_stmt 0
	movs	r3, #7
.LVL923:
	strb	r3, [ip, #193]
	.loc 1 4744 7 is_stmt 1
	.loc 1 4744 11
	.loc 1 4744 26 is_stmt 0
	movs	r3, #0
	strb	r3, [ip, #192]
	.loc 1 4744 9 is_stmt 1
	.loc 1 4746 7
	b	.L833
.LVL924:
.L838:
	.cfi_def_cfa_offset 0
	.cfi_restore 4
	.cfi_restore 5
	.loc 1 4595 49 is_stmt 0
	movs	r0, #2
	bx	lr
.LVL925:
.L840:
	.cfi_def_cfa_offset 8
	.cfi_offset 4, -8
	.cfi_offset 5, -4
	.loc 1 4752 13
	movs	r0, #1
	b	.L817
.LVL926:
.L842:
	.cfi_def_cfa_offset 0
	.cfi_restore 4
	.cfi_restore 5
	.loc 1 4762 1
	bx	lr
	.cfi_endproc
.LFE384:
	.size	HAL_HRTIM_WaveformCompareConfig, .-HAL_HRTIM_WaveformCompareConfig
	.section	.text.HAL_HRTIM_WaveformCaptureConfig,"ax",%progbits
	.align	1
	.global	HAL_HRTIM_WaveformCaptureConfig
	.syntax unified
	.thumb
	.thumb_func
	.type	HAL_HRTIM_WaveformCaptureConfig, %function
HAL_HRTIM_WaveformCaptureConfig:
.LFB385:
	.loc 1 4786 1 is_stmt 1
	.cfi_startproc
	@ args = 0, pretend = 0, frame = 0
	@ frame_needed = 0, uses_anonymous_args = 0
	@ link register save eliminated.
.LVL927:
	mov	ip, r0
	.loc 1 4788 3
	.loc 1 4791 3
	.loc 1 4791 12 is_stmt 0
	ldrb	r0, [r0, #193]	@ zero_extendqisi2
.LVL928:
	uxtb	r0, r0
	.loc 1 4791 5
	cmp	r0, #2
	beq	.L849
	.loc 1 4797 3 is_stmt 1
	.loc 1 4797 7
	.loc 1 4797 18 is_stmt 0
	ldrb	r0, [ip, #192]	@ zero_extendqisi2
	.loc 1 4797 9
	cmp	r0, #1
	beq	.L854
	.loc 1 4797 68 is_stmt 1 discriminator 2
	.loc 1 4797 83 is_stmt 0 discriminator 2
	movs	r0, #1
	strb	r0, [ip, #192]
	.loc 1 4797 5 is_stmt 1 discriminator 2
	.loc 1 4799 3 discriminator 2
	.loc 1 4799 17 is_stmt 0 discriminator 2
	movs	r0, #2
	strb	r0, [ip, #193]
	.loc 1 4802 3 is_stmt 1 discriminator 2
	cmp	r2, #1
	beq	.L850
	.loc 1 4802 3 is_stmt 0
	cmp	r2, r0
	beq	.L851
	.loc 1 4818 7 is_stmt 1
	.loc 1 4818 21 is_stmt 0
	movs	r3, #7
.LVL929:
	strb	r3, [ip, #193]
	.loc 1 4821 7 is_stmt 1
	.loc 1 4821 11
	.loc 1 4821 26 is_stmt 0
	movs	r3, #0
	strb	r3, [ip, #192]
	.loc 1 4821 9 is_stmt 1
	.loc 1 4823 7
	b	.L853
.LVL930:
.L850:
	.loc 1 4806 7
	.loc 1 4806 15 is_stmt 0
	ldr	r2, [ip]
.LVL931:
	.loc 1 4806 72
	ldr	r3, [r3]
.LVL932:
	.loc 1 4806 58
	add	r2, r2, r1, lsl #7
	str	r3, [r2, #220]
	.loc 1 4807 7 is_stmt 1
.L853:
	.loc 1 4827 3
	.loc 1 4827 12 is_stmt 0
	ldrb	r3, [ip, #193]	@ zero_extendqisi2
	uxtb	r3, r3
	.loc 1 4827 5
	cmp	r3, #7
	beq	.L855
	.loc 1 4833 3 is_stmt 1
	.loc 1 4833 17 is_stmt 0
	movs	r3, #1
	strb	r3, [ip, #193]
	.loc 1 4836 3 is_stmt 1
	.loc 1 4836 7
	.loc 1 4836 22 is_stmt 0
	movs	r0, #0
	strb	r0, [ip, #192]
	.loc 1 4836 5 is_stmt 1
	.loc 1 4838 3
	.loc 1 4838 10 is_stmt 0
	bx	lr
.LVL933:
.L851:
	.loc 1 4812 7 is_stmt 1
	.loc 1 4812 15 is_stmt 0
	ldr	r2, [ip]
.LVL934:
	.loc 1 4812 72
	ldr	r3, [r3]
.LVL935:
	.loc 1 4812 58
	add	r2, r2, r1, lsl #7
	str	r3, [r2, #224]
	.loc 1 4813 7 is_stmt 1
	b	.L853
.LVL936:
.L854:
	.loc 1 4797 49 is_stmt 0
	movs	r0, #2
	bx	lr
.LVL937:
.L855:
	.loc 1 4829 13
	movs	r0, #1
.L849:
	.loc 1 4839 1
	bx	lr
	.cfi_endproc
.LFE385:
	.size	HAL_HRTIM_WaveformCaptureConfig, .-HAL_HRTIM_WaveformCaptureConfig
	.section	.text.HAL_HRTIM_WaveformOutputConfig,"ax",%progbits
	.align	1
	.global	HAL_HRTIM_WaveformOutputConfig
	.syntax unified
	.thumb
	.thumb_func
	.type	HAL_HRTIM_WaveformOutputConfig, %function
HAL_HRTIM_WaveformOutputConfig:
.LFB386:
	.loc 1 4872 1 is_stmt 1
	.cfi_startproc
	@ args = 0, pretend = 0, frame = 0
	@ frame_needed = 0, uses_anonymous_args = 0
.LVL938:
	push	{r3, r4, r5, lr}
	.cfi_def_cfa_offset 16
	.cfi_offset 3, -16
	.cfi_offset 4, -12
	.cfi_offset 5, -8
	.cfi_offset 14, -4
	mov	r4, r0
	.loc 1 4874 3
	.loc 1 4875 3
	.loc 1 4876 3
	.loc 1 4877 3
	.loc 1 4878 3
	.loc 1 4879 3
	.loc 1 4880 3
	.loc 1 4882 3
	.loc 1 4882 12 is_stmt 0
	ldrb	r0, [r0, #193]	@ zero_extendqisi2
.LVL939:
	uxtb	r0, r0
	.loc 1 4882 5
	cmp	r0, #2
	beq	.L858
	.loc 1 4888 3 is_stmt 1
	.loc 1 4888 7
	.loc 1 4888 18 is_stmt 0
	ldrb	r0, [r4, #192]	@ zero_extendqisi2
	.loc 1 4888 9
	cmp	r0, #1
	beq	.L859
	.loc 1 4888 68 is_stmt 1 discriminator 2
	.loc 1 4888 83 is_stmt 0 discriminator 2
	movs	r5, #1
	strb	r5, [r4, #192]
	.loc 1 4888 5 is_stmt 1 discriminator 2
	.loc 1 4890 3 discriminator 2
	.loc 1 4890 17 is_stmt 0 discriminator 2
	movs	r0, #2
	strb	r0, [r4, #193]
	.loc 1 4893 3 is_stmt 1 discriminator 2
	mov	r0, r4
	bl	HRTIM_OutputConfig
.LVL940:
	.loc 1 4898 3 discriminator 2
	.loc 1 4898 17 is_stmt 0 discriminator 2
	strb	r5, [r4, #193]
	.loc 1 4901 3 is_stmt 1 discriminator 2
	.loc 1 4901 7 discriminator 2
	.loc 1 4901 22 is_stmt 0 discriminator 2
	movs	r0, #0
	strb	r0, [r4, #192]
	.loc 1 4901 5 is_stmt 1 discriminator 2
	.loc 1 4903 3 discriminator 2
.L858:
	.loc 1 4904 1 is_stmt 0
	pop	{r3, r4, r5, pc}
.LVL941:
.L859:
	.loc 1 4888 49
	movs	r0, #2
	b	.L858
	.cfi_endproc
.LFE386:
	.size	HAL_HRTIM_WaveformOutputConfig, .-HAL_HRTIM_WaveformOutputConfig
	.section	.text.HAL_HRTIM_WaveformSetOutputLevel,"ax",%progbits
	.align	1
