	.cpu cortex-m7
	.arch armv7e-m
	.fpu fpv5-d16
	.eabi_attribute 28, 1
	.eabi_attribute 20, 1
	.eabi_attribute 21, 1
	.eabi_attribute 23, 3
	.eabi_attribute 24, 1
	.eabi_attribute 25, 1
	.eabi_attribute 26, 1
	.eabi_attribute 30, 1
	.eabi_attribute 34, 1
	.eabi_attribute 18, 4
	.file	"stm32h7xx_hal_nor.c"
	.text
.Ltext0:
	.cfi_sections	.debug_frame
	.file 1 "D:/RTOS/Board/YD-STM32H7xxVx_ClassicV19/cmake-build-debug/_deps/stm32h7xx_hal_driver-src/Src/stm32h7xx_hal_nor.c"
	.section	.text.HAL_NOR_MspInit,"ax",%progbits
	.align	1
	.weak	HAL_NOR_MspInit
	.syntax unified
	.thumb
	.thumb_func
	.type	HAL_NOR_MspInit, %function
HAL_NOR_MspInit:
.LFB337:
	.loc 1 379 1
	.cfi_startproc
	@ args = 0, pretend = 0, frame = 0
	@ frame_needed = 0, uses_anonymous_args = 0
	@ link register save eliminated.
.LVL0:
	.loc 1 381 3
	.loc 1 386 1 is_stmt 0
	bx	lr
	.cfi_endproc
.LFE337:
	.size	HAL_NOR_MspInit, .-HAL_NOR_MspInit
	.section	.text.HAL_NOR_MspDeInit,"ax",%progbits
	.align	1
	.weak	HAL_NOR_MspDeInit
	.syntax unified
	.thumb
	.thumb_func
	.type	HAL_NOR_MspDeInit, %function
HAL_NOR_MspDeInit:
.LFB338:
	.loc 1 395 1 is_stmt 1
	.cfi_startproc
	@ args = 0, pretend = 0, frame = 0
	@ frame_needed = 0, uses_anonymous_args = 0
	@ link register save eliminated.
.LVL1:
	.loc 1 397 3
	.loc 1 402 1 is_stmt 0
	bx	lr
	.cfi_endproc
.LFE338:
	.size	HAL_NOR_MspDeInit, .-HAL_NOR_MspDeInit
	.section	.text.HAL_NOR_DeInit,"ax",%progbits
	.align	1
	.global	HAL_NOR_DeInit
	.syntax unified
	.thumb
	.thumb_func
	.type	HAL_NOR_DeInit, %function
HAL_NOR_DeInit:
.LFB336:
	.loc 1 346 1 is_stmt 1
	.cfi_startproc
	@ args = 0, pretend = 0, frame = 0
	@ frame_needed = 0, uses_anonymous_args = 0
.LVL2:
	push	{r4, lr}
	.cfi_def_cfa_offset 8
	.cfi_offset 4, -8
	.cfi_offset 14, -4
	mov	r4, r0
	.loc 1 357 3
	bl	HAL_NOR_MspDeInit
.LVL3:
	.loc 1 361 3
	.loc 1 361 9 is_stmt 0
	ldr	r2, [r4, #8]
	ldr	r1, [r4, #4]
	ldr	r0, [r4]
	bl	FMC_NORSRAM_DeInit
.LVL4:
	.loc 1 364 3 is_stmt 1
	.loc 1 364 15 is_stmt 0
	movs	r0, #0
	strb	r0, [r4, #69]
	.loc 1 367 3 is_stmt 1
	.loc 1 367 7
	.loc 1 367 20 is_stmt 0
	strb	r0, [r4, #68]
	.loc 1 367 5 is_stmt 1
	.loc 1 369 3
	.loc 1 370 1 is_stmt 0
	pop	{r4, pc}
	.cfi_endproc
.LFE336:
	.size	HAL_NOR_DeInit, .-HAL_NOR_DeInit
	.section	.text.HAL_NOR_MspWait,"ax",%progbits
	.align	1
	.weak	HAL_NOR_MspWait
	.syntax unified
	.thumb
	.thumb_func
	.type	HAL_NOR_MspWait, %function
HAL_NOR_MspWait:
.LFB339:
	.loc 1 412 1 is_stmt 1
	.cfi_startproc
	@ args = 0, pretend = 0, frame = 0
	@ frame_needed = 0, uses_anonymous_args = 0
	@ link register save eliminated.
.LVL5:
	.loc 1 414 3
	.loc 1 415 3
	.loc 1 420 1 is_stmt 0
	bx	lr
	.cfi_endproc
.LFE339:
	.size	HAL_NOR_MspWait, .-HAL_NOR_MspWait
	.section	.text.HAL_NOR_Read_ID,"ax",%progbits
	.align	1
	.global	HAL_NOR_Read_ID
	.syntax unified
	.thumb
	.thumb_func
	.type	HAL_NOR_Read_ID, %function
HAL_NOR_Read_ID:
.LFB340:
	.loc 1 448 1 is_stmt 1
	.cfi_startproc
	@ args = 0, pretend = 0, frame = 0
	@ frame_needed = 0, uses_anonymous_args = 0
	@ link register save eliminated.
.LVL6:
	.loc 1 449 3
	.loc 1 450 3
	.loc 1 451 3
	.loc 1 454 3
	.loc 1 454 9 is_stmt 0
	ldrb	r2, [r0, #69]	@ zero_extendqisi2
	uxtb	r2, r2
.LVL7:
	.loc 1 455 3 is_stmt 1
	.loc 1 455 6 is_stmt 0
	cmp	r2, #2
	beq	.L31
	mov	r3, r0
	.loc 1 459 8 is_stmt 1
	.loc 1 459 11 is_stmt 0
	cmp	r2, #4
	beq	.L32
	.loc 1 463 8 is_stmt 1
	.loc 1 463 11 is_stmt 0
	cmp	r2, #1
	bne	.L33
	.loc 1 466 5 is_stmt 1
	.loc 1 466 9
	.loc 1 466 18 is_stmt 0
	ldrb	r0, [r0, #68]	@ zero_extendqisi2
.LVL8:
	.loc 1 466 11
	cmp	r0, #1
	beq	.L34
	.loc 1 448 1 discriminator 2
	push	{r4}
	.cfi_def_cfa_offset 4
	.cfi_offset 4, -4
	.loc 1 466 68 is_stmt 1 discriminator 2
	.loc 1 466 81 is_stmt 0 discriminator 2
	movs	r0, #1
	strb	r0, [r3, #68]
	.loc 1 466 7 is_stmt 1 discriminator 2
	.loc 1 469 5 discriminator 2
	.loc 1 469 17 is_stmt 0 discriminator 2
	movs	r0, #2
	strb	r0, [r3, #69]
	.loc 1 472 5 is_stmt 1 discriminator 2
	.loc 1 472 19 is_stmt 0 discriminator 2
	ldr	r0, [r3, #8]
	.loc 1 472 8 discriminator 2
	cbz	r0, .L35
	.loc 1 476 10 is_stmt 1
	.loc 1 476 13 is_stmt 0
	cmp	r0, #2
	beq	.L36
	.loc 1 480 10 is_stmt 1
	.loc 1 480 13 is_stmt 0
	cmp	r0, #4
	beq	.L43
	.loc 1 486 21
	mov	r0, #1811939328
	b	.L8
.L43:
	.loc 1 482 21
	mov	r0, #1744830464
	b	.L8
.L35:
	.loc 1 474 21
	mov	r0, #1610612736
.L8:
.LVL9:
	.loc 1 490 5 is_stmt 1
	.loc 1 490 13 is_stmt 0
	ldr	r4, [r3, #72]
	.loc 1 490 8
	cmp	r4, #2
	beq	.L44
	.loc 1 509 10 is_stmt 1
	.loc 1 509 13 is_stmt 0
	cmp	r4, #1
	beq	.L45
	.loc 1 516 14
	mov	r0, r2
.LVL10:
	b	.L24
.LVL11:
.L36:
	.loc 1 478 21
	mov	r0, #1677721600
	b	.L8
.LVL12:
.L44:
	.loc 1 492 7 is_stmt 1
	.loc 1 492 32 is_stmt 0
	ldr	r4, .L55
	ldr	r4, [r4]
	.loc 1 492 10
	cbnz	r4, .L10
	.loc 1 494 9 is_stmt 1
	.loc 1 494 13
	.loc 1 494 15 is_stmt 0
	cmp	r4, #1
	beq	.L46
	.loc 1 494 15 discriminator 2
	addw	r4, r0, #2730
.L12:
	.loc 1 494 219 discriminator 4
	mov	ip, #170
	strh	ip, [r4]	@ movhi
	.loc 1 494 242 is_stmt 1 discriminator 4
.LBB144:
.LBB145:
	.file 2 "d:\\rtos\\board\\yd-stm32h7xxvx_classicv19\\cmake-build-debug\\_deps\\stm32h7xx_cmsis_include\\drivers\\cmsis\\include\\cmsis_gcc.h"
	.loc 2 946 3 discriminator 4
	.syntax unified
@ 946 "d:\rtos\board\yd-stm32h7xxvx_classicv19\cmake-build-debug\_deps\stm32h7xx_cmsis_include\drivers\cmsis\include\cmsis_gcc.h" 1
	dsb 0xF
@ 0 "" 2
	.thumb
	.syntax unified
.LBE145:
.LBE144:
	.loc 1 494 11 discriminator 4
	.loc 1 496 9 discriminator 4
	.loc 1 496 13 discriminator 4
	.loc 1 496 84 is_stmt 0 discriminator 4
	ldr	r4, .L55
	ldr	r4, [r4]
	.loc 1 496 15 discriminator 4
	cmp	r4, #1
	beq	.L47
	.loc 1 496 15 discriminator 2
	addw	ip, r0, #1365
.L14:
	.loc 1 496 219 discriminator 4
	movs	r4, #85
	strh	r4, [ip]	@ movhi
	.loc 1 496 242 is_stmt 1 discriminator 4
.LBB146:
.LBB147:
	.loc 2 946 3 discriminator 4
	.syntax unified
@ 946 "d:\rtos\board\yd-stm32h7xxvx_classicv19\cmake-build-debug\_deps\stm32h7xx_cmsis_include\drivers\cmsis\include\cmsis_gcc.h" 1
	dsb 0xF
@ 0 "" 2
	.thumb
	.syntax unified
.LBE147:
.LBE146:
	.loc 1 496 11 discriminator 4
	.loc 1 498 9 discriminator 4
	.loc 1 498 13 discriminator 4
	.loc 1 498 84 is_stmt 0 discriminator 4
	ldr	r4, .L55
	ldr	r4, [r4]
	.loc 1 498 15 discriminator 4
	cmp	r4, #1
	beq	.L48
	.loc 1 498 15 discriminator 2
	addw	r4, r0, #2730
.L16:
	.loc 1 498 219 discriminator 4
	mov	ip, #144
	strh	ip, [r4]	@ movhi
	.loc 1 498 242 is_stmt 1 discriminator 4
.LBB148:
.LBB149:
	.loc 2 946 3 discriminator 4
	.syntax unified
@ 946 "d:\rtos\board\yd-stm32h7xxvx_classicv19\cmake-build-debug\_deps\stm32h7xx_cmsis_include\drivers\cmsis\include\cmsis_gcc.h" 1
	dsb 0xF
@ 0 "" 2
	.thumb
	.syntax unified
.LBE149:
.LBE148:
	.loc 1 519 5 discriminator 4
	b	.L17
.L46:
	.loc 1 494 15 is_stmt 0 discriminator 1
	movw	r4, #5460
	add	r4, r4, r0
	b	.L12
.L47:
	.loc 1 496 15 discriminator 1
	addw	ip, r0, #2730
	b	.L14
.L48:
	.loc 1 498 15 discriminator 1
	movw	r4, #5460
	add	r4, r4, r0
	b	.L16
.L10:
	.loc 1 503 9 is_stmt 1
	.loc 1 503 13
	.loc 1 503 15 is_stmt 0
	cmp	r4, #1
	beq	.L49
	.loc 1 503 15 discriminator 2
	addw	ip, r0, #1365
.L19:
	.loc 1 503 219 discriminator 4
	movs	r4, #170
	strh	r4, [ip]	@ movhi
	.loc 1 503 242 is_stmt 1 discriminator 4
.LBB150:
.LBB151:
	.loc 2 946 3 discriminator 4
	.syntax unified
@ 946 "d:\rtos\board\yd-stm32h7xxvx_classicv19\cmake-build-debug\_deps\stm32h7xx_cmsis_include\drivers\cmsis\include\cmsis_gcc.h" 1
	dsb 0xF
@ 0 "" 2
	.thumb
	.syntax unified
.LBE151:
.LBE150:
	.loc 1 503 11 discriminator 4
	.loc 1 504 9 discriminator 4
	.loc 1 504 13 discriminator 4
	.loc 1 504 84 is_stmt 0 discriminator 4
	ldr	r4, .L55
	ldr	r4, [r4]
	.loc 1 504 15 discriminator 4
	cmp	r4, #1
	beq	.L50
	.loc 1 504 15 discriminator 2
	addw	ip, r0, #682
.L21:
	.loc 1 504 219 discriminator 4
	movs	r4, #85
	strh	r4, [ip]	@ movhi
	.loc 1 504 242 is_stmt 1 discriminator 4
.LBB152:
.LBB153:
	.loc 2 946 3 discriminator 4
	.syntax unified
@ 946 "d:\rtos\board\yd-stm32h7xxvx_classicv19\cmake-build-debug\_deps\stm32h7xx_cmsis_include\drivers\cmsis\include\cmsis_gcc.h" 1
	dsb 0xF
@ 0 "" 2
	.thumb
	.syntax unified
.LBE153:
.LBE152:
	.loc 1 504 11 discriminator 4
	.loc 1 505 9 discriminator 4
	.loc 1 505 13 discriminator 4
	.loc 1 505 84 is_stmt 0 discriminator 4
	ldr	r4, .L55
	ldr	r4, [r4]
	.loc 1 505 15 discriminator 4
	cmp	r4, #1
	beq	.L51
	.loc 1 505 15 discriminator 2
	addw	ip, r0, #1365
.L23:
	.loc 1 505 219 discriminator 4
	movs	r4, #144
	strh	r4, [ip]	@ movhi
	.loc 1 505 242 is_stmt 1 discriminator 4
.LBB154:
.LBB155:
	.loc 2 946 3 discriminator 4
	.syntax unified
@ 946 "d:\rtos\board\yd-stm32h7xxvx_classicv19\cmake-build-debug\_deps\stm32h7xx_cmsis_include\drivers\cmsis\include\cmsis_gcc.h" 1
	dsb 0xF
@ 0 "" 2
	.thumb
	.syntax unified
.LBE155:
.LBE154:
	.loc 1 519 5 discriminator 4
	b	.L17
.L49:
	.loc 1 503 15 is_stmt 0 discriminator 1
	addw	ip, r0, #2730
	b	.L19
.L50:
	.loc 1 504 15 discriminator 1
	addw	ip, r0, #1364
	b	.L21
.L51:
	.loc 1 505 15 discriminator 1
	addw	ip, r0, #2730
	b	.L23
.L45:
	.loc 1 511 7 is_stmt 1
	.loc 1 511 11
	.loc 1 511 62 is_stmt 0
	movs	r4, #144
	strh	r4, [r0]	@ movhi
	.loc 1 511 85 is_stmt 1
.LBB156:
.LBB157:
	.loc 2 946 3
	.syntax unified
@ 946 "d:\rtos\board\yd-stm32h7xxvx_classicv19\cmake-build-debug\_deps\stm32h7xx_cmsis_include\drivers\cmsis\include\cmsis_gcc.h" 1
	dsb 0xF
@ 0 "" 2
	.thumb
	.syntax unified
.LBE157:
.LBE156:
	.loc 1 519 5
.L17:
	.loc 1 522 7
	.loc 1 522 36 is_stmt 0
	ldrh	r4, [r0]
	.loc 1 522 34
	strh	r4, [r1]	@ movhi
	.loc 1 523 7 is_stmt 1
	.loc 1 523 90 is_stmt 0
	ldr	r4, .L55
	ldr	r4, [r4]
	.loc 1 523 32
	cmp	r4, #1
	beq	.L52
	.loc 1 523 32 discriminator 2
	add	ip, r0, #1
.L26:
	.loc 1 523 31 discriminator 4
	ldrh	ip, [ip]
	.loc 1 523 29 discriminator 4
	strh	ip, [r1, #2]	@ movhi
	.loc 1 525 7 is_stmt 1 discriminator 4
	.loc 1 525 32 is_stmt 0 discriminator 4
	cmp	r4, #1
	beq	.L53
	.loc 1 525 32 discriminator 2
	add	ip, r0, #14
.L28:
	.loc 1 525 31 discriminator 4
	ldrh	ip, [ip]
	.loc 1 525 29 discriminator 4
	strh	ip, [r1, #4]	@ movhi
	.loc 1 527 7 is_stmt 1 discriminator 4
	.loc 1 527 32 is_stmt 0 discriminator 4
	cmp	r4, #1
	beq	.L54
	.loc 1 527 32 discriminator 2
	adds	r0, r0, #15
.LVL13:
.L30:
	.loc 1 527 31 discriminator 4
	ldrh	r0, [r0]
	.loc 1 527 29 discriminator 4
	strh	r0, [r1, #6]	@ movhi
	movs	r0, #0
.L24:
.LVL14:
	.loc 1 532 5 is_stmt 1
	.loc 1 532 17 is_stmt 0
	strb	r2, [r3, #69]
	.loc 1 535 5 is_stmt 1
	.loc 1 535 9
	.loc 1 535 22 is_stmt 0
	movs	r2, #0
.LVL15:
	strb	r2, [r3, #68]
	.loc 1 535 7 is_stmt 1
	.loc 1 542 3
	.loc 1 543 1 is_stmt 0
	ldr	r4, [sp], #4
	.cfi_remember_state
	.cfi_restore 4
	.cfi_def_cfa_offset 0
	bx	lr
.LVL16:
.L52:
	.cfi_restore_state
	.loc 1 523 32 discriminator 1
	add	ip, r0, #2
	b	.L26
.L53:
	.loc 1 525 32 discriminator 1
	add	ip, r0, #28
	b	.L28
.L54:
	.loc 1 527 32 discriminator 1
	adds	r0, r0, #30
.LVL17:
	b	.L30
.LVL18:
.L31:
	.cfi_def_cfa_offset 0
	.cfi_restore 4
	.loc 1 457 12
	mov	r0, r2
.LVL19:
	bx	lr
.LVL20:
.L32:
	.loc 1 461 12
	movs	r0, #1
.LVL21:
	bx	lr
.LVL22:
.L33:
	.loc 1 539 12
	movs	r0, #1
.LVL23:
	bx	lr
.L34:
	.loc 1 466 49
	movs	r0, #2
	.loc 1 543 1
	bx	lr
.L56:
	.align	2
.L55:
	.word	uwNORMemoryDataWidth
	.cfi_endproc
.LFE340:
	.size	HAL_NOR_Read_ID, .-HAL_NOR_Read_ID
	.section	.text.HAL_NOR_ReturnToReadMode,"ax",%progbits
	.align	1
	.global	HAL_NOR_ReturnToReadMode
	.syntax unified
	.thumb
	.thumb_func
	.type	HAL_NOR_ReturnToReadMode, %function
HAL_NOR_ReturnToReadMode:
.LFB341:
	.loc 1 552 1 is_stmt 1
	.cfi_startproc
	@ args = 0, pretend = 0, frame = 0
	@ frame_needed = 0, uses_anonymous_args = 0
	@ link register save eliminated.
.LVL24:
	mov	r3, r0
	.loc 1 553 3
	.loc 1 554 3
	.loc 1 555 3
.LVL25:
	.loc 1 558 3
	.loc 1 558 9 is_stmt 0
	ldrb	r2, [r0, #69]	@ zero_extendqisi2
	uxtb	r2, r2
.LVL26:
	.loc 1 559 3 is_stmt 1
	.loc 1 559 6 is_stmt 0
	cmp	r2, #2
	beq	.L62
	.loc 1 563 8 is_stmt 1
	.loc 1 563 11 is_stmt 0
	cmp	r2, #4
	beq	.L63
	.loc 1 567 8 is_stmt 1
	.loc 1 567 11 is_stmt 0
	cmp	r2, #1
	bne	.L64
	.loc 1 570 5 is_stmt 1
	.loc 1 570 9
	.loc 1 570 18 is_stmt 0
	ldrb	r1, [r0, #68]	@ zero_extendqisi2
	.loc 1 570 11
	cmp	r1, #1
	beq	.L65
	.loc 1 570 68 is_stmt 1 discriminator 2
	.loc 1 570 81 is_stmt 0 discriminator 2
	movs	r1, #1
	strb	r1, [r0, #68]
	.loc 1 570 7 is_stmt 1 discriminator 2
	.loc 1 573 5 discriminator 2
	.loc 1 573 17 is_stmt 0 discriminator 2
	movs	r1, #2
	strb	r1, [r0, #69]
	.loc 1 576 5 is_stmt 1 discriminator 2
	.loc 1 576 19 is_stmt 0 discriminator 2
	ldr	r1, [r0, #8]
	.loc 1 576 8 discriminator 2
	cbz	r1, .L66
	.loc 1 580 10 is_stmt 1
	.loc 1 580 13 is_stmt 0
	cmp	r1, #2
	beq	.L67
	.loc 1 584 10 is_stmt 1
	.loc 1 584 13 is_stmt 0
	cmp	r1, #4
	beq	.L70
	.loc 1 590 21
	mov	r0, #1811939328
.LVL27:
	b	.L59
.LVL28:
.L70:
	.loc 1 586 21
	mov	r0, #1744830464
.LVL29:
	b	.L59
.LVL30:
.L66:
	.loc 1 578 21
	mov	r0, #1610612736
.LVL31:
.L59:
	.loc 1 593 5 is_stmt 1
	.loc 1 593 13 is_stmt 0
	ldr	r1, [r3, #72]
	.loc 1 593 8
	cmp	r1, #2
	beq	.L71
	.loc 1 597 10 is_stmt 1
	.loc 1 597 13 is_stmt 0
	cmp	r1, #1
	beq	.L72
	.loc 1 604 14
	mov	r0, r2
.LVL32:
.L61:
	.loc 1 608 5 is_stmt 1
	.loc 1 608 17 is_stmt 0
	strb	r2, [r3, #69]
	.loc 1 611 5 is_stmt 1
	.loc 1 611 9
	.loc 1 611 22 is_stmt 0
	movs	r2, #0
.LVL33:
	strb	r2, [r3, #68]
	.loc 1 611 7 is_stmt 1
	.loc 1 618 3
	.loc 1 618 10 is_stmt 0
	bx	lr
.LVL34:
.L67:
	.loc 1 582 21
	mov	r0, #1677721600
.LVL35:
	b	.L59
.LVL36:
.L71:
	.loc 1 595 7 is_stmt 1
	.loc 1 595 11
	.loc 1 595 62 is_stmt 0
	movs	r1, #240
	strh	r1, [r0]	@ movhi
	.loc 1 595 85 is_stmt 1
.LBB158:
.LBB159:
	.loc 2 946 3
	.syntax unified
@ 946 "d:\rtos\board\yd-stm32h7xxvx_classicv19\cmake-build-debug\_deps\stm32h7xx_cmsis_include\drivers\cmsis\include\cmsis_gcc.h" 1
	dsb 0xF
@ 0 "" 2
	.thumb
	.syntax unified
.LBE159:
.LBE158:
	.loc 1 555 21 is_stmt 0
	movs	r0, #0
.LVL37:
.LBB161:
.LBB160:
	.loc 2 947 1
	b	.L61
.LVL38:
.L72:
.LBE160:
.LBE161:
	.loc 1 599 7 is_stmt 1
	.loc 1 599 11
	.loc 1 599 62 is_stmt 0
	movs	r1, #255
	strh	r1, [r0]	@ movhi
	.loc 1 599 85 is_stmt 1
.LBB162:
.LBB163:
	.loc 2 946 3
	.syntax unified
@ 946 "d:\rtos\board\yd-stm32h7xxvx_classicv19\cmake-build-debug\_deps\stm32h7xx_cmsis_include\drivers\cmsis\include\cmsis_gcc.h" 1
	dsb 0xF
@ 0 "" 2
	.thumb
	.syntax unified
.LBE163:
.LBE162:
	.loc 1 555 21 is_stmt 0
	movs	r0, #0
.LVL39:
.LBB165:
.LBB164:
	.loc 2 947 1
	b	.L61
.LVL40:
.L62:
.LBE164:
.LBE165:
	.loc 1 561 12
	mov	r0, r2
.LVL41:
	bx	lr
.LVL42:
.L63:
	.loc 1 565 12
	movs	r0, #1
.LVL43:
	bx	lr
.LVL44:
.L64:
	.loc 1 615 12
	movs	r0, #1
.LVL45:
	bx	lr
.LVL46:
.L65:
	.loc 1 570 49
	movs	r0, #2
.LVL47:
	.loc 1 619 1
	bx	lr
	.cfi_endproc
.LFE341:
	.size	HAL_NOR_ReturnToReadMode, .-HAL_NOR_ReturnToReadMode
	.section	.text.HAL_NOR_Init,"ax",%progbits
	.align	1
	.global	HAL_NOR_Init
	.syntax unified
	.thumb
	.thumb_func
	.type	HAL_NOR_Init, %function
HAL_NOR_Init:
.LFB335:
	.loc 1 235 1 is_stmt 1
	.cfi_startproc
	@ args = 0, pretend = 0, frame = 0
	@ frame_needed = 0, uses_anonymous_args = 0
.LVL48:
	.loc 1 236 3
	.loc 1 237 3
	.loc 1 240 3
	.loc 1 240 6 is_stmt 0
	cmp	r0, #0
	beq	.L88
	.loc 1 235 1
	push	{r4, r5, r6, lr}
	.cfi_def_cfa_offset 16
	.cfi_offset 4, -16
	.cfi_offset 5, -12
	.cfi_offset 6, -8
	.cfi_offset 14, -4
	mov	r6, r1
	mov	r5, r2
	mov	r4, r0
	.loc 1 245 3 is_stmt 1
	.loc 1 245 11 is_stmt 0
	ldrb	r3, [r0, #69]	@ zero_extendqisi2
	.loc 1 245 6
	cbz	r3, .L96
.LVL49:
.L75:
	.loc 1 265 3 is_stmt 1
	.loc 1 265 9 is_stmt 0
	mov	r1, r4
	ldr	r0, [r1], #8
	bl	FMC_NORSRAM_Init
.LVL50:
	.loc 1 268 3 is_stmt 1
	.loc 1 268 9 is_stmt 0
	ldr	r2, [r4, #8]
	mov	r1, r6
	ldr	r0, [r4]
	bl	FMC_NORSRAM_Timing_Init
.LVL51:
	.loc 1 271 3 is_stmt 1
	.loc 1 271 9 is_stmt 0
	ldr	r3, [r4, #44]
	ldr	r2, [r4, #8]
	mov	r1, r5
	ldr	r0, [r4, #4]
	bl	FMC_NORSRAM_Extended_Timing_Init
.LVL52:
	.loc 1 275 3 is_stmt 1
	.loc 1 275 9 is_stmt 0
	ldr	r2, [r4]
	.loc 1 275 38
	ldr	r1, [r4, #8]
	.loc 1 275 26
	ldr	r3, [r2, r1, lsl #2]
	.loc 1 275 48
	orr	r3, r3, #1
	str	r3, [r2, r1, lsl #2]
	.loc 1 278 3 is_stmt 1
	.loc 1 278 17 is_stmt 0
	ldr	r3, [r4, #20]
	.loc 1 278 6
	cbnz	r3, .L76
	.loc 1 280 5 is_stmt 1
	.loc 1 280 26 is_stmt 0
	ldr	r3, .L102
	movs	r2, #0
	str	r2, [r3]
.L77:
	.loc 1 288 3 is_stmt 1
	.loc 1 288 91 is_stmt 0
	ldr	r2, .L102+4
	ldr	r3, [r2]
	.loc 1 288 95
	orr	r3, r3, #-2147483648
	str	r3, [r2]
	.loc 1 291 3 is_stmt 1
	.loc 1 291 15 is_stmt 0
	movs	r3, #1
	strb	r3, [r4, #69]
	.loc 1 294 3 is_stmt 1
	.loc 1 294 17 is_stmt 0
	ldr	r1, [r4, #8]
	.loc 1 294 6
	cbz	r1, .L89
	.loc 1 298 8 is_stmt 1
	.loc 1 298 11 is_stmt 0
	cmp	r1, #2
	beq	.L90
	.loc 1 302 8 is_stmt 1
	.loc 1 302 11 is_stmt 0
	cmp	r1, #4
	beq	.L97
	.loc 1 308 19
	mov	r3, #1811939328
	b	.L78
.LVL53:
.L96:
	.loc 1 248 5 is_stmt 1
	.loc 1 248 16 is_stmt 0
	strb	r3, [r0, #68]
	.loc 1 260 5 is_stmt 1
	bl	HAL_NOR_MspInit
.LVL54:
	b	.L75
.L76:
	.loc 1 284 5
	.loc 1 284 26 is_stmt 0
	ldr	r3, .L102
	movs	r2, #1
	str	r2, [r3]
	b	.L77
.L97:
	.loc 1 304 19
	mov	r3, #1744830464
	b	.L78
.L89:
	.loc 1 296 19
	mov	r3, #1610612736
.L78:
.LVL55:
	.loc 1 311 3 is_stmt 1
	.loc 1 311 17 is_stmt 0
	ldr	r2, [r4, #36]
	.loc 1 311 6
	cbz	r2, .L98
	.loc 1 321 5 is_stmt 1
	.loc 1 321 30 is_stmt 0
	ldr	r2, .L102
	ldr	r2, [r2]
	.loc 1 321 8
	cbnz	r2, .L80
	.loc 1 323 7 is_stmt 1
	.loc 1 323 11
	.loc 1 323 13 is_stmt 0
	cmp	r2, #1
	beq	.L99
	.loc 1 323 13 discriminator 2
	add	r2, r3, #170
.L82:
	.loc 1 323 217 discriminator 4
	movs	r1, #152
	strh	r1, [r2]	@ movhi
	.loc 1 323 240 is_stmt 1 discriminator 4
.LBB166:
.LBB167:
	.loc 2 946 3 discriminator 4
	.syntax unified
@ 946 "d:\rtos\board\yd-stm32h7xxvx_classicv19\cmake-build-debug\_deps\stm32h7xx_cmsis_include\drivers\cmsis\include\cmsis_gcc.h" 1
	dsb 0xF
@ 0 "" 2
	.thumb
	.syntax unified
.L83:
.LBE167:
.LBE166:
	.loc 1 328 9 discriminator 5
	.loc 1 331 5 discriminator 5
	.loc 1 331 83 is_stmt 0 discriminator 5
	ldr	r2, .L102
	ldr	r2, [r2]
	.loc 1 331 25 discriminator 5
	cmp	r2, #1
	beq	.L100
	.loc 1 331 25 discriminator 2
	adds	r3, r3, #19
.LVL56:
.L87:
	.loc 1 331 24 discriminator 4
	ldrh	r3, [r3]
	uxth	r3, r3
	.loc 1 331 22 discriminator 4
	str	r3, [r4, #72]
	.loc 1 333 5 is_stmt 1 discriminator 4
	.loc 1 333 14 is_stmt 0 discriminator 4
	mov	r0, r4
	bl	HAL_NOR_ReturnToReadMode
.LVL57:
.L74:
	.loc 1 337 1
	pop	{r4, r5, r6, pc}
.LVL58:
.L90:
	.loc 1 300 19
	mov	r3, #1677721600
	b	.L78
.LVL59:
.L98:
	.loc 1 313 5 is_stmt 1
	.loc 1 313 11 is_stmt 0
	ldr	r0, [r4]
	bl	FMC_NORSRAM_WriteOperation_Disable
.LVL60:
	.loc 1 316 5 is_stmt 1
	.loc 1 316 17 is_stmt 0
	movs	r3, #4
	strb	r3, [r4, #69]
	.loc 1 237 21
	movs	r0, #0
	b	.L74
.LVL61:
.L99:
	.loc 1 323 13 discriminator 1
	add	r2, r3, #340
	b	.L82
.L80:
	.loc 1 328 7 is_stmt 1
	.loc 1 328 11
	.loc 1 328 13 is_stmt 0
	cmp	r2, #1
	beq	.L101
	.loc 1 328 13 discriminator 2
	add	r2, r3, #85
.L85:
	.loc 1 328 217 discriminator 4
	movs	r1, #152
	strh	r1, [r2]	@ movhi
	.loc 1 328 240 is_stmt 1 discriminator 4
.LBB168:
.LBB169:
	.loc 2 946 3 discriminator 4
	.syntax unified
@ 946 "d:\rtos\board\yd-stm32h7xxvx_classicv19\cmake-build-debug\_deps\stm32h7xx_cmsis_include\drivers\cmsis\include\cmsis_gcc.h" 1
	dsb 0xF
@ 0 "" 2
	.loc 2 947 1 is_stmt 0 discriminator 4
	.thumb
	.syntax unified
	b	.L83
.L101:
.LBE169:
.LBE168:
	.loc 1 328 13 discriminator 1
	add	r2, r3, #170
	b	.L85
.L100:
	.loc 1 331 25 discriminator 1
	adds	r3, r3, #38
.LVL62:
	b	.L87
.LVL63:
.L88:
	.cfi_def_cfa_offset 0
	.cfi_restore 4
	.cfi_restore 5
	.cfi_restore 6
	.cfi_restore 14
	.loc 1 242 12
	movs	r0, #1
.LVL64:
	.loc 1 337 1
	bx	lr
.L103:
	.align	2
.L102:
	.word	uwNORMemoryDataWidth
	.word	1375748096
	.cfi_endproc
.LFE335:
	.size	HAL_NOR_Init, .-HAL_NOR_Init
	.section	.text.HAL_NOR_Read,"ax",%progbits
	.align	1
	.global	HAL_NOR_Read
	.syntax unified
	.thumb
	.thumb_func
	.type	HAL_NOR_Read, %function
HAL_NOR_Read:
.LFB342:
	.loc 1 630 1 is_stmt 1
	.cfi_startproc
	@ args = 0, pretend = 0, frame = 0
	@ frame_needed = 0, uses_anonymous_args = 0
.LVL65:
	.loc 1 631 3
	.loc 1 632 3
	.loc 1 633 3
	.loc 1 636 3
	.loc 1 636 9 is_stmt 0
	ldrb	ip, [r0, #69]	@ zero_extendqisi2
	uxtb	ip, ip
.LVL66:
	.loc 1 637 3 is_stmt 1
	.loc 1 637 6 is_stmt 0
	cmp	ip, #2
	beq	.L123
	mov	r3, r0
	.loc 1 641 8 is_stmt 1
	.loc 1 641 11 is_stmt 0
	cmp	ip, #4
	beq	.L124
	.loc 1 645 8 is_stmt 1
	.loc 1 645 11 is_stmt 0
	cmp	ip, #1
	bne	.L125
	.loc 1 648 5 is_stmt 1
	.loc 1 648 9
	.loc 1 648 18 is_stmt 0
	ldrb	r0, [r0, #68]	@ zero_extendqisi2
.LVL67:
	.loc 1 648 11
	cmp	r0, #1
	beq	.L126
	.loc 1 630 1 discriminator 2
	push	{r4, lr}
	.cfi_def_cfa_offset 8
	.cfi_offset 4, -8
	.cfi_offset 14, -4
	.loc 1 648 68 is_stmt 1 discriminator 2
	.loc 1 648 81 is_stmt 0 discriminator 2
	movs	r0, #1
	strb	r0, [r3, #68]
	.loc 1 648 7 is_stmt 1 discriminator 2
	.loc 1 651 5 discriminator 2
	.loc 1 651 17 is_stmt 0 discriminator 2
	movs	r0, #2
	strb	r0, [r3, #69]
	.loc 1 654 5 is_stmt 1 discriminator 2
	.loc 1 654 19 is_stmt 0 discriminator 2
	ldr	r0, [r3, #8]
	.loc 1 654 8 discriminator 2
	cbz	r0, .L127
	.loc 1 658 10 is_stmt 1
	.loc 1 658 13 is_stmt 0
	cmp	r0, #2
	beq	.L128
	.loc 1 662 10 is_stmt 1
	.loc 1 662 13 is_stmt 0
	cmp	r0, #4
	beq	.L135
	.loc 1 668 21
	mov	lr, #1811939328
	b	.L106
.L135:
	.loc 1 664 21
	mov	lr, #1744830464
	b	.L106
.L127:
	.loc 1 656 21
	mov	lr, #1610612736
.L106:
.LVL68:
	.loc 1 672 5 is_stmt 1
	.loc 1 672 13 is_stmt 0
	ldr	r0, [r3, #72]
	.loc 1 672 8
	cmp	r0, #2
	beq	.L136
	.loc 1 691 10 is_stmt 1
	.loc 1 691 13 is_stmt 0
	cmp	r0, #1
	beq	.L137
	.loc 1 698 14
	mov	r0, ip
	b	.L122
.LVL69:
.L128:
	.loc 1 660 21
	mov	lr, #1677721600
	b	.L106
.LVL70:
.L136:
	.loc 1 674 7 is_stmt 1
	.loc 1 674 32 is_stmt 0
	ldr	r0, .L144
	ldr	r0, [r0]
	.loc 1 674 10
	cbnz	r0, .L108
	.loc 1 676 9 is_stmt 1
	.loc 1 676 13
	.loc 1 676 15 is_stmt 0
	cmp	r0, #1
	beq	.L138
	.loc 1 676 15 discriminator 2
	addw	r0, lr, #2730
.L110:
	.loc 1 676 219 discriminator 4
	movs	r4, #170
	strh	r4, [r0]	@ movhi
	.loc 1 676 242 is_stmt 1 discriminator 4
.LBB170:
.LBB171:
	.loc 2 946 3 discriminator 4
	.syntax unified
@ 946 "d:\rtos\board\yd-stm32h7xxvx_classicv19\cmake-build-debug\_deps\stm32h7xx_cmsis_include\drivers\cmsis\include\cmsis_gcc.h" 1
	dsb 0xF
@ 0 "" 2
	.thumb
	.syntax unified
.LBE171:
.LBE170:
	.loc 1 676 11 discriminator 4
	.loc 1 678 9 discriminator 4
	.loc 1 678 13 discriminator 4
	.loc 1 678 84 is_stmt 0 discriminator 4
	ldr	r0, .L144
	ldr	r0, [r0]
	.loc 1 678 15 discriminator 4
	cmp	r0, #1
	beq	.L139
	.loc 1 678 15 discriminator 2
	addw	r4, lr, #1365
.L112:
	.loc 1 678 219 discriminator 4
	movs	r0, #85
	strh	r0, [r4]	@ movhi
	.loc 1 678 242 is_stmt 1 discriminator 4
.LBB172:
.LBB173:
	.loc 2 946 3 discriminator 4
	.syntax unified
@ 946 "d:\rtos\board\yd-stm32h7xxvx_classicv19\cmake-build-debug\_deps\stm32h7xx_cmsis_include\drivers\cmsis\include\cmsis_gcc.h" 1
	dsb 0xF
@ 0 "" 2
	.thumb
	.syntax unified
.LBE173:
.LBE172:
	.loc 1 678 11 discriminator 4
	.loc 1 680 9 discriminator 4
	.loc 1 680 13 discriminator 4
	.loc 1 680 84 is_stmt 0 discriminator 4
	ldr	r0, .L144
	ldr	r0, [r0]
	.loc 1 680 15 discriminator 4
	cmp	r0, #1
	beq	.L140
	.loc 1 680 15 discriminator 2
	addw	r0, lr, #2730
.L114:
	.loc 1 680 219 discriminator 4
	mov	lr, #240
.LVL71:
	strh	lr, [r0]	@ movhi
	.loc 1 680 242 is_stmt 1 discriminator 4
.LBB174:
.LBB175:
	.loc 2 946 3 discriminator 4
	.syntax unified
@ 946 "d:\rtos\board\yd-stm32h7xxvx_classicv19\cmake-build-debug\_deps\stm32h7xx_cmsis_include\drivers\cmsis\include\cmsis_gcc.h" 1
	dsb 0xF
@ 0 "" 2
	.thumb
	.syntax unified
.LBE175:
.LBE174:
	.loc 1 701 5 discriminator 4
	b	.L115
.LVL72:
.L138:
	.loc 1 676 15 is_stmt 0 discriminator 1
	movw	r0, #5460
	add	r0, r0, lr
	b	.L110
.L139:
	.loc 1 678 15 discriminator 1
	addw	r4, lr, #2730
	b	.L112
.L140:
	.loc 1 680 15 discriminator 1
	movw	r0, #5460
	add	r0, r0, lr
	b	.L114
.L108:
	.loc 1 685 9 is_stmt 1
	.loc 1 685 13
	.loc 1 685 15 is_stmt 0
	cmp	r0, #1
	beq	.L141
	.loc 1 685 15 discriminator 2
	addw	r4, lr, #1365
.L117:
	.loc 1 685 219 discriminator 4
	movs	r0, #170
	strh	r0, [r4]	@ movhi
	.loc 1 685 242 is_stmt 1 discriminator 4
.LBB176:
.LBB177:
	.loc 2 946 3 discriminator 4
	.syntax unified
@ 946 "d:\rtos\board\yd-stm32h7xxvx_classicv19\cmake-build-debug\_deps\stm32h7xx_cmsis_include\drivers\cmsis\include\cmsis_gcc.h" 1
	dsb 0xF
@ 0 "" 2
	.thumb
	.syntax unified
.LBE177:
.LBE176:
	.loc 1 685 11 discriminator 4
	.loc 1 686 9 discriminator 4
	.loc 1 686 13 discriminator 4
	.loc 1 686 84 is_stmt 0 discriminator 4
	ldr	r0, .L144
	ldr	r0, [r0]
	.loc 1 686 15 discriminator 4
	cmp	r0, #1
	beq	.L142
	.loc 1 686 15 discriminator 2
	addw	r4, lr, #682
.L119:
	.loc 1 686 219 discriminator 4
	movs	r0, #85
	strh	r0, [r4]	@ movhi
	.loc 1 686 242 is_stmt 1 discriminator 4
.LBB178:
.LBB179:
	.loc 2 946 3 discriminator 4
	.syntax unified
@ 946 "d:\rtos\board\yd-stm32h7xxvx_classicv19\cmake-build-debug\_deps\stm32h7xx_cmsis_include\drivers\cmsis\include\cmsis_gcc.h" 1
	dsb 0xF
@ 0 "" 2
	.thumb
	.syntax unified
.LBE179:
.LBE178:
	.loc 1 686 11 discriminator 4
	.loc 1 687 9 discriminator 4
	.loc 1 687 13 discriminator 4
	.loc 1 687 84 is_stmt 0 discriminator 4
	ldr	r0, .L144
	ldr	r0, [r0]
	.loc 1 687 15 discriminator 4
	cmp	r0, #1
	beq	.L143
	.loc 1 687 15 discriminator 2
	addw	lr, lr, #1365
.LVL73:
.L121:
	.loc 1 687 219 discriminator 4
	movs	r0, #240
	strh	r0, [lr]	@ movhi
	.loc 1 687 242 is_stmt 1 discriminator 4
.LBB180:
.LBB181:
	.loc 2 946 3 discriminator 4
	.syntax unified
@ 946 "d:\rtos\board\yd-stm32h7xxvx_classicv19\cmake-build-debug\_deps\stm32h7xx_cmsis_include\drivers\cmsis\include\cmsis_gcc.h" 1
	dsb 0xF
@ 0 "" 2
	.thumb
	.syntax unified
.LBE181:
.LBE180:
	.loc 1 701 5 discriminator 4
	b	.L115
.LVL74:
.L141:
	.loc 1 685 15 is_stmt 0 discriminator 1
	addw	r4, lr, #2730
	b	.L117
.L142:
	.loc 1 686 15 discriminator 1
	addw	r4, lr, #1364
	b	.L119
.L143:
	.loc 1 687 15 discriminator 1
	addw	lr, lr, #2730
.LVL75:
	b	.L121
.LVL76:
.L137:
	.loc 1 693 7 is_stmt 1
	.loc 1 693 11
	.loc 1 693 57 is_stmt 0
	movs	r0, #255
	strh	r0, [r1]	@ movhi
	.loc 1 693 80 is_stmt 1
.LBB182:
.LBB183:
	.loc 2 946 3
	.syntax unified
@ 946 "d:\rtos\board\yd-stm32h7xxvx_classicv19\cmake-build-debug\_deps\stm32h7xx_cmsis_include\drivers\cmsis\include\cmsis_gcc.h" 1
	dsb 0xF
@ 0 "" 2
	.thumb
	.syntax unified
.LBE183:
.LBE182:
	.loc 1 701 5
.LVL77:
.L115:
	.loc 1 704 7
	.loc 1 704 27 is_stmt 0
	ldr	r1, [r1]
.LVL78:
	.loc 1 704 14
	strh	r1, [r2]	@ movhi
	movs	r0, #0
.L122:
.LVL79:
	.loc 1 708 5 is_stmt 1
	.loc 1 708 17 is_stmt 0
	strb	ip, [r3, #69]
	.loc 1 711 5 is_stmt 1
	.loc 1 711 9
	.loc 1 711 22 is_stmt 0
	movs	r2, #0
.LVL80:
	strb	r2, [r3, #68]
	.loc 1 711 7 is_stmt 1
	.loc 1 718 3
	.loc 1 719 1 is_stmt 0
	pop	{r4, pc}
.LVL81:
.L123:
	.cfi_def_cfa_offset 0
	.cfi_restore 4
	.cfi_restore 14
	.loc 1 639 12
	mov	r0, ip
.LVL82:
	bx	lr
.LVL83:
.L124:
	.loc 1 643 12
	movs	r0, #1
.LVL84:
	bx	lr
.LVL85:
.L125:
	.loc 1 715 12
	movs	r0, #1
.LVL86:
	bx	lr
.L126:
	.loc 1 648 49
	movs	r0, #2
	.loc 1 719 1
	bx	lr
.L145:
	.align	2
.L144:
	.word	uwNORMemoryDataWidth
	.cfi_endproc
.LFE342:
	.size	HAL_NOR_Read, .-HAL_NOR_Read
	.section	.text.HAL_NOR_Program,"ax",%progbits
	.align	1
	.global	HAL_NOR_Program
	.syntax unified
	.thumb
	.thumb_func
	.type	HAL_NOR_Program, %function
HAL_NOR_Program:
.LFB343:
	.loc 1 730 1 is_stmt 1
	.cfi_startproc
	@ args = 0, pretend = 0, frame = 0
	@ frame_needed = 0, uses_anonymous_args = 0
.LVL87:
	mov	ip, r0
	.loc 1 731 3
	.loc 1 732 3
.LVL88:
	.loc 1 735 3
	.loc 1 735 11 is_stmt 0
	ldrb	r3, [r0, #69]	@ zero_extendqisi2
	uxtb	r0, r3
.LVL89:
	.loc 1 735 6
	cmp	r0, #2
	beq	.L171
	.loc 1 739 8 is_stmt 1
	.loc 1 739 16 is_stmt 0
	ldrb	r3, [ip, #69]	@ zero_extendqisi2
	uxtb	r0, r3
	.loc 1 739 11
	cmp	r0, #1
	bne	.L165
	.loc 1 742 5 is_stmt 1
	.loc 1 742 9
	.loc 1 742 18 is_stmt 0
	ldrb	r3, [ip, #68]	@ zero_extendqisi2
	.loc 1 742 11
	cmp	r3, #1
	beq	.L166
	.loc 1 730 1 discriminator 2
	push	{lr}
	.cfi_def_cfa_offset 4
	.cfi_offset 14, -4
	.loc 1 742 68 is_stmt 1 discriminator 2
	.loc 1 742 81 is_stmt 0 discriminator 2
	movs	r3, #1
	strb	r3, [ip, #68]
	.loc 1 742 7 is_stmt 1 discriminator 2
	.loc 1 745 5 discriminator 2
	.loc 1 745 17 is_stmt 0 discriminator 2
	movs	r3, #2
	strb	r3, [ip, #69]
	.loc 1 748 5 is_stmt 1 discriminator 2
	.loc 1 748 19 is_stmt 0 discriminator 2
	ldr	r3, [ip, #8]
	.loc 1 748 8 discriminator 2
	cbz	r3, .L167
	.loc 1 752 10 is_stmt 1
	.loc 1 752 13 is_stmt 0
	cmp	r3, #2
	beq	.L168
	.loc 1 756 10 is_stmt 1
	.loc 1 756 13 is_stmt 0
	cmp	r3, #4
	beq	.L174
	.loc 1 762 21
	mov	lr, #1811939328
	b	.L148
.L174:
	.loc 1 758 21
	mov	lr, #1744830464
	b	.L148
.L167:
	.loc 1 750 21
	mov	lr, #1610612736
.L148:
.LVL90:
	.loc 1 766 5 is_stmt 1
	.loc 1 766 13 is_stmt 0
	ldr	r3, [ip, #72]
	.loc 1 766 8
	cmp	r3, #2
	beq	.L175
	.loc 1 784 10 is_stmt 1
	.loc 1 784 13 is_stmt 0
	cmp	r3, #1
	bne	.L164
	.loc 1 786 7 is_stmt 1
	.loc 1 786 11
	.loc 1 786 57 is_stmt 0
	movs	r3, #64
	strh	r3, [r1]	@ movhi
	.loc 1 786 80 is_stmt 1
.LBB184:
.LBB185:
	.loc 2 946 3
	.syntax unified
@ 946 "d:\rtos\board\yd-stm32h7xxvx_classicv19\cmake-build-debug\_deps\stm32h7xx_cmsis_include\drivers\cmsis\include\cmsis_gcc.h" 1
	dsb 0xF
@ 0 "" 2
	.thumb
	.syntax unified
.LBE185:
.LBE184:
	.loc 1 794 5
.LVL91:
.L157:
	.loc 1 797 7
	.loc 1 797 11
	.loc 1 797 60 is_stmt 0
	ldrh	r3, [r2]
	.loc 1 797 57
	strh	r3, [r1]	@ movhi
	.loc 1 797 70 is_stmt 1
.LBB186:
.LBB187:
	.loc 2 946 3
	.syntax unified
@ 946 "d:\rtos\board\yd-stm32h7xxvx_classicv19\cmake-build-debug\_deps\stm32h7xx_cmsis_include\drivers\cmsis\include\cmsis_gcc.h" 1
	dsb 0xF
@ 0 "" 2
	.loc 2 947 1 is_stmt 0
	.thumb
	.syntax unified
	movs	r0, #0
.L164:
.LVL92:
.LBE187:
.LBE186:
	.loc 1 797 9 is_stmt 1 discriminator 1
	.loc 1 801 5 discriminator 1
	.loc 1 801 17 is_stmt 0 discriminator 1
	movs	r3, #1
	strb	r3, [ip, #69]
	.loc 1 804 5 is_stmt 1 discriminator 1
	.loc 1 804 9 discriminator 1
	.loc 1 804 22 is_stmt 0 discriminator 1
	movs	r3, #0
	strb	r3, [ip, #68]
	.loc 1 804 7 is_stmt 1 discriminator 1
	.loc 1 811 3 discriminator 1
	.loc 1 812 1 is_stmt 0 discriminator 1
	ldr	pc, [sp], #4
.LVL93:
.L168:
	.loc 1 754 21
	mov	lr, #1677721600
	b	.L148
.LVL94:
.L175:
	.loc 1 768 7 is_stmt 1
	.loc 1 768 32 is_stmt 0
	ldr	r3, .L182
	ldr	r3, [r3]
	.loc 1 768 10
	cbnz	r3, .L150
	.loc 1 770 9 is_stmt 1
	.loc 1 770 13
	.loc 1 770 15 is_stmt 0
	cmp	r3, #1
	beq	.L176
	.loc 1 770 15 discriminator 2
	addw	r3, lr, #2730
.L152:
	.loc 1 770 219 discriminator 4
	movs	r0, #170
	strh	r0, [r3]	@ movhi
	.loc 1 770 242 is_stmt 1 discriminator 4
.LBB188:
.LBB189:
	.loc 2 946 3 discriminator 4
	.syntax unified
@ 946 "d:\rtos\board\yd-stm32h7xxvx_classicv19\cmake-build-debug\_deps\stm32h7xx_cmsis_include\drivers\cmsis\include\cmsis_gcc.h" 1
	dsb 0xF
@ 0 "" 2
	.thumb
	.syntax unified
.LBE189:
.LBE188:
	.loc 1 770 11 discriminator 4
	.loc 1 772 9 discriminator 4
	.loc 1 772 13 discriminator 4
	.loc 1 772 84 is_stmt 0 discriminator 4
	ldr	r3, .L182
	ldr	r3, [r3]
	.loc 1 772 15 discriminator 4
	cmp	r3, #1
	beq	.L177
	.loc 1 772 15 discriminator 2
	addw	r3, lr, #1365
.L154:
	.loc 1 772 219 discriminator 4
	movs	r0, #85
	strh	r0, [r3]	@ movhi
	.loc 1 772 242 is_stmt 1 discriminator 4
.LBB190:
.LBB191:
	.loc 2 946 3 discriminator 4
	.syntax unified
@ 946 "d:\rtos\board\yd-stm32h7xxvx_classicv19\cmake-build-debug\_deps\stm32h7xx_cmsis_include\drivers\cmsis\include\cmsis_gcc.h" 1
	dsb 0xF
@ 0 "" 2
	.thumb
	.syntax unified
.LBE191:
.LBE190:
	.loc 1 772 11 discriminator 4
	.loc 1 774 9 discriminator 4
	.loc 1 774 13 discriminator 4
	.loc 1 774 84 is_stmt 0 discriminator 4
	ldr	r3, .L182
	ldr	r3, [r3]
	.loc 1 774 15 discriminator 4
	cmp	r3, #1
	beq	.L178
	.loc 1 774 15 discriminator 2
	addw	r3, lr, #2730
.L156:
	.loc 1 774 219 discriminator 4
	movs	r0, #160
	strh	r0, [r3]	@ movhi
	.loc 1 774 242 is_stmt 1 discriminator 4
.LBB192:
.LBB193:
	.loc 2 946 3 discriminator 4
	.syntax unified
@ 946 "d:\rtos\board\yd-stm32h7xxvx_classicv19\cmake-build-debug\_deps\stm32h7xx_cmsis_include\drivers\cmsis\include\cmsis_gcc.h" 1
	dsb 0xF
@ 0 "" 2
	.thumb
	.syntax unified
.LBE193:
.LBE192:
	.loc 1 794 5 discriminator 4
	b	.L157
.L176:
	.loc 1 770 15 is_stmt 0 discriminator 1
	movw	r3, #5460
	add	r3, r3, lr
	b	.L152
.L177:
	.loc 1 772 15 discriminator 1
	addw	r3, lr, #2730
	b	.L154
.L178:
	.loc 1 774 15 discriminator 1
	movw	r3, #5460
	add	r3, r3, lr
	b	.L156
.L150:
	.loc 1 779 9 is_stmt 1
	.loc 1 779 13
	.loc 1 779 15 is_stmt 0
	cmp	r3, #1
	beq	.L179
	.loc 1 779 15 discriminator 2
	addw	r3, lr, #1365
.L159:
	.loc 1 779 219 discriminator 4
	movs	r0, #170
	strh	r0, [r3]	@ movhi
	.loc 1 779 242 is_stmt 1 discriminator 4
.LBB194:
.LBB195:
	.loc 2 946 3 discriminator 4
	.syntax unified
@ 946 "d:\rtos\board\yd-stm32h7xxvx_classicv19\cmake-build-debug\_deps\stm32h7xx_cmsis_include\drivers\cmsis\include\cmsis_gcc.h" 1
	dsb 0xF
@ 0 "" 2
	.thumb
	.syntax unified
.LBE195:
.LBE194:
	.loc 1 779 11 discriminator 4
	.loc 1 780 9 discriminator 4
	.loc 1 780 13 discriminator 4
	.loc 1 780 84 is_stmt 0 discriminator 4
	ldr	r3, .L182
	ldr	r3, [r3]
	.loc 1 780 15 discriminator 4
	cmp	r3, #1
	beq	.L180
	.loc 1 780 15 discriminator 2
	addw	r3, lr, #682
.L161:
	.loc 1 780 219 discriminator 4
	movs	r0, #85
	strh	r0, [r3]	@ movhi
	.loc 1 780 242 is_stmt 1 discriminator 4
.LBB196:
.LBB197:
	.loc 2 946 3 discriminator 4
	.syntax unified
@ 946 "d:\rtos\board\yd-stm32h7xxvx_classicv19\cmake-build-debug\_deps\stm32h7xx_cmsis_include\drivers\cmsis\include\cmsis_gcc.h" 1
	dsb 0xF
@ 0 "" 2
	.thumb
	.syntax unified
.LBE197:
.LBE196:
	.loc 1 780 11 discriminator 4
	.loc 1 781 9 discriminator 4
	.loc 1 781 13 discriminator 4
	.loc 1 781 84 is_stmt 0 discriminator 4
	ldr	r3, .L182
	ldr	r3, [r3]
	.loc 1 781 15 discriminator 4
	cmp	r3, #1
	beq	.L181
	.loc 1 781 15 discriminator 2
	addw	lr, lr, #1365
.LVL95:
.L163:
	.loc 1 781 219 discriminator 4
	movs	r3, #160
	strh	r3, [lr]	@ movhi
	.loc 1 781 242 is_stmt 1 discriminator 4
.LBB198:
.LBB199:
	.loc 2 946 3 discriminator 4
	.syntax unified
@ 946 "d:\rtos\board\yd-stm32h7xxvx_classicv19\cmake-build-debug\_deps\stm32h7xx_cmsis_include\drivers\cmsis\include\cmsis_gcc.h" 1
	dsb 0xF
@ 0 "" 2
	.thumb
	.syntax unified
.LBE199:
.LBE198:
	.loc 1 794 5 discriminator 4
	b	.L157
.LVL96:
.L179:
	.loc 1 779 15 is_stmt 0 discriminator 1
	addw	r3, lr, #2730
	b	.L159
.L180:
	.loc 1 780 15 discriminator 1
	addw	r3, lr, #1364
	b	.L161
.L181:
	.loc 1 781 15 discriminator 1
	addw	lr, lr, #2730
.LVL97:
	b	.L163
.LVL98:
.L165:
	.cfi_def_cfa_offset 0
	.cfi_restore 14
	.loc 1 808 12
	movs	r0, #1
	bx	lr
.L166:
	.loc 1 742 49
	movs	r0, #2
	bx	lr
.L171:
	.loc 1 812 1
	bx	lr
.L183:
	.align	2
.L182:
	.word	uwNORMemoryDataWidth
	.cfi_endproc
.LFE343:
	.size	HAL_NOR_Program, .-HAL_NOR_Program
	.section	.text.HAL_NOR_ReadBuffer,"ax",%progbits
	.align	1
	.global	HAL_NOR_ReadBuffer
	.syntax unified
	.thumb
	.thumb_func
	.type	HAL_NOR_ReadBuffer, %function
HAL_NOR_ReadBuffer:
.LFB344:
	.loc 1 825 1 is_stmt 1
	.cfi_startproc
	@ args = 0, pretend = 0, frame = 0
	@ frame_needed = 0, uses_anonymous_args = 0
.LVL99:
	.loc 1 826 3
	.loc 1 827 3
	.loc 1 828 3
	.loc 1 829 3
	.loc 1 830 3
	.loc 1 831 3
	.loc 1 834 3
	.loc 1 834 9 is_stmt 0
	ldrb	ip, [r0, #69]	@ zero_extendqisi2
	uxtb	ip, ip
.LVL100:
	.loc 1 835 3 is_stmt 1
	.loc 1 835 6 is_stmt 0
	cmp	ip, #2
	beq	.L205
	.loc 1 825 1
	push	{r4, r5, lr}
	.cfi_def_cfa_offset 12
	.cfi_offset 4, -12
	.cfi_offset 5, -8
	.cfi_offset 14, -4
	mov	r4, r0
	.loc 1 839 8 is_stmt 1
	.loc 1 839 11 is_stmt 0
	cmp	ip, #4
	beq	.L206
	.loc 1 843 8 is_stmt 1
	.loc 1 843 11 is_stmt 0
	cmp	ip, #1
	bne	.L207
	.loc 1 846 5 is_stmt 1
	.loc 1 846 9
	.loc 1 846 18 is_stmt 0
	ldrb	r0, [r0, #68]	@ zero_extendqisi2
.LVL101:
	.loc 1 846 11
	cmp	r0, #1
	beq	.L208
	.loc 1 846 68 is_stmt 1 discriminator 2
	.loc 1 846 81 is_stmt 0 discriminator 2
	movs	r0, #1
	strb	r0, [r4, #68]
	.loc 1 846 7 is_stmt 1 discriminator 2
	.loc 1 849 5 discriminator 2
	.loc 1 849 17 is_stmt 0 discriminator 2
	movs	r0, #2
	strb	r0, [r4, #69]
	.loc 1 852 5 is_stmt 1 discriminator 2
	.loc 1 852 19 is_stmt 0 discriminator 2
	ldr	r0, [r4, #8]
	.loc 1 852 8 discriminator 2
	cbz	r0, .L209
	.loc 1 856 10 is_stmt 1
	.loc 1 856 13 is_stmt 0
	cmp	r0, #2
	beq	.L210
	.loc 1 860 10 is_stmt 1
	.loc 1 860 13 is_stmt 0
	cmp	r0, #4
	beq	.L217
	.loc 1 866 21
	mov	lr, #1811939328
	b	.L186
.L217:
	.loc 1 862 21
	mov	lr, #1744830464
	b	.L186
.L209:
	.loc 1 854 21
	mov	lr, #1610612736
.L186:
.LVL102:
	.loc 1 870 5 is_stmt 1
	.loc 1 870 13 is_stmt 0
	ldr	r0, [r4, #72]
	.loc 1 870 8
	cmp	r0, #2
	beq	.L218
	.loc 1 889 10 is_stmt 1
	.loc 1 889 13 is_stmt 0
	cmp	r0, #1
	beq	.L219
	.loc 1 896 14
	mov	r0, ip
	b	.L203
.LVL103:
.L210:
	.loc 1 858 21
	mov	lr, #1677721600
	b	.L186
.LVL104:
.L218:
	.loc 1 872 7 is_stmt 1
	.loc 1 872 32 is_stmt 0
	ldr	r0, .L226
	ldr	r0, [r0]
	.loc 1 872 10
	cbnz	r0, .L188
	.loc 1 874 9 is_stmt 1
	.loc 1 874 13
	.loc 1 874 15 is_stmt 0
	cmp	r0, #1
	beq	.L220
	.loc 1 874 15 discriminator 2
	addw	r0, lr, #2730
.L190:
	.loc 1 874 219 discriminator 4
	movs	r5, #170
	strh	r5, [r0]	@ movhi
	.loc 1 874 242 is_stmt 1 discriminator 4
.LBB200:
.LBB201:
	.loc 2 946 3 discriminator 4
	.syntax unified
@ 946 "d:\rtos\board\yd-stm32h7xxvx_classicv19\cmake-build-debug\_deps\stm32h7xx_cmsis_include\drivers\cmsis\include\cmsis_gcc.h" 1
	dsb 0xF
@ 0 "" 2
	.thumb
	.syntax unified
.LBE201:
.LBE200:
	.loc 1 874 11 discriminator 4
	.loc 1 876 9 discriminator 4
	.loc 1 876 13 discriminator 4
	.loc 1 876 84 is_stmt 0 discriminator 4
	ldr	r0, .L226
	ldr	r0, [r0]
	.loc 1 876 15 discriminator 4
	cmp	r0, #1
	beq	.L221
	.loc 1 876 15 discriminator 2
	addw	r5, lr, #1365
.L192:
	.loc 1 876 219 discriminator 4
	movs	r0, #85
	strh	r0, [r5]	@ movhi
	.loc 1 876 242 is_stmt 1 discriminator 4
.LBB202:
.LBB203:
	.loc 2 946 3 discriminator 4
	.syntax unified
@ 946 "d:\rtos\board\yd-stm32h7xxvx_classicv19\cmake-build-debug\_deps\stm32h7xx_cmsis_include\drivers\cmsis\include\cmsis_gcc.h" 1
	dsb 0xF
@ 0 "" 2
	.thumb
	.syntax unified
.LBE203:
.LBE202:
	.loc 1 876 11 discriminator 4
	.loc 1 878 9 discriminator 4
	.loc 1 878 13 discriminator 4
	.loc 1 878 84 is_stmt 0 discriminator 4
	ldr	r0, .L226
	ldr	r0, [r0]
	.loc 1 878 15 discriminator 4
	cmp	r0, #1
	beq	.L222
	.loc 1 878 15 discriminator 2
	addw	r0, lr, #2730
.L194:
	.loc 1 878 219 discriminator 4
	mov	lr, #240
.LVL105:
	strh	lr, [r0]	@ movhi
	.loc 1 878 242 is_stmt 1 discriminator 4
.LBB204:
.LBB205:
	.loc 2 946 3 discriminator 4
	.syntax unified
@ 946 "d:\rtos\board\yd-stm32h7xxvx_classicv19\cmake-build-debug\_deps\stm32h7xx_cmsis_include\drivers\cmsis\include\cmsis_gcc.h" 1
	dsb 0xF
@ 0 "" 2
	.loc 2 947 1 is_stmt 0 discriminator 4
	.thumb
	.syntax unified
	b	.L195
.LVL106:
.L220:
.LBE205:
.LBE204:
	.loc 1 874 15 discriminator 1
	movw	r0, #5460
	add	r0, r0, lr
	b	.L190
.L221:
	.loc 1 876 15 discriminator 1
	addw	r5, lr, #2730
	b	.L192
.L222:
	.loc 1 878 15 discriminator 1
	movw	r0, #5460
	add	r0, r0, lr
	b	.L194
.L188:
	.loc 1 883 9 is_stmt 1
	.loc 1 883 13
	.loc 1 883 15 is_stmt 0
	cmp	r0, #1
	beq	.L223
	.loc 1 883 15 discriminator 2
	addw	r5, lr, #1365
.L197:
	.loc 1 883 219 discriminator 4
	movs	r0, #170
	strh	r0, [r5]	@ movhi
	.loc 1 883 242 is_stmt 1 discriminator 4
.LBB206:
.LBB207:
	.loc 2 946 3 discriminator 4
	.syntax unified
@ 946 "d:\rtos\board\yd-stm32h7xxvx_classicv19\cmake-build-debug\_deps\stm32h7xx_cmsis_include\drivers\cmsis\include\cmsis_gcc.h" 1
	dsb 0xF
@ 0 "" 2
	.thumb
	.syntax unified
.LBE207:
.LBE206:
	.loc 1 883 11 discriminator 4
	.loc 1 884 9 discriminator 4
	.loc 1 884 13 discriminator 4
	.loc 1 884 84 is_stmt 0 discriminator 4
	ldr	r0, .L226
	ldr	r0, [r0]
	.loc 1 884 15 discriminator 4
	cmp	r0, #1
	beq	.L224
	.loc 1 884 15 discriminator 2
	addw	r5, lr, #682
.L199:
	.loc 1 884 219 discriminator 4
	movs	r0, #85
	strh	r0, [r5]	@ movhi
	.loc 1 884 242 is_stmt 1 discriminator 4
.LBB208:
.LBB209:
	.loc 2 946 3 discriminator 4
	.syntax unified
@ 946 "d:\rtos\board\yd-stm32h7xxvx_classicv19\cmake-build-debug\_deps\stm32h7xx_cmsis_include\drivers\cmsis\include\cmsis_gcc.h" 1
	dsb 0xF
@ 0 "" 2
	.thumb
	.syntax unified
.LBE209:
.LBE208:
	.loc 1 884 11 discriminator 4
	.loc 1 885 9 discriminator 4
	.loc 1 885 13 discriminator 4
	.loc 1 885 84 is_stmt 0 discriminator 4
	ldr	r0, .L226
	ldr	r0, [r0]
	.loc 1 885 15 discriminator 4
	cmp	r0, #1
	beq	.L225
	.loc 1 885 15 discriminator 2
	addw	lr, lr, #1365
.LVL107:
.L201:
	.loc 1 885 219 discriminator 4
	movs	r0, #240
	strh	r0, [lr]	@ movhi
	.loc 1 885 242 is_stmt 1 discriminator 4
.LBB210:
.LBB211:
	.loc 2 946 3 discriminator 4
	.syntax unified
@ 946 "d:\rtos\board\yd-stm32h7xxvx_classicv19\cmake-build-debug\_deps\stm32h7xx_cmsis_include\drivers\cmsis\include\cmsis_gcc.h" 1
	dsb 0xF
@ 0 "" 2
	.loc 2 947 1 is_stmt 0 discriminator 4
	.thumb
	.syntax unified
	b	.L195
.LVL108:
.L223:
.LBE211:
.LBE210:
	.loc 1 883 15 discriminator 1
	addw	r5, lr, #2730
	b	.L197
.L224:
	.loc 1 884 15 discriminator 1
	addw	r5, lr, #1364
	b	.L199
.L225:
	.loc 1 885 15 discriminator 1
	addw	lr, lr, #2730
.LVL109:
	b	.L201
.LVL110:
.L219:
	.loc 1 891 7 is_stmt 1
	.loc 1 891 11
	.loc 1 891 62 is_stmt 0
	movs	r0, #255
	strh	r0, [lr]	@ movhi
	.loc 1 891 85 is_stmt 1
.LBB212:
.LBB213:
	.loc 2 946 3
	.syntax unified
@ 946 "d:\rtos\board\yd-stm32h7xxvx_classicv19\cmake-build-debug\_deps\stm32h7xx_cmsis_include\drivers\cmsis\include\cmsis_gcc.h" 1
	dsb 0xF
@ 0 "" 2
	.loc 2 947 1 is_stmt 0
	.thumb
	.syntax unified
	b	.L195
.LVL111:
.L204:
.LBE213:
.LBE212:
	.loc 1 904 9 is_stmt 1
	.loc 1 904 17 is_stmt 0
	ldrh	lr, [r1], #2
.LVL112:
	.loc 1 904 15
	strh	lr, [r2], #2	@ movhi
.LVL113:
	.loc 1 905 9 is_stmt 1
	.loc 1 906 9
	.loc 1 907 9
	.loc 1 907 13 is_stmt 0
	subs	r3, r3, #1
.LVL114:
.L195:
	.loc 1 902 19 is_stmt 1
	cmp	r3, #0
	bne	.L204
	movs	r0, #0
.L203:
	.loc 1 912 5
	.loc 1 912 17 is_stmt 0
	strb	ip, [r4, #69]
	.loc 1 915 5 is_stmt 1
	.loc 1 915 9
	.loc 1 915 22 is_stmt 0
	movs	r3, #0
.LVL115:
	strb	r3, [r4, #68]
	.loc 1 915 7 is_stmt 1
	.loc 1 922 3
	.loc 1 922 10 is_stmt 0
	b	.L185
.LVL116:
.L205:
	.cfi_def_cfa_offset 0
	.cfi_restore 4
	.cfi_restore 5
	.cfi_restore 14
	.loc 1 837 12
	mov	r0, ip
.LVL117:
	.loc 1 923 1
	bx	lr
.LVL118:
.L206:
	.cfi_def_cfa_offset 12
	.cfi_offset 4, -12
	.cfi_offset 5, -8
	.cfi_offset 14, -4
	.loc 1 841 12
	movs	r0, #1
.LVL119:
	b	.L185
.LVL120:
.L207:
	.loc 1 919 12
	movs	r0, #1
.LVL121:
.L185:
	.loc 1 923 1
	pop	{r4, r5, pc}
.LVL122:
.L208:
	.loc 1 846 49
	movs	r0, #2
	b	.L185
.L227:
	.align	2
.L226:
	.word	uwNORMemoryDataWidth
	.cfi_endproc
.LFE344:
	.size	HAL_NOR_ReadBuffer, .-HAL_NOR_ReadBuffer
	.section	.text.HAL_NOR_ProgramBuffer,"ax",%progbits
	.align	1
	.global	HAL_NOR_ProgramBuffer
	.syntax unified
	.thumb
	.thumb_func
	.type	HAL_NOR_ProgramBuffer, %function
HAL_NOR_ProgramBuffer:
.LFB345:
	.loc 1 936 1 is_stmt 1
	.cfi_startproc
	@ args = 0, pretend = 0, frame = 0
	@ frame_needed = 0, uses_anonymous_args = 0
.LVL123:
	push	{r4, r5, lr}
	.cfi_def_cfa_offset 12
	.cfi_offset 4, -12
	.cfi_offset 5, -8
	.cfi_offset 14, -4
	mov	r4, r0
	.loc 1 937 3
	.loc 1 938 3
	.loc 1 939 3
.LVL124:
	.loc 1 940 3
	.loc 1 941 3
	.loc 1 944 3
	.loc 1 944 11 is_stmt 0
	ldrb	ip, [r0, #69]	@ zero_extendqisi2
	uxtb	r0, ip
.LVL125:
	.loc 1 944 6
	cmp	r0, #2
	beq	.L229
	.loc 1 948 8 is_stmt 1
	.loc 1 948 16 is_stmt 0
	ldrb	r0, [r4, #69]	@ zero_extendqisi2
	uxtb	r0, r0
	.loc 1 948 11
	cmp	r0, #1
	bne	.L247
	.loc 1 951 5 is_stmt 1
	.loc 1 951 9
	.loc 1 951 18 is_stmt 0
	ldrb	r5, [r4, #68]	@ zero_extendqisi2
	.loc 1 951 11
	cmp	r5, #1
	beq	.L248
	.loc 1 951 68 is_stmt 1 discriminator 2
	.loc 1 951 81 is_stmt 0 discriminator 2
	movs	r5, #1
	strb	r5, [r4, #68]
	.loc 1 951 7 is_stmt 1 discriminator 2
	.loc 1 954 5 discriminator 2
	.loc 1 954 17 is_stmt 0 discriminator 2
	movs	r5, #2
	strb	r5, [r4, #69]
	.loc 1 957 5 is_stmt 1 discriminator 2
	.loc 1 957 19 is_stmt 0 discriminator 2
	ldr	r5, [r4, #8]
	.loc 1 957 8 discriminator 2
	cbz	r5, .L249
	.loc 1 961 10 is_stmt 1
	.loc 1 961 13 is_stmt 0
	cmp	r5, #2
	beq	.L250
	.loc 1 965 10 is_stmt 1
	.loc 1 965 13 is_stmt 0
	cmp	r5, #4
	beq	.L253
	.loc 1 971 21
	mov	ip, #1811939328
	b	.L230
.L253:
	.loc 1 967 21
	mov	ip, #1744830464
	b	.L230
.L249:
	.loc 1 959 21
	mov	ip, #1610612736
.L230:
.LVL126:
	.loc 1 975 5 is_stmt 1
	.loc 1 975 51 is_stmt 0
	add	r1, r1, ip
.LVL127:
	.loc 1 976 5 is_stmt 1
	.loc 1 976 81 is_stmt 0
	add	lr, r3, #-1
	.loc 1 976 59
	add	lr, r1, lr, lsl #1
.LVL128:
	.loc 1 978 5 is_stmt 1
	.loc 1 978 13 is_stmt 0
	ldr	r5, [r4, #72]
	.loc 1 978 8
	cmp	r5, #2
	beq	.L254
	.loc 1 998 10 is_stmt 1
	.loc 1 998 13 is_stmt 0
	cmp	r5, #1
	beq	.L255
.LVL129:
.L243:
	.loc 1 1027 11 is_stmt 1 discriminator 1
	.loc 1 1032 5 discriminator 1
	.loc 1 1032 17 is_stmt 0 discriminator 1
	movs	r3, #1
	strb	r3, [r4, #69]
	.loc 1 1035 5 is_stmt 1 discriminator 1
	.loc 1 1035 9 discriminator 1
	.loc 1 1035 22 is_stmt 0 discriminator 1
	movs	r3, #0
	strb	r3, [r4, #68]
	.loc 1 1035 7 is_stmt 1 discriminator 1
	.loc 1 1042 3 discriminator 1
	.loc 1 1042 10 is_stmt 0 discriminator 1
	b	.L229
.LVL130:
.L250:
	.loc 1 963 21
	mov	ip, #1677721600
	b	.L230
.LVL131:
.L254:
	.loc 1 980 7 is_stmt 1
	.loc 1 980 32 is_stmt 0
	ldr	r0, .L261
	ldr	r0, [r0]
	.loc 1 980 10
	cbnz	r0, .L232
	.loc 1 983 9 is_stmt 1
	.loc 1 983 13
	.loc 1 983 15 is_stmt 0
	cmp	r0, #1
	beq	.L256
	.loc 1 983 15 discriminator 2
	addw	r0, ip, #2730
.L234:
	.loc 1 983 219 discriminator 4
	movs	r5, #170
	strh	r5, [r0]	@ movhi
	.loc 1 983 242 is_stmt 1 discriminator 4
.LBB214:
.LBB215:
	.loc 2 946 3 discriminator 4
	.syntax unified
@ 946 "d:\rtos\board\yd-stm32h7xxvx_classicv19\cmake-build-debug\_deps\stm32h7xx_cmsis_include\drivers\cmsis\include\cmsis_gcc.h" 1
	dsb 0xF
@ 0 "" 2
	.thumb
	.syntax unified
.LBE215:
.LBE214:
	.loc 1 983 11 discriminator 4
	.loc 1 985 9 discriminator 4
	.loc 1 985 13 discriminator 4
	.loc 1 985 84 is_stmt 0 discriminator 4
	ldr	r0, .L261
	ldr	r0, [r0]
	.loc 1 985 15 discriminator 4
	cmp	r0, #1
	beq	.L257
	.loc 1 985 15 discriminator 2
	addw	ip, ip, #1365
.LVL132:
.L236:
	.loc 1 985 219 discriminator 4
	movs	r0, #85
	strh	r0, [ip]	@ movhi
	.loc 1 985 242 is_stmt 1 discriminator 4
.LBB216:
.LBB217:
	.loc 2 946 3 discriminator 4
	.syntax unified
@ 946 "d:\rtos\board\yd-stm32h7xxvx_classicv19\cmake-build-debug\_deps\stm32h7xx_cmsis_include\drivers\cmsis\include\cmsis_gcc.h" 1
	dsb 0xF
@ 0 "" 2
	.thumb
	.syntax unified
.L237:
.LBE217:
.LBE216:
	.loc 1 992 11 discriminator 5
	.loc 1 995 7 discriminator 5
	.loc 1 995 11 discriminator 5
	.loc 1 995 76 is_stmt 0 discriminator 5
	movs	r0, #37
	strh	r0, [r1]	@ movhi
	.loc 1 995 96 is_stmt 1 discriminator 5
.LBB218:
.LBB219:
	.loc 2 946 3 discriminator 5
	.syntax unified
@ 946 "d:\rtos\board\yd-stm32h7xxvx_classicv19\cmake-build-debug\_deps\stm32h7xx_cmsis_include\drivers\cmsis\include\cmsis_gcc.h" 1
	dsb 0xF
@ 0 "" 2
	.thumb
	.syntax unified
.LBE219:
.LBE218:
	.loc 1 995 9 discriminator 5
	.loc 1 996 7 discriminator 5
	.loc 1 996 11 discriminator 5
	.loc 1 996 79 is_stmt 0 discriminator 5
	subs	r3, r3, #1
.LVL133:
	uxth	r3, r3
.LVL134:
	.loc 1 996 76 discriminator 5
	strh	r3, [r1]	@ movhi
	.loc 1 996 112 is_stmt 1 discriminator 5
.LBB220:
.LBB221:
	.loc 2 946 3 discriminator 5
	.syntax unified
@ 946 "d:\rtos\board\yd-stm32h7xxvx_classicv19\cmake-build-debug\_deps\stm32h7xx_cmsis_include\drivers\cmsis\include\cmsis_gcc.h" 1
	dsb 0xF
@ 0 "" 2
	.thumb
	.syntax unified
.L244:
.LBE221:
.LBE220:
	.loc 1 971 21 is_stmt 0
	mov	r3, r1
	b	.L242
.LVL135:
.L256:
	.loc 1 983 15 discriminator 1
	movw	r0, #5460
	add	r0, r0, ip
	b	.L234
.L257:
	.loc 1 985 15 discriminator 1
	addw	ip, ip, #2730
.LVL136:
	b	.L236
.LVL137:
.L232:
	.loc 1 991 9 is_stmt 1
	.loc 1 991 13
	.loc 1 991 15 is_stmt 0
	cmp	r0, #1
	beq	.L258
	.loc 1 991 15 discriminator 2
	addw	r5, ip, #1365
.L239:
	.loc 1 991 219 discriminator 4
	movs	r0, #170
	strh	r0, [r5]	@ movhi
	.loc 1 991 242 is_stmt 1 discriminator 4
.LBB222:
.LBB223:
	.loc 2 946 3 discriminator 4
	.syntax unified
@ 946 "d:\rtos\board\yd-stm32h7xxvx_classicv19\cmake-build-debug\_deps\stm32h7xx_cmsis_include\drivers\cmsis\include\cmsis_gcc.h" 1
	dsb 0xF
@ 0 "" 2
	.thumb
	.syntax unified
.LBE223:
.LBE222:
	.loc 1 991 11 discriminator 4
	.loc 1 992 9 discriminator 4
	.loc 1 992 13 discriminator 4
	.loc 1 992 84 is_stmt 0 discriminator 4
	ldr	r0, .L261
	ldr	r0, [r0]
	.loc 1 992 15 discriminator 4
	cmp	r0, #1
	beq	.L259
	.loc 1 992 15 discriminator 2
	addw	ip, ip, #682
.LVL138:
.L241:
	.loc 1 992 219 discriminator 4
	movs	r0, #85
	strh	r0, [ip]	@ movhi
	.loc 1 992 242 is_stmt 1 discriminator 4
.LBB224:
.LBB225:
	.loc 2 946 3 discriminator 4
	.syntax unified
@ 946 "d:\rtos\board\yd-stm32h7xxvx_classicv19\cmake-build-debug\_deps\stm32h7xx_cmsis_include\drivers\cmsis\include\cmsis_gcc.h" 1
	dsb 0xF
@ 0 "" 2
	.loc 2 947 1 is_stmt 0 discriminator 4
	.thumb
	.syntax unified
	b	.L237
.LVL139:
.L258:
.LBE225:
.LBE224:
	.loc 1 991 15 discriminator 1
	addw	r5, ip, #2730
	b	.L239
.L259:
	.loc 1 992 15 discriminator 1
	addw	ip, ip, #1364
.LVL140:
	b	.L241
.LVL141:
.L255:
	.loc 1 1001 7 is_stmt 1
	.loc 1 1001 11
	.loc 1 1001 76 is_stmt 0
	movs	r0, #232
	strh	r0, [r1]	@ movhi
	.loc 1 1001 99 is_stmt 1
.LBB226:
.LBB227:
	.loc 2 946 3
	.syntax unified
@ 946 "d:\rtos\board\yd-stm32h7xxvx_classicv19\cmake-build-debug\_deps\stm32h7xx_cmsis_include\drivers\cmsis\include\cmsis_gcc.h" 1
	dsb 0xF
@ 0 "" 2
	.thumb
	.syntax unified
.LBE227:
.LBE226:
	.loc 1 1001 9
	.loc 1 1002 7
	.loc 1 1002 11
	.loc 1 1002 79 is_stmt 0
	subs	r3, r3, #1
.LVL142:
	uxth	r3, r3
.LVL143:
	.loc 1 1002 76
	strh	r3, [r1]	@ movhi
	.loc 1 1002 112 is_stmt 1
.LBB228:
.LBB229:
	.loc 2 946 3
	.syntax unified
@ 946 "d:\rtos\board\yd-stm32h7xxvx_classicv19\cmake-build-debug\_deps\stm32h7xx_cmsis_include\drivers\cmsis\include\cmsis_gcc.h" 1
	dsb 0xF
@ 0 "" 2
	.loc 2 947 1 is_stmt 0
	.thumb
	.syntax unified
	b	.L244
.LVL144:
.L245:
.LBE229:
.LBE228:
	.loc 1 1015 9 is_stmt 1
	.loc 1 1015 13
	.loc 1 1015 70 is_stmt 0
	ldrh	ip, [r2], #2
.LVL145:
	.loc 1 1015 67
	strh	ip, [r3], #2	@ movhi
.LVL146:
	.loc 1 1015 79 is_stmt 1
.LBB230:
.LBB231:
	.loc 2 946 3
	.syntax unified
@ 946 "d:\rtos\board\yd-stm32h7xxvx_classicv19\cmake-build-debug\_deps\stm32h7xx_cmsis_include\drivers\cmsis\include\cmsis_gcc.h" 1
	dsb 0xF
@ 0 "" 2
	.thumb
	.syntax unified
.LBE231:
.LBE230:
	.loc 1 1015 11
	.loc 1 1017 9
.LVL147:
	.loc 1 1018 9
.L242:
	.loc 1 1013 31
	cmp	r3, lr
	bls	.L245
	.loc 1 1021 7
	.loc 1 1021 15 is_stmt 0
	ldr	r3, [r4, #72]
.LVL148:
	.loc 1 1021 10
	cmp	r3, #2
	beq	.L260
	.loc 1 1027 9 is_stmt 1
	.loc 1 1027 13
	.loc 1 1027 78 is_stmt 0
	movs	r3, #208
	strh	r3, [r1]	@ movhi
	.loc 1 1027 101 is_stmt 1
.LBB232:
.LBB233:
	.loc 2 946 3
	.syntax unified
@ 946 "d:\rtos\board\yd-stm32h7xxvx_classicv19\cmake-build-debug\_deps\stm32h7xx_cmsis_include\drivers\cmsis\include\cmsis_gcc.h" 1
	dsb 0xF
@ 0 "" 2
	.loc 2 947 1 is_stmt 0
	.thumb
	.syntax unified
	movs	r0, #0
	b	.L243
.L260:
.LBE233:
.LBE232:
	.loc 1 1023 9 is_stmt 1
	.loc 1 1023 13
	.loc 1 1023 78 is_stmt 0
	movs	r3, #41
	strh	r3, [r1]	@ movhi
	.loc 1 1023 98 is_stmt 1
.LBB234:
.LBB235:
	.loc 2 946 3
	.syntax unified
@ 946 "d:\rtos\board\yd-stm32h7xxvx_classicv19\cmake-build-debug\_deps\stm32h7xx_cmsis_include\drivers\cmsis\include\cmsis_gcc.h" 1
	dsb 0xF
@ 0 "" 2
	.loc 2 947 1 is_stmt 0
	.thumb
	.syntax unified
	movs	r0, #0
	b	.L243
.LVL149:
.L247:
.LBE235:
.LBE234:
	.loc 1 1039 12
	movs	r0, #1
.LVL150:
.L229:
	.loc 1 1044 1
	pop	{r4, r5, pc}
.LVL151:
.L248:
	.loc 1 951 49
	movs	r0, #2
	b	.L229
.L262:
	.align	2
.L261:
	.word	uwNORMemoryDataWidth
	.cfi_endproc
.LFE345:
	.size	HAL_NOR_ProgramBuffer, .-HAL_NOR_ProgramBuffer
	.section	.text.HAL_NOR_Erase_Block,"ax",%progbits
	.align	1
	.global	HAL_NOR_Erase_Block
	.syntax unified
	.thumb
	.thumb_func
	.type	HAL_NOR_Erase_Block, %function
HAL_NOR_Erase_Block:
.LFB346:
	.loc 1 1055 1 is_stmt 1
	.cfi_startproc
	@ args = 0, pretend = 0, frame = 0
	@ frame_needed = 0, uses_anonymous_args = 0
	@ link register save eliminated.
.LVL152:
	mov	ip, r0
	.loc 1 1056 3
	.loc 1 1057 3
.LVL153:
	.loc 1 1060 3
	.loc 1 1060 11 is_stmt 0
	ldrb	r3, [r0, #69]	@ zero_extendqisi2
	uxtb	r0, r3
.LVL154:
	.loc 1 1060 6
	cmp	r0, #2
	beq	.L292
	.loc 1 1064 8 is_stmt 1
	.loc 1 1064 16 is_stmt 0
	ldrb	r3, [ip, #69]	@ zero_extendqisi2
	uxtb	r0, r3
	.loc 1 1064 11
	cmp	r0, #1
	bne	.L286
	.loc 1 1067 5 is_stmt 1
	.loc 1 1067 9
	.loc 1 1067 18 is_stmt 0
	ldrb	r3, [ip, #68]	@ zero_extendqisi2
	.loc 1 1067 11
	cmp	r3, #1
	beq	.L287
	.loc 1 1055 1 discriminator 2
	push	{r4}
	.cfi_def_cfa_offset 4
	.cfi_offset 4, -4
	.loc 1 1067 68 is_stmt 1 discriminator 2
	.loc 1 1067 81 is_stmt 0 discriminator 2
	movs	r3, #1
	strb	r3, [ip, #68]
	.loc 1 1067 7 is_stmt 1 discriminator 2
	.loc 1 1070 5 discriminator 2
	.loc 1 1070 17 is_stmt 0 discriminator 2
	movs	r3, #2
	strb	r3, [ip, #69]
	.loc 1 1073 5 is_stmt 1 discriminator 2
	.loc 1 1073 19 is_stmt 0 discriminator 2
	ldr	r3, [ip, #8]
	.loc 1 1073 8 discriminator 2
	cbz	r3, .L288
	.loc 1 1077 10 is_stmt 1
	.loc 1 1077 13 is_stmt 0
	cmp	r3, #2
	beq	.L289
	.loc 1 1081 10 is_stmt 1
	.loc 1 1081 13 is_stmt 0
	cmp	r3, #4
	beq	.L295
	.loc 1 1087 21
	mov	r3, #1811939328
	b	.L265
.L295:
	.loc 1 1083 21
	mov	r3, #1744830464
	b	.L265
.L288:
	.loc 1 1075 21
	mov	r3, #1610612736
.L265:
.LVL155:
	.loc 1 1091 5 is_stmt 1
	.loc 1 1091 13 is_stmt 0
	ldr	r4, [ip, #72]
	.loc 1 1091 8
	cmp	r4, #2
	beq	.L296
	.loc 1 1115 10 is_stmt 1
	.loc 1 1115 13 is_stmt 0
	cmp	r4, #1
	beq	.L297
.LVL156:
.L285:
	.loc 1 1129 5 is_stmt 1
	.loc 1 1129 17 is_stmt 0
	movs	r3, #1
	strb	r3, [ip, #69]
	.loc 1 1132 5 is_stmt 1
	.loc 1 1132 9
	.loc 1 1132 22 is_stmt 0
	movs	r3, #0
	strb	r3, [ip, #68]
	.loc 1 1132 7 is_stmt 1
	.loc 1 1139 3
	.loc 1 1141 1 is_stmt 0
	ldr	r4, [sp], #4
	.cfi_remember_state
	.cfi_restore 4
	.cfi_def_cfa_offset 0
	bx	lr
.LVL157:
.L289:
	.cfi_restore_state
	.loc 1 1079 21
	mov	r3, #1677721600
	b	.L265
.LVL158:
.L296:
	.loc 1 1093 7 is_stmt 1
	.loc 1 1093 32 is_stmt 0
	ldr	r0, .L306
	ldr	r0, [r0]
	.loc 1 1093 10
	cbnz	r0, .L267
	.loc 1 1095 9 is_stmt 1
	.loc 1 1095 13
	.loc 1 1095 15 is_stmt 0
	cmp	r0, #1
	beq	.L298
	.loc 1 1095 15 discriminator 2
	addw	r0, r3, #2730
.L269:
	.loc 1 1095 219 discriminator 4
	movs	r4, #170
	strh	r4, [r0]	@ movhi
	.loc 1 1095 242 is_stmt 1 discriminator 4
.LBB236:
.LBB237:
	.loc 2 946 3 discriminator 4
	.syntax unified
@ 946 "d:\rtos\board\yd-stm32h7xxvx_classicv19\cmake-build-debug\_deps\stm32h7xx_cmsis_include\drivers\cmsis\include\cmsis_gcc.h" 1
	dsb 0xF
@ 0 "" 2
	.thumb
	.syntax unified
.LBE237:
.LBE236:
	.loc 1 1095 11 discriminator 4
	.loc 1 1097 9 discriminator 4
	.loc 1 1097 13 discriminator 4
	.loc 1 1097 84 is_stmt 0 discriminator 4
	ldr	r0, .L306
	ldr	r0, [r0]
	.loc 1 1097 15 discriminator 4
	cmp	r0, #1
	beq	.L299
	.loc 1 1097 15 discriminator 2
	addw	r0, r3, #1365
.L271:
	.loc 1 1097 219 discriminator 4
	movs	r4, #85
	strh	r4, [r0]	@ movhi
	.loc 1 1097 242 is_stmt 1 discriminator 4
.LBB238:
.LBB239:
	.loc 2 946 3 discriminator 4
	.syntax unified
@ 946 "d:\rtos\board\yd-stm32h7xxvx_classicv19\cmake-build-debug\_deps\stm32h7xx_cmsis_include\drivers\cmsis\include\cmsis_gcc.h" 1
	dsb 0xF
@ 0 "" 2
	.thumb
	.syntax unified
.LBE239:
.LBE238:
	.loc 1 1097 11 discriminator 4
	.loc 1 1099 9 discriminator 4
	.loc 1 1099 13 discriminator 4
	.loc 1 1099 84 is_stmt 0 discriminator 4
	ldr	r0, .L306
	ldr	r0, [r0]
	.loc 1 1099 15 discriminator 4
	cmp	r0, #1
	beq	.L300
	.loc 1 1099 15 discriminator 2
	addw	r0, r3, #2730
.L273:
	.loc 1 1099 219 discriminator 4
	movs	r3, #128
.LVL159:
	strh	r3, [r0]	@ movhi
	.loc 1 1099 242 is_stmt 1 discriminator 4
.LBB240:
.LBB241:
	.loc 2 946 3 discriminator 4
	.syntax unified
@ 946 "d:\rtos\board\yd-stm32h7xxvx_classicv19\cmake-build-debug\_deps\stm32h7xx_cmsis_include\drivers\cmsis\include\cmsis_gcc.h" 1
	dsb 0xF
@ 0 "" 2
	.thumb
	.syntax unified
.L274:
.LBE241:
.LBE240:
	.loc 1 1110 11 discriminator 5
	.loc 1 1113 7 discriminator 5
	.loc 1 1113 11 discriminator 5
	.loc 1 1113 83 is_stmt 0 discriminator 5
	movs	r3, #48
	strh	r3, [r1, r2]	@ movhi
	.loc 1 1113 103 is_stmt 1 discriminator 5
.LBB242:
.LBB243:
	.loc 2 946 3 discriminator 5
	.syntax unified
@ 946 "d:\rtos\board\yd-stm32h7xxvx_classicv19\cmake-build-debug\_deps\stm32h7xx_cmsis_include\drivers\cmsis\include\cmsis_gcc.h" 1
	dsb 0xF
@ 0 "" 2
	.thumb
	.syntax unified
.LBE243:
.LBE242:
	.loc 1 1057 21 is_stmt 0 discriminator 5
	movs	r0, #0
.LBB245:
.LBB244:
	.loc 2 947 1 discriminator 5
	b	.L285
.LVL160:
.L298:
.LBE244:
.LBE245:
	.loc 1 1095 15 discriminator 1
	movw	r0, #5460
	add	r0, r0, r3
	b	.L269
.L299:
	.loc 1 1097 15 discriminator 1
	addw	r0, r3, #2730
	b	.L271
.L300:
	.loc 1 1099 15 discriminator 1
	movw	r0, #5460
	add	r0, r0, r3
	b	.L273
.L267:
	.loc 1 1104 9 is_stmt 1
	.loc 1 1104 13
	.loc 1 1104 15 is_stmt 0
	cmp	r0, #1
	beq	.L301
	.loc 1 1104 15 discriminator 2
	addw	r0, r3, #1365
.L276:
	.loc 1 1104 219 discriminator 4
	movs	r4, #170
	strh	r4, [r0]	@ movhi
	.loc 1 1104 242 is_stmt 1 discriminator 4
.LBB246:
.LBB247:
	.loc 2 946 3 discriminator 4
	.syntax unified
@ 946 "d:\rtos\board\yd-stm32h7xxvx_classicv19\cmake-build-debug\_deps\stm32h7xx_cmsis_include\drivers\cmsis\include\cmsis_gcc.h" 1
	dsb 0xF
@ 0 "" 2
	.thumb
	.syntax unified
.LBE247:
.LBE246:
	.loc 1 1104 11 discriminator 4
	.loc 1 1105 9 discriminator 4
	.loc 1 1105 13 discriminator 4
	.loc 1 1105 84 is_stmt 0 discriminator 4
	ldr	r0, .L306
	ldr	r0, [r0]
	.loc 1 1105 15 discriminator 4
	cmp	r0, #1
	beq	.L302
	.loc 1 1105 15 discriminator 2
	addw	r0, r3, #682
.L278:
	.loc 1 1105 219 discriminator 4
	movs	r4, #85
	strh	r4, [r0]	@ movhi
	.loc 1 1105 242 is_stmt 1 discriminator 4
.LBB248:
.LBB249:
	.loc 2 946 3 discriminator 4
	.syntax unified
@ 946 "d:\rtos\board\yd-stm32h7xxvx_classicv19\cmake-build-debug\_deps\stm32h7xx_cmsis_include\drivers\cmsis\include\cmsis_gcc.h" 1
	dsb 0xF
@ 0 "" 2
	.thumb
	.syntax unified
.LBE249:
.LBE248:
	.loc 1 1105 11 discriminator 4
	.loc 1 1106 9 discriminator 4
	.loc 1 1106 13 discriminator 4
	.loc 1 1106 84 is_stmt 0 discriminator 4
	ldr	r0, .L306
	ldr	r0, [r0]
	.loc 1 1106 15 discriminator 4
	cmp	r0, #1
	beq	.L303
	.loc 1 1106 15 discriminator 2
	addw	r0, r3, #1365
.L280:
	.loc 1 1106 219 discriminator 4
	movs	r4, #128
	strh	r4, [r0]	@ movhi
	.loc 1 1106 242 is_stmt 1 discriminator 4
.LBB250:
.LBB251:
	.loc 2 946 3 discriminator 4
	.syntax unified
@ 946 "d:\rtos\board\yd-stm32h7xxvx_classicv19\cmake-build-debug\_deps\stm32h7xx_cmsis_include\drivers\cmsis\include\cmsis_gcc.h" 1
	dsb 0xF
@ 0 "" 2
	.thumb
	.syntax unified
.LBE251:
.LBE250:
	.loc 1 1106 11 discriminator 4
	.loc 1 1108 9 discriminator 4
	.loc 1 1108 13 discriminator 4
	.loc 1 1108 84 is_stmt 0 discriminator 4
	ldr	r0, .L306
	ldr	r0, [r0]
	.loc 1 1108 15 discriminator 4
	cmp	r0, #1
	beq	.L304
	.loc 1 1108 15 discriminator 2
	addw	r0, r3, #1365
.L282:
	.loc 1 1108 219 discriminator 4
	movs	r4, #170
	strh	r4, [r0]	@ movhi
	.loc 1 1108 242 is_stmt 1 discriminator 4
.LBB252:
.LBB253:
	.loc 2 946 3 discriminator 4
	.syntax unified
@ 946 "d:\rtos\board\yd-stm32h7xxvx_classicv19\cmake-build-debug\_deps\stm32h7xx_cmsis_include\drivers\cmsis\include\cmsis_gcc.h" 1
	dsb 0xF
@ 0 "" 2
	.thumb
	.syntax unified
.LBE253:
.LBE252:
	.loc 1 1108 11 discriminator 4
	.loc 1 1110 9 discriminator 4
	.loc 1 1110 13 discriminator 4
	.loc 1 1110 84 is_stmt 0 discriminator 4
	ldr	r0, .L306
	ldr	r0, [r0]
	.loc 1 1110 15 discriminator 4
	cmp	r0, #1
	beq	.L305
	.loc 1 1110 15 discriminator 2
	addw	r3, r3, #682
.LVL161:
.L284:
	.loc 1 1110 219 discriminator 4
	movs	r0, #85
	strh	r0, [r3]	@ movhi
	.loc 1 1110 242 is_stmt 1 discriminator 4
.LBB254:
.LBB255:
	.loc 2 946 3 discriminator 4
	.syntax unified
@ 946 "d:\rtos\board\yd-stm32h7xxvx_classicv19\cmake-build-debug\_deps\stm32h7xx_cmsis_include\drivers\cmsis\include\cmsis_gcc.h" 1
	dsb 0xF
@ 0 "" 2
	.loc 2 947 1 is_stmt 0 discriminator 4
	.thumb
	.syntax unified
	b	.L274
.LVL162:
.L301:
.LBE255:
.LBE254:
	.loc 1 1104 15 discriminator 1
	addw	r0, r3, #2730
	b	.L276
.L302:
	.loc 1 1105 15 discriminator 1
	addw	r0, r3, #1364
	b	.L278
.L303:
	.loc 1 1106 15 discriminator 1
	addw	r0, r3, #2730
	b	.L280
.L304:
	.loc 1 1108 15 discriminator 1
	addw	r0, r3, #2730
	b	.L282
.L305:
	.loc 1 1110 15 discriminator 1
	addw	r3, r3, #1364
.LVL163:
	b	.L284
.LVL164:
.L297:
	.loc 1 1117 7 is_stmt 1
	.loc 1 1117 11
	.loc 1 1117 73 is_stmt 0
	movs	r3, #96
.LVL165:
	strh	r3, [r1, r2]	@ movhi
	.loc 1 1117 96 is_stmt 1
.LBB256:
.LBB257:
	.loc 2 946 3
	.syntax unified
@ 946 "d:\rtos\board\yd-stm32h7xxvx_classicv19\cmake-build-debug\_deps\stm32h7xx_cmsis_include\drivers\cmsis\include\cmsis_gcc.h" 1
	dsb 0xF
@ 0 "" 2
	.thumb
	.syntax unified
.LBE257:
.LBE256:
	.loc 1 1117 9
	.loc 1 1118 7
	.loc 1 1118 11
	.loc 1 1118 73 is_stmt 0
	movs	r3, #208
	strh	r3, [r1, r2]	@ movhi
	.loc 1 1118 96 is_stmt 1
.LBB258:
.LBB259:
	.loc 2 946 3
	.syntax unified
@ 946 "d:\rtos\board\yd-stm32h7xxvx_classicv19\cmake-build-debug\_deps\stm32h7xx_cmsis_include\drivers\cmsis\include\cmsis_gcc.h" 1
	dsb 0xF
@ 0 "" 2
	.thumb
	.syntax unified
.LBE259:
.LBE258:
	.loc 1 1118 9
	.loc 1 1119 7
	.loc 1 1119 11
	.loc 1 1119 73 is_stmt 0
	movs	r0, #32
	strh	r0, [r1, r2]	@ movhi
	.loc 1 1119 96 is_stmt 1
.LBB260:
.LBB261:
	.loc 2 946 3
	.syntax unified
@ 946 "d:\rtos\board\yd-stm32h7xxvx_classicv19\cmake-build-debug\_deps\stm32h7xx_cmsis_include\drivers\cmsis\include\cmsis_gcc.h" 1
	dsb 0xF
@ 0 "" 2
	.thumb
	.syntax unified
.LBE261:
.LBE260:
	.loc 1 1119 9
	.loc 1 1120 7
	.loc 1 1120 11
	.loc 1 1120 73 is_stmt 0
	strh	r3, [r1, r2]	@ movhi
	.loc 1 1120 96 is_stmt 1
.LBB262:
.LBB263:
	.loc 2 946 3
	.syntax unified
@ 946 "d:\rtos\board\yd-stm32h7xxvx_classicv19\cmake-build-debug\_deps\stm32h7xx_cmsis_include\drivers\cmsis\include\cmsis_gcc.h" 1
	dsb 0xF
@ 0 "" 2
	.thumb
	.syntax unified
.LBE263:
.LBE262:
	.loc 1 1057 21 is_stmt 0
	movs	r0, #0
.LBB265:
.LBB264:
	.loc 2 947 1
	b	.L285
.LVL166:
.L286:
	.cfi_def_cfa_offset 0
	.cfi_restore 4
.LBE264:
.LBE265:
	.loc 1 1136 12
	movs	r0, #1
	bx	lr
.L287:
	.loc 1 1067 49
	movs	r0, #2
	bx	lr
.L292:
	.loc 1 1141 1
	bx	lr
.L307:
	.align	2
.L306:
	.word	uwNORMemoryDataWidth
	.cfi_endproc
.LFE346:
	.size	HAL_NOR_Erase_Block, .-HAL_NOR_Erase_Block
	.section	.text.HAL_NOR_Erase_Chip,"ax",%progbits
	.align	1
	.global	HAL_NOR_Erase_Chip
	.syntax unified
	.thumb
	.thumb_func
	.type	HAL_NOR_Erase_Chip, %function
HAL_NOR_Erase_Chip:
.LFB347:
	.loc 1 1151 1 is_stmt 1
	.cfi_startproc
	@ args = 0, pretend = 0, frame = 0
	@ frame_needed = 0, uses_anonymous_args = 0
	@ link register save eliminated.
.LVL167:
	mov	r2, r0
	.loc 1 1152 3
	.loc 1 1153 3
.LVL168:
	.loc 1 1154 3
	.loc 1 1157 3
	.loc 1 1157 11 is_stmt 0
	ldrb	r3, [r0, #69]	@ zero_extendqisi2
	uxtb	r0, r3
.LVL169:
	.loc 1 1157 6
	cmp	r0, #2
	beq	.L309
	.loc 1 1161 8 is_stmt 1
	.loc 1 1161 16 is_stmt 0
	ldrb	r3, [r2, #69]	@ zero_extendqisi2
	uxtb	r0, r3
	.loc 1 1161 11
	cmp	r0, #1
	bne	.L331
	.loc 1 1164 5 is_stmt 1
	.loc 1 1164 9
	.loc 1 1164 18 is_stmt 0
	ldrb	r3, [r2, #68]	@ zero_extendqisi2
	.loc 1 1164 11
	cmp	r3, #1
	beq	.L332
	.loc 1 1164 68 is_stmt 1 discriminator 2
	.loc 1 1164 81 is_stmt 0 discriminator 2
	movs	r3, #1
	strb	r3, [r2, #68]
	.loc 1 1164 7 is_stmt 1 discriminator 2
	.loc 1 1167 5 discriminator 2
	.loc 1 1167 17 is_stmt 0 discriminator 2
	movs	r3, #2
	strb	r3, [r2, #69]
	.loc 1 1170 5 is_stmt 1 discriminator 2
	.loc 1 1170 19 is_stmt 0 discriminator 2
	ldr	r3, [r2, #8]
	.loc 1 1170 8 discriminator 2
	cbz	r3, .L333
	.loc 1 1174 10 is_stmt 1
	.loc 1 1174 13 is_stmt 0
	cmp	r3, #2
	beq	.L334
	.loc 1 1178 10 is_stmt 1
	.loc 1 1178 13 is_stmt 0
	cmp	r3, #4
	beq	.L336
	.loc 1 1184 21
	mov	r3, #1811939328
	b	.L310
.L336:
	.loc 1 1180 21
	mov	r3, #1744830464
	b	.L310
.L333:
	.loc 1 1172 21
	mov	r3, #1610612736
.L310:
.LVL170:
	.loc 1 1188 5 is_stmt 1
	.loc 1 1188 13 is_stmt 0
	ldr	r1, [r2, #72]
.LVL171:
	.loc 1 1188 8
	cmp	r1, #2
	beq	.L337
.LVL172:
.L311:
	.loc 1 1220 5 is_stmt 1
	.loc 1 1220 17 is_stmt 0
	movs	r3, #1
	strb	r3, [r2, #69]
	.loc 1 1223 5 is_stmt 1
	.loc 1 1223 9
	.loc 1 1223 22 is_stmt 0
	movs	r3, #0
	strb	r3, [r2, #68]
	.loc 1 1223 7 is_stmt 1
	.loc 1 1230 3
	.loc 1 1230 10 is_stmt 0
	bx	lr
.LVL173:
.L334:
	.loc 1 1176 21
	mov	r3, #1677721600
	b	.L310
.LVL174:
.L337:
	.loc 1 1190 7 is_stmt 1
	.loc 1 1190 32 is_stmt 0
	ldr	r1, .L347
	ldr	r1, [r1]
	.loc 1 1190 10
	cbnz	r1, .L312
	.loc 1 1192 9 is_stmt 1
	.loc 1 1192 13
	.loc 1 1192 15 is_stmt 0
	cmp	r1, #1
	beq	.L338
	.loc 1 1192 15 discriminator 2
	addw	r1, r3, #2730
.L314:
	.loc 1 1192 219 discriminator 4
	movs	r0, #170
	strh	r0, [r1]	@ movhi
	.loc 1 1192 242 is_stmt 1 discriminator 4
.LBB266:
.LBB267:
	.loc 2 946 3 discriminator 4
	.syntax unified
@ 946 "d:\rtos\board\yd-stm32h7xxvx_classicv19\cmake-build-debug\_deps\stm32h7xx_cmsis_include\drivers\cmsis\include\cmsis_gcc.h" 1
	dsb 0xF
@ 0 "" 2
	.thumb
	.syntax unified
.LBE267:
.LBE266:
	.loc 1 1192 11 discriminator 4
	.loc 1 1194 9 discriminator 4
	.loc 1 1194 13 discriminator 4
	.loc 1 1194 84 is_stmt 0 discriminator 4
	ldr	r1, .L347
	ldr	r1, [r1]
	.loc 1 1194 15 discriminator 4
	cmp	r1, #1
	beq	.L339
	.loc 1 1194 15 discriminator 2
	addw	r1, r3, #1365
.L316:
	.loc 1 1194 219 discriminator 4
	movs	r0, #85
	strh	r0, [r1]	@ movhi
	.loc 1 1194 242 is_stmt 1 discriminator 4
.LBB268:
.LBB269:
	.loc 2 946 3 discriminator 4
	.syntax unified
@ 946 "d:\rtos\board\yd-stm32h7xxvx_classicv19\cmake-build-debug\_deps\stm32h7xx_cmsis_include\drivers\cmsis\include\cmsis_gcc.h" 1
	dsb 0xF
@ 0 "" 2
	.thumb
	.syntax unified
.LBE269:
.LBE268:
	.loc 1 1194 11 discriminator 4
	.loc 1 1196 9 discriminator 4
	.loc 1 1196 13 discriminator 4
	.loc 1 1196 84 is_stmt 0 discriminator 4
	ldr	r1, .L347
	ldr	r1, [r1]
	.loc 1 1196 15 discriminator 4
	cmp	r1, #1
	beq	.L340
	.loc 1 1196 15 discriminator 2
	addw	r1, r3, #2730
.L318:
	.loc 1 1196 219 discriminator 4
	movs	r3, #128
.LVL175:
	strh	r3, [r1]	@ movhi
	.loc 1 1196 242 is_stmt 1 discriminator 4
.LBB270:
.LBB271:
	.loc 2 946 3 discriminator 4
	.syntax unified
@ 946 "d:\rtos\board\yd-stm32h7xxvx_classicv19\cmake-build-debug\_deps\stm32h7xx_cmsis_include\drivers\cmsis\include\cmsis_gcc.h" 1
	dsb 0xF
@ 0 "" 2
	.thumb
	.syntax unified
.LBE271:
.LBE270:
	.loc 1 1153 21 is_stmt 0 discriminator 4
	movs	r0, #0
.LBB273:
.LBB272:
	.loc 2 947 1 discriminator 4
	b	.L311
.LVL176:
.L338:
.LBE272:
.LBE273:
	.loc 1 1192 15 discriminator 1
	movw	r1, #5460
	add	r1, r1, r3
	b	.L314
.L339:
	.loc 1 1194 15 discriminator 1
	addw	r1, r3, #2730
	b	.L316
.L340:
	.loc 1 1196 15 discriminator 1
	movw	r1, #5460
	add	r1, r1, r3
	b	.L318
.L312:
	.loc 1 1201 9 is_stmt 1
	.loc 1 1201 13
	.loc 1 1201 15 is_stmt 0
	cmp	r1, #1
	beq	.L341
	.loc 1 1201 15 discriminator 2
	addw	r1, r3, #1365
.L320:
	.loc 1 1201 219 discriminator 4
	movs	r0, #170
	strh	r0, [r1]	@ movhi
	.loc 1 1201 242 is_stmt 1 discriminator 4
.LBB274:
.LBB275:
	.loc 2 946 3 discriminator 4
	.syntax unified
@ 946 "d:\rtos\board\yd-stm32h7xxvx_classicv19\cmake-build-debug\_deps\stm32h7xx_cmsis_include\drivers\cmsis\include\cmsis_gcc.h" 1
	dsb 0xF
@ 0 "" 2
	.thumb
	.syntax unified
.LBE275:
.LBE274:
	.loc 1 1201 11 discriminator 4
	.loc 1 1202 9 discriminator 4
	.loc 1 1202 13 discriminator 4
	.loc 1 1202 84 is_stmt 0 discriminator 4
	ldr	r1, .L347
	ldr	r1, [r1]
	.loc 1 1202 15 discriminator 4
	cmp	r1, #1
	beq	.L342
	.loc 1 1202 15 discriminator 2
	addw	r1, r3, #682
.L322:
	.loc 1 1202 219 discriminator 4
	movs	r0, #85
	strh	r0, [r1]	@ movhi
	.loc 1 1202 242 is_stmt 1 discriminator 4
.LBB276:
.LBB277:
	.loc 2 946 3 discriminator 4
	.syntax unified
@ 946 "d:\rtos\board\yd-stm32h7xxvx_classicv19\cmake-build-debug\_deps\stm32h7xx_cmsis_include\drivers\cmsis\include\cmsis_gcc.h" 1
	dsb 0xF
@ 0 "" 2
	.thumb
	.syntax unified
.LBE277:
.LBE276:
	.loc 1 1202 11 discriminator 4
	.loc 1 1203 9 discriminator 4
	.loc 1 1203 13 discriminator 4
	.loc 1 1203 84 is_stmt 0 discriminator 4
	ldr	r1, .L347
	ldr	r1, [r1]
	.loc 1 1203 15 discriminator 4
	cmp	r1, #1
	beq	.L343
	.loc 1 1203 15 discriminator 2
	addw	r1, r3, #1365
.L324:
	.loc 1 1203 219 discriminator 4
	movs	r0, #128
	strh	r0, [r1]	@ movhi
	.loc 1 1203 242 is_stmt 1 discriminator 4
.LBB278:
.LBB279:
	.loc 2 946 3 discriminator 4
	.syntax unified
@ 946 "d:\rtos\board\yd-stm32h7xxvx_classicv19\cmake-build-debug\_deps\stm32h7xx_cmsis_include\drivers\cmsis\include\cmsis_gcc.h" 1
	dsb 0xF
@ 0 "" 2
	.thumb
	.syntax unified
.LBE279:
.LBE278:
	.loc 1 1203 11 discriminator 4
	.loc 1 1205 9 discriminator 4
	.loc 1 1205 13 discriminator 4
	.loc 1 1205 84 is_stmt 0 discriminator 4
	ldr	r1, .L347
	ldr	r1, [r1]
	.loc 1 1205 15 discriminator 4
	cmp	r1, #1
	beq	.L344
	.loc 1 1205 15 discriminator 2
	addw	r1, r3, #1365
.L326:
	.loc 1 1205 219 discriminator 4
	movs	r0, #170
	strh	r0, [r1]	@ movhi
	.loc 1 1205 242 is_stmt 1 discriminator 4
.LBB280:
.LBB281:
	.loc 2 946 3 discriminator 4
	.syntax unified
@ 946 "d:\rtos\board\yd-stm32h7xxvx_classicv19\cmake-build-debug\_deps\stm32h7xx_cmsis_include\drivers\cmsis\include\cmsis_gcc.h" 1
	dsb 0xF
@ 0 "" 2
	.thumb
	.syntax unified
.LBE281:
.LBE280:
	.loc 1 1205 11 discriminator 4
	.loc 1 1207 9 discriminator 4
	.loc 1 1207 13 discriminator 4
	.loc 1 1207 84 is_stmt 0 discriminator 4
	ldr	r1, .L347
	ldr	r1, [r1]
	.loc 1 1207 15 discriminator 4
	cmp	r1, #1
	beq	.L345
	.loc 1 1207 15 discriminator 2
	addw	r1, r3, #682
.L328:
	.loc 1 1207 219 discriminator 4
	movs	r0, #85
	strh	r0, [r1]	@ movhi
	.loc 1 1207 242 is_stmt 1 discriminator 4
.LBB282:
.LBB283:
	.loc 2 946 3 discriminator 4
	.syntax unified
@ 946 "d:\rtos\board\yd-stm32h7xxvx_classicv19\cmake-build-debug\_deps\stm32h7xx_cmsis_include\drivers\cmsis\include\cmsis_gcc.h" 1
	dsb 0xF
@ 0 "" 2
	.thumb
	.syntax unified
.LBE283:
.LBE282:
	.loc 1 1207 11 discriminator 4
	.loc 1 1209 9 discriminator 4
	.loc 1 1209 13 discriminator 4
	.loc 1 1209 84 is_stmt 0 discriminator 4
	ldr	r1, .L347
	ldr	r1, [r1]
	.loc 1 1209 15 discriminator 4
	cmp	r1, #1
	beq	.L346
	.loc 1 1209 15 discriminator 2
	addw	r3, r3, #1365
.LVL177:
.L330:
	.loc 1 1209 219 discriminator 4
	movs	r1, #16
	strh	r1, [r3]	@ movhi
	.loc 1 1209 242 is_stmt 1 discriminator 4
.LBB284:
.LBB285:
	.loc 2 946 3 discriminator 4
	.syntax unified
@ 946 "d:\rtos\board\yd-stm32h7xxvx_classicv19\cmake-build-debug\_deps\stm32h7xx_cmsis_include\drivers\cmsis\include\cmsis_gcc.h" 1
	dsb 0xF
@ 0 "" 2
	.thumb
	.syntax unified
.LBE285:
.LBE284:
	.loc 1 1153 21 is_stmt 0 discriminator 4
	movs	r0, #0
.LBB287:
.LBB286:
	.loc 2 947 1 discriminator 4
	b	.L311
.LVL178:
.L341:
.LBE286:
.LBE287:
	.loc 1 1201 15 discriminator 1
	addw	r1, r3, #2730
	b	.L320
.L342:
	.loc 1 1202 15 discriminator 1
	addw	r1, r3, #1364
	b	.L322
.L343:
	.loc 1 1203 15 discriminator 1
	addw	r1, r3, #2730
	b	.L324
.L344:
	.loc 1 1205 15 discriminator 1
	addw	r1, r3, #2730
	b	.L326
.L345:
	.loc 1 1207 15 discriminator 1
	addw	r1, r3, #1364
	b	.L328
.L346:
	.loc 1 1209 15 discriminator 1
	addw	r3, r3, #2730
.LVL179:
	b	.L330
.LVL180:
.L331:
	.loc 1 1227 12
	movs	r0, #1
	bx	lr
.L332:
	.loc 1 1164 49
	movs	r0, #2
.L309:
	.loc 1 1231 1
	bx	lr
.L348:
	.align	2
.L347:
	.word	uwNORMemoryDataWidth
	.cfi_endproc
.LFE347:
	.size	HAL_NOR_Erase_Chip, .-HAL_NOR_Erase_Chip
	.section	.text.HAL_NOR_Read_CFI,"ax",%progbits
	.align	1
	.global	HAL_NOR_Read_CFI
	.syntax unified
	.thumb
	.thumb_func
	.type	HAL_NOR_Read_CFI, %function
HAL_NOR_Read_CFI:
.LFB348:
	.loc 1 1241 1 is_stmt 1
	.cfi_startproc
	@ args = 0, pretend = 0, frame = 0
	@ frame_needed = 0, uses_anonymous_args = 0
.LVL181:
	mov	ip, r0
	.loc 1 1242 3
	.loc 1 1243 3
	.loc 1 1246 3
	.loc 1 1246 9 is_stmt 0
	ldrb	r3, [r0, #69]	@ zero_extendqisi2
	uxtb	r0, r3
.LVL182:
	.loc 1 1247 3 is_stmt 1
	.loc 1 1247 6 is_stmt 0
	cmp	r0, #2
	beq	.L373
	.loc 1 1251 8 is_stmt 1
	.loc 1 1251 11 is_stmt 0
	cmp	r0, #4
	beq	.L366
	.loc 1 1255 8 is_stmt 1
	.loc 1 1255 11 is_stmt 0
	cmp	r0, #1
	bne	.L367
	.loc 1 1258 5 is_stmt 1
	.loc 1 1258 9
	.loc 1 1258 18 is_stmt 0
	ldrb	r3, [ip, #68]	@ zero_extendqisi2
	.loc 1 1258 11
	cmp	r3, #1
	beq	.L368
	.loc 1 1241 1 discriminator 2
	push	{lr}
	.cfi_def_cfa_offset 4
	.cfi_offset 14, -4
	.loc 1 1258 68 is_stmt 1 discriminator 2
	.loc 1 1258 81 is_stmt 0 discriminator 2
	movs	r3, #1
	strb	r3, [ip, #68]
	.loc 1 1258 7 is_stmt 1 discriminator 2
	.loc 1 1261 5 discriminator 2
	.loc 1 1261 17 is_stmt 0 discriminator 2
	movs	r3, #2
	strb	r3, [ip, #69]
	.loc 1 1264 5 is_stmt 1 discriminator 2
	.loc 1 1264 19 is_stmt 0 discriminator 2
	ldr	r3, [ip, #8]
	.loc 1 1264 8 discriminator 2
	cbz	r3, .L369
	.loc 1 1268 10 is_stmt 1
	.loc 1 1268 13 is_stmt 0
	cmp	r3, #2
	beq	.L370
	.loc 1 1272 10 is_stmt 1
	.loc 1 1272 13 is_stmt 0
	cmp	r3, #4
	beq	.L376
	.loc 1 1278 21
	mov	r3, #1811939328
	b	.L351
.L376:
	.loc 1 1274 21
	mov	r3, #1744830464
	b	.L351
.L369:
	.loc 1 1266 21
	mov	r3, #1610612736
.L351:
.LVL183:
	.loc 1 1282 5 is_stmt 1
	.loc 1 1282 30 is_stmt 0
	ldr	r2, .L383
	ldr	r2, [r2]
	.loc 1 1282 8
	cbnz	r2, .L352
	.loc 1 1284 7 is_stmt 1
	.loc 1 1284 11
	.loc 1 1284 13 is_stmt 0
	cmp	r2, #1
	beq	.L377
	.loc 1 1284 13 discriminator 2
	add	lr, r3, #170
.L354:
	.loc 1 1284 217 discriminator 4
	movs	r2, #152
	strh	r2, [lr]	@ movhi
	.loc 1 1284 240 is_stmt 1 discriminator 4
.LBB288:
.LBB289:
	.loc 2 946 3 discriminator 4
	.syntax unified
@ 946 "d:\rtos\board\yd-stm32h7xxvx_classicv19\cmake-build-debug\_deps\stm32h7xx_cmsis_include\drivers\cmsis\include\cmsis_gcc.h" 1
	dsb 0xF
@ 0 "" 2
	.thumb
	.syntax unified
.L355:
.LBE289:
.LBE288:
	.loc 1 1289 9 discriminator 5
	.loc 1 1292 5 discriminator 5
	.loc 1 1292 82 is_stmt 0 discriminator 5
	ldr	r2, .L383
	ldr	r2, [r2]
	.loc 1 1292 24 discriminator 5
	cmp	r2, #1
	beq	.L378
	.loc 1 1292 24 discriminator 2
	add	lr, r3, #97
.L359:
	.loc 1 1292 23 discriminator 4
	ldrh	lr, [lr]
	.loc 1 1292 21 discriminator 4
	strh	lr, [r1]	@ movhi
	.loc 1 1293 5 is_stmt 1 discriminator 4
	.loc 1 1293 24 is_stmt 0 discriminator 4
	cmp	r2, #1
	beq	.L379
	.loc 1 1293 24 discriminator 2
	add	lr, r3, #98
.L361:
	.loc 1 1293 23 discriminator 4
	ldrh	lr, [lr]
	.loc 1 1293 21 discriminator 4
	strh	lr, [r1, #2]	@ movhi
	.loc 1 1294 5 is_stmt 1 discriminator 4
	.loc 1 1294 24 is_stmt 0 discriminator 4
	cmp	r2, #1
	beq	.L380
	.loc 1 1294 24 discriminator 2
	add	lr, r3, #99
.L363:
	.loc 1 1294 23 discriminator 4
	ldrh	lr, [lr]
	.loc 1 1294 21 discriminator 4
	strh	lr, [r1, #4]	@ movhi
	.loc 1 1295 5 is_stmt 1 discriminator 4
	.loc 1 1295 24 is_stmt 0 discriminator 4
	cmp	r2, #1
	beq	.L381
	.loc 1 1295 24 discriminator 2
	adds	r3, r3, #100
.LVL184:
.L365:
	.loc 1 1295 23 discriminator 4
	ldrh	r3, [r3]
	.loc 1 1295 21 discriminator 4
	strh	r3, [r1, #6]	@ movhi
	.loc 1 1298 5 is_stmt 1 discriminator 4
	.loc 1 1298 17 is_stmt 0 discriminator 4
	strb	r0, [ip, #69]
	.loc 1 1301 5 is_stmt 1 discriminator 4
	.loc 1 1301 9 discriminator 4
	.loc 1 1301 22 is_stmt 0 discriminator 4
	movs	r3, #0
	strb	r3, [ip, #68]
	.loc 1 1301 7 is_stmt 1 discriminator 4
	.loc 1 1308 3 discriminator 4
	.loc 1 1308 10 is_stmt 0 discriminator 4
	mov	r0, r3
.LVL185:
	.loc 1 1309 1 discriminator 4
	ldr	pc, [sp], #4
.LVL186:
.L370:
	.loc 1 1270 21
	mov	r3, #1677721600
	b	.L351
.LVL187:
.L377:
	.loc 1 1284 13 discriminator 1
	add	lr, r3, #340
	b	.L354
.L352:
	.loc 1 1289 7 is_stmt 1
	.loc 1 1289 11
	.loc 1 1289 13 is_stmt 0
	cmp	r2, #1
	beq	.L382
	.loc 1 1289 13 discriminator 2
	add	lr, r3, #85
.L357:
	.loc 1 1289 217 discriminator 4
	movs	r2, #152
	strh	r2, [lr]	@ movhi
	.loc 1 1289 240 is_stmt 1 discriminator 4
.LBB290:
.LBB291:
	.loc 2 946 3 discriminator 4
	.syntax unified
@ 946 "d:\rtos\board\yd-stm32h7xxvx_classicv19\cmake-build-debug\_deps\stm32h7xx_cmsis_include\drivers\cmsis\include\cmsis_gcc.h" 1
	dsb 0xF
@ 0 "" 2
	.loc 2 947 1 is_stmt 0 discriminator 4
	.thumb
	.syntax unified
	b	.L355
.L382:
.LBE291:
.LBE290:
	.loc 1 1289 13 discriminator 1
	add	lr, r3, #170
	b	.L357
.L378:
	.loc 1 1292 24 discriminator 1
	add	lr, r3, #194
	b	.L359
.L379:
	.loc 1 1293 24 discriminator 1
	add	lr, r3, #196
	b	.L361
.L380:
	.loc 1 1294 24 discriminator 1
	add	lr, r3, #198
	b	.L363
.L381:
	.loc 1 1295 24 discriminator 1
	adds	r3, r3, #200
.LVL188:
	b	.L365
.LVL189:
.L366:
	.cfi_def_cfa_offset 0
	.cfi_restore 14
	.loc 1 1253 12
	movs	r0, #1
.LVL190:
	bx	lr
.LVL191:
.L367:
	.loc 1 1305 12
	movs	r0, #1
.LVL192:
	bx	lr
.LVL193:
.L368:
	.loc 1 1258 49
	movs	r0, #2
.LVL194:
	bx	lr
.LVL195:
.L373:
	.loc 1 1309 1
	bx	lr
.L384:
	.align	2
.L383:
	.word	uwNORMemoryDataWidth
	.cfi_endproc
.LFE348:
	.size	HAL_NOR_Read_CFI, .-HAL_NOR_Read_CFI
	.section	.text.HAL_NOR_WriteOperation_Enable,"ax",%progbits
	.align	1
	.global	HAL_NOR_WriteOperation_Enable
	.syntax unified
	.thumb
	.thumb_func
	.type	HAL_NOR_WriteOperation_Enable, %function
HAL_NOR_WriteOperation_Enable:
.LFB349:
	.loc 1 1428 1 is_stmt 1
	.cfi_startproc
	@ args = 0, pretend = 0, frame = 0
	@ frame_needed = 0, uses_anonymous_args = 0
.LVL196:
	push	{r3, r4, r5, lr}
	.cfi_def_cfa_offset 16
	.cfi_offset 3, -16
	.cfi_offset 4, -12
	.cfi_offset 5, -8
	.cfi_offset 14, -4
	.loc 1 1430 3
	.loc 1 1430 11 is_stmt 0
	ldrb	r3, [r0, #69]	@ zero_extendqisi2
	uxtb	r3, r3
	.loc 1 1430 6
	cmp	r3, #4
	bne	.L387
	mov	r4, r0
	.loc 1 1433 5 is_stmt 1
	.loc 1 1433 9
	.loc 1 1433 18 is_stmt 0
	ldrb	r3, [r0, #68]	@ zero_extendqisi2
	.loc 1 1433 11
	cmp	r3, #1
	beq	.L388
	.loc 1 1433 68 is_stmt 1 discriminator 2
	.loc 1 1433 81 is_stmt 0 discriminator 2
	movs	r5, #1
	strb	r5, [r0, #68]
	.loc 1 1433 7 is_stmt 1 discriminator 2
	.loc 1 1436 5 discriminator 2
	.loc 1 1436 17 is_stmt 0 discriminator 2
	movs	r3, #2
	strb	r3, [r0, #69]
	.loc 1 1439 5 is_stmt 1 discriminator 2
	.loc 1 1439 11 is_stmt 0 discriminator 2
	ldr	r1, [r0, #8]
	ldr	r0, [r0]
.LVL197:
	bl	FMC_NORSRAM_WriteOperation_Enable
.LVL198:
	.loc 1 1442 5 is_stmt 1 discriminator 2
	.loc 1 1442 17 is_stmt 0 discriminator 2
	strb	r5, [r4, #69]
	.loc 1 1445 5 is_stmt 1 discriminator 2
	.loc 1 1445 9 discriminator 2
	.loc 1 1445 22 is_stmt 0 discriminator 2
	movs	r0, #0
	strb	r0, [r4, #68]
	.loc 1 1445 7 is_stmt 1 discriminator 2
	.loc 1 1452 3 discriminator 2
	.loc 1 1452 10 is_stmt 0 discriminator 2
	b	.L386
.LVL199:
.L387:
	.loc 1 1449 12
	movs	r0, #1
.LVL200:
.L386:
	.loc 1 1453 1
	pop	{r3, r4, r5, pc}
.LVL201:
.L388:
	.loc 1 1433 49
	movs	r0, #2
.LVL202:
	b	.L386
	.cfi_endproc
.LFE349:
	.size	HAL_NOR_WriteOperation_Enable, .-HAL_NOR_WriteOperation_Enable
	.section	.text.HAL_NOR_WriteOperation_Disable,"ax",%progbits
	.align	1
	.global	HAL_NOR_WriteOperation_Disable
	.syntax unified
	.thumb
	.thumb_func
	.type	HAL_NOR_WriteOperation_Disable, %function
HAL_NOR_WriteOperation_Disable:
.LFB350:
	.loc 1 1462 1 is_stmt 1
	.cfi_startproc
	@ args = 0, pretend = 0, frame = 0
	@ frame_needed = 0, uses_anonymous_args = 0
.LVL203:
	.loc 1 1464 3
	.loc 1 1464 11 is_stmt 0
	ldrb	r3, [r0, #69]	@ zero_extendqisi2
	uxtb	r3, r3
	.loc 1 1464 6
	cmp	r3, #1
	bne	.L392
	.loc 1 1462 1
	push	{r4, lr}
	.cfi_def_cfa_offset 8
	.cfi_offset 4, -8
	.cfi_offset 14, -4
	mov	r4, r0
	.loc 1 1467 5 is_stmt 1
	.loc 1 1467 9
	.loc 1 1467 18 is_stmt 0
	ldrb	r3, [r0, #68]	@ zero_extendqisi2
	.loc 1 1467 11
	cmp	r3, #1
	beq	.L393
	.loc 1 1467 68 is_stmt 1 discriminator 2
	.loc 1 1467 81 is_stmt 0 discriminator 2
	movs	r3, #1
	strb	r3, [r0, #68]
	.loc 1 1467 7 is_stmt 1 discriminator 2
	.loc 1 1470 5 discriminator 2
	.loc 1 1470 17 is_stmt 0 discriminator 2
	movs	r3, #2
	strb	r3, [r0, #69]
	.loc 1 1473 5 is_stmt 1 discriminator 2
	.loc 1 1473 11 is_stmt 0 discriminator 2
	ldr	r1, [r0, #8]
	ldr	r0, [r0]
.LVL204:
	bl	FMC_NORSRAM_WriteOperation_Disable
.LVL205:
	.loc 1 1476 5 is_stmt 1 discriminator 2
	.loc 1 1476 17 is_stmt 0 discriminator 2
	movs	r3, #4
	strb	r3, [r4, #69]
	.loc 1 1479 5 is_stmt 1 discriminator 2
	.loc 1 1479 9 discriminator 2
	.loc 1 1479 22 is_stmt 0 discriminator 2
	movs	r0, #0
	strb	r0, [r4, #68]
	.loc 1 1479 7 is_stmt 1 discriminator 2
	.loc 1 1486 3 discriminator 2
.L391:
	.loc 1 1487 1 is_stmt 0
	pop	{r4, pc}
.LVL206:
.L392:
	.cfi_def_cfa_offset 0
	.cfi_restore 4
	.cfi_restore 14
	.loc 1 1483 12
	movs	r0, #1
.LVL207:
	.loc 1 1487 1
	bx	lr
.LVL208:
.L393:
	.cfi_def_cfa_offset 8
	.cfi_offset 4, -8
	.cfi_offset 14, -4
	.loc 1 1467 49
	movs	r0, #2
.LVL209:
	b	.L391
	.cfi_endproc
.LFE350:
	.size	HAL_NOR_WriteOperation_Disable, .-HAL_NOR_WriteOperation_Disable
	.section	.text.HAL_NOR_GetState,"ax",%progbits
	.align	1
	.global	HAL_NOR_GetState
	.syntax unified
	.thumb
	.thumb_func
	.type	HAL_NOR_GetState, %function
HAL_NOR_GetState:
.LFB351:
	.loc 1 1515 1 is_stmt 1
	.cfi_startproc
	@ args = 0, pretend = 0, frame = 0
	@ frame_needed = 0, uses_anonymous_args = 0
	@ link register save eliminated.
.LVL210:
	.loc 1 1516 3
	.loc 1 1516 14 is_stmt 0
	ldrb	r0, [r0, #69]	@ zero_extendqisi2
.LVL211:
	.loc 1 1517 1
	bx	lr
	.cfi_endproc
.LFE351:
	.size	HAL_NOR_GetState, .-HAL_NOR_GetState
	.section	.text.HAL_NOR_GetStatus,"ax",%progbits
	.align	1
	.global	HAL_NOR_GetStatus
	.syntax unified
	.thumb
	.thumb_func
	.type	HAL_NOR_GetStatus, %function
HAL_NOR_GetStatus:
.LFB352:
	.loc 1 1529 1 is_stmt 1
	.cfi_startproc
	@ args = 0, pretend = 0, frame = 0
	@ frame_needed = 0, uses_anonymous_args = 0
.LVL212:
	push	{r3, r4, r5, r6, r7, lr}
	.cfi_def_cfa_offset 24
	.cfi_offset 3, -24
	.cfi_offset 4, -20
	.cfi_offset 5, -16
	.cfi_offset 6, -12
	.cfi_offset 7, -8
	.cfi_offset 14, -4
	mov	r6, r0
	mov	r4, r1
	mov	r5, r2
	.loc 1 1530 3
.LVL213:
	.loc 1 1531 3
	.loc 1 1532 3
	.loc 1 1533 3
	.loc 1 1536 3
	mov	r1, r2
.LVL214:
	bl	HAL_NOR_MspWait
.LVL215:
	.loc 1 1541 3
	.loc 1 1541 15 is_stmt 0
	bl	HAL_GetTick
.LVL216:
	mov	r7, r0
.LVL217:
	.loc 1 1543 3 is_stmt 1
	.loc 1 1543 11 is_stmt 0
	ldr	r3, [r6, #72]
	.loc 1 1543 6
	cmp	r3, #2
	beq	.L422
	.loc 1 1585 8 is_stmt 1
	.loc 1 1585 11 is_stmt 0
	cmp	r3, #1
	beq	.L408
	.loc 1 1618 12
	movs	r6, #2
.LVL218:
.L403:
	.loc 1 1623 1
	mov	r0, r6
	pop	{r3, r4, r5, r6, r7, pc}
.LVL219:
.L424:
	.loc 1 1550 9 is_stmt 1
	.loc 1 1550 15 is_stmt 0
	bl	HAL_GetTick
.LVL220:
	.loc 1 1550 29
	subs	r0, r0, r7
	.loc 1 1550 12
	cmp	r0, r5
	bhi	.L410
	.loc 1 1550 53 discriminator 1
	cbnz	r5, .L402
	.loc 1 1552 18
	movs	r6, #3
.LVL221:
	b	.L402
.LVL222:
.L410:
	movs	r6, #3
.LVL223:
	b	.L402
.LVL224:
.L404:
	.loc 1 1571 7 is_stmt 1
	.loc 1 1571 14 is_stmt 0
	ldrh	r2, [r4]
.LVL225:
	uxth	r2, r2
.LVL226:
	.loc 1 1572 7 is_stmt 1
	.loc 1 1572 14 is_stmt 0
	ldrh	r3, [r4]
	uxth	r3, r3
.LVL227:
	.loc 1 1575 7 is_stmt 1
	.loc 1 1575 39 is_stmt 0
	eors	r3, r3, r2
.LVL228:
	.loc 1 1575 10
	tst	r3, #64
	beq	.L414
	.loc 1 1579 7 is_stmt 1
	.loc 1 1579 10 is_stmt 0
	tst	r2, #32
	bne	.L423
.LVL229:
.L400:
	.loc 1 1545 47 is_stmt 1
	.loc 1 1545 58 is_stmt 0
	subs	r3, r6, #3
	it	ne
	movne	r3, #1
	.loc 1 1545 47
	cmp	r6, #0
	beq	.L403
	cmp	r3, #0
	beq	.L403
	.loc 1 1548 7 is_stmt 1
	.loc 1 1548 10 is_stmt 0
	cmp	r5, #-1
	bne	.L424
.LVL230:
.L402:
	.loc 1 1557 7 is_stmt 1
	.loc 1 1557 14 is_stmt 0
	ldrh	r2, [r4]
	uxth	r2, r2
.LVL231:
	.loc 1 1558 7 is_stmt 1
	.loc 1 1558 14 is_stmt 0
	ldrh	r3, [r4]
	uxth	r3, r3
.LVL232:
	.loc 1 1561 7 is_stmt 1
	.loc 1 1561 39 is_stmt 0
	eors	r3, r3, r2
.LVL233:
	.loc 1 1561 10
	tst	r3, #64
	beq	.L412
	.loc 1 1566 7 is_stmt 1
	.loc 1 1566 10 is_stmt 0
	tst	r2, #32
	beq	.L404
	.loc 1 1568 16
	movs	r6, #1
.LVL234:
	b	.L404
.LVL235:
.L422:
	.loc 1 1530 25
	movs	r6, #1
.LVL236:
	b	.L400
.LVL237:
.L407:
	.loc 1 1600 42 is_stmt 1
	tst	r6, #128
	bne	.L425
.LVL238:
.L408:
	.loc 1 1587 5
	.loc 1 1589 7
	.loc 1 1589 11
	.loc 1 1589 56 is_stmt 0
	movs	r3, #112
	strh	r3, [r4]	@ movhi
	.loc 1 1589 79 is_stmt 1
.LBB292:
.LBB293:
	.loc 2 946 3
	.syntax unified
@ 946 "d:\rtos\board\yd-stm32h7xxvx_classicv19\cmake-build-debug\_deps\stm32h7xx_cmsis_include\drivers\cmsis\include\cmsis_gcc.h" 1
	dsb 0xF
@ 0 "" 2
	.thumb
	.syntax unified
.LBE293:
.LBE292:
	.loc 1 1589 9
	.loc 1 1590 7
	.loc 1 1590 14 is_stmt 0
	ldrh	r3, [r4]
	uxth	r6, r3
.LVL239:
	.loc 1 1593 7 is_stmt 1
	.loc 1 1593 10 is_stmt 0
	cmp	r5, #-1
	beq	.L407
	.loc 1 1595 9 is_stmt 1
	.loc 1 1595 15 is_stmt 0
	bl	HAL_GetTick
.LVL240:
	.loc 1 1595 29
	subs	r0, r0, r7
	.loc 1 1595 12
	cmp	r0, r5
	bhi	.L417
	.loc 1 1595 53 discriminator 1
	cmp	r5, #0
	bne	.L407
	.loc 1 1597 18
	movs	r6, #3
.LVL241:
	b	.L403
.LVL242:
.L425:
	.loc 1 1602 5 is_stmt 1
	.loc 1 1602 9
	.loc 1 1602 54 is_stmt 0
	movs	r3, #112
	strh	r3, [r4]	@ movhi
	.loc 1 1602 77 is_stmt 1
.LBB294:
.LBB295:
	.loc 2 946 3
	.syntax unified
@ 946 "d:\rtos\board\yd-stm32h7xxvx_classicv19\cmake-build-debug\_deps\stm32h7xx_cmsis_include\drivers\cmsis\include\cmsis_gcc.h" 1
	dsb 0xF
@ 0 "" 2
	.thumb
	.syntax unified
.LBE295:
.LBE294:
	.loc 1 1602 7
	.loc 1 1603 5
	.loc 1 1603 12 is_stmt 0
	ldrh	r3, [r4]
.LVL243:
	.loc 1 1604 5 is_stmt 1
	.loc 1 1604 8 is_stmt 0
	and	r3, r3, #48
.LVL244:
	cbnz	r3, .L426
	.loc 1 1612 14
	movs	r6, #0
.LVL245:
	b	.L403
.LVL246:
.L426:
	.loc 1 1607 7 is_stmt 1
	.loc 1 1607 11
	.loc 1 1607 56 is_stmt 0
	movs	r3, #112
	strh	r3, [r4]	@ movhi
	.loc 1 1607 79 is_stmt 1
.LBB296:
.LBB297:
	.loc 2 946 3
	.syntax unified
@ 946 "d:\rtos\board\yd-stm32h7xxvx_classicv19\cmake-build-debug\_deps\stm32h7xx_cmsis_include\drivers\cmsis\include\cmsis_gcc.h" 1
	dsb 0xF
@ 0 "" 2
	.thumb
	.syntax unified
.LBE297:
.LBE296:
	.loc 1 1607 9
	.loc 1 1608 7
.LVL247:
	.loc 1 1608 14 is_stmt 0
	movs	r6, #2
.LVL248:
	b	.L403
.LVL249:
.L412:
	.loc 1 1563 16
	movs	r6, #0
.LVL250:
	b	.L403
.LVL251:
.L414:
	.loc 1 1577 16
	movs	r6, #0
.LVL252:
	b	.L403
.LVL253:
.L423:
	.loc 1 1581 16
	movs	r6, #2
.LVL254:
	b	.L403
.LVL255:
.L417:
	.loc 1 1597 18
	movs	r6, #3
.LVL256:
	b	.L403
	.cfi_endproc
.LFE352:
	.size	HAL_NOR_GetStatus, .-HAL_NOR_GetStatus
	.section	.bss.uwNORMemoryDataWidth,"aw",%nobits
	.align	2
	.type	uwNORMemoryDataWidth, %object
	.size	uwNORMemoryDataWidth, 4
uwNORMemoryDataWidth:
	.space	4
	.text
.Letext0:
	.file 3 "m:\\noinstall\\arm-gnu-toolchain-12.2.rel1-mingw-w64-i686-arm-none-eabi\\arm-none-eabi\\include\\machine\\_default_types.h"
	.file 4 "m:\\noinstall\\arm-gnu-toolchain-12.2.rel1-mingw-w64-i686-arm-none-eabi\\arm-none-eabi\\include\\sys\\_stdint.h"
	.file 5 "D:/RTOS/Board/YD-STM32H7xxVx_ClassicV19/cmake-build-debug/_deps/stm32h7xx_cmsis_device-src/Include/stm32h743xx.h"
	.file 6 "D:/RTOS/Board/YD-STM32H7xxVx_ClassicV19/cmake-build-debug/_deps/stm32h7xx_hal_driver-src/Inc/stm32h7xx_hal_def.h"
	.file 7 "D:/RTOS/Board/YD-STM32H7xxVx_ClassicV19/cmake-build-debug/_deps/stm32h7xx_hal_driver-src/Inc/stm32h7xx_ll_fmc.h"
	.file 8 "D:/RTOS/Board/YD-STM32H7xxVx_ClassicV19/cmake-build-debug/_deps/stm32h7xx_hal_driver-src/Inc/stm32h7xx_hal_nor.h"
	.file 9 "D:/RTOS/Board/YD-STM32H7xxVx_ClassicV19/cmake-build-debug/_deps/stm32h7xx_hal_driver-src/Inc/stm32h7xx_hal.h"