	.cpu cortex-m7
	.arch armv7e-m
	.fpu fpv5-d16
	.eabi_attribute 28, 1
	.eabi_attribute 20, 1
	.eabi_attribute 21, 1
	.eabi_attribute 23, 3
	.eabi_attribute 24, 1
	.eabi_attribute 25, 1
	.eabi_attribute 26, 1
	.eabi_attribute 30, 1
	.eabi_attribute 34, 1
	.eabi_attribute 18, 4
	.file	"stm32h7xx_hal_tim.c"
	.text
.Ltext0:
	.cfi_sections	.debug_frame
	.file 1 "D:/RTOS/Board/YD-STM32H7xxVx_ClassicV19/cmake-build-debug/_deps/stm32h7xx_hal_driver-src/Src/stm32h7xx_hal_tim.c"
	.section	.text.TIM_OC1_SetConfig,"ax",%progbits
	.align	1
	.syntax unified
	.thumb
	.thumb_func
	.type	TIM_OC1_SetConfig, %function
TIM_OC1_SetConfig:
.LFB440:
	.loc 1 6991 1
	.cfi_startproc
	@ args = 0, pretend = 0, frame = 0
	@ frame_needed = 0, uses_anonymous_args = 0
	@ link register save eliminated.
.LVL0:
	push	{r4, r5, r6, r7}
	.cfi_def_cfa_offset 16
	.cfi_offset 4, -16
	.cfi_offset 5, -12
	.cfi_offset 6, -8
	.cfi_offset 7, -4
	.loc 1 6992 3
	.loc 1 6993 3
	.loc 1 6994 3
	.loc 1 6997 3
	.loc 1 6997 11 is_stmt 0
	ldr	r2, [r0, #32]
.LVL1:
	.loc 1 7000 3 is_stmt 1
	.loc 1 7000 7 is_stmt 0
	ldr	r3, [r0, #32]
	.loc 1 7000 14
	bic	r3, r3, #1
	str	r3, [r0, #32]
	.loc 1 7003 3 is_stmt 1
	.loc 1 7003 10 is_stmt 0
	ldr	r6, [r0, #4]
.LVL2:
	.loc 1 7006 3 is_stmt 1
	.loc 1 7006 12 is_stmt 0
	ldr	r4, [r0, #24]
.LVL3:
	.loc 1 7009 3 is_stmt 1
	.loc 1 7010 3
	.loc 1 7010 12 is_stmt 0
	ldr	r3, .L7
	ands	r3, r3, r4
.LVL4:
	.loc 1 7012 3 is_stmt 1
	.loc 1 7012 24 is_stmt 0
	ldr	r5, [r1]
	.loc 1 7012 12
	orrs	r5, r5, r3
.LVL5:
	.loc 1 7015 3 is_stmt 1
	.loc 1 7015 11 is_stmt 0
	bic	r2, r2, #2
.LVL6:
	.loc 1 7017 3 is_stmt 1
	.loc 1 7017 23 is_stmt 0
	ldr	r3, [r1, #8]
	.loc 1 7017 11
	orrs	r3, r3, r2
.LVL7:
	.loc 1 7019 3 is_stmt 1
	.loc 1 7019 84 is_stmt 0
	ldr	r2, .L7+4
	.loc 1 7019 268
	ldr	r4, .L7+8
	.loc 1 7019 6
	cmp	r0, r4
	it	ne
	cmpne	r0, r2
	ite	eq
	moveq	r2, #1
	movne	r2, #0
	beq	.L2
	.loc 1 7019 566 discriminator 1
	add	r4, r4, #16384
	cmp	r0, r4
	ite	ne
	movne	r4, #0
	moveq	r4, #1
	.loc 1 7019 487 discriminator 1
	ldr	r7, .L7+12
	cmp	r0, r7
	beq	.L2
	cbnz	r4, .L2
	.loc 1 7019 601 discriminator 2
	ldr	r4, .L7+16
	cmp	r0, r4
	bne	.L3
.L2:
	.loc 1 7022 5 is_stmt 1
	.loc 1 7025 5
	.loc 1 7025 13 is_stmt 0
	bic	r3, r3, #8
.LVL8:
	.loc 1 7027 5 is_stmt 1
	.loc 1 7027 13 is_stmt 0
	ldr	r4, [r1, #12]
	orrs	r3, r3, r4
.LVL9:
	.loc 1 7029 5 is_stmt 1
	.loc 1 7029 13 is_stmt 0
	bic	r3, r3, #4
.LVL10:
.L3:
	.loc 1 7032 3 is_stmt 1
	.loc 1 7032 6 is_stmt 0
	cbnz	r2, .L4
	.loc 1 7032 250 discriminator 1
	ldr	r2, .L7+20
	cmp	r0, r2
	ite	ne
	movne	r2, #0
	moveq	r2, #1
	.loc 1 7032 239 discriminator 1
	ldr	r4, .L7+12
	cmp	r0, r4
	beq	.L4
	cbnz	r2, .L4
	.loc 1 7032 317 discriminator 2
	ldr	r2, .L7+16
	cmp	r0, r2
	bne	.L5
.L4:
	.loc 1 7035 5 is_stmt 1
	.loc 1 7036 5
	.loc 1 7039 5
.LVL11:
	.loc 1 7040 5
	.loc 1 7040 12 is_stmt 0
	bic	r6, r6, #768
.LVL12:
	.loc 1 7042 5 is_stmt 1
	.loc 1 7042 24 is_stmt 0
	ldr	r2, [r1, #20]
	.loc 1 7042 12
	orrs	r2, r2, r6
.LVL13:
	.loc 1 7044 5 is_stmt 1
	.loc 1 7044 24 is_stmt 0
	ldr	r6, [r1, #24]
	.loc 1 7044 12
	orrs	r6, r6, r2
.LVL14:
.L5:
	.loc 1 7048 3 is_stmt 1
	.loc 1 7048 13 is_stmt 0
	str	r6, [r0, #4]
	.loc 1 7051 3 is_stmt 1
	.loc 1 7051 15 is_stmt 0
	str	r5, [r0, #24]
	.loc 1 7054 3 is_stmt 1
	.loc 1 7054 25 is_stmt 0
	ldr	r2, [r1, #4]
	.loc 1 7054 14
	str	r2, [r0, #52]
	.loc 1 7057 3 is_stmt 1
	.loc 1 7057 14 is_stmt 0
	str	r3, [r0, #32]
	.loc 1 7058 1
	pop	{r4, r5, r6, r7}
	.cfi_restore 7
	.cfi_restore 6
	.cfi_restore 5
	.cfi_restore 4
	.cfi_def_cfa_offset 0
.LVL15:
	bx	lr
.L8:
	.align	2
.L7:
	.word	-65652
	.word	1073807360
	.word	1073808384
	.word	1073823744
	.word	1073825792
	.word	1073824768
	.cfi_endproc
.LFE440:
	.size	TIM_OC1_SetConfig, .-TIM_OC1_SetConfig
	.section	.text.TIM_OC3_SetConfig,"ax",%progbits
	.align	1
	.syntax unified
	.thumb
	.thumb_func
	.type	TIM_OC3_SetConfig, %function
TIM_OC3_SetConfig:
.LFB442:
	.loc 1 7143 1 is_stmt 1
	.cfi_startproc
	@ args = 0, pretend = 0, frame = 0
	@ frame_needed = 0, uses_anonymous_args = 0
	@ link register save eliminated.
.LVL16:
	push	{r4, r5, r6}
	.cfi_def_cfa_offset 12
	.cfi_offset 4, -12
	.cfi_offset 5, -8
	.cfi_offset 6, -4
	.loc 1 7144 3
	.loc 1 7145 3
	.loc 1 7146 3
	.loc 1 7149 3
	.loc 1 7149 11 is_stmt 0
	ldr	r3, [r0, #32]
.LVL17:
	.loc 1 7152 3 is_stmt 1
	.loc 1 7152 7 is_stmt 0
	ldr	r2, [r0, #32]
	.loc 1 7152 14
	bic	r2, r2, #256
	str	r2, [r0, #32]
	.loc 1 7155 3 is_stmt 1
	.loc 1 7155 10 is_stmt 0
	ldr	r5, [r0, #4]
.LVL18:
	.loc 1 7158 3 is_stmt 1
	.loc 1 7158 12 is_stmt 0
	ldr	r4, [r0, #28]
.LVL19:
	.loc 1 7161 3 is_stmt 1
	.loc 1 7162 3
	.loc 1 7162 12 is_stmt 0
	ldr	r2, .L14
	ands	r2, r2, r4
.LVL20:
	.loc 1 7164 3 is_stmt 1
	.loc 1 7164 24 is_stmt 0
	ldr	r6, [r1]
	.loc 1 7164 12
	orrs	r6, r6, r2
.LVL21:
	.loc 1 7167 3 is_stmt 1
	.loc 1 7167 11 is_stmt 0
	bic	r3, r3, #512
.LVL22:
	.loc 1 7169 3 is_stmt 1
	.loc 1 7169 24 is_stmt 0
	ldr	r2, [r1, #8]
	.loc 1 7169 11
	orr	r3, r3, r2, lsl #8
.LVL23:
	.loc 1 7171 3 is_stmt 1
	.loc 1 7171 84 is_stmt 0
	ldr	r2, .L14+4
	.loc 1 7171 268
	ldr	r4, .L14+8
	.loc 1 7171 6
	cmp	r0, r4
	it	ne
	cmpne	r0, r2
	ite	eq
	moveq	r2, #1
	movne	r2, #0
	bne	.L10
	.loc 1 7173 5 is_stmt 1
	.loc 1 7176 5
	.loc 1 7176 13 is_stmt 0
	bic	r3, r3, #2048
.LVL24:
	.loc 1 7178 5 is_stmt 1
	.loc 1 7178 26 is_stmt 0
	ldr	r4, [r1, #12]
	.loc 1 7178 13
	orr	r3, r3, r4, lsl #8
.LVL25:
	.loc 1 7180 5 is_stmt 1
	.loc 1 7180 13 is_stmt 0
	bic	r3, r3, #1024
.LVL26:
.L10:
	.loc 1 7183 3 is_stmt 1
	.loc 1 7183 6 is_stmt 0
	cbnz	r2, .L11
	.loc 1 7183 250 discriminator 1
	ldr	r2, .L14+12
	cmp	r0, r2
	ite	ne
	movne	r2, #0
	moveq	r2, #1
	.loc 1 7183 239 discriminator 1
	ldr	r4, .L14+16
	cmp	r0, r4
	beq	.L11
	cbnz	r2, .L11
	.loc 1 7183 317 discriminator 2
	ldr	r2, .L14+20
	cmp	r0, r2
	bne	.L12
.L11:
	.loc 1 7186 5 is_stmt 1
	.loc 1 7187 5
	.loc 1 7190 5
.LVL27:
	.loc 1 7191 5
	.loc 1 7191 12 is_stmt 0
	bic	r2, r5, #12288
.LVL28:
	.loc 1 7193 5 is_stmt 1
	.loc 1 7193 25 is_stmt 0
	ldr	r4, [r1, #20]
	.loc 1 7193 12
	orr	r2, r2, r4, lsl #4
.LVL29:
	.loc 1 7195 5 is_stmt 1
	.loc 1 7195 25 is_stmt 0
	ldr	r4, [r1, #24]
	.loc 1 7195 12
	orr	r5, r2, r4, lsl #4
.LVL30:
.L12:
	.loc 1 7199 3 is_stmt 1
	.loc 1 7199 13 is_stmt 0
	str	r5, [r0, #4]
	.loc 1 7202 3 is_stmt 1
	.loc 1 7202 15 is_stmt 0
	str	r6, [r0, #28]
	.loc 1 7205 3 is_stmt 1
	.loc 1 7205 25 is_stmt 0
	ldr	r2, [r1, #4]
	.loc 1 7205 14
	str	r2, [r0, #60]
	.loc 1 7208 3 is_stmt 1
	.loc 1 7208 14 is_stmt 0
	str	r3, [r0, #32]
	.loc 1 7209 1
	pop	{r4, r5, r6}
	.cfi_restore 6
	.cfi_restore 5
	.cfi_restore 4
	.cfi_def_cfa_offset 0
.LVL31:
	bx	lr
.L15:
	.align	2
.L14:
	.word	-65652
	.word	1073807360
	.word	1073808384
	.word	1073824768
	.word	1073823744
	.word	1073825792
	.cfi_endproc
.LFE442:
	.size	TIM_OC3_SetConfig, .-TIM_OC3_SetConfig
	.section	.text.TIM_OC4_SetConfig,"ax",%progbits
	.align	1
	.syntax unified
	.thumb
	.thumb_func
	.type	TIM_OC4_SetConfig, %function
TIM_OC4_SetConfig:
.LFB443:
	.loc 1 7218 1 is_stmt 1
	.cfi_startproc
	@ args = 0, pretend = 0, frame = 0
	@ frame_needed = 0, uses_anonymous_args = 0
	@ link register save eliminated.
.LVL32:
	push	{r4, r5, r6}
	.cfi_def_cfa_offset 12
	.cfi_offset 4, -12
	.cfi_offset 5, -8
	.cfi_offset 6, -4
	.loc 1 7219 3
	.loc 1 7220 3
	.loc 1 7221 3
	.loc 1 7224 3
	.loc 1 7224 11 is_stmt 0
	ldr	r3, [r0, #32]
.LVL33:
	.loc 1 7227 3 is_stmt 1
	.loc 1 7227 7 is_stmt 0
	ldr	r2, [r0, #32]
	.loc 1 7227 14
	bic	r2, r2, #4096
	str	r2, [r0, #32]
	.loc 1 7230 3 is_stmt 1
	.loc 1 7230 10 is_stmt 0
	ldr	r4, [r0, #4]
.LVL34:
	.loc 1 7233 3 is_stmt 1
	.loc 1 7233 12 is_stmt 0
	ldr	r5, [r0, #28]
.LVL35:
	.loc 1 7236 3 is_stmt 1
	.loc 1 7237 3
	.loc 1 7237 12 is_stmt 0
	ldr	r2, .L20
	ands	r2, r2, r5
.LVL36:
	.loc 1 7240 3 is_stmt 1
	.loc 1 7240 25 is_stmt 0
	ldr	r5, [r1]
	.loc 1 7240 12
	orr	r2, r2, r5, lsl #8
.LVL37:
	.loc 1 7243 3 is_stmt 1
	.loc 1 7243 11 is_stmt 0
	bic	r3, r3, #8192
.LVL38:
	.loc 1 7245 3 is_stmt 1
	.loc 1 7245 24 is_stmt 0
	ldr	r5, [r1, #8]
	.loc 1 7245 11
	orr	r3, r3, r5, lsl #12
.LVL39:
	.loc 1 7247 3 is_stmt 1
	.loc 1 7247 6 is_stmt 0
	ldr	r6, .L20+4
	ldr	r5, .L20+8
	cmp	r0, r5
	it	ne
	cmpne	r0, r6
	beq	.L17
	.loc 1 7247 250 discriminator 1
	add	r5, r5, #16384
	cmp	r0, r5
	ite	ne
	movne	r5, #0
	moveq	r5, #1
	.loc 1 7247 239 discriminator 1
	add	r6, r6, #16384
	cmp	r0, r6
	beq	.L17
	cbnz	r5, .L17
	.loc 1 7247 317 discriminator 2
	ldr	r5, .L20+12
	cmp	r0, r5
	bne	.L18
.L17:
	.loc 1 7250 5 is_stmt 1
	.loc 1 7253 5
	.loc 1 7253 12 is_stmt 0
	bic	r4, r4, #16384
.LVL40:
	.loc 1 7256 5 is_stmt 1
	.loc 1 7256 25 is_stmt 0
	ldr	r5, [r1, #20]
	.loc 1 7256 12
	orr	r4, r4, r5, lsl #6
.LVL41:
.L18:
	.loc 1 7260 3 is_stmt 1
	.loc 1 7260 13 is_stmt 0
	str	r4, [r0, #4]
	.loc 1 7263 3 is_stmt 1
	.loc 1 7263 15 is_stmt 0
	str	r2, [r0, #28]
	.loc 1 7266 3 is_stmt 1
	.loc 1 7266 25 is_stmt 0
	ldr	r2, [r1, #4]
.LVL42:
	.loc 1 7266 14
	str	r2, [r0, #64]
.LVL43:
	.loc 1 7269 3 is_stmt 1
	.loc 1 7269 14 is_stmt 0
	str	r3, [r0, #32]
	.loc 1 7270 1
	pop	{r4, r5, r6}
	.cfi_restore 6
	.cfi_restore 5
	.cfi_restore 4
	.cfi_def_cfa_offset 0
.LVL44:
	bx	lr
.L21:
	.align	2
.L20:
	.word	-16806657
	.word	1073807360
	.word	1073808384
	.word	1073825792
	.cfi_endproc
.LFE443:
	.size	TIM_OC4_SetConfig, .-TIM_OC4_SetConfig
	.section	.text.TIM_OC5_SetConfig,"ax",%progbits
	.align	1
	.syntax unified
	.thumb
	.thumb_func
	.type	TIM_OC5_SetConfig, %function
TIM_OC5_SetConfig:
.LFB444:
	.loc 1 7280 1 is_stmt 1
	.cfi_startproc
	@ args = 0, pretend = 0, frame = 0
	@ frame_needed = 0, uses_anonymous_args = 0
	@ link register save eliminated.
.LVL45:
	push	{r4, r5, r6}
	.cfi_def_cfa_offset 12
	.cfi_offset 4, -12
	.cfi_offset 5, -8
	.cfi_offset 6, -4
	.loc 1 7281 3
	.loc 1 7282 3
	.loc 1 7283 3
	.loc 1 7286 3
	.loc 1 7286 11 is_stmt 0
	ldr	r3, [r0, #32]
.LVL46:
	.loc 1 7289 3 is_stmt 1
	.loc 1 7289 7 is_stmt 0
	ldr	r2, [r0, #32]
	.loc 1 7289 14
	bic	r2, r2, #65536
	str	r2, [r0, #32]
	.loc 1 7292 3 is_stmt 1
	.loc 1 7292 10 is_stmt 0
	ldr	r2, [r0, #4]
.LVL47:
	.loc 1 7294 3 is_stmt 1
	.loc 1 7294 12 is_stmt 0
	ldr	r5, [r0, #84]
.LVL48:
	.loc 1 7297 3 is_stmt 1
	.loc 1 7297 12 is_stmt 0
	ldr	r6, .L26
	ands	r6, r6, r5
.LVL49:
	.loc 1 7299 3 is_stmt 1
	.loc 1 7299 24 is_stmt 0
	ldr	r5, [r1]
	.loc 1 7299 12
	orrs	r6, r6, r5
.LVL50:
	.loc 1 7302 3 is_stmt 1
	.loc 1 7302 11 is_stmt 0
	bic	r3, r3, #131072
.LVL51:
	.loc 1 7304 3 is_stmt 1
	.loc 1 7304 24 is_stmt 0
	ldr	r4, [r1, #8]
	.loc 1 7304 11
	orr	r3, r3, r4, lsl #16
.LVL52:
	.loc 1 7306 3 is_stmt 1
	.loc 1 7306 6 is_stmt 0
	ldr	r5, .L26+4
	ldr	r4, .L26+8
	cmp	r0, r4
	it	ne
	cmpne	r0, r5
	beq	.L23
	.loc 1 7306 250 discriminator 1
	add	r4, r4, #16384
	cmp	r0, r4
	ite	ne
	movne	r4, #0
	moveq	r4, #1
	.loc 1 7306 239 discriminator 1
	add	r5, r5, #16384
	cmp	r0, r5
	beq	.L23
	cbnz	r4, .L23
	.loc 1 7306 317 discriminator 2
	ldr	r4, .L26+12
	cmp	r0, r4
	bne	.L24
.L23:
	.loc 1 7309 5 is_stmt 1
	.loc 1 7309 12 is_stmt 0
	bic	r2, r2, #65536
.LVL53:
	.loc 1 7311 5 is_stmt 1
	.loc 1 7311 25 is_stmt 0
	ldr	r4, [r1, #20]
	.loc 1 7311 12
	orr	r2, r2, r4, lsl #8
.LVL54:
.L24:
	.loc 1 7314 3 is_stmt 1
	.loc 1 7314 13 is_stmt 0
	str	r2, [r0, #4]
	.loc 1 7317 3 is_stmt 1
	.loc 1 7317 15 is_stmt 0
	str	r6, [r0, #84]
	.loc 1 7320 3 is_stmt 1
	.loc 1 7320 25 is_stmt 0
	ldr	r2, [r1, #4]
.LVL55:
	.loc 1 7320 14
	str	r2, [r0, #88]
	.loc 1 7323 3 is_stmt 1
	.loc 1 7323 14 is_stmt 0
	str	r3, [r0, #32]
	.loc 1 7324 1
	pop	{r4, r5, r6}
	.cfi_restore 6
	.cfi_restore 5
	.cfi_restore 4
	.cfi_def_cfa_offset 0
.LVL56:
	bx	lr
.L27:
	.align	2
.L26:
	.word	-65649
	.word	1073807360
	.word	1073808384
	.word	1073825792
	.cfi_endproc
.LFE444:
	.size	TIM_OC5_SetConfig, .-TIM_OC5_SetConfig
	.section	.text.TIM_OC6_SetConfig,"ax",%progbits
	.align	1
	.syntax unified
	.thumb
	.thumb_func
	.type	TIM_OC6_SetConfig, %function
TIM_OC6_SetConfig:
.LFB445:
	.loc 1 7334 1 is_stmt 1
	.cfi_startproc
	@ args = 0, pretend = 0, frame = 0
	@ frame_needed = 0, uses_anonymous_args = 0
	@ link register save eliminated.
.LVL57:
	push	{r4, r5, r6}
	.cfi_def_cfa_offset 12
	.cfi_offset 4, -12
	.cfi_offset 5, -8
	.cfi_offset 6, -4
	.loc 1 7335 3
	.loc 1 7336 3
	.loc 1 7337 3
	.loc 1 7340 3
	.loc 1 7340 11 is_stmt 0
	ldr	r3, [r0, #32]
.LVL58:
	.loc 1 7343 3 is_stmt 1
	.loc 1 7343 7 is_stmt 0
	ldr	r2, [r0, #32]
	.loc 1 7343 14
	bic	r2, r2, #1048576
	str	r2, [r0, #32]
	.loc 1 7346 3 is_stmt 1
	.loc 1 7346 10 is_stmt 0
	ldr	r4, [r0, #4]
.LVL59:
	.loc 1 7348 3 is_stmt 1
	.loc 1 7348 12 is_stmt 0
	ldr	r5, [r0, #84]
.LVL60:
	.loc 1 7351 3 is_stmt 1
	.loc 1 7351 12 is_stmt 0
	ldr	r2, .L32
	ands	r2, r2, r5
.LVL61:
	.loc 1 7353 3 is_stmt 1
	.loc 1 7353 25 is_stmt 0
	ldr	r5, [r1]
	.loc 1 7353 12
	orr	r2, r2, r5, lsl #8
.LVL62:
	.loc 1 7356 3 is_stmt 1
	.loc 1 7356 11 is_stmt 0
	bic	r3, r3, #2097152
.LVL63:
	.loc 1 7358 3 is_stmt 1
	.loc 1 7358 24 is_stmt 0
	ldr	r5, [r1, #8]
	.loc 1 7358 11
	orr	r3, r3, r5, lsl #20
.LVL64:
	.loc 1 7360 3 is_stmt 1
	.loc 1 7360 6 is_stmt 0
	ldr	r6, .L32+4
	ldr	r5, .L32+8
	cmp	r0, r5
	it	ne
	cmpne	r0, r6
	beq	.L29
	.loc 1 7360 250 discriminator 1
	add	r5, r5, #16384
	cmp	r0, r5
	ite	ne
	movne	r5, #0
	moveq	r5, #1
	.loc 1 7360 239 discriminator 1
	add	r6, r6, #16384
	cmp	r0, r6
	beq	.L29
	cbnz	r5, .L29
	.loc 1 7360 317 discriminator 2
	ldr	r5, .L32+12
	cmp	r0, r5
	bne	.L30
.L29:
	.loc 1 7363 5 is_stmt 1
	.loc 1 7363 12 is_stmt 0
	bic	r4, r4, #262144
.LVL65:
	.loc 1 7365 5 is_stmt 1
	.loc 1 7365 25 is_stmt 0
	ldr	r5, [r1, #20]
	.loc 1 7365 12
	orr	r4, r4, r5, lsl #10
.LVL66:
.L30:
	.loc 1 7369 3 is_stmt 1
	.loc 1 7369 13 is_stmt 0
	str	r4, [r0, #4]
	.loc 1 7372 3 is_stmt 1
	.loc 1 7372 15 is_stmt 0
	str	r2, [r0, #84]
	.loc 1 7375 3 is_stmt 1
	.loc 1 7375 25 is_stmt 0
	ldr	r2, [r1, #4]
.LVL67:
	.loc 1 7375 14
	str	r2, [r0, #92]
.LVL68:
	.loc 1 7378 3 is_stmt 1
	.loc 1 7378 14 is_stmt 0
	str	r3, [r0, #32]
	.loc 1 7379 1
	pop	{r4, r5, r6}
	.cfi_restore 6
	.cfi_restore 5
	.cfi_restore 4
	.cfi_def_cfa_offset 0
.LVL69:
	bx	lr
.L33:
	.align	2
.L32:
	.word	-16805889
	.word	1073807360
	.word	1073808384
	.word	1073825792
	.cfi_endproc
.LFE445:
	.size	TIM_OC6_SetConfig, .-TIM_OC6_SetConfig
	.section	.text.TIM_TI1_ConfigInputStage,"ax",%progbits
	.align	1
	.syntax unified
	.thumb
	.thumb_func
	.type	TIM_TI1_ConfigInputStage, %function
TIM_TI1_ConfigInputStage:
.LFB448:
	.loc 1 7579 1 is_stmt 1
	.cfi_startproc
	@ args = 0, pretend = 0, frame = 0
	@ frame_needed = 0, uses_anonymous_args = 0
	@ link register save eliminated.
.LVL70:
	push	{r4}
	.cfi_def_cfa_offset 4
	.cfi_offset 4, -4
	.loc 1 7580 3
	.loc 1 7581 3
	.loc 1 7584 3
	.loc 1 7584 11 is_stmt 0
	ldr	r3, [r0, #32]
.LVL71:
	.loc 1 7585 3 is_stmt 1
	.loc 1 7585 7 is_stmt 0
	ldr	r4, [r0, #32]
	.loc 1 7585 14
	bic	r4, r4, #1
	str	r4, [r0, #32]
	.loc 1 7586 3 is_stmt 1
	.loc 1 7586 12 is_stmt 0
	ldr	r4, [r0, #24]
.LVL72:
	.loc 1 7589 3 is_stmt 1
	.loc 1 7589 12 is_stmt 0
	bic	ip, r4, #240
.LVL73:
	.loc 1 7590 3 is_stmt 1
	.loc 1 7590 12 is_stmt 0
	orr	r2, ip, r2, lsl #4
.LVL74:
	.loc 1 7593 3 is_stmt 1
	.loc 1 7593 11 is_stmt 0
	bic	r3, r3, #10
.LVL75:
	.loc 1 7594 3 is_stmt 1
	.loc 1 7594 11 is_stmt 0
	orrs	r3, r3, r1
.LVL76:
	.loc 1 7597 3 is_stmt 1
	.loc 1 7597 15 is_stmt 0
	str	r2, [r0, #24]
	.loc 1 7598 3 is_stmt 1
	.loc 1 7598 14 is_stmt 0
	str	r3, [r0, #32]
	.loc 1 7599 1
	ldr	r4, [sp], #4
	.cfi_restore 4
	.cfi_def_cfa_offset 0
	bx	lr
	.cfi_endproc
.LFE448:
	.size	TIM_TI1_ConfigInputStage, .-TIM_TI1_ConfigInputStage
	.section	.text.TIM_TI2_SetConfig,"ax",%progbits
	.align	1
	.syntax unified
	.thumb
	.thumb_func
	.type	TIM_TI2_SetConfig, %function
TIM_TI2_SetConfig:
.LFB449:
	.loc 1 7623 1 is_stmt 1
	.cfi_startproc
	@ args = 0, pretend = 0, frame = 0
	@ frame_needed = 0, uses_anonymous_args = 0
	@ link register save eliminated.
.LVL77:
	push	{r4, r5}
	.cfi_def_cfa_offset 8
	.cfi_offset 4, -8
	.cfi_offset 5, -4
	.loc 1 7624 3
	.loc 1 7625 3
	.loc 1 7628 3
	.loc 1 7628 11 is_stmt 0
	ldr	r5, [r0, #32]
.LVL78:
	.loc 1 7629 3 is_stmt 1
	.loc 1 7629 7 is_stmt 0
	ldr	r4, [r0, #32]
	.loc 1 7629 14
	bic	r4, r4, #16
	str	r4, [r0, #32]
	.loc 1 7630 3 is_stmt 1
	.loc 1 7630 12 is_stmt 0
	ldr	r4, [r0, #24]
.LVL79:
	.loc 1 7633 3 is_stmt 1
	.loc 1 7633 12 is_stmt 0
	bic	ip, r4, #768
.LVL80:
	.loc 1 7634 3 is_stmt 1
	.loc 1 7634 12 is_stmt 0
	orr	ip, ip, r2, lsl #8
.LVL81:
	.loc 1 7637 3 is_stmt 1
	.loc 1 7637 12 is_stmt 0
	bic	ip, ip, #61440
.LVL82:
	.loc 1 7638 3 is_stmt 1
	.loc 1 7638 30 is_stmt 0
	lsls	r3, r3, #12
.LVL83:
	.loc 1 7638 38
	uxth	r3, r3
	.loc 1 7638 12
	orr	r3, r3, ip
.LVL84:
	.loc 1 7641 3 is_stmt 1
	.loc 1 7641 11 is_stmt 0
	bic	r5, r5, #160
.LVL85:
	.loc 1 7642 3 is_stmt 1
	.loc 1 7642 31 is_stmt 0
	lsls	r1, r1, #4
.LVL86:
	.loc 1 7642 38
	and	r1, r1, #160
	.loc 1 7642 11
	orrs	r1, r1, r5
.LVL87:
	.loc 1 7645 3 is_stmt 1
	.loc 1 7645 15 is_stmt 0
	str	r3, [r0, #24]
	.loc 1 7646 3 is_stmt 1
	.loc 1 7646 14 is_stmt 0
	str	r1, [r0, #32]
	.loc 1 7647 1
	pop	{r4, r5}
	.cfi_restore 5
	.cfi_restore 4
	.cfi_def_cfa_offset 0
	bx	lr
	.cfi_endproc
.LFE449:
	.size	TIM_TI2_SetConfig, .-TIM_TI2_SetConfig
	.section	.text.TIM_TI2_ConfigInputStage,"ax",%progbits
	.align	1
	.syntax unified
	.thumb
	.thumb_func
	.type	TIM_TI2_ConfigInputStage, %function
TIM_TI2_ConfigInputStage:
.LFB450:
	.loc 1 7662 1 is_stmt 1
	.cfi_startproc
	@ args = 0, pretend = 0, frame = 0
	@ frame_needed = 0, uses_anonymous_args = 0
	@ link register save eliminated.
.LVL88:
	push	{r4}
	.cfi_def_cfa_offset 4
	.cfi_offset 4, -4
	.loc 1 7663 3
	.loc 1 7664 3
	.loc 1 7667 3
	.loc 1 7667 11 is_stmt 0
	ldr	r3, [r0, #32]
.LVL89:
	.loc 1 7668 3 is_stmt 1
	.loc 1 7668 7 is_stmt 0
	ldr	r4, [r0, #32]
	.loc 1 7668 14
	bic	r4, r4, #16
	str	r4, [r0, #32]
	.loc 1 7669 3 is_stmt 1
	.loc 1 7669 12 is_stmt 0
	ldr	r4, [r0, #24]
.LVL90:
	.loc 1 7672 3 is_stmt 1
	.loc 1 7672 12 is_stmt 0
	bic	ip, r4, #61440
.LVL91:
	.loc 1 7673 3 is_stmt 1
	.loc 1 7673 12 is_stmt 0
	orr	r2, ip, r2, lsl #12
.LVL92:
	.loc 1 7676 3 is_stmt 1
	.loc 1 7676 11 is_stmt 0
	bic	r3, r3, #160
.LVL93:
	.loc 1 7677 3 is_stmt 1
	.loc 1 7677 11 is_stmt 0
	orr	r3, r3, r1, lsl #4
.LVL94:
	.loc 1 7680 3 is_stmt 1
	.loc 1 7680 15 is_stmt 0
	str	r2, [r0, #24]
	.loc 1 7681 3 is_stmt 1
	.loc 1 7681 14 is_stmt 0
	str	r3, [r0, #32]
	.loc 1 7682 1
	ldr	r4, [sp], #4
	.cfi_restore 4
	.cfi_def_cfa_offset 0
	bx	lr
	.cfi_endproc
.LFE450:
	.size	TIM_TI2_ConfigInputStage, .-TIM_TI2_ConfigInputStage
	.section	.text.TIM_TI3_SetConfig,"ax",%progbits
	.align	1
	.syntax unified
	.thumb
	.thumb_func
	.type	TIM_TI3_SetConfig, %function
TIM_TI3_SetConfig:
.LFB451:
	.loc 1 7706 1 is_stmt 1
	.cfi_startproc
	@ args = 0, pretend = 0, frame = 0
	@ frame_needed = 0, uses_anonymous_args = 0
	@ link register save eliminated.
.LVL95:
	push	{r4, r5}
	.cfi_def_cfa_offset 8
	.cfi_offset 4, -8
	.cfi_offset 5, -4
	.loc 1 7707 3
	.loc 1 7708 3
	.loc 1 7711 3
	.loc 1 7711 11 is_stmt 0
	ldr	r5, [r0, #32]
.LVL96:
	.loc 1 7712 3 is_stmt 1
	.loc 1 7712 7 is_stmt 0
	ldr	r4, [r0, #32]
	.loc 1 7712 14
	bic	r4, r4, #256
	str	r4, [r0, #32]
	.loc 1 7713 3 is_stmt 1
	.loc 1 7713 12 is_stmt 0
	ldr	r4, [r0, #28]
.LVL97:
	.loc 1 7716 3 is_stmt 1
	.loc 1 7716 12 is_stmt 0
	bic	ip, r4, #3
.LVL98:
	.loc 1 7717 3 is_stmt 1
	.loc 1 7717 12 is_stmt 0
	orr	ip, ip, r2
.LVL99:
	.loc 1 7720 3 is_stmt 1
	.loc 1 7720 12 is_stmt 0
	bic	ip, ip, #240
.LVL100:
	.loc 1 7721 3 is_stmt 1
	.loc 1 7721 30 is_stmt 0
	lsls	r3, r3, #4
.LVL101:
	.loc 1 7721 37
	uxtb	r3, r3
	.loc 1 7721 12
	orr	r3, r3, ip
.LVL102:
	.loc 1 7724 3 is_stmt 1
	.loc 1 7724 11 is_stmt 0
	bic	r5, r5, #2560
.LVL103:
	.loc 1 7725 3 is_stmt 1
	.loc 1 7725 31 is_stmt 0
	lsls	r1, r1, #8
.LVL104:
	.loc 1 7725 38
	and	r1, r1, #2560
	.loc 1 7725 11
	orrs	r1, r1, r5
.LVL105:
	.loc 1 7728 3 is_stmt 1
	.loc 1 7728 15 is_stmt 0
	str	r3, [r0, #28]
	.loc 1 7729 3 is_stmt 1
	.loc 1 7729 14 is_stmt 0
	str	r1, [r0, #32]
	.loc 1 7730 1
	pop	{r4, r5}
	.cfi_restore 5
	.cfi_restore 4
	.cfi_def_cfa_offset 0
	bx	lr
	.cfi_endproc
.LFE451:
	.size	TIM_TI3_SetConfig, .-TIM_TI3_SetConfig
	.section	.text.TIM_TI4_SetConfig,"ax",%progbits
	.align	1
	.syntax unified
	.thumb
	.thumb_func
	.type	TIM_TI4_SetConfig, %function
TIM_TI4_SetConfig:
.LFB452:
	.loc 1 7754 1 is_stmt 1
	.cfi_startproc
	@ args = 0, pretend = 0, frame = 0
	@ frame_needed = 0, uses_anonymous_args = 0
	@ link register save eliminated.
.LVL106:
	push	{r4, r5}
	.cfi_def_cfa_offset 8
	.cfi_offset 4, -8
	.cfi_offset 5, -4
	.loc 1 7755 3
	.loc 1 7756 3
	.loc 1 7759 3
	.loc 1 7759 11 is_stmt 0
	ldr	r5, [r0, #32]
.LVL107:
	.loc 1 7760 3 is_stmt 1
	.loc 1 7760 7 is_stmt 0
	ldr	r4, [r0, #32]
	.loc 1 7760 14
	bic	r4, r4, #4096
	str	r4, [r0, #32]
	.loc 1 7761 3 is_stmt 1
	.loc 1 7761 12 is_stmt 0
	ldr	r4, [r0, #28]
.LVL108:
	.loc 1 7764 3 is_stmt 1
	.loc 1 7764 12 is_stmt 0
	bic	ip, r4, #768
.LVL109:
	.loc 1 7765 3 is_stmt 1
	.loc 1 7765 12 is_stmt 0
	orr	ip, ip, r2, lsl #8
.LVL110:
	.loc 1 7768 3 is_stmt 1
	.loc 1 7768 12 is_stmt 0
	bic	ip, ip, #61440
.LVL111:
	.loc 1 7769 3 is_stmt 1
	.loc 1 7769 30 is_stmt 0
	lsls	r3, r3, #12
.LVL112:
	.loc 1 7769 38
	uxth	r3, r3
	.loc 1 7769 12
	orr	r3, r3, ip
.LVL113:
	.loc 1 7772 3 is_stmt 1
	.loc 1 7772 11 is_stmt 0
	bic	r5, r5, #40960
.LVL114:
	.loc 1 7773 3 is_stmt 1
	.loc 1 7773 31 is_stmt 0
	lsls	r1, r1, #12
.LVL115:
	.loc 1 7773 39
	and	r1, r1, #40960
	.loc 1 7773 11
	orrs	r1, r1, r5
.LVL116:
	.loc 1 7776 3 is_stmt 1
	.loc 1 7776 15 is_stmt 0
	str	r3, [r0, #28]
	.loc 1 7777 3 is_stmt 1
	.loc 1 7777 14 is_stmt 0
	str	r1, [r0, #32]
	.loc 1 7778 1
	pop	{r4, r5}
	.cfi_restore 5
	.cfi_restore 4
	.cfi_def_cfa_offset 0
	bx	lr
	.cfi_endproc
.LFE452:
	.size	TIM_TI4_SetConfig, .-TIM_TI4_SetConfig
	.section	.text.TIM_ITRx_SetConfig,"ax",%progbits
	.align	1
	.syntax unified
	.thumb
	.thumb_func
	.type	TIM_ITRx_SetConfig, %function
TIM_ITRx_SetConfig:
.LFB453:
	.loc 1 7809 1 is_stmt 1
	.cfi_startproc
	@ args = 0, pretend = 0, frame = 0
	@ frame_needed = 0, uses_anonymous_args = 0
	@ link register save eliminated.
.LVL117:
	.loc 1 7810 3
	.loc 1 7813 3
	.loc 1 7813 11 is_stmt 0
	ldr	r2, [r0, #8]
.LVL118:
	.loc 1 7815 3 is_stmt 1
	.loc 1 7815 11 is_stmt 0
	ldr	r3, .L45
	ands	r3, r3, r2
.LVL119:
	.loc 1 7817 3 is_stmt 1
	.loc 1 7817 11 is_stmt 0
	orrs	r3, r3, r1
.LVL120:
	orr	r3, r3, #7
.LVL121:
	.loc 1 7819 3 is_stmt 1
	.loc 1 7819 14 is_stmt 0
	str	r3, [r0, #8]
	.loc 1 7820 1
	bx	lr
.L46:
	.align	2
.L45:
	.word	-3145841
	.cfi_endproc
.LFE453:
	.size	TIM_ITRx_SetConfig, .-TIM_ITRx_SetConfig
	.section	.text.HAL_TIM_Base_MspInit,"ax",%progbits
	.align	1
	.weak	HAL_TIM_Base_MspInit
	.syntax unified
	.thumb
	.thumb_func
	.type	HAL_TIM_Base_MspInit, %function
HAL_TIM_Base_MspInit:
.LFB337:
	.loc 1 373 1 is_stmt 1
	.cfi_startproc
	@ args = 0, pretend = 0, frame = 0
	@ frame_needed = 0, uses_anonymous_args = 0
	@ link register save eliminated.
.LVL122:
	.loc 1 375 3
	.loc 1 380 1 is_stmt 0
	bx	lr
	.cfi_endproc
.LFE337:
	.size	HAL_TIM_Base_MspInit, .-HAL_TIM_Base_MspInit
	.section	.text.HAL_TIM_Base_MspDeInit,"ax",%progbits
	.align	1
	.weak	HAL_TIM_Base_MspDeInit
	.syntax unified
	.thumb
	.thumb_func
	.type	HAL_TIM_Base_MspDeInit, %function
HAL_TIM_Base_MspDeInit:
.LFB338:
	.loc 1 388 1 is_stmt 1
	.cfi_startproc
	@ args = 0, pretend = 0, frame = 0
	@ frame_needed = 0, uses_anonymous_args = 0
	@ link register save eliminated.
.LVL123:
	.loc 1 390 3
	.loc 1 395 1 is_stmt 0
	bx	lr
	.cfi_endproc
.LFE338:
	.size	HAL_TIM_Base_MspDeInit, .-HAL_TIM_Base_MspDeInit
	.section	.text.HAL_TIM_Base_DeInit,"ax",%progbits
	.align	1
	.global	HAL_TIM_Base_DeInit
	.syntax unified
	.thumb
	.thumb_func
	.type	HAL_TIM_Base_DeInit, %function
HAL_TIM_Base_DeInit:
.LFB336:
	.loc 1 330 1 is_stmt 1
	.cfi_startproc
	@ args = 0, pretend = 0, frame = 0
	@ frame_needed = 0, uses_anonymous_args = 0
.LVL124:
	push	{r4, lr}
	.cfi_def_cfa_offset 8
	.cfi_offset 4, -8
	.cfi_offset 14, -4
	mov	r4, r0
	.loc 1 332 3
	.loc 1 334 3
	.loc 1 334 15 is_stmt 0
	movs	r3, #2
	strb	r3, [r0, #61]
	.loc 1 337 3 is_stmt 1
	.loc 1 337 8
	.loc 1 337 19 is_stmt 0
	ldr	r3, [r0]
	.loc 1 337 29
	ldr	r1, [r3, #32]
	.loc 1 337 11
	movw	r2, #4369
	tst	r1, r2
	bne	.L50
	.loc 1 337 134 is_stmt 1 discriminator 1
	.loc 1 337 154 is_stmt 0 discriminator 1
	ldr	r1, [r3, #32]
	.loc 1 337 136 discriminator 1
	movw	r2, #1092
	tst	r1, r2
	bne	.L50
	.loc 1 337 241 is_stmt 1 discriminator 3
	.loc 1 337 257 is_stmt 0 discriminator 3
	ldr	r2, [r3]
	.loc 1 337 263 discriminator 3
	bic	r2, r2, #1
	str	r2, [r3]
.L50:
	.loc 1 337 6 is_stmt 1 discriminator 5
	.loc 1 348 3 discriminator 5
	mov	r0, r4
.LVL125:
	bl	HAL_TIM_Base_MspDeInit
.LVL126:
	.loc 1 352 3 discriminator 5
	.loc 1 352 23 is_stmt 0 discriminator 5
	movs	r0, #0
	strb	r0, [r4, #72]
	.loc 1 355 3 is_stmt 1 discriminator 5
	.loc 1 355 8 discriminator 5
	.loc 1 355 32 is_stmt 0 discriminator 5
	strb	r0, [r4, #62]
	.loc 1 355 65 is_stmt 1 discriminator 5
	.loc 1 355 89 is_stmt 0 discriminator 5
	strb	r0, [r4, #63]
	.loc 1 355 122 is_stmt 1 discriminator 5
	.loc 1 355 146 is_stmt 0 discriminator 5
	strb	r0, [r4, #64]
	.loc 1 355 179 is_stmt 1 discriminator 5
	.loc 1 355 203 is_stmt 0 discriminator 5
	strb	r0, [r4, #65]
	.loc 1 355 236 is_stmt 1 discriminator 5
	.loc 1 355 260 is_stmt 0 discriminator 5
	strb	r0, [r4, #66]
	.loc 1 355 293 is_stmt 1 discriminator 5
	.loc 1 355 317 is_stmt 0 discriminator 5
	strb	r0, [r4, #67]
	.loc 1 355 6 is_stmt 1 discriminator 5
	.loc 1 356 3 discriminator 5
	.loc 1 356 8 discriminator 5
	.loc 1 356 33 is_stmt 0 discriminator 5
	strb	r0, [r4, #68]
	.loc 1 356 66 is_stmt 1 discriminator 5
	.loc 1 356 91 is_stmt 0 discriminator 5
	strb	r0, [r4, #69]
	.loc 1 356 124 is_stmt 1 discriminator 5
	.loc 1 356 149 is_stmt 0 discriminator 5
	strb	r0, [r4, #70]
	.loc 1 356 182 is_stmt 1 discriminator 5
	.loc 1 356 207 is_stmt 0 discriminator 5
	strb	r0, [r4, #71]
	.loc 1 356 6 is_stmt 1 discriminator 5
	.loc 1 359 3 discriminator 5
	.loc 1 359 15 is_stmt 0 discriminator 5
	strb	r0, [r4, #61]
	.loc 1 362 3 is_stmt 1 discriminator 5
	.loc 1 362 7 discriminator 5
	.loc 1 362 20 is_stmt 0 discriminator 5
	strb	r0, [r4, #60]
	.loc 1 362 5 is_stmt 1 discriminator 5
	.loc 1 364 3 discriminator 5
	.loc 1 365 1 is_stmt 0 discriminator 5
	pop	{r4, pc}
	.cfi_endproc
.LFE336:
	.size	HAL_TIM_Base_DeInit, .-HAL_TIM_Base_DeInit
	.section	.text.HAL_TIM_Base_Start,"ax",%progbits
	.align	1
	.global	HAL_TIM_Base_Start
	.syntax unified
	.thumb
	.thumb_func
	.type	HAL_TIM_Base_Start, %function
HAL_TIM_Base_Start:
.LFB339:
	.loc 1 404 1 is_stmt 1
	.cfi_startproc
	@ args = 0, pretend = 0, frame = 0
	@ frame_needed = 0, uses_anonymous_args = 0
	@ link register save eliminated.
.LVL127:
	.loc 1 405 3
	.loc 1 408 3
	.loc 1 411 3
	.loc 1 411 11 is_stmt 0
	ldrb	r3, [r0, #61]	@ zero_extendqisi2
	uxtb	r3, r3
	.loc 1 411 6
	cmp	r3, #1
	bne	.L56
	.loc 1 417 3 is_stmt 1
	.loc 1 417 15 is_stmt 0
	movs	r3, #2
	strb	r3, [r0, #61]
	.loc 1 420 3 is_stmt 1
	.loc 1 420 14 is_stmt 0
	ldr	r3, [r0]
	.loc 1 420 6
	ldr	r2, .L58
	cmp	r3, #1073741824
	it	ne
	cmpne	r3, r2
	beq	.L54
	.loc 1 420 164 discriminator 1
	sub	r2, r2, #64512
	cmp	r3, r2
	beq	.L54
	.loc 1 420 235 discriminator 2
	add	r2, r2, #1024
	cmp	r3, r2
	beq	.L54
	.loc 1 420 306 discriminator 3
	add	r2, r2, #1024
	cmp	r3, r2
	beq	.L54
	.loc 1 420 377 discriminator 4
	add	r2, r2, #63488
	cmp	r3, r2
	beq	.L54
	.loc 1 420 465 discriminator 5
	sub	r2, r2, #60416
	cmp	r3, r2
	beq	.L54
	.loc 1 420 536 discriminator 6
	add	r2, r2, #75776
	cmp	r3, r2
	beq	.L54
	.loc 1 430 5 is_stmt 1
	.loc 1 430 22 is_stmt 0
	ldr	r2, [r3]
	.loc 1 430 27
	orr	r2, r2, #1
	str	r2, [r3]
	.loc 1 434 10
	movs	r0, #0
.LVL128:
	bx	lr
.LVL129:
.L54:
	.loc 1 422 5 is_stmt 1
	.loc 1 422 29 is_stmt 0
	ldr	r1, [r3, #8]
	.loc 1 422 13
	ldr	r2, .L58+4
	ands	r2, r2, r1
.LVL130:
	.loc 1 423 5 is_stmt 1
	.loc 1 423 8 is_stmt 0
	cmp	r2, #6
	it	ne
	cmpne	r2, #65536
	beq	.L57
	.loc 1 425 7 is_stmt 1
	.loc 1 425 24 is_stmt 0
	ldr	r2, [r3]
.LVL131:
	.loc 1 425 29
	orr	r2, r2, #1
	str	r2, [r3]
	.loc 1 434 10
	movs	r0, #0
.LVL132:
	bx	lr
.LVL133:
.L56:
	.loc 1 413 12
	movs	r0, #1
.LVL134:
	bx	lr
.LVL135:
.L57:
	.loc 1 434 10
	movs	r0, #0
.LVL136:
	.loc 1 435 1
	bx	lr
.L59:
	.align	2
.L58:
	.word	1073807360
	.word	65543
	.cfi_endproc
.LFE339:
	.size	HAL_TIM_Base_Start, .-HAL_TIM_Base_Start
	.section	.text.HAL_TIM_Base_Stop,"ax",%progbits
	.align	1
	.global	HAL_TIM_Base_Stop
	.syntax unified
	.thumb
	.thumb_func
	.type	HAL_TIM_Base_Stop, %function
HAL_TIM_Base_Stop:
.LFB340:
	.loc 1 443 1 is_stmt 1
	.cfi_startproc
	@ args = 0, pretend = 0, frame = 0
	@ frame_needed = 0, uses_anonymous_args = 0
	@ link register save eliminated.
.LVL137:
	.loc 1 445 3
	.loc 1 448 3
	.loc 1 448 8
	.loc 1 448 19 is_stmt 0
	ldr	r3, [r0]
	.loc 1 448 29
	ldr	r1, [r3, #32]
	.loc 1 448 11
	movw	r2, #4369
	tst	r1, r2
	bne	.L61
	.loc 1 448 134 is_stmt 1 discriminator 1
	.loc 1 448 154 is_stmt 0 discriminator 1
	ldr	r1, [r3, #32]
	.loc 1 448 136 discriminator 1
	movw	r2, #1092
	tst	r1, r2
	bne	.L61
	.loc 1 448 241 is_stmt 1 discriminator 3
	.loc 1 448 257 is_stmt 0 discriminator 3
	ldr	r2, [r3]
	.loc 1 448 263 discriminator 3
	bic	r2, r2, #1
	str	r2, [r3]
.L61:
	.loc 1 448 6 is_stmt 1 discriminator 5
	.loc 1 451 3 discriminator 5
	.loc 1 451 15 is_stmt 0 discriminator 5
	movs	r3, #1
	strb	r3, [r0, #61]
	.loc 1 454 3 is_stmt 1 discriminator 5
	.loc 1 455 1 is_stmt 0 discriminator 5
	movs	r0, #0
.LVL138:
	bx	lr
	.cfi_endproc
.LFE340:
	.size	HAL_TIM_Base_Stop, .-HAL_TIM_Base_Stop
	.section	.text.HAL_TIM_Base_Start_IT,"ax",%progbits
	.align	1
	.global	HAL_TIM_Base_Start_IT
	.syntax unified
	.thumb
	.thumb_func
	.type	HAL_TIM_Base_Start_IT, %function
HAL_TIM_Base_Start_IT:
.LFB341:
	.loc 1 463 1 is_stmt 1
	.cfi_startproc
	@ args = 0, pretend = 0, frame = 0
	@ frame_needed = 0, uses_anonymous_args = 0
	@ link register save eliminated.
.LVL139:
	.loc 1 464 3
	.loc 1 467 3
	.loc 1 470 3
	.loc 1 470 11 is_stmt 0
	ldrb	r3, [r0, #61]	@ zero_extendqisi2
	uxtb	r3, r3
	.loc 1 470 6
	cmp	r3, #1
	bne	.L66
	.loc 1 476 3 is_stmt 1
	.loc 1 476 15 is_stmt 0
	movs	r3, #2
	strb	r3, [r0, #61]
	.loc 1 479 3 is_stmt 1
	.loc 1 479 10 is_stmt 0
	ldr	r2, [r0]
	.loc 1 479 20
	ldr	r3, [r2, #12]
	.loc 1 479 27
	orr	r3, r3, #1
	str	r3, [r2, #12]
	.loc 1 482 3 is_stmt 1
	.loc 1 482 14 is_stmt 0
	ldr	r3, [r0]
	.loc 1 482 6
	ldr	r2, .L68
	cmp	r3, #1073741824
	it	ne
	cmpne	r3, r2
	beq	.L64
	.loc 1 482 164 discriminator 1
	sub	r2, r2, #64512
	cmp	r3, r2
	beq	.L64
	.loc 1 482 235 discriminator 2
	add	r2, r2, #1024
	cmp	r3, r2
	beq	.L64
	.loc 1 482 306 discriminator 3
	add	r2, r2, #1024
	cmp	r3, r2
	beq	.L64
	.loc 1 482 377 discriminator 4
	add	r2, r2, #63488
	cmp	r3, r2
	beq	.L64
	.loc 1 482 465 discriminator 5
	sub	r2, r2, #60416
	cmp	r3, r2
	beq	.L64
	.loc 1 482 536 discriminator 6
	add	r2, r2, #75776
	cmp	r3, r2
	beq	.L64
	.loc 1 492 5 is_stmt 1
	.loc 1 492 22 is_stmt 0
	ldr	r2, [r3]
	.loc 1 492 27
	orr	r2, r2, #1
	str	r2, [r3]
	.loc 1 496 10
	movs	r0, #0
.LVL140:
	bx	lr
.LVL141:
.L64:
	.loc 1 484 5 is_stmt 1
	.loc 1 484 29 is_stmt 0
	ldr	r1, [r3, #8]
	.loc 1 484 13
	ldr	r2, .L68+4
	ands	r2, r2, r1
.LVL142:
	.loc 1 485 5 is_stmt 1
	.loc 1 485 8 is_stmt 0
	cmp	r2, #6
	it	ne
	cmpne	r2, #65536
	beq	.L67
	.loc 1 487 7 is_stmt 1
	.loc 1 487 24 is_stmt 0
	ldr	r2, [r3]
.LVL143:
	.loc 1 487 29
	orr	r2, r2, #1
	str	r2, [r3]
	.loc 1 496 10
	movs	r0, #0
.LVL144:
	bx	lr
.LVL145:
.L66:
	.loc 1 472 12
	movs	r0, #1
.LVL146:
	bx	lr
.LVL147:
.L67:
	.loc 1 496 10
	movs	r0, #0
.LVL148:
	.loc 1 497 1
	bx	lr
.L69:
	.align	2
.L68:
	.word	1073807360
	.word	65543
	.cfi_endproc
.LFE341:
	.size	HAL_TIM_Base_Start_IT, .-HAL_TIM_Base_Start_IT
	.section	.text.HAL_TIM_Base_Stop_IT,"ax",%progbits
	.align	1
	.global	HAL_TIM_Base_Stop_IT
	.syntax unified
	.thumb
	.thumb_func
	.type	HAL_TIM_Base_Stop_IT, %function
HAL_TIM_Base_Stop_IT:
.LFB342:
	.loc 1 505 1 is_stmt 1
	.cfi_startproc
	@ args = 0, pretend = 0, frame = 0
	@ frame_needed = 0, uses_anonymous_args = 0
	@ link register save eliminated.
.LVL149:
	.loc 1 507 3
	.loc 1 510 3
	.loc 1 510 10 is_stmt 0
	ldr	r2, [r0]
	.loc 1 510 20
	ldr	r3, [r2, #12]
	.loc 1 510 27
	bic	r3, r3, #1
	str	r3, [r2, #12]
	.loc 1 513 3 is_stmt 1
	.loc 1 513 8
	.loc 1 513 19 is_stmt 0
	ldr	r3, [r0]
	.loc 1 513 29
	ldr	r1, [r3, #32]
	.loc 1 513 11
	movw	r2, #4369
	tst	r1, r2
	bne	.L71
	.loc 1 513 134 is_stmt 1 discriminator 1
	.loc 1 513 154 is_stmt 0 discriminator 1
	ldr	r1, [r3, #32]
	.loc 1 513 136 discriminator 1
	movw	r2, #1092
	tst	r1, r2
	bne	.L71
	.loc 1 513 241 is_stmt 1 discriminator 3
	.loc 1 513 257 is_stmt 0 discriminator 3
	ldr	r2, [r3]
	.loc 1 513 263 discriminator 3
	bic	r2, r2, #1
	str	r2, [r3]
.L71:
	.loc 1 513 6 is_stmt 1 discriminator 5
	.loc 1 516 3 discriminator 5
	.loc 1 516 15 is_stmt 0 discriminator 5
	movs	r3, #1
	strb	r3, [r0, #61]
	.loc 1 519 3 is_stmt 1 discriminator 5
	.loc 1 520 1 is_stmt 0 discriminator 5
	movs	r0, #0
.LVL150:
	bx	lr
	.cfi_endproc
.LFE342:
	.size	HAL_TIM_Base_Stop_IT, .-HAL_TIM_Base_Stop_IT
	.section	.text.HAL_TIM_Base_Start_DMA,"ax",%progbits
	.align	1
	.global	HAL_TIM_Base_Start_DMA
	.syntax unified
	.thumb
	.thumb_func
	.type	HAL_TIM_Base_Start_DMA, %function
HAL_TIM_Base_Start_DMA:
.LFB343:
	.loc 1 530 1 is_stmt 1
	.cfi_startproc
	@ args = 0, pretend = 0, frame = 0
	@ frame_needed = 0, uses_anonymous_args = 0
.LVL151:
	push	{r3, r4, r5, lr}
	.cfi_def_cfa_offset 16
	.cfi_offset 3, -16
	.cfi_offset 4, -12
	.cfi_offset 5, -8
	.cfi_offset 14, -4
	.loc 1 531 3
	.loc 1 534 3
	.loc 1 537 3
	.loc 1 537 11 is_stmt 0
	ldrb	r4, [r0, #61]	@ zero_extendqisi2
	uxtb	r4, r4
	.loc 1 537 6
	cmp	r4, #2
	beq	.L73
	mov	r5, r0
	.loc 1 541 8 is_stmt 1
	.loc 1 541 16 is_stmt 0
	ldrb	r4, [r0, #61]	@ zero_extendqisi2
	uxtb	r4, r4
	.loc 1 541 11
	cmp	r4, #1
	bne	.L76
	.loc 1 543 5 is_stmt 1
	.loc 1 543 8 is_stmt 0
	cmp	r2, #0
	it	ne
	cmpne	r1, #0
	beq	.L73
	.loc 1 549 7 is_stmt 1
	.loc 1 549 19 is_stmt 0
	movs	r3, #2
	strb	r3, [r0, #61]
	.loc 1 558 3 is_stmt 1
	.loc 1 558 13 is_stmt 0
	ldr	r3, [r0, #32]
	.loc 1 558 53
	ldr	r0, .L79
.LVL152:
	str	r0, [r3, #60]
	.loc 1 559 3 is_stmt 1
	.loc 1 559 13 is_stmt 0
	ldr	r3, [r5, #32]
	.loc 1 559 57
	ldr	r0, .L79+4
	str	r0, [r3, #64]
	.loc 1 562 3 is_stmt 1
	.loc 1 562 13 is_stmt 0
	ldr	r3, [r5, #32]
	.loc 1 562 54
	ldr	r0, .L79+8
	str	r0, [r3, #76]
	.loc 1 565 3 is_stmt 1
	.loc 1 565 89 is_stmt 0
	ldr	r0, [r5]
	.loc 1 565 7
	mov	r3, r2
	add	r2, r0, #44
.LVL153:
	ldr	r0, [r5, #32]
	bl	HAL_DMA_Start_IT
.LVL154:
	.loc 1 565 6
	mov	r1, r0
	cmp	r0, #0
	bne	.L73
	.loc 1 573 3 is_stmt 1
	.loc 1 573 10 is_stmt 0
	ldr	r2, [r5]
	.loc 1 573 20
	ldr	r3, [r2, #12]
	.loc 1 573 27
	orr	r3, r3, #256
	str	r3, [r2, #12]
	.loc 1 576 3 is_stmt 1
	.loc 1 576 14 is_stmt 0
	ldr	r3, [r5]
	.loc 1 576 6
	ldr	r2, .L79+12
	cmp	r3, #1073741824
	it	ne
	cmpne	r3, r2
	beq	.L74
	.loc 1 576 164 discriminator 1
	sub	r2, r2, #64512
	cmp	r3, r2
	beq	.L74
	.loc 1 576 235 discriminator 2
	add	r2, r2, #1024
	cmp	r3, r2
	beq	.L74
	.loc 1 576 306 discriminator 3
	add	r2, r2, #1024
	cmp	r3, r2
	beq	.L74
	.loc 1 576 377 discriminator 4
	add	r2, r2, #63488
	cmp	r3, r2
	beq	.L74
	.loc 1 576 465 discriminator 5
	sub	r2, r2, #60416
	cmp	r3, r2
	beq	.L74
	.loc 1 576 536 discriminator 6
	add	r2, r2, #75776
	cmp	r3, r2
	beq	.L74
	.loc 1 586 5 is_stmt 1
	.loc 1 586 22 is_stmt 0
	ldr	r2, [r3]
	.loc 1 586 27
	orr	r2, r2, #1
	str	r2, [r3]
	.loc 1 590 10
	mov	r4, r0
	b	.L73
.L74:
	.loc 1 578 5 is_stmt 1
	.loc 1 578 29 is_stmt 0
	ldr	r0, [r3, #8]
	.loc 1 578 13
	ldr	r2, .L79+16
	ands	r2, r2, r0
.LVL155:
	.loc 1 579 5 is_stmt 1
	.loc 1 579 8 is_stmt 0
	cmp	r2, #6
	it	ne
	cmpne	r2, #65536
	beq	.L77
	.loc 1 581 7 is_stmt 1
	.loc 1 581 24 is_stmt 0
	ldr	r2, [r3]
.LVL156:
	.loc 1 581 29
	orr	r2, r2, #1
	str	r2, [r3]
	.loc 1 590 10
	mov	r4, r1
	b	.L73
.LVL157:
.L76:
	.loc 1 554 12
	movs	r4, #1
.LVL158:
.L73:
	.loc 1 591 1
	mov	r0, r4
	pop	{r3, r4, r5, pc}
.LVL159:
.L77:
	.loc 1 590 10
	mov	r4, r1
	b	.L73
.L80:
	.align	2
.L79:
	.word	TIM_DMAPeriodElapsedCplt
	.word	TIM_DMAPeriodElapsedHalfCplt
	.word	TIM_DMAError
	.word	1073807360
	.word	65543
	.cfi_endproc
.LFE343:
	.size	HAL_TIM_Base_Start_DMA, .-HAL_TIM_Base_Start_DMA
	.section	.text.HAL_TIM_Base_Stop_DMA,"ax",%progbits
	.align	1
	.global	HAL_TIM_Base_Stop_DMA
	.syntax unified
	.thumb
	.thumb_func
	.type	HAL_TIM_Base_Stop_DMA, %function
HAL_TIM_Base_Stop_DMA:
.LFB344:
	.loc 1 599 1 is_stmt 1
	.cfi_startproc
	@ args = 0, pretend = 0, frame = 0
	@ frame_needed = 0, uses_anonymous_args = 0
.LVL160:
	push	{r4, lr}
	.cfi_def_cfa_offset 8
	.cfi_offset 4, -8
	.cfi_offset 14, -4
	mov	r4, r0
	.loc 1 601 3
	.loc 1 604 3
	.loc 1 604 10 is_stmt 0
	ldr	r2, [r0]
	.loc 1 604 20
	ldr	r3, [r2, #12]
	.loc 1 604 27
	bic	r3, r3, #256
	str	r3, [r2, #12]
	.loc 1 606 3 is_stmt 1
	.loc 1 606 9 is_stmt 0
	ldr	r0, [r0, #32]
.LVL161:
	bl	HAL_DMA_Abort_IT
.LVL162:
	.loc 1 609 3 is_stmt 1
	.loc 1 609 8
	.loc 1 609 19 is_stmt 0
	ldr	r3, [r4]
	.loc 1 609 29
	ldr	r1, [r3, #32]
	.loc 1 609 11
	movw	r2, #4369
	tst	r1, r2
	bne	.L82
	.loc 1 609 134 is_stmt 1 discriminator 1
	.loc 1 609 154 is_stmt 0 discriminator 1
	ldr	r1, [r3, #32]
	.loc 1 609 136 discriminator 1
	movw	r2, #1092
	tst	r1, r2
	bne	.L82
	.loc 1 609 241 is_stmt 1 discriminator 3
	.loc 1 609 257 is_stmt 0 discriminator 3
	ldr	r2, [r3]
	.loc 1 609 263 discriminator 3
	bic	r2, r2, #1
	str	r2, [r3]
.L82:
	.loc 1 609 6 is_stmt 1 discriminator 5
	.loc 1 612 3 discriminator 5
	.loc 1 612 15 is_stmt 0 discriminator 5
	movs	r3, #1
	strb	r3, [r4, #61]
	.loc 1 615 3 is_stmt 1 discriminator 5
	.loc 1 616 1 is_stmt 0 discriminator 5
	movs	r0, #0
	pop	{r4, pc}
	.cfi_endproc
.LFE344:
	.size	HAL_TIM_Base_Stop_DMA, .-HAL_TIM_Base_Stop_DMA
	.section	.text.HAL_TIM_OC_MspInit,"ax",%progbits
	.align	1
	.weak	HAL_TIM_OC_MspInit
	.syntax unified
	.thumb
	.thumb_func
	.type	HAL_TIM_OC_MspInit, %function
HAL_TIM_OC_MspInit:
.LFB347:
	.loc 1 757 1 is_stmt 1
	.cfi_startproc
	@ args = 0, pretend = 0, frame = 0
	@ frame_needed = 0, uses_anonymous_args = 0
	@ link register save eliminated.
.LVL163:
	.loc 1 759 3
	.loc 1 764 1 is_stmt 0
	bx	lr
	.cfi_endproc
.LFE347:
	.size	HAL_TIM_OC_MspInit, .-HAL_TIM_OC_MspInit
	.section	.text.HAL_TIM_OC_MspDeInit,"ax",%progbits
	.align	1
	.weak	HAL_TIM_OC_MspDeInit
	.syntax unified
	.thumb
	.thumb_func
	.type	HAL_TIM_OC_MspDeInit, %function
HAL_TIM_OC_MspDeInit:
.LFB348:
	.loc 1 772 1 is_stmt 1
	.cfi_startproc
	@ args = 0, pretend = 0, frame = 0
	@ frame_needed = 0, uses_anonymous_args = 0
	@ link register save eliminated.
.LVL164:
	.loc 1 774 3
	.loc 1 779 1 is_stmt 0
	bx	lr
	.cfi_endproc
.LFE348:
	.size	HAL_TIM_OC_MspDeInit, .-HAL_TIM_OC_MspDeInit
	.section	.text.HAL_TIM_OC_DeInit,"ax",%progbits
	.align	1
	.global	HAL_TIM_OC_DeInit
	.syntax unified
	.thumb
	.thumb_func
	.type	HAL_TIM_OC_DeInit, %function
HAL_TIM_OC_DeInit:
.LFB346:
	.loc 1 714 1 is_stmt 1
	.cfi_startproc
	@ args = 0, pretend = 0, frame = 0
	@ frame_needed = 0, uses_anonymous_args = 0
.LVL165:
	push	{r4, lr}
	.cfi_def_cfa_offset 8
	.cfi_offset 4, -8
	.cfi_offset 14, -4
	mov	r4, r0
	.loc 1 716 3
	.loc 1 718 3
	.loc 1 718 15 is_stmt 0
	movs	r3, #2
	strb	r3, [r0, #61]
	.loc 1 721 3 is_stmt 1
	.loc 1 721 8
	.loc 1 721 19 is_stmt 0
	ldr	r3, [r0]
	.loc 1 721 29
	ldr	r1, [r3, #32]
	.loc 1 721 11
	movw	r2, #4369
	tst	r1, r2
	bne	.L87
	.loc 1 721 134 is_stmt 1 discriminator 1
	.loc 1 721 154 is_stmt 0 discriminator 1
	ldr	r1, [r3, #32]
	.loc 1 721 136 discriminator 1
	movw	r2, #1092
	tst	r1, r2
	bne	.L87
	.loc 1 721 241 is_stmt 1 discriminator 3
	.loc 1 721 257 is_stmt 0 discriminator 3
	ldr	r2, [r3]
	.loc 1 721 263 discriminator 3
	bic	r2, r2, #1
	str	r2, [r3]
.L87:
	.loc 1 721 6 is_stmt 1 discriminator 5
	.loc 1 732 3 discriminator 5
	mov	r0, r4
.LVL166:
	bl	HAL_TIM_OC_MspDeInit
.LVL167:
	.loc 1 736 3 discriminator 5
	.loc 1 736 23 is_stmt 0 discriminator 5
	movs	r0, #0
	strb	r0, [r4, #72]
	.loc 1 739 3 is_stmt 1 discriminator 5
	.loc 1 739 8 discriminator 5
	.loc 1 739 32 is_stmt 0 discriminator 5
	strb	r0, [r4, #62]
	.loc 1 739 65 is_stmt 1 discriminator 5
	.loc 1 739 89 is_stmt 0 discriminator 5
	strb	r0, [r4, #63]
	.loc 1 739 122 is_stmt 1 discriminator 5
	.loc 1 739 146 is_stmt 0 discriminator 5
	strb	r0, [r4, #64]
	.loc 1 739 179 is_stmt 1 discriminator 5
	.loc 1 739 203 is_stmt 0 discriminator 5
	strb	r0, [r4, #65]
	.loc 1 739 236 is_stmt 1 discriminator 5
	.loc 1 739 260 is_stmt 0 discriminator 5
	strb	r0, [r4, #66]
	.loc 1 739 293 is_stmt 1 discriminator 5
	.loc 1 739 317 is_stmt 0 discriminator 5
	strb	r0, [r4, #67]
	.loc 1 739 6 is_stmt 1 discriminator 5
	.loc 1 740 3 discriminator 5
	.loc 1 740 8 discriminator 5
	.loc 1 740 33 is_stmt 0 discriminator 5
	strb	r0, [r4, #68]
	.loc 1 740 66 is_stmt 1 discriminator 5
	.loc 1 740 91 is_stmt 0 discriminator 5
	strb	r0, [r4, #69]
	.loc 1 740 124 is_stmt 1 discriminator 5
	.loc 1 740 149 is_stmt 0 discriminator 5
	strb	r0, [r4, #70]
	.loc 1 740 182 is_stmt 1 discriminator 5
	.loc 1 740 207 is_stmt 0 discriminator 5
	strb	r0, [r4, #71]
	.loc 1 740 6 is_stmt 1 discriminator 5
	.loc 1 743 3 discriminator 5
	.loc 1 743 15 is_stmt 0 discriminator 5
	strb	r0, [r4, #61]
	.loc 1 746 3 is_stmt 1 discriminator 5
	.loc 1 746 7 discriminator 5
	.loc 1 746 20 is_stmt 0 discriminator 5
	strb	r0, [r4, #60]
	.loc 1 746 5 is_stmt 1 discriminator 5
	.loc 1 748 3 discriminator 5
	.loc 1 749 1 is_stmt 0 discriminator 5
	pop	{r4, pc}
	.cfi_endproc
.LFE346:
	.size	HAL_TIM_OC_DeInit, .-HAL_TIM_OC_DeInit
	.section	.text.HAL_TIM_PWM_MspInit,"ax",%progbits
	.align	1
	.weak	HAL_TIM_PWM_MspInit
	.syntax unified
	.thumb
	.thumb_func
	.type	HAL_TIM_PWM_MspInit, %function
HAL_TIM_PWM_MspInit:
.LFB357:
	.loc 1 1426 1 is_stmt 1
	.cfi_startproc
	@ args = 0, pretend = 0, frame = 0
	@ frame_needed = 0, uses_anonymous_args = 0
	@ link register save eliminated.
.LVL168:
	.loc 1 1428 3
	.loc 1 1433 1 is_stmt 0
	bx	lr
	.cfi_endproc
.LFE357:
	.size	HAL_TIM_PWM_MspInit, .-HAL_TIM_PWM_MspInit
	.section	.text.HAL_TIM_PWM_MspDeInit,"ax",%progbits
	.align	1
	.weak	HAL_TIM_PWM_MspDeInit
	.syntax unified
	.thumb
	.thumb_func
	.type	HAL_TIM_PWM_MspDeInit, %function
HAL_TIM_PWM_MspDeInit:
.LFB358:
	.loc 1 1441 1 is_stmt 1
	.cfi_startproc
	@ args = 0, pretend = 0, frame = 0
	@ frame_needed = 0, uses_anonymous_args = 0
	@ link register save eliminated.
.LVL169:
	.loc 1 1443 3
	.loc 1 1448 1 is_stmt 0
	bx	lr
	.cfi_endproc
.LFE358:
	.size	HAL_TIM_PWM_MspDeInit, .-HAL_TIM_PWM_MspDeInit
	.section	.text.HAL_TIM_PWM_DeInit,"ax",%progbits
	.align	1
	.global	HAL_TIM_PWM_DeInit
	.syntax unified
	.thumb
	.thumb_func
	.type	HAL_TIM_PWM_DeInit, %function
HAL_TIM_PWM_DeInit:
.LFB356:
	.loc 1 1383 1 is_stmt 1
	.cfi_startproc
	@ args = 0, pretend = 0, frame = 0
	@ frame_needed = 0, uses_anonymous_args = 0
.LVL170:
	push	{r4, lr}
	.cfi_def_cfa_offset 8
	.cfi_offset 4, -8
	.cfi_offset 14, -4
	mov	r4, r0
	.loc 1 1385 3
	.loc 1 1387 3
	.loc 1 1387 15 is_stmt 0
	movs	r3, #2
	strb	r3, [r0, #61]
	.loc 1 1390 3 is_stmt 1
	.loc 1 1390 8
	.loc 1 1390 19 is_stmt 0
	ldr	r3, [r0]
	.loc 1 1390 29
	ldr	r1, [r3, #32]
	.loc 1 1390 11
	movw	r2, #4369
	tst	r1, r2
	bne	.L92
	.loc 1 1390 134 is_stmt 1 discriminator 1
	.loc 1 1390 154 is_stmt 0 discriminator 1
	ldr	r1, [r3, #32]
	.loc 1 1390 136 discriminator 1
	movw	r2, #1092
	tst	r1, r2
	bne	.L92
	.loc 1 1390 241 is_stmt 1 discriminator 3
	.loc 1 1390 257 is_stmt 0 discriminator 3
	ldr	r2, [r3]
	.loc 1 1390 263 discriminator 3
	bic	r2, r2, #1
	str	r2, [r3]
.L92:
	.loc 1 1390 6 is_stmt 1 discriminator 5
	.loc 1 1401 3 discriminator 5
	mov	r0, r4
.LVL171:
	bl	HAL_TIM_PWM_MspDeInit
.LVL172:
	.loc 1 1405 3 discriminator 5
	.loc 1 1405 23 is_stmt 0 discriminator 5
	movs	r0, #0
	strb	r0, [r4, #72]
	.loc 1 1408 3 is_stmt 1 discriminator 5
	.loc 1 1408 8 discriminator 5
	.loc 1 1408 32 is_stmt 0 discriminator 5
	strb	r0, [r4, #62]
	.loc 1 1408 65 is_stmt 1 discriminator 5
	.loc 1 1408 89 is_stmt 0 discriminator 5
	strb	r0, [r4, #63]
	.loc 1 1408 122 is_stmt 1 discriminator 5
	.loc 1 1408 146 is_stmt 0 discriminator 5
	strb	r0, [r4, #64]
	.loc 1 1408 179 is_stmt 1 discriminator 5
	.loc 1 1408 203 is_stmt 0 discriminator 5
	strb	r0, [r4, #65]
	.loc 1 1408 236 is_stmt 1 discriminator 5
	.loc 1 1408 260 is_stmt 0 discriminator 5
	strb	r0, [r4, #66]
	.loc 1 1408 293 is_stmt 1 discriminator 5
	.loc 1 1408 317 is_stmt 0 discriminator 5
	strb	r0, [r4, #67]
	.loc 1 1408 6 is_stmt 1 discriminator 5
	.loc 1 1409 3 discriminator 5
	.loc 1 1409 8 discriminator 5
	.loc 1 1409 33 is_stmt 0 discriminator 5
	strb	r0, [r4, #68]
	.loc 1 1409 66 is_stmt 1 discriminator 5
	.loc 1 1409 91 is_stmt 0 discriminator 5
	strb	r0, [r4, #69]
	.loc 1 1409 124 is_stmt 1 discriminator 5
	.loc 1 1409 149 is_stmt 0 discriminator 5
	strb	r0, [r4, #70]
	.loc 1 1409 182 is_stmt 1 discriminator 5
	.loc 1 1409 207 is_stmt 0 discriminator 5
	strb	r0, [r4, #71]
	.loc 1 1409 6 is_stmt 1 discriminator 5
	.loc 1 1412 3 discriminator 5
	.loc 1 1412 15 is_stmt 0 discriminator 5
	strb	r0, [r4, #61]
	.loc 1 1415 3 is_stmt 1 discriminator 5
	.loc 1 1415 7 discriminator 5
	.loc 1 1415 20 is_stmt 0 discriminator 5
	strb	r0, [r4, #60]
	.loc 1 1415 5 is_stmt 1 discriminator 5
	.loc 1 1417 3 discriminator 5
	.loc 1 1418 1 is_stmt 0 discriminator 5
	pop	{r4, pc}
	.cfi_endproc
.LFE356:
	.size	HAL_TIM_PWM_DeInit, .-HAL_TIM_PWM_DeInit
	.section	.text.HAL_TIM_IC_MspInit,"ax",%progbits
	.align	1
	.weak	HAL_TIM_IC_MspInit
	.syntax unified
	.thumb
	.thumb_func
	.type	HAL_TIM_IC_MspInit, %function
HAL_TIM_IC_MspInit:
.LFB367:
	.loc 1 2094 1 is_stmt 1
	.cfi_startproc
	@ args = 0, pretend = 0, frame = 0
	@ frame_needed = 0, uses_anonymous_args = 0
	@ link register save eliminated.
.LVL173:
	.loc 1 2096 3
	.loc 1 2101 1 is_stmt 0
	bx	lr
	.cfi_endproc
.LFE367:
	.size	HAL_TIM_IC_MspInit, .-HAL_TIM_IC_MspInit
	.section	.text.HAL_TIM_IC_MspDeInit,"ax",%progbits
	.align	1
	.weak	HAL_TIM_IC_MspDeInit
	.syntax unified
	.thumb
	.thumb_func
	.type	HAL_TIM_IC_MspDeInit, %function
HAL_TIM_IC_MspDeInit:
.LFB368:
	.loc 1 2109 1 is_stmt 1
	.cfi_startproc
	@ args = 0, pretend = 0, frame = 0
	@ frame_needed = 0, uses_anonymous_args = 0
	@ link register save eliminated.
.LVL174:
	.loc 1 2111 3
	.loc 1 2116 1 is_stmt 0
	bx	lr
	.cfi_endproc
.LFE368:
	.size	HAL_TIM_IC_MspDeInit, .-HAL_TIM_IC_MspDeInit
	.section	.text.HAL_TIM_IC_DeInit,"ax",%progbits
	.align	1
	.global	HAL_TIM_IC_DeInit
	.syntax unified
	.thumb
	.thumb_func
	.type	HAL_TIM_IC_DeInit, %function
HAL_TIM_IC_DeInit:
.LFB366:
	.loc 1 2051 1 is_stmt 1
	.cfi_startproc
	@ args = 0, pretend = 0, frame = 0
	@ frame_needed = 0, uses_anonymous_args = 0
.LVL175:
	push	{r4, lr}
	.cfi_def_cfa_offset 8
	.cfi_offset 4, -8
	.cfi_offset 14, -4
	mov	r4, r0
	.loc 1 2053 3
	.loc 1 2055 3
	.loc 1 2055 15 is_stmt 0
	movs	r3, #2
	strb	r3, [r0, #61]
	.loc 1 2058 3 is_stmt 1
	.loc 1 2058 8
	.loc 1 2058 19 is_stmt 0
	ldr	r3, [r0]
	.loc 1 2058 29
	ldr	r1, [r3, #32]
	.loc 1 2058 11
	movw	r2, #4369
	tst	r1, r2
	bne	.L97
	.loc 1 2058 134 is_stmt 1 discriminator 1
	.loc 1 2058 154 is_stmt 0 discriminator 1
	ldr	r1, [r3, #32]
	.loc 1 2058 136 discriminator 1
	movw	r2, #1092
	tst	r1, r2
	bne	.L97
	.loc 1 2058 241 is_stmt 1 discriminator 3
	.loc 1 2058 257 is_stmt 0 discriminator 3
	ldr	r2, [r3]
	.loc 1 2058 263 discriminator 3
	bic	r2, r2, #1
	str	r2, [r3]
.L97:
	.loc 1 2058 6 is_stmt 1 discriminator 5
	.loc 1 2069 3 discriminator 5
	mov	r0, r4
.LVL176:
	bl	HAL_TIM_IC_MspDeInit
.LVL177:
	.loc 1 2073 3 discriminator 5
	.loc 1 2073 23 is_stmt 0 discriminator 5
	movs	r0, #0
	strb	r0, [r4, #72]
	.loc 1 2076 3 is_stmt 1 discriminator 5
	.loc 1 2076 8 discriminator 5
	.loc 1 2076 32 is_stmt 0 discriminator 5
	strb	r0, [r4, #62]
	.loc 1 2076 65 is_stmt 1 discriminator 5
	.loc 1 2076 89 is_stmt 0 discriminator 5
	strb	r0, [r4, #63]
	.loc 1 2076 122 is_stmt 1 discriminator 5
	.loc 1 2076 146 is_stmt 0 discriminator 5
	strb	r0, [r4, #64]
	.loc 1 2076 179 is_stmt 1 discriminator 5
	.loc 1 2076 203 is_stmt 0 discriminator 5
	strb	r0, [r4, #65]
	.loc 1 2076 236 is_stmt 1 discriminator 5
	.loc 1 2076 260 is_stmt 0 discriminator 5
	strb	r0, [r4, #66]
	.loc 1 2076 293 is_stmt 1 discriminator 5
	.loc 1 2076 317 is_stmt 0 discriminator 5
	strb	r0, [r4, #67]
	.loc 1 2076 6 is_stmt 1 discriminator 5
	.loc 1 2077 3 discriminator 5
	.loc 1 2077 8 discriminator 5
	.loc 1 2077 33 is_stmt 0 discriminator 5
	strb	r0, [r4, #68]
	.loc 1 2077 66 is_stmt 1 discriminator 5
	.loc 1 2077 91 is_stmt 0 discriminator 5
	strb	r0, [r4, #69]
	.loc 1 2077 124 is_stmt 1 discriminator 5
	.loc 1 2077 149 is_stmt 0 discriminator 5
	strb	r0, [r4, #70]
	.loc 1 2077 182 is_stmt 1 discriminator 5
	.loc 1 2077 207 is_stmt 0 discriminator 5
	strb	r0, [r4, #71]
	.loc 1 2077 6 is_stmt 1 discriminator 5
	.loc 1 2080 3 discriminator 5
	.loc 1 2080 15 is_stmt 0 discriminator 5
	strb	r0, [r4, #61]
	.loc 1 2083 3 is_stmt 1 discriminator 5
	.loc 1 2083 7 discriminator 5
	.loc 1 2083 20 is_stmt 0 discriminator 5
	strb	r0, [r4, #60]
	.loc 1 2083 5 is_stmt 1 discriminator 5
	.loc 1 2085 3 discriminator 5
	.loc 1 2086 1 is_stmt 0 discriminator 5
	pop	{r4, pc}
	.cfi_endproc
.LFE366:
	.size	HAL_TIM_IC_DeInit, .-HAL_TIM_IC_DeInit
	.section	.text.HAL_TIM_OnePulse_MspInit,"ax",%progbits
	.align	1
	.weak	HAL_TIM_OnePulse_MspInit
	.syntax unified
	.thumb
	.thumb_func
	.type	HAL_TIM_OnePulse_MspInit, %function
HAL_TIM_OnePulse_MspInit:
.LFB377:
	.loc 1 2754 1 is_stmt 1
	.cfi_startproc
	@ args = 0, pretend = 0, frame = 0
	@ frame_needed = 0, uses_anonymous_args = 0
	@ link register save eliminated.
.LVL178:
	.loc 1 2756 3
	.loc 1 2761 1 is_stmt 0
	bx	lr
	.cfi_endproc
.LFE377:
	.size	HAL_TIM_OnePulse_MspInit, .-HAL_TIM_OnePulse_MspInit
	.section	.text.HAL_TIM_OnePulse_MspDeInit,"ax",%progbits
	.align	1
	.weak	HAL_TIM_OnePulse_MspDeInit
	.syntax unified
	.thumb
	.thumb_func
	.type	HAL_TIM_OnePulse_MspDeInit, %function
HAL_TIM_OnePulse_MspDeInit:
.LFB378:
	.loc 1 2769 1 is_stmt 1
	.cfi_startproc
	@ args = 0, pretend = 0, frame = 0
	@ frame_needed = 0, uses_anonymous_args = 0
	@ link register save eliminated.
.LVL179:
	.loc 1 2771 3
	.loc 1 2776 1 is_stmt 0
	bx	lr
	.cfi_endproc
.LFE378:
	.size	HAL_TIM_OnePulse_MspDeInit, .-HAL_TIM_OnePulse_MspDeInit
	.section	.text.HAL_TIM_OnePulse_DeInit,"ax",%progbits
	.align	1
	.global	HAL_TIM_OnePulse_DeInit
	.syntax unified
	.thumb
	.thumb_func
	.type	HAL_TIM_OnePulse_DeInit, %function
HAL_TIM_OnePulse_DeInit:
.LFB376:
	.loc 1 2709 1 is_stmt 1
	.cfi_startproc
	@ args = 0, pretend = 0, frame = 0
	@ frame_needed = 0, uses_anonymous_args = 0
.LVL180:
	push	{r4, lr}
	.cfi_def_cfa_offset 8
	.cfi_offset 4, -8
	.cfi_offset 14, -4
	mov	r4, r0
	.loc 1 2711 3
	.loc 1 2713 3
	.loc 1 2713 15 is_stmt 0
	movs	r3, #2
	strb	r3, [r0, #61]
	.loc 1 2716 3 is_stmt 1
	.loc 1 2716 8
	.loc 1 2716 19 is_stmt 0
	ldr	r3, [r0]
	.loc 1 2716 29
	ldr	r1, [r3, #32]
	.loc 1 2716 11
	movw	r2, #4369
	tst	r1, r2
	bne	.L102
	.loc 1 2716 134 is_stmt 1 discriminator 1
	.loc 1 2716 154 is_stmt 0 discriminator 1
	ldr	r1, [r3, #32]
	.loc 1 2716 136 discriminator 1
	movw	r2, #1092
	tst	r1, r2
	bne	.L102
	.loc 1 2716 241 is_stmt 1 discriminator 3
	.loc 1 2716 257 is_stmt 0 discriminator 3
	ldr	r2, [r3]
	.loc 1 2716 263 discriminator 3
	bic	r2, r2, #1
	str	r2, [r3]
.L102:
	.loc 1 2716 6 is_stmt 1 discriminator 5
	.loc 1 2727 3 discriminator 5
	mov	r0, r4
.LVL181:
	bl	HAL_TIM_OnePulse_MspDeInit
.LVL182:
	.loc 1 2731 3 discriminator 5
	.loc 1 2731 23 is_stmt 0 discriminator 5
	movs	r0, #0
	strb	r0, [r4, #72]
	.loc 1 2734 3 is_stmt 1 discriminator 5
	.loc 1 2734 62 is_stmt 0 discriminator 5
	strb	r0, [r4, #62]
	.loc 1 2735 3 is_stmt 1 discriminator 5
	.loc 1 2735 155 is_stmt 0 discriminator 5
	strb	r0, [r4, #63]
	.loc 1 2736 3 is_stmt 1 discriminator 5
	.loc 1 2736 63 is_stmt 0 discriminator 5
	strb	r0, [r4, #68]
	.loc 1 2737 3 is_stmt 1 discriminator 5
	.loc 1 2737 157 is_stmt 0 discriminator 5
	strb	r0, [r4, #69]
	.loc 1 2740 3 is_stmt 1 discriminator 5
	.loc 1 2740 15 is_stmt 0 discriminator 5
	strb	r0, [r4, #61]
	.loc 1 2743 3 is_stmt 1 discriminator 5
	.loc 1 2743 7 discriminator 5
	.loc 1 2743 20 is_stmt 0 discriminator 5
	strb	r0, [r4, #60]
	.loc 1 2743 5 is_stmt 1 discriminator 5
	.loc 1 2745 3 discriminator 5
	.loc 1 2746 1 is_stmt 0 discriminator 5
	pop	{r4, pc}
	.cfi_endproc
.LFE376:
	.size	HAL_TIM_OnePulse_DeInit, .-HAL_TIM_OnePulse_DeInit
	.section	.text.HAL_TIM_Encoder_MspInit,"ax",%progbits
	.align	1
	.weak	HAL_TIM_Encoder_MspInit
	.syntax unified
	.thumb
	.thumb_func
	.type	HAL_TIM_Encoder_MspInit, %function
HAL_TIM_Encoder_MspInit:
.LFB385:
	.loc 1 3191 1 is_stmt 1
	.cfi_startproc
	@ args = 0, pretend = 0, frame = 0
	@ frame_needed = 0, uses_anonymous_args = 0
	@ link register save eliminated.
.LVL183:
	.loc 1 3193 3
	.loc 1 3198 1 is_stmt 0
	bx	lr
	.cfi_endproc
.LFE385:
	.size	HAL_TIM_Encoder_MspInit, .-HAL_TIM_Encoder_MspInit
	.section	.text.HAL_TIM_Encoder_MspDeInit,"ax",%progbits
	.align	1
	.weak	HAL_TIM_Encoder_MspDeInit
	.syntax unified
	.thumb
	.thumb_func
	.type	HAL_TIM_Encoder_MspDeInit, %function
HAL_TIM_Encoder_MspDeInit:
.LFB386:
	.loc 1 3206 1 is_stmt 1
	.cfi_startproc
	@ args = 0, pretend = 0, frame = 0
	@ frame_needed = 0, uses_anonymous_args = 0
	@ link register save eliminated.
.LVL184:
	.loc 1 3208 3
	.loc 1 3213 1 is_stmt 0
	bx	lr
	.cfi_endproc
.LFE386:
	.size	HAL_TIM_Encoder_MspDeInit, .-HAL_TIM_Encoder_MspDeInit
	.section	.text.HAL_TIM_Encoder_DeInit,"ax",%progbits
	.align	1
	.global	HAL_TIM_Encoder_DeInit
	.syntax unified
	.thumb
	.thumb_func
	.type	HAL_TIM_Encoder_DeInit, %function
HAL_TIM_Encoder_DeInit:
.LFB384:
	.loc 1 3146 1 is_stmt 1
	.cfi_startproc
	@ args = 0, pretend = 0, frame = 0
	@ frame_needed = 0, uses_anonymous_args = 0
.LVL185:
	push	{r4, lr}
	.cfi_def_cfa_offset 8
	.cfi_offset 4, -8
	.cfi_offset 14, -4
	mov	r4, r0
	.loc 1 3148 3
	.loc 1 3150 3
	.loc 1 3150 15 is_stmt 0
	movs	r3, #2
	strb	r3, [r0, #61]
	.loc 1 3153 3 is_stmt 1
	.loc 1 3153 8
	.loc 1 3153 19 is_stmt 0
	ldr	r3, [r0]
	.loc 1 3153 29
	ldr	r1, [r3, #32]
	.loc 1 3153 11
	movw	r2, #4369
	tst	r1, r2
	bne	.L107
	.loc 1 3153 134 is_stmt 1 discriminator 1
	.loc 1 3153 154 is_stmt 0 discriminator 1
	ldr	r1, [r3, #32]
	.loc 1 3153 136 discriminator 1
	movw	r2, #1092
	tst	r1, r2
	bne	.L107
	.loc 1 3153 241 is_stmt 1 discriminator 3
	.loc 1 3153 257 is_stmt 0 discriminator 3
	ldr	r2, [r3]
	.loc 1 3153 263 discriminator 3
	bic	r2, r2, #1
	str	r2, [r3]
.L107:
	.loc 1 3153 6 is_stmt 1 discriminator 5
	.loc 1 3164 3 discriminator 5
	mov	r0, r4
.LVL186:
	bl	HAL_TIM_Encoder_MspDeInit
.LVL187:
	.loc 1 3168 3 discriminator 5
	.loc 1 3168 23 is_stmt 0 discriminator 5
	movs	r0, #0
	strb	r0, [r4, #72]
	.loc 1 3171 3 is_stmt 1 discriminator 5
	.loc 1 3171 62 is_stmt 0 discriminator 5
	strb	r0, [r4, #62]
	.loc 1 3172 3 is_stmt 1 discriminator 5
	.loc 1 3172 155 is_stmt 0 discriminator 5
	strb	r0, [r4, #63]
	.loc 1 3173 3 is_stmt 1 discriminator 5
	.loc 1 3173 63 is_stmt 0 discriminator 5
	strb	r0, [r4, #68]
	.loc 1 3174 3 is_stmt 1 discriminator 5
	.loc 1 3174 157 is_stmt 0 discriminator 5
	strb	r0, [r4, #69]
	.loc 1 3177 3 is_stmt 1 discriminator 5
	.loc 1 3177 15 is_stmt 0 discriminator 5
	strb	r0, [r4, #61]
	.loc 1 3180 3 is_stmt 1 discriminator 5
	.loc 1 3180 7 discriminator 5
	.loc 1 3180 20 is_stmt 0 discriminator 5
	strb	r0, [r4, #60]
	.loc 1 3180 5 is_stmt 1 discriminator 5
	.loc 1 3182 3 discriminator 5
	.loc 1 3183 1 is_stmt 0 discriminator 5
	pop	{r4, pc}
	.cfi_endproc
.LFE384:
	.size	HAL_TIM_Encoder_DeInit, .-HAL_TIM_Encoder_DeInit
	.section	.text.HAL_TIM_DMABurst_MultiWriteStart,"ax",%progbits
	.align	1
	.global	HAL_TIM_DMABurst_MultiWriteStart
	.syntax unified
	.thumb
	.thumb_func
	.type	HAL_TIM_DMABurst_MultiWriteStart, %function
HAL_TIM_DMABurst_MultiWriteStart:
.LFB399:
	.loc 1 4634 1 is_stmt 1
	.cfi_startproc
	@ args = 8, pretend = 0, frame = 0
	@ frame_needed = 0, uses_anonymous_args = 0
.LVL188:
	push	{r4, r5, r6, lr}
	.cfi_def_cfa_offset 16
	.cfi_offset 4, -16
	.cfi_offset 5, -12
	.cfi_offset 6, -8
	.cfi_offset 14, -4
	mov	r5, r0
	mov	r4, r2
	.loc 1 4635 3
.LVL189:
	.loc 1 4638 3
	.loc 1 4639 3
	.loc 1 4640 3
	.loc 1 4641 3
	.loc 1 4642 3
	.loc 1 4644 3
	.loc 1 4644 11 is_stmt 0
	ldrb	r2, [r0, #72]	@ zero_extendqisi2
.LVL190:
	uxtb	r0, r2
.LVL191:
	.loc 1 4644 6
	cmp	r0, #2
	beq	.L110
	mov	r6, r1
	mov	r1, r3
.LVL192:
	.loc 1 4648 8 is_stmt 1
	.loc 1 4648 16 is_stmt 0
	ldrb	r2, [r5, #72]	@ zero_extendqisi2
	uxtb	r0, r2
	.loc 1 4648 11
	cmp	r0, #1
	beq	.L129
.LVL193:
.L111:
	.loc 1 4662 3 is_stmt 1
	.loc 1 4664 3
	cmp	r4, #2048
	beq	.L112
	bhi	.L113
	cmp	r4, #512
	beq	.L114
	cmp	r4, #1024
	bne	.L130
	.loc 1 4705 7
	.loc 1 4705 17 is_stmt 0
	ldr	r3, [r5, #40]
	.loc 1 4705 57
	ldr	r2, .L135
	str	r2, [r3, #60]
	.loc 1 4706 7 is_stmt 1
	.loc 1 4706 17 is_stmt 0
	ldr	r3, [r5, #40]
	.loc 1 4706 61
	ldr	r2, .L135+4
	str	r2, [r3, #64]
	.loc 1 4709 7 is_stmt 1
	.loc 1 4709 17 is_stmt 0
	ldr	r3, [r5, #40]
	.loc 1 4709 58
	ldr	r2, .L135+8
	str	r2, [r3, #76]
	.loc 1 4712 7 is_stmt 1
	.loc 1 4713 43 is_stmt 0
	ldr	r2, [r5]
	.loc 1 4712 11
	ldr	r3, [sp, #20]
	adds	r2, r2, #76
	ldr	r0, [r5, #40]
	bl	HAL_DMA_Start_IT
.LVL194:
	.loc 1 4712 10
	cbz	r0, .L120
	.loc 1 4716 16
	movs	r0, #1
	b	.L110
.LVL195:
.L129:
	.loc 1 4650 5 is_stmt 1
	.loc 1 4650 30 is_stmt 0
	ldr	r2, [sp, #16]
	clz	r3, r3
	lsrs	r3, r3, #5
	cmp	r2, #0
	it	eq
	moveq	r3, #0
	.loc 1 4650 8
	cbnz	r3, .L110
	.loc 1 4656 7 is_stmt 1
	.loc 1 4656 27 is_stmt 0
	movs	r3, #2
	strb	r3, [r5, #72]
	b	.L111
.L130:
	.loc 1 4664 3
	cmp	r4, #256
	bne	.L131
	.loc 1 4669 7 is_stmt 1
	.loc 1 4669 17 is_stmt 0
	ldr	r3, [r5, #32]
	.loc 1 4669 57
	ldr	r2, .L135+12
	str	r2, [r3, #60]
	.loc 1 4670 7 is_stmt 1
	.loc 1 4670 17 is_stmt 0
	ldr	r3, [r5, #32]
	.loc 1 4670 61
	ldr	r2, .L135+16
	str	r2, [r3, #64]
	.loc 1 4673 7 is_stmt 1
	.loc 1 4673 17 is_stmt 0
	ldr	r3, [r5, #32]
	.loc 1 4673 58
	ldr	r2, .L135+8
	str	r2, [r3, #76]
	.loc 1 4676 7 is_stmt 1
	.loc 1 4677 43 is_stmt 0
	ldr	r2, [r5]
	.loc 1 4676 11
	ldr	r3, [sp, #20]
	adds	r2, r2, #76
	ldr	r0, [r5, #32]
	bl	HAL_DMA_Start_IT
.LVL196:
	.loc 1 4676 10
	cmp	r0, #0
	bne	.L132
.L120:
.LVL197:
	.loc 1 4800 5 is_stmt 1
	.loc 1 4800 9 is_stmt 0
	ldr	r3, [r5]
	.loc 1 4800 45
	ldr	r2, [sp, #16]
	orrs	r6, r6, r2
.LVL198:
	.loc 1 4800 25
	str	r6, [r3, #72]
	.loc 1 4802 5 is_stmt 1
	.loc 1 4802 12 is_stmt 0
	ldr	r2, [r5]
	.loc 1 4802 22
	ldr	r3, [r2, #12]
	.loc 1 4802 29
	orrs	r3, r3, r4
	str	r3, [r2, #12]
	movs	r0, #0
.L110:
	.loc 1 4807 1
	pop	{r4, r5, r6, pc}
.LVL199:
.L131:
	.loc 1 4664 3
	movs	r0, #1
	b	.L110
.L113:
	cmp	r4, #8192
	beq	.L117
	cmp	r4, #16384
	bne	.L133
	.loc 1 4777 7 is_stmt 1
	.loc 1 4777 17 is_stmt 0
	ldr	r3, [r5, #56]
	.loc 1 4777 57
	ldr	r2, .L135+20
	str	r2, [r3, #60]
	.loc 1 4778 7 is_stmt 1
	.loc 1 4778 17 is_stmt 0
	ldr	r3, [r5, #56]
	.loc 1 4778 61
	ldr	r2, .L135+24
	str	r2, [r3, #64]
	.loc 1 4781 7 is_stmt 1
	.loc 1 4781 17 is_stmt 0
	ldr	r3, [r5, #56]
	.loc 1 4781 58
	ldr	r2, .L135+8
	str	r2, [r3, #76]
	.loc 1 4784 7 is_stmt 1
	.loc 1 4785 43 is_stmt 0
	ldr	r2, [r5]
	.loc 1 4784 11
	ldr	r3, [sp, #20]
	adds	r2, r2, #76
	ldr	r0, [r5, #56]
	bl	HAL_DMA_Start_IT
.LVL200:
	.loc 1 4784 10
	cmp	r0, #0
	beq	.L120
	.loc 1 4788 16
	movs	r0, #1
	b	.L110
.LVL201:
.L133:
	.loc 1 4664 3
	cmp	r4, #4096
	bne	.L134
	.loc 1 4741 7 is_stmt 1
	.loc 1 4741 17 is_stmt 0
	ldr	r3, [r5, #48]
	.loc 1 4741 57
	ldr	r2, .L135
	str	r2, [r3, #60]
	.loc 1 4742 7 is_stmt 1
	.loc 1 4742 17 is_stmt 0
	ldr	r3, [r5, #48]
	.loc 1 4742 61
	ldr	r2, .L135+4
	str	r2, [r3, #64]
	.loc 1 4745 7 is_stmt 1
	.loc 1 4745 17 is_stmt 0
	ldr	r3, [r5, #48]
	.loc 1 4745 58
	ldr	r2, .L135+8
	str	r2, [r3, #76]
	.loc 1 4748 7 is_stmt 1
	.loc 1 4749 43 is_stmt 0
	ldr	r2, [r5]
	.loc 1 4748 11
	ldr	r3, [sp, #20]
	adds	r2, r2, #76
	ldr	r0, [r5, #48]
	bl	HAL_DMA_Start_IT
.LVL202:
	.loc 1 4748 10
	cmp	r0, #0
	beq	.L120
	.loc 1 4752 16
	movs	r0, #1
	b	.L110
.LVL203:
.L134:
	.loc 1 4664 3
	movs	r0, #1
	b	.L110
.L114:
	.loc 1 4687 7 is_stmt 1
	.loc 1 4687 17 is_stmt 0
	ldr	r3, [r5, #36]
	.loc 1 4687 57
	ldr	r2, .L135
	str	r2, [r3, #60]
	.loc 1 4688 7 is_stmt 1
	.loc 1 4688 17 is_stmt 0
	ldr	r3, [r5, #36]
	.loc 1 4688 61
	ldr	r2, .L135+4
	str	r2, [r3, #64]
	.loc 1 4691 7 is_stmt 1
	.loc 1 4691 17 is_stmt 0
	ldr	r3, [r5, #36]
	.loc 1 4691 58
	ldr	r2, .L135+8
	str	r2, [r3, #76]
	.loc 1 4694 7 is_stmt 1
	.loc 1 4695 43 is_stmt 0
	ldr	r2, [r5]
	.loc 1 4694 11
	ldr	r3, [sp, #20]
	adds	r2, r2, #76
	ldr	r0, [r5, #36]
	bl	HAL_DMA_Start_IT
.LVL204:
	.loc 1 4694 10
	cmp	r0, #0
	beq	.L120
	.loc 1 4698 16
	movs	r0, #1
	b	.L110
.LVL205:
.L112:
	.loc 1 4723 7 is_stmt 1
	.loc 1 4723 17 is_stmt 0
	ldr	r3, [r5, #44]
	.loc 1 4723 57
	ldr	r2, .L135
	str	r2, [r3, #60]
	.loc 1 4724 7 is_stmt 1
	.loc 1 4724 17 is_stmt 0
	ldr	r3, [r5, #44]
	.loc 1 4724 61
	ldr	r2, .L135+4
	str	r2, [r3, #64]
	.loc 1 4727 7 is_stmt 1
	.loc 1 4727 17 is_stmt 0
	ldr	r3, [r5, #44]
	.loc 1 4727 58
	ldr	r2, .L135+8
	str	r2, [r3, #76]
	.loc 1 4730 7 is_stmt 1
	.loc 1 4731 43 is_stmt 0
	ldr	r2, [r5]
	.loc 1 4730 11
	ldr	r3, [sp, #20]
	adds	r2, r2, #76
	ldr	r0, [r5, #44]
	bl	HAL_DMA_Start_IT
.LVL206:
	.loc 1 4730 10
	cmp	r0, #0
	beq	.L120
	.loc 1 4734 16
	movs	r0, #1
	b	.L110
.LVL207:
.L117:
	.loc 1 4759 7 is_stmt 1
	.loc 1 4759 17 is_stmt 0
	ldr	r3, [r5, #52]
	.loc 1 4759 57
	ldr	r2, .L135+28
	str	r2, [r3, #60]
	.loc 1 4760 7 is_stmt 1
	.loc 1 4760 17 is_stmt 0
	ldr	r3, [r5, #52]
	.loc 1 4760 61
	ldr	r2, .L135+32
	str	r2, [r3, #64]
	.loc 1 4763 7 is_stmt 1
	.loc 1 4763 17 is_stmt 0
	ldr	r3, [r5, #52]
	.loc 1 4763 58
	ldr	r2, .L135+8
	str	r2, [r3, #76]
	.loc 1 4766 7 is_stmt 1
	.loc 1 4767 43 is_stmt 0
	ldr	r2, [r5]
	.loc 1 4766 11
	ldr	r3, [sp, #20]
	adds	r2, r2, #76
	ldr	r0, [r5, #52]
	bl	HAL_DMA_Start_IT
.LVL208:
	.loc 1 4766 10
	cmp	r0, #0
	beq	.L120
	.loc 1 4770 16
	movs	r0, #1
	b	.L110
.L132:
	.loc 1 4680 16
	movs	r0, #1
	b	.L110
.L136:
	.align	2
.L135:
	.word	TIM_DMADelayPulseCplt
	.word	TIM_DMADelayPulseHalfCplt
	.word	TIM_DMAError
	.word	TIM_DMAPeriodElapsedCplt
	.word	TIM_DMAPeriodElapsedHalfCplt
	.word	TIM_DMATriggerCplt
	.word	TIM_DMATriggerHalfCplt
	.word	TIMEx_DMACommutationCplt
	.word	TIMEx_DMACommutationHalfCplt
	.cfi_endproc
.LFE399:
	.size	HAL_TIM_DMABurst_MultiWriteStart, .-HAL_TIM_DMABurst_MultiWriteStart
	.section	.text.HAL_TIM_DMABurst_WriteStart,"ax",%progbits
	.align	1
	.global	HAL_TIM_DMABurst_WriteStart
	.syntax unified
	.thumb
	.thumb_func
	.type	HAL_TIM_DMABurst_WriteStart, %function
HAL_TIM_DMABurst_WriteStart:
.LFB398:
	.loc 1 4574 1 is_stmt 1
	.cfi_startproc
	@ args = 4, pretend = 0, frame = 0
	@ frame_needed = 0, uses_anonymous_args = 0
.LVL209:
	push	{r4, r5, lr}
	.cfi_def_cfa_offset 12
	.cfi_offset 4, -12
	.cfi_offset 5, -8
	.cfi_offset 14, -4
	sub	sp, sp, #12
	.cfi_def_cfa_offset 24
	ldr	r5, [sp, #24]
	.loc 1 4575 3
	.loc 1 4577 3
	.loc 1 4578 60 is_stmt 0
	lsrs	r4, r5, #8
	.loc 1 4577 12
	adds	r4, r4, #1
	str	r4, [sp, #4]
	str	r5, [sp]
	bl	HAL_TIM_DMABurst_MultiWriteStart
.LVL210:
	.loc 1 4582 3 is_stmt 1
	.loc 1 4583 1 is_stmt 0
	add	sp, sp, #12
	.cfi_def_cfa_offset 12
	@ sp needed
	pop	{r4, r5, pc}
	.cfi_endproc
.LFE398:
	.size	HAL_TIM_DMABurst_WriteStart, .-HAL_TIM_DMABurst_WriteStart
	.section	.text.HAL_TIM_DMABurst_WriteStop,"ax",%progbits
	.align	1
	.global	HAL_TIM_DMABurst_WriteStop
	.syntax unified
	.thumb
	.thumb_func
	.type	HAL_TIM_DMABurst_WriteStop, %function
HAL_TIM_DMABurst_WriteStop:
.LFB400:
	.loc 1 4816 1 is_stmt 1
	.cfi_startproc
	@ args = 0, pretend = 0, frame = 0
	@ frame_needed = 0, uses_anonymous_args = 0
.LVL211:
	push	{r3, r4, r5, lr}
	.cfi_def_cfa_offset 16
	.cfi_offset 3, -16
	.cfi_offset 4, -12
	.cfi_offset 5, -8
	.cfi_offset 14, -4
	mov	r5, r0
	mov	r4, r1
	.loc 1 4817 3
.LVL212:
	.loc 1 4820 3
	.loc 1 4823 3
	cmp	r1, #2048
	beq	.L140
	bhi	.L141
	cmp	r1, #512
	beq	.L142
	cmp	r1, #1024
	bne	.L151
	.loc 1 4837 7
	.loc 1 4837 13 is_stmt 0
	ldr	r0, [r0, #40]
.LVL213:
	bl	HAL_DMA_Abort_IT
.LVL214:
	.loc 1 4838 7 is_stmt 1
	.loc 1 4865 3
	b	.L149
.LVL215:
.L151:
	.loc 1 4823 3 is_stmt 0
	cmp	r1, #256
	bne	.L152
	.loc 1 4827 7 is_stmt 1
	.loc 1 4827 13 is_stmt 0
	ldr	r0, [r0, #32]
.LVL216:
	bl	HAL_DMA_Abort_IT
.LVL217:
	.loc 1 4828 7 is_stmt 1
	.loc 1 4865 3
.L149:
	.loc 1 4868 5
	.loc 1 4868 12 is_stmt 0
	ldr	r2, [r5]
	.loc 1 4868 22
	ldr	r3, [r2, #12]
	.loc 1 4868 29
	bic	r3, r3, r4
	str	r3, [r2, #12]
	.loc 1 4871 5 is_stmt 1
	.loc 1 4871 25 is_stmt 0
	movs	r3, #1
	strb	r3, [r5, #72]
	movs	r0, #0
.L145:
.LVL218:
	.loc 1 4875 3 is_stmt 1
	.loc 1 4876 1 is_stmt 0
	pop	{r3, r4, r5, pc}
.LVL219:
.L152:
	.loc 1 4823 3
	movs	r0, #1
.LVL220:
	b	.L145
.LVL221:
.L141:
	cmp	r1, #8192
	beq	.L146
	cmp	r1, #16384
	bne	.L153
	.loc 1 4857 7 is_stmt 1
	.loc 1 4857 13 is_stmt 0
	ldr	r0, [r0, #56]
.LVL222:
	bl	HAL_DMA_Abort_IT
.LVL223:
	.loc 1 4858 7 is_stmt 1
	.loc 1 4865 3
	b	.L149
.LVL224:
.L153:
	.loc 1 4823 3 is_stmt 0
	cmp	r1, #4096
	bne	.L154
	.loc 1 4847 7 is_stmt 1
	.loc 1 4847 13 is_stmt 0
	ldr	r0, [r0, #48]
.LVL225:
	bl	HAL_DMA_Abort_IT
.LVL226:
	.loc 1 4848 7 is_stmt 1
	.loc 1 4865 3
	b	.L149
.LVL227:
.L154:
	.loc 1 4823 3 is_stmt 0
	movs	r0, #1
.LVL228:
	b	.L145
.LVL229:
.L142:
	.loc 1 4832 7 is_stmt 1
	.loc 1 4832 13 is_stmt 0
	ldr	r0, [r0, #36]
.LVL230:
	bl	HAL_DMA_Abort_IT
.LVL231:
	.loc 1 4833 7 is_stmt 1
	.loc 1 4865 3
	b	.L149
.LVL232:
.L140:
	.loc 1 4842 7
	.loc 1 4842 13 is_stmt 0
	ldr	r0, [r0, #44]
.LVL233:
	bl	HAL_DMA_Abort_IT
.LVL234:
	.loc 1 4843 7 is_stmt 1
	.loc 1 4865 3
	b	.L149
.LVL235:
.L146:
	.loc 1 4852 7
	.loc 1 4852 13 is_stmt 0
	ldr	r0, [r0, #52]
.LVL236:
	bl	HAL_DMA_Abort_IT
.LVL237:
	.loc 1 4853 7 is_stmt 1
	.loc 1 4865 3
	b	.L149
	.cfi_endproc
.LFE400:
	.size	HAL_TIM_DMABurst_WriteStop, .-HAL_TIM_DMABurst_WriteStop
	.section	.text.HAL_TIM_DMABurst_MultiReadStart,"ax",%progbits
	.align	1
	.global	HAL_TIM_DMABurst_MultiReadStart
	.syntax unified
	.thumb
	.thumb_func
	.type	HAL_TIM_DMABurst_MultiReadStart, %function
HAL_TIM_DMABurst_MultiReadStart:
.LFB402:
	.loc 1 4984 1
	.cfi_startproc
	@ args = 8, pretend = 0, frame = 0
	@ frame_needed = 0, uses_anonymous_args = 0
.LVL238:
	push	{r4, r5, r6, lr}
	.cfi_def_cfa_offset 16
	.cfi_offset 4, -16
	.cfi_offset 5, -12
	.cfi_offset 6, -8
	.cfi_offset 14, -4
	mov	r5, r0
	.loc 1 4985 3
.LVL239:
	.loc 1 4988 3
	.loc 1 4989 3
	.loc 1 4990 3
	.loc 1 4991 3
	.loc 1 4992 3
	.loc 1 4994 3
	.loc 1 4994 11 is_stmt 0
	ldrb	ip, [r0, #72]	@ zero_extendqisi2
	uxtb	r0, ip
.LVL240:
	.loc 1 4994 6
	cmp	r0, #2
	beq	.L156
	mov	r6, r1
	mov	r4, r2
	mov	r2, r3
.LVL241:
	.loc 1 4998 8 is_stmt 1
	.loc 1 4998 16 is_stmt 0
	ldrb	ip, [r5, #72]	@ zero_extendqisi2
	uxtb	r0, ip
	.loc 1 4998 11
	cmp	r0, #1
	beq	.L175
.LVL242:
.L157:
	.loc 1 5012 3 is_stmt 1
	.loc 1 5013 3
	cmp	r4, #2048
	beq	.L158
	bhi	.L159
	cmp	r4, #512
	beq	.L160
	cmp	r4, #1024
	bne	.L176
	.loc 1 5054 7
	.loc 1 5054 17 is_stmt 0
	ldr	r3, [r5, #40]
	.loc 1 5054 57
	ldr	r1, .L181
	str	r1, [r3, #60]
	.loc 1 5055 7 is_stmt 1
	.loc 1 5055 17 is_stmt 0
	ldr	r3, [r5, #40]
	.loc 1 5055 61
	ldr	r1, .L181+4
	str	r1, [r3, #64]
	.loc 1 5058 7 is_stmt 1
	.loc 1 5058 17 is_stmt 0
	ldr	r3, [r5, #40]
	.loc 1 5058 58
	ldr	r1, .L181+8
	str	r1, [r3, #76]
	.loc 1 5061 7 is_stmt 1
	.loc 1 5061 76 is_stmt 0
	ldr	r1, [r5]
	.loc 1 5061 11
	ldr	r3, [sp, #20]
	adds	r1, r1, #76
	ldr	r0, [r5, #40]
	bl	HAL_DMA_Start_IT
.LVL243:
	.loc 1 5061 10
	cbz	r0, .L166
	.loc 1 5065 16
	movs	r0, #1
	b	.L156
.LVL244:
.L175:
	.loc 1 5000 5 is_stmt 1
	.loc 1 5000 30 is_stmt 0
	ldr	r1, [sp, #16]
.LVL245:
	clz	r3, r3
	lsrs	r3, r3, #5
	cmp	r1, #0
	it	eq
	moveq	r3, #0
	.loc 1 5000 8
	cbnz	r3, .L156
	.loc 1 5006 7 is_stmt 1
	.loc 1 5006 27 is_stmt 0
	movs	r3, #2
	strb	r3, [r5, #72]
	b	.L157
.L176:
	.loc 1 5013 3
	cmp	r4, #256
	bne	.L177
	.loc 1 5018 7 is_stmt 1
	.loc 1 5018 17 is_stmt 0
	ldr	r3, [r5, #32]
	.loc 1 5018 57
	ldr	r1, .L181+12
	str	r1, [r3, #60]
	.loc 1 5019 7 is_stmt 1
	.loc 1 5019 17 is_stmt 0
	ldr	r3, [r5, #32]
	.loc 1 5019 61
	ldr	r1, .L181+16
	str	r1, [r3, #64]
	.loc 1 5022 7 is_stmt 1
	.loc 1 5022 17 is_stmt 0
	ldr	r3, [r5, #32]
	.loc 1 5022 58
	ldr	r1, .L181+8
	str	r1, [r3, #76]
	.loc 1 5025 7 is_stmt 1
	.loc 1 5025 76 is_stmt 0
	ldr	r1, [r5]
	.loc 1 5025 11
	ldr	r3, [sp, #20]
	adds	r1, r1, #76
	ldr	r0, [r5, #32]
	bl	HAL_DMA_Start_IT
.LVL246:
	.loc 1 5025 10
	cmp	r0, #0
	bne	.L178
.L166:
.LVL247:
	.loc 1 5149 5 is_stmt 1
	.loc 1 5149 9 is_stmt 0
	ldr	r3, [r5]
	.loc 1 5149 45
	ldr	r2, [sp, #16]
	orrs	r6, r6, r2
.LVL248:
	.loc 1 5149 25
	str	r6, [r3, #72]
	.loc 1 5152 5 is_stmt 1
	.loc 1 5152 12 is_stmt 0
	ldr	r2, [r5]
	.loc 1 5152 22
	ldr	r3, [r2, #12]
	.loc 1 5152 29
	orrs	r3, r3, r4
	str	r3, [r2, #12]
	movs	r0, #0
.LVL249:
.L156:
	.loc 1 5157 1
	pop	{r4, r5, r6, pc}
.LVL250:
.L177:
	.loc 1 5013 3
	movs	r0, #1
	b	.L156
.L159:
	cmp	r4, #8192
	beq	.L163
	cmp	r4, #16384
	bne	.L179
	.loc 1 5126 7 is_stmt 1
	.loc 1 5126 17 is_stmt 0
	ldr	r3, [r5, #56]
	.loc 1 5126 57
	ldr	r1, .L181+20
	str	r1, [r3, #60]
	.loc 1 5127 7 is_stmt 1
	.loc 1 5127 17 is_stmt 0
	ldr	r3, [r5, #56]
	.loc 1 5127 61
	ldr	r1, .L181+24
	str	r1, [r3, #64]
	.loc 1 5130 7 is_stmt 1
	.loc 1 5130 17 is_stmt 0
	ldr	r3, [r5, #56]
	.loc 1 5130 58
	ldr	r1, .L181+8
	str	r1, [r3, #76]
	.loc 1 5133 7 is_stmt 1
	.loc 1 5133 76 is_stmt 0
	ldr	r1, [r5]
	.loc 1 5133 11
	ldr	r3, [sp, #20]
	adds	r1, r1, #76
	ldr	r0, [r5, #56]
	bl	HAL_DMA_Start_IT
.LVL251:
	.loc 1 5133 10
	cmp	r0, #0
	beq	.L166
	.loc 1 5137 16
	movs	r0, #1
	b	.L156
.LVL252:
.L179:
	.loc 1 5013 3
	cmp	r4, #4096
	bne	.L180
	.loc 1 5090 7 is_stmt 1
	.loc 1 5090 17 is_stmt 0
	ldr	r3, [r5, #48]
	.loc 1 5090 57
	ldr	r1, .L181
	str	r1, [r3, #60]
	.loc 1 5091 7 is_stmt 1
	.loc 1 5091 17 is_stmt 0
	ldr	r3, [r5, #48]
	.loc 1 5091 61
	ldr	r1, .L181+4
	str	r1, [r3, #64]
	.loc 1 5094 7 is_stmt 1
	.loc 1 5094 17 is_stmt 0
	ldr	r3, [r5, #48]
	.loc 1 5094 58
	ldr	r1, .L181+8
	str	r1, [r3, #76]
	.loc 1 5097 7 is_stmt 1
	.loc 1 5097 76 is_stmt 0
	ldr	r1, [r5]
	.loc 1 5097 11
	ldr	r3, [sp, #20]
	adds	r1, r1, #76
	ldr	r0, [r5, #48]
	bl	HAL_DMA_Start_IT
.LVL253:
	.loc 1 5097 10
	cmp	r0, #0
	beq	.L166
	.loc 1 5101 16
	movs	r0, #1
	b	.L156
.LVL254:
.L180:
	.loc 1 5013 3
	movs	r0, #1
	b	.L156
.L160:
	.loc 1 5036 7 is_stmt 1
	.loc 1 5036 17 is_stmt 0
	ldr	r3, [r5, #36]
	.loc 1 5036 57
	ldr	r1, .L181
	str	r1, [r3, #60]
	.loc 1 5037 7 is_stmt 1
	.loc 1 5037 17 is_stmt 0
	ldr	r3, [r5, #36]
	.loc 1 5037 61
	ldr	r1, .L181+4
	str	r1, [r3, #64]
	.loc 1 5040 7 is_stmt 1
	.loc 1 5040 17 is_stmt 0
	ldr	r3, [r5, #36]
	.loc 1 5040 58
	ldr	r1, .L181+8
	str	r1, [r3, #76]
	.loc 1 5043 7 is_stmt 1
	.loc 1 5043 76 is_stmt 0
	ldr	r1, [r5]
	.loc 1 5043 11
	ldr	r3, [sp, #20]
	adds	r1, r1, #76
	ldr	r0, [r5, #36]
	bl	HAL_DMA_Start_IT
.LVL255:
	.loc 1 5043 10
	cmp	r0, #0
	beq	.L166
	.loc 1 5047 16
	movs	r0, #1
	b	.L156
.LVL256:
.L158:
	.loc 1 5072 7 is_stmt 1
	.loc 1 5072 17 is_stmt 0
	ldr	r3, [r5, #44]
	.loc 1 5072 57
	ldr	r1, .L181
	str	r1, [r3, #60]
	.loc 1 5073 7 is_stmt 1
	.loc 1 5073 17 is_stmt 0
	ldr	r3, [r5, #44]
	.loc 1 5073 61
	ldr	r1, .L181+4
	str	r1, [r3, #64]
	.loc 1 5076 7 is_stmt 1
	.loc 1 5076 17 is_stmt 0
	ldr	r3, [r5, #44]
	.loc 1 5076 58
	ldr	r1, .L181+8
	str	r1, [r3, #76]
	.loc 1 5079 7 is_stmt 1
	.loc 1 5079 76 is_stmt 0
	ldr	r1, [r5]
	.loc 1 5079 11
	ldr	r3, [sp, #20]
	adds	r1, r1, #76
	ldr	r0, [r5, #44]
	bl	HAL_DMA_Start_IT
.LVL257:
	.loc 1 5079 10
	cmp	r0, #0
	beq	.L166
	.loc 1 5083 16
	movs	r0, #1
	b	.L156
.LVL258:
.L163:
	.loc 1 5108 7 is_stmt 1
	.loc 1 5108 17 is_stmt 0
	ldr	r3, [r5, #52]
	.loc 1 5108 57
	ldr	r1, .L181+28
	str	r1, [r3, #60]
	.loc 1 5109 7 is_stmt 1
	.loc 1 5109 17 is_stmt 0
	ldr	r3, [r5, #52]
	.loc 1 5109 61
	ldr	r1, .L181+32
	str	r1, [r3, #64]
	.loc 1 5112 7 is_stmt 1
	.loc 1 5112 17 is_stmt 0
	ldr	r3, [r5, #52]
	.loc 1 5112 58
	ldr	r1, .L181+8
	str	r1, [r3, #76]
	.loc 1 5115 7 is_stmt 1
	.loc 1 5115 76 is_stmt 0
	ldr	r1, [r5]
	.loc 1 5115 11
	ldr	r3, [sp, #20]
	adds	r1, r1, #76
	ldr	r0, [r5, #52]
	bl	HAL_DMA_Start_IT
.LVL259:
	.loc 1 5115 10
	cmp	r0, #0
	beq	.L166
	.loc 1 5119 16
	movs	r0, #1
	b	.L156
.L178:
	.loc 1 5029 16
	movs	r0, #1
	b	.L156
.L182:
	.align	2
.L181:
	.word	TIM_DMACaptureCplt
	.word	TIM_DMACaptureHalfCplt
	.word	TIM_DMAError
	.word	TIM_DMAPeriodElapsedCplt
	.word	TIM_DMAPeriodElapsedHalfCplt
	.word	TIM_DMATriggerCplt
	.word	TIM_DMATriggerHalfCplt
	.word	TIMEx_DMACommutationCplt
	.word	TIMEx_DMACommutationHalfCplt
	.cfi_endproc
.LFE402:
	.size	HAL_TIM_DMABurst_MultiReadStart, .-HAL_TIM_DMABurst_MultiReadStart
	.section	.text.HAL_TIM_DMABurst_ReadStart,"ax",%progbits
	.align	1
	.global	HAL_TIM_DMABurst_ReadStart
	.syntax unified
	.thumb
	.thumb_func
	.type	HAL_TIM_DMABurst_ReadStart, %function
HAL_TIM_DMABurst_ReadStart:
.LFB401:
	.loc 1 4925 1 is_stmt 1
	.cfi_startproc
	@ args = 4, pretend = 0, frame = 0
	@ frame_needed = 0, uses_anonymous_args = 0
.LVL260:
	push	{r4, r5, lr}
	.cfi_def_cfa_offset 12
	.cfi_offset 4, -12
	.cfi_offset 5, -8
	.cfi_offset 14, -4
	sub	sp, sp, #12
	.cfi_def_cfa_offset 24
	ldr	r5, [sp, #24]
	.loc 1 4926 3
	.loc 1 4928 3
	.loc 1 4929 59 is_stmt 0
	lsrs	r4, r5, #8
	.loc 1 4928 12
	adds	r4, r4, #1
	str	r4, [sp, #4]
	str	r5, [sp]
	bl	HAL_TIM_DMABurst_MultiReadStart
.LVL261:
	.loc 1 4932 3 is_stmt 1
	.loc 1 4933 1 is_stmt 0
	add	sp, sp, #12
	.cfi_def_cfa_offset 12
	@ sp needed
	pop	{r4, r5, pc}
	.cfi_endproc
.LFE401:
	.size	HAL_TIM_DMABurst_ReadStart, .-HAL_TIM_DMABurst_ReadStart
	.section	.text.HAL_TIM_DMABurst_ReadStop,"ax",%progbits
	.align	1
	.global	HAL_TIM_DMABurst_ReadStop
	.syntax unified
	.thumb
	.thumb_func
	.type	HAL_TIM_DMABurst_ReadStop, %function
HAL_TIM_DMABurst_ReadStop:
.LFB403:
	.loc 1 5166 1 is_stmt 1
	.cfi_startproc
	@ args = 0, pretend = 0, frame = 0
	@ frame_needed = 0, uses_anonymous_args = 0
.LVL262:
	push	{r3, r4, r5, lr}
	.cfi_def_cfa_offset 16
	.cfi_offset 3, -16
	.cfi_offset 4, -12
	.cfi_offset 5, -8
	.cfi_offset 14, -4
	mov	r5, r0
	mov	r4, r1
	.loc 1 5167 3
.LVL263:
	.loc 1 5170 3
	.loc 1 5173 3
	cmp	r1, #2048
	beq	.L186
	bhi	.L187
	cmp	r1, #512
	beq	.L188
	cmp	r1, #1024
	bne	.L197
	.loc 1 5187 7
	.loc 1 5187 13 is_stmt 0
	ldr	r0, [r0, #40]
.LVL264:
	bl	HAL_DMA_Abort_IT
.LVL265:
	.loc 1 5188 7 is_stmt 1
	.loc 1 5215 3
	b	.L195
.LVL266:
.L197:
	.loc 1 5173 3 is_stmt 0
	cmp	r1, #256
	bne	.L198
	.loc 1 5177 7 is_stmt 1
	.loc 1 5177 13 is_stmt 0
	ldr	r0, [r0, #32]
.LVL267:
	bl	HAL_DMA_Abort_IT
.LVL268:
	.loc 1 5178 7 is_stmt 1
	.loc 1 5215 3
.L195:
	.loc 1 5218 5
	.loc 1 5218 12 is_stmt 0
	ldr	r2, [r5]
	.loc 1 5218 22
	ldr	r3, [r2, #12]
	.loc 1 5218 29
	bic	r3, r3, r4
	str	r3, [r2, #12]
	.loc 1 5221 5 is_stmt 1
	.loc 1 5221 25 is_stmt 0
	movs	r3, #1
	strb	r3, [r5, #72]
	movs	r0, #0
.L191:
.LVL269:
	.loc 1 5225 3 is_stmt 1
	.loc 1 5226 1 is_stmt 0
	pop	{r3, r4, r5, pc}
.LVL270:
.L198:
	.loc 1 5173 3
	movs	r0, #1
.LVL271:
	b	.L191
.LVL272:
.L187:
	cmp	r1, #8192
	beq	.L192
	cmp	r1, #16384
	bne	.L199
	.loc 1 5207 7 is_stmt 1
	.loc 1 5207 13 is_stmt 0
	ldr	r0, [r0, #56]
.LVL273:
	bl	HAL_DMA_Abort_IT
.LVL274:
	.loc 1 5208 7 is_stmt 1
	.loc 1 5215 3
	b	.L195
.LVL275:
.L199:
	.loc 1 5173 3 is_stmt 0
	cmp	r1, #4096
	bne	.L200
	.loc 1 5197 7 is_stmt 1
	.loc 1 5197 13 is_stmt 0
	ldr	r0, [r0, #48]
.LVL276:
	bl	HAL_DMA_Abort_IT
.LVL277:
	.loc 1 5198 7 is_stmt 1
	.loc 1 5215 3
	b	.L195
.LVL278:
.L200:
	.loc 1 5173 3 is_stmt 0
	movs	r0, #1
.LVL279:
	b	.L191
.LVL280:
.L188:
	.loc 1 5182 7 is_stmt 1
	.loc 1 5182 13 is_stmt 0
	ldr	r0, [r0, #36]
.LVL281:
	bl	HAL_DMA_Abort_IT
.LVL282:
	.loc 1 5183 7 is_stmt 1
	.loc 1 5215 3
	b	.L195
.LVL283:
.L186:
	.loc 1 5192 7
	.loc 1 5192 13 is_stmt 0
	ldr	r0, [r0, #44]
.LVL284:
	bl	HAL_DMA_Abort_IT
.LVL285:
	.loc 1 5193 7 is_stmt 1
	.loc 1 5215 3
	b	.L195
.LVL286:
.L192:
	.loc 1 5202 7
	.loc 1 5202 13 is_stmt 0
	ldr	r0, [r0, #52]
.LVL287:
	bl	HAL_DMA_Abort_IT
.LVL288:
	.loc 1 5203 7 is_stmt 1
	.loc 1 5215 3
	b	.L195
	.cfi_endproc
.LFE403:
	.size	HAL_TIM_DMABurst_ReadStop, .-HAL_TIM_DMABurst_ReadStop
	.section	.text.HAL_TIM_GenerateEvent,"ax",%progbits
	.align	1
	.global	HAL_TIM_GenerateEvent
	.syntax unified
	.thumb
	.thumb_func
	.type	HAL_TIM_GenerateEvent, %function
HAL_TIM_GenerateEvent:
.LFB404:
	.loc 1 5250 1
	.cfi_startproc
	@ args = 0, pretend = 0, frame = 0
	@ frame_needed = 0, uses_anonymous_args = 0
	@ link register save eliminated.
.LVL289:
	.loc 1 5252 3
	.loc 1 5253 3
	.loc 1 5256 3
	.loc 1 5256 7
	.loc 1 5256 16 is_stmt 0
	ldrb	r3, [r0, #60]	@ zero_extendqisi2
	.loc 1 5256 9
	cmp	r3, #1
	beq	.L203
	.loc 1 5256 66 is_stmt 1 discriminator 2
	.loc 1 5256 79 is_stmt 0 discriminator 2
	movs	r3, #1
	strb	r3, [r0, #60]
	.loc 1 5256 5 is_stmt 1 discriminator 2
	.loc 1 5259 3 discriminator 2
	.loc 1 5259 15 is_stmt 0 discriminator 2
	movs	r2, #2
	strb	r2, [r0, #61]
	.loc 1 5262 3 is_stmt 1 discriminator 2
	.loc 1 5262 7 is_stmt 0 discriminator 2
	ldr	r2, [r0]
	.loc 1 5262 23 discriminator 2
	str	r1, [r2, #20]
	.loc 1 5265 3 is_stmt 1 discriminator 2
	.loc 1 5265 15 is_stmt 0 discriminator 2
	strb	r3, [r0, #61]
	.loc 1 5267 3 is_stmt 1 discriminator 2
	.loc 1 5267 7 discriminator 2
	.loc 1 5267 20 is_stmt 0 discriminator 2
	movs	r3, #0
	strb	r3, [r0, #60]
	.loc 1 5267 5 is_stmt 1 discriminator 2
	.loc 1 5270 3 discriminator 2
	.loc 1 5270 10 is_stmt 0 discriminator 2
	mov	r0, r3
.LVL290:
	bx	lr
.LVL291:
.L203:
	.loc 1 5256 47
	movs	r0, #2
.LVL292:
	.loc 1 5271 1
	bx	lr
	.cfi_endproc
.LFE404:
	.size	HAL_TIM_GenerateEvent, .-HAL_TIM_GenerateEvent
	.section	.text.HAL_TIM_ConfigTI1Input,"ax",%progbits
	.align	1
	.global	HAL_TIM_ConfigTI1Input
	.syntax unified
	.thumb
	.thumb_func
	.type	HAL_TIM_ConfigTI1Input, %function
HAL_TIM_ConfigTI1Input:
.LFB407:
	.loc 1 5606 1 is_stmt 1
	.cfi_startproc
	@ args = 0, pretend = 0, frame = 0
	@ frame_needed = 0, uses_anonymous_args = 0
	@ link register save eliminated.
.LVL293:
	.loc 1 5607 3
	.loc 1 5610 3
	.loc 1 5611 3
	.loc 1 5614 3
	.loc 1 5614 16 is_stmt 0
	ldr	r2, [r0]
	.loc 1 5614 10
	ldr	r3, [r2, #4]
.LVL294:
	.loc 1 5617 3 is_stmt 1
	.loc 1 5617 10 is_stmt 0
	bic	r3, r3, #128
.LVL295:
	.loc 1 5620 3 is_stmt 1
	.loc 1 5620 10 is_stmt 0
	orrs	r3, r3, r1
.LVL296:
	.loc 1 5623 3 is_stmt 1
	.loc 1 5623 23 is_stmt 0
	str	r3, [r2, #4]
	.loc 1 5625 3 is_stmt 1
	.loc 1 5626 1 is_stmt 0
	movs	r0, #0
.LVL297:
	bx	lr
	.cfi_endproc
.LFE407:
	.size	HAL_TIM_ConfigTI1Input, .-HAL_TIM_ConfigTI1Input
	.section	.text.HAL_TIM_ReadCapturedValue,"ax",%progbits
	.align	1
	.global	HAL_TIM_ReadCapturedValue
	.syntax unified
	.thumb
	.thumb_func
	.type	HAL_TIM_ReadCapturedValue, %function
HAL_TIM_ReadCapturedValue:
.LFB410:
	.loc 1 5721 1 is_stmt 1
	.cfi_startproc
	@ args = 0, pretend = 0, frame = 0
	@ frame_needed = 0, uses_anonymous_args = 0
	@ link register save eliminated.
.LVL298:
	.loc 1 5722 3
	.loc 1 5724 3
	cmp	r1, #12
	bhi	.L212
	tbb	[pc, r1]
.L208:
	.byte	(.L211-.L208)/2
	.byte	(.L212-.L208)/2
	.byte	(.L212-.L208)/2
	.byte	(.L212-.L208)/2
	.byte	(.L210-.L208)/2
	.byte	(.L212-.L208)/2
	.byte	(.L212-.L208)/2
	.byte	(.L212-.L208)/2
	.byte	(.L209-.L208)/2
	.byte	(.L212-.L208)/2
	.byte	(.L212-.L208)/2
	.byte	(.L212-.L208)/2
	.byte	(.L207-.L208)/2
	.p2align 1
.L211:
	.loc 1 5729 7
	.loc 1 5732 7
	.loc 1 5732 20 is_stmt 0
	ldr	r3, [r0]
	.loc 1 5732 14
	ldr	r0, [r3, #52]
.LVL299:
	.loc 1 5734 7 is_stmt 1
	bx	lr
.LVL300:
.L210:
	.loc 1 5739 7
	.loc 1 5742 7
	.loc 1 5742 20 is_stmt 0
	ldr	r3, [r0]
	.loc 1 5742 14
	ldr	r0, [r3, #56]
.LVL301:
	.loc 1 5744 7 is_stmt 1
	bx	lr
.LVL302:
.L209:
	.loc 1 5750 7
	.loc 1 5753 7
	.loc 1 5753 20 is_stmt 0
	ldr	r3, [r0]
	.loc 1 5753 14
	ldr	r0, [r3, #60]
.LVL303:
	.loc 1 5755 7 is_stmt 1
	bx	lr
.LVL304:
.L207:
	.loc 1 5761 7
	.loc 1 5764 7
	.loc 1 5764 20 is_stmt 0
	ldr	r3, [r0]
	.loc 1 5764 14
	ldr	r0, [r3, #64]
.LVL305:
	.loc 1 5766 7 is_stmt 1
	bx	lr
.LVL306:
.L212:
	.loc 1 5724 3 is_stmt 0
	movs	r0, #0
.LVL307:
	.loc 1 5773 3 is_stmt 1
	.loc 1 5774 1 is_stmt 0
	bx	lr
	.cfi_endproc
.LFE410:
	.size	HAL_TIM_ReadCapturedValue, .-HAL_TIM_ReadCapturedValue
	.section	.text.HAL_TIM_PeriodElapsedCallback,"ax",%progbits
	.align	1
	.weak	HAL_TIM_PeriodElapsedCallback
	.syntax unified
	.thumb
	.thumb_func
	.type	HAL_TIM_PeriodElapsedCallback, %function
HAL_TIM_PeriodElapsedCallback:
.LFB411:
	.loc 1 5805 1 is_stmt 1
	.cfi_startproc
	@ args = 0, pretend = 0, frame = 0
	@ frame_needed = 0, uses_anonymous_args = 0
	@ link register save eliminated.
.LVL308:
	.loc 1 5807 3
	.loc 1 5812 1 is_stmt 0
	bx	lr
	.cfi_endproc
.LFE411:
	.size	HAL_TIM_PeriodElapsedCallback, .-HAL_TIM_PeriodElapsedCallback
	.section	.text.TIM_DMAPeriodElapsedCplt,"ax",%progbits
	.align	1
	.syntax unified
	.thumb
	.thumb_func
	.type	TIM_DMAPeriodElapsedCplt, %function
TIM_DMAPeriodElapsedCplt:
.LFB435:
	.loc 1 6861 1 is_stmt 1
	.cfi_startproc
	@ args = 0, pretend = 0, frame = 0
	@ frame_needed = 0, uses_anonymous_args = 0
.LVL309:
	push	{r3, lr}
	.cfi_def_cfa_offset 8
	.cfi_offset 3, -8
	.cfi_offset 14, -4
	.loc 1 6862 3
	.loc 1 6862 22 is_stmt 0
	ldr	r0, [r0, #56]
.LVL310:
	.loc 1 6864 3 is_stmt 1
	.loc 1 6864 17 is_stmt 0
	ldr	r3, [r0, #32]
	.loc 1 6864 44
	ldr	r3, [r3, #28]
	.loc 1 6864 6
	cbnz	r3, .L215
	.loc 1 6866 5 is_stmt 1
	.loc 1 6866 17 is_stmt 0
	movs	r3, #1
	strb	r3, [r0, #61]
.L215:
	.loc 1 6872 3 is_stmt 1
	bl	HAL_TIM_PeriodElapsedCallback
.LVL311:
	.loc 1 6874 1 is_stmt 0
	pop	{r3, pc}
	.cfi_endproc
.LFE435:
	.size	TIM_DMAPeriodElapsedCplt, .-TIM_DMAPeriodElapsedCplt
	.section	.text.HAL_TIM_PeriodElapsedHalfCpltCallback,"ax",%progbits
	.align	1
	.weak	HAL_TIM_PeriodElapsedHalfCpltCallback
	.syntax unified
	.thumb
	.thumb_func
	.type	HAL_TIM_PeriodElapsedHalfCpltCallback, %function
HAL_TIM_PeriodElapsedHalfCpltCallback:
.LFB412:
	.loc 1 5820 1 is_stmt 1
	.cfi_startproc
	@ args = 0, pretend = 0, frame = 0
	@ frame_needed = 0, uses_anonymous_args = 0
	@ link register save eliminated.
.LVL312:
	.loc 1 5822 3
	.loc 1 5827 1 is_stmt 0
	bx	lr
	.cfi_endproc
.LFE412:
	.size	HAL_TIM_PeriodElapsedHalfCpltCallback, .-HAL_TIM_PeriodElapsedHalfCpltCallback
	.section	.text.TIM_DMAPeriodElapsedHalfCplt,"ax",%progbits
	.align	1
	.syntax unified
	.thumb
	.thumb_func
	.type	TIM_DMAPeriodElapsedHalfCplt, %function
TIM_DMAPeriodElapsedHalfCplt:
.LFB436:
	.loc 1 6882 1 is_stmt 1
	.cfi_startproc
	@ args = 0, pretend = 0, frame = 0
	@ frame_needed = 0, uses_anonymous_args = 0
.LVL313:
	push	{r3, lr}
	.cfi_def_cfa_offset 8
	.cfi_offset 3, -8
	.cfi_offset 14, -4
	.loc 1 6883 3
.LVL314:
	.loc 1 6888 3
	ldr	r0, [r0, #56]
.LVL315:
	bl	HAL_TIM_PeriodElapsedHalfCpltCallback
.LVL316:
	.loc 1 6890 1 is_stmt 0
	pop	{r3, pc}
	.cfi_endproc
.LFE436:
	.size	TIM_DMAPeriodElapsedHalfCplt, .-TIM_DMAPeriodElapsedHalfCplt
	.section	.text.HAL_TIM_OC_DelayElapsedCallback,"ax",%progbits
	.align	1
	.weak	HAL_TIM_OC_DelayElapsedCallback
	.syntax unified
	.thumb
	.thumb_func
	.type	HAL_TIM_OC_DelayElapsedCallback, %function
HAL_TIM_OC_DelayElapsedCallback:
.LFB413:
	.loc 1 5835 1 is_stmt 1
	.cfi_startproc
	@ args = 0, pretend = 0, frame = 0
	@ frame_needed = 0, uses_anonymous_args = 0
	@ link register save eliminated.
.LVL317:
	.loc 1 5837 3
	.loc 1 5842 1 is_stmt 0
	bx	lr
	.cfi_endproc
.LFE413:
	.size	HAL_TIM_OC_DelayElapsedCallback, .-HAL_TIM_OC_DelayElapsedCallback
	.section	.text.HAL_TIM_IC_CaptureCallback,"ax",%progbits
	.align	1
	.weak	HAL_TIM_IC_CaptureCallback
	.syntax unified
	.thumb
	.thumb_func
	.type	HAL_TIM_IC_CaptureCallback, %function
HAL_TIM_IC_CaptureCallback:
.LFB414:
	.loc 1 5850 1 is_stmt 1
	.cfi_startproc
	@ args = 0, pretend = 0, frame = 0
	@ frame_needed = 0, uses_anonymous_args = 0
	@ link register save eliminated.
.LVL318:
	.loc 1 5852 3
	.loc 1 5857 1 is_stmt 0
	bx	lr
	.cfi_endproc
.LFE414:
	.size	HAL_TIM_IC_CaptureCallback, .-HAL_TIM_IC_CaptureCallback
	.section	.text.TIM_DMACaptureCplt,"ax",%progbits
	.align	1
	.global	TIM_DMACaptureCplt
	.syntax unified
	.thumb
	.thumb_func
	.type	TIM_DMACaptureCplt, %function
TIM_DMACaptureCplt:
.LFB433:
	.loc 1 6759 1 is_stmt 1
	.cfi_startproc
	@ args = 0, pretend = 0, frame = 0
	@ frame_needed = 0, uses_anonymous_args = 0
.LVL319:
	push	{r4, lr}
	.cfi_def_cfa_offset 8
	.cfi_offset 4, -8
	.cfi_offset 14, -4
	.loc 1 6760 3
	.loc 1 6760 22 is_stmt 0
	ldr	r4, [r0, #56]
.LVL320:
	.loc 1 6762 3 is_stmt 1
	.loc 1 6762 25 is_stmt 0
	ldr	r3, [r4, #36]
	.loc 1 6762 6
	cmp	r3, r0
	beq	.L228
	.loc 1 6772 8 is_stmt 1
	.loc 1 6772 30 is_stmt 0
	ldr	r3, [r4, #40]
	.loc 1 6772 11
	cmp	r3, r0
	beq	.L229
	.loc 1 6782 8 is_stmt 1
	.loc 1 6782 30 is_stmt 0
	ldr	r3, [r4, #44]
	.loc 1 6782 11
	cmp	r3, r0
	beq	.L230
	.loc 1 6792 8 is_stmt 1
	.loc 1 6792 30 is_stmt 0
	ldr	r3, [r4, #48]
	.loc 1 6792 11
	cmp	r3, r0
	beq	.L231
.L224:
	.loc 1 6805 3 is_stmt 1
	.loc 1 6810 3
	mov	r0, r4
.LVL321:
	bl	HAL_TIM_IC_CaptureCallback
.LVL322:
	.loc 1 6813 3
	.loc 1 6813 17 is_stmt 0
	movs	r3, #0
	strb	r3, [r4, #28]
	.loc 1 6814 1
	pop	{r4, pc}
.LVL323:
.L228:
	.loc 1 6764 5 is_stmt 1
	.loc 1 6764 19 is_stmt 0
	movs	r3, #1
	strb	r3, [r4, #28]
	.loc 1 6766 5 is_stmt 1
	.loc 1 6766 19 is_stmt 0
	ldr	r3, [r0, #28]
	.loc 1 6766 8
	cmp	r3, #0
	bne	.L224
	.loc 1 6768 7 is_stmt 1
	.loc 1 6768 66 is_stmt 0
	movs	r3, #1
	strb	r3, [r4, #62]
	.loc 1 6769 7 is_stmt 1
	.loc 1 6769 67 is_stmt 0
	strb	r3, [r4, #68]
	b	.L224
.L229:
	.loc 1 6774 5 is_stmt 1
	.loc 1 6774 19 is_stmt 0
	movs	r3, #2
	strb	r3, [r4, #28]
	.loc 1 6776 5 is_stmt 1
	.loc 1 6776 19 is_stmt 0
	ldr	r3, [r0, #28]
	.loc 1 6776 8
	cmp	r3, #0
	bne	.L224
	.loc 1 6778 7 is_stmt 1
	.loc 1 6778 159 is_stmt 0
	movs	r3, #1
	strb	r3, [r4, #63]
	.loc 1 6779 7 is_stmt 1
	.loc 1 6779 161 is_stmt 0
	strb	r3, [r4, #69]
	b	.L224
.L230:
	.loc 1 6784 5 is_stmt 1
	.loc 1 6784 19 is_stmt 0
	movs	r3, #4
	strb	r3, [r4, #28]
	.loc 1 6786 5 is_stmt 1
	.loc 1 6786 19 is_stmt 0
	ldr	r3, [r0, #28]
	.loc 1 6786 8
	cmp	r3, #0
	bne	.L224
	.loc 1 6788 7 is_stmt 1
	.loc 1 6788 252 is_stmt 0
	movs	r3, #1
	strb	r3, [r4, #64]
	.loc 1 6789 7 is_stmt 1
	.loc 1 6789 255 is_stmt 0
	strb	r3, [r4, #70]
	b	.L224
.L231:
	.loc 1 6794 5 is_stmt 1
	.loc 1 6794 19 is_stmt 0
	movs	r3, #8
	strb	r3, [r4, #28]
	.loc 1 6796 5 is_stmt 1
	.loc 1 6796 19 is_stmt 0
	ldr	r3, [r0, #28]
	.loc 1 6796 8
	cmp	r3, #0
	bne	.L224
	.loc 1 6798 7 is_stmt 1
	.loc 1 6798 345 is_stmt 0
	movs	r3, #1
	strb	r3, [r4, #65]
	.loc 1 6799 7 is_stmt 1
	.loc 1 6799 316 is_stmt 0
	strb	r3, [r4, #71]
	b	.L224
	.cfi_endproc
.LFE433:
	.size	TIM_DMACaptureCplt, .-TIM_DMACaptureCplt
	.section	.text.HAL_TIM_IC_CaptureHalfCpltCallback,"ax",%progbits
	.align	1
	.weak	HAL_TIM_IC_CaptureHalfCpltCallback
	.syntax unified
	.thumb
	.thumb_func
	.type	HAL_TIM_IC_CaptureHalfCpltCallback, %function
HAL_TIM_IC_CaptureHalfCpltCallback:
.LFB415:
	.loc 1 5865 1 is_stmt 1
	.cfi_startproc
	@ args = 0, pretend = 0, frame = 0
	@ frame_needed = 0, uses_anonymous_args = 0
	@ link register save eliminated.
.LVL324:
	.loc 1 5867 3
	.loc 1 5872 1 is_stmt 0
	bx	lr
	.cfi_endproc
.LFE415:
	.size	HAL_TIM_IC_CaptureHalfCpltCallback, .-HAL_TIM_IC_CaptureHalfCpltCallback
	.section	.text.TIM_DMACaptureHalfCplt,"ax",%progbits
	.align	1
	.global	TIM_DMACaptureHalfCplt
	.syntax unified
	.thumb
	.thumb_func
	.type	TIM_DMACaptureHalfCplt, %function
TIM_DMACaptureHalfCplt:
.LFB434:
	.loc 1 6822 1 is_stmt 1
	.cfi_startproc
	@ args = 0, pretend = 0, frame = 0
	@ frame_needed = 0, uses_anonymous_args = 0
.LVL325:
	push	{r4, lr}
	.cfi_def_cfa_offset 8
	.cfi_offset 4, -8
	.cfi_offset 14, -4
	.loc 1 6823 3
	.loc 1 6823 22 is_stmt 0
	ldr	r4, [r0, #56]
.LVL326:
	.loc 1 6825 3 is_stmt 1
	.loc 1 6825 25 is_stmt 0
	ldr	r3, [r4, #36]
	.loc 1 6825 6
	cmp	r3, r0
	beq	.L239
	.loc 1 6829 8 is_stmt 1
	.loc 1 6829 30 is_stmt 0
	ldr	r3, [r4, #40]
	.loc 1 6829 11
	cmp	r3, r0
	beq	.L240
	.loc 1 6833 8 is_stmt 1
	.loc 1 6833 30 is_stmt 0
	ldr	r3, [r4, #44]
	.loc 1 6833 11
	cmp	r3, r0
	beq	.L241
	.loc 1 6837 8 is_stmt 1
	.loc 1 6837 30 is_stmt 0
	ldr	r3, [r4, #48]
	.loc 1 6837 11
	cmp	r3, r0
	bne	.L235
	.loc 1 6839 5 is_stmt 1
	.loc 1 6839 19 is_stmt 0
	movs	r3, #8
	strb	r3, [r4, #28]
	b	.L235
.L239:
	.loc 1 6827 5 is_stmt 1
	.loc 1 6827 19 is_stmt 0
	movs	r3, #1
	strb	r3, [r4, #28]
.L235:
	.loc 1 6844 3 is_stmt 1
	.loc 1 6849 3
	mov	r0, r4
.LVL327:
	bl	HAL_TIM_IC_CaptureHalfCpltCallback
.LVL328:
	.loc 1 6852 3
	.loc 1 6852 17 is_stmt 0
	movs	r3, #0
	strb	r3, [r4, #28]
	.loc 1 6853 1
	pop	{r4, pc}
.LVL329:
.L240:
	.loc 1 6831 5 is_stmt 1
	.loc 1 6831 19 is_stmt 0
	movs	r3, #2
	strb	r3, [r4, #28]
	b	.L235
.L241:
	.loc 1 6835 5 is_stmt 1
	.loc 1 6835 19 is_stmt 0
	movs	r3, #4
	strb	r3, [r4, #28]
	b	.L235
	.cfi_endproc
.LFE434:
	.size	TIM_DMACaptureHalfCplt, .-TIM_DMACaptureHalfCplt
	.section	.text.HAL_TIM_PWM_PulseFinishedCallback,"ax",%progbits
	.align	1
	.weak	HAL_TIM_PWM_PulseFinishedCallback
	.syntax unified
	.thumb
	.thumb_func
	.type	HAL_TIM_PWM_PulseFinishedCallback, %function
HAL_TIM_PWM_PulseFinishedCallback:
.LFB416:
	.loc 1 5880 1 is_stmt 1
	.cfi_startproc
	@ args = 0, pretend = 0, frame = 0
	@ frame_needed = 0, uses_anonymous_args = 0
	@ link register save eliminated.
.LVL330:
	.loc 1 5882 3
	.loc 1 5887 1 is_stmt 0
	bx	lr
	.cfi_endproc
.LFE416:
	.size	HAL_TIM_PWM_PulseFinishedCallback, .-HAL_TIM_PWM_PulseFinishedCallback
	.section	.text.TIM_DMADelayPulseCplt,"ax",%progbits
	.align	1
	.syntax unified
	.thumb
	.thumb_func
	.type	TIM_DMADelayPulseCplt, %function
TIM_DMADelayPulseCplt:
.LFB431:
	.loc 1 6661 1 is_stmt 1
	.cfi_startproc
	@ args = 0, pretend = 0, frame = 0
	@ frame_needed = 0, uses_anonymous_args = 0
.LVL331:
	push	{r4, lr}
	.cfi_def_cfa_offset 8
	.cfi_offset 4, -8
	.cfi_offset 14, -4
	.loc 1 6662 3
	.loc 1 6662 22 is_stmt 0
	ldr	r4, [r0, #56]
.LVL332:
	.loc 1 6664 3 is_stmt 1
	.loc 1 6664 25 is_stmt 0
	ldr	r3, [r4, #36]
	.loc 1 6664 6
	cmp	r3, r0
	beq	.L249
	.loc 1 6673 8 is_stmt 1
	.loc 1 6673 30 is_stmt 0
	ldr	r3, [r4, #40]
	.loc 1 6673 11
	cmp	r3, r0
	beq	.L250
	.loc 1 6682 8 is_stmt 1
	.loc 1 6682 30 is_stmt 0
	ldr	r3, [r4, #44]
	.loc 1 6682 11
	cmp	r3, r0
	beq	.L251
	.loc 1 6691 8 is_stmt 1
	.loc 1 6691 30 is_stmt 0
	ldr	r3, [r4, #48]
	.loc 1 6691 11
	cmp	r3, r0
	beq	.L252
.L245:
	.loc 1 6703 3 is_stmt 1
	.loc 1 6708 3
	mov	r0, r4
.LVL333:
	bl	HAL_TIM_PWM_PulseFinishedCallback
.LVL334:
	.loc 1 6711 3
	.loc 1 6711 17 is_stmt 0
	movs	r3, #0
	strb	r3, [r4, #28]
	.loc 1 6712 1
	pop	{r4, pc}
.LVL335:
.L249:
	.loc 1 6666 5 is_stmt 1
	.loc 1 6666 19 is_stmt 0
	movs	r3, #1
	strb	r3, [r4, #28]
	.loc 1 6668 5 is_stmt 1
	.loc 1 6668 19 is_stmt 0
	ldr	r3, [r0, #28]
	.loc 1 6668 8
	cmp	r3, #0
	bne	.L245
	.loc 1 6670 7 is_stmt 1
	.loc 1 6670 66 is_stmt 0
	movs	r3, #1
	strb	r3, [r4, #62]
	b	.L245
.L250:
	.loc 1 6675 5 is_stmt 1
	.loc 1 6675 19 is_stmt 0
	movs	r3, #2
	strb	r3, [r4, #28]
	.loc 1 6677 5 is_stmt 1
	.loc 1 6677 19 is_stmt 0
	ldr	r3, [r0, #28]
	.loc 1 6677 8
	cmp	r3, #0
	bne	.L245
	.loc 1 6679 7 is_stmt 1
	.loc 1 6679 159 is_stmt 0
	movs	r3, #1
	strb	r3, [r4, #63]
	b	.L245
.L251:
	.loc 1 6684 5 is_stmt 1
	.loc 1 6684 19 is_stmt 0
	movs	r3, #4
	strb	r3, [r4, #28]
	.loc 1 6686 5 is_stmt 1
	.loc 1 6686 19 is_stmt 0
	ldr	r3, [r0, #28]
	.loc 1 6686 8
	cmp	r3, #0
	bne	.L245
	.loc 1 6688 7 is_stmt 1
	.loc 1 6688 252 is_stmt 0
	movs	r3, #1
	strb	r3, [r4, #64]
	b	.L245
.L252:
	.loc 1 6693 5 is_stmt 1
	.loc 1 6693 19 is_stmt 0
	movs	r3, #8
	strb	r3, [r4, #28]
	.loc 1 6695 5 is_stmt 1
	.loc 1 6695 19 is_stmt 0
	ldr	r3, [r0, #28]
	.loc 1 6695 8
	cmp	r3, #0
	bne	.L245
	.loc 1 6697 7 is_stmt 1
	.loc 1 6697 345 is_stmt 0
	movs	r3, #1
	strb	r3, [r4, #65]
	b	.L245
	.cfi_endproc
.LFE431:
	.size	TIM_DMADelayPulseCplt, .-TIM_DMADelayPulseCplt
	.section	.text.HAL_TIM_PWM_PulseFinishedHalfCpltCallback,"ax",%progbits
	.align	1
	.weak	HAL_TIM_PWM_PulseFinishedHalfCpltCallback
	.syntax unified
	.thumb
	.thumb_func
	.type	HAL_TIM_PWM_PulseFinishedHalfCpltCallback, %function
HAL_TIM_PWM_PulseFinishedHalfCpltCallback:
.LFB417:
	.loc 1 5895 1 is_stmt 1
	.cfi_startproc
	@ args = 0, pretend = 0, frame = 0
	@ frame_needed = 0, uses_anonymous_args = 0
	@ link register save eliminated.
.LVL336:
	.loc 1 5897 3
	.loc 1 5902 1 is_stmt 0
	bx	lr
	.cfi_endproc
.LFE417:
	.size	HAL_TIM_PWM_PulseFinishedHalfCpltCallback, .-HAL_TIM_PWM_PulseFinishedHalfCpltCallback
	.section	.text.TIM_DMADelayPulseHalfCplt,"ax",%progbits
	.align	1
	.global	TIM_DMADelayPulseHalfCplt
	.syntax unified
	.thumb
	.thumb_func
	.type	TIM_DMADelayPulseHalfCplt, %function
TIM_DMADelayPulseHalfCplt:
.LFB432:
	.loc 1 6720 1 is_stmt 1
	.cfi_startproc
	@ args = 0, pretend = 0, frame = 0
	@ frame_needed = 0, uses_anonymous_args = 0
.LVL337:
	push	{r4, lr}
	.cfi_def_cfa_offset 8
	.cfi_offset 4, -8
	.cfi_offset 14, -4
	.loc 1 6721 3
	.loc 1 6721 22 is_stmt 0
	ldr	r4, [r0, #56]
.LVL338:
	.loc 1 6723 3 is_stmt 1
	.loc 1 6723 25 is_stmt 0
	ldr	r3, [r4, #36]
	.loc 1 6723 6
	cmp	r3, r0
	beq	.L260
	.loc 1 6727 8 is_stmt 1
	.loc 1 6727 30 is_stmt 0
	ldr	r3, [r4, #40]
	.loc 1 6727 11
	cmp	r3, r0
	beq	.L261
	.loc 1 6731 8 is_stmt 1
	.loc 1 6731 30 is_stmt 0
	ldr	r3, [r4, #44]
	.loc 1 6731 11
	cmp	r3, r0
	beq	.L262
	.loc 1 6735 8 is_stmt 1
	.loc 1 6735 30 is_stmt 0
	ldr	r3, [r4, #48]
	.loc 1 6735 11
	cmp	r3, r0
	bne	.L256
	.loc 1 6737 5 is_stmt 1
	.loc 1 6737 19 is_stmt 0
	movs	r3, #8
	strb	r3, [r4, #28]
	b	.L256
.L260:
	.loc 1 6725 5 is_stmt 1
	.loc 1 6725 19 is_stmt 0
	movs	r3, #1
	strb	r3, [r4, #28]
.L256:
	.loc 1 6742 3 is_stmt 1
	.loc 1 6747 3
	mov	r0, r4
.LVL339:
	bl	HAL_TIM_PWM_PulseFinishedHalfCpltCallback
.LVL340:
	.loc 1 6750 3
	.loc 1 6750 17 is_stmt 0
	movs	r3, #0
	strb	r3, [r4, #28]
	.loc 1 6751 1
	pop	{r4, pc}
.LVL341:
.L261:
	.loc 1 6729 5 is_stmt 1
	.loc 1 6729 19 is_stmt 0
	movs	r3, #2
	strb	r3, [r4, #28]
	b	.L256
.L262:
	.loc 1 6733 5 is_stmt 1
	.loc 1 6733 19 is_stmt 0
	movs	r3, #4
	strb	r3, [r4, #28]
	b	.L256
	.cfi_endproc
.LFE432:
	.size	TIM_DMADelayPulseHalfCplt, .-TIM_DMADelayPulseHalfCplt
	.section	.text.HAL_TIM_TriggerCallback,"ax",%progbits
	.align	1
	.weak	HAL_TIM_TriggerCallback
	.syntax unified
	.thumb
	.thumb_func
	.type	HAL_TIM_TriggerCallback, %function
HAL_TIM_TriggerCallback:
.LFB418:
	.loc 1 5910 1 is_stmt 1
	.cfi_startproc
	@ args = 0, pretend = 0, frame = 0
	@ frame_needed = 0, uses_anonymous_args = 0
	@ link register save eliminated.
.LVL342:
	.loc 1 5912 3
	.loc 1 5917 1 is_stmt 0
	bx	lr
	.cfi_endproc
.LFE418:
	.size	HAL_TIM_TriggerCallback, .-HAL_TIM_TriggerCallback
	.section	.text.HAL_TIM_IRQHandler,"ax",%progbits
	.align	1
	.global	HAL_TIM_IRQHandler
	.syntax unified
	.thumb
	.thumb_func
	.type	HAL_TIM_IRQHandler, %function
HAL_TIM_IRQHandler:
.LFB393:
	.loc 1 3835 1 is_stmt 1
	.cfi_startproc
	@ args = 0, pretend = 0, frame = 0
	@ frame_needed = 0, uses_anonymous_args = 0
.LVL343:
	push	{r4, r5, r6, lr}
	.cfi_def_cfa_offset 16
	.cfi_offset 4, -16
	.cfi_offset 5, -12
	.cfi_offset 6, -8
	.cfi_offset 14, -4
	mov	r4, r0
	.loc 1 3836 3
	.loc 1 3836 27 is_stmt 0
	ldr	r3, [r0]
	.loc 1 3836 12
	ldr	r6, [r3, #12]
.LVL344:
	.loc 1 3837 3 is_stmt 1
	.loc 1 3837 12 is_stmt 0
	ldr	r5, [r3, #16]
.LVL345:
	.loc 1 3840 3 is_stmt 1
	.loc 1 3840 6 is_stmt 0
	tst	r5, #2
	beq	.L265
	.loc 1 3842 5 is_stmt 1
	.loc 1 3842 8 is_stmt 0
	tst	r6, #2
	beq	.L265
	.loc 1 3845 9 is_stmt 1
	.loc 1 3845 31 is_stmt 0
	mvn	r2, #2
	str	r2, [r3, #16]
	.loc 1 3846 9 is_stmt 1
	.loc 1 3846 23 is_stmt 0
	movs	r3, #1
	strb	r3, [r0, #28]
	.loc 1 3849 9 is_stmt 1
	.loc 1 3849 18 is_stmt 0
	ldr	r3, [r0]
	.loc 1 3849 28
	ldr	r3, [r3, #24]
	.loc 1 3849 12
	tst	r3, #3
	beq	.L266
	.loc 1 3854 11 is_stmt 1
	bl	HAL_TIM_IC_CaptureCallback
.LVL346:
.L267:
	.loc 1 3868 9
	.loc 1 3868 23 is_stmt 0
	movs	r3, #0
	strb	r3, [r4, #28]
.L265:
	.loc 1 3873 3 is_stmt 1
	.loc 1 3873 6 is_stmt 0
	tst	r5, #4
	beq	.L268
	.loc 1 3875 5 is_stmt 1
	.loc 1 3875 8 is_stmt 0
	tst	r6, #4
	beq	.L268
	.loc 1 3877 7 is_stmt 1
	.loc 1 3877 14 is_stmt 0
	ldr	r3, [r4]
	.loc 1 3877 29
	mvn	r2, #4
	str	r2, [r3, #16]
	.loc 1 3878 7 is_stmt 1
	.loc 1 3878 21 is_stmt 0
	movs	r3, #2
	strb	r3, [r4, #28]
	.loc 1 3880 7 is_stmt 1
	.loc 1 3880 16 is_stmt 0
	ldr	r3, [r4]
	.loc 1 3880 26
	ldr	r3, [r3, #24]
	.loc 1 3880 10
	tst	r3, #768
	beq	.L269
	.loc 1 3885 9 is_stmt 1
	mov	r0, r4
	bl	HAL_TIM_IC_CaptureCallback
.LVL347:
.L270:
	.loc 1 3899 7
	.loc 1 3899 21 is_stmt 0
	movs	r3, #0
	strb	r3, [r4, #28]
.L268:
	.loc 1 3903 3 is_stmt 1
	.loc 1 3903 6 is_stmt 0
	tst	r5, #8
	beq	.L271
	.loc 1 3905 5 is_stmt 1
	.loc 1 3905 8 is_stmt 0
	tst	r6, #8
	beq	.L271
	.loc 1 3907 7 is_stmt 1
	.loc 1 3907 14 is_stmt 0
	ldr	r3, [r4]
	.loc 1 3907 29
	mvn	r2, #8
	str	r2, [r3, #16]
	.loc 1 3908 7 is_stmt 1
	.loc 1 3908 21 is_stmt 0
	movs	r3, #4
	strb	r3, [r4, #28]
	.loc 1 3910 7 is_stmt 1
	.loc 1 3910 16 is_stmt 0
	ldr	r3, [r4]
	.loc 1 3910 26
	ldr	r3, [r3, #28]
	.loc 1 3910 10
	tst	r3, #3
	beq	.L272
	.loc 1 3915 9 is_stmt 1
	mov	r0, r4
	bl	HAL_TIM_IC_CaptureCallback
.LVL348:
.L273:
	.loc 1 3929 7
	.loc 1 3929 21 is_stmt 0
	movs	r3, #0
	strb	r3, [r4, #28]
.L271:
	.loc 1 3933 3 is_stmt 1
	.loc 1 3933 6 is_stmt 0
	tst	r5, #16
	beq	.L274
	.loc 1 3935 5 is_stmt 1
	.loc 1 3935 8 is_stmt 0
	tst	r6, #16
	beq	.L274
	.loc 1 3937 7 is_stmt 1
	.loc 1 3937 14 is_stmt 0
	ldr	r3, [r4]
	.loc 1 3937 29
	mvn	r2, #16
	str	r2, [r3, #16]
	.loc 1 3938 7 is_stmt 1
	.loc 1 3938 21 is_stmt 0
	movs	r3, #8
	strb	r3, [r4, #28]
	.loc 1 3940 7 is_stmt 1
	.loc 1 3940 16 is_stmt 0
	ldr	r3, [r4]
	.loc 1 3940 26
	ldr	r3, [r3, #28]
	.loc 1 3940 10
	tst	r3, #768
	beq	.L275
	.loc 1 3945 9 is_stmt 1
	mov	r0, r4
	bl	HAL_TIM_IC_CaptureCallback
.LVL349:
.L276:
	.loc 1 3959 7
	.loc 1 3959 21 is_stmt 0
	movs	r3, #0
	strb	r3, [r4, #28]
.L274:
	.loc 1 3963 3 is_stmt 1
	.loc 1 3963 6 is_stmt 0
	tst	r5, #1
	beq	.L277
	.loc 1 3965 5 is_stmt 1
	.loc 1 3965 8 is_stmt 0
	tst	r6, #1
	bne	.L283
.L277:
	.loc 1 3976 3 is_stmt 1
	.loc 1 3976 6 is_stmt 0
	tst	r5, #8320
	beq	.L278
	.loc 1 3979 5 is_stmt 1
	.loc 1 3979 8 is_stmt 0
	tst	r6, #128
	bne	.L284
.L278:
	.loc 1 3990 3 is_stmt 1
	.loc 1 3990 6 is_stmt 0
	tst	r5, #256
	beq	.L279
	.loc 1 3992 5 is_stmt 1
	.loc 1 3992 8 is_stmt 0
	tst	r6, #128
	bne	.L285
.L279:
	.loc 1 4003 3 is_stmt 1
	.loc 1 4003 6 is_stmt 0
	tst	r5, #64
	beq	.L280
	.loc 1 4005 5 is_stmt 1
	.loc 1 4005 8 is_stmt 0
	tst	r6, #64
	bne	.L286
.L280:
	.loc 1 4016 3 is_stmt 1
	.loc 1 4016 6 is_stmt 0
	tst	r5, #32
	beq	.L264
	.loc 1 4018 5 is_stmt 1
	.loc 1 4018 8 is_stmt 0
	tst	r6, #32
	bne	.L287
.L264:
	.loc 1 4028 1
	pop	{r4, r5, r6, pc}
.LVL350:
.L266:
	.loc 1 3864 11 is_stmt 1
	bl	HAL_TIM_OC_DelayElapsedCallback
.LVL351:
	.loc 1 3865 11
	mov	r0, r4
	bl	HAL_TIM_PWM_PulseFinishedCallback
.LVL352:
	b	.L267
.L269:
	.loc 1 3895 9
	mov	r0, r4
	bl	HAL_TIM_OC_DelayElapsedCallback
.LVL353:
	.loc 1 3896 9
	mov	r0, r4
	bl	HAL_TIM_PWM_PulseFinishedCallback
.LVL354:
	b	.L270
.L272:
	.loc 1 3925 9
	mov	r0, r4
	bl	HAL_TIM_OC_DelayElapsedCallback
.LVL355:
	.loc 1 3926 9
	mov	r0, r4
	bl	HAL_TIM_PWM_PulseFinishedCallback
.LVL356:
	b	.L273
.L275:
	.loc 1 3955 9
	mov	r0, r4
	bl	HAL_TIM_OC_DelayElapsedCallback
.LVL357:
	.loc 1 3956 9
	mov	r0, r4
	bl	HAL_TIM_PWM_PulseFinishedCallback
.LVL358:
	b	.L276
.L283:
	.loc 1 3967 7
	.loc 1 3967 14 is_stmt 0
	ldr	r3, [r4]
	.loc 1 3967 29
	mvn	r2, #1
	str	r2, [r3, #16]
	.loc 1 3971 7 is_stmt 1
	mov	r0, r4
	bl	HAL_TIM_PeriodElapsedCallback
.LVL359:
	b	.L277
.L284:
	.loc 1 3981 7
	.loc 1 3981 14 is_stmt 0
	ldr	r3, [r4]
	.loc 1 3981 29
	mvn	r2, #8320
	str	r2, [r3, #16]
	.loc 1 3985 7 is_stmt 1
	mov	r0, r4
	bl	HAL_TIMEx_BreakCallback
.LVL360:
	b	.L278
.L285:
	.loc 1 3994 7
	.loc 1 3994 14 is_stmt 0
	ldr	r3, [r4]
	.loc 1 3994 29
	mvn	r2, #256
	str	r2, [r3, #16]
	.loc 1 3998 7 is_stmt 1
	mov	r0, r4
	bl	HAL_TIMEx_Break2Callback
.LVL361:
	b	.L279
.L286:
	.loc 1 4007 7
	.loc 1 4007 14 is_stmt 0
	ldr	r3, [r4]
	.loc 1 4007 29
	mvn	r2, #64
	str	r2, [r3, #16]
	.loc 1 4011 7 is_stmt 1
	mov	r0, r4
	bl	HAL_TIM_TriggerCallback
.LVL362:
	b	.L280
.L287:
	.loc 1 4020 7
	.loc 1 4020 14 is_stmt 0
	ldr	r3, [r4]
	.loc 1 4020 29
	mvn	r2, #32
	str	r2, [r3, #16]
	.loc 1 4024 7 is_stmt 1
	mov	r0, r4
	bl	HAL_TIMEx_CommutCallback
.LVL363:
	.loc 1 4028 1 is_stmt 0
	b	.L264
	.cfi_endproc
.LFE393:
	.size	HAL_TIM_IRQHandler, .-HAL_TIM_IRQHandler
	.section	.text.TIM_DMATriggerCplt,"ax",%progbits
	.align	1
	.syntax unified
	.thumb
	.thumb_func
	.type	TIM_DMATriggerCplt, %function
TIM_DMATriggerCplt:
.LFB437:
	.loc 1 6898 1 is_stmt 1
	.cfi_startproc
	@ args = 0, pretend = 0, frame = 0
	@ frame_needed = 0, uses_anonymous_args = 0
.LVL364:
	push	{r3, lr}
	.cfi_def_cfa_offset 8
	.cfi_offset 3, -8
	.cfi_offset 14, -4
	.loc 1 6899 3
	.loc 1 6899 22 is_stmt 0
	ldr	r0, [r0, #56]
.LVL365:
	.loc 1 6901 3 is_stmt 1
	.loc 1 6901 17 is_stmt 0
	ldr	r3, [r0, #56]
	.loc 1 6901 44
	ldr	r3, [r3, #28]
	.loc 1 6901 6
	cbnz	r3, .L289
	.loc 1 6903 5 is_stmt 1
	.loc 1 6903 17 is_stmt 0
	movs	r3, #1
	strb	r3, [r0, #61]
.L289:
	.loc 1 6909 3 is_stmt 1
	bl	HAL_TIM_TriggerCallback
.LVL366:
	.loc 1 6911 1 is_stmt 0
	pop	{r3, pc}
	.cfi_endproc
.LFE437:
	.size	TIM_DMATriggerCplt, .-TIM_DMATriggerCplt
	.section	.text.HAL_TIM_TriggerHalfCpltCallback,"ax",%progbits
	.align	1
	.weak	HAL_TIM_TriggerHalfCpltCallback
	.syntax unified
	.thumb
	.thumb_func
	.type	HAL_TIM_TriggerHalfCpltCallback, %function
HAL_TIM_TriggerHalfCpltCallback:
.LFB419:
	.loc 1 5925 1 is_stmt 1
	.cfi_startproc
	@ args = 0, pretend = 0, frame = 0
	@ frame_needed = 0, uses_anonymous_args = 0
	@ link register save eliminated.
.LVL367:
	.loc 1 5927 3
	.loc 1 5932 1 is_stmt 0
	bx	lr
	.cfi_endproc
.LFE419:
	.size	HAL_TIM_TriggerHalfCpltCallback, .-HAL_TIM_TriggerHalfCpltCallback
	.section	.text.TIM_DMATriggerHalfCplt,"ax",%progbits
	.align	1
	.syntax unified
	.thumb
	.thumb_func
	.type	TIM_DMATriggerHalfCplt, %function
TIM_DMATriggerHalfCplt:
.LFB438:
	.loc 1 6919 1 is_stmt 1
	.cfi_startproc
	@ args = 0, pretend = 0, frame = 0
	@ frame_needed = 0, uses_anonymous_args = 0
.LVL368:
	push	{r3, lr}
	.cfi_def_cfa_offset 8
	.cfi_offset 3, -8
	.cfi_offset 14, -4
	.loc 1 6920 3
.LVL369:
	.loc 1 6925 3
	ldr	r0, [r0, #56]
.LVL370:
	bl	HAL_TIM_TriggerHalfCpltCallback
.LVL371:
	.loc 1 6927 1 is_stmt 0
	pop	{r3, pc}
	.cfi_endproc
.LFE438:
	.size	TIM_DMATriggerHalfCplt, .-TIM_DMATriggerHalfCplt
	.section	.text.HAL_TIM_ErrorCallback,"ax",%progbits
	.align	1
	.weak	HAL_TIM_ErrorCallback
	.syntax unified
	.thumb
	.thumb_func
	.type	HAL_TIM_ErrorCallback, %function
HAL_TIM_ErrorCallback:
.LFB420:
	.loc 1 5940 1 is_stmt 1
	.cfi_startproc
	@ args = 0, pretend = 0, frame = 0
	@ frame_needed = 0, uses_anonymous_args = 0
	@ link register save eliminated.
.LVL372:
	.loc 1 5942 3
	.loc 1 5947 1 is_stmt 0
	bx	lr
	.cfi_endproc
.LFE420:
	.size	HAL_TIM_ErrorCallback, .-HAL_TIM_ErrorCallback
	.section	.text.TIM_DMAError,"ax",%progbits
	.align	1
	.global	TIM_DMAError
	.syntax unified
	.thumb
	.thumb_func
	.type	TIM_DMAError, %function
TIM_DMAError:
.LFB430:
	.loc 1 6618 1 is_stmt 1
	.cfi_startproc
	@ args = 0, pretend = 0, frame = 0
	@ frame_needed = 0, uses_anonymous_args = 0
.LVL373:
	push	{r4, lr}
	.cfi_def_cfa_offset 8
	.cfi_offset 4, -8
	.cfi_offset 14, -4
	.loc 1 6619 3
	.loc 1 6619 22 is_stmt 0
	ldr	r4, [r0, #56]
.LVL374:
	.loc 1 6621 3 is_stmt 1
	.loc 1 6621 25 is_stmt 0
	ldr	r3, [r4, #36]
	.loc 1 6621 6
	cmp	r3, r0
	beq	.L302
	.loc 1 6626 8 is_stmt 1
	.loc 1 6626 30 is_stmt 0
	ldr	r3, [r4, #40]
	.loc 1 6626 11
	cmp	r3, r0
	beq	.L303
	.loc 1 6631 8 is_stmt 1
	.loc 1 6631 30 is_stmt 0
	ldr	r3, [r4, #44]
	.loc 1 6631 11
	cmp	r3, r0
	beq	.L304
	.loc 1 6636 8 is_stmt 1
	.loc 1 6636 30 is_stmt 0
	ldr	r3, [r4, #48]
	.loc 1 6636 11
	cmp	r3, r0
	beq	.L305
	.loc 1 6643 5 is_stmt 1
	.loc 1 6643 17 is_stmt 0
	movs	r3, #1
	strb	r3, [r4, #61]
	b	.L297
.L302:
	.loc 1 6623 5 is_stmt 1
	.loc 1 6623 19 is_stmt 0
	movs	r3, #1
	strb	r3, [r4, #28]
	.loc 1 6624 5 is_stmt 1
	.loc 1 6624 64 is_stmt 0
	strb	r3, [r4, #62]
.L297:
	.loc 1 6649 3 is_stmt 1
	mov	r0, r4
.LVL375:
	bl	HAL_TIM_ErrorCallback
.LVL376:
	.loc 1 6652 3
	.loc 1 6652 17 is_stmt 0
	movs	r3, #0
	strb	r3, [r4, #28]
	.loc 1 6653 1
	pop	{r4, pc}
.LVL377:
.L303:
	.loc 1 6628 5 is_stmt 1
	.loc 1 6628 19 is_stmt 0
	movs	r3, #2
	strb	r3, [r4, #28]
	.loc 1 6629 5 is_stmt 1
	.loc 1 6629 157 is_stmt 0
	movs	r3, #1
	strb	r3, [r4, #63]
	b	.L297
.L304:
	.loc 1 6633 5 is_stmt 1
	.loc 1 6633 19 is_stmt 0
	movs	r3, #4
	strb	r3, [r4, #28]
	.loc 1 6634 5 is_stmt 1
	.loc 1 6634 250 is_stmt 0
	movs	r3, #1
	strb	r3, [r4, #64]
	b	.L297
.L305:
	.loc 1 6638 5 is_stmt 1
	.loc 1 6638 19 is_stmt 0
	movs	r3, #8
	strb	r3, [r4, #28]
	.loc 1 6639 5 is_stmt 1
	.loc 1 6639 343 is_stmt 0
	movs	r3, #1
	strb	r3, [r4, #65]
	b	.L297
	.cfi_endproc
.LFE430:
	.size	TIM_DMAError, .-TIM_DMAError
	.section	.text.HAL_TIM_Base_GetState,"ax",%progbits
	.align	1
	.global	HAL_TIM_Base_GetState
	.syntax unified
	.thumb
	.thumb_func
	.type	HAL_TIM_Base_GetState, %function
HAL_TIM_Base_GetState:
.LFB421:
	.loc 1 6498 1 is_stmt 1
	.cfi_startproc
	@ args = 0, pretend = 0, frame = 0
	@ frame_needed = 0, uses_anonymous_args = 0
	@ link register save eliminated.
.LVL378:
	.loc 1 6499 3
	.loc 1 6499 14 is_stmt 0
	ldrb	r0, [r0, #61]	@ zero_extendqisi2
.LVL379:
	.loc 1 6500 1
	bx	lr
	.cfi_endproc
.LFE421:
	.size	HAL_TIM_Base_GetState, .-HAL_TIM_Base_GetState
	.section	.text.HAL_TIM_OC_GetState,"ax",%progbits
	.align	1
	.global	HAL_TIM_OC_GetState
	.syntax unified
	.thumb
	.thumb_func
	.type	HAL_TIM_OC_GetState, %function
HAL_TIM_OC_GetState:
.LFB422:
	.loc 1 6508 1 is_stmt 1
	.cfi_startproc
	@ args = 0, pretend = 0, frame = 0
	@ frame_needed = 0, uses_anonymous_args = 0
	@ link register save eliminated.
.LVL380:
	.loc 1 6509 3
	.loc 1 6509 14 is_stmt 0
	ldrb	r0, [r0, #61]	@ zero_extendqisi2
.LVL381:
	.loc 1 6510 1
	bx	lr
	.cfi_endproc
.LFE422:
	.size	HAL_TIM_OC_GetState, .-HAL_TIM_OC_GetState
	.section	.text.HAL_TIM_PWM_GetState,"ax",%progbits
	.align	1
	.global	HAL_TIM_PWM_GetState
	.syntax unified
	.thumb
	.thumb_func
	.type	HAL_TIM_PWM_GetState, %function
HAL_TIM_PWM_GetState:
.LFB423:
	.loc 1 6518 1 is_stmt 1
	.cfi_startproc
	@ args = 0, pretend = 0, frame = 0
	@ frame_needed = 0, uses_anonymous_args = 0
	@ link register save eliminated.
.LVL382:
	.loc 1 6519 3
	.loc 1 6519 14 is_stmt 0
	ldrb	r0, [r0, #61]	@ zero_extendqisi2
.LVL383:
	.loc 1 6520 1
	bx	lr
	.cfi_endproc
.LFE423:
	.size	HAL_TIM_PWM_GetState, .-HAL_TIM_PWM_GetState
	.section	.text.HAL_TIM_IC_GetState,"ax",%progbits
	.align	1
	.global	HAL_TIM_IC_GetState
	.syntax unified
	.thumb
	.thumb_func
	.type	HAL_TIM_IC_GetState, %function
HAL_TIM_IC_GetState:
.LFB424:
	.loc 1 6528 1 is_stmt 1
	.cfi_startproc
	@ args = 0, pretend = 0, frame = 0
	@ frame_needed = 0, uses_anonymous_args = 0
	@ link register save eliminated.
.LVL384:
	.loc 1 6529 3
	.loc 1 6529 14 is_stmt 0
	ldrb	r0, [r0, #61]	@ zero_extendqisi2
.LVL385:
	.loc 1 6530 1
	bx	lr
	.cfi_endproc
.LFE424:
	.size	HAL_TIM_IC_GetState, .-HAL_TIM_IC_GetState
	.section	.text.HAL_TIM_OnePulse_GetState,"ax",%progbits
	.align	1
	.global	HAL_TIM_OnePulse_GetState
	.syntax unified
	.thumb
	.thumb_func
	.type	HAL_TIM_OnePulse_GetState, %function
HAL_TIM_OnePulse_GetState:
.LFB425:
	.loc 1 6538 1 is_stmt 1
	.cfi_startproc
	@ args = 0, pretend = 0, frame = 0
	@ frame_needed = 0, uses_anonymous_args = 0
	@ link register save eliminated.
.LVL386:
	.loc 1 6539 3
	.loc 1 6539 14 is_stmt 0
	ldrb	r0, [r0, #61]	@ zero_extendqisi2
.LVL387:
	.loc 1 6540 1
	bx	lr
	.cfi_endproc
.LFE425:
	.size	HAL_TIM_OnePulse_GetState, .-HAL_TIM_OnePulse_GetState
	.section	.text.HAL_TIM_Encoder_GetState,"ax",%progbits
	.align	1
	.global	HAL_TIM_Encoder_GetState
	.syntax unified
	.thumb
	.thumb_func
	.type	HAL_TIM_Encoder_GetState, %function
HAL_TIM_Encoder_GetState:
.LFB426:
	.loc 1 6548 1 is_stmt 1
	.cfi_startproc
	@ args = 0, pretend = 0, frame = 0
	@ frame_needed = 0, uses_anonymous_args = 0
	@ link register save eliminated.
.LVL388:
	.loc 1 6549 3
	.loc 1 6549 14 is_stmt 0
	ldrb	r0, [r0, #61]	@ zero_extendqisi2
.LVL389:
	.loc 1 6550 1
	bx	lr
	.cfi_endproc
.LFE426:
	.size	HAL_TIM_Encoder_GetState, .-HAL_TIM_Encoder_GetState
	.section	.text.HAL_TIM_GetActiveChannel,"ax",%progbits
	.align	1
	.global	HAL_TIM_GetActiveChannel
	.syntax unified
	.thumb
	.thumb_func
	.type	HAL_TIM_GetActiveChannel, %function
HAL_TIM_GetActiveChannel:
.LFB427:
	.loc 1 6558 1 is_stmt 1
	.cfi_startproc
	@ args = 0, pretend = 0, frame = 0
	@ frame_needed = 0, uses_anonymous_args = 0
	@ link register save eliminated.
.LVL390:
	.loc 1 6559 3
	.loc 1 6560 1 is_stmt 0
	ldrb	r0, [r0, #28]	@ zero_extendqisi2
.LVL391:
	bx	lr
	.cfi_endproc
.LFE427:
	.size	HAL_TIM_GetActiveChannel, .-HAL_TIM_GetActiveChannel
	.section	.text.HAL_TIM_GetChannelState,"ax",%progbits
	.align	1
	.global	HAL_TIM_GetChannelState
	.syntax unified
	.thumb
	.thumb_func
	.type	HAL_TIM_GetChannelState, %function
HAL_TIM_GetChannelState:
.LFB428:
	.loc 1 6576 1 is_stmt 1
	.cfi_startproc
	@ args = 0, pretend = 0, frame = 0
	@ frame_needed = 0, uses_anonymous_args = 0
	@ link register save eliminated.
.LVL392:
	.loc 1 6577 3
	.loc 1 6580 3
	.loc 1 6582 3
	cmp	r1, #16
	bhi	.L314
	tbb	[pc, r1]
.L316:
	.byte	(.L320-.L316)/2
	.byte	(.L314-.L316)/2
	.byte	(.L314-.L316)/2
	.byte	(.L314-.L316)/2
	.byte	(.L319-.L316)/2
	.byte	(.L314-.L316)/2
	.byte	(.L314-.L316)/2
	.byte	(.L314-.L316)/2
	.byte	(.L318-.L316)/2
	.byte	(.L314-.L316)/2
	.byte	(.L314-.L316)/2
	.byte	(.L314-.L316)/2
	.byte	(.L317-.L316)/2
	.byte	(.L314-.L316)/2
	.byte	(.L314-.L316)/2
	.byte	(.L314-.L316)/2
	.byte	(.L315-.L316)/2
	.p2align 1
.L320:
	.loc 1 6582 73 is_stmt 0 discriminator 1
	ldrb	r0, [r0, #62]	@ zero_extendqisi2
.LVL393:
	uxtb	r0, r0
	bx	lr
.LVL394:
.L319:
	.loc 1 6582 73 discriminator 4
	ldrb	r0, [r0, #63]	@ zero_extendqisi2
.LVL395:
	uxtb	r0, r0
	bx	lr
.LVL396:
.L318:
	.loc 1 6582 73 discriminator 7
	ldrb	r0, [r0, #64]	@ zero_extendqisi2
.LVL397:
	uxtb	r0, r0
	bx	lr
.LVL398:
.L317:
	.loc 1 6582 73 discriminator 10
	ldrb	r0, [r0, #65]	@ zero_extendqisi2
.LVL399:
	uxtb	r0, r0
	bx	lr
.LVL400:
.L315:
	.loc 1 6582 73 discriminator 13
	ldrb	r0, [r0, #66]	@ zero_extendqisi2
.LVL401:
	uxtb	r0, r0
	bx	lr
.LVL402:
.L314:
	.loc 1 6582 73 discriminator 14
	ldrb	r0, [r0, #67]	@ zero_extendqisi2
.LVL403:
	uxtb	r0, r0
.LVL404:
	.loc 1 6584 3 is_stmt 1 discriminator 14
	.loc 1 6585 1 is_stmt 0 discriminator 14
	bx	lr
	.cfi_endproc
.LFE428:
	.size	HAL_TIM_GetChannelState, .-HAL_TIM_GetChannelState
	.section	.text.HAL_TIM_DMABurstState,"ax",%progbits
	.align	1
	.global	HAL_TIM_DMABurstState
	.syntax unified
	.thumb
	.thumb_func
	.type	HAL_TIM_DMABurstState, %function
HAL_TIM_DMABurstState:
.LFB429:
	.loc 1 6593 1 is_stmt 1
	.cfi_startproc
	@ args = 0, pretend = 0, frame = 0
	@ frame_needed = 0, uses_anonymous_args = 0
	@ link register save eliminated.
.LVL405:
	.loc 1 6595 3
	.loc 1 6597 3
	.loc 1 6597 14 is_stmt 0
	ldrb	r0, [r0, #72]	@ zero_extendqisi2
.LVL406:
	.loc 1 6598 1
	bx	lr
	.cfi_endproc
.LFE429:
	.size	HAL_TIM_DMABurstState, .-HAL_TIM_DMABurstState
	.section	.text.TIM_Base_SetConfig,"ax",%progbits
	.align	1
	.global	TIM_Base_SetConfig
	.syntax unified
	.thumb
	.thumb_func
	.type	TIM_Base_SetConfig, %function
TIM_Base_SetConfig:
.LFB439:
	.loc 1 6936 1 is_stmt 1
	.cfi_startproc
	@ args = 0, pretend = 0, frame = 0
	@ frame_needed = 0, uses_anonymous_args = 0
.LVL407:
	push	{r4, r5, lr}
	.cfi_def_cfa_offset 12
	.cfi_offset 4, -12
	.cfi_offset 5, -8
	.cfi_offset 14, -4
	.loc 1 6937 3
	.loc 1 6938 3
	.loc 1 6938 10 is_stmt 0
	ldr	r3, [r0]
.LVL408:
	.loc 1 6941 3 is_stmt 1
	.loc 1 6941 16 is_stmt 0
	ldr	r2, .L333
	cmp	r0, r2
	ite	ne
	movne	lr, #0
	moveq	lr, #1
	.loc 1 6941 83
	cmp	r0, #1073741824
	ite	ne
	movne	r2, lr
	orreq	r2, lr, #1
	.loc 1 6941 6
	cbnz	r2, .L324
	.loc 1 6941 216 discriminator 1
	ldr	r4, .L333+4
	cmp	r0, r4
	ite	ne
	movne	r4, #0
	moveq	r4, #1
	.loc 1 6941 205 discriminator 1
	ldr	r5, .L333+8
	cmp	r0, r5
	beq	.L324
	cbnz	r4, .L324
	.loc 1 6941 338 discriminator 2
	add	r4, r4, #1073741824
	add	r4, r4, #66560
	cmp	r0, r4
	ite	ne
	movne	r4, #0
	moveq	r4, #1
	.loc 1 6941 327 discriminator 2
	add	r5, r5, #2048
	cmp	r0, r5
	beq	.L324
	cbz	r4, .L325
.L324:
	.loc 1 6944 5 is_stmt 1
	.loc 1 6944 12 is_stmt 0
	bic	r3, r3, #112
.LVL409:
	.loc 1 6945 5 is_stmt 1
	.loc 1 6945 24 is_stmt 0
	ldr	r4, [r1, #4]
	.loc 1 6945 12
	orrs	r3, r3, r4
.LVL410:
.L325:
	.loc 1 6948 3 is_stmt 1
	.loc 1 6948 6 is_stmt 0
	cbnz	r2, .L327
	.loc 1 6948 216 discriminator 1
	ldr	r2, .L333+4
	cmp	r0, r2
	ite	ne
	movne	r2, #0
	moveq	r2, #1
	.loc 1 6948 205 discriminator 1
	ldr	r4, .L333+8
	cmp	r0, r4
	beq	.L327
	cbnz	r2, .L327
	.loc 1 6948 338 discriminator 2
	add	r2, r2, #1073741824
	add	r2, r2, #66560
	cmp	r0, r2
	ite	ne
	movne	r2, #0
	moveq	r2, #1
	.loc 1 6948 327 discriminator 2
	add	r4, r4, #2048
	cmp	r0, r4
	beq	.L327
	cbnz	r2, .L327
	.loc 1 6948 494 discriminator 3
	ldr	r2, .L333+12
	cmp	r0, r2
	ite	ne
	movne	r2, #0
	moveq	r2, #1
	.loc 1 6948 483 discriminator 3
	add	r4, r4, #78848
	cmp	r0, r4
	beq	.L327
	cbnz	r2, .L327
	.loc 1 6948 561 discriminator 4
	ldr	r2, .L333+16
	cmp	r0, r2
	bne	.L328
.L327:
	.loc 1 6951 5 is_stmt 1
	.loc 1 6951 12 is_stmt 0
	bic	ip, r3, #768
.LVL411:
	.loc 1 6952 5 is_stmt 1
	.loc 1 6952 34 is_stmt 0
	ldr	r3, [r1, #12]
	.loc 1 6952 12
	orr	r3, r3, ip
.LVL412:
.L328:
	.loc 1 6956 3 is_stmt 1
	.loc 1 6956 33 is_stmt 0
	bic	r3, r3, #128
.LVL413:
	.loc 1 6956 69
	ldr	r2, [r1, #20]
	.loc 1 6956 15
	orrs	r3, r3, r2
.LVL414:
	.loc 1 6958 3 is_stmt 1
	.loc 1 6958 13 is_stmt 0
	str	r3, [r0]
	.loc 1 6961 3 is_stmt 1
	.loc 1 6961 34 is_stmt 0
	ldr	r2, [r1, #8]
	.loc 1 6961 13
	str	r2, [r0, #44]
	.loc 1 6964 3 is_stmt 1
	.loc 1 6964 24 is_stmt 0
	ldr	r2, [r1]
	.loc 1 6964 13
	str	r2, [r0, #40]
	.loc 1 6966 3 is_stmt 1
	.loc 1 6966 83 is_stmt 0
	ldr	r2, .L333+20
	cmp	r0, r2
	ite	ne
	movne	r3, lr
	orreq	r3, lr, #1
.LVL415:
	.loc 1 6966 6
	cbnz	r3, .L329
	.loc 1 6966 250 discriminator 1
	ldr	r3, .L333+12
	cmp	r0, r3
	ite	ne
	movne	r3, #0
	moveq	r3, #1
	.loc 1 6966 239 discriminator 1
	add	r2, r2, #15360
	cmp	r0, r2
	beq	.L329
	cbnz	r3, .L329
	.loc 1 6966 317 discriminator 2
	ldr	r3, .L333+16
	cmp	r0, r3
	bne	.L330
.L329:
	.loc 1 6969 5 is_stmt 1
	.loc 1 6969 26 is_stmt 0
	ldr	r3, [r1, #16]
	.loc 1 6969 15
	str	r3, [r0, #48]
.L330:
	.loc 1 6974 3 is_stmt 1
	.loc 1 6974 13 is_stmt 0
	movs	r3, #1
	str	r3, [r0, #20]
	.loc 1 6977 3 is_stmt 1
	.loc 1 6977 14 is_stmt 0
	ldr	r3, [r0, #16]
	.loc 1 6977 6
	tst	r3, #1
	beq	.L323
	.loc 1 6980 5 is_stmt 1
	.loc 1 6980 11 is_stmt 0
	ldr	r3, [r0, #16]
	.loc 1 6980 17
	bic	r3, r3, #1
	str	r3, [r0, #16]
.L323:
	.loc 1 6982 1
	pop	{r4, r5, pc}
.L334:
	.align	2
.L333:
	.word	1073807360
	.word	1073743872
	.word	1073742848
	.word	1073824768
	.word	1073825792
	.word	1073808384
	.cfi_endproc
.LFE439:
	.size	TIM_Base_SetConfig, .-TIM_Base_SetConfig
	.section	.text.HAL_TIM_Base_Init,"ax",%progbits
	.align	1
	.global	HAL_TIM_Base_Init
	.syntax unified
	.thumb
	.thumb_func
	.type	HAL_TIM_Base_Init, %function
HAL_TIM_Base_Init:
.LFB335:
	.loc 1 270 1 is_stmt 1
	.cfi_startproc
	@ args = 0, pretend = 0, frame = 0
	@ frame_needed = 0, uses_anonymous_args = 0
.LVL416:
	.loc 1 272 3
	.loc 1 272 6 is_stmt 0
	cbz	r0, .L338
	.loc 1 270 1
	push	{r4, lr}
	.cfi_def_cfa_offset 8
	.cfi_offset 4, -8
	.cfi_offset 14, -4
	mov	r4, r0
	.loc 1 278 3 is_stmt 1
	.loc 1 279 3
	.loc 1 280 3
	.loc 1 281 3
	.loc 1 282 3
	.loc 1 284 3
	.loc 1 284 11 is_stmt 0
	ldrb	r3, [r0, #61]	@ zero_extendqisi2
	.loc 1 284 6
	cbz	r3, .L343
.LVL417:
.L337:
	.loc 1 306 3 is_stmt 1
	.loc 1 306 15 is_stmt 0
	movs	r3, #2
	strb	r3, [r4, #61]
	.loc 1 309 3 is_stmt 1
	.loc 1 309 38 is_stmt 0
	mov	r1, r4
	.loc 1 309 3
	ldr	r0, [r1], #4
	bl	TIM_Base_SetConfig
.LVL418:
	.loc 1 312 3 is_stmt 1
	.loc 1 312 23 is_stmt 0
	movs	r3, #1
	strb	r3, [r4, #72]
	.loc 1 315 3 is_stmt 1
	.loc 1 315 8
	.loc 1 315 32 is_stmt 0
	strb	r3, [r4, #62]
	.loc 1 315 65 is_stmt 1
	.loc 1 315 89 is_stmt 0
	strb	r3, [r4, #63]
	.loc 1 315 122 is_stmt 1
	.loc 1 315 146 is_stmt 0
	strb	r3, [r4, #64]
	.loc 1 315 179 is_stmt 1
	.loc 1 315 203 is_stmt 0
	strb	r3, [r4, #65]
	.loc 1 315 236 is_stmt 1
	.loc 1 315 260 is_stmt 0
	strb	r3, [r4, #66]
	.loc 1 315 293 is_stmt 1
	.loc 1 315 317 is_stmt 0
	strb	r3, [r4, #67]
	.loc 1 315 6 is_stmt 1
	.loc 1 316 3
	.loc 1 316 8
	.loc 1 316 33 is_stmt 0
	strb	r3, [r4, #68]
	.loc 1 316 66 is_stmt 1
	.loc 1 316 91 is_stmt 0
	strb	r3, [r4, #69]
	.loc 1 316 124 is_stmt 1
	.loc 1 316 149 is_stmt 0
	strb	r3, [r4, #70]
	.loc 1 316 182 is_stmt 1
	.loc 1 316 207 is_stmt 0
	strb	r3, [r4, #71]
	.loc 1 316 6 is_stmt 1
	.loc 1 319 3
	.loc 1 319 15 is_stmt 0
	strb	r3, [r4, #61]
	.loc 1 321 3 is_stmt 1
	.loc 1 321 10 is_stmt 0
	movs	r0, #0
	.loc 1 322 1
	pop	{r4, pc}
.LVL419:
.L343:
	.loc 1 287 5 is_stmt 1
	.loc 1 287 16 is_stmt 0
	strb	r3, [r0, #60]
	.loc 1 301 5 is_stmt 1
	bl	HAL_TIM_Base_MspInit
.LVL420:
	b	.L337
.LVL421:
.L338:
	.cfi_def_cfa_offset 0
	.cfi_restore 4
	.cfi_restore 14
	.loc 1 274 12 is_stmt 0
	movs	r0, #1
.LVL422:
	.loc 1 322 1
	bx	lr
	.cfi_endproc
.LFE335:
	.size	HAL_TIM_Base_Init, .-HAL_TIM_Base_Init
	.section	.text.HAL_TIM_OC_Init,"ax",%progbits
	.align	1
	.global	HAL_TIM_OC_Init
	.syntax unified
	.thumb
	.thumb_func
	.type	HAL_TIM_OC_Init, %function
HAL_TIM_OC_Init:
.LFB345:
	.loc 1 654 1 is_stmt 1
	.cfi_startproc
	@ args = 0, pretend = 0, frame = 0
	@ frame_needed = 0, uses_anonymous_args = 0
.LVL423:
	.loc 1 656 3
	.loc 1 656 6 is_stmt 0
	cbz	r0, .L347
	.loc 1 654 1
	push	{r4, lr}
	.cfi_def_cfa_offset 8
	.cfi_offset 4, -8
	.cfi_offset 14, -4
	mov	r4, r0
	.loc 1 662 3 is_stmt 1
	.loc 1 663 3
	.loc 1 664 3
	.loc 1 665 3
	.loc 1 666 3
	.loc 1 668 3
	.loc 1 668 11 is_stmt 0
	ldrb	r3, [r0, #61]	@ zero_extendqisi2
	.loc 1 668 6
	cbz	r3, .L352
.LVL424:
.L346:
	.loc 1 690 3 is_stmt 1
	.loc 1 690 15 is_stmt 0
	movs	r3, #2
	strb	r3, [r4, #61]
	.loc 1 693 3 is_stmt 1
	.loc 1 693 38 is_stmt 0
	mov	r1, r4
	.loc 1 693 3
	ldr	r0, [r1], #4
	bl	TIM_Base_SetConfig
.LVL425:
	.loc 1 696 3 is_stmt 1
	.loc 1 696 23 is_stmt 0
	movs	r3, #1
	strb	r3, [r4, #72]
	.loc 1 699 3 is_stmt 1
	.loc 1 699 8
	.loc 1 699 32 is_stmt 0
	strb	r3, [r4, #62]
	.loc 1 699 65 is_stmt 1
	.loc 1 699 89 is_stmt 0
	strb	r3, [r4, #63]
	.loc 1 699 122 is_stmt 1
	.loc 1 699 146 is_stmt 0
	strb	r3, [r4, #64]
	.loc 1 699 179 is_stmt 1
	.loc 1 699 203 is_stmt 0
	strb	r3, [r4, #65]
	.loc 1 699 236 is_stmt 1
	.loc 1 699 260 is_stmt 0
	strb	r3, [r4, #66]
	.loc 1 699 293 is_stmt 1
	.loc 1 699 317 is_stmt 0
	strb	r3, [r4, #67]
	.loc 1 699 6 is_stmt 1
	.loc 1 700 3
	.loc 1 700 8
	.loc 1 700 33 is_stmt 0
	strb	r3, [r4, #68]
	.loc 1 700 66 is_stmt 1
	.loc 1 700 91 is_stmt 0
	strb	r3, [r4, #69]
	.loc 1 700 124 is_stmt 1
	.loc 1 700 149 is_stmt 0
	strb	r3, [r4, #70]
	.loc 1 700 182 is_stmt 1
	.loc 1 700 207 is_stmt 0
	strb	r3, [r4, #71]
	.loc 1 700 6 is_stmt 1
	.loc 1 703 3
	.loc 1 703 15 is_stmt 0
	strb	r3, [r4, #61]
	.loc 1 705 3 is_stmt 1
	.loc 1 705 10 is_stmt 0
	movs	r0, #0
	.loc 1 706 1
	pop	{r4, pc}
.LVL426:
.L352:
	.loc 1 671 5 is_stmt 1
	.loc 1 671 16 is_stmt 0
	strb	r3, [r0, #60]
	.loc 1 685 5 is_stmt 1
	bl	HAL_TIM_OC_MspInit
.LVL427:
	b	.L346
.LVL428:
.L347:
	.cfi_def_cfa_offset 0
	.cfi_restore 4
	.cfi_restore 14
	.loc 1 658 12 is_stmt 0
	movs	r0, #1
.LVL429:
	.loc 1 706 1
	bx	lr
	.cfi_endproc
.LFE345:
	.size	HAL_TIM_OC_Init, .-HAL_TIM_OC_Init
	.section	.text.HAL_TIM_PWM_Init,"ax",%progbits
	.align	1
	.global	HAL_TIM_PWM_Init
	.syntax unified
	.thumb
	.thumb_func
	.type	HAL_TIM_PWM_Init, %function
HAL_TIM_PWM_Init:
.LFB355:
	.loc 1 1323 1 is_stmt 1
	.cfi_startproc
	@ args = 0, pretend = 0, frame = 0
	@ frame_needed = 0, uses_anonymous_args = 0
.LVL430:
	.loc 1 1325 3
	.loc 1 1325 6 is_stmt 0
	cbz	r0, .L356
	.loc 1 1323 1
	push	{r4, lr}
	.cfi_def_cfa_offset 8
	.cfi_offset 4, -8
	.cfi_offset 14, -4
	mov	r4, r0
	.loc 1 1331 3 is_stmt 1
	.loc 1 1332 3
	.loc 1 1333 3
	.loc 1 1334 3
	.loc 1 1335 3
	.loc 1 1337 3
	.loc 1 1337 11 is_stmt 0
	ldrb	r3, [r0, #61]	@ zero_extendqisi2
	.loc 1 1337 6
	cbz	r3, .L361
.LVL431:
.L355:
	.loc 1 1359 3 is_stmt 1
	.loc 1 1359 15 is_stmt 0
	movs	r3, #2
	strb	r3, [r4, #61]
	.loc 1 1362 3 is_stmt 1
	.loc 1 1362 38 is_stmt 0
	mov	r1, r4
	.loc 1 1362 3
	ldr	r0, [r1], #4
	bl	TIM_Base_SetConfig
.LVL432:
	.loc 1 1365 3 is_stmt 1
	.loc 1 1365 23 is_stmt 0
	movs	r3, #1
	strb	r3, [r4, #72]
	.loc 1 1368 3 is_stmt 1
	.loc 1 1368 8
	.loc 1 1368 32 is_stmt 0
	strb	r3, [r4, #62]
	.loc 1 1368 65 is_stmt 1
	.loc 1 1368 89 is_stmt 0
	strb	r3, [r4, #63]
	.loc 1 1368 122 is_stmt 1
	.loc 1 1368 146 is_stmt 0
	strb	r3, [r4, #64]
	.loc 1 1368 179 is_stmt 1
	.loc 1 1368 203 is_stmt 0
	strb	r3, [r4, #65]
	.loc 1 1368 236 is_stmt 1
	.loc 1 1368 260 is_stmt 0
	strb	r3, [r4, #66]
	.loc 1 1368 293 is_stmt 1
	.loc 1 1368 317 is_stmt 0
	strb	r3, [r4, #67]
	.loc 1 1368 6 is_stmt 1
	.loc 1 1369 3
	.loc 1 1369 8
	.loc 1 1369 33 is_stmt 0
	strb	r3, [r4, #68]
	.loc 1 1369 66 is_stmt 1
	.loc 1 1369 91 is_stmt 0
	strb	r3, [r4, #69]
	.loc 1 1369 124 is_stmt 1
	.loc 1 1369 149 is_stmt 0
	strb	r3, [r4, #70]
	.loc 1 1369 182 is_stmt 1
	.loc 1 1369 207 is_stmt 0
	strb	r3, [r4, #71]
	.loc 1 1369 6 is_stmt 1
	.loc 1 1372 3
	.loc 1 1372 15 is_stmt 0
	strb	r3, [r4, #61]
	.loc 1 1374 3 is_stmt 1
	.loc 1 1374 10 is_stmt 0
	movs	r0, #0
	.loc 1 1375 1
	pop	{r4, pc}
.LVL433:
.L361:
	.loc 1 1340 5 is_stmt 1
	.loc 1 1340 16 is_stmt 0
	strb	r3, [r0, #60]
	.loc 1 1354 5 is_stmt 1
	bl	HAL_TIM_PWM_MspInit
.LVL434:
	b	.L355
.LVL435:
.L356:
	.cfi_def_cfa_offset 0
	.cfi_restore 4
	.cfi_restore 14
	.loc 1 1327 12 is_stmt 0
	movs	r0, #1
.LVL436:
	.loc 1 1375 1
	bx	lr
	.cfi_endproc
.LFE355:
	.size	HAL_TIM_PWM_Init, .-HAL_TIM_PWM_Init
	.section	.text.HAL_TIM_IC_Init,"ax",%progbits
	.align	1
	.global	HAL_TIM_IC_Init
	.syntax unified
	.thumb
	.thumb_func
	.type	HAL_TIM_IC_Init, %function
HAL_TIM_IC_Init:
.LFB365:
	.loc 1 1991 1 is_stmt 1
	.cfi_startproc
	@ args = 0, pretend = 0, frame = 0
	@ frame_needed = 0, uses_anonymous_args = 0
.LVL437:
	.loc 1 1993 3
	.loc 1 1993 6 is_stmt 0
	cbz	r0, .L365
	.loc 1 1991 1
	push	{r4, lr}
	.cfi_def_cfa_offset 8
	.cfi_offset 4, -8
	.cfi_offset 14, -4
	mov	r4, r0
	.loc 1 1999 3 is_stmt 1
	.loc 1 2000 3
	.loc 1 2001 3
	.loc 1 2002 3
	.loc 1 2003 3
	.loc 1 2005 3
	.loc 1 2005 11 is_stmt 0
	ldrb	r3, [r0, #61]	@ zero_extendqisi2
	.loc 1 2005 6
	cbz	r3, .L370
.LVL438:
.L364:
	.loc 1 2027 3 is_stmt 1
	.loc 1 2027 15 is_stmt 0
	movs	r3, #2
	strb	r3, [r4, #61]
	.loc 1 2030 3 is_stmt 1
	.loc 1 2030 38 is_stmt 0
	mov	r1, r4
	.loc 1 2030 3
	ldr	r0, [r1], #4
	bl	TIM_Base_SetConfig
.LVL439:
	.loc 1 2033 3 is_stmt 1
	.loc 1 2033 23 is_stmt 0
	movs	r3, #1
	strb	r3, [r4, #72]
	.loc 1 2036 3 is_stmt 1
	.loc 1 2036 8
	.loc 1 2036 32 is_stmt 0
	strb	r3, [r4, #62]
	.loc 1 2036 65 is_stmt 1
	.loc 1 2036 89 is_stmt 0
	strb	r3, [r4, #63]
	.loc 1 2036 122 is_stmt 1
	.loc 1 2036 146 is_stmt 0
	strb	r3, [r4, #64]
	.loc 1 2036 179 is_stmt 1
	.loc 1 2036 203 is_stmt 0
	strb	r3, [r4, #65]
	.loc 1 2036 236 is_stmt 1
	.loc 1 2036 260 is_stmt 0
	strb	r3, [r4, #66]
	.loc 1 2036 293 is_stmt 1
	.loc 1 2036 317 is_stmt 0
	strb	r3, [r4, #67]
	.loc 1 2036 6 is_stmt 1
	.loc 1 2037 3
	.loc 1 2037 8
	.loc 1 2037 33 is_stmt 0
	strb	r3, [r4, #68]
	.loc 1 2037 66 is_stmt 1
	.loc 1 2037 91 is_stmt 0
	strb	r3, [r4, #69]
	.loc 1 2037 124 is_stmt 1
	.loc 1 2037 149 is_stmt 0
	strb	r3, [r4, #70]
	.loc 1 2037 182 is_stmt 1
	.loc 1 2037 207 is_stmt 0
	strb	r3, [r4, #71]
	.loc 1 2037 6 is_stmt 1
	.loc 1 2040 3
	.loc 1 2040 15 is_stmt 0
	strb	r3, [r4, #61]
	.loc 1 2042 3 is_stmt 1
	.loc 1 2042 10 is_stmt 0
	movs	r0, #0
	.loc 1 2043 1
	pop	{r4, pc}
.LVL440:
.L370:
	.loc 1 2008 5 is_stmt 1
	.loc 1 2008 16 is_stmt 0
	strb	r3, [r0, #60]
	.loc 1 2022 5 is_stmt 1
	bl	HAL_TIM_IC_MspInit
.LVL441:
	b	.L364
.LVL442:
.L365:
	.cfi_def_cfa_offset 0
	.cfi_restore 4
	.cfi_restore 14
	.loc 1 1995 12 is_stmt 0
	movs	r0, #1
.LVL443:
	.loc 1 2043 1
	bx	lr
	.cfi_endproc
.LFE365:
	.size	HAL_TIM_IC_Init, .-HAL_TIM_IC_Init
	.section	.text.HAL_TIM_OnePulse_Init,"ax",%progbits
	.align	1
	.global	HAL_TIM_OnePulse_Init
	.syntax unified
	.thumb
	.thumb_func
	.type	HAL_TIM_OnePulse_Init, %function
HAL_TIM_OnePulse_Init:
.LFB375:
	.loc 1 2640 1 is_stmt 1
	.cfi_startproc
	@ args = 0, pretend = 0, frame = 0
	@ frame_needed = 0, uses_anonymous_args = 0
.LVL444:
	.loc 1 2642 3
	.loc 1 2642 6 is_stmt 0
	cbz	r0, .L374
	.loc 1 2640 1
	push	{r3, r4, r5, lr}
	.cfi_def_cfa_offset 16
	.cfi_offset 3, -16
	.cfi_offset 4, -12
	.cfi_offset 5, -8
	.cfi_offset 14, -4
	mov	r5, r1
	mov	r4, r0
	.loc 1 2648 3 is_stmt 1
	.loc 1 2649 3
	.loc 1 2650 3
	.loc 1 2651 3
	.loc 1 2652 3
	.loc 1 2653 3
	.loc 1 2655 3
	.loc 1 2655 11 is_stmt 0
	ldrb	r3, [r0, #61]	@ zero_extendqisi2
	.loc 1 2655 6
	cbz	r3, .L379
.LVL445:
.L373:
	.loc 1 2677 3 is_stmt 1
	.loc 1 2677 15 is_stmt 0
	movs	r3, #2
	strb	r3, [r4, #61]
	.loc 1 2680 3 is_stmt 1
	.loc 1 2680 38 is_stmt 0
	mov	r1, r4
	.loc 1 2680 3
	ldr	r0, [r1], #4
	bl	TIM_Base_SetConfig
.LVL446:
	.loc 1 2683 3 is_stmt 1
	.loc 1 2683 7 is_stmt 0
	ldr	r2, [r4]
	.loc 1 2683 17
	ldr	r3, [r2]
	.loc 1 2683 23
	bic	r3, r3, #8
	str	r3, [r2]
	.loc 1 2686 3 is_stmt 1
	.loc 1 2686 7 is_stmt 0
	ldr	r2, [r4]
	.loc 1 2686 17
	ldr	r3, [r2]
	.loc 1 2686 23
	orrs	r3, r3, r5
	str	r3, [r2]
	.loc 1 2689 3 is_stmt 1
	.loc 1 2689 23 is_stmt 0
	movs	r3, #1
	strb	r3, [r4, #72]
	.loc 1 2692 3 is_stmt 1
	.loc 1 2692 62 is_stmt 0
	strb	r3, [r4, #62]
	.loc 1 2693 3 is_stmt 1
	.loc 1 2693 155 is_stmt 0
	strb	r3, [r4, #63]
	.loc 1 2694 3 is_stmt 1
	.loc 1 2694 63 is_stmt 0
	strb	r3, [r4, #68]
	.loc 1 2695 3 is_stmt 1
	.loc 1 2695 157 is_stmt 0
	strb	r3, [r4, #69]
	.loc 1 2698 3 is_stmt 1
	.loc 1 2698 15 is_stmt 0
	strb	r3, [r4, #61]
	.loc 1 2700 3 is_stmt 1
	.loc 1 2700 10 is_stmt 0
	movs	r0, #0
	.loc 1 2701 1
	pop	{r3, r4, r5, pc}
.LVL447:
.L379:
	.loc 1 2658 5 is_stmt 1
	.loc 1 2658 16 is_stmt 0
	strb	r3, [r0, #60]
	.loc 1 2672 5 is_stmt 1
	bl	HAL_TIM_OnePulse_MspInit
.LVL448:
	b	.L373
.LVL449:
.L374:
	.cfi_def_cfa_offset 0
	.cfi_restore 3
	.cfi_restore 4
	.cfi_restore 5
	.cfi_restore 14
	.loc 1 2644 12 is_stmt 0
	movs	r0, #1
.LVL450:
	.loc 1 2701 1
	bx	lr
	.cfi_endproc
.LFE375:
	.size	HAL_TIM_OnePulse_Init, .-HAL_TIM_OnePulse_Init
	.section	.text.HAL_TIM_Encoder_Init,"ax",%progbits
	.align	1
	.global	HAL_TIM_Encoder_Init
	.syntax unified
	.thumb
	.thumb_func
	.type	HAL_TIM_Encoder_Init, %function
HAL_TIM_Encoder_Init:
.LFB383:
	.loc 1 3031 1 is_stmt 1
	.cfi_startproc
	@ args = 0, pretend = 0, frame = 0
	@ frame_needed = 0, uses_anonymous_args = 0
.LVL451:
	.loc 1 3032 3
	.loc 1 3033 3
	.loc 1 3034 3
	.loc 1 3037 3
	.loc 1 3037 6 is_stmt 0
	cmp	r0, #0
	beq	.L383
	.loc 1 3031 1
	push	{r3, r4, r5, r6, r7, lr}
	.cfi_def_cfa_offset 24
	.cfi_offset 3, -24
	.cfi_offset 4, -20
	.cfi_offset 5, -16
	.cfi_offset 6, -12
	.cfi_offset 7, -8
	.cfi_offset 14, -4
	mov	r5, r1
	mov	r4, r0
	.loc 1 3043 3 is_stmt 1
	.loc 1 3044 3
	.loc 1 3045 3
	.loc 1 3046 3
	.loc 1 3047 3
	.loc 1 3048 3
	.loc 1 3049 3
	.loc 1 3050 3
	.loc 1 3051 3
	.loc 1 3052 3
	.loc 1 3053 3
	.loc 1 3054 3
	.loc 1 3055 3
	.loc 1 3056 3
	.loc 1 3058 3
	.loc 1 3058 11 is_stmt 0
	ldrb	r3, [r0, #61]	@ zero_extendqisi2
	.loc 1 3058 6
	cmp	r3, #0
	beq	.L388
.LVL452:
.L382:
	.loc 1 3080 3 is_stmt 1
	.loc 1 3080 15 is_stmt 0
	movs	r3, #2
	strb	r3, [r4, #61]
	.loc 1 3083 3 is_stmt 1
	.loc 1 3083 7 is_stmt 0
	ldr	r2, [r4]
	.loc 1 3083 17
	ldr	r1, [r2, #8]
	.loc 1 3083 24
	ldr	r3, .L389
	ands	r3, r3, r1
	str	r3, [r2, #8]
	.loc 1 3086 3 is_stmt 1
	.loc 1 3086 38 is_stmt 0
	mov	r1, r4
	.loc 1 3086 3
	ldr	r0, [r1], #4
	bl	TIM_Base_SetConfig
.LVL453:
	.loc 1 3089 3 is_stmt 1
	.loc 1 3089 17 is_stmt 0
	ldr	r1, [r4]
	.loc 1 3089 11
	ldr	r2, [r1, #8]
.LVL454:
	.loc 1 3092 3 is_stmt 1
	.loc 1 3092 12 is_stmt 0
	ldr	r3, [r1, #24]
.LVL455:
	.loc 1 3095 3 is_stmt 1
	.loc 1 3095 11 is_stmt 0
	ldr	r6, [r1, #32]
.LVL456:
	.loc 1 3098 3 is_stmt 1
	.loc 1 3098 21 is_stmt 0
	ldr	r0, [r5]
	.loc 1 3098 11
	orrs	r0, r0, r2
.LVL457:
	.loc 1 3101 3 is_stmt 1
	.loc 1 3101 12 is_stmt 0
	ldr	r2, .L389+4
	ands	r2, r2, r3
.LVL458:
	.loc 1 3102 3 is_stmt 1
	.loc 1 3102 23 is_stmt 0
	ldr	r3, [r5, #8]
	.loc 1 3102 38
	ldr	r7, [r5, #24]
	orr	r3, r3, r7, lsl #8
	.loc 1 3102 12
	orrs	r3, r3, r2
.LVL459:
	.loc 1 3105 3 is_stmt 1
	.loc 1 3106 3
	.loc 1 3106 12 is_stmt 0
	ldr	r2, .L389+8
	ands	r2, r2, r3
.LVL460:
	.loc 1 3107 3 is_stmt 1
	.loc 1 3107 22 is_stmt 0
	ldr	r3, [r5, #12]
	.loc 1 3107 37
	ldr	r7, [r5, #28]
	orr	r3, r3, r7, lsl #8
	.loc 1 3107 12
	orrs	r2, r2, r3
.LVL461:
	.loc 1 3108 3 is_stmt 1
	.loc 1 3108 52 is_stmt 0
	ldr	r3, [r5, #32]
	.loc 1 3108 64
	lsls	r3, r3, #12
	.loc 1 3108 42
	ldr	r7, [r5, #16]
	orr	r3, r3, r7, lsl #4
	.loc 1 3108 12
	orrs	r3, r3, r2
.LVL462:
	.loc 1 3111 3 is_stmt 1
	.loc 1 3112 3
	.loc 1 3112 11 is_stmt 0
	bic	r6, r6, #170
.LVL463:
	.loc 1 3113 3 is_stmt 1
	.loc 1 3113 21 is_stmt 0
	ldr	r2, [r5, #4]
	.loc 1 3113 45
	ldr	r5, [r5, #20]
.LVL464:
	.loc 1 3113 35
	orr	r2, r2, r5, lsl #4
	.loc 1 3113 11
	orrs	r2, r2, r6
.LVL465:
	.loc 1 3116 3 is_stmt 1
	.loc 1 3116 24 is_stmt 0
	str	r0, [r1, #8]
	.loc 1 3119 3 is_stmt 1
	.loc 1 3119 7 is_stmt 0
	ldr	r1, [r4]
	.loc 1 3119 25
	str	r3, [r1, #24]
	.loc 1 3122 3 is_stmt 1
	.loc 1 3122 7 is_stmt 0
	ldr	r3, [r4]
.LVL466:
	.loc 1 3122 24
	str	r2, [r3, #32]
.LVL467:
	.loc 1 3125 3 is_stmt 1
	.loc 1 3125 23 is_stmt 0
	movs	r3, #1
	strb	r3, [r4, #72]
	.loc 1 3128 3 is_stmt 1
	.loc 1 3128 62 is_stmt 0
	strb	r3, [r4, #62]
	.loc 1 3129 3 is_stmt 1
	.loc 1 3129 155 is_stmt 0
	strb	r3, [r4, #63]
	.loc 1 3130 3 is_stmt 1
	.loc 1 3130 63 is_stmt 0
	strb	r3, [r4, #68]
	.loc 1 3131 3 is_stmt 1
	.loc 1 3131 157 is_stmt 0
	strb	r3, [r4, #69]
	.loc 1 3134 3 is_stmt 1
	.loc 1 3134 15 is_stmt 0
	strb	r3, [r4, #61]
	.loc 1 3136 3 is_stmt 1
	.loc 1 3136 10 is_stmt 0
	movs	r0, #0
.LVL468:
	.loc 1 3137 1
	pop	{r3, r4, r5, r6, r7, pc}
.LVL469:
.L388:
	.loc 1 3061 5 is_stmt 1
	.loc 1 3061 16 is_stmt 0
	strb	r3, [r0, #60]
	.loc 1 3075 5 is_stmt 1
	bl	HAL_TIM_Encoder_MspInit
.LVL470:
	b	.L382
.LVL471:
.L383:
	.cfi_def_cfa_offset 0
	.cfi_restore 3
	.cfi_restore 4
	.cfi_restore 5
	.cfi_restore 6
	.cfi_restore 7
	.cfi_restore 14
	.loc 1 3039 12 is_stmt 0
	movs	r0, #1
.LVL472:
	.loc 1 3137 1
	bx	lr
.L390:
	.align	2
.L389:
	.word	-81928
	.word	-772
	.word	-64765
	.cfi_endproc
.LFE383:
	.size	HAL_TIM_Encoder_Init, .-HAL_TIM_Encoder_Init
	.section	.text.TIM_OC2_SetConfig,"ax",%progbits
	.align	1
	.global	TIM_OC2_SetConfig
	.syntax unified
	.thumb
	.thumb_func
	.type	TIM_OC2_SetConfig, %function
TIM_OC2_SetConfig:
.LFB441:
	.loc 1 7067 1 is_stmt 1
	.cfi_startproc
	@ args = 0, pretend = 0, frame = 0
	@ frame_needed = 0, uses_anonymous_args = 0
	@ link register save eliminated.
.LVL473:
	push	{r4, r5, r6}
	.cfi_def_cfa_offset 12
	.cfi_offset 4, -12
	.cfi_offset 5, -8
	.cfi_offset 6, -4
	.loc 1 7068 3
	.loc 1 7069 3
	.loc 1 7070 3
	.loc 1 7073 3
	.loc 1 7073 11 is_stmt 0
	ldr	r3, [r0, #32]
.LVL474:
	.loc 1 7076 3 is_stmt 1
	.loc 1 7076 7 is_stmt 0
	ldr	r2, [r0, #32]
	.loc 1 7076 14
	bic	r2, r2, #16
	str	r2, [r0, #32]
	.loc 1 7079 3 is_stmt 1
	.loc 1 7079 10 is_stmt 0
	ldr	r5, [r0, #4]
.LVL475:
	.loc 1 7082 3 is_stmt 1
	.loc 1 7082 12 is_stmt 0
	ldr	r4, [r0, #24]
.LVL476:
	.loc 1 7085 3 is_stmt 1
	.loc 1 7086 3
	.loc 1 7086 12 is_stmt 0
	ldr	r6, .L396
	ands	r6, r6, r4
.LVL477:
	.loc 1 7089 3 is_stmt 1
	.loc 1 7089 25 is_stmt 0
	ldr	r4, [r1]
	.loc 1 7089 12
	orr	r6, r6, r4, lsl #8
.LVL478:
	.loc 1 7092 3 is_stmt 1
	.loc 1 7092 11 is_stmt 0
	bic	r3, r3, #32
.LVL479:
	.loc 1 7094 3 is_stmt 1
	.loc 1 7094 24 is_stmt 0
	ldr	r2, [r1, #8]
	.loc 1 7094 11
	orr	r3, r3, r2, lsl #4
.LVL480:
	.loc 1 7096 3 is_stmt 1
	.loc 1 7096 84 is_stmt 0
	ldr	r2, .L396+4
	.loc 1 7096 268
	ldr	r4, .L396+8
	.loc 1 7096 6
	cmp	r0, r4
	it	ne
	cmpne	r0, r2
	ite	eq
	moveq	r2, #1
	movne	r2, #0
	bne	.L392
	.loc 1 7098 5 is_stmt 1
	.loc 1 7101 5
	.loc 1 7101 13 is_stmt 0
	bic	r3, r3, #128
.LVL481:
	.loc 1 7103 5 is_stmt 1
	.loc 1 7103 26 is_stmt 0
	ldr	r4, [r1, #12]
	.loc 1 7103 13
	orr	r3, r3, r4, lsl #4
.LVL482:
	.loc 1 7105 5 is_stmt 1
	.loc 1 7105 13 is_stmt 0
	bic	r3, r3, #64
.LVL483:
.L392:
	.loc 1 7108 3 is_stmt 1
	.loc 1 7108 6 is_stmt 0
	cbnz	r2, .L393
	.loc 1 7108 250 discriminator 1
	ldr	r2, .L396+12
	cmp	r0, r2
	ite	ne
	movne	r2, #0
	moveq	r2, #1
	.loc 1 7108 239 discriminator 1
	ldr	r4, .L396+16
	cmp	r0, r4
	beq	.L393
	cbnz	r2, .L393
	.loc 1 7108 317 discriminator 2
	ldr	r2, .L396+20
	cmp	r0, r2
	bne	.L394
.L393:
	.loc 1 7111 5 is_stmt 1
	.loc 1 7112 5
	.loc 1 7115 5
.LVL484:
	.loc 1 7116 5
	.loc 1 7116 12 is_stmt 0
	bic	ip, r5, #3072
.LVL485:
	.loc 1 7118 5 is_stmt 1
	.loc 1 7118 25 is_stmt 0
	ldr	r2, [r1, #20]
	.loc 1 7118 12
	orr	ip, ip, r2, lsl #2
.LVL486:
	.loc 1 7120 5 is_stmt 1
	.loc 1 7120 25 is_stmt 0
	ldr	r2, [r1, #24]
	.loc 1 7120 12
	orr	r5, ip, r2, lsl #2
.LVL487:
.L394:
	.loc 1 7124 3 is_stmt 1
	.loc 1 7124 13 is_stmt 0
	str	r5, [r0, #4]
	.loc 1 7127 3 is_stmt 1
	.loc 1 7127 15 is_stmt 0
	str	r6, [r0, #24]
	.loc 1 7130 3 is_stmt 1
	.loc 1 7130 25 is_stmt 0
	ldr	r2, [r1, #4]
	.loc 1 7130 14
	str	r2, [r0, #56]
	.loc 1 7133 3 is_stmt 1
	.loc 1 7133 14 is_stmt 0
	str	r3, [r0, #32]
	.loc 1 7134 1
	pop	{r4, r5, r6}
	.cfi_restore 6
	.cfi_restore 5
	.cfi_restore 4
	.cfi_def_cfa_offset 0
.LVL488:
	bx	lr
.L397:
	.align	2
.L396:
	.word	-16806657
	.word	1073807360
	.word	1073808384
	.word	1073824768
	.word	1073823744
	.word	1073825792
	.cfi_endproc
.LFE441:
	.size	TIM_OC2_SetConfig, .-TIM_OC2_SetConfig
	.section	.text.HAL_TIM_OC_ConfigChannel,"ax",%progbits
	.align	1
	.global	HAL_TIM_OC_ConfigChannel
	.syntax unified
	.thumb
	.thumb_func
	.type	HAL_TIM_OC_ConfigChannel, %function
HAL_TIM_OC_ConfigChannel:
.LFB394:
	.loc 1 4071 1 is_stmt 1
	.cfi_startproc
	@ args = 0, pretend = 0, frame = 0
	@ frame_needed = 0, uses_anonymous_args = 0
.LVL489:
	.loc 1 4072 3
	.loc 1 4075 3
	.loc 1 4076 3
	.loc 1 4077 3
	.loc 1 4080 3
	.loc 1 4080 7
	.loc 1 4080 16 is_stmt 0
	ldrb	r3, [r0, #60]	@ zero_extendqisi2
	.loc 1 4080 9
	cmp	r3, #1
	beq	.L408
	.loc 1 4071 1 discriminator 2
	push	{r4, lr}
	.cfi_def_cfa_offset 8
	.cfi_offset 4, -8
	.cfi_offset 14, -4
	mov	r4, r0
	.loc 1 4080 66 is_stmt 1 discriminator 2
	.loc 1 4080 79 is_stmt 0 discriminator 2
	movs	r3, #1
	strb	r3, [r0, #60]
	.loc 1 4080 5 is_stmt 1 discriminator 2
	.loc 1 4082 3 discriminator 2
	cmp	r2, #20
	bhi	.L409
	tbb	[pc, r2]
.L402:
	.byte	(.L407-.L402)/2
	.byte	(.L409-.L402)/2
	.byte	(.L409-.L402)/2
	.byte	(.L409-.L402)/2
	.byte	(.L406-.L402)/2
	.byte	(.L409-.L402)/2
	.byte	(.L409-.L402)/2
	.byte	(.L409-.L402)/2
	.byte	(.L405-.L402)/2
	.byte	(.L409-.L402)/2
	.byte	(.L409-.L402)/2
	.byte	(.L409-.L402)/2
	.byte	(.L404-.L402)/2
	.byte	(.L409-.L402)/2
	.byte	(.L409-.L402)/2
	.byte	(.L409-.L402)/2
	.byte	(.L403-.L402)/2
	.byte	(.L409-.L402)/2
	.byte	(.L409-.L402)/2
	.byte	(.L409-.L402)/2
	.byte	(.L401-.L402)/2
	.p2align 1
.L407:
	.loc 1 4087 7
	.loc 1 4090 7
	ldr	r0, [r0]
.LVL490:
	bl	TIM_OC1_SetConfig
.LVL491:
	.loc 1 4091 7
	.loc 1 4072 21 is_stmt 0
	movs	r0, #0
	.loc 1 4091 7
	b	.L400
.LVL492:
.L406:
	.loc 1 4097 7 is_stmt 1
	.loc 1 4100 7
	ldr	r0, [r0]
.LVL493:
	bl	TIM_OC2_SetConfig
.LVL494:
	.loc 1 4101 7
	.loc 1 4072 21 is_stmt 0
	movs	r0, #0
	.loc 1 4101 7
	b	.L400
.LVL495:
.L405:
	.loc 1 4107 7 is_stmt 1
	.loc 1 4110 7
	ldr	r0, [r0]
.LVL496:
	bl	TIM_OC3_SetConfig
.LVL497:
	.loc 1 4111 7
	.loc 1 4072 21 is_stmt 0
	movs	r0, #0
	.loc 1 4111 7
	b	.L400
.LVL498:
.L404:
	.loc 1 4117 7 is_stmt 1
	.loc 1 4120 7
	ldr	r0, [r0]
.LVL499:
	bl	TIM_OC4_SetConfig
.LVL500:
	.loc 1 4121 7
	.loc 1 4072 21 is_stmt 0
	movs	r0, #0
	.loc 1 4121 7
	b	.L400
.LVL501:
.L403:
	.loc 1 4127 7 is_stmt 1
	.loc 1 4130 7
	ldr	r0, [r0]
.LVL502:
	bl	TIM_OC5_SetConfig
.LVL503:
	.loc 1 4131 7
	.loc 1 4072 21 is_stmt 0
	movs	r0, #0
	.loc 1 4131 7
	b	.L400
.LVL504:
.L401:
	.loc 1 4137 7 is_stmt 1
	.loc 1 4140 7
	ldr	r0, [r0]
.LVL505:
	bl	TIM_OC6_SetConfig
.LVL506:
	.loc 1 4141 7
	.loc 1 4072 21 is_stmt 0
	movs	r0, #0
	.loc 1 4141 7
	b	.L400
.LVL507:
.L409:
	.loc 1 4082 3
	movs	r0, #1
.LVL508:
.L400:
	.loc 1 4149 3 is_stmt 1
	.loc 1 4149 7
	.loc 1 4149 20 is_stmt 0
	movs	r3, #0
	strb	r3, [r4, #60]
	.loc 1 4149 5 is_stmt 1
	.loc 1 4151 3
	.loc 1 4152 1 is_stmt 0
	pop	{r4, pc}
.LVL509:
.L408:
	.cfi_def_cfa_offset 0
	.cfi_restore 4
	.cfi_restore 14
	.loc 1 4080 47
	movs	r0, #2
.LVL510:
	.loc 1 4152 1
	bx	lr
	.cfi_endproc
.LFE394:
	.size	HAL_TIM_OC_ConfigChannel, .-HAL_TIM_OC_ConfigChannel
	.section	.text.HAL_TIM_PWM_ConfigChannel,"ax",%progbits
	.align	1
	.global	HAL_TIM_PWM_ConfigChannel
	.syntax unified
	.thumb
	.thumb_func
	.type	HAL_TIM_PWM_ConfigChannel, %function
HAL_TIM_PWM_ConfigChannel:
.LFB396:
	.loc 1 4271 1 is_stmt 1
	.cfi_startproc
	@ args = 0, pretend = 0, frame = 0
	@ frame_needed = 0, uses_anonymous_args = 0
.LVL511:
	push	{r3, r4, r5, lr}
	.cfi_def_cfa_offset 16
	.cfi_offset 3, -16
	.cfi_offset 4, -12
	.cfi_offset 5, -8
	.cfi_offset 14, -4
	.loc 1 4272 3
.LVL512:
	.loc 1 4275 3
	.loc 1 4276 3
	.loc 1 4277 3
	.loc 1 4278 3
	.loc 1 4281 3
	.loc 1 4281 7
	.loc 1 4281 16 is_stmt 0
	ldrb	r3, [r0, #60]	@ zero_extendqisi2
	.loc 1 4281 9
	cmp	r3, #1
	beq	.L424
	mov	r4, r0
	mov	r5, r1
	.loc 1 4281 66 is_stmt 1 discriminator 2
	.loc 1 4281 79 is_stmt 0 discriminator 2
	movs	r3, #1
	strb	r3, [r0, #60]
	.loc 1 4281 5 is_stmt 1 discriminator 2
	.loc 1 4283 3 discriminator 2
	cmp	r2, #20
	bhi	.L425
	tbb	[pc, r2]
.L418:
	.byte	(.L423-.L418)/2
	.byte	(.L425-.L418)/2
	.byte	(.L425-.L418)/2
	.byte	(.L425-.L418)/2
	.byte	(.L422-.L418)/2
	.byte	(.L425-.L418)/2
	.byte	(.L425-.L418)/2
	.byte	(.L425-.L418)/2
	.byte	(.L421-.L418)/2
	.byte	(.L425-.L418)/2
	.byte	(.L425-.L418)/2
	.byte	(.L425-.L418)/2
	.byte	(.L420-.L418)/2
	.byte	(.L425-.L418)/2
	.byte	(.L425-.L418)/2
	.byte	(.L425-.L418)/2
	.byte	(.L419-.L418)/2
	.byte	(.L425-.L418)/2
	.byte	(.L425-.L418)/2
	.byte	(.L425-.L418)/2
	.byte	(.L417-.L418)/2
	.p2align 1
.L423:
	.loc 1 4288 7
	.loc 1 4291 7
	ldr	r0, [r0]
.LVL513:
	bl	TIM_OC1_SetConfig
.LVL514:
	.loc 1 4294 7
	.loc 1 4294 11 is_stmt 0
	ldr	r2, [r4]
	.loc 1 4294 21
	ldr	r3, [r2, #24]
	.loc 1 4294 29
	orr	r3, r3, #8
	str	r3, [r2, #24]
	.loc 1 4297 7 is_stmt 1
	.loc 1 4297 11 is_stmt 0
	ldr	r2, [r4]
	.loc 1 4297 21
	ldr	r3, [r2, #24]
	.loc 1 4297 29
	bic	r3, r3, #4
	str	r3, [r2, #24]
	.loc 1 4298 7 is_stmt 1
	.loc 1 4298 11 is_stmt 0
	ldr	r2, [r4]
	.loc 1 4298 21
	ldr	r3, [r2, #24]
	.loc 1 4298 39
	ldr	r1, [r5, #16]
	.loc 1 4298 29
	orrs	r3, r3, r1
	str	r3, [r2, #24]
	.loc 1 4299 7 is_stmt 1
	.loc 1 4272 21 is_stmt 0
	movs	r0, #0
	.loc 1 4299 7
	b	.L416
.LVL515:
.L422:
	.loc 1 4305 7 is_stmt 1
	.loc 1 4308 7
	ldr	r0, [r0]
.LVL516:
	bl	TIM_OC2_SetConfig
.LVL517:
	.loc 1 4311 7
	.loc 1 4311 11 is_stmt 0
	ldr	r2, [r4]
	.loc 1 4311 21
	ldr	r3, [r2, #24]
	.loc 1 4311 29
	orr	r3, r3, #2048
	str	r3, [r2, #24]
	.loc 1 4314 7 is_stmt 1
	.loc 1 4314 11 is_stmt 0
	ldr	r2, [r4]
	.loc 1 4314 21
	ldr	r3, [r2, #24]
	.loc 1 4314 29
	bic	r3, r3, #1024
	str	r3, [r2, #24]
	.loc 1 4315 7 is_stmt 1
	.loc 1 4315 11 is_stmt 0
	ldr	r2, [r4]
	.loc 1 4315 21
	ldr	r3, [r2, #24]
	.loc 1 4315 39
	ldr	r1, [r5, #16]
	.loc 1 4315 29
	orr	r3, r3, r1, lsl #8
	str	r3, [r2, #24]
	.loc 1 4316 7 is_stmt 1
	.loc 1 4272 21 is_stmt 0
	movs	r0, #0
	.loc 1 4316 7
	b	.L416
.LVL518:
.L421:
	.loc 1 4322 7 is_stmt 1
	.loc 1 4325 7
	ldr	r0, [r0]
.LVL519:
	bl	TIM_OC3_SetConfig
.LVL520:
	.loc 1 4328 7
	.loc 1 4328 11 is_stmt 0
	ldr	r2, [r4]
	.loc 1 4328 21
	ldr	r3, [r2, #28]
	.loc 1 4328 29
	orr	r3, r3, #8
	str	r3, [r2, #28]
	.loc 1 4331 7 is_stmt 1
	.loc 1 4331 11 is_stmt 0
	ldr	r2, [r4]
	.loc 1 4331 21
	ldr	r3, [r2, #28]
	.loc 1 4331 29
	bic	r3, r3, #4
	str	r3, [r2, #28]
	.loc 1 4332 7 is_stmt 1
	.loc 1 4332 11 is_stmt 0
	ldr	r2, [r4]
	.loc 1 4332 21
	ldr	r3, [r2, #28]
	.loc 1 4332 39
	ldr	r1, [r5, #16]
	.loc 1 4332 29
	orrs	r3, r3, r1
	str	r3, [r2, #28]
	.loc 1 4333 7 is_stmt 1
	.loc 1 4272 21 is_stmt 0
	movs	r0, #0
	.loc 1 4333 7
	b	.L416
.LVL521:
.L420:
	.loc 1 4339 7 is_stmt 1
	.loc 1 4342 7
	ldr	r0, [r0]
.LVL522:
	bl	TIM_OC4_SetConfig
.LVL523:
	.loc 1 4345 7
	.loc 1 4345 11 is_stmt 0
	ldr	r2, [r4]
	.loc 1 4345 21
	ldr	r3, [r2, #28]
	.loc 1 4345 29
	orr	r3, r3, #2048
	str	r3, [r2, #28]
	.loc 1 4348 7 is_stmt 1
	.loc 1 4348 11 is_stmt 0
	ldr	r2, [r4]
	.loc 1 4348 21
	ldr	r3, [r2, #28]
	.loc 1 4348 29
	bic	r3, r3, #1024
	str	r3, [r2, #28]
	.loc 1 4349 7 is_stmt 1
	.loc 1 4349 11 is_stmt 0
	ldr	r2, [r4]
	.loc 1 4349 21
	ldr	r3, [r2, #28]
	.loc 1 4349 39
	ldr	r1, [r5, #16]
	.loc 1 4349 29
	orr	r3, r3, r1, lsl #8
	str	r3, [r2, #28]
	.loc 1 4350 7 is_stmt 1
	.loc 1 4272 21 is_stmt 0
	movs	r0, #0
	.loc 1 4350 7
	b	.L416
.LVL524:
.L419:
	.loc 1 4356 7 is_stmt 1
	.loc 1 4359 7
	ldr	r0, [r0]
.LVL525:
	bl	TIM_OC5_SetConfig
.LVL526:
	.loc 1 4362 7
	.loc 1 4362 11 is_stmt 0
	ldr	r2, [r4]
	.loc 1 4362 21
	ldr	r3, [r2, #84]
	.loc 1 4362 29
	orr	r3, r3, #8
	str	r3, [r2, #84]
	.loc 1 4365 7 is_stmt 1
	.loc 1 4365 11 is_stmt 0
	ldr	r2, [r4]
	.loc 1 4365 21
	ldr	r3, [r2, #84]
	.loc 1 4365 29
	bic	r3, r3, #4
	str	r3, [r2, #84]
	.loc 1 4366 7 is_stmt 1
	.loc 1 4366 11 is_stmt 0
	ldr	r2, [r4]
	.loc 1 4366 21
	ldr	r3, [r2, #84]
	.loc 1 4366 39
	ldr	r1, [r5, #16]
	.loc 1 4366 29
	orrs	r3, r3, r1
	str	r3, [r2, #84]
	.loc 1 4367 7 is_stmt 1
	.loc 1 4272 21 is_stmt 0
	movs	r0, #0
	.loc 1 4367 7
	b	.L416
.LVL527:
.L417:
	.loc 1 4373 7 is_stmt 1
	.loc 1 4376 7
	ldr	r0, [r0]
.LVL528:
	bl	TIM_OC6_SetConfig
.LVL529:
	.loc 1 4379 7
	.loc 1 4379 11 is_stmt 0
	ldr	r2, [r4]
	.loc 1 4379 21
	ldr	r3, [r2, #84]
	.loc 1 4379 29
	orr	r3, r3, #2048
	str	r3, [r2, #84]
	.loc 1 4382 7 is_stmt 1
	.loc 1 4382 11 is_stmt 0
	ldr	r2, [r4]
	.loc 1 4382 21
	ldr	r3, [r2, #84]
	.loc 1 4382 29
	bic	r3, r3, #1024
	str	r3, [r2, #84]
	.loc 1 4383 7 is_stmt 1
	.loc 1 4383 11 is_stmt 0
	ldr	r2, [r4]
	.loc 1 4383 21
	ldr	r3, [r2, #84]
	.loc 1 4383 39
	ldr	r1, [r5, #16]
	.loc 1 4383 29
	orr	r3, r3, r1, lsl #8
	str	r3, [r2, #84]
	.loc 1 4384 7 is_stmt 1
	.loc 1 4272 21 is_stmt 0
	movs	r0, #0
	.loc 1 4384 7
	b	.L416
.LVL530:
.L425:
	.loc 1 4283 3
	movs	r0, #1
.LVL531:
.L416:
	.loc 1 4392 3 is_stmt 1
	.loc 1 4392 7
	.loc 1 4392 20 is_stmt 0
	movs	r3, #0
	strb	r3, [r4, #60]
	.loc 1 4392 5 is_stmt 1
	.loc 1 4394 3
.LVL532:
.L415:
	.loc 1 4395 1 is_stmt 0
	pop	{r3, r4, r5, pc}
.LVL533:
.L424:
	.loc 1 4281 47
	movs	r0, #2
.LVL534:
	b	.L415
	.cfi_endproc
.LFE396:
	.size	HAL_TIM_PWM_ConfigChannel, .-HAL_TIM_PWM_ConfigChannel
	.section	.text.TIM_TI1_SetConfig,"ax",%progbits
	.align	1
	.global	TIM_TI1_SetConfig
	.syntax unified
	.thumb
	.thumb_func
	.type	TIM_TI1_SetConfig, %function
TIM_TI1_SetConfig:
.LFB447:
	.loc 1 7533 1 is_stmt 1
	.cfi_startproc
	@ args = 0, pretend = 0, frame = 0
	@ frame_needed = 0, uses_anonymous_args = 0
	@ link register save eliminated.
.LVL535:
	push	{r4, r5, r6}
	.cfi_def_cfa_offset 12
	.cfi_offset 4, -12
	.cfi_offset 5, -8
	.cfi_offset 6, -4
	mov	ip, r2
	.loc 1 7534 3
	.loc 1 7535 3
	.loc 1 7538 3
	.loc 1 7538 11 is_stmt 0
	ldr	r6, [r0, #32]
.LVL536:
	.loc 1 7539 3 is_stmt 1
	.loc 1 7539 7 is_stmt 0
	ldr	r4, [r0, #32]
	.loc 1 7539 14
	bic	r4, r4, #1
	str	r4, [r0, #32]
	.loc 1 7540 3 is_stmt 1
	.loc 1 7540 12 is_stmt 0
	ldr	r4, [r0, #24]
.LVL537:
	.loc 1 7543 3 is_stmt 1
	.loc 1 7543 466 is_stmt 0
	ldr	r5, .L431
	cmp	r0, #1073741824
	it	ne
	cmpne	r0, r5
	beq	.L428
	.loc 1 7543 216 discriminator 2
	ldr	r2, .L431+4
.LVL538:
	cmp	r0, r2
	ite	ne
	movne	r2, #0
	moveq	r2, #1
	.loc 1 7543 205 discriminator 2
	sub	r5, r5, #64512
	cmp	r0, r5
	beq	.L428
	cbnz	r2, .L428
	.loc 1 7543 338 discriminator 4
	add	r2, r2, #1073741824
	add	r2, r2, #66560
	cmp	r0, r2
	ite	ne
	movne	r2, #0
	moveq	r2, #1
	.loc 1 7543 327 discriminator 4
	add	r5, r5, #2048
	cmp	r0, r5
	beq	.L428
	cbnz	r2, .L428
	.loc 1 7543 477 discriminator 6
	ldr	r2, .L431+8
	cmp	r0, r2
	ite	ne
	movne	r2, #0
	moveq	r2, #1
	.loc 1 7543 466 discriminator 6
	add	r5, r5, #3072
	cmp	r0, r5
	beq	.L428
	cbnz	r2, .L428
	.loc 1 7550 5 is_stmt 1
	.loc 1 7550 14 is_stmt 0
	orr	r2, r4, #1
.LVL539:
	b	.L429
.LVL540:
.L428:
	.loc 1 7545 5 is_stmt 1
	.loc 1 7545 14 is_stmt 0
	bic	r2, r4, #3
.LVL541:
	.loc 1 7546 5 is_stmt 1
	.loc 1 7546 14 is_stmt 0
	orr	r2, r2, ip
.LVL542:
.L429:
	.loc 1 7554 3 is_stmt 1
	.loc 1 7554 12 is_stmt 0
	bic	r2, r2, #240
.LVL543:
	.loc 1 7555 3 is_stmt 1
	.loc 1 7555 30 is_stmt 0
	lsls	r3, r3, #4
.LVL544:
	.loc 1 7555 37
	uxtb	r3, r3
	.loc 1 7555 12
	orrs	r3, r3, r2
.LVL545:
	.loc 1 7558 3 is_stmt 1
	.loc 1 7558 11 is_stmt 0
	bic	r2, r6, #10
.LVL546:
	.loc 1 7559 3 is_stmt 1
	.loc 1 7559 30 is_stmt 0
	and	r1, r1, #10
.LVL547:
	.loc 1 7559 11
	orrs	r1, r1, r2
.LVL548:
	.loc 1 7562 3 is_stmt 1
	.loc 1 7562 15 is_stmt 0
	str	r3, [r0, #24]
	.loc 1 7563 3 is_stmt 1
	.loc 1 7563 14 is_stmt 0
	str	r1, [r0, #32]
	.loc 1 7564 1
	pop	{r4, r5, r6}
	.cfi_restore 6
	.cfi_restore 5
	.cfi_restore 4
	.cfi_def_cfa_offset 0
	bx	lr
.L432:
	.align	2
.L431:
	.word	1073807360
	.word	1073743872
	.word	1073823744
	.cfi_endproc
.LFE447:
	.size	TIM_TI1_SetConfig, .-TIM_TI1_SetConfig
	.section	.text.HAL_TIM_IC_ConfigChannel,"ax",%progbits
	.align	1
	.global	HAL_TIM_IC_ConfigChannel
	.syntax unified
	.thumb
	.thumb_func
	.type	HAL_TIM_IC_ConfigChannel, %function
HAL_TIM_IC_ConfigChannel:
.LFB395:
	.loc 1 4168 1 is_stmt 1
	.cfi_startproc
	@ args = 0, pretend = 0, frame = 0
	@ frame_needed = 0, uses_anonymous_args = 0
.LVL549:
	push	{r3, r4, r5, lr}
	.cfi_def_cfa_offset 16
	.cfi_offset 3, -16
	.cfi_offset 4, -12
	.cfi_offset 5, -8
	.cfi_offset 14, -4
	.loc 1 4169 3
.LVL550:
	.loc 1 4172 3
	.loc 1 4173 3
	.loc 1 4174 3
	.loc 1 4175 3
	.loc 1 4176 3
	.loc 1 4179 3
	.loc 1 4179 7
	.loc 1 4179 16 is_stmt 0
	ldrb	r3, [r0, #60]	@ zero_extendqisi2
	.loc 1 4179 9
	cmp	r3, #1
	beq	.L439
	mov	r4, r0
	mov	r5, r1
	.loc 1 4179 66 is_stmt 1 discriminator 2
	.loc 1 4179 79 is_stmt 0 discriminator 2
	movs	r3, #1
	strb	r3, [r0, #60]
	.loc 1 4179 5 is_stmt 1 discriminator 2
	.loc 1 4181 3 discriminator 2
	.loc 1 4181 6 is_stmt 0 discriminator 2
	cbz	r2, .L442
	.loc 1 4195 8 is_stmt 1
	.loc 1 4195 11 is_stmt 0
	cmp	r2, #4
	beq	.L443
	.loc 1 4211 8 is_stmt 1
	.loc 1 4211 11 is_stmt 0
	cmp	r2, #8
	beq	.L444
	.loc 1 4227 8 is_stmt 1
	.loc 1 4227 11 is_stmt 0
	cmp	r2, #12
	beq	.L445
	.loc 1 4245 12
	movs	r0, #1
.LVL551:
.L436:
	.loc 1 4248 3 is_stmt 1
	.loc 1 4248 7
	.loc 1 4248 20 is_stmt 0
	movs	r3, #0
	strb	r3, [r4, #60]
	.loc 1 4248 5 is_stmt 1
	.loc 1 4250 3
.LVL552:
.L434:
	.loc 1 4251 1 is_stmt 0
	pop	{r3, r4, r5, pc}
.LVL553:
.L442:
	.loc 1 4184 5 is_stmt 1
	ldr	r3, [r1, #12]
	ldr	r2, [r1, #4]
.LVL554:
	ldr	r1, [r1]
.LVL555:
	ldr	r0, [r0]
.LVL556:
	bl	TIM_TI1_SetConfig
.LVL557:
	.loc 1 4190 5
	.loc 1 4190 9 is_stmt 0
	ldr	r2, [r4]
	.loc 1 4190 19
	ldr	r3, [r2, #24]
	.loc 1 4190 27
	bic	r3, r3, #12
	str	r3, [r2, #24]
	.loc 1 4193 5 is_stmt 1
	.loc 1 4193 9 is_stmt 0
	ldr	r2, [r4]
	.loc 1 4193 19
	ldr	r3, [r2, #24]
	.loc 1 4193 37
	ldr	r1, [r5, #8]
	.loc 1 4193 27
	orrs	r3, r3, r1
	str	r3, [r2, #24]
	.loc 1 4169 21
	movs	r0, #0
	b	.L436
.LVL558:
.L443:
	.loc 1 4198 5 is_stmt 1
	.loc 1 4200 5
	ldr	r3, [r1, #12]
	ldr	r2, [r1, #4]
.LVL559:
	ldr	r1, [r1]
.LVL560:
	ldr	r0, [r0]
.LVL561:
	bl	TIM_TI2_SetConfig
.LVL562:
	.loc 1 4206 5
	.loc 1 4206 9 is_stmt 0
	ldr	r2, [r4]
	.loc 1 4206 19
	ldr	r3, [r2, #24]
	.loc 1 4206 27
	bic	r3, r3, #3072
	str	r3, [r2, #24]
	.loc 1 4209 5 is_stmt 1
	.loc 1 4209 9 is_stmt 0
	ldr	r2, [r4]
	.loc 1 4209 19
	ldr	r3, [r2, #24]
	.loc 1 4209 38
	ldr	r1, [r5, #8]
	.loc 1 4209 27
	orr	r3, r3, r1, lsl #8
	str	r3, [r2, #24]
	.loc 1 4169 21
	movs	r0, #0
	b	.L436
.LVL563:
.L444:
	.loc 1 4214 5 is_stmt 1
	.loc 1 4216 5
	ldr	r3, [r1, #12]
	ldr	r2, [r1, #4]
.LVL564:
	ldr	r1, [r1]
.LVL565:
	ldr	r0, [r0]
.LVL566:
	bl	TIM_TI3_SetConfig
.LVL567:
	.loc 1 4222 5
	.loc 1 4222 9 is_stmt 0
	ldr	r2, [r4]
	.loc 1 4222 19
	ldr	r3, [r2, #28]
	.loc 1 4222 27
	bic	r3, r3, #12
	str	r3, [r2, #28]
	.loc 1 4225 5 is_stmt 1
	.loc 1 4225 9 is_stmt 0
	ldr	r2, [r4]
	.loc 1 4225 19
	ldr	r3, [r2, #28]
	.loc 1 4225 37
	ldr	r1, [r5, #8]
	.loc 1 4225 27
	orrs	r3, r3, r1
	str	r3, [r2, #28]
	.loc 1 4169 21
	movs	r0, #0
	b	.L436
.LVL568:
.L445:
	.loc 1 4230 5 is_stmt 1
	.loc 1 4232 5
	ldr	r3, [r1, #12]
	ldr	r2, [r1, #4]
.LVL569:
	ldr	r1, [r1]
.LVL570:
	ldr	r0, [r0]
.LVL571:
	bl	TIM_TI4_SetConfig
.LVL572:
	.loc 1 4238 5
	.loc 1 4238 9 is_stmt 0
	ldr	r2, [r4]
	.loc 1 4238 19
	ldr	r3, [r2, #28]
	.loc 1 4238 27
	bic	r3, r3, #3072
	str	r3, [r2, #28]
	.loc 1 4241 5 is_stmt 1
	.loc 1 4241 9 is_stmt 0
	ldr	r2, [r4]
	.loc 1 4241 19
	ldr	r3, [r2, #28]
	.loc 1 4241 38
	ldr	r1, [r5, #8]
	.loc 1 4241 27
	orr	r3, r3, r1, lsl #8
	str	r3, [r2, #28]
	.loc 1 4169 21
	movs	r0, #0
	b	.L436
.LVL573:
.L439:
	.loc 1 4179 47
	movs	r0, #2
.LVL574:
	b	.L434
	.cfi_endproc
.LFE395:
	.size	HAL_TIM_IC_ConfigChannel, .-HAL_TIM_IC_ConfigChannel
	.section	.text.HAL_TIM_OnePulse_ConfigChannel,"ax",%progbits
	.align	1
	.global	HAL_TIM_OnePulse_ConfigChannel
	.syntax unified
	.thumb
	.thumb_func
	.type	HAL_TIM_OnePulse_ConfigChannel, %function
HAL_TIM_OnePulse_ConfigChannel:
.LFB397:
	.loc 1 4418 1 is_stmt 1
	.cfi_startproc
	@ args = 0, pretend = 0, frame = 32
	@ frame_needed = 0, uses_anonymous_args = 0
.LVL575:
	.loc 1 4419 3
	.loc 1 4420 3
	.loc 1 4423 3
	.loc 1 4424 3
	.loc 1 4426 3
	.loc 1 4426 6 is_stmt 0
	cmp	r2, r3
	beq	.L454
	.loc 1 4418 1
	push	{r4, r5, r6, lr}
	.cfi_def_cfa_offset 16
	.cfi_offset 4, -16
	.cfi_offset 5, -12
	.cfi_offset 6, -8
	.cfi_offset 14, -4
	sub	sp, sp, #32
	.cfi_def_cfa_offset 48
	mov	r4, r0
	mov	r5, r1
	mov	r6, r3
	.loc 1 4429 5 is_stmt 1
	.loc 1 4429 9
	.loc 1 4429 18 is_stmt 0
	ldrb	r3, [r0, #60]	@ zero_extendqisi2
.LVL576:
	.loc 1 4429 11
	cmp	r3, #1
	beq	.L455
	.loc 1 4429 68 is_stmt 1 discriminator 2
	.loc 1 4429 81 is_stmt 0 discriminator 2
	movs	r3, #1
	strb	r3, [r0, #60]
	.loc 1 4429 7 is_stmt 1 discriminator 2
	.loc 1 4431 5 discriminator 2
	.loc 1 4431 17 is_stmt 0 discriminator 2
	movs	r3, #2
	strb	r3, [r0, #61]
	.loc 1 4434 5 is_stmt 1 discriminator 2
	.loc 1 4434 27 is_stmt 0 discriminator 2
	ldr	r3, [r1]
	.loc 1 4434 18 discriminator 2
	str	r3, [sp, #4]
	.loc 1 4435 5 is_stmt 1 discriminator 2
	.loc 1 4435 26 is_stmt 0 discriminator 2
	ldr	r3, [r1, #4]
	.loc 1 4435 17 discriminator 2
	str	r3, [sp, #8]
	.loc 1 4436 5 is_stmt 1 discriminator 2
	.loc 1 4436 31 is_stmt 0 discriminator 2
	ldr	r3, [r1, #8]
	.loc 1 4436 22 discriminator 2
	str	r3, [sp, #12]
	.loc 1 4437 5 is_stmt 1 discriminator 2
	.loc 1 4437 32 is_stmt 0 discriminator 2
	ldr	r3, [r1, #12]
	.loc 1 4437 23 discriminator 2
	str	r3, [sp, #16]
	.loc 1 4438 5 is_stmt 1 discriminator 2
	.loc 1 4438 32 is_stmt 0 discriminator 2
	ldr	r3, [r1, #16]
	.loc 1 4438 23 discriminator 2
	str	r3, [sp, #24]
	.loc 1 4439 5 is_stmt 1 discriminator 2
	.loc 1 4439 33 is_stmt 0 discriminator 2
	ldr	r3, [r1, #20]
	.loc 1 4439 24 discriminator 2
	str	r3, [sp, #28]
	.loc 1 4441 5 is_stmt 1 discriminator 2
	cbz	r2, .L448
	.loc 1 4441 5 is_stmt 0
	cmp	r2, #4
	beq	.L449
	movs	r0, #1
.LVL577:
.L450:
	.loc 1 4514 5 is_stmt 1
	.loc 1 4514 17 is_stmt 0
	movs	r3, #1
	strb	r3, [r4, #61]
	.loc 1 4516 5 is_stmt 1
	.loc 1 4516 9
	.loc 1 4516 22 is_stmt 0
	movs	r3, #0
	strb	r3, [r4, #60]
	.loc 1 4516 7 is_stmt 1
	.loc 1 4518 5
.LVL578:
.L447:
	.loc 1 4524 1 is_stmt 0
	add	sp, sp, #32
	.cfi_remember_state
	.cfi_def_cfa_offset 16
	@ sp needed
	pop	{r4, r5, r6, pc}
.LVL579:
.L448:
	.cfi_restore_state
	.loc 1 4445 9 is_stmt 1
	.loc 1 4447 9
	add	r1, sp, #4
.LVL580:
	ldr	r0, [r0]
.LVL581:
	bl	TIM_OC1_SetConfig
.LVL582:
	.loc 1 4448 9
	.loc 1 4464 5
.L451:
	.loc 1 4466 7
	cbz	r6, .L452
	cmp	r6, #4
	beq	.L453
	movs	r0, #1
	b	.L450
.LVL583:
.L449:
	.loc 1 4453 9
	.loc 1 4455 9
	add	r1, sp, #4
.LVL584:
	ldr	r0, [r0]
.LVL585:
	bl	TIM_OC2_SetConfig
.LVL586:
	.loc 1 4456 9
	.loc 1 4464 5
	b	.L451
.L452:
	.loc 1 4470 11
	.loc 1 4472 11
	ldr	r3, [r5, #32]
	ldr	r2, [r5, #28]
	ldr	r1, [r5, #24]
	ldr	r0, [r4]
	bl	TIM_TI1_SetConfig
.LVL587:
	.loc 1 4476 11
	.loc 1 4476 15 is_stmt 0
	ldr	r2, [r4]
	.loc 1 4476 25
	ldr	r3, [r2, #24]
	.loc 1 4476 33
	bic	r3, r3, #12
	str	r3, [r2, #24]
	.loc 1 4479 11 is_stmt 1
	.loc 1 4479 15 is_stmt 0
	ldr	r2, [r4]
	.loc 1 4479 25
	ldr	r1, [r2, #8]
	.loc 1 4479 32
	ldr	r3, .L460
	ands	r3, r3, r1
	str	r3, [r2, #8]
	.loc 1 4480 11 is_stmt 1
	.loc 1 4480 15 is_stmt 0
	ldr	r2, [r4]
	.loc 1 4480 25
	ldr	r3, [r2, #8]
	.loc 1 4480 32
	orr	r3, r3, #80
	str	r3, [r2, #8]
	.loc 1 4483 11 is_stmt 1
	.loc 1 4483 15 is_stmt 0
	ldr	r2, [r4]
	.loc 1 4483 25
	ldr	r1, [r2, #8]
	.loc 1 4483 32
	ldr	r3, .L460+4
	ands	r3, r3, r1
	str	r3, [r2, #8]
	.loc 1 4484 11 is_stmt 1
	.loc 1 4484 15 is_stmt 0
	ldr	r2, [r4]
	.loc 1 4484 25
	ldr	r3, [r2, #8]
	.loc 1 4484 32
	orr	r3, r3, #6
	str	r3, [r2, #8]
	.loc 1 4485 11 is_stmt 1
	movs	r0, #0
	b	.L450
.L453:
	.loc 1 4490 11
	.loc 1 4492 11
	ldr	r3, [r5, #32]
	ldr	r2, [r5, #28]
	ldr	r1, [r5, #24]
	ldr	r0, [r4]
	bl	TIM_TI2_SetConfig
.LVL588:
	.loc 1 4496 11
	.loc 1 4496 15 is_stmt 0
	ldr	r2, [r4]
	.loc 1 4496 25
	ldr	r3, [r2, #24]
	.loc 1 4496 33
	bic	r3, r3, #3072
	str	r3, [r2, #24]
	.loc 1 4499 11 is_stmt 1
	.loc 1 4499 15 is_stmt 0
	ldr	r2, [r4]
	.loc 1 4499 25
	ldr	r1, [r2, #8]
	.loc 1 4499 32
	ldr	r3, .L460
	ands	r3, r3, r1
	str	r3, [r2, #8]
	.loc 1 4500 11 is_stmt 1
	.loc 1 4500 15 is_stmt 0
	ldr	r2, [r4]
	.loc 1 4500 25
	ldr	r3, [r2, #8]
	.loc 1 4500 32
	orr	r3, r3, #96
	str	r3, [r2, #8]
	.loc 1 4503 11 is_stmt 1
	.loc 1 4503 15 is_stmt 0
	ldr	r2, [r4]
	.loc 1 4503 25
	ldr	r1, [r2, #8]
	.loc 1 4503 32
	ldr	r3, .L460+4
	ands	r3, r3, r1
	str	r3, [r2, #8]
	.loc 1 4504 11 is_stmt 1
	.loc 1 4504 15 is_stmt 0
	ldr	r2, [r4]
	.loc 1 4504 25
	ldr	r3, [r2, #8]
	.loc 1 4504 32
	orr	r3, r3, #6
	str	r3, [r2, #8]
	.loc 1 4505 11 is_stmt 1
	movs	r0, #0
	b	.L450
.LVL589:
.L454:
	.cfi_def_cfa_offset 0
	.cfi_restore 4
	.cfi_restore 5
	.cfi_restore 6
	.cfi_restore 14
	.loc 1 4522 12 is_stmt 0
	movs	r0, #1
.LVL590:
	.loc 1 4524 1
	bx	lr
.LVL591:
.L455:
	.cfi_def_cfa_offset 48
	.cfi_offset 4, -16
	.cfi_offset 5, -12
	.cfi_offset 6, -8
	.cfi_offset 14, -4
	.loc 1 4429 49
	movs	r0, #2
.LVL592:
	b	.L447
.L461:
	.align	2
.L460:
	.word	-3145841
	.word	-65544
	.cfi_endproc
.LFE397:
	.size	HAL_TIM_OnePulse_ConfigChannel, .-HAL_TIM_OnePulse_ConfigChannel
	.section	.text.TIM_ETR_SetConfig,"ax",%progbits
	.align	1
	.global	TIM_ETR_SetConfig
	.syntax unified
	.thumb
	.thumb_func
	.type	TIM_ETR_SetConfig, %function
TIM_ETR_SetConfig:
.LFB454:
	.loc 1 7840 1 is_stmt 1
	.cfi_startproc
	@ args = 0, pretend = 0, frame = 0
	@ frame_needed = 0, uses_anonymous_args = 0
	@ link register save eliminated.
.LVL593:
	push	{r4}
	.cfi_def_cfa_offset 4
	.cfi_offset 4, -4
	.loc 1 7841 3
	.loc 1 7843 3
	.loc 1 7843 11 is_stmt 0
	ldr	r4, [r0, #8]
.LVL594:
	.loc 1 7846 3 is_stmt 1
	.loc 1 7846 11 is_stmt 0
	bic	ip, r4, #65280
.LVL595:
	.loc 1 7849 3 is_stmt 1
	.loc 1 7849 67 is_stmt 0
	orr	r2, r2, r3, lsl #8
.LVL596:
	.loc 1 7849 45
	orrs	r2, r2, r1
	.loc 1 7849 11
	orr	r2, r2, ip
.LVL597:
	.loc 1 7852 3 is_stmt 1
	.loc 1 7852 14 is_stmt 0
	str	r2, [r0, #8]
	.loc 1 7853 1
	ldr	r4, [sp], #4
	.cfi_restore 4
	.cfi_def_cfa_offset 0
	bx	lr
	.cfi_endproc
.LFE454:
	.size	TIM_ETR_SetConfig, .-TIM_ETR_SetConfig
	.section	.text.HAL_TIM_ConfigOCrefClear,"ax",%progbits
	.align	1
	.global	HAL_TIM_ConfigOCrefClear
	.syntax unified
	.thumb
	.thumb_func
	.type	HAL_TIM_ConfigOCrefClear, %function
HAL_TIM_ConfigOCrefClear:
.LFB405:
	.loc 1 5291 1 is_stmt 1
	.cfi_startproc
	@ args = 0, pretend = 0, frame = 0
	@ frame_needed = 0, uses_anonymous_args = 0
.LVL598:
	.loc 1 5292 3
	.loc 1 5295 3
	.loc 1 5296 3
	.loc 1 5299 3
	.loc 1 5299 7
	.loc 1 5299 16 is_stmt 0
	ldrb	r3, [r0, #60]	@ zero_extendqisi2
	.loc 1 5299 9
	cmp	r3, #1
	beq	.L484
	.loc 1 5291 1 discriminator 2
	push	{r4, r5, r6, lr}
	.cfi_def_cfa_offset 16
	.cfi_offset 4, -16
	.cfi_offset 5, -12
	.cfi_offset 6, -8
	.cfi_offset 14, -4
	mov	r4, r0
	mov	r5, r1
	mov	r6, r2
	.loc 1 5299 66 is_stmt 1 discriminator 2
	.loc 1 5299 79 is_stmt 0 discriminator 2
	movs	r3, #1
	strb	r3, [r0, #60]
	.loc 1 5299 5 is_stmt 1 discriminator 2
	.loc 1 5301 3 discriminator 2
	.loc 1 5301 15 is_stmt 0 discriminator 2
	movs	r3, #2
	strb	r3, [r0, #61]
	.loc 1 5303 3 is_stmt 1 discriminator 2
	.loc 1 5303 28 is_stmt 0 discriminator 2
	ldr	r3, [r1, #4]
	.loc 1 5303 3 discriminator 2
	cbz	r3, .L466
	.loc 1 5303 3
	cmp	r3, #1
	beq	.L467
	movs	r0, #1
.LVL599:
.L468:
	.loc 1 5432 3 is_stmt 1
	.loc 1 5432 15 is_stmt 0
	movs	r3, #1
	strb	r3, [r4, #61]
	.loc 1 5434 3 is_stmt 1
	.loc 1 5434 7
	.loc 1 5434 20 is_stmt 0
	movs	r3, #0
	strb	r3, [r4, #60]
	.loc 1 5434 5 is_stmt 1
	.loc 1 5436 3
.L465:
	.loc 1 5437 1 is_stmt 0
	pop	{r4, r5, r6, pc}
.LVL600:
.L466:
	.loc 1 5308 7 is_stmt 1
	.loc 1 5308 13 is_stmt 0
	ldr	r2, [r0]
.LVL601:
	.loc 1 5308 23
	ldr	r3, [r2, #8]
	.loc 1 5308 31
	bic	r3, r3, #65280
	str	r3, [r2, #8]
	.loc 1 5309 7 is_stmt 1
	.loc 1 5339 3
.LVL602:
.L469:
	.loc 1 5341 5
	cmp	r6, #20
	bhi	.L485
	tbb	[pc, r6]
.L472:
	.byte	(.L477-.L472)/2
	.byte	(.L485-.L472)/2
	.byte	(.L485-.L472)/2
	.byte	(.L485-.L472)/2
	.byte	(.L476-.L472)/2
	.byte	(.L485-.L472)/2
	.byte	(.L485-.L472)/2
	.byte	(.L485-.L472)/2
	.byte	(.L475-.L472)/2
	.byte	(.L485-.L472)/2
	.byte	(.L485-.L472)/2
	.byte	(.L485-.L472)/2
	.byte	(.L474-.L472)/2
	.byte	(.L485-.L472)/2
	.byte	(.L485-.L472)/2
	.byte	(.L485-.L472)/2
	.byte	(.L473-.L472)/2
	.byte	(.L485-.L472)/2
	.byte	(.L485-.L472)/2
	.byte	(.L485-.L472)/2
	.byte	(.L471-.L472)/2
.LVL603:
	.p2align 1
.L467:
	.loc 1 5315 7
	.loc 1 5316 7
	.loc 1 5317 7
	.loc 1 5320 7
	.loc 1 5320 28 is_stmt 0
	ldr	r1, [r1, #12]
.LVL604:
	.loc 1 5320 10
	cbz	r1, .L470
	.loc 1 5322 9 is_stmt 1
	.loc 1 5322 21 is_stmt 0
	movs	r0, #1
.LVL605:
	strb	r0, [r4, #61]
	.loc 1 5323 9 is_stmt 1
	.loc 1 5323 13
	.loc 1 5323 26 is_stmt 0
	movs	r3, #0
	strb	r3, [r4, #60]
	.loc 1 5323 11 is_stmt 1
	.loc 1 5324 9
	.loc 1 5324 16 is_stmt 0
	b	.L465
.LVL606:
.L470:
	.loc 1 5327 7 is_stmt 1
	ldr	r3, [r5, #16]
	ldr	r2, [r5, #8]
.LVL607:
	ldr	r0, [r0]
.LVL608:
	bl	TIM_ETR_SetConfig
.LVL609:
	.loc 1 5331 7
	.loc 1 5339 3
	b	.L469
.L477:
	.loc 1 5345 9
	.loc 1 5345 30 is_stmt 0
	ldr	r3, [r5]
	.loc 1 5345 12
	cbz	r3, .L478
	.loc 1 5348 11 is_stmt 1
	.loc 1 5348 17 is_stmt 0
	ldr	r2, [r4]
	.loc 1 5348 27
	ldr	r3, [r2, #24]
	.loc 1 5348 36
	orr	r3, r3, #128
	str	r3, [r2, #24]
	movs	r0, #0
	b	.L468
.L478:
	.loc 1 5353 11 is_stmt 1
	.loc 1 5353 17 is_stmt 0
	ldr	r2, [r4]
	.loc 1 5353 27
	ldr	r3, [r2, #24]
	.loc 1 5353 36
	bic	r3, r3, #128
	str	r3, [r2, #24]
	movs	r0, #0
	b	.L468
.L476:
	.loc 1 5359 9 is_stmt 1
	.loc 1 5359 30 is_stmt 0
	ldr	r3, [r5]
	.loc 1 5359 12
	cbz	r3, .L479
	.loc 1 5362 11 is_stmt 1
	.loc 1 5362 17 is_stmt 0
	ldr	r2, [r4]
	.loc 1 5362 27
	ldr	r3, [r2, #24]
	.loc 1 5362 36
	orr	r3, r3, #32768
	str	r3, [r2, #24]
	movs	r0, #0
	b	.L468
.L479:
	.loc 1 5367 11 is_stmt 1
	.loc 1 5367 17 is_stmt 0
	ldr	r2, [r4]
	.loc 1 5367 27
	ldr	r3, [r2, #24]
	.loc 1 5367 36
	bic	r3, r3, #32768
	str	r3, [r2, #24]
	movs	r0, #0
	b	.L468
.L475:
	.loc 1 5373 9 is_stmt 1
	.loc 1 5373 30 is_stmt 0
	ldr	r3, [r5]
	.loc 1 5373 12
	cbz	r3, .L480
	.loc 1 5376 11 is_stmt 1
	.loc 1 5376 17 is_stmt 0
	ldr	r2, [r4]
	.loc 1 5376 27
	ldr	r3, [r2, #28]
	.loc 1 5376 36
	orr	r3, r3, #128
	str	r3, [r2, #28]
	movs	r0, #0
	b	.L468
.L480:
	.loc 1 5381 11 is_stmt 1
	.loc 1 5381 17 is_stmt 0
	ldr	r2, [r4]
	.loc 1 5381 27
	ldr	r3, [r2, #28]
	.loc 1 5381 36
	bic	r3, r3, #128
	str	r3, [r2, #28]
	movs	r0, #0
	b	.L468
.L474:
	.loc 1 5387 9 is_stmt 1
	.loc 1 5387 30 is_stmt 0
	ldr	r3, [r5]
	.loc 1 5387 12
	cbz	r3, .L481
	.loc 1 5390 11 is_stmt 1
	.loc 1 5390 17 is_stmt 0
	ldr	r2, [r4]
	.loc 1 5390 27
	ldr	r3, [r2, #28]
	.loc 1 5390 36
	orr	r3, r3, #32768
	str	r3, [r2, #28]
	movs	r0, #0
	b	.L468
.L481:
	.loc 1 5395 11 is_stmt 1
	.loc 1 5395 17 is_stmt 0
	ldr	r2, [r4]
	.loc 1 5395 27
	ldr	r3, [r2, #28]
	.loc 1 5395 36
	bic	r3, r3, #32768
	str	r3, [r2, #28]
	movs	r0, #0
	b	.L468
.L473:
	.loc 1 5401 9 is_stmt 1
	.loc 1 5401 30 is_stmt 0
	ldr	r3, [r5]
	.loc 1 5401 12
	cbz	r3, .L482
	.loc 1 5404 11 is_stmt 1
	.loc 1 5404 17 is_stmt 0
	ldr	r2, [r4]
	.loc 1 5404 27
	ldr	r3, [r2, #84]
	.loc 1 5404 36
	orr	r3, r3, #128
	str	r3, [r2, #84]
	movs	r0, #0
	b	.L468
.L482:
	.loc 1 5409 11 is_stmt 1
	.loc 1 5409 17 is_stmt 0
	ldr	r2, [r4]
	.loc 1 5409 27
	ldr	r3, [r2, #84]
	.loc 1 5409 36
	bic	r3, r3, #128
	str	r3, [r2, #84]
	movs	r0, #0
	b	.L468
.L471:
	.loc 1 5415 9 is_stmt 1
	.loc 1 5415 30 is_stmt 0
	ldr	r3, [r5]
	.loc 1 5415 12
	cbz	r3, .L483
	.loc 1 5418 11 is_stmt 1
	.loc 1 5418 17 is_stmt 0
	ldr	r2, [r4]
	.loc 1 5418 27
	ldr	r3, [r2, #84]
	.loc 1 5418 36
	orr	r3, r3, #32768
	str	r3, [r2, #84]
	movs	r0, #0
	b	.L468
.L483:
	.loc 1 5423 11 is_stmt 1
	.loc 1 5423 17 is_stmt 0
	ldr	r2, [r4]
	.loc 1 5423 27
	ldr	r3, [r2, #84]
	.loc 1 5423 36
	bic	r3, r3, #32768
	str	r3, [r2, #84]
	movs	r0, #0
	b	.L468
.L485:
	.loc 1 5341 5
	movs	r0, #0
	b	.L468
.LVL610:
.L484:
	.cfi_def_cfa_offset 0
	.cfi_restore 4
	.cfi_restore 5
	.cfi_restore 6
	.cfi_restore 14
	.loc 1 5299 47
	movs	r0, #2
.LVL611:
	.loc 1 5437 1
	bx	lr
	.cfi_endproc
.LFE405:
	.size	HAL_TIM_ConfigOCrefClear, .-HAL_TIM_ConfigOCrefClear
	.section	.text.HAL_TIM_ConfigClockSource,"ax",%progbits
	.align	1
	.global	HAL_TIM_ConfigClockSource
	.syntax unified
	.thumb
	.thumb_func
	.type	HAL_TIM_ConfigClockSource, %function
HAL_TIM_ConfigClockSource:
.LFB406:
	.loc 1 5447 1 is_stmt 1
	.cfi_startproc
	@ args = 0, pretend = 0, frame = 0
	@ frame_needed = 0, uses_anonymous_args = 0
.LVL612:
	.loc 1 5448 3
	.loc 1 5449 3
	.loc 1 5452 3
	.loc 1 5452 7
	.loc 1 5452 16 is_stmt 0
	ldrb	r3, [r0, #60]	@ zero_extendqisi2
	.loc 1 5452 9
	cmp	r3, #1
	beq	.L504
	.loc 1 5447 1 discriminator 2
	push	{r4, lr}
	.cfi_def_cfa_offset 8
	.cfi_offset 4, -8
	.cfi_offset 14, -4
	mov	r4, r0
	.loc 1 5452 66 is_stmt 1 discriminator 2
	.loc 1 5452 79 is_stmt 0 discriminator 2
	movs	r3, #1
	strb	r3, [r0, #60]
	.loc 1 5452 5 is_stmt 1 discriminator 2
	.loc 1 5454 3 discriminator 2
	.loc 1 5454 15 is_stmt 0 discriminator 2
	movs	r3, #2
	strb	r3, [r0, #61]
	.loc 1 5457 3 is_stmt 1 discriminator 2
	.loc 1 5460 3 discriminator 2
	.loc 1 5460 17 is_stmt 0 discriminator 2
	ldr	r2, [r0]
	.loc 1 5460 11 discriminator 2
	ldr	r0, [r2, #8]
.LVL613:
	.loc 1 5461 3 is_stmt 1 discriminator 2
	.loc 1 5462 3 discriminator 2
	.loc 1 5462 11 is_stmt 0 discriminator 2
	ldr	r3, .L518
	ands	r3, r3, r0
.LVL614:
	.loc 1 5463 3 is_stmt 1 discriminator 2
	.loc 1 5463 24 is_stmt 0 discriminator 2
	str	r3, [r2, #8]
	.loc 1 5465 3 is_stmt 1 discriminator 2
	.loc 1 5465 29 is_stmt 0 discriminator 2
	ldr	r3, [r1]
.LVL615:
	.loc 1 5465 3 discriminator 2
	cmp	r3, #112
	beq	.L492
	.loc 1 5465 3
	bhi	.L493
	cmp	r3, #80
	beq	.L494
	bls	.L511
	cmp	r3, #96
	bne	.L512
	.loc 1 5536 7 is_stmt 1
	.loc 1 5539 7
	.loc 1 5540 7
	.loc 1 5542 7
	ldr	r2, [r1, #12]
.LVL616:
	ldr	r1, [r1, #4]
.LVL617:
	ldr	r0, [r4]
.LVL618:
	bl	TIM_TI2_ConfigInputStage
.LVL619:
	.loc 1 5545 7
	movs	r1, #96
	ldr	r0, [r4]
	bl	TIM_ITRx_SetConfig
.LVL620:
	.loc 1 5546 7
	.loc 1 5448 21 is_stmt 0
	movs	r0, #0
	.loc 1 5546 7
	b	.L497
.LVL621:
.L511:
	.loc 1 5465 3
	cmp	r3, #64
	bne	.L513
	.loc 1 5552 7 is_stmt 1
	.loc 1 5555 7
	.loc 1 5556 7
	.loc 1 5558 7
	ldr	r2, [r1, #12]
.LVL622:
	ldr	r1, [r1, #4]
.LVL623:
	ldr	r0, [r4]
.LVL624:
	bl	TIM_TI1_ConfigInputStage
.LVL625:
	.loc 1 5561 7
	movs	r1, #64
	ldr	r0, [r4]
	bl	TIM_ITRx_SetConfig
.LVL626:
	.loc 1 5562 7
	.loc 1 5448 21 is_stmt 0
	movs	r0, #0
	.loc 1 5562 7
	b	.L497
.LVL627:
.L513:
	.loc 1 5465 3
	bhi	.L505
	cmp	r3, #32
	beq	.L498
	bls	.L514
	cmp	r3, #48
	beq	.L498
	.loc 1 5583 14
	movs	r0, #1
	b	.L497
.L514:
	.loc 1 5465 3
	cbz	r3, .L498
	cmp	r3, #16
	bne	.L515
.LVL628:
.L498:
	.loc 1 5576 7 is_stmt 1
	.loc 1 5578 7
	mov	r1, r3
.LVL629:
	ldr	r0, [r4]
.LVL630:
	bl	TIM_ITRx_SetConfig
.LVL631:
	.loc 1 5579 7
	.loc 1 5448 21 is_stmt 0
	movs	r0, #0
	.loc 1 5579 7
	b	.L497
.LVL632:
.L515:
	.loc 1 5583 14
	movs	r0, #1
	b	.L497
.L512:
	movs	r0, #1
	b	.L497
.L493:
	.loc 1 5465 3
	cmp	r3, #8192
	beq	.L501
	bls	.L516
	ldr	r2, .L518+4
.LVL633:
	cmp	r3, r2
	beq	.L498
	bls	.L517
	ldr	r2, .L518+8
	cmp	r3, r2
	beq	.L498
	adds	r2, r2, #16
	cmp	r3, r2
	beq	.L498
	.loc 1 5583 14
	movs	r0, #1
.LVL634:
	b	.L497
.LVL635:
.L516:
	.loc 1 5465 3
	cmp	r3, #4096
	bne	.L506
	movs	r0, #0
.LVL636:
.L497:
	.loc 1 5586 3 is_stmt 1
	.loc 1 5586 15 is_stmt 0
	movs	r3, #1
	strb	r3, [r4, #61]
	.loc 1 5588 3 is_stmt 1
	.loc 1 5588 7
	.loc 1 5588 20 is_stmt 0
	movs	r3, #0
	strb	r3, [r4, #60]
	.loc 1 5588 5 is_stmt 1
	.loc 1 5590 3
	.loc 1 5591 1 is_stmt 0
	pop	{r4, pc}
.LVL637:
.L517:
	.loc 1 5465 3
	cmp	r3, #1048576
	beq	.L498
	cmp	r3, #1048592
	beq	.L498
	.loc 1 5583 14
	movs	r0, #1
.LVL638:
	b	.L497
.LVL639:
.L492:
	.loc 1 5476 7 is_stmt 1
	.loc 1 5479 7
	.loc 1 5480 7
	.loc 1 5481 7
	.loc 1 5484 7
	ldr	r3, [r1, #12]
	ldr	r2, [r1, #4]
.LVL640:
	ldr	r1, [r1, #8]
.LVL641:
	ldr	r0, [r4]
.LVL642:
	bl	TIM_ETR_SetConfig
.LVL643:
	.loc 1 5490 7
	.loc 1 5490 21 is_stmt 0
	ldr	r2, [r4]
	.loc 1 5490 15
	ldr	r3, [r2, #8]
.LVL644:
	.loc 1 5491 7 is_stmt 1
	.loc 1 5491 15 is_stmt 0
	orr	r3, r3, #119
.LVL645:
	.loc 1 5493 7 is_stmt 1
	.loc 1 5493 28 is_stmt 0
	str	r3, [r2, #8]
	.loc 1 5494 7 is_stmt 1
	.loc 1 5448 21 is_stmt 0
	movs	r0, #0
	.loc 1 5494 7
	b	.L497
.LVL646:
.L501:
	.loc 1 5500 7 is_stmt 1
	.loc 1 5503 7
	.loc 1 5504 7
	.loc 1 5505 7
	.loc 1 5508 7
	ldr	r3, [r1, #12]
	ldr	r2, [r1, #4]
.LVL647:
	ldr	r1, [r1, #8]
.LVL648:
	ldr	r0, [r4]
.LVL649:
	bl	TIM_ETR_SetConfig
.LVL650:
	.loc 1 5513 7
	.loc 1 5513 11 is_stmt 0
	ldr	r2, [r4]
	.loc 1 5513 21
	ldr	r3, [r2, #8]
	.loc 1 5513 28
	orr	r3, r3, #16384
	str	r3, [r2, #8]
	.loc 1 5514 7 is_stmt 1
	.loc 1 5448 21 is_stmt 0
	movs	r0, #0
	.loc 1 5514 7
	b	.L497
.LVL651:
.L494:
	.loc 1 5520 7 is_stmt 1
	.loc 1 5523 7
	.loc 1 5524 7
	.loc 1 5526 7
	ldr	r2, [r1, #12]
.LVL652:
	ldr	r1, [r1, #4]
.LVL653:
	ldr	r0, [r4]
.LVL654:
	bl	TIM_TI1_ConfigInputStage
.LVL655:
	.loc 1 5529 7
	movs	r1, #80
	ldr	r0, [r4]
	bl	TIM_ITRx_SetConfig
.LVL656:
	.loc 1 5530 7
	.loc 1 5448 21 is_stmt 0
	movs	r0, #0
	.loc 1 5530 7
	b	.L497
.LVL657:
.L505:
	.loc 1 5583 14
	movs	r0, #1
	b	.L497
.L506:
	movs	r0, #1
	b	.L497
.LVL658:
.L504:
	.cfi_def_cfa_offset 0
	.cfi_restore 4
	.cfi_restore 14
	.loc 1 5452 47
	movs	r0, #2
.LVL659:
	.loc 1 5591 1
	bx	lr
.L519:
	.align	2
.L518:
	.word	-3276664
	.word	1048608
	.word	1048624
	.cfi_endproc
.LFE406:
	.size	HAL_TIM_ConfigClockSource, .-HAL_TIM_ConfigClockSource
	.section	.text.TIM_SlaveTimer_SetConfig,"ax",%progbits
	.align	1
	.syntax unified
	.thumb
	.thumb_func
	.type	TIM_SlaveTimer_SetConfig, %function
TIM_SlaveTimer_SetConfig:
.LFB446:
	.loc 1 7389 1 is_stmt 1
	.cfi_startproc
	@ args = 0, pretend = 0, frame = 0
	@ frame_needed = 0, uses_anonymous_args = 0
.LVL660:
	push	{r4, lr}
	.cfi_def_cfa_offset 8
	.cfi_offset 4, -8
	.cfi_offset 14, -4
	.loc 1 7390 3
.LVL661:
	.loc 1 7391 3
	.loc 1 7392 3
	.loc 1 7393 3
	.loc 1 7396 3
	.loc 1 7396 17 is_stmt 0
	ldr	r4, [r0]
	.loc 1 7396 11
	ldr	r3, [r4, #8]
.LVL662:
	.loc 1 7399 3 is_stmt 1
	.loc 1 7399 11 is_stmt 0
	ldr	r2, .L557
	ands	r2, r2, r3
.LVL663:
	.loc 1 7401 3 is_stmt 1
	.loc 1 7401 26 is_stmt 0
	ldr	r3, [r1, #4]
	.loc 1 7401 11
	orrs	r3, r3, r2
.LVL664:
	.loc 1 7404 3 is_stmt 1
	.loc 1 7404 11 is_stmt 0
	ldr	r2, .L557+4
	ands	r2, r2, r3
.LVL665:
	.loc 1 7406 3 is_stmt 1
	.loc 1 7406 26 is_stmt 0
	ldr	r3, [r1]
	.loc 1 7406 11
	orrs	r3, r3, r2
.LVL666:
	.loc 1 7409 3 is_stmt 1
	.loc 1 7409 24 is_stmt 0
	str	r3, [r4, #8]
	.loc 1 7412 3 is_stmt 1
	.loc 1 7412 23 is_stmt 0
	ldr	r3, [r1, #4]
.LVL667:
	.loc 1 7412 3
	cmp	r3, #96
	beq	.L521
	bhi	.L522
	cmp	r3, #64
	beq	.L523
	bls	.L549
	cmp	r3, #80
	bne	.L550
	.loc 1 7458 7 is_stmt 1
	.loc 1 7459 7
	.loc 1 7460 7
	.loc 1 7463 7
	ldr	r2, [r1, #16]
	ldr	r1, [r1, #8]
.LVL668:
	ldr	r0, [r0]
.LVL669:
	bl	TIM_TI1_ConfigInputStage
.LVL670:
	.loc 1 7466 7
	.loc 1 7390 21 is_stmt 0
	movs	r0, #0
	.loc 1 7466 7
	b	.L525
.LVL671:
.L549:
	.loc 1 7412 3
	cmp	r3, #32
	beq	.L532
	bls	.L551
	cmp	r3, #48
	beq	.L552
	.loc 1 7504 14
	movs	r0, #1
.LVL672:
	b	.L525
.LVL673:
.L551:
	.loc 1 7412 3
	cmp	r3, #0
	beq	.L533
	cmp	r3, #16
	bne	.L534
	movs	r0, #0
.LVL674:
	b	.L525
.LVL675:
.L552:
	movs	r0, #0
.LVL676:
	b	.L525
.LVL677:
.L550:
	.loc 1 7504 14
	movs	r0, #1
.LVL678:
	b	.L525
.LVL679:
.L522:
	.loc 1 7412 3
	cmp	r3, #112
	beq	.L528
	bcs	.L553
	.loc 1 7504 14
	movs	r0, #1
.LVL680:
	b	.L525
.LVL681:
.L553:
	.loc 1 7412 3
	ldr	r2, .L557+8
	cmp	r3, r2
	beq	.L537
	bls	.L554
	cmp	r3, #2097152
	beq	.L543
	bls	.L555
	ldr	r2, .L557+12
	cmp	r3, r2
	bne	.L546
	movs	r0, #0
.LVL682:
	b	.L525
.LVL683:
.L554:
	subs	r2, r2, #48
	cmp	r3, r2
	beq	.L538
	bls	.L556
	ldr	r2, .L557+16
	cmp	r3, r2
	beq	.L541
	adds	r2, r2, #16
	cmp	r3, r2
	bne	.L542
	movs	r0, #0
.LVL684:
	b	.L525
.LVL685:
.L556:
	cmp	r3, #1048576
	beq	.L539
	cmp	r3, #1048592
	bne	.L540
	movs	r0, #0
.LVL686:
.L525:
	.loc 1 7509 1
	pop	{r4, pc}
.LVL687:
.L555:
	.loc 1 7412 3
	ldr	r2, .L557+20
	cmp	r3, r2
	beq	.L544
	adds	r2, r2, #16
	cmp	r3, r2
	bne	.L545
	movs	r0, #0
.LVL688:
	b	.L525
.LVL689:
.L528:
	.loc 1 7417 7 is_stmt 1
	.loc 1 7418 7
	.loc 1 7419 7
	.loc 1 7420 7
	.loc 1 7422 7
	ldr	r3, [r1, #16]
	ldr	r2, [r1, #8]
	ldr	r1, [r1, #12]
.LVL690:
	ldr	r0, [r0]
.LVL691:
	bl	TIM_ETR_SetConfig
.LVL692:
	.loc 1 7426 7
	.loc 1 7390 21 is_stmt 0
	movs	r0, #0
	.loc 1 7426 7
	b	.L525
.LVL693:
.L523:
	.loc 1 7432 7 is_stmt 1
	.loc 1 7433 7
	.loc 1 7435 7
	.loc 1 7435 23 is_stmt 0
	ldr	r3, [r1]
	.loc 1 7435 10
	cmp	r3, #5
	beq	.L547
	.loc 1 7441 7 is_stmt 1
	.loc 1 7441 21 is_stmt 0
	ldr	r3, [r0]
	.loc 1 7441 15
	ldr	r4, [r3, #32]
.LVL694:
	.loc 1 7442 7 is_stmt 1
	.loc 1 7442 21 is_stmt 0
	ldr	r2, [r3, #32]
	.loc 1 7442 28
	bic	r2, r2, #1
	str	r2, [r3, #32]
	.loc 1 7443 7 is_stmt 1
	.loc 1 7443 22 is_stmt 0
	ldr	r2, [r0]
	.loc 1 7443 16
	ldr	r3, [r2, #24]
.LVL695:
	.loc 1 7446 7 is_stmt 1
	.loc 1 7446 16 is_stmt 0
	bic	r3, r3, #240
.LVL696:
	.loc 1 7447 7 is_stmt 1
	.loc 1 7447 33 is_stmt 0
	ldr	r1, [r1, #16]
.LVL697:
	.loc 1 7447 16
	orr	r3, r3, r1, lsl #4
.LVL698:
	.loc 1 7450 7 is_stmt 1
	.loc 1 7450 29 is_stmt 0
	str	r3, [r2, #24]
	.loc 1 7451 7 is_stmt 1
	.loc 1 7451 11 is_stmt 0
	ldr	r3, [r0]
.LVL699:
	.loc 1 7451 28
	str	r4, [r3, #32]
.LVL700:
	.loc 1 7452 7 is_stmt 1
	.loc 1 7390 21 is_stmt 0
	movs	r0, #0
.LVL701:
	.loc 1 7452 7
	b	.L525
.LVL702:
.L521:
	.loc 1 7472 7 is_stmt 1
	.loc 1 7473 7
	.loc 1 7474 7
	.loc 1 7477 7
	ldr	r2, [r1, #16]
	ldr	r1, [r1, #8]
.LVL703:
	ldr	r0, [r0]
.LVL704:
	bl	TIM_TI2_ConfigInputStage
.LVL705:
	.loc 1 7480 7
	.loc 1 7390 21 is_stmt 0
	movs	r0, #0
	.loc 1 7480 7
	b	.L525
.LVL706:
.L532:
	.loc 1 7412 3
	movs	r0, #0
.LVL707:
	b	.L525
.LVL708:
.L533:
	movs	r0, #0
.LVL709:
	b	.L525
.LVL710:
.L534:
	.loc 1 7504 14
	movs	r0, #1
.LVL711:
	b	.L525
.LVL712:
.L537:
	.loc 1 7412 3
	movs	r0, #0
.LVL713:
	b	.L525
.LVL714:
.L538:
	movs	r0, #0
.LVL715:
	b	.L525
.LVL716:
.L539:
	movs	r0, #0
.LVL717:
	b	.L525
.LVL718:
.L540:
	.loc 1 7504 14
	movs	r0, #1
.LVL719:
	b	.L525
.LVL720:
.L541:
	.loc 1 7412 3
	movs	r0, #0
.LVL721:
	b	.L525
.LVL722:
.L542:
	.loc 1 7504 14
	movs	r0, #1
.LVL723:
	b	.L525
.LVL724:
.L543:
	.loc 1 7412 3
	movs	r0, #0
.LVL725:
	b	.L525
.LVL726:
.L544:
	movs	r0, #0
.LVL727:
	b	.L525
.LVL728:
.L545:
	.loc 1 7504 14
	movs	r0, #1
.LVL729:
	b	.L525
.LVL730:
.L546:
	movs	r0, #1
.LVL731:
	b	.L525
.LVL732:
.L547:
	.loc 1 7437 16
	movs	r0, #1
.LVL733:
	b	.L525
.L558:
	.align	2
.L557:
	.word	-3145841
	.word	-65544
	.word	1048656
	.word	2097168
	.word	1048624
	.word	1048672
	.cfi_endproc
.LFE446:
	.size	TIM_SlaveTimer_SetConfig, .-TIM_SlaveTimer_SetConfig
	.section	.text.HAL_TIM_SlaveConfigSynchro,"ax",%progbits
	.align	1
	.global	HAL_TIM_SlaveConfigSynchro
	.syntax unified
	.thumb
	.thumb_func
	.type	HAL_TIM_SlaveConfigSynchro, %function
HAL_TIM_SlaveConfigSynchro:
.LFB408:
	.loc 1 5638 1 is_stmt 1
	.cfi_startproc
	@ args = 0, pretend = 0, frame = 0
	@ frame_needed = 0, uses_anonymous_args = 0
.LVL734:
	.loc 1 5640 3
	.loc 1 5641 3
	.loc 1 5642 3
	.loc 1 5644 3
	.loc 1 5644 7
	.loc 1 5644 16 is_stmt 0
	ldrb	r3, [r0, #60]	@ zero_extendqisi2
	.loc 1 5644 9
	cmp	r3, #1
	beq	.L562
	.loc 1 5638 1 discriminator 2
	push	{r4, lr}
	.cfi_def_cfa_offset 8
	.cfi_offset 4, -8
	.cfi_offset 14, -4
	mov	r4, r0
	.loc 1 5644 66 is_stmt 1 discriminator 2
	.loc 1 5644 79 is_stmt 0 discriminator 2
	movs	r3, #1
	strb	r3, [r0, #60]
	.loc 1 5644 5 is_stmt 1 discriminator 2
	.loc 1 5646 3 discriminator 2
	.loc 1 5646 15 is_stmt 0 discriminator 2
	movs	r3, #2
	strb	r3, [r0, #61]
	.loc 1 5648 3 is_stmt 1 discriminator 2
	.loc 1 5648 7 is_stmt 0 discriminator 2
	bl	TIM_SlaveTimer_SetConfig
.LVL735:
	.loc 1 5648 6 discriminator 2
	cbnz	r0, .L567
	.loc 1 5656 3 is_stmt 1
	.loc 1 5656 10 is_stmt 0
	ldr	r2, [r4]
	.loc 1 5656 20
	ldr	r3, [r2, #12]
	.loc 1 5656 27
	bic	r3, r3, #64
	str	r3, [r2, #12]
	.loc 1 5659 3 is_stmt 1
	.loc 1 5659 10 is_stmt 0
	ldr	r2, [r4]
	.loc 1 5659 20
	ldr	r3, [r2, #12]
	.loc 1 5659 27
	bic	r3, r3, #16384
	str	r3, [r2, #12]
	.loc 1 5661 3 is_stmt 1
	.loc 1 5661 15 is_stmt 0
	movs	r3, #1
	strb	r3, [r4, #61]
	.loc 1 5663 3 is_stmt 1
	.loc 1 5663 7
	.loc 1 5663 20 is_stmt 0
	movs	r3, #0
	strb	r3, [r4, #60]
	.loc 1 5663 5 is_stmt 1
	.loc 1 5665 3
.L560:
	.loc 1 5666 1 is_stmt 0
	pop	{r4, pc}
.LVL736:
.L567:
	.loc 1 5650 5 is_stmt 1
	.loc 1 5650 17 is_stmt 0
	movs	r0, #1
	strb	r0, [r4, #61]
	.loc 1 5651 5 is_stmt 1
	.loc 1 5651 9
	.loc 1 5651 22 is_stmt 0
	movs	r3, #0
	strb	r3, [r4, #60]
	.loc 1 5651 7 is_stmt 1
	.loc 1 5652 5
	.loc 1 5652 12 is_stmt 0
	b	.L560
.LVL737:
.L562:
	.cfi_def_cfa_offset 0
	.cfi_restore 4
	.cfi_restore 14
	.loc 1 5644 47
	movs	r0, #2
.LVL738:
	.loc 1 5666 1
	bx	lr
	.cfi_endproc
.LFE408:
	.size	HAL_TIM_SlaveConfigSynchro, .-HAL_TIM_SlaveConfigSynchro
	.section	.text.HAL_TIM_SlaveConfigSynchro_IT,"ax",%progbits
	.align	1
	.global	HAL_TIM_SlaveConfigSynchro_IT
	.syntax unified
	.thumb
	.thumb_func
	.type	HAL_TIM_SlaveConfigSynchro_IT, %function
HAL_TIM_SlaveConfigSynchro_IT:
.LFB409:
	.loc 1 5679 1 is_stmt 1
	.cfi_startproc
	@ args = 0, pretend = 0, frame = 0
	@ frame_needed = 0, uses_anonymous_args = 0
.LVL739:
	.loc 1 5681 3
	.loc 1 5682 3
	.loc 1 5683 3
	.loc 1 5685 3
	.loc 1 5685 7
	.loc 1 5685 16 is_stmt 0
	ldrb	r3, [r0, #60]	@ zero_extendqisi2
	.loc 1 5685 9
	cmp	r3, #1
	beq	.L571
	.loc 1 5679 1 discriminator 2
	push	{r4, lr}
	.cfi_def_cfa_offset 8
	.cfi_offset 4, -8
	.cfi_offset 14, -4
	mov	r4, r0
	.loc 1 5685 66 is_stmt 1 discriminator 2
	.loc 1 5685 79 is_stmt 0 discriminator 2
	movs	r3, #1
	strb	r3, [r0, #60]
	.loc 1 5685 5 is_stmt 1 discriminator 2
	.loc 1 5687 3 discriminator 2
	.loc 1 5687 15 is_stmt 0 discriminator 2
	movs	r3, #2
	strb	r3, [r0, #61]
	.loc 1 5689 3 is_stmt 1 discriminator 2
	.loc 1 5689 7 is_stmt 0 discriminator 2
	bl	TIM_SlaveTimer_SetConfig
.LVL740:
	.loc 1 5689 6 discriminator 2
	cbnz	r0, .L576
	.loc 1 5697 3 is_stmt 1
	.loc 1 5697 10 is_stmt 0
	ldr	r2, [r4]
	.loc 1 5697 20
	ldr	r3, [r2, #12]
	.loc 1 5697 27
	orr	r3, r3, #64
	str	r3, [r2, #12]
	.loc 1 5700 3 is_stmt 1
	.loc 1 5700 10 is_stmt 0
	ldr	r2, [r4]
	.loc 1 5700 20
	ldr	r3, [r2, #12]
	.loc 1 5700 27
	bic	r3, r3, #16384
	str	r3, [r2, #12]
	.loc 1 5702 3 is_stmt 1
	.loc 1 5702 15 is_stmt 0
	movs	r3, #1
	strb	r3, [r4, #61]
	.loc 1 5704 3 is_stmt 1
	.loc 1 5704 7
	.loc 1 5704 20 is_stmt 0
	movs	r3, #0
	strb	r3, [r4, #60]
	.loc 1 5704 5 is_stmt 1
	.loc 1 5706 3
.L569:
	.loc 1 5707 1 is_stmt 0
	pop	{r4, pc}
.LVL741:
.L576:
	.loc 1 5691 5 is_stmt 1
	.loc 1 5691 17 is_stmt 0
	movs	r0, #1
	strb	r0, [r4, #61]
	.loc 1 5692 5 is_stmt 1
	.loc 1 5692 9
	.loc 1 5692 22 is_stmt 0
	movs	r3, #0
	strb	r3, [r4, #60]
	.loc 1 5692 7 is_stmt 1
	.loc 1 5693 5
	.loc 1 5693 12 is_stmt 0
	b	.L569
.LVL742:
.L571:
	.cfi_def_cfa_offset 0
	.cfi_restore 4
	.cfi_restore 14
	.loc 1 5685 47
	movs	r0, #2
.LVL743:
	.loc 1 5707 1
	bx	lr
	.cfi_endproc
.LFE409:
	.size	HAL_TIM_SlaveConfigSynchro_IT, .-HAL_TIM_SlaveConfigSynchro_IT
	.section	.text.TIM_CCxChannelCmd,"ax",%progbits
	.align	1
	.global	TIM_CCxChannelCmd
	.syntax unified
	.thumb
	.thumb_func
	.type	TIM_CCxChannelCmd, %function
TIM_CCxChannelCmd:
.LFB455:
	.loc 1 7871 1 is_stmt 1
	.cfi_startproc
	@ args = 0, pretend = 0, frame = 0
	@ frame_needed = 0, uses_anonymous_args = 0
	@ link register save eliminated.
.LVL744:
	.loc 1 7872 3
	.loc 1 7875 3
	.loc 1 7876 3
	.loc 1 7878 3
	.loc 1 7878 37 is_stmt 0
	and	r1, r1, #31
.LVL745:
	.loc 1 7878 7
	mov	ip, #1
	lsl	ip, ip, r1
.LVL746:
	.loc 1 7881 3 is_stmt 1
	.loc 1 7881 7 is_stmt 0
	ldr	r3, [r0, #32]
	.loc 1 7881 14
	bic	r3, r3, ip
	str	r3, [r0, #32]
	.loc 1 7884 3 is_stmt 1
	.loc 1 7884 7 is_stmt 0
	ldr	r3, [r0, #32]
	.loc 1 7884 41
	lsls	r2, r2, r1
.LVL747:
	.loc 1 7884 14
	orrs	r3, r3, r2
	str	r3, [r0, #32]
	.loc 1 7885 1
	bx	lr
	.cfi_endproc
.LFE455:
	.size	TIM_CCxChannelCmd, .-TIM_CCxChannelCmd
	.section	.text.HAL_TIM_OC_Start,"ax",%progbits
	.align	1
	.global	HAL_TIM_OC_Start
	.syntax unified
	.thumb
	.thumb_func
	.type	HAL_TIM_OC_Start, %function
HAL_TIM_OC_Start:
.LFB349:
	.loc 1 795 1 is_stmt 1
	.cfi_startproc
	@ args = 0, pretend = 0, frame = 0
	@ frame_needed = 0, uses_anonymous_args = 0
.LVL748:
	push	{r4, lr}
	.cfi_def_cfa_offset 8
	.cfi_offset 4, -8
	.cfi_offset 14, -4
	mov	r4, r0
	.loc 1 796 3
	.loc 1 799 3
	.loc 1 802 3
	cmp	r1, #16
	bhi	.L579
	tbb	[pc, r1]
.L581:
	.byte	(.L585-.L581)/2
	.byte	(.L579-.L581)/2
	.byte	(.L579-.L581)/2
	.byte	(.L579-.L581)/2
	.byte	(.L584-.L581)/2
	.byte	(.L579-.L581)/2
	.byte	(.L579-.L581)/2
	.byte	(.L579-.L581)/2
	.byte	(.L583-.L581)/2
	.byte	(.L579-.L581)/2
	.byte	(.L579-.L581)/2
	.byte	(.L579-.L581)/2
	.byte	(.L582-.L581)/2
	.byte	(.L579-.L581)/2
	.byte	(.L579-.L581)/2
	.byte	(.L579-.L581)/2
	.byte	(.L580-.L581)/2
	.p2align 1
.L585:
	.loc 1 802 57 is_stmt 0 discriminator 1
	ldrb	r3, [r0, #62]	@ zero_extendqisi2
	uxtb	r3, r3
	.loc 1 802 308 discriminator 1
	subs	r3, r3, #1
	it	ne
	movne	r3, #1
.L586:
	.loc 1 802 6 discriminator 20
	cmp	r3, #0
	bne	.L600
	.loc 1 808 3 is_stmt 1
	cmp	r1, #16
	bhi	.L588
	tbb	[pc, r1]
.L590:
	.byte	(.L594-.L590)/2
	.byte	(.L588-.L590)/2
	.byte	(.L588-.L590)/2
	.byte	(.L588-.L590)/2
	.byte	(.L593-.L590)/2
	.byte	(.L588-.L590)/2
	.byte	(.L588-.L590)/2
	.byte	(.L588-.L590)/2
	.byte	(.L592-.L590)/2
	.byte	(.L588-.L590)/2
	.byte	(.L588-.L590)/2
	.byte	(.L588-.L590)/2
	.byte	(.L591-.L590)/2
	.byte	(.L588-.L590)/2
	.byte	(.L588-.L590)/2
	.byte	(.L588-.L590)/2
	.byte	(.L589-.L590)/2
	.p2align 1
.L584:
	.loc 1 802 112 is_stmt 0 discriminator 4
	ldrb	r3, [r0, #63]	@ zero_extendqisi2
	uxtb	r3, r3
	.loc 1 802 308 discriminator 4
	subs	r3, r3, #1
	it	ne
	movne	r3, #1
	b	.L586
.L583:
	.loc 1 802 167 discriminator 7
	ldrb	r3, [r0, #64]	@ zero_extendqisi2
	uxtb	r3, r3
	.loc 1 802 308 discriminator 7
	subs	r3, r3, #1
	it	ne
	movne	r3, #1
	b	.L586
.L582:
	.loc 1 802 222 discriminator 10
	ldrb	r3, [r0, #65]	@ zero_extendqisi2
	uxtb	r3, r3
	.loc 1 802 308 discriminator 10
	subs	r3, r3, #1
	it	ne
	movne	r3, #1
	b	.L586
.L580:
	.loc 1 802 277 discriminator 13
	ldrb	r3, [r0, #66]	@ zero_extendqisi2
	uxtb	r3, r3
	.loc 1 802 308 discriminator 13
	subs	r3, r3, #1
	it	ne
	movne	r3, #1
	b	.L586
.L579:
	.loc 1 802 303 discriminator 14
	ldrb	r3, [r0, #67]	@ zero_extendqisi2
	uxtb	r3, r3
	.loc 1 802 308 discriminator 14
	subs	r3, r3, #1
	it	ne
	movne	r3, #1
	b	.L586
.L594:
	.loc 1 808 58 discriminator 1
	movs	r3, #2
	strb	r3, [r4, #62]
.L595:
	.loc 1 811 3 is_stmt 1
	movs	r2, #1
	ldr	r0, [r4]
.LVL749:
	bl	TIM_CCxChannelCmd
.LVL750:
	.loc 1 813 3
	.loc 1 813 14 is_stmt 0
	ldr	r3, [r4]
	.loc 1 813 357
	ldr	r1, .L603
	ldr	r2, .L603+4
	cmp	r3, r2
	it	ne
	cmpne	r3, r1
	beq	.L596
	.loc 1 813 181 discriminator 2
	add	r2, r2, #15360
	cmp	r3, r2
	beq	.L596
	.loc 1 813 269 discriminator 4
	add	r2, r2, #1024
	cmp	r3, r2
	beq	.L596
	.loc 1 813 357 discriminator 6
	add	r2, r2, #1024
	cmp	r3, r2
	bne	.L597
.L596:
	.loc 1 816 5 is_stmt 1
	.loc 1 816 22 is_stmt 0
	ldr	r2, [r3, #68]
	.loc 1 816 28
	orr	r2, r2, #32768
	str	r2, [r3, #68]
.L597:
	.loc 1 820 3 is_stmt 1
	.loc 1 820 14 is_stmt 0
	ldr	r3, [r4]
	.loc 1 820 6
	ldr	r2, .L603
	cmp	r3, #1073741824
	it	ne
	cmpne	r3, r2
	beq	.L598
	.loc 1 820 164 discriminator 1
	sub	r2, r2, #64512
	cmp	r3, r2
	beq	.L598
	.loc 1 820 235 discriminator 2
	add	r2, r2, #1024
	cmp	r3, r2
	beq	.L598
	.loc 1 820 306 discriminator 3
	add	r2, r2, #1024
	cmp	r3, r2
	beq	.L598
	.loc 1 820 377 discriminator 4
	add	r2, r2, #63488
	cmp	r3, r2
	beq	.L598
	.loc 1 820 465 discriminator 5
	sub	r2, r2, #60416
	cmp	r3, r2
	beq	.L598
	.loc 1 820 536 discriminator 6
	add	r2, r2, #75776
	cmp	r3, r2
	beq	.L598
	.loc 1 830 5 is_stmt 1
	.loc 1 830 22 is_stmt 0
	ldr	r2, [r3]
	.loc 1 830 27
	orr	r2, r2, #1
	str	r2, [r3]
	.loc 1 834 10
	movs	r0, #0
	b	.L587
.LVL751:
.L593:
	.loc 1 808 146 discriminator 3
	movs	r3, #2
	strb	r3, [r4, #63]
	b	.L595
.L592:
	.loc 1 808 234 discriminator 6
	movs	r3, #2
	strb	r3, [r4, #64]
	b	.L595
.L591:
	.loc 1 808 322 discriminator 9
	movs	r3, #2
	strb	r3, [r4, #65]
	b	.L595
.L589:
	.loc 1 808 410 discriminator 12
	movs	r3, #2
	strb	r3, [r4, #66]
	b	.L595
.L588:
	.loc 1 808 469 discriminator 13
	movs	r3, #2
	strb	r3, [r4, #67]
	b	.L595
.LVL752:
.L598:
	.loc 1 822 5 is_stmt 1
	.loc 1 822 29 is_stmt 0
	ldr	r1, [r3, #8]
	.loc 1 822 13
	ldr	r2, .L603+8
	ands	r2, r2, r1
.LVL753:
	.loc 1 823 5 is_stmt 1
	.loc 1 823 8 is_stmt 0
	cmp	r2, #6
	it	ne
	cmpne	r2, #65536
	beq	.L601
	.loc 1 825 7 is_stmt 1
	.loc 1 825 24 is_stmt 0
	ldr	r2, [r3]
.LVL754:
	.loc 1 825 29
	orr	r2, r2, #1
	str	r2, [r3]
	.loc 1 834 10
	movs	r0, #0
	b	.L587
.LVL755:
.L600:
	.loc 1 804 12
	movs	r0, #1
.LVL756:
.L587:
	.loc 1 835 1
	pop	{r4, pc}
.LVL757:
.L601:
	.loc 1 834 10
	movs	r0, #0
	b	.L587
.L604:
	.align	2
.L603:
	.word	1073807360
	.word	1073808384
	.word	65543
	.cfi_endproc
.LFE349:
	.size	HAL_TIM_OC_Start, .-HAL_TIM_OC_Start
	.section	.text.HAL_TIM_OC_Stop,"ax",%progbits
	.align	1
	.global	HAL_TIM_OC_Stop
	.syntax unified
	.thumb
	.thumb_func
	.type	HAL_TIM_OC_Stop, %function
HAL_TIM_OC_Stop:
.LFB350:
	.loc 1 851 1 is_stmt 1
	.cfi_startproc
	@ args = 0, pretend = 0, frame = 0
	@ frame_needed = 0, uses_anonymous_args = 0
.LVL758:
	push	{r3, r4, r5, lr}
	.cfi_def_cfa_offset 16
	.cfi_offset 3, -16
	.cfi_offset 4, -12
	.cfi_offset 5, -8
	.cfi_offset 14, -4
	mov	r4, r0
	mov	r5, r1
	.loc 1 853 3
	.loc 1 856 3
	movs	r2, #0
	ldr	r0, [r0]
.LVL759:
	bl	TIM_CCxChannelCmd
.LVL760:
	.loc 1 858 3
	.loc 1 858 14 is_stmt 0
	ldr	r3, [r4]
	.loc 1 858 357
	ldr	r1, .L618
	ldr	r2, .L618+4
	cmp	r3, r2
	it	ne
	cmpne	r3, r1
	beq	.L606
	.loc 1 858 181 discriminator 2
	add	r2, r2, #15360
	cmp	r3, r2
	beq	.L606
	.loc 1 858 269 discriminator 4
	add	r2, r2, #1024
	cmp	r3, r2
	beq	.L606
	.loc 1 858 357 discriminator 6
	add	r2, r2, #1024
	cmp	r3, r2
	bne	.L607
.L606:
	.loc 1 861 5 is_stmt 1
	.loc 1 861 10
	.loc 1 861 31 is_stmt 0
	ldr	r1, [r3, #32]
	.loc 1 861 13
	movw	r2, #4369
	tst	r1, r2
	bne	.L607
	.loc 1 861 136 is_stmt 1 discriminator 1
	.loc 1 861 156 is_stmt 0 discriminator 1
	ldr	r1, [r3, #32]
	.loc 1 861 138 discriminator 1
	movw	r2, #1092
	tst	r1, r2
	bne	.L607
	.loc 1 861 243 is_stmt 1 discriminator 3
	.loc 1 861 259 is_stmt 0 discriminator 3
	ldr	r2, [r3, #68]
	.loc 1 861 266 discriminator 3
	bic	r2, r2, #32768
	str	r2, [r3, #68]
.L607:
	.loc 1 861 8 is_stmt 1 discriminator 5
	.loc 1 865 3 discriminator 5
	.loc 1 865 8 discriminator 5
	.loc 1 865 19 is_stmt 0 discriminator 5
	ldr	r3, [r4]
	.loc 1 865 29 discriminator 5
	ldr	r1, [r3, #32]
	.loc 1 865 11 discriminator 5
	movw	r2, #4369
	tst	r1, r2
	bne	.L608
	.loc 1 865 134 is_stmt 1 discriminator 1
	.loc 1 865 154 is_stmt 0 discriminator 1
	ldr	r1, [r3, #32]
	.loc 1 865 136 discriminator 1
	movw	r2, #1092
	tst	r1, r2
	bne	.L608
	.loc 1 865 241 is_stmt 1 discriminator 3
	.loc 1 865 257 is_stmt 0 discriminator 3
	ldr	r2, [r3]
	.loc 1 865 263 discriminator 3
	bic	r2, r2, #1
	str	r2, [r3]
.L608:
	.loc 1 865 6 is_stmt 1 discriminator 5
	.loc 1 868 3 discriminator 5
	.loc 1 868 91 is_stmt 0 discriminator 5
	cbnz	r5, .L609
	.loc 1 868 58 discriminator 1
	movs	r3, #1
	strb	r3, [r4, #62]
.LVL761:
.L610:
	.loc 1 871 3 is_stmt 1
	.loc 1 872 1 is_stmt 0
	movs	r0, #0
	pop	{r3, r4, r5, pc}
.LVL762:
.L609:
	subs	r5, r5, #4
.LVL763:
	cmp	r5, #12
	bhi	.L611
	tbb	[pc, r5]
.L613:
	.byte	(.L616-.L613)/2
	.byte	(.L611-.L613)/2
	.byte	(.L611-.L613)/2
	.byte	(.L611-.L613)/2
	.byte	(.L615-.L613)/2
	.byte	(.L611-.L613)/2
	.byte	(.L611-.L613)/2
	.byte	(.L611-.L613)/2
	.byte	(.L614-.L613)/2
	.byte	(.L611-.L613)/2
	.byte	(.L611-.L613)/2
	.byte	(.L611-.L613)/2
	.byte	(.L612-.L613)/2
	.p2align 1
.L616:
	.loc 1 868 147 discriminator 3
	movs	r3, #1
	strb	r3, [r4, #63]
	b	.L610
.L615:
	.loc 1 868 236 discriminator 6
	movs	r3, #1
	strb	r3, [r4, #64]
	b	.L610
.L614:
	.loc 1 868 325 discriminator 9
	movs	r3, #1
	strb	r3, [r4, #65]
	b	.L610
.L612:
	.loc 1 868 414 discriminator 12
	movs	r3, #1
	strb	r3, [r4, #66]
	b	.L610
.L611:
	.loc 1 868 474 discriminator 13
	movs	r3, #1
	strb	r3, [r4, #67]
	b	.L610
.L619:
	.align	2
.L618:
	.word	1073807360
	.word	1073808384
	.cfi_endproc
.LFE350:
	.size	HAL_TIM_OC_Stop, .-HAL_TIM_OC_Stop
	.section	.text.HAL_TIM_OC_Start_IT,"ax",%progbits
	.align	1
	.global	HAL_TIM_OC_Start_IT
	.syntax unified
	.thumb
	.thumb_func
	.type	HAL_TIM_OC_Start_IT, %function
HAL_TIM_OC_Start_IT:
.LFB351:
	.loc 1 886 1 is_stmt 1
	.cfi_startproc
	@ args = 0, pretend = 0, frame = 0
	@ frame_needed = 0, uses_anonymous_args = 0
.LVL764:
	push	{r4, lr}
	.cfi_def_cfa_offset 8
	.cfi_offset 4, -8
	.cfi_offset 14, -4
	mov	r4, r0
	.loc 1 887 3
.LVL765:
	.loc 1 888 3
	.loc 1 891 3
	.loc 1 894 3
	cmp	r1, #16
	bhi	.L621
	tbb	[pc, r1]
.L623:
	.byte	(.L627-.L623)/2
	.byte	(.L621-.L623)/2
	.byte	(.L621-.L623)/2
	.byte	(.L621-.L623)/2
	.byte	(.L626-.L623)/2
	.byte	(.L621-.L623)/2
	.byte	(.L621-.L623)/2
	.byte	(.L621-.L623)/2
	.byte	(.L625-.L623)/2
	.byte	(.L621-.L623)/2
	.byte	(.L621-.L623)/2
	.byte	(.L621-.L623)/2
	.byte	(.L624-.L623)/2
	.byte	(.L621-.L623)/2
	.byte	(.L621-.L623)/2
	.byte	(.L621-.L623)/2
	.byte	(.L622-.L623)/2
	.p2align 1
.L627:
	.loc 1 894 57 is_stmt 0 discriminator 1
	ldrb	r3, [r0, #62]	@ zero_extendqisi2
	uxtb	r3, r3
	.loc 1 894 308 discriminator 1
	subs	r3, r3, #1
	it	ne
	movne	r3, #1
.L628:
	.loc 1 894 6 discriminator 20
	cmp	r3, #0
	bne	.L647
	.loc 1 900 3 is_stmt 1
	cmp	r1, #16
	bhi	.L630
	tbb	[pc, r1]
.L632:
	.byte	(.L636-.L632)/2
	.byte	(.L630-.L632)/2
	.byte	(.L630-.L632)/2
	.byte	(.L630-.L632)/2
	.byte	(.L635-.L632)/2
	.byte	(.L630-.L632)/2
	.byte	(.L630-.L632)/2
	.byte	(.L630-.L632)/2
	.byte	(.L634-.L632)/2
	.byte	(.L630-.L632)/2
	.byte	(.L630-.L632)/2
	.byte	(.L630-.L632)/2
	.byte	(.L633-.L632)/2
	.byte	(.L630-.L632)/2
	.byte	(.L630-.L632)/2
	.byte	(.L630-.L632)/2
	.byte	(.L631-.L632)/2
	.p2align 1
.L626:
	.loc 1 894 112 is_stmt 0 discriminator 4
	ldrb	r3, [r0, #63]	@ zero_extendqisi2
	uxtb	r3, r3
	.loc 1 894 308 discriminator 4
	subs	r3, r3, #1
	it	ne
	movne	r3, #1
	b	.L628
.L625:
	.loc 1 894 167 discriminator 7
	ldrb	r3, [r0, #64]	@ zero_extendqisi2
	uxtb	r3, r3
	.loc 1 894 308 discriminator 7
	subs	r3, r3, #1
	it	ne
	movne	r3, #1
	b	.L628
.L624:
	.loc 1 894 222 discriminator 10
	ldrb	r3, [r0, #65]	@ zero_extendqisi2
	uxtb	r3, r3
	.loc 1 894 308 discriminator 10
	subs	r3, r3, #1
	it	ne
	movne	r3, #1
	b	.L628
.L622:
	.loc 1 894 277 discriminator 13
	ldrb	r3, [r0, #66]	@ zero_extendqisi2
	uxtb	r3, r3
	.loc 1 894 308 discriminator 13
	subs	r3, r3, #1
	it	ne
	movne	r3, #1
	b	.L628
.L621:
	.loc 1 894 303 discriminator 14
	ldrb	r3, [r0, #67]	@ zero_extendqisi2
	uxtb	r3, r3
	.loc 1 894 308 discriminator 14
	subs	r3, r3, #1
	it	ne
	movne	r3, #1
	b	.L628
.L636:
	.loc 1 900 58
	movs	r3, #2
	strb	r3, [r4, #62]
	.loc 1 902 3 is_stmt 1
.L637:
	.loc 1 907 7
	.loc 1 907 14 is_stmt 0
	ldr	r2, [r4]
	.loc 1 907 24
	ldr	r3, [r2, #12]
	.loc 1 907 31
	orr	r3, r3, #2
	str	r3, [r2, #12]
	.loc 1 908 7 is_stmt 1
	.loc 1 937 3
.L642:
	.loc 1 940 5
	movs	r2, #1
	ldr	r0, [r4]
.LVL766:
	bl	TIM_CCxChannelCmd
.LVL767:
	.loc 1 942 5
	.loc 1 942 16 is_stmt 0
	ldr	r3, [r4]
	.loc 1 942 359
	ldr	r1, .L655
	ldr	r2, .L655+4
	cmp	r3, r2
	it	ne
	cmpne	r3, r1
	beq	.L643
	.loc 1 942 183 discriminator 2
	add	r2, r2, #15360
	cmp	r3, r2
	beq	.L643
	.loc 1 942 271 discriminator 4
	add	r2, r2, #1024
	cmp	r3, r2
	beq	.L643
	.loc 1 942 359 discriminator 6
	add	r2, r2, #1024
	cmp	r3, r2
	bne	.L644
.L643:
	.loc 1 945 7 is_stmt 1
	.loc 1 945 24 is_stmt 0
	ldr	r2, [r3, #68]
	.loc 1 945 30
	orr	r2, r2, #32768
	str	r2, [r3, #68]
.L644:
	.loc 1 949 5 is_stmt 1
	.loc 1 949 16 is_stmt 0
	ldr	r3, [r4]
	.loc 1 949 8
	ldr	r2, .L655
	cmp	r3, #1073741824
	it	ne
	cmpne	r3, r2
	beq	.L645
	.loc 1 949 166 discriminator 1
	sub	r2, r2, #64512
	cmp	r3, r2
	beq	.L645
	.loc 1 949 237 discriminator 2
	add	r2, r2, #1024
	cmp	r3, r2
	beq	.L645
	.loc 1 949 308 discriminator 3
	add	r2, r2, #1024
	cmp	r3, r2
	beq	.L645
	.loc 1 949 379 discriminator 4
	add	r2, r2, #63488
	cmp	r3, r2
	beq	.L645
	.loc 1 949 467 discriminator 5
	sub	r2, r2, #60416
	cmp	r3, r2
	beq	.L645
	.loc 1 949 538 discriminator 6
	add	r2, r2, #75776
	cmp	r3, r2
	beq	.L645
	.loc 1 959 7 is_stmt 1
	.loc 1 959 24 is_stmt 0
	ldr	r2, [r3]
	.loc 1 959 29
	orr	r2, r2, #1
	str	r2, [r3]
	movs	r0, #0
	b	.L629
.LVL768:
.L635:
	.loc 1 900 146
	movs	r3, #2
	strb	r3, [r4, #63]
	.loc 1 902 3 is_stmt 1
.L638:
	.loc 1 914 7
	.loc 1 914 14 is_stmt 0
	ldr	r2, [r4]
	.loc 1 914 24
	ldr	r3, [r2, #12]
	.loc 1 914 31
	orr	r3, r3, #4
	str	r3, [r2, #12]
	.loc 1 915 7 is_stmt 1
	.loc 1 937 3
	b	.L642
.L634:
	.loc 1 900 234 is_stmt 0
	movs	r3, #2
	strb	r3, [r4, #64]
	.loc 1 902 3 is_stmt 1
.L639:
	.loc 1 921 7
	.loc 1 921 14 is_stmt 0
	ldr	r2, [r4]
	.loc 1 921 24
	ldr	r3, [r2, #12]
	.loc 1 921 31
	orr	r3, r3, #8
	str	r3, [r2, #12]
	.loc 1 922 7 is_stmt 1
	.loc 1 937 3
	b	.L642
.L633:
	.loc 1 900 322 is_stmt 0
	movs	r3, #2
	strb	r3, [r4, #65]
	.loc 1 902 3 is_stmt 1
.L640:
	.loc 1 928 7
	.loc 1 928 14 is_stmt 0
	ldr	r2, [r4]
	.loc 1 928 24
	ldr	r3, [r2, #12]
	.loc 1 928 31
	orr	r3, r3, #16
	str	r3, [r2, #12]
	.loc 1 929 7 is_stmt 1
	.loc 1 937 3
	b	.L642
.L631:
	.loc 1 900 410 is_stmt 0
	movs	r3, #2
	strb	r3, [r4, #66]
	.loc 1 902 3 is_stmt 1
	.loc 1 900 410 is_stmt 0
	movs	r0, #1
.LVL769:
	b	.L629
.LVL770:
.L630:
	.loc 1 900 469 discriminator 13
	movs	r3, #2
	strb	r3, [r4, #67]
	.loc 1 902 3 is_stmt 1 discriminator 13
	cmp	r1, #12
	bhi	.L648
	adr	r3, .L641
	ldr	pc, [r3, r1, lsl #2]
	.p2align 2
.L641:
	.word	.L637+1
	.word	.L648+1
	.word	.L648+1
	.word	.L648+1
	.word	.L638+1
	.word	.L648+1
	.word	.L648+1
	.word	.L648+1
	.word	.L639+1
	.word	.L648+1
	.word	.L648+1
	.word	.L648+1
	.word	.L640+1
.LVL771:
	.p2align 1
.L645:
	.loc 1 951 7
	.loc 1 951 31 is_stmt 0
	ldr	r1, [r3, #8]
	.loc 1 951 15
	ldr	r2, .L655+8
	ands	r2, r2, r1
.LVL772:
	.loc 1 952 7 is_stmt 1
	.loc 1 952 10 is_stmt 0
	cmp	r2, #6
	it	ne
	cmpne	r2, #65536
	beq	.L649
	.loc 1 954 9 is_stmt 1
	.loc 1 954 26 is_stmt 0
	ldr	r2, [r3]
.LVL773:
	.loc 1 954 31
	orr	r2, r2, #1
	str	r2, [r3]
	movs	r0, #0
	b	.L629
.LVL774:
.L647:
	.loc 1 896 12
	movs	r0, #1
.LVL775:
.L629:
	.loc 1 965 1
	pop	{r4, pc}
.LVL776:
.L648:
	.loc 1 902 3
	movs	r0, #1
.LVL777:
	b	.L629
.LVL778:
.L649:
	movs	r0, #0
	b	.L629
.L656:
	.align	2
.L655:
	.word	1073807360
	.word	1073808384
	.word	65543
	.cfi_endproc
.LFE351:
	.size	HAL_TIM_OC_Start_IT, .-HAL_TIM_OC_Start_IT
	.section	.text.HAL_TIM_OC_Stop_IT,"ax",%progbits
	.align	1
	.global	HAL_TIM_OC_Stop_IT
	.syntax unified
	.thumb
	.thumb_func
	.type	HAL_TIM_OC_Stop_IT, %function
HAL_TIM_OC_Stop_IT:
.LFB352:
	.loc 1 979 1 is_stmt 1
	.cfi_startproc
	@ args = 0, pretend = 0, frame = 0
	@ frame_needed = 0, uses_anonymous_args = 0
.LVL779:
	push	{r3, r4, r5, lr}
	.cfi_def_cfa_offset 16
	.cfi_offset 3, -16
	.cfi_offset 4, -12
	.cfi_offset 5, -8
	.cfi_offset 14, -4
	mov	r5, r0
	mov	r4, r1
	.loc 1 980 3
.LVL780:
	.loc 1 983 3
	.loc 1 985 3
	cmp	r1, #12
	bhi	.L675
	tbb	[pc, r1]
.L660:
	.byte	(.L663-.L660)/2
	.byte	(.L675-.L660)/2
	.byte	(.L675-.L660)/2
	.byte	(.L675-.L660)/2
	.byte	(.L662-.L660)/2
	.byte	(.L675-.L660)/2
	.byte	(.L675-.L660)/2
	.byte	(.L675-.L660)/2
	.byte	(.L661-.L660)/2
	.byte	(.L675-.L660)/2
	.byte	(.L675-.L660)/2
	.byte	(.L675-.L660)/2
	.byte	(.L659-.L660)/2
	.p2align 1
.L663:
	.loc 1 990 7
	.loc 1 990 14 is_stmt 0
	ldr	r2, [r0]
	.loc 1 990 24
	ldr	r3, [r2, #12]
	.loc 1 990 31
	bic	r3, r3, #2
	str	r3, [r2, #12]
	.loc 1 991 7 is_stmt 1
	.loc 1 1020 3
.L664:
	.loc 1 1023 5
	movs	r2, #0
	mov	r1, r4
.LVL781:
	ldr	r0, [r5]
.LVL782:
	bl	TIM_CCxChannelCmd
.LVL783:
	.loc 1 1025 5
	.loc 1 1025 16 is_stmt 0
	ldr	r3, [r5]
	.loc 1 1025 359
	ldr	r1, .L677
	ldr	r2, .L677+4
	cmp	r3, r2
	it	ne
	cmpne	r3, r1
	beq	.L665
	.loc 1 1025 183 discriminator 2
	add	r2, r2, #15360
	cmp	r3, r2
	beq	.L665
	.loc 1 1025 271 discriminator 4
	add	r2, r2, #1024
	cmp	r3, r2
	beq	.L665
	.loc 1 1025 359 discriminator 6
	add	r2, r2, #1024
	cmp	r3, r2
	bne	.L666
.L665:
	.loc 1 1028 7 is_stmt 1
	.loc 1 1028 12
	.loc 1 1028 33 is_stmt 0
	ldr	r1, [r3, #32]
	.loc 1 1028 15
	movw	r2, #4369
	tst	r1, r2
	bne	.L666
	.loc 1 1028 138 is_stmt 1 discriminator 1
	.loc 1 1028 158 is_stmt 0 discriminator 1
	ldr	r1, [r3, #32]
	.loc 1 1028 140 discriminator 1
	movw	r2, #1092
	tst	r1, r2
	bne	.L666
	.loc 1 1028 245 is_stmt 1 discriminator 3
	.loc 1 1028 261 is_stmt 0 discriminator 3
	ldr	r2, [r3, #68]
	.loc 1 1028 268 discriminator 3
	bic	r2, r2, #32768
	str	r2, [r3, #68]
.L666:
	.loc 1 1028 10 is_stmt 1 discriminator 5
	.loc 1 1032 5 discriminator 5
	.loc 1 1032 10 discriminator 5
	.loc 1 1032 21 is_stmt 0 discriminator 5
	ldr	r3, [r5]
	.loc 1 1032 31 discriminator 5
	ldr	r1, [r3, #32]
	.loc 1 1032 13 discriminator 5
	movw	r2, #4369
	tst	r1, r2
	bne	.L667
	.loc 1 1032 136 is_stmt 1 discriminator 1
	.loc 1 1032 156 is_stmt 0 discriminator 1
	ldr	r1, [r3, #32]
	.loc 1 1032 138 discriminator 1
	movw	r2, #1092
	tst	r1, r2
	bne	.L667
	.loc 1 1032 243 is_stmt 1 discriminator 3
	.loc 1 1032 259 is_stmt 0 discriminator 3
	ldr	r2, [r3]
	.loc 1 1032 265 discriminator 3
	bic	r2, r2, #1
	str	r2, [r3]
.L667:
	.loc 1 1032 8 is_stmt 1 discriminator 5
	.loc 1 1035 5 discriminator 5
	.loc 1 1035 93 is_stmt 0 discriminator 5
	cbnz	r4, .L668
	.loc 1 1035 60 discriminator 1
	movs	r3, #1
	strb	r3, [r5, #62]
	movs	r0, #0
	b	.L658
.LVL784:
.L662:
	.loc 1 997 7 is_stmt 1
	.loc 1 997 14 is_stmt 0
	ldr	r2, [r0]
	.loc 1 997 24
	ldr	r3, [r2, #12]
	.loc 1 997 31
	bic	r3, r3, #4
	str	r3, [r2, #12]
	.loc 1 998 7 is_stmt 1
	.loc 1 1020 3
	b	.L664
.L661:
	.loc 1 1004 7
	.loc 1 1004 14 is_stmt 0
	ldr	r2, [r0]
	.loc 1 1004 24
	ldr	r3, [r2, #12]
	.loc 1 1004 31
	bic	r3, r3, #8
	str	r3, [r2, #12]
	.loc 1 1005 7 is_stmt 1
	.loc 1 1020 3
	b	.L664
.L659:
	.loc 1 1011 7
	.loc 1 1011 14 is_stmt 0
	ldr	r2, [r0]
	.loc 1 1011 24
	ldr	r3, [r2, #12]
	.loc 1 1011 31
	bic	r3, r3, #16
	str	r3, [r2, #12]
	.loc 1 1012 7 is_stmt 1
	.loc 1 1020 3
	b	.L664
.LVL785:
.L668:
	subs	r4, r4, #4
.LVL786:
	cmp	r4, #12
	bhi	.L669
	tbb	[pc, r4]
.L671:
	.byte	(.L674-.L671)/2
	.byte	(.L669-.L671)/2
	.byte	(.L669-.L671)/2
	.byte	(.L669-.L671)/2
	.byte	(.L673-.L671)/2
	.byte	(.L669-.L671)/2
	.byte	(.L669-.L671)/2
	.byte	(.L669-.L671)/2
	.byte	(.L672-.L671)/2
	.byte	(.L669-.L671)/2
	.byte	(.L669-.L671)/2
	.byte	(.L669-.L671)/2
	.byte	(.L670-.L671)/2
	.p2align 1
.L674:
	.loc 1 1035 149 is_stmt 0 discriminator 3
	movs	r3, #1
	strb	r3, [r5, #63]
	movs	r0, #0
	b	.L658
.L673:
	.loc 1 1035 238 discriminator 6
	movs	r3, #1
	strb	r3, [r5, #64]
	movs	r0, #0
	b	.L658
.L672:
	.loc 1 1035 327 discriminator 9
	movs	r3, #1
	strb	r3, [r5, #65]
	movs	r0, #0
	b	.L658
.L670:
	.loc 1 1035 416 discriminator 12
	movs	r3, #1
	strb	r3, [r5, #66]
	movs	r0, #0
	b	.L658
.L669:
	.loc 1 1035 476 discriminator 13
	movs	r3, #1
	strb	r3, [r5, #67]
	movs	r0, #0
	b	.L658
.LVL787:
.L675:
	.loc 1 985 3
	movs	r0, #1
.LVL788:
.L658:
	.loc 1 1039 3 is_stmt 1
	.loc 1 1040 1 is_stmt 0
	pop	{r3, r4, r5, pc}
.LVL789:
.L678:
	.align	2
.L677:
	.word	1073807360
	.word	1073808384
	.cfi_endproc
.LFE352:
	.size	HAL_TIM_OC_Stop_IT, .-HAL_TIM_OC_Stop_IT
	.section	.text.HAL_TIM_OC_Start_DMA,"ax",%progbits
	.align	1
	.global	HAL_TIM_OC_Start_DMA
	.syntax unified
	.thumb
	.thumb_func
	.type	HAL_TIM_OC_Start_DMA, %function
HAL_TIM_OC_Start_DMA:
.LFB353:
	.loc 1 1057 1 is_stmt 1
	.cfi_startproc
	@ args = 0, pretend = 0, frame = 0
	@ frame_needed = 0, uses_anonymous_args = 0
.LVL790:
	push	{r3, r4, r5, lr}
	.cfi_def_cfa_offset 16
	.cfi_offset 3, -16
	.cfi_offset 4, -12
	.cfi_offset 5, -8
	.cfi_offset 14, -4
	mov	r5, r0
	mov	r4, r1
	mov	r1, r2
.LVL791:
	.loc 1 1058 3
	.loc 1 1059 3
	.loc 1 1062 3
	.loc 1 1065 3
	cmp	r4, #16
	bhi	.L680
	tbb	[pc, r4]
.LVL792:
.L682:
	.byte	(.L686-.L682)/2
	.byte	(.L680-.L682)/2
	.byte	(.L680-.L682)/2
	.byte	(.L680-.L682)/2
	.byte	(.L685-.L682)/2
	.byte	(.L680-.L682)/2
	.byte	(.L680-.L682)/2
	.byte	(.L680-.L682)/2
	.byte	(.L684-.L682)/2
	.byte	(.L680-.L682)/2
	.byte	(.L680-.L682)/2
	.byte	(.L680-.L682)/2
	.byte	(.L683-.L682)/2
	.byte	(.L680-.L682)/2
	.byte	(.L680-.L682)/2
	.byte	(.L680-.L682)/2
	.byte	(.L681-.L682)/2
	.p2align 1
.L686:
	.loc 1 1065 57 is_stmt 0 discriminator 1
	ldrb	r0, [r0, #62]	@ zero_extendqisi2
.LVL793:
	uxtb	r0, r0
	.loc 1 1065 308 discriminator 1
	cmp	r0, #2
	ite	ne
	movne	r0, #0
	moveq	r0, #1
.L687:
	.loc 1 1065 6 discriminator 20
	cmp	r0, #0
	bne	.L714
	.loc 1 1069 8 is_stmt 1
	cmp	r4, #16
	bhi	.L689
	tbb	[pc, r4]
.L691:
	.byte	(.L695-.L691)/2
	.byte	(.L689-.L691)/2
	.byte	(.L689-.L691)/2
	.byte	(.L689-.L691)/2
	.byte	(.L694-.L691)/2
	.byte	(.L689-.L691)/2
	.byte	(.L689-.L691)/2
	.byte	(.L689-.L691)/2
	.byte	(.L693-.L691)/2
	.byte	(.L689-.L691)/2
	.byte	(.L689-.L691)/2
	.byte	(.L689-.L691)/2
	.byte	(.L692-.L691)/2
	.byte	(.L689-.L691)/2
	.byte	(.L689-.L691)/2
	.byte	(.L689-.L691)/2
	.byte	(.L690-.L691)/2
.LVL794:
	.p2align 1
.L685:
	.loc 1 1065 112 is_stmt 0 discriminator 4
	ldrb	r0, [r0, #63]	@ zero_extendqisi2
.LVL795:
	uxtb	r0, r0
	.loc 1 1065 308 discriminator 4
	cmp	r0, #2
	ite	ne
	movne	r0, #0
	moveq	r0, #1
	b	.L687
.LVL796:
.L684:
	.loc 1 1065 167 discriminator 7
	ldrb	r0, [r0, #64]	@ zero_extendqisi2
.LVL797:
	uxtb	r0, r0
	.loc 1 1065 308 discriminator 7
	cmp	r0, #2
	ite	ne
	movne	r0, #0
	moveq	r0, #1
	b	.L687
.LVL798:
.L683:
	.loc 1 1065 222 discriminator 10
	ldrb	r0, [r0, #65]	@ zero_extendqisi2
.LVL799:
	uxtb	r0, r0
	.loc 1 1065 308 discriminator 10
	cmp	r0, #2
	ite	ne
	movne	r0, #0
	moveq	r0, #1
	b	.L687
.LVL800:
.L681:
	.loc 1 1065 277 discriminator 13
	ldrb	r0, [r0, #66]	@ zero_extendqisi2
.LVL801:
	uxtb	r0, r0
	.loc 1 1065 308 discriminator 13
	cmp	r0, #2
	ite	ne
	movne	r0, #0
	moveq	r0, #1
	b	.L687
.LVL802:
.L680:
	.loc 1 1065 303 discriminator 14
	ldrb	r0, [r0, #67]	@ zero_extendqisi2
.LVL803:
	uxtb	r0, r0
	.loc 1 1065 308 discriminator 14
	cmp	r0, #2
	ite	ne
	movne	r0, #0
	moveq	r0, #1
	b	.L687
.L695:
	.loc 1 1069 62 discriminator 1
	ldrb	r2, [r5, #62]	@ zero_extendqisi2
	uxtb	r2, r2
	.loc 1 1069 313 discriminator 1
	cmp	r2, #1
	ite	ne
	movne	r2, #0
	moveq	r2, #1
.L696:
	.loc 1 1069 11 discriminator 20
	cmp	r2, #0
	beq	.L715
	.loc 1 1071 5 is_stmt 1
	.loc 1 1071 8 is_stmt 0
	cmp	r3, #0
	it	ne
	cmpne	r1, #0
	beq	.L716
	.loc 1 1077 7 is_stmt 1
	cmp	r4, #16
	bhi	.L697
	tbh	[pc, r4, lsl #1]
.L699:
	.2byte	(.L703-.L699)/2
	.2byte	(.L697-.L699)/2
	.2byte	(.L697-.L699)/2
	.2byte	(.L697-.L699)/2
	.2byte	(.L702-.L699)/2
	.2byte	(.L697-.L699)/2
	.2byte	(.L697-.L699)/2
	.2byte	(.L697-.L699)/2
	.2byte	(.L701-.L699)/2
	.2byte	(.L697-.L699)/2
	.2byte	(.L697-.L699)/2
	.2byte	(.L697-.L699)/2
	.2byte	(.L700-.L699)/2
	.2byte	(.L697-.L699)/2
	.2byte	(.L697-.L699)/2
	.2byte	(.L697-.L699)/2
	.2byte	(.L698-.L699)/2
	.p2align 1
.L694:
	.loc 1 1069 117 is_stmt 0 discriminator 4
	ldrb	r2, [r5, #63]	@ zero_extendqisi2
	uxtb	r2, r2
	.loc 1 1069 313 discriminator 4
	cmp	r2, #1
	ite	ne
	movne	r2, #0
	moveq	r2, #1
	b	.L696
.L693:
	.loc 1 1069 172 discriminator 7
	ldrb	r2, [r5, #64]	@ zero_extendqisi2
	uxtb	r2, r2
	.loc 1 1069 313 discriminator 7
	cmp	r2, #1
	ite	ne
	movne	r2, #0
	moveq	r2, #1
	b	.L696
.L692:
	.loc 1 1069 227 discriminator 10
	ldrb	r2, [r5, #65]	@ zero_extendqisi2
	uxtb	r2, r2
	.loc 1 1069 313 discriminator 10
	cmp	r2, #1
	ite	ne
	movne	r2, #0
	moveq	r2, #1
	b	.L696
.L690:
	.loc 1 1069 282 discriminator 13
	ldrb	r2, [r5, #66]	@ zero_extendqisi2
	uxtb	r2, r2
	.loc 1 1069 313 discriminator 13
	cmp	r2, #1
	ite	ne
	movne	r2, #0
	moveq	r2, #1
	b	.L696
.L689:
	.loc 1 1069 308 discriminator 14
	ldrb	r2, [r5, #67]	@ zero_extendqisi2
	uxtb	r2, r2
	.loc 1 1069 313 discriminator 14
	cmp	r2, #1
	ite	ne
	movne	r2, #0
	moveq	r2, #1
	b	.L696
.L703:
	.loc 1 1077 62
	movs	r2, #2
	strb	r2, [r5, #62]
	.loc 1 1085 3 is_stmt 1
.L704:
	.loc 1 1090 7
	.loc 1 1090 17 is_stmt 0
	ldr	r2, [r5, #36]
	.loc 1 1090 57
	ldr	r0, .L728
	str	r0, [r2, #60]
	.loc 1 1091 7 is_stmt 1
	.loc 1 1091 17 is_stmt 0
	ldr	r2, [r5, #36]
	.loc 1 1091 61
	ldr	r0, .L728+4
	str	r0, [r2, #64]
	.loc 1 1094 7 is_stmt 1
	.loc 1 1094 17 is_stmt 0
	ldr	r2, [r5, #36]
	.loc 1 1094 58
	ldr	r0, .L728+8
	str	r0, [r2, #76]
	.loc 1 1097 7 is_stmt 1
	.loc 1 1097 93 is_stmt 0
	ldr	r2, [r5]
	.loc 1 1097 11
	adds	r2, r2, #52
	ldr	r0, [r5, #36]
	bl	HAL_DMA_Start_IT
.LVL804:
	.loc 1 1097 10
	cmp	r0, #0
	bne	.L718
	.loc 1 1105 7 is_stmt 1
	.loc 1 1105 14 is_stmt 0
	ldr	r2, [r5]
	.loc 1 1105 24
	ldr	r3, [r2, #12]
	.loc 1 1105 31
	orr	r3, r3, #512
	str	r3, [r2, #12]
	.loc 1 1106 7 is_stmt 1
	.loc 1 1178 3
.L709:
	.loc 1 1181 5
	movs	r2, #1
	mov	r1, r4
	ldr	r0, [r5]
	bl	TIM_CCxChannelCmd
.LVL805:
	.loc 1 1183 5
	.loc 1 1183 16 is_stmt 0
	ldr	r3, [r5]
	.loc 1 1183 359
	ldr	r1, .L728+12
	ldr	r2, .L728+16
	cmp	r3, r2
	it	ne
	cmpne	r3, r1
	beq	.L710
	.loc 1 1183 183 discriminator 2
	add	r2, r2, #15360
	cmp	r3, r2
	beq	.L710
	.loc 1 1183 271 discriminator 4
	add	r2, r2, #1024
	cmp	r3, r2
	beq	.L710
	.loc 1 1183 359 discriminator 6
	add	r2, r2, #1024
	cmp	r3, r2
	bne	.L711
.L710:
	.loc 1 1186 7 is_stmt 1
	.loc 1 1186 24 is_stmt 0
	ldr	r2, [r3, #68]
	.loc 1 1186 30
	orr	r2, r2, #32768
	str	r2, [r3, #68]
.L711:
	.loc 1 1190 5 is_stmt 1
	.loc 1 1190 16 is_stmt 0
	ldr	r3, [r5]
	.loc 1 1190 8
	ldr	r2, .L728+12
	cmp	r3, #1073741824
	it	ne
	cmpne	r3, r2
	beq	.L712
	.loc 1 1190 166 discriminator 1
	sub	r2, r2, #64512
	cmp	r3, r2
	beq	.L712
	.loc 1 1190 237 discriminator 2
	add	r2, r2, #1024
	cmp	r3, r2
	beq	.L712
	.loc 1 1190 308 discriminator 3
	add	r2, r2, #1024
	cmp	r3, r2
	beq	.L712
	.loc 1 1190 379 discriminator 4
	add	r2, r2, #63488
	cmp	r3, r2
	beq	.L712
	.loc 1 1190 467 discriminator 5
	sub	r2, r2, #60416
	cmp	r3, r2
	beq	.L712
	.loc 1 1190 538 discriminator 6
	add	r2, r2, #75776
	cmp	r3, r2
	beq	.L712
	.loc 1 1200 7 is_stmt 1
	.loc 1 1200 24 is_stmt 0
	ldr	r2, [r3]
	.loc 1 1200 29
	orr	r2, r2, #1
	str	r2, [r3]
	movs	r0, #0
	b	.L688
.LVL806:
.L702:
	.loc 1 1077 150
	movs	r2, #2
	strb	r2, [r5, #63]
	.loc 1 1085 3 is_stmt 1
.L705:
	.loc 1 1112 7
	.loc 1 1112 17 is_stmt 0
	ldr	r2, [r5, #40]
	.loc 1 1112 57
	ldr	r0, .L728
	str	r0, [r2, #60]
	.loc 1 1113 7 is_stmt 1
	.loc 1 1113 17 is_stmt 0
	ldr	r2, [r5, #40]
	.loc 1 1113 61
	ldr	r0, .L728+4
	str	r0, [r2, #64]
	.loc 1 1116 7 is_stmt 1
	.loc 1 1116 17 is_stmt 0
	ldr	r2, [r5, #40]
	.loc 1 1116 58
	ldr	r0, .L728+8
	str	r0, [r2, #76]
	.loc 1 1119 7 is_stmt 1
	.loc 1 1119 93 is_stmt 0
	ldr	r2, [r5]
	.loc 1 1119 11
	adds	r2, r2, #56
	ldr	r0, [r5, #40]
	bl	HAL_DMA_Start_IT
.LVL807:
	.loc 1 1119 10
	cmp	r0, #0
	bne	.L719
	.loc 1 1127 7 is_stmt 1
	.loc 1 1127 14 is_stmt 0
	ldr	r2, [r5]
	.loc 1 1127 24
	ldr	r3, [r2, #12]
	.loc 1 1127 31
	orr	r3, r3, #1024
	str	r3, [r2, #12]
	.loc 1 1128 7 is_stmt 1
	.loc 1 1178 3
	b	.L709
.LVL808:
.L701:
	.loc 1 1077 238 is_stmt 0
	movs	r2, #2
	strb	r2, [r5, #64]
	.loc 1 1085 3 is_stmt 1
.L706:
	.loc 1 1134 7
	.loc 1 1134 17 is_stmt 0
	ldr	r2, [r5, #44]
	.loc 1 1134 57
	ldr	r0, .L728
	str	r0, [r2, #60]
	.loc 1 1135 7 is_stmt 1
	.loc 1 1135 17 is_stmt 0
	ldr	r2, [r5, #44]
	.loc 1 1135 61
	ldr	r0, .L728+4
	str	r0, [r2, #64]
	.loc 1 1138 7 is_stmt 1
	.loc 1 1138 17 is_stmt 0
	ldr	r2, [r5, #44]
	.loc 1 1138 58
	ldr	r0, .L728+8
	str	r0, [r2, #76]
	.loc 1 1141 7 is_stmt 1
	.loc 1 1141 93 is_stmt 0
	ldr	r2, [r5]
	.loc 1 1141 11
	adds	r2, r2, #60
	ldr	r0, [r5, #44]
	bl	HAL_DMA_Start_IT
.LVL809:
	.loc 1 1141 10
	cmp	r0, #0
	bne	.L720
	.loc 1 1148 7 is_stmt 1
	.loc 1 1148 14 is_stmt 0
	ldr	r2, [r5]
	.loc 1 1148 24
	ldr	r3, [r2, #12]
	.loc 1 1148 31
	orr	r3, r3, #2048
	str	r3, [r2, #12]
	.loc 1 1149 7 is_stmt 1
	.loc 1 1178 3
	b	.L709
.LVL810:
.L700:
	.loc 1 1077 326 is_stmt 0
	movs	r2, #2
	strb	r2, [r5, #65]
	.loc 1 1085 3 is_stmt 1
.L707:
	.loc 1 1155 7
	.loc 1 1155 17 is_stmt 0
	ldr	r2, [r5, #48]
	.loc 1 1155 57
	ldr	r0, .L728
	str	r0, [r2, #60]
	.loc 1 1156 7 is_stmt 1
	.loc 1 1156 17 is_stmt 0
	ldr	r2, [r5, #48]
	.loc 1 1156 61
	ldr	r0, .L728+4
	str	r0, [r2, #64]
	.loc 1 1159 7 is_stmt 1
	.loc 1 1159 17 is_stmt 0
	ldr	r2, [r5, #48]
	.loc 1 1159 58
	ldr	r0, .L728+8
	str	r0, [r2, #76]
	.loc 1 1162 7 is_stmt 1
	.loc 1 1162 93 is_stmt 0
	ldr	r2, [r5]
	.loc 1 1162 11
	adds	r2, r2, #64
	ldr	r0, [r5, #48]
	bl	HAL_DMA_Start_IT
.LVL811:
	.loc 1 1162 10
	cmp	r0, #0
	bne	.L721
	.loc 1 1169 7 is_stmt 1
	.loc 1 1169 14 is_stmt 0
	ldr	r2, [r5]
	.loc 1 1169 24
	ldr	r3, [r2, #12]
	.loc 1 1169 31
	orr	r3, r3, #4096
	str	r3, [r2, #12]
	.loc 1 1170 7 is_stmt 1
	.loc 1 1178 3
	b	.L709
.LVL812:
.L698:
	.loc 1 1077 414 is_stmt 0
	movs	r3, #2
.LVL813:
	strb	r3, [r5, #66]
	.loc 1 1085 3 is_stmt 1
	.loc 1 1077 414 is_stmt 0
	movs	r0, #1
	b	.L688
.LVL814:
.L697:
	.loc 1 1077 473 discriminator 13
	movs	r2, #2
	strb	r2, [r5, #67]
	.loc 1 1085 3 is_stmt 1 discriminator 13
	cmp	r4, #12
	bhi	.L717
	adr	r2, .L708
	ldr	pc, [r2, r4, lsl #2]
	.p2align 2
.L708:
	.word	.L704+1
	.word	.L717+1
	.word	.L717+1
	.word	.L717+1
	.word	.L705+1
	.word	.L717+1
	.word	.L717+1
	.word	.L717+1
	.word	.L706+1
	.word	.L717+1
	.word	.L717+1
	.word	.L717+1
	.word	.L707+1
.LVL815:
	.p2align 1
.L712:
	.loc 1 1192 7
	.loc 1 1192 31 is_stmt 0
	ldr	r1, [r3, #8]
	.loc 1 1192 15
	ldr	r2, .L728+20
	ands	r2, r2, r1
.LVL816:
	.loc 1 1193 7 is_stmt 1
	.loc 1 1193 10 is_stmt 0
	cmp	r2, #6
	it	ne
	cmpne	r2, #65536
	beq	.L722
	.loc 1 1195 9 is_stmt 1
	.loc 1 1195 26 is_stmt 0
	ldr	r2, [r3]
.LVL817:
	.loc 1 1195 31
	orr	r2, r2, #1
	str	r2, [r3]
	movs	r0, #0
	b	.L688
.LVL818:
.L714:
	.loc 1 1067 12
	movs	r0, #2
	b	.L688
.L715:
	.loc 1 1082 12
	movs	r0, #1
.LVL819:
.L688:
	.loc 1 1206 1
	pop	{r3, r4, r5, pc}
.LVL820:
.L716:
	.loc 1 1073 14
	movs	r0, #1
	b	.L688
.L717:
	.loc 1 1085 3
	movs	r0, #1
	b	.L688
.LVL821:
.L718:
	.loc 1 1101 16
	movs	r0, #1
	b	.L688
.L719:
	.loc 1 1123 16
	movs	r0, #1
	b	.L688
.L720:
	.loc 1 1145 16
	movs	r0, #1
	b	.L688
.L721:
	.loc 1 1166 16
	movs	r0, #1
	b	.L688
.LVL822:
.L722:
	movs	r0, #0
	b	.L688
.L729:
	.align	2
.L728:
	.word	TIM_DMADelayPulseCplt
	.word	TIM_DMADelayPulseHalfCplt
	.word	TIM_DMAError
	.word	1073807360
	.word	1073808384
	.word	65543
	.cfi_endproc
.LFE353:
	.size	HAL_TIM_OC_Start_DMA, .-HAL_TIM_OC_Start_DMA
	.section	.text.HAL_TIM_OC_Stop_DMA,"ax",%progbits
	.align	1
	.global	HAL_TIM_OC_Stop_DMA
	.syntax unified
	.thumb
	.thumb_func
	.type	HAL_TIM_OC_Stop_DMA, %function
HAL_TIM_OC_Stop_DMA:
.LFB354:
	.loc 1 1220 1 is_stmt 1
	.cfi_startproc
	@ args = 0, pretend = 0, frame = 0
	@ frame_needed = 0, uses_anonymous_args = 0
.LVL823:
	push	{r3, r4, r5, lr}
	.cfi_def_cfa_offset 16
	.cfi_offset 3, -16
	.cfi_offset 4, -12
	.cfi_offset 5, -8
	.cfi_offset 14, -4
	mov	r5, r0
	mov	r4, r1
	.loc 1 1221 3
.LVL824:
	.loc 1 1224 3
	.loc 1 1226 3
	cmp	r1, #12
	bhi	.L748
	tbb	[pc, r1]
.L733:
	.byte	(.L736-.L733)/2
	.byte	(.L748-.L733)/2
	.byte	(.L748-.L733)/2
	.byte	(.L748-.L733)/2
	.byte	(.L735-.L733)/2
	.byte	(.L748-.L733)/2
	.byte	(.L748-.L733)/2
	.byte	(.L748-.L733)/2
	.byte	(.L734-.L733)/2
	.byte	(.L748-.L733)/2
	.byte	(.L748-.L733)/2
	.byte	(.L748-.L733)/2
	.byte	(.L732-.L733)/2
	.p2align 1
.L736:
	.loc 1 1231 7
	.loc 1 1231 14 is_stmt 0
	ldr	r2, [r0]
	.loc 1 1231 24
	ldr	r3, [r2, #12]
	.loc 1 1231 31
	bic	r3, r3, #512
	str	r3, [r2, #12]
	.loc 1 1232 7 is_stmt 1
	.loc 1 1232 13 is_stmt 0
	ldr	r0, [r0, #36]
.LVL825:
	bl	HAL_DMA_Abort_IT
.LVL826:
	.loc 1 1233 7 is_stmt 1
	.loc 1 1265 3
.L737:
	.loc 1 1268 5
	movs	r2, #0
	mov	r1, r4
	ldr	r0, [r5]
	bl	TIM_CCxChannelCmd
.LVL827:
	.loc 1 1270 5
	.loc 1 1270 16 is_stmt 0
	ldr	r3, [r5]
	.loc 1 1270 359
	ldr	r1, .L750
	ldr	r2, .L750+4
	cmp	r3, r2
	it	ne
	cmpne	r3, r1
	beq	.L738
	.loc 1 1270 183 discriminator 2
	add	r2, r2, #15360
	cmp	r3, r2
	beq	.L738
	.loc 1 1270 271 discriminator 4
	add	r2, r2, #1024
	cmp	r3, r2
	beq	.L738
	.loc 1 1270 359 discriminator 6
	add	r2, r2, #1024
	cmp	r3, r2
	bne	.L739
.L738:
	.loc 1 1273 7 is_stmt 1
	.loc 1 1273 12
	.loc 1 1273 33 is_stmt 0
	ldr	r1, [r3, #32]
	.loc 1 1273 15
	movw	r2, #4369
	tst	r1, r2
	bne	.L739
	.loc 1 1273 138 is_stmt 1 discriminator 1
	.loc 1 1273 158 is_stmt 0 discriminator 1
	ldr	r1, [r3, #32]
	.loc 1 1273 140 discriminator 1
	movw	r2, #1092
	tst	r1, r2
	bne	.L739
	.loc 1 1273 245 is_stmt 1 discriminator 3
	.loc 1 1273 261 is_stmt 0 discriminator 3
	ldr	r2, [r3, #68]
	.loc 1 1273 268 discriminator 3
	bic	r2, r2, #32768
	str	r2, [r3, #68]
.L739:
	.loc 1 1273 10 is_stmt 1 discriminator 5
	.loc 1 1277 5 discriminator 5
	.loc 1 1277 10 discriminator 5
	.loc 1 1277 21 is_stmt 0 discriminator 5
	ldr	r3, [r5]
	.loc 1 1277 31 discriminator 5
	ldr	r1, [r3, #32]
	.loc 1 1277 13 discriminator 5
	movw	r2, #4369
	tst	r1, r2
	bne	.L740
	.loc 1 1277 136 is_stmt 1 discriminator 1
	.loc 1 1277 156 is_stmt 0 discriminator 1
	ldr	r1, [r3, #32]
	.loc 1 1277 138 discriminator 1
	movw	r2, #1092
	tst	r1, r2
	bne	.L740
	.loc 1 1277 243 is_stmt 1 discriminator 3
	.loc 1 1277 259 is_stmt 0 discriminator 3
	ldr	r2, [r3]
	.loc 1 1277 265 discriminator 3
	bic	r2, r2, #1
	str	r2, [r3]
.L740:
	.loc 1 1277 8 is_stmt 1 discriminator 5
	.loc 1 1280 5 discriminator 5
	.loc 1 1280 93 is_stmt 0 discriminator 5
	cbnz	r4, .L741
	.loc 1 1280 60 discriminator 1
	movs	r3, #1
	strb	r3, [r5, #62]
	movs	r0, #0
	b	.L731
.LVL828:
.L735:
	.loc 1 1239 7 is_stmt 1
	.loc 1 1239 14 is_stmt 0
	ldr	r2, [r0]
	.loc 1 1239 24
	ldr	r3, [r2, #12]
	.loc 1 1239 31
	bic	r3, r3, #1024
	str	r3, [r2, #12]
	.loc 1 1240 7 is_stmt 1
	.loc 1 1240 13 is_stmt 0
	ldr	r0, [r0, #40]
.LVL829:
	bl	HAL_DMA_Abort_IT
.LVL830:
	.loc 1 1241 7 is_stmt 1
	.loc 1 1265 3
	b	.L737
.LVL831:
.L734:
	.loc 1 1247 7
	.loc 1 1247 14 is_stmt 0
	ldr	r2, [r0]
	.loc 1 1247 24
	ldr	r3, [r2, #12]
	.loc 1 1247 31
	bic	r3, r3, #2048
	str	r3, [r2, #12]
	.loc 1 1248 7 is_stmt 1
	.loc 1 1248 13 is_stmt 0
	ldr	r0, [r0, #44]
.LVL832:
	bl	HAL_DMA_Abort_IT
.LVL833:
	.loc 1 1249 7 is_stmt 1
	.loc 1 1265 3
	b	.L737
.LVL834:
.L732:
	.loc 1 1255 7
	.loc 1 1255 14 is_stmt 0
	ldr	r2, [r0]
	.loc 1 1255 24
	ldr	r3, [r2, #12]
	.loc 1 1255 31
	bic	r3, r3, #4096
	str	r3, [r2, #12]
	.loc 1 1256 7 is_stmt 1
	.loc 1 1256 13 is_stmt 0
	ldr	r0, [r0, #48]
.LVL835:
	bl	HAL_DMA_Abort_IT
.LVL836:
	.loc 1 1257 7 is_stmt 1
	.loc 1 1265 3
	b	.L737
.L741:
	subs	r4, r4, #4
.LVL837:
	cmp	r4, #12
	bhi	.L742
	tbb	[pc, r4]
.L744:
	.byte	(.L747-.L744)/2
	.byte	(.L742-.L744)/2
	.byte	(.L742-.L744)/2
	.byte	(.L742-.L744)/2
	.byte	(.L746-.L744)/2
	.byte	(.L742-.L744)/2
	.byte	(.L742-.L744)/2
	.byte	(.L742-.L744)/2
	.byte	(.L745-.L744)/2
	.byte	(.L742-.L744)/2
	.byte	(.L742-.L744)/2
	.byte	(.L742-.L744)/2
	.byte	(.L743-.L744)/2
	.p2align 1
.L747:
	.loc 1 1280 149 is_stmt 0 discriminator 3
	movs	r3, #1
	strb	r3, [r5, #63]
	movs	r0, #0
	b	.L731
.L746:
	.loc 1 1280 238 discriminator 6
	movs	r3, #1
	strb	r3, [r5, #64]
	movs	r0, #0
	b	.L731
.L745:
	.loc 1 1280 327 discriminator 9
	movs	r3, #1
	strb	r3, [r5, #65]
	movs	r0, #0
	b	.L731
.L743:
	.loc 1 1280 416 discriminator 12
	movs	r3, #1
	strb	r3, [r5, #66]
	movs	r0, #0
	b	.L731
.L742:
	.loc 1 1280 476 discriminator 13
	movs	r3, #1
	strb	r3, [r5, #67]
	movs	r0, #0
	b	.L731
.LVL838:
.L748:
	.loc 1 1226 3
	movs	r0, #1
.LVL839:
.L731:
	.loc 1 1284 3 is_stmt 1
	.loc 1 1285 1 is_stmt 0
	pop	{r3, r4, r5, pc}
.LVL840:
.L751:
	.align	2
.L750:
	.word	1073807360
	.word	1073808384
	.cfi_endproc
.LFE354:
	.size	HAL_TIM_OC_Stop_DMA, .-HAL_TIM_OC_Stop_DMA
	.section	.text.HAL_TIM_PWM_Start,"ax",%progbits
	.align	1
	.global	HAL_TIM_PWM_Start
	.syntax unified
	.thumb
	.thumb_func
	.type	HAL_TIM_PWM_Start, %function
HAL_TIM_PWM_Start:
.LFB359:
	.loc 1 1464 1 is_stmt 1
	.cfi_startproc
	@ args = 0, pretend = 0, frame = 0
	@ frame_needed = 0, uses_anonymous_args = 0
.LVL841:
	push	{r4, lr}
	.cfi_def_cfa_offset 8
	.cfi_offset 4, -8
	.cfi_offset 14, -4
	mov	r4, r0
	.loc 1 1465 3
	.loc 1 1468 3
	.loc 1 1471 3
	cmp	r1, #16
	bhi	.L753
	tbb	[pc, r1]
.L755:
	.byte	(.L759-.L755)/2
	.byte	(.L753-.L755)/2
	.byte	(.L753-.L755)/2
	.byte	(.L753-.L755)/2
	.byte	(.L758-.L755)/2
	.byte	(.L753-.L755)/2
	.byte	(.L753-.L755)/2
	.byte	(.L753-.L755)/2
	.byte	(.L757-.L755)/2
	.byte	(.L753-.L755)/2
	.byte	(.L753-.L755)/2
	.byte	(.L753-.L755)/2
	.byte	(.L756-.L755)/2
	.byte	(.L753-.L755)/2
	.byte	(.L753-.L755)/2
	.byte	(.L753-.L755)/2
	.byte	(.L754-.L755)/2
	.p2align 1
.L759:
	.loc 1 1471 57 is_stmt 0 discriminator 1
	ldrb	r3, [r0, #62]	@ zero_extendqisi2
	uxtb	r3, r3
	.loc 1 1471 308 discriminator 1
	subs	r3, r3, #1
	it	ne
	movne	r3, #1
.L760:
	.loc 1 1471 6 discriminator 20
	cmp	r3, #0
	bne	.L774
	.loc 1 1477 3 is_stmt 1
	cmp	r1, #16
	bhi	.L762
	tbb	[pc, r1]
.L764:
	.byte	(.L768-.L764)/2
	.byte	(.L762-.L764)/2
	.byte	(.L762-.L764)/2
	.byte	(.L762-.L764)/2
	.byte	(.L767-.L764)/2
	.byte	(.L762-.L764)/2
	.byte	(.L762-.L764)/2
	.byte	(.L762-.L764)/2
	.byte	(.L766-.L764)/2
	.byte	(.L762-.L764)/2
	.byte	(.L762-.L764)/2
	.byte	(.L762-.L764)/2
	.byte	(.L765-.L764)/2
	.byte	(.L762-.L764)/2
	.byte	(.L762-.L764)/2
	.byte	(.L762-.L764)/2
	.byte	(.L763-.L764)/2
	.p2align 1
.L758:
	.loc 1 1471 112 is_stmt 0 discriminator 4
	ldrb	r3, [r0, #63]	@ zero_extendqisi2
	uxtb	r3, r3
	.loc 1 1471 308 discriminator 4
	subs	r3, r3, #1
	it	ne
	movne	r3, #1
	b	.L760
.L757:
	.loc 1 1471 167 discriminator 7
	ldrb	r3, [r0, #64]	@ zero_extendqisi2
	uxtb	r3, r3
	.loc 1 1471 308 discriminator 7
	subs	r3, r3, #1
	it	ne
	movne	r3, #1
	b	.L760
.L756:
	.loc 1 1471 222 discriminator 10
	ldrb	r3, [r0, #65]	@ zero_extendqisi2
	uxtb	r3, r3
	.loc 1 1471 308 discriminator 10
	subs	r3, r3, #1
	it	ne
	movne	r3, #1
	b	.L760
.L754:
	.loc 1 1471 277 discriminator 13
	ldrb	r3, [r0, #66]	@ zero_extendqisi2
	uxtb	r3, r3
	.loc 1 1471 308 discriminator 13
	subs	r3, r3, #1
	it	ne
	movne	r3, #1
	b	.L760
.L753:
	.loc 1 1471 303 discriminator 14
	ldrb	r3, [r0, #67]	@ zero_extendqisi2
	uxtb	r3, r3
	.loc 1 1471 308 discriminator 14
	subs	r3, r3, #1
	it	ne
	movne	r3, #1
	b	.L760
.L768:
	.loc 1 1477 58 discriminator 1
	movs	r3, #2
	strb	r3, [r4, #62]
.L769:
	.loc 1 1480 3 is_stmt 1
	movs	r2, #1
	ldr	r0, [r4]
.LVL842:
	bl	TIM_CCxChannelCmd
.LVL843:
	.loc 1 1482 3
	.loc 1 1482 14 is_stmt 0
	ldr	r3, [r4]
	.loc 1 1482 357
	ldr	r1, .L777
	ldr	r2, .L777+4
	cmp	r3, r2
	it	ne
	cmpne	r3, r1
	beq	.L770
	.loc 1 1482 181 discriminator 2
	add	r2, r2, #15360
	cmp	r3, r2
	beq	.L770
	.loc 1 1482 269 discriminator 4
	add	r2, r2, #1024
	cmp	r3, r2
	beq	.L770
	.loc 1 1482 357 discriminator 6
	add	r2, r2, #1024
	cmp	r3, r2
	bne	.L771
.L770:
	.loc 1 1485 5 is_stmt 1
	.loc 1 1485 22 is_stmt 0
	ldr	r2, [r3, #68]
	.loc 1 1485 28
	orr	r2, r2, #32768
	str	r2, [r3, #68]
.L771:
	.loc 1 1489 3 is_stmt 1
	.loc 1 1489 14 is_stmt 0
	ldr	r3, [r4]
	.loc 1 1489 6
	ldr	r2, .L777
	cmp	r3, #1073741824
	it	ne
	cmpne	r3, r2
	beq	.L772
	.loc 1 1489 164 discriminator 1
	sub	r2, r2, #64512
	cmp	r3, r2
	beq	.L772
	.loc 1 1489 235 discriminator 2
	add	r2, r2, #1024
	cmp	r3, r2
	beq	.L772
	.loc 1 1489 306 discriminator 3
	add	r2, r2, #1024
	cmp	r3, r2
	beq	.L772
	.loc 1 1489 377 discriminator 4
	add	r2, r2, #63488
	cmp	r3, r2
	beq	.L772
	.loc 1 1489 465 discriminator 5
	sub	r2, r2, #60416
	cmp	r3, r2
	beq	.L772
	.loc 1 1489 536 discriminator 6
	add	r2, r2, #75776
	cmp	r3, r2
	beq	.L772
	.loc 1 1499 5 is_stmt 1
	.loc 1 1499 22 is_stmt 0
	ldr	r2, [r3]
	.loc 1 1499 27
	orr	r2, r2, #1
	str	r2, [r3]
	.loc 1 1503 10
	movs	r0, #0
	b	.L761
.LVL844:
.L767:
	.loc 1 1477 146 discriminator 3
	movs	r3, #2
	strb	r3, [r4, #63]
	b	.L769
.L766:
	.loc 1 1477 234 discriminator 6
	movs	r3, #2
	strb	r3, [r4, #64]
	b	.L769
.L765:
	.loc 1 1477 322 discriminator 9
	movs	r3, #2
	strb	r3, [r4, #65]
	b	.L769
.L763:
	.loc 1 1477 410 discriminator 12
	movs	r3, #2
	strb	r3, [r4, #66]
	b	.L769
.L762:
	.loc 1 1477 469 discriminator 13
	movs	r3, #2
	strb	r3, [r4, #67]
	b	.L769
.LVL845:
.L772:
	.loc 1 1491 5 is_stmt 1
	.loc 1 1491 29 is_stmt 0
	ldr	r1, [r3, #8]
	.loc 1 1491 13
	ldr	r2, .L777+8
	ands	r2, r2, r1
.LVL846:
	.loc 1 1492 5 is_stmt 1
	.loc 1 1492 8 is_stmt 0
	cmp	r2, #6
	it	ne
	cmpne	r2, #65536
	beq	.L775
	.loc 1 1494 7 is_stmt 1
	.loc 1 1494 24 is_stmt 0
	ldr	r2, [r3]
.LVL847:
	.loc 1 1494 29
	orr	r2, r2, #1
	str	r2, [r3]
	.loc 1 1503 10
	movs	r0, #0
	b	.L761
.LVL848:
.L774:
	.loc 1 1473 12
	movs	r0, #1
.LVL849:
.L761:
	.loc 1 1504 1
	pop	{r4, pc}
.LVL850:
.L775:
	.loc 1 1503 10
	movs	r0, #0
	b	.L761
.L778:
	.align	2
.L777:
	.word	1073807360
	.word	1073808384
	.word	65543
	.cfi_endproc
.LFE359:
	.size	HAL_TIM_PWM_Start, .-HAL_TIM_PWM_Start
	.section	.text.HAL_TIM_PWM_Stop,"ax",%progbits
	.align	1
	.global	HAL_TIM_PWM_Stop
	.syntax unified
	.thumb
	.thumb_func
	.type	HAL_TIM_PWM_Stop, %function
HAL_TIM_PWM_Stop:
.LFB360:
	.loc 1 1520 1 is_stmt 1
	.cfi_startproc
	@ args = 0, pretend = 0, frame = 0
	@ frame_needed = 0, uses_anonymous_args = 0
.LVL851:
	push	{r3, r4, r5, lr}
	.cfi_def_cfa_offset 16
	.cfi_offset 3, -16
	.cfi_offset 4, -12
	.cfi_offset 5, -8
	.cfi_offset 14, -4
	mov	r4, r0
	mov	r5, r1
	.loc 1 1522 3
	.loc 1 1525 3
	movs	r2, #0
	ldr	r0, [r0]
.LVL852:
	bl	TIM_CCxChannelCmd
.LVL853:
	.loc 1 1527 3
	.loc 1 1527 14 is_stmt 0
	ldr	r3, [r4]
	.loc 1 1527 357
	ldr	r1, .L792
	ldr	r2, .L792+4
	cmp	r3, r2
	it	ne
	cmpne	r3, r1
	beq	.L780
	.loc 1 1527 181 discriminator 2
	add	r2, r2, #15360
	cmp	r3, r2
	beq	.L780
	.loc 1 1527 269 discriminator 4
	add	r2, r2, #1024
	cmp	r3, r2
	beq	.L780
	.loc 1 1527 357 discriminator 6
	add	r2, r2, #1024
	cmp	r3, r2
	bne	.L781
.L780:
	.loc 1 1530 5 is_stmt 1
	.loc 1 1530 10
	.loc 1 1530 31 is_stmt 0
	ldr	r1, [r3, #32]
	.loc 1 1530 13
	movw	r2, #4369
	tst	r1, r2
	bne	.L781
	.loc 1 1530 136 is_stmt 1 discriminator 1
	.loc 1 1530 156 is_stmt 0 discriminator 1
	ldr	r1, [r3, #32]
	.loc 1 1530 138 discriminator 1
	movw	r2, #1092
	tst	r1, r2
	bne	.L781
	.loc 1 1530 243 is_stmt 1 discriminator 3
	.loc 1 1530 259 is_stmt 0 discriminator 3
	ldr	r2, [r3, #68]
	.loc 1 1530 266 discriminator 3
	bic	r2, r2, #32768
	str	r2, [r3, #68]
.L781:
	.loc 1 1530 8 is_stmt 1 discriminator 5
	.loc 1 1534 3 discriminator 5
	.loc 1 1534 8 discriminator 5
	.loc 1 1534 19 is_stmt 0 discriminator 5
	ldr	r3, [r4]
	.loc 1 1534 29 discriminator 5
	ldr	r1, [r3, #32]
	.loc 1 1534 11 discriminator 5
	movw	r2, #4369
	tst	r1, r2
	bne	.L782
	.loc 1 1534 134 is_stmt 1 discriminator 1
	.loc 1 1534 154 is_stmt 0 discriminator 1
	ldr	r1, [r3, #32]
	.loc 1 1534 136 discriminator 1
	movw	r2, #1092
	tst	r1, r2
	bne	.L782
	.loc 1 1534 241 is_stmt 1 discriminator 3
	.loc 1 1534 257 is_stmt 0 discriminator 3
	ldr	r2, [r3]
	.loc 1 1534 263 discriminator 3
	bic	r2, r2, #1
	str	r2, [r3]
.L782:
	.loc 1 1534 6 is_stmt 1 discriminator 5
	.loc 1 1537 3 discriminator 5
	.loc 1 1537 91 is_stmt 0 discriminator 5
	cbnz	r5, .L783
	.loc 1 1537 58 discriminator 1
	movs	r3, #1
	strb	r3, [r4, #62]
.LVL854:
.L784:
	.loc 1 1540 3 is_stmt 1
	.loc 1 1541 1 is_stmt 0
	movs	r0, #0
	pop	{r3, r4, r5, pc}
.LVL855:
.L783:
	subs	r5, r5, #4
.LVL856:
	cmp	r5, #12
	bhi	.L785
	tbb	[pc, r5]
.L787:
	.byte	(.L790-.L787)/2
	.byte	(.L785-.L787)/2
	.byte	(.L785-.L787)/2
	.byte	(.L785-.L787)/2
	.byte	(.L789-.L787)/2
	.byte	(.L785-.L787)/2
	.byte	(.L785-.L787)/2
	.byte	(.L785-.L787)/2
	.byte	(.L788-.L787)/2
	.byte	(.L785-.L787)/2
	.byte	(.L785-.L787)/2
	.byte	(.L785-.L787)/2
	.byte	(.L786-.L787)/2
	.p2align 1
.L790:
	.loc 1 1537 147 discriminator 3
	movs	r3, #1
	strb	r3, [r4, #63]
	b	.L784
.L789:
	.loc 1 1537 236 discriminator 6
	movs	r3, #1
	strb	r3, [r4, #64]
	b	.L784
.L788:
	.loc 1 1537 325 discriminator 9
	movs	r3, #1
	strb	r3, [r4, #65]
	b	.L784
.L786:
	.loc 1 1537 414 discriminator 12
	movs	r3, #1
	strb	r3, [r4, #66]
	b	.L784
.L785:
	.loc 1 1537 474 discriminator 13
	movs	r3, #1
	strb	r3, [r4, #67]
	b	.L784
.L793:
	.align	2
.L792:
	.word	1073807360
	.word	1073808384
	.cfi_endproc
.LFE360:
	.size	HAL_TIM_PWM_Stop, .-HAL_TIM_PWM_Stop
	.section	.text.HAL_TIM_PWM_Start_IT,"ax",%progbits
	.align	1
	.global	HAL_TIM_PWM_Start_IT
	.syntax unified
	.thumb
	.thumb_func
	.type	HAL_TIM_PWM_Start_IT, %function
HAL_TIM_PWM_Start_IT:
.LFB361:
	.loc 1 1555 1 is_stmt 1
	.cfi_startproc
	@ args = 0, pretend = 0, frame = 0
	@ frame_needed = 0, uses_anonymous_args = 0
.LVL857:
	push	{r4, lr}
	.cfi_def_cfa_offset 8
	.cfi_offset 4, -8
	.cfi_offset 14, -4
	mov	r4, r0
	.loc 1 1556 3
.LVL858:
	.loc 1 1557 3
	.loc 1 1560 3
	.loc 1 1563 3
	cmp	r1, #16
	bhi	.L795
	tbb	[pc, r1]
.L797:
	.byte	(.L801-.L797)/2
	.byte	(.L795-.L797)/2
	.byte	(.L795-.L797)/2
	.byte	(.L795-.L797)/2
	.byte	(.L800-.L797)/2
	.byte	(.L795-.L797)/2
	.byte	(.L795-.L797)/2
	.byte	(.L795-.L797)/2
	.byte	(.L799-.L797)/2
	.byte	(.L795-.L797)/2
	.byte	(.L795-.L797)/2
	.byte	(.L795-.L797)/2
	.byte	(.L798-.L797)/2
	.byte	(.L795-.L797)/2
	.byte	(.L795-.L797)/2
	.byte	(.L795-.L797)/2
	.byte	(.L796-.L797)/2
	.p2align 1
.L801:
	.loc 1 1563 57 is_stmt 0 discriminator 1
	ldrb	r3, [r0, #62]	@ zero_extendqisi2
	uxtb	r3, r3
	.loc 1 1563 308 discriminator 1
	subs	r3, r3, #1
	it	ne
	movne	r3, #1
.L802:
	.loc 1 1563 6 discriminator 20
	cmp	r3, #0
	bne	.L821
	.loc 1 1569 3 is_stmt 1
	cmp	r1, #16
	bhi	.L804
	tbb	[pc, r1]
.L806:
	.byte	(.L810-.L806)/2
	.byte	(.L804-.L806)/2
	.byte	(.L804-.L806)/2
	.byte	(.L804-.L806)/2
	.byte	(.L809-.L806)/2
	.byte	(.L804-.L806)/2
	.byte	(.L804-.L806)/2
	.byte	(.L804-.L806)/2
	.byte	(.L808-.L806)/2
	.byte	(.L804-.L806)/2
	.byte	(.L804-.L806)/2
	.byte	(.L804-.L806)/2
	.byte	(.L807-.L806)/2
	.byte	(.L804-.L806)/2
	.byte	(.L804-.L806)/2
	.byte	(.L804-.L806)/2
	.byte	(.L805-.L806)/2
	.p2align 1
.L800:
	.loc 1 1563 112 is_stmt 0 discriminator 4
	ldrb	r3, [r0, #63]	@ zero_extendqisi2
	uxtb	r3, r3
	.loc 1 1563 308 discriminator 4
	subs	r3, r3, #1
	it	ne
	movne	r3, #1
	b	.L802
.L799:
	.loc 1 1563 167 discriminator 7
	ldrb	r3, [r0, #64]	@ zero_extendqisi2
	uxtb	r3, r3
	.loc 1 1563 308 discriminator 7
	subs	r3, r3, #1
	it	ne
	movne	r3, #1
	b	.L802
.L798:
	.loc 1 1563 222 discriminator 10
	ldrb	r3, [r0, #65]	@ zero_extendqisi2
	uxtb	r3, r3
	.loc 1 1563 308 discriminator 10
	subs	r3, r3, #1
	it	ne
	movne	r3, #1
	b	.L802
.L796:
	.loc 1 1563 277 discriminator 13
	ldrb	r3, [r0, #66]	@ zero_extendqisi2
	uxtb	r3, r3
	.loc 1 1563 308 discriminator 13
	subs	r3, r3, #1
	it	ne
	movne	r3, #1
	b	.L802
.L795:
	.loc 1 1563 303 discriminator 14
	ldrb	r3, [r0, #67]	@ zero_extendqisi2
	uxtb	r3, r3
	.loc 1 1563 308 discriminator 14
	subs	r3, r3, #1
	it	ne
	movne	r3, #1
	b	.L802
.L810:
	.loc 1 1569 58
	movs	r3, #2
	strb	r3, [r4, #62]
	.loc 1 1571 3 is_stmt 1
.L811:
	.loc 1 1576 7
	.loc 1 1576 14 is_stmt 0
	ldr	r2, [r4]
	.loc 1 1576 24
	ldr	r3, [r2, #12]
	.loc 1 1576 31
	orr	r3, r3, #2
	str	r3, [r2, #12]
	.loc 1 1577 7 is_stmt 1
	.loc 1 1606 3
.L816:
	.loc 1 1609 5
	movs	r2, #1
	ldr	r0, [r4]
.LVL859:
	bl	TIM_CCxChannelCmd
.LVL860:
	.loc 1 1611 5
	.loc 1 1611 16 is_stmt 0
	ldr	r3, [r4]
	.loc 1 1611 359
	ldr	r1, .L829
	ldr	r2, .L829+4
	cmp	r3, r2
	it	ne
	cmpne	r3, r1
	beq	.L817
	.loc 1 1611 183 discriminator 2
	add	r2, r2, #15360
	cmp	r3, r2
	beq	.L817
	.loc 1 1611 271 discriminator 4
	add	r2, r2, #1024
	cmp	r3, r2
	beq	.L817
	.loc 1 1611 359 discriminator 6
	add	r2, r2, #1024
	cmp	r3, r2
	bne	.L818
.L817:
	.loc 1 1614 7 is_stmt 1
	.loc 1 1614 24 is_stmt 0
	ldr	r2, [r3, #68]
	.loc 1 1614 30
	orr	r2, r2, #32768
	str	r2, [r3, #68]
.L818:
	.loc 1 1618 5 is_stmt 1
	.loc 1 1618 16 is_stmt 0
	ldr	r3, [r4]
	.loc 1 1618 8
	ldr	r2, .L829
	cmp	r3, #1073741824
	it	ne
	cmpne	r3, r2
	beq	.L819
	.loc 1 1618 166 discriminator 1
	sub	r2, r2, #64512
	cmp	r3, r2
	beq	.L819
	.loc 1 1618 237 discriminator 2
	add	r2, r2, #1024
	cmp	r3, r2
	beq	.L819
	.loc 1 1618 308 discriminator 3
	add	r2, r2, #1024
	cmp	r3, r2
	beq	.L819
	.loc 1 1618 379 discriminator 4
	add	r2, r2, #63488
	cmp	r3, r2
	beq	.L819
	.loc 1 1618 467 discriminator 5
	sub	r2, r2, #60416
	cmp	r3, r2
	beq	.L819
	.loc 1 1618 538 discriminator 6
	add	r2, r2, #75776
	cmp	r3, r2
	beq	.L819
	.loc 1 1628 7 is_stmt 1
	.loc 1 1628 24 is_stmt 0
	ldr	r2, [r3]
	.loc 1 1628 29
	orr	r2, r2, #1
	str	r2, [r3]
	movs	r0, #0
	b	.L803
.LVL861:
.L809:
	.loc 1 1569 146
	movs	r3, #2
	strb	r3, [r4, #63]
	.loc 1 1571 3 is_stmt 1
.L812:
	.loc 1 1583 7
	.loc 1 1583 14 is_stmt 0
	ldr	r2, [r4]
	.loc 1 1583 24
	ldr	r3, [r2, #12]
	.loc 1 1583 31
	orr	r3, r3, #4
	str	r3, [r2, #12]
	.loc 1 1584 7 is_stmt 1
	.loc 1 1606 3
	b	.L816
.L808:
	.loc 1 1569 234 is_stmt 0
	movs	r3, #2
	strb	r3, [r4, #64]
	.loc 1 1571 3 is_stmt 1
.L813:
	.loc 1 1590 7
	.loc 1 1590 14 is_stmt 0
	ldr	r2, [r4]
	.loc 1 1590 24
	ldr	r3, [r2, #12]
	.loc 1 1590 31
	orr	r3, r3, #8
	str	r3, [r2, #12]
	.loc 1 1591 7 is_stmt 1
	.loc 1 1606 3
	b	.L816
.L807:
	.loc 1 1569 322 is_stmt 0
	movs	r3, #2
	strb	r3, [r4, #65]
	.loc 1 1571 3 is_stmt 1
.L814:
	.loc 1 1597 7
	.loc 1 1597 14 is_stmt 0
	ldr	r2, [r4]
	.loc 1 1597 24
	ldr	r3, [r2, #12]
	.loc 1 1597 31
	orr	r3, r3, #16
	str	r3, [r2, #12]
	.loc 1 1598 7 is_stmt 1
	.loc 1 1606 3
	b	.L816
.L805:
	.loc 1 1569 410 is_stmt 0
	movs	r3, #2
	strb	r3, [r4, #66]
	.loc 1 1571 3 is_stmt 1
	.loc 1 1569 410 is_stmt 0
	movs	r0, #1
.LVL862:
	b	.L803
.LVL863:
.L804:
	.loc 1 1569 469 discriminator 13
	movs	r3, #2
	strb	r3, [r4, #67]
	.loc 1 1571 3 is_stmt 1 discriminator 13
	cmp	r1, #12
	bhi	.L822
	adr	r3, .L815
	ldr	pc, [r3, r1, lsl #2]
	.p2align 2
.L815:
	.word	.L811+1
	.word	.L822+1
	.word	.L822+1
	.word	.L822+1
	.word	.L812+1
	.word	.L822+1
	.word	.L822+1
	.word	.L822+1
	.word	.L813+1
	.word	.L822+1
	.word	.L822+1
	.word	.L822+1
	.word	.L814+1
.LVL864:
	.p2align 1
.L819:
	.loc 1 1620 7
	.loc 1 1620 31 is_stmt 0
	ldr	r1, [r3, #8]
	.loc 1 1620 15
	ldr	r2, .L829+8
	ands	r2, r2, r1
.LVL865:
	.loc 1 1621 7 is_stmt 1
	.loc 1 1621 10 is_stmt 0
	cmp	r2, #6
	it	ne
	cmpne	r2, #65536
	beq	.L823
	.loc 1 1623 9 is_stmt 1
	.loc 1 1623 26 is_stmt 0
	ldr	r2, [r3]
.LVL866:
	.loc 1 1623 31
	orr	r2, r2, #1
	str	r2, [r3]
	movs	r0, #0
	b	.L803
.LVL867:
.L821:
	.loc 1 1565 12
	movs	r0, #1
.LVL868:
.L803:
	.loc 1 1634 1
	pop	{r4, pc}
.LVL869:
.L822:
	.loc 1 1571 3
	movs	r0, #1
.LVL870:
	b	.L803
.LVL871:
.L823:
	movs	r0, #0
	b	.L803
.L830:
	.align	2
.L829:
	.word	1073807360
	.word	1073808384
	.word	65543
	.cfi_endproc
.LFE361:
	.size	HAL_TIM_PWM_Start_IT, .-HAL_TIM_PWM_Start_IT
	.section	.text.HAL_TIM_PWM_Stop_IT,"ax",%progbits
	.align	1
	.global	HAL_TIM_PWM_Stop_IT
	.syntax unified
	.thumb
	.thumb_func
	.type	HAL_TIM_PWM_Stop_IT, %function
HAL_TIM_PWM_Stop_IT:
.LFB362:
	.loc 1 1648 1 is_stmt 1
	.cfi_startproc
	@ args = 0, pretend = 0, frame = 0
	@ frame_needed = 0, uses_anonymous_args = 0
.LVL872:
	push	{r3, r4, r5, lr}
	.cfi_def_cfa_offset 16
	.cfi_offset 3, -16
	.cfi_offset 4, -12
	.cfi_offset 5, -8
	.cfi_offset 14, -4
	mov	r5, r0
	mov	r4, r1
	.loc 1 1649 3
.LVL873:
	.loc 1 1652 3
	.loc 1 1654 3
	cmp	r1, #12
	bhi	.L849
	tbb	[pc, r1]
.L834:
	.byte	(.L837-.L834)/2
	.byte	(.L849-.L834)/2
	.byte	(.L849-.L834)/2
	.byte	(.L849-.L834)/2
	.byte	(.L836-.L834)/2
	.byte	(.L849-.L834)/2
	.byte	(.L849-.L834)/2
	.byte	(.L849-.L834)/2
	.byte	(.L835-.L834)/2
	.byte	(.L849-.L834)/2
	.byte	(.L849-.L834)/2
	.byte	(.L849-.L834)/2
	.byte	(.L833-.L834)/2
	.p2align 1
.L837:
	.loc 1 1659 7
	.loc 1 1659 14 is_stmt 0
	ldr	r2, [r0]
	.loc 1 1659 24
	ldr	r3, [r2, #12]
	.loc 1 1659 31
	bic	r3, r3, #2
	str	r3, [r2, #12]
	.loc 1 1660 7 is_stmt 1
	.loc 1 1689 3
.L838:
	.loc 1 1692 5
	movs	r2, #0
	mov	r1, r4
.LVL874:
	ldr	r0, [r5]
.LVL875:
	bl	TIM_CCxChannelCmd
.LVL876:
	.loc 1 1694 5
	.loc 1 1694 16 is_stmt 0
	ldr	r3, [r5]
	.loc 1 1694 359
	ldr	r1, .L851
	ldr	r2, .L851+4
	cmp	r3, r2
	it	ne
	cmpne	r3, r1
	beq	.L839
	.loc 1 1694 183 discriminator 2
	add	r2, r2, #15360
	cmp	r3, r2
	beq	.L839
	.loc 1 1694 271 discriminator 4
	add	r2, r2, #1024
	cmp	r3, r2
	beq	.L839
	.loc 1 1694 359 discriminator 6
	add	r2, r2, #1024
	cmp	r3, r2
	bne	.L840
.L839:
	.loc 1 1697 7 is_stmt 1
	.loc 1 1697 12
	.loc 1 1697 33 is_stmt 0
	ldr	r1, [r3, #32]
	.loc 1 1697 15
	movw	r2, #4369
	tst	r1, r2
	bne	.L840
	.loc 1 1697 138 is_stmt 1 discriminator 1
	.loc 1 1697 158 is_stmt 0 discriminator 1
	ldr	r1, [r3, #32]
	.loc 1 1697 140 discriminator 1
	movw	r2, #1092
	tst	r1, r2
	bne	.L840
	.loc 1 1697 245 is_stmt 1 discriminator 3
	.loc 1 1697 261 is_stmt 0 discriminator 3
	ldr	r2, [r3, #68]
	.loc 1 1697 268 discriminator 3
	bic	r2, r2, #32768
	str	r2, [r3, #68]
.L840:
	.loc 1 1697 10 is_stmt 1 discriminator 5
	.loc 1 1701 5 discriminator 5
	.loc 1 1701 10 discriminator 5
	.loc 1 1701 21 is_stmt 0 discriminator 5
	ldr	r3, [r5]
	.loc 1 1701 31 discriminator 5
	ldr	r1, [r3, #32]
	.loc 1 1701 13 discriminator 5
	movw	r2, #4369
	tst	r1, r2
	bne	.L841
	.loc 1 1701 136 is_stmt 1 discriminator 1
	.loc 1 1701 156 is_stmt 0 discriminator 1
	ldr	r1, [r3, #32]
	.loc 1 1701 138 discriminator 1
	movw	r2, #1092
	tst	r1, r2
	bne	.L841
	.loc 1 1701 243 is_stmt 1 discriminator 3
	.loc 1 1701 259 is_stmt 0 discriminator 3
	ldr	r2, [r3]
	.loc 1 1701 265 discriminator 3
	bic	r2, r2, #1
	str	r2, [r3]
.L841:
	.loc 1 1701 8 is_stmt 1 discriminator 5
	.loc 1 1704 5 discriminator 5
	.loc 1 1704 93 is_stmt 0 discriminator 5
	cbnz	r4, .L842
	.loc 1 1704 60 discriminator 1
	movs	r3, #1
	strb	r3, [r5, #62]
	movs	r0, #0
	b	.L832
.LVL877:
.L836:
	.loc 1 1666 7 is_stmt 1
	.loc 1 1666 14 is_stmt 0
	ldr	r2, [r0]
	.loc 1 1666 24
	ldr	r3, [r2, #12]
	.loc 1 1666 31
	bic	r3, r3, #4
	str	r3, [r2, #12]
	.loc 1 1667 7 is_stmt 1
	.loc 1 1689 3
	b	.L838
.L835:
	.loc 1 1673 7
	.loc 1 1673 14 is_stmt 0
	ldr	r2, [r0]
	.loc 1 1673 24
	ldr	r3, [r2, #12]
	.loc 1 1673 31
	bic	r3, r3, #8
	str	r3, [r2, #12]
	.loc 1 1674 7 is_stmt 1
	.loc 1 1689 3
	b	.L838
.L833:
	.loc 1 1680 7
	.loc 1 1680 14 is_stmt 0
	ldr	r2, [r0]
	.loc 1 1680 24
	ldr	r3, [r2, #12]
	.loc 1 1680 31
	bic	r3, r3, #16
	str	r3, [r2, #12]
	.loc 1 1681 7 is_stmt 1
	.loc 1 1689 3
	b	.L838
.LVL878:
.L842:
	subs	r4, r4, #4
.LVL879:
	cmp	r4, #12
	bhi	.L843
	tbb	[pc, r4]
.L845:
	.byte	(.L848-.L845)/2
	.byte	(.L843-.L845)/2
	.byte	(.L843-.L845)/2
	.byte	(.L843-.L845)/2
	.byte	(.L847-.L845)/2
	.byte	(.L843-.L845)/2
	.byte	(.L843-.L845)/2
	.byte	(.L843-.L845)/2
	.byte	(.L846-.L845)/2
	.byte	(.L843-.L845)/2
	.byte	(.L843-.L845)/2
	.byte	(.L843-.L845)/2
	.byte	(.L844-.L845)/2
	.p2align 1
.L848:
	.loc 1 1704 149 is_stmt 0 discriminator 3
	movs	r3, #1
	strb	r3, [r5, #63]
	movs	r0, #0
	b	.L832
.L847:
	.loc 1 1704 238 discriminator 6
	movs	r3, #1
	strb	r3, [r5, #64]
	movs	r0, #0
	b	.L832
.L846:
	.loc 1 1704 327 discriminator 9
	movs	r3, #1
	strb	r3, [r5, #65]
	movs	r0, #0
	b	.L832
.L844:
	.loc 1 1704 416 discriminator 12
	movs	r3, #1
	strb	r3, [r5, #66]
	movs	r0, #0
	b	.L832
.L843:
	.loc 1 1704 476 discriminator 13
	movs	r3, #1
	strb	r3, [r5, #67]
	movs	r0, #0
	b	.L832
.LVL880:
.L849:
	.loc 1 1654 3
	movs	r0, #1
.LVL881:
.L832:
	.loc 1 1708 3 is_stmt 1
	.loc 1 1709 1 is_stmt 0
	pop	{r3, r4, r5, pc}
.LVL882:
.L852:
	.align	2
.L851:
	.word	1073807360
	.word	1073808384
	.cfi_endproc
.LFE362:
	.size	HAL_TIM_PWM_Stop_IT, .-HAL_TIM_PWM_Stop_IT
	.section	.text.HAL_TIM_PWM_Start_DMA,"ax",%progbits
	.align	1
	.global	HAL_TIM_PWM_Start_DMA
	.syntax unified
	.thumb
	.thumb_func
	.type	HAL_TIM_PWM_Start_DMA, %function
HAL_TIM_PWM_Start_DMA:
.LFB363:
	.loc 1 1726 1 is_stmt 1
	.cfi_startproc
	@ args = 0, pretend = 0, frame = 0
	@ frame_needed = 0, uses_anonymous_args = 0
.LVL883:
	push	{r3, r4, r5, lr}
	.cfi_def_cfa_offset 16
	.cfi_offset 3, -16
	.cfi_offset 4, -12
	.cfi_offset 5, -8
	.cfi_offset 14, -4
	mov	r5, r0
	mov	r4, r1
	mov	r1, r2
.LVL884:
	.loc 1 1727 3
	.loc 1 1728 3
	.loc 1 1731 3
	.loc 1 1734 3
	cmp	r4, #16
	bhi	.L854
	tbb	[pc, r4]
.LVL885:
.L856:
	.byte	(.L860-.L856)/2
	.byte	(.L854-.L856)/2
	.byte	(.L854-.L856)/2
	.byte	(.L854-.L856)/2
	.byte	(.L859-.L856)/2
	.byte	(.L854-.L856)/2
	.byte	(.L854-.L856)/2
	.byte	(.L854-.L856)/2
	.byte	(.L858-.L856)/2
	.byte	(.L854-.L856)/2
	.byte	(.L854-.L856)/2
	.byte	(.L854-.L856)/2
	.byte	(.L857-.L856)/2
	.byte	(.L854-.L856)/2
	.byte	(.L854-.L856)/2
	.byte	(.L854-.L856)/2
	.byte	(.L855-.L856)/2
	.p2align 1
.L860:
	.loc 1 1734 57 is_stmt 0 discriminator 1
	ldrb	r0, [r0, #62]	@ zero_extendqisi2
.LVL886:
	uxtb	r0, r0
	.loc 1 1734 308 discriminator 1
	cmp	r0, #2
	ite	ne
	movne	r0, #0
	moveq	r0, #1
.L861:
	.loc 1 1734 6 discriminator 20
	cmp	r0, #0
	bne	.L888
	.loc 1 1738 8 is_stmt 1
	cmp	r4, #16
	bhi	.L863
	tbb	[pc, r4]
.L865:
	.byte	(.L869-.L865)/2
	.byte	(.L863-.L865)/2
	.byte	(.L863-.L865)/2
	.byte	(.L863-.L865)/2
	.byte	(.L868-.L865)/2
	.byte	(.L863-.L865)/2
	.byte	(.L863-.L865)/2
	.byte	(.L863-.L865)/2
	.byte	(.L867-.L865)/2
	.byte	(.L863-.L865)/2
	.byte	(.L863-.L865)/2
	.byte	(.L863-.L865)/2
	.byte	(.L866-.L865)/2
	.byte	(.L863-.L865)/2
	.byte	(.L863-.L865)/2
	.byte	(.L863-.L865)/2
	.byte	(.L864-.L865)/2
.LVL887:
	.p2align 1
.L859:
	.loc 1 1734 112 is_stmt 0 discriminator 4
	ldrb	r0, [r0, #63]	@ zero_extendqisi2
.LVL888:
	uxtb	r0, r0
	.loc 1 1734 308 discriminator 4
	cmp	r0, #2
	ite	ne
	movne	r0, #0
	moveq	r0, #1
	b	.L861
.LVL889:
.L858:
	.loc 1 1734 167 discriminator 7
	ldrb	r0, [r0, #64]	@ zero_extendqisi2
.LVL890:
	uxtb	r0, r0
	.loc 1 1734 308 discriminator 7
	cmp	r0, #2
	ite	ne
	movne	r0, #0
	moveq	r0, #1
	b	.L861
.LVL891:
.L857:
	.loc 1 1734 222 discriminator 10
	ldrb	r0, [r0, #65]	@ zero_extendqisi2
.LVL892:
	uxtb	r0, r0
	.loc 1 1734 308 discriminator 10
	cmp	r0, #2
	ite	ne
	movne	r0, #0
	moveq	r0, #1
	b	.L861
.LVL893:
.L855:
	.loc 1 1734 277 discriminator 13
	ldrb	r0, [r0, #66]	@ zero_extendqisi2
.LVL894:
	uxtb	r0, r0
	.loc 1 1734 308 discriminator 13
	cmp	r0, #2
	ite	ne
	movne	r0, #0
	moveq	r0, #1
	b	.L861
.LVL895:
.L854:
	.loc 1 1734 303 discriminator 14
	ldrb	r0, [r0, #67]	@ zero_extendqisi2
.LVL896:
	uxtb	r0, r0
	.loc 1 1734 308 discriminator 14
	cmp	r0, #2
	ite	ne
	movne	r0, #0
	moveq	r0, #1
	b	.L861
.L869:
	.loc 1 1738 62 discriminator 1
	ldrb	r2, [r5, #62]	@ zero_extendqisi2
	uxtb	r2, r2
	.loc 1 1738 313 discriminator 1
	cmp	r2, #1
	ite	ne
	movne	r2, #0
	moveq	r2, #1
.L870:
	.loc 1 1738 11 discriminator 20
	cmp	r2, #0
	beq	.L889
	.loc 1 1740 5 is_stmt 1
	.loc 1 1740 8 is_stmt 0
	cmp	r3, #0
	it	ne
	cmpne	r1, #0
	beq	.L890
	.loc 1 1746 7 is_stmt 1
	cmp	r4, #16
	bhi	.L871
	tbh	[pc, r4, lsl #1]
.L873:
	.2byte	(.L877-.L873)/2
	.2byte	(.L871-.L873)/2
	.2byte	(.L871-.L873)/2
	.2byte	(.L871-.L873)/2
	.2byte	(.L876-.L873)/2
	.2byte	(.L871-.L873)/2
	.2byte	(.L871-.L873)/2
	.2byte	(.L871-.L873)/2
	.2byte	(.L875-.L873)/2
	.2byte	(.L871-.L873)/2
	.2byte	(.L871-.L873)/2
	.2byte	(.L871-.L873)/2
	.2byte	(.L874-.L873)/2
	.2byte	(.L871-.L873)/2
	.2byte	(.L871-.L873)/2
	.2byte	(.L871-.L873)/2
	.2byte	(.L872-.L873)/2
	.p2align 1
.L868:
	.loc 1 1738 117 is_stmt 0 discriminator 4
	ldrb	r2, [r5, #63]	@ zero_extendqisi2
	uxtb	r2, r2
	.loc 1 1738 313 discriminator 4
	cmp	r2, #1
	ite	ne
	movne	r2, #0
	moveq	r2, #1
	b	.L870
.L867:
	.loc 1 1738 172 discriminator 7
	ldrb	r2, [r5, #64]	@ zero_extendqisi2
	uxtb	r2, r2
	.loc 1 1738 313 discriminator 7
	cmp	r2, #1
	ite	ne
	movne	r2, #0
	moveq	r2, #1
	b	.L870
.L866:
	.loc 1 1738 227 discriminator 10
	ldrb	r2, [r5, #65]	@ zero_extendqisi2
	uxtb	r2, r2
	.loc 1 1738 313 discriminator 10
	cmp	r2, #1
	ite	ne
	movne	r2, #0
	moveq	r2, #1
	b	.L870
.L864:
	.loc 1 1738 282 discriminator 13
	ldrb	r2, [r5, #66]	@ zero_extendqisi2
	uxtb	r2, r2
	.loc 1 1738 313 discriminator 13
	cmp	r2, #1
	ite	ne
	movne	r2, #0
	moveq	r2, #1
	b	.L870
.L863:
	.loc 1 1738 308 discriminator 14
	ldrb	r2, [r5, #67]	@ zero_extendqisi2
	uxtb	r2, r2
	.loc 1 1738 313 discriminator 14
	cmp	r2, #1
	ite	ne
	movne	r2, #0
	moveq	r2, #1
	b	.L870
.L877:
	.loc 1 1746 62
	movs	r2, #2
	strb	r2, [r5, #62]
	.loc 1 1754 3 is_stmt 1
.L878:
	.loc 1 1759 7
	.loc 1 1759 17 is_stmt 0
	ldr	r2, [r5, #36]
	.loc 1 1759 57
	ldr	r0, .L902
	str	r0, [r2, #60]
	.loc 1 1760 7 is_stmt 1
	.loc 1 1760 17 is_stmt 0
	ldr	r2, [r5, #36]
	.loc 1 1760 61
	ldr	r0, .L902+4
	str	r0, [r2, #64]
	.loc 1 1763 7 is_stmt 1
	.loc 1 1763 17 is_stmt 0
	ldr	r2, [r5, #36]
	.loc 1 1763 58
	ldr	r0, .L902+8
	str	r0, [r2, #76]
	.loc 1 1766 7 is_stmt 1
	.loc 1 1766 93 is_stmt 0
	ldr	r2, [r5]
	.loc 1 1766 11
	adds	r2, r2, #52
	ldr	r0, [r5, #36]
	bl	HAL_DMA_Start_IT
.LVL897:
	.loc 1 1766 10
	cmp	r0, #0
	bne	.L892
	.loc 1 1774 7 is_stmt 1
	.loc 1 1774 14 is_stmt 0
	ldr	r2, [r5]
	.loc 1 1774 24
	ldr	r3, [r2, #12]
	.loc 1 1774 31
	orr	r3, r3, #512
	str	r3, [r2, #12]
	.loc 1 1775 7 is_stmt 1
	.loc 1 1846 3
.L883:
	.loc 1 1849 5
	movs	r2, #1
	mov	r1, r4
	ldr	r0, [r5]
	bl	TIM_CCxChannelCmd
.LVL898:
	.loc 1 1851 5
	.loc 1 1851 16 is_stmt 0
	ldr	r3, [r5]
	.loc 1 1851 359
	ldr	r1, .L902+12
	ldr	r2, .L902+16
	cmp	r3, r2
	it	ne
	cmpne	r3, r1
	beq	.L884
	.loc 1 1851 183 discriminator 2
	add	r2, r2, #15360
	cmp	r3, r2
	beq	.L884
	.loc 1 1851 271 discriminator 4
	add	r2, r2, #1024
	cmp	r3, r2
	beq	.L884
	.loc 1 1851 359 discriminator 6
	add	r2, r2, #1024
	cmp	r3, r2
	bne	.L885
.L884:
	.loc 1 1854 7 is_stmt 1
	.loc 1 1854 24 is_stmt 0
	ldr	r2, [r3, #68]
	.loc 1 1854 30
	orr	r2, r2, #32768
	str	r2, [r3, #68]
.L885:
	.loc 1 1858 5 is_stmt 1
	.loc 1 1858 16 is_stmt 0
	ldr	r3, [r5]
	.loc 1 1858 8
	ldr	r2, .L902+12
	cmp	r3, #1073741824
	it	ne
	cmpne	r3, r2
	beq	.L886
	.loc 1 1858 166 discriminator 1
	sub	r2, r2, #64512
	cmp	r3, r2
	beq	.L886
	.loc 1 1858 237 discriminator 2
	add	r2, r2, #1024
	cmp	r3, r2
	beq	.L886
	.loc 1 1858 308 discriminator 3
	add	r2, r2, #1024
	cmp	r3, r2
	beq	.L886
	.loc 1 1858 379 discriminator 4
	add	r2, r2, #63488
	cmp	r3, r2
	beq	.L886
	.loc 1 1858 467 discriminator 5
	sub	r2, r2, #60416
	cmp	r3, r2
	beq	.L886
	.loc 1 1858 538 discriminator 6
	add	r2, r2, #75776
	cmp	r3, r2
	beq	.L886
	.loc 1 1868 7 is_stmt 1
	.loc 1 1868 24 is_stmt 0
	ldr	r2, [r3]
	.loc 1 1868 29
	orr	r2, r2, #1
	str	r2, [r3]
	movs	r0, #0
	b	.L862
.LVL899:
.L876:
	.loc 1 1746 150
	movs	r2, #2
	strb	r2, [r5, #63]
	.loc 1 1754 3 is_stmt 1
.L879:
	.loc 1 1781 7
	.loc 1 1781 17 is_stmt 0
	ldr	r2, [r5, #40]
	.loc 1 1781 57
	ldr	r0, .L902
	str	r0, [r2, #60]
	.loc 1 1782 7 is_stmt 1
	.loc 1 1782 17 is_stmt 0
	ldr	r2, [r5, #40]
	.loc 1 1782 61
	ldr	r0, .L902+4
	str	r0, [r2, #64]
	.loc 1 1785 7 is_stmt 1
	.loc 1 1785 17 is_stmt 0
	ldr	r2, [r5, #40]
	.loc 1 1785 58
	ldr	r0, .L902+8
	str	r0, [r2, #76]
	.loc 1 1788 7 is_stmt 1
	.loc 1 1788 93 is_stmt 0
	ldr	r2, [r5]
	.loc 1 1788 11
	adds	r2, r2, #56
	ldr	r0, [r5, #40]
	bl	HAL_DMA_Start_IT
.LVL900:
	.loc 1 1788 10
	cmp	r0, #0
	bne	.L893
	.loc 1 1795 7 is_stmt 1
	.loc 1 1795 14 is_stmt 0
	ldr	r2, [r5]
	.loc 1 1795 24
	ldr	r3, [r2, #12]
	.loc 1 1795 31
	orr	r3, r3, #1024
	str	r3, [r2, #12]
	.loc 1 1796 7 is_stmt 1
	.loc 1 1846 3
	b	.L883
.LVL901:
.L875:
	.loc 1 1746 238 is_stmt 0
	movs	r2, #2
	strb	r2, [r5, #64]
	.loc 1 1754 3 is_stmt 1
.L880:
	.loc 1 1802 7
	.loc 1 1802 17 is_stmt 0
	ldr	r2, [r5, #44]
	.loc 1 1802 57
	ldr	r0, .L902
	str	r0, [r2, #60]
	.loc 1 1803 7 is_stmt 1
	.loc 1 1803 17 is_stmt 0
	ldr	r2, [r5, #44]
	.loc 1 1803 61
	ldr	r0, .L902+4
	str	r0, [r2, #64]
	.loc 1 1806 7 is_stmt 1
	.loc 1 1806 17 is_stmt 0
	ldr	r2, [r5, #44]
	.loc 1 1806 58
	ldr	r0, .L902+8
	str	r0, [r2, #76]
	.loc 1 1809 7 is_stmt 1
	.loc 1 1809 93 is_stmt 0
	ldr	r2, [r5]
	.loc 1 1809 11
	adds	r2, r2, #60
	ldr	r0, [r5, #44]
	bl	HAL_DMA_Start_IT
.LVL902:
	.loc 1 1809 10
	cmp	r0, #0
	bne	.L894
	.loc 1 1816 7 is_stmt 1
	.loc 1 1816 14 is_stmt 0
	ldr	r2, [r5]
	.loc 1 1816 24
	ldr	r3, [r2, #12]
	.loc 1 1816 31
	orr	r3, r3, #2048
	str	r3, [r2, #12]
	.loc 1 1817 7 is_stmt 1
	.loc 1 1846 3
	b	.L883
.LVL903:
.L874:
	.loc 1 1746 326 is_stmt 0
	movs	r2, #2
	strb	r2, [r5, #65]
	.loc 1 1754 3 is_stmt 1
.L881:
	.loc 1 1823 7
	.loc 1 1823 17 is_stmt 0
	ldr	r2, [r5, #48]
	.loc 1 1823 57
	ldr	r0, .L902
	str	r0, [r2, #60]
	.loc 1 1824 7 is_stmt 1
	.loc 1 1824 17 is_stmt 0
	ldr	r2, [r5, #48]
	.loc 1 1824 61
	ldr	r0, .L902+4
	str	r0, [r2, #64]
	.loc 1 1827 7 is_stmt 1
	.loc 1 1827 17 is_stmt 0
	ldr	r2, [r5, #48]
	.loc 1 1827 58
	ldr	r0, .L902+8
	str	r0, [r2, #76]
	.loc 1 1830 7 is_stmt 1
	.loc 1 1830 93 is_stmt 0
	ldr	r2, [r5]
	.loc 1 1830 11
	adds	r2, r2, #64
	ldr	r0, [r5, #48]
	bl	HAL_DMA_Start_IT
.LVL904:
	.loc 1 1830 10
	cmp	r0, #0
	bne	.L895
	.loc 1 1837 7 is_stmt 1
	.loc 1 1837 14 is_stmt 0
	ldr	r2, [r5]
	.loc 1 1837 24
	ldr	r3, [r2, #12]
	.loc 1 1837 31
	orr	r3, r3, #4096
	str	r3, [r2, #12]
	.loc 1 1838 7 is_stmt 1
	.loc 1 1846 3
	b	.L883
.LVL905:
.L872:
	.loc 1 1746 414 is_stmt 0
	movs	r3, #2
.LVL906:
	strb	r3, [r5, #66]
	.loc 1 1754 3 is_stmt 1
	.loc 1 1746 414 is_stmt 0
	movs	r0, #1
	b	.L862
.LVL907:
.L871:
	.loc 1 1746 473 discriminator 13
	movs	r2, #2
	strb	r2, [r5, #67]
	.loc 1 1754 3 is_stmt 1 discriminator 13
	cmp	r4, #12
	bhi	.L891
	adr	r2, .L882
	ldr	pc, [r2, r4, lsl #2]
	.p2align 2
.L882:
	.word	.L878+1
	.word	.L891+1
	.word	.L891+1
	.word	.L891+1
	.word	.L879+1
	.word	.L891+1
	.word	.L891+1
	.word	.L891+1
	.word	.L880+1
	.word	.L891+1
	.word	.L891+1
	.word	.L891+1
	.word	.L881+1
.LVL908:
	.p2align 1
.L886:
	.loc 1 1860 7
	.loc 1 1860 31 is_stmt 0
	ldr	r1, [r3, #8]
	.loc 1 1860 15
	ldr	r2, .L902+20
	ands	r2, r2, r1
.LVL909:
	.loc 1 1861 7 is_stmt 1
	.loc 1 1861 10 is_stmt 0
	cmp	r2, #6
	it	ne
	cmpne	r2, #65536
	beq	.L896
	.loc 1 1863 9 is_stmt 1
	.loc 1 1863 26 is_stmt 0
	ldr	r2, [r3]
.LVL910:
	.loc 1 1863 31
	orr	r2, r2, #1
	str	r2, [r3]
	movs	r0, #0
	b	.L862
.LVL911:
.L888:
	.loc 1 1736 12
	movs	r0, #2
	b	.L862
.L889:
	.loc 1 1751 12
	movs	r0, #1
.LVL912:
.L862:
	.loc 1 1874 1
	pop	{r3, r4, r5, pc}
.LVL913:
.L890:
	.loc 1 1742 14
	movs	r0, #1
	b	.L862
.L891:
	.loc 1 1754 3
	movs	r0, #1
	b	.L862
.LVL914:
.L892:
	.loc 1 1770 16
	movs	r0, #1
	b	.L862
.L893:
	.loc 1 1792 16
	movs	r0, #1
	b	.L862
.L894:
	.loc 1 1813 16
	movs	r0, #1
	b	.L862
.L895:
	.loc 1 1834 16
	movs	r0, #1
	b	.L862
.LVL915:
.L896:
	movs	r0, #0
	b	.L862
.L903:
	.align	2
.L902:
	.word	TIM_DMADelayPulseCplt
	.word	TIM_DMADelayPulseHalfCplt
	.word	TIM_DMAError
	.word	1073807360
	.word	1073808384
	.word	65543
	.cfi_endproc
.LFE363:
	.size	HAL_TIM_PWM_Start_DMA, .-HAL_TIM_PWM_Start_DMA
	.section	.text.HAL_TIM_PWM_Stop_DMA,"ax",%progbits
	.align	1
	.global	HAL_TIM_PWM_Stop_DMA
	.syntax unified
	.thumb
	.thumb_func
	.type	HAL_TIM_PWM_Stop_DMA, %function
HAL_TIM_PWM_Stop_DMA:
.LFB364:
	.loc 1 1888 1 is_stmt 1
	.cfi_startproc
	@ args = 0, pretend = 0, frame = 0
	@ frame_needed = 0, uses_anonymous_args = 0
.LVL916:
	push	{r3, r4, r5, lr}
	.cfi_def_cfa_offset 16
	.cfi_offset 3, -16
	.cfi_offset 4, -12
	.cfi_offset 5, -8
	.cfi_offset 14, -4
	mov	r5, r0
	mov	r4, r1
	.loc 1 1889 3
.LVL917:
	.loc 1 1892 3
	.loc 1 1894 3
	cmp	r1, #12
	bhi	.L922
	tbb	[pc, r1]
.L907:
	.byte	(.L910-.L907)/2
	.byte	(.L922-.L907)/2
	.byte	(.L922-.L907)/2
	.byte	(.L922-.L907)/2
	.byte	(.L909-.L907)/2
	.byte	(.L922-.L907)/2
	.byte	(.L922-.L907)/2
	.byte	(.L922-.L907)/2
	.byte	(.L908-.L907)/2
	.byte	(.L922-.L907)/2
	.byte	(.L922-.L907)/2
	.byte	(.L922-.L907)/2
	.byte	(.L906-.L907)/2
	.p2align 1
.L910:
	.loc 1 1899 7
	.loc 1 1899 14 is_stmt 0
	ldr	r2, [r0]
	.loc 1 1899 24
	ldr	r3, [r2, #12]
	.loc 1 1899 31
	bic	r3, r3, #512
	str	r3, [r2, #12]
	.loc 1 1900 7 is_stmt 1
	.loc 1 1900 13 is_stmt 0
	ldr	r0, [r0, #36]
.LVL918:
	bl	HAL_DMA_Abort_IT
.LVL919:
	.loc 1 1901 7 is_stmt 1
	.loc 1 1933 3
.L911:
	.loc 1 1936 5
	movs	r2, #0
	mov	r1, r4
	ldr	r0, [r5]
	bl	TIM_CCxChannelCmd
.LVL920:
	.loc 1 1938 5
	.loc 1 1938 16 is_stmt 0
	ldr	r3, [r5]
	.loc 1 1938 359
	ldr	r1, .L924
	ldr	r2, .L924+4
	cmp	r3, r2
	it	ne
	cmpne	r3, r1
	beq	.L912
	.loc 1 1938 183 discriminator 2
	add	r2, r2, #15360
	cmp	r3, r2
	beq	.L912
	.loc 1 1938 271 discriminator 4
	add	r2, r2, #1024
	cmp	r3, r2
	beq	.L912
	.loc 1 1938 359 discriminator 6
	add	r2, r2, #1024
	cmp	r3, r2
	bne	.L913
.L912:
	.loc 1 1941 7 is_stmt 1
	.loc 1 1941 12
	.loc 1 1941 33 is_stmt 0
	ldr	r1, [r3, #32]
	.loc 1 1941 15
	movw	r2, #4369
	tst	r1, r2
	bne	.L913
	.loc 1 1941 138 is_stmt 1 discriminator 1
	.loc 1 1941 158 is_stmt 0 discriminator 1
	ldr	r1, [r3, #32]
	.loc 1 1941 140 discriminator 1
	movw	r2, #1092
	tst	r1, r2
	bne	.L913
	.loc 1 1941 245 is_stmt 1 discriminator 3
	.loc 1 1941 261 is_stmt 0 discriminator 3
	ldr	r2, [r3, #68]
	.loc 1 1941 268 discriminator 3
	bic	r2, r2, #32768
	str	r2, [r3, #68]
.L913:
	.loc 1 1941 10 is_stmt 1 discriminator 5
	.loc 1 1945 5 discriminator 5
	.loc 1 1945 10 discriminator 5
	.loc 1 1945 21 is_stmt 0 discriminator 5
	ldr	r3, [r5]
	.loc 1 1945 31 discriminator 5
	ldr	r1, [r3, #32]
	.loc 1 1945 13 discriminator 5
	movw	r2, #4369
	tst	r1, r2
	bne	.L914
	.loc 1 1945 136 is_stmt 1 discriminator 1
	.loc 1 1945 156 is_stmt 0 discriminator 1
	ldr	r1, [r3, #32]
	.loc 1 1945 138 discriminator 1
	movw	r2, #1092
	tst	r1, r2
	bne	.L914
	.loc 1 1945 243 is_stmt 1 discriminator 3
	.loc 1 1945 259 is_stmt 0 discriminator 3
	ldr	r2, [r3]
	.loc 1 1945 265 discriminator 3
	bic	r2, r2, #1
	str	r2, [r3]
.L914:
	.loc 1 1945 8 is_stmt 1 discriminator 5
	.loc 1 1948 5 discriminator 5
	.loc 1 1948 93 is_stmt 0 discriminator 5
	cbnz	r4, .L915
	.loc 1 1948 60 discriminator 1
	movs	r3, #1
	strb	r3, [r5, #62]
	movs	r0, #0
	b	.L905
.LVL921:
.L909:
	.loc 1 1907 7 is_stmt 1
	.loc 1 1907 14 is_stmt 0
	ldr	r2, [r0]
	.loc 1 1907 24
	ldr	r3, [r2, #12]
	.loc 1 1907 31
	bic	r3, r3, #1024
	str	r3, [r2, #12]
	.loc 1 1908 7 is_stmt 1
	.loc 1 1908 13 is_stmt 0
	ldr	r0, [r0, #40]
.LVL922:
	bl	HAL_DMA_Abort_IT
.LVL923:
	.loc 1 1909 7 is_stmt 1
	.loc 1 1933 3
	b	.L911
.LVL924:
.L908:
	.loc 1 1915 7
	.loc 1 1915 14 is_stmt 0
	ldr	r2, [r0]
	.loc 1 1915 24
	ldr	r3, [r2, #12]
	.loc 1 1915 31
	bic	r3, r3, #2048
	str	r3, [r2, #12]
	.loc 1 1916 7 is_stmt 1
	.loc 1 1916 13 is_stmt 0
	ldr	r0, [r0, #44]
.LVL925:
	bl	HAL_DMA_Abort_IT
.LVL926:
	.loc 1 1917 7 is_stmt 1
	.loc 1 1933 3
	b	.L911
.LVL927:
.L906:
	.loc 1 1923 7
	.loc 1 1923 14 is_stmt 0
	ldr	r2, [r0]
	.loc 1 1923 24
	ldr	r3, [r2, #12]
	.loc 1 1923 31
	bic	r3, r3, #4096
	str	r3, [r2, #12]
	.loc 1 1924 7 is_stmt 1
	.loc 1 1924 13 is_stmt 0
	ldr	r0, [r0, #48]
.LVL928:
	bl	HAL_DMA_Abort_IT
.LVL929:
	.loc 1 1925 7 is_stmt 1
	.loc 1 1933 3
	b	.L911
.L915:
	subs	r4, r4, #4
.LVL930:
	cmp	r4, #12
	bhi	.L916
	tbb	[pc, r4]
.L918:
	.byte	(.L921-.L918)/2
	.byte	(.L916-.L918)/2
	.byte	(.L916-.L918)/2
	.byte	(.L916-.L918)/2
	.byte	(.L920-.L918)/2
	.byte	(.L916-.L918)/2
	.byte	(.L916-.L918)/2
	.byte	(.L916-.L918)/2
	.byte	(.L919-.L918)/2
	.byte	(.L916-.L918)/2
	.byte	(.L916-.L918)/2
	.byte	(.L916-.L918)/2
	.byte	(.L917-.L918)/2
	.p2align 1
.L921:
	.loc 1 1948 149 is_stmt 0 discriminator 3
	movs	r3, #1
	strb	r3, [r5, #63]
	movs	r0, #0
	b	.L905
.L920:
	.loc 1 1948 238 discriminator 6
	movs	r3, #1
	strb	r3, [r5, #64]
	movs	r0, #0
	b	.L905
.L919:
	.loc 1 1948 327 discriminator 9
	movs	r3, #1
	strb	r3, [r5, #65]
	movs	r0, #0
	b	.L905
.L917:
	.loc 1 1948 416 discriminator 12
	movs	r3, #1
	strb	r3, [r5, #66]
	movs	r0, #0
	b	.L905
.L916:
	.loc 1 1948 476 discriminator 13
	movs	r3, #1
	strb	r3, [r5, #67]
	movs	r0, #0
	b	.L905
.LVL931:
.L922:
	.loc 1 1894 3
	movs	r0, #1
.LVL932:
.L905:
	.loc 1 1952 3 is_stmt 1
	.loc 1 1953 1 is_stmt 0
	pop	{r3, r4, r5, pc}
.LVL933:
.L925:
	.align	2
.L924:
	.word	1073807360
	.word	1073808384
	.cfi_endproc
.LFE364:
	.size	HAL_TIM_PWM_Stop_DMA, .-HAL_TIM_PWM_Stop_DMA
	.section	.text.HAL_TIM_IC_Start,"ax",%progbits
	.align	1
	.global	HAL_TIM_IC_Start
	.syntax unified
	.thumb
	.thumb_func
	.type	HAL_TIM_IC_Start, %function
HAL_TIM_IC_Start:
.LFB369:
	.loc 1 2130 1 is_stmt 1
	.cfi_startproc
	@ args = 0, pretend = 0, frame = 0
	@ frame_needed = 0, uses_anonymous_args = 0
.LVL934:
	push	{r4, lr}
	.cfi_def_cfa_offset 8
	.cfi_offset 4, -8
	.cfi_offset 14, -4
	mov	r4, r0
	.loc 1 2131 3
	.loc 1 2132 3
	cmp	r1, #16
	bhi	.L927
	tbb	[pc, r1]
.L929:
	.byte	(.L933-.L929)/2
	.byte	(.L927-.L929)/2
	.byte	(.L927-.L929)/2
	.byte	(.L927-.L929)/2
	.byte	(.L932-.L929)/2
	.byte	(.L927-.L929)/2
	.byte	(.L927-.L929)/2
	.byte	(.L927-.L929)/2
	.byte	(.L931-.L929)/2
	.byte	(.L927-.L929)/2
	.byte	(.L927-.L929)/2
	.byte	(.L927-.L929)/2
	.byte	(.L930-.L929)/2
	.byte	(.L927-.L929)/2
	.byte	(.L927-.L929)/2
	.byte	(.L927-.L929)/2
	.byte	(.L928-.L929)/2
	.p2align 1
.L933:
	.loc 1 2132 101 is_stmt 0 discriminator 1
	ldrb	r2, [r0, #62]	@ zero_extendqisi2
	uxtb	r2, r2
.L934:
.LVL935:
	.loc 1 2133 3 is_stmt 1 discriminator 20
	.loc 1 2133 116 is_stmt 0 discriminator 20
	cbnz	r1, .L935
	.loc 1 2133 116 discriminator 1
	ldrb	r3, [r4, #68]	@ zero_extendqisi2
	uxtb	r3, r3
.L936:
.LVL936:
	.loc 1 2136 3 is_stmt 1 discriminator 12
	.loc 1 2139 3 discriminator 12
	.loc 1 2139 6 is_stmt 0 discriminator 12
	cmp	r3, #1
	it	eq
	cmpeq	r2, #1
	bne	.L953
	.loc 1 2146 3 is_stmt 1
	cmp	r1, #16
	bhi	.L940
	tbb	[pc, r1]
.LVL937:
.L942:
	.byte	(.L946-.L942)/2
	.byte	(.L940-.L942)/2
	.byte	(.L940-.L942)/2
	.byte	(.L940-.L942)/2
	.byte	(.L945-.L942)/2
	.byte	(.L940-.L942)/2
	.byte	(.L940-.L942)/2
	.byte	(.L940-.L942)/2
	.byte	(.L944-.L942)/2
	.byte	(.L940-.L942)/2
	.byte	(.L940-.L942)/2
	.byte	(.L940-.L942)/2
	.byte	(.L943-.L942)/2
	.byte	(.L940-.L942)/2
	.byte	(.L940-.L942)/2
	.byte	(.L940-.L942)/2
	.byte	(.L941-.L942)/2
	.p2align 1
.L932:
	.loc 1 2132 101 is_stmt 0 discriminator 4
	ldrb	r2, [r0, #63]	@ zero_extendqisi2
	uxtb	r2, r2
	b	.L934
.L931:
	.loc 1 2132 101 discriminator 7
	ldrb	r2, [r0, #64]	@ zero_extendqisi2
	uxtb	r2, r2
	b	.L934
.L930:
	.loc 1 2132 101 discriminator 10
	ldrb	r2, [r0, #65]	@ zero_extendqisi2
	uxtb	r2, r2
	b	.L934
.L928:
	.loc 1 2132 101 discriminator 13
	ldrb	r2, [r0, #66]	@ zero_extendqisi2
	uxtb	r2, r2
	b	.L934
.L927:
	.loc 1 2132 101 discriminator 14
	ldrb	r2, [r0, #67]	@ zero_extendqisi2
	uxtb	r2, r2
	b	.L934
.LVL938:
.L935:
	.loc 1 2133 116 discriminator 2
	cmp	r1, #4
	beq	.L956
	.loc 1 2133 116 discriminator 5
	cmp	r1, #8
	beq	.L957
	.loc 1 2133 116 discriminator 8
	ldrb	r3, [r4, #71]	@ zero_extendqisi2
	uxtb	r3, r3
	b	.L936
.L956:
	.loc 1 2133 116 discriminator 4
	ldrb	r3, [r4, #69]	@ zero_extendqisi2
	uxtb	r3, r3
	b	.L936
.L957:
	.loc 1 2133 116 discriminator 7
	ldrb	r3, [r4, #70]	@ zero_extendqisi2
	uxtb	r3, r3
	b	.L936
.LVL939:
.L946:
	.loc 1 2146 58
	movs	r3, #2
	strb	r3, [r4, #62]
	.loc 1 2147 3 is_stmt 1
	.loc 1 2147 59 is_stmt 0
	strb	r3, [r4, #68]
	b	.L947
.L945:
	.loc 1 2146 146
	movs	r3, #2
	strb	r3, [r4, #63]
	.loc 1 2147 3 is_stmt 1
.L948:
	.loc 1 2147 180 is_stmt 0 discriminator 2
	cmp	r1, #4
	beq	.L958
	.loc 1 2147 269 discriminator 4
	cmp	r1, #8
	beq	.L959
	.loc 1 2147 297 discriminator 7
	movs	r3, #2
	strb	r3, [r4, #71]
.L947:
	.loc 1 2150 3 is_stmt 1
	movs	r2, #1
.LVL940:
	ldr	r0, [r4]
.LVL941:
	bl	TIM_CCxChannelCmd
.LVL942:
	.loc 1 2153 3
	.loc 1 2153 14 is_stmt 0
	ldr	r3, [r4]
	.loc 1 2153 6
	ldr	r2, .L960
	cmp	r3, #1073741824
	it	ne
	cmpne	r3, r2
	beq	.L951
	.loc 1 2153 164 discriminator 1
	sub	r2, r2, #64512
	cmp	r3, r2
	beq	.L951
	.loc 1 2153 235 discriminator 2
	add	r2, r2, #1024
	cmp	r3, r2
	beq	.L951
	.loc 1 2153 306 discriminator 3
	add	r2, r2, #1024
	cmp	r3, r2
	beq	.L951
	.loc 1 2153 377 discriminator 4
	add	r2, r2, #63488
	cmp	r3, r2
	beq	.L951
	.loc 1 2153 465 discriminator 5
	sub	r2, r2, #60416
	cmp	r3, r2
	beq	.L951
	.loc 1 2153 536 discriminator 6
	add	r2, r2, #75776
	cmp	r3, r2
	beq	.L951
	.loc 1 2163 5 is_stmt 1
	.loc 1 2163 22 is_stmt 0
	ldr	r2, [r3]
	.loc 1 2163 27
	orr	r2, r2, #1
	str	r2, [r3]
	.loc 1 2167 10
	movs	r0, #0
	b	.L939
.LVL943:
.L944:
	.loc 1 2146 234
	movs	r3, #2
