	.cpu cortex-m7
	.arch armv7e-m
	.fpu fpv5-d16
	.eabi_attribute 28, 1
	.eabi_attribute 20, 1
	.eabi_attribute 21, 1
	.eabi_attribute 23, 3
	.eabi_attribute 24, 1
	.eabi_attribute 25, 1
	.eabi_attribute 26, 1
	.eabi_attribute 30, 1
	.eabi_attribute 34, 1
	.eabi_attribute 18, 4
	.file	"stm32h7xx_hal_fdcan.c"
	.text
.Ltext0:
	.cfi_sections	.debug_frame
	.file 1 "D:/RTOS/Board/YD-STM32H7xxVx_ClassicV19/cmake-build-debug/_deps/stm32h7xx_hal_driver-src/Src/stm32h7xx_hal_fdcan.c"
	.section	.text.FDCAN_CalcultateRamBlockAddresses,"ax",%progbits
	.align	1
	.syntax unified
	.thumb
	.thumb_func
	.type	FDCAN_CalcultateRamBlockAddresses, %function
FDCAN_CalcultateRamBlockAddresses:
.LFB433:
	.loc 1 6092 1
	.cfi_startproc
	@ args = 0, pretend = 0, frame = 0
	@ frame_needed = 0, uses_anonymous_args = 0
	@ link register save eliminated.
.LVL0:
	push	{r4, r5}
	.cfi_def_cfa_offset 8
	.cfi_offset 4, -8
	.cfi_offset 5, -4
	.loc 1 6093 3
	.loc 1 6094 3
	.loc 1 6096 3
	.loc 1 6096 16 is_stmt 0
	ldr	r1, [r0, #52]
.LVL1:
	.loc 1 6099 3 is_stmt 1
	.loc 1 6099 46 is_stmt 0
	ldr	r4, [r0]
	.loc 1 6099 56
	ldr	r3, [r4, #132]
	.loc 1 6099 67
	ldr	r2, .L6
	ands	r3, r3, r2
	.loc 1 6099 94
	orr	r3, r3, r1, lsl #2
	.loc 1 6099 32
	str	r3, [r4, #132]
	.loc 1 6102 3 is_stmt 1
	.loc 1 6102 46 is_stmt 0
	ldr	r4, [r0]
	.loc 1 6102 56
	ldr	r3, [r4, #132]
	.loc 1 6102 67
	bic	r3, r3, #16711680
	.loc 1 6102 93
	ldr	r5, [r0, #56]
	orr	r3, r3, r5, lsl #16
	.loc 1 6102 32
	str	r3, [r4, #132]
	.loc 1 6105 3 is_stmt 1
	.loc 1 6105 31 is_stmt 0
	ldr	r3, [r0, #56]
	.loc 1 6105 16
	add	r3, r3, r1
.LVL2:
	.loc 1 6106 3 is_stmt 1
	.loc 1 6106 46 is_stmt 0
	ldr	r4, [r0]
	.loc 1 6106 56
	ldr	r1, [r4, #136]
	.loc 1 6106 67
	ands	r1, r1, r2
	.loc 1 6106 94
	orr	r1, r1, r3, lsl #2
	.loc 1 6106 32
	str	r1, [r4, #136]
	.loc 1 6109 3 is_stmt 1
	.loc 1 6109 46 is_stmt 0
	ldr	r4, [r0]
	.loc 1 6109 56
	ldr	r1, [r4, #136]
	.loc 1 6109 67
	bic	r1, r1, #8323072
	.loc 1 6109 93
	ldr	r5, [r0, #60]
	orr	r1, r1, r5, lsl #16
	.loc 1 6109 32
	str	r1, [r4, #136]
	.loc 1 6112 3 is_stmt 1
	.loc 1 6112 32 is_stmt 0
	ldr	r1, [r0, #60]
	.loc 1 6112 16
	add	r3, r3, r1, lsl #1
.LVL3:
	.loc 1 6113 3 is_stmt 1
	.loc 1 6113 46 is_stmt 0
	ldr	r4, [r0]
	.loc 1 6113 56
	ldr	r1, [r4, #160]
	.loc 1 6113 67
	ands	r1, r1, r2
	.loc 1 6113 94
	orr	r1, r1, r3, lsl #2
	.loc 1 6113 32
	str	r1, [r4, #160]
	.loc 1 6116 3 is_stmt 1
	.loc 1 6116 46 is_stmt 0
	ldr	r4, [r0]
	.loc 1 6116 56
	ldr	r1, [r4, #160]
	.loc 1 6116 67
	bic	r1, r1, #8323072
	.loc 1 6116 93
	ldr	r5, [r0, #64]
	orr	r1, r1, r5, lsl #16
	.loc 1 6116 32
	str	r1, [r4, #160]
	.loc 1 6119 3 is_stmt 1
	.loc 1 6119 32 is_stmt 0
	ldr	r1, [r0, #64]
	.loc 1 6119 63
	ldr	r4, [r0, #68]
	.loc 1 6119 16
	mla	r3, r4, r1, r3
.LVL4:
	.loc 1 6120 3 is_stmt 1
	.loc 1 6120 46 is_stmt 0
	ldr	r4, [r0]
	.loc 1 6120 56
	ldr	r1, [r4, #176]
	.loc 1 6120 67
	ands	r1, r1, r2
	.loc 1 6120 94
	orr	r1, r1, r3, lsl #2
	.loc 1 6120 32
	str	r1, [r4, #176]
	.loc 1 6123 3 is_stmt 1
	.loc 1 6123 46 is_stmt 0
	ldr	r4, [r0]
	.loc 1 6123 56
	ldr	r1, [r4, #176]
	.loc 1 6123 67
	bic	r1, r1, #8323072
	.loc 1 6123 93
	ldr	r5, [r0, #72]
	orr	r1, r1, r5, lsl #16
	.loc 1 6123 32
	str	r1, [r4, #176]
	.loc 1 6126 3 is_stmt 1
	.loc 1 6126 32 is_stmt 0
	ldr	r1, [r0, #72]
	.loc 1 6126 63
	ldr	r4, [r0, #76]
	.loc 1 6126 16
	mla	r3, r4, r1, r3
.LVL5:
	.loc 1 6127 3 is_stmt 1
	.loc 1 6127 45 is_stmt 0
	ldr	r4, [r0]
	.loc 1 6127 55
	ldr	r1, [r4, #172]
	.loc 1 6127 65
	ands	r1, r1, r2
	.loc 1 6127 92
	orr	r1, r1, r3, lsl #2
	.loc 1 6127 31
	str	r1, [r4, #172]
	.loc 1 6130 3 is_stmt 1
	.loc 1 6130 32 is_stmt 0
	ldr	r1, [r0, #80]
	.loc 1 6130 60
	ldr	r4, [r0, #84]
	.loc 1 6130 16
	mla	r3, r4, r1, r3
.LVL6:
	.loc 1 6131 3 is_stmt 1
	.loc 1 6131 46 is_stmt 0
	ldr	r4, [r0]
	.loc 1 6131 56
	ldr	r1, [r4, #240]
	.loc 1 6131 67
	ands	r1, r1, r2
	.loc 1 6131 94
	orr	r1, r1, r3, lsl #2
	.loc 1 6131 32
	str	r1, [r4, #240]
	.loc 1 6134 3 is_stmt 1
	.loc 1 6134 46 is_stmt 0
	ldr	r4, [r0]
	.loc 1 6134 56
	ldr	r1, [r4, #240]
	.loc 1 6134 67
	bic	r1, r1, #4128768
	.loc 1 6134 93
	ldr	r5, [r0, #88]
	orr	r1, r1, r5, lsl #16
	.loc 1 6134 32
	str	r1, [r4, #240]
	.loc 1 6137 3 is_stmt 1
	.loc 1 6137 32 is_stmt 0
	ldr	r1, [r0, #88]
	.loc 1 6137 16
	add	r3, r3, r1, lsl #1
.LVL7:
	.loc 1 6138 3 is_stmt 1
	.loc 1 6138 45 is_stmt 0
	ldr	r4, [r0]
	.loc 1 6138 55
	ldr	r1, [r4, #192]
	.loc 1 6138 65
	ands	r2, r2, r1
	.loc 1 6138 92
	orr	r3, r2, r3, lsl #2
.LVL8:
	.loc 1 6138 31
	str	r3, [r4, #192]
	.loc 1 6141 3 is_stmt 1
	.loc 1 6141 45 is_stmt 0
	ldr	r2, [r0]
	.loc 1 6141 55
	ldr	r3, [r2, #192]
	.loc 1 6141 65
	bic	r3, r3, #4128768
	.loc 1 6141 107
	ldr	r1, [r0, #92]
	.loc 1 6141 91
	orr	r3, r3, r1, lsl #16
	.loc 1 6141 31
	str	r3, [r2, #192]
	.loc 1 6144 3 is_stmt 1
	.loc 1 6144 45 is_stmt 0
	ldr	r2, [r0]
	.loc 1 6144 55
	ldr	r3, [r2, #192]
	.loc 1 6144 65
	bic	r3, r3, #1056964608
	.loc 1 6144 107
	ldr	r1, [r0, #96]
	.loc 1 6144 91
	orr	r3, r3, r1, lsl #24
	.loc 1 6144 31
	str	r3, [r2, #192]
	.loc 1 6146 3 is_stmt 1
	.loc 1 6146 80 is_stmt 0
	ldr	r3, [r0, #52]
	.loc 1 6146 65
	ldr	r2, .L6+4
	add	r2, r2, r3
	lsls	r2, r2, #2
	.loc 1 6146 35
	str	r2, [r0, #108]
	.loc 1 6147 3 is_stmt 1
	.loc 1 6147 84 is_stmt 0
	ldr	r3, [r0, #56]
	.loc 1 6147 69
	add	r3, r2, r3, lsl #2
	.loc 1 6147 35
	str	r3, [r0, #112]
	.loc 1 6148 3 is_stmt 1
	.loc 1 6148 77 is_stmt 0
	ldr	r1, [r0, #60]
	.loc 1 6148 62
	add	r3, r3, r1, lsl #3
	.loc 1 6148 28
	str	r3, [r0, #116]
	.loc 1 6149 3 is_stmt 1
	.loc 1 6150 43 is_stmt 0
	ldr	r1, [r0, #64]
	.loc 1 6150 74
	ldr	r4, [r0, #68]
	.loc 1 6150 60
	mul	r1, r4, r1
	.loc 1 6149 55
	add	r3, r3, r1, lsl #2
	.loc 1 6149 28
	str	r3, [r0, #120]
	.loc 1 6151 3 is_stmt 1
	.loc 1 6152 44 is_stmt 0
	ldr	r1, [r0, #72]
	.loc 1 6152 75
	ldr	r4, [r0, #76]
	.loc 1 6152 61
	mul	r1, r4, r1
	.loc 1 6151 56
	add	r3, r3, r1, lsl #2
	.loc 1 6151 29
	str	r3, [r0, #124]
	.loc 1 6153 3 is_stmt 1
	.loc 1 6154 47 is_stmt 0
	ldr	r1, [r0, #80]
	.loc 1 6154 75
	ldr	r4, [r0, #84]
	.loc 1 6154 61
	mul	r1, r4, r1
	.loc 1 6153 60
	add	r3, r3, r1, lsl #2
	.loc 1 6153 32
	str	r3, [r0, #128]
	.loc 1 6155 3 is_stmt 1
	.loc 1 6155 75 is_stmt 0
	ldr	r1, [r0, #88]
	.loc 1 6155 60
	add	r3, r3, r1, lsl #3
	.loc 1 6155 29
	str	r3, [r0, #132]
	.loc 1 6156 3 is_stmt 1
	.loc 1 6156 99 is_stmt 0
	ldr	r1, [r0, #104]
	.loc 1 6156 85
	ldr	r4, [r0, #92]
	mul	ip, r1, r4
	.loc 1 6156 56
	add	r3, r3, ip, lsl #2
	.loc 1 6156 28
	str	r3, [r0, #136]
	.loc 1 6158 3 is_stmt 1
	.loc 1 6159 44 is_stmt 0
	ldr	r4, [r0, #96]
	.loc 1 6159 65
	mul	r1, r4, r1
	.loc 1 6158 56
	add	r3, r3, r1, lsl #2
	.loc 1 6158 29
	str	r3, [r0, #144]
	.loc 1 6161 3 is_stmt 1
	.loc 1 6161 6 is_stmt 0
	ldr	r1, .L6+8
	cmp	r3, r1
	bls	.L2
	.loc 1 6165 5 is_stmt 1
	.loc 1 6165 11 is_stmt 0
	ldr	r3, [r0, #156]
	.loc 1 6165 23
	orr	r3, r3, #32
	str	r3, [r0, #156]
	.loc 1 6168 5 is_stmt 1
	.loc 1 6168 19 is_stmt 0
	movs	r3, #3
	strb	r3, [r0, #152]
	.loc 1 6170 5 is_stmt 1
	.loc 1 6170 12 is_stmt 0
	movs	r0, #1
.LVL9:
	b	.L3
.LVL10:
.L4:
	.loc 1 6177 7 is_stmt 1 discriminator 3
	.loc 1 6177 33 is_stmt 0 discriminator 3
	movs	r3, #0
	str	r3, [r2], #4
.LVL11:
	.loc 1 6175 107 is_stmt 1 discriminator 3
.L2:
	.loc 1 6175 67 discriminator 1
	.loc 1 6175 83 is_stmt 0 discriminator 1
	ldr	r3, [r0, #144]
	.loc 1 6175 67 discriminator 1
	cmp	r3, r2
	bhi	.L4
	.loc 1 6182 10
	movs	r0, #0
.LVL12:
.L3:
	.loc 1 6183 1
	pop	{r4, r5}
	.cfi_restore 5
	.cfi_restore 4
	.cfi_def_cfa_offset 0
	bx	lr
.L7:
	.align	2
.L6:
	.word	-65533
	.word	268446464
	.word	1073796092
	.cfi_endproc
.LFE433:
	.size	FDCAN_CalcultateRamBlockAddresses, .-FDCAN_CalcultateRamBlockAddresses
	.section	.text.FDCAN_CopyMessageToRAM,"ax",%progbits
	.align	1
	.syntax unified
	.thumb
	.thumb_func
	.type	FDCAN_CopyMessageToRAM, %function
FDCAN_CopyMessageToRAM:
.LFB434:
	.loc 1 6196 1 is_stmt 1
	.cfi_startproc
	@ args = 0, pretend = 0, frame = 0
	@ frame_needed = 0, uses_anonymous_args = 0
.LVL13:
	push	{r4, r5, r6, lr}
	.cfi_def_cfa_offset 16
	.cfi_offset 4, -16
	.cfi_offset 5, -12
	.cfi_offset 6, -8
	.cfi_offset 14, -4
	.loc 1 6197 3
	.loc 1 6198 3
	.loc 1 6199 3
	.loc 1 6200 3
	.loc 1 6203 3
	.loc 1 6203 16 is_stmt 0
	ldr	r4, [r1, #4]
	.loc 1 6203 6
	cbnz	r4, .L9
	.loc 1 6205 5 is_stmt 1
	.loc 1 6205 29 is_stmt 0
	ldr	r5, [r1, #16]
	.loc 1 6207 29
	ldr	r4, [r1, #8]
	.loc 1 6206 44
	orrs	r5, r5, r4
	.loc 1 6208 30
	ldr	r4, [r1]
	.loc 1 6205 17
	orr	r5, r5, r4, lsl #18
.LVL14:
.L10:
	.loc 1 6219 3 is_stmt 1
	.loc 1 6219 28 is_stmt 0
	ldr	r6, [r1, #32]
	.loc 1 6220 27
	ldr	r4, [r1, #28]
	.loc 1 6219 52
	orr	r4, r4, r6, lsl #24
	.loc 1 6221 27
	ldr	r6, [r1, #24]
	.loc 1 6220 48
	orrs	r4, r4, r6
	.loc 1 6222 27
	ldr	r6, [r1, #20]
	.loc 1 6221 38
	orrs	r4, r4, r6
	.loc 1 6223 28
	ldr	r6, [r1, #12]
	.loc 1 6219 15
	orr	r4, r4, r6, lsl #16
.LVL15:
	.loc 1 6226 3 is_stmt 1
	.loc 1 6226 42 is_stmt 0
	ldr	r6, [r0, #132]
	.loc 1 6226 83
	ldr	r0, [r0, #104]
.LVL16:
	.loc 1 6226 69
	mul	r3, r0, r3
.LVL17:
	.loc 1 6226 54
	add	lr, r6, r3, lsl #2
.LVL18:
	.loc 1 6229 3 is_stmt 1
	.loc 1 6229 14 is_stmt 0
	str	r5, [r6, r3, lsl #2]
	.loc 1 6230 3 is_stmt 1
.LVL19:
	.loc 1 6231 3
	.loc 1 6231 14 is_stmt 0
	str	r4, [lr, #4]
	.loc 1 6232 3 is_stmt 1
	.loc 1 6232 12 is_stmt 0
	add	lr, lr, #8
.LVL20:
	.loc 1 6235 3 is_stmt 1
	.loc 1 6235 20 is_stmt 0
	movs	r0, #0
	.loc 1 6235 3
	b	.L11
.LVL21:
.L9:
	.loc 1 6212 5 is_stmt 1
	.loc 1 6212 29 is_stmt 0
	ldr	r4, [r1, #16]
	.loc 1 6214 29
	ldr	r5, [r1, #8]
	.loc 1 6213 44
	orrs	r5, r5, r4
	.loc 1 6215 29
	ldr	r4, [r1]
	.loc 1 6214 43
	orrs	r5, r5, r4
	.loc 1 6212 17
	orr	r5, r5, #1073741824
.LVL22:
	b	.L10
.LVL23:
.L12:
	.loc 1 6237 5 is_stmt 1 discriminator 3
	.loc 1 6237 37 is_stmt 0 discriminator 3
	add	ip, r2, r0
	ldrb	r4, [ip, #3]	@ zero_extendqisi2
	.loc 1 6238 37 discriminator 3
	ldrb	r3, [ip, #2]	@ zero_extendqisi2
	.loc 1 6238 56 discriminator 3
	lsls	r3, r3, #16
	.loc 1 6237 64 discriminator 3
	orr	r3, r3, r4, lsl #24
	.loc 1 6239 37 discriminator 3
	ldrb	r4, [ip, #1]	@ zero_extendqisi2
	.loc 1 6238 64 discriminator 3
	orr	r3, r3, r4, lsl #8
	.loc 1 6240 36 discriminator 3
	ldrb	r4, [r2, r0]	@ zero_extendqisi2
	.loc 1 6239 63 discriminator 3
	orrs	r3, r3, r4
	.loc 1 6237 16 discriminator 3
	str	r3, [lr], #4
.LVL24:
	.loc 1 6241 5 is_stmt 1 discriminator 3
	.loc 1 6235 86 discriminator 3
	adds	r0, r0, #4
.LVL25:
.L11:
	.loc 1 6235 37 discriminator 1
	.loc 1 6235 59 is_stmt 0 discriminator 1
	ldr	r3, [r1, #12]
	.loc 1 6235 49 discriminator 1
	ldr	r4, .L14
	ldrb	r3, [r4, r3]	@ zero_extendqisi2
	.loc 1 6235 37 discriminator 1
	cmp	r3, r0
	bhi	.L12
	.loc 1 6243 1
	pop	{r4, r5, r6, pc}
.LVL26:
.L15:
	.align	2
.L14:
	.word	DLCtoBytes
	.cfi_endproc
.LFE434:
	.size	FDCAN_CopyMessageToRAM, .-FDCAN_CopyMessageToRAM
	.section	.text.HAL_FDCAN_MspInit,"ax",%progbits
	.align	1
	.weak	HAL_FDCAN_MspInit
	.syntax unified
	.thumb
	.thumb_func
	.type	HAL_FDCAN_MspInit, %function
HAL_FDCAN_MspInit:
.LFB337:
	.loc 1 647 1 is_stmt 1
	.cfi_startproc
	@ args = 0, pretend = 0, frame = 0
	@ frame_needed = 0, uses_anonymous_args = 0
	@ link register save eliminated.
.LVL27:
	.loc 1 649 3
	.loc 1 653 1 is_stmt 0
	bx	lr
	.cfi_endproc
.LFE337:
	.size	HAL_FDCAN_MspInit, .-HAL_FDCAN_MspInit
	.section	.text.HAL_FDCAN_Init,"ax",%progbits
	.align	1
	.global	HAL_FDCAN_Init
	.syntax unified
	.thumb
	.thumb_func
	.type	HAL_FDCAN_Init, %function
HAL_FDCAN_Init:
.LFB335:
	.loc 1 293 1 is_stmt 1
	.cfi_startproc
	@ args = 0, pretend = 0, frame = 80
	@ frame_needed = 0, uses_anonymous_args = 0
.LVL28:
	push	{r4, r5, lr}
	.cfi_def_cfa_offset 12
	.cfi_offset 4, -12
	.cfi_offset 5, -8
	.cfi_offset 14, -4
	sub	sp, sp, #84
	.cfi_def_cfa_offset 96
	mov	r4, r0
	.loc 1 294 3
	.loc 1 295 3
	.loc 1 296 3
	.loc 1 296 18 is_stmt 0
	movs	r2, #76
	ldr	r1, .L53
	add	r0, sp, #4
.LVL29:
	bl	memcpy
.LVL30:
	.loc 1 299 3 is_stmt 1
	.loc 1 299 6 is_stmt 0
	cmp	r4, #0
	beq	.L41
	.loc 1 305 3 is_stmt 1
	.loc 1 305 13 is_stmt 0
	ldr	r3, [r4]
	.loc 1 305 6
	ldr	r2, .L53+4
	cmp	r3, r2
	beq	.L43
.L19:
	.loc 1 311 3 is_stmt 1
	.loc 1 312 3
	.loc 1 313 3
	.loc 1 314 3
	.loc 1 315 3
	.loc 1 316 3
	.loc 1 317 3
	.loc 1 318 3
	.loc 1 319 3
	.loc 1 320 3
	.loc 1 321 3
	.loc 1 323 5
	.loc 1 324 5
	.loc 1 325 5
	.loc 1 326 5
	.loc 1 328 3
	.loc 1 329 3
	.loc 1 330 3
	.loc 1 331 3
	.loc 1 333 5
	.loc 1 335 3
	.loc 1 336 3
	.loc 1 338 5
	.loc 1 340 3
	.loc 1 341 3
	.loc 1 343 5
	.loc 1 345 3
	.loc 1 346 3
	.loc 1 347 3
	.loc 1 349 5
	.loc 1 351 3
	.loc 1 353 5
	.loc 1 390 3
	.loc 1 390 13 is_stmt 0
	ldrb	r3, [r4, #152]	@ zero_extendqisi2
	.loc 1 390 6
	cbz	r3, .L44
.L20:
	.loc 1 401 3 is_stmt 1
	.loc 1 401 11 is_stmt 0
	ldr	r2, [r4]
	.loc 1 401 21
	ldr	r3, [r2, #24]
	.loc 1 401 29
	bic	r3, r3, #16
	str	r3, [r2, #24]
	.loc 1 404 3 is_stmt 1
	.loc 1 404 15 is_stmt 0
	bl	HAL_GetTick
.LVL31:
	mov	r5, r0
.LVL32:
	.loc 1 407 3 is_stmt 1
.L21:
	.loc 1 407 53
	.loc 1 407 17 is_stmt 0
	ldr	r3, [r4]
	.loc 1 407 27
	ldr	r2, [r3, #24]
	.loc 1 407 53
	tst	r2, #8
	beq	.L45
	.loc 1 409 5 is_stmt 1
	.loc 1 409 10 is_stmt 0
	bl	HAL_GetTick
.LVL33:
	.loc 1 409 24
	subs	r3, r0, r5
	.loc 1 409 8
	cmp	r3, #10
	bls	.L21
	.loc 1 412 7 is_stmt 1
	.loc 1 412 13 is_stmt 0
	ldr	r3, [r4, #156]
	.loc 1 412 25
	orr	r3, r3, #1
	str	r3, [r4, #156]
	.loc 1 415 7 is_stmt 1
	.loc 1 415 21 is_stmt 0
	movs	r3, #3
	strb	r3, [r4, #152]
	.loc 1 417 7 is_stmt 1
	.loc 1 417 14 is_stmt 0
	movs	r0, #1
.LVL34:
.L18:
	.loc 1 592 1
	add	sp, sp, #84
	.cfi_remember_state
	.cfi_def_cfa_offset 12
	@ sp needed
	pop	{r4, r5, pc}
.LVL35:
.L43:
	.cfi_restore_state
	.loc 1 307 5 is_stmt 1
	.loc 1 307 66 is_stmt 0
	add	r3, r3, #256
	.loc 1 307 19
	str	r3, [r4, #4]
	b	.L19
.L44:
	.loc 1 393 5 is_stmt 1
	.loc 1 393 18 is_stmt 0
	strb	r3, [r4, #153]
	.loc 1 396 5 is_stmt 1
	mov	r0, r4
	bl	HAL_FDCAN_MspInit
.LVL36:
	b	.L20
.LVL37:
.L45:
	.loc 1 422 3
	.loc 1 422 21 is_stmt 0
	ldr	r2, [r3, #24]
	.loc 1 422 29
	orr	r2, r2, #1
	str	r2, [r3, #24]
	.loc 1 425 3 is_stmt 1
	.loc 1 425 15 is_stmt 0
	bl	HAL_GetTick
.LVL38:
	mov	r5, r0
.LVL39:
	.loc 1 428 3 is_stmt 1
.L23:
	.loc 1 428 53
	.loc 1 428 17 is_stmt 0
	ldr	r3, [r4]
	.loc 1 428 27
	ldr	r2, [r3, #24]
	.loc 1 428 53
	tst	r2, #1
	bne	.L46
	.loc 1 431 5 is_stmt 1
	.loc 1 431 10 is_stmt 0
	bl	HAL_GetTick
.LVL40:
	.loc 1 431 24
	subs	r0, r0, r5
	.loc 1 431 8
	cmp	r0, #10
	bls	.L23
	.loc 1 434 7 is_stmt 1
	.loc 1 434 13 is_stmt 0
	ldr	r3, [r4, #156]
	.loc 1 434 25
	orr	r3, r3, #1
	str	r3, [r4, #156]
	.loc 1 437 7 is_stmt 1
	.loc 1 437 21 is_stmt 0
	movs	r3, #3
	strb	r3, [r4, #152]
	.loc 1 439 7 is_stmt 1
	.loc 1 439 14 is_stmt 0
	movs	r0, #1
	b	.L18
.L46:
	.loc 1 444 3 is_stmt 1
	.loc 1 444 21 is_stmt 0
	ldr	r2, [r3, #24]
	.loc 1 444 29
	orr	r2, r2, #2
	str	r2, [r3, #24]
	.loc 1 447 3 is_stmt 1
	.loc 1 447 19 is_stmt 0
	ldrb	r3, [r4, #16]	@ zero_extendqisi2
	.loc 1 447 6
	cmp	r3, #1
	beq	.L47
	.loc 1 453 5 is_stmt 1
	.loc 1 453 13 is_stmt 0
	ldr	r2, [r4]
	.loc 1 453 23
	ldr	r3, [r2, #24]
	.loc 1 453 31
	orr	r3, r3, #64
	str	r3, [r2, #24]
.L26:
	.loc 1 457 3 is_stmt 1
	.loc 1 457 19 is_stmt 0
	ldrb	r3, [r4, #17]	@ zero_extendqisi2
	.loc 1 457 6
	cmp	r3, #1
	beq	.L48
	.loc 1 463 5 is_stmt 1
	.loc 1 463 13 is_stmt 0
	ldr	r2, [r4]
	.loc 1 463 23
	ldr	r3, [r2, #24]
	.loc 1 463 31
	bic	r3, r3, #16384
	str	r3, [r2, #24]
.L28:
	.loc 1 467 3 is_stmt 1
	.loc 1 467 19 is_stmt 0
	ldrb	r3, [r4, #18]	@ zero_extendqisi2
	.loc 1 467 6
	cmp	r3, #1
	beq	.L49
	.loc 1 473 5 is_stmt 1
	.loc 1 473 13 is_stmt 0
	ldr	r2, [r4]
	.loc 1 473 23
	ldr	r3, [r2, #24]
	.loc 1 473 31
	orr	r3, r3, #4096
	str	r3, [r2, #24]
.L30:
	.loc 1 477 3 is_stmt 1
	.loc 1 477 45 is_stmt 0
	ldr	r2, [r4]
	.loc 1 477 55
	ldr	r3, [r2, #24]
	.loc 1 477 65
	bic	r3, r3, #768
	.loc 1 477 136
	ldr	r1, [r4, #8]
	.loc 1 477 121
	orrs	r3, r3, r1
	.loc 1 477 31
	str	r3, [r2, #24]
	.loc 1 480 3 is_stmt 1
	.loc 1 480 11 is_stmt 0
	ldr	r2, [r4]
	.loc 1 480 21
	ldr	r3, [r2, #24]
	.loc 1 480 29
	bic	r3, r3, #164
	str	r3, [r2, #24]
	.loc 1 481 3 is_stmt 1
	.loc 1 481 11 is_stmt 0
	ldr	r2, [r4]
	.loc 1 481 21
	ldr	r3, [r2, #16]
	.loc 1 481 29
	bic	r3, r3, #16
	str	r3, [r2, #16]
	.loc 1 491 3 is_stmt 1
	.loc 1 491 19 is_stmt 0
	ldr	r3, [r4, #12]
	.loc 1 491 6
	cmp	r3, #1
	beq	.L50
	.loc 1 496 8 is_stmt 1
	.loc 1 496 11 is_stmt 0
	cmp	r3, #0
	beq	.L32
	.loc 1 498 5 is_stmt 1
	.loc 1 498 8 is_stmt 0
	cmp	r3, #2
	beq	.L33
	.loc 1 501 7 is_stmt 1
	.loc 1 501 15 is_stmt 0
	ldr	r2, [r4]
	.loc 1 501 25
	ldr	r3, [r2, #24]
	.loc 1 501 33
	orr	r3, r3, #128
	str	r3, [r2, #24]
	.loc 1 504 7 is_stmt 1
	.loc 1 504 15 is_stmt 0
	ldr	r2, [r4]
	.loc 1 504 25
	ldr	r3, [r2, #16]
	.loc 1 504 33
	orr	r3, r3, #16
	str	r3, [r2, #16]
	.loc 1 506 7 is_stmt 1
	.loc 1 506 23 is_stmt 0
	ldr	r3, [r4, #12]
	.loc 1 506 10
	cmp	r3, #3
	bne	.L32
	.loc 1 508 9 is_stmt 1
	.loc 1 508 17 is_stmt 0
	ldr	r2, [r4]
	.loc 1 508 27
	ldr	r3, [r2, #24]
	.loc 1 508 35
	orr	r3, r3, #32
	str	r3, [r2, #24]
	b	.L32
.L47:
	.loc 1 449 5 is_stmt 1
	.loc 1 449 13 is_stmt 0
	ldr	r2, [r4]
	.loc 1 449 23
	ldr	r3, [r2, #24]
	.loc 1 449 31
	bic	r3, r3, #64
	str	r3, [r2, #24]
	b	.L26
.L48:
	.loc 1 459 5 is_stmt 1
	.loc 1 459 13 is_stmt 0
	ldr	r2, [r4]
	.loc 1 459 23
	ldr	r3, [r2, #24]
	.loc 1 459 31
	orr	r3, r3, #16384
	str	r3, [r2, #24]
	b	.L28
.L49:
	.loc 1 469 5 is_stmt 1
	.loc 1 469 13 is_stmt 0
	ldr	r2, [r4]
	.loc 1 469 23
	ldr	r3, [r2, #24]
	.loc 1 469 31
	bic	r3, r3, #4096
	str	r3, [r2, #24]
	b	.L30
.L50:
	.loc 1 494 5 is_stmt 1
	.loc 1 494 13 is_stmt 0
	ldr	r2, [r4]
	.loc 1 494 23
	ldr	r3, [r2, #24]
	.loc 1 494 31
	orr	r3, r3, #4
	str	r3, [r2, #24]
.L32:
	.loc 1 520 3 is_stmt 1
	.loc 1 523 3
	.loc 1 523 53 is_stmt 0
	ldr	r3, [r4, #24]
	.loc 1 523 75
	subs	r2, r3, #1
	.loc 1 524 53
	ldr	r3, [r4, #28]
	.loc 1 524 70
	subs	r3, r3, #1
	.loc 1 524 76
	lsls	r3, r3, #8
	.loc 1 523 91
	orr	r3, r3, r2, lsl #25
	.loc 1 525 53
	ldr	r2, [r4, #32]
	.loc 1 525 76
	subs	r2, r2, #1
	.loc 1 524 85
	orrs	r3, r3, r2
	.loc 1 526 53
	ldr	r2, [r4, #20]
	.loc 1 526 71
	subs	r2, r2, #1
	.loc 1 523 9
	ldr	r1, [r4]
	.loc 1 525 85
	orr	r3, r3, r2, lsl #16
	.loc 1 523 26
	str	r3, [r1, #28]
	.loc 1 529 3 is_stmt 1
	.loc 1 529 19 is_stmt 0
	ldr	r3, [r4, #8]
	.loc 1 529 6
	cmp	r3, #768
	beq	.L51
.L34:
	.loc 1 537 3 is_stmt 1
	.loc 1 537 19 is_stmt 0
	ldr	r3, [r4, #96]
	.loc 1 537 6
	cbz	r3, .L35
	.loc 1 540 5 is_stmt 1
	.loc 1 540 13 is_stmt 0
	ldr	r2, [r4]
	.loc 1 540 23
	ldr	r3, [r2, #192]
	.loc 1 540 47
	ldr	r1, [r4, #100]
	.loc 1 540 31
	orrs	r3, r3, r1
	str	r3, [r2, #192]
.L35:
	.loc 1 544 3 is_stmt 1
	.loc 1 544 20 is_stmt 0
	ldr	r3, [r4, #92]
	.loc 1 544 48
	ldr	r2, [r4, #96]
	.loc 1 544 6
	cmn	r3, r2
	beq	.L36
	.loc 1 546 5 is_stmt 1
	.loc 1 546 48 is_stmt 0
	ldr	r1, [r4]
	.loc 1 546 58
	ldr	r3, [r1, #200]
	.loc 1 546 69
	bic	r3, r3, #7
	.loc 1 546 119
	ldr	r2, [r4, #104]
	.loc 1 546 106
	add	r0, sp, #80
	add	r2, r0, r2, lsl #2
	ldr	r2, [r2, #-76]
	.loc 1 546 93
	orrs	r3, r3, r2
	.loc 1 546 34
	str	r3, [r1, #200]
.L36:
	.loc 1 550 3 is_stmt 1
	.loc 1 550 19 is_stmt 0
	ldr	r3, [r4, #64]
	.loc 1 550 6
	cbz	r3, .L37
	.loc 1 552 5 is_stmt 1
	.loc 1 552 48 is_stmt 0
	ldr	r1, [r4]
	.loc 1 552 58
	ldr	r3, [r1, #188]
	.loc 1 552 69
	bic	r3, r3, #7
	.loc 1 552 120
	ldr	r2, [r4, #68]
	.loc 1 552 107
	add	r0, sp, #80
	add	r2, r0, r2, lsl #2
	ldr	r2, [r2, #-76]
	.loc 1 552 93
	orrs	r3, r3, r2
	.loc 1 552 34
	str	r3, [r1, #188]
.L37:
	.loc 1 557 3 is_stmt 1
	.loc 1 557 19 is_stmt 0
	ldr	r3, [r4, #72]
	.loc 1 557 6
	cbz	r3, .L38
	.loc 1 559 5 is_stmt 1
	.loc 1 559 48 is_stmt 0
	ldr	r1, [r4]
	.loc 1 559 58
	ldr	r3, [r1, #188]
	.loc 1 559 69
	bic	r3, r3, #112
	.loc 1 559 120
	ldr	r2, [r4, #76]
	.loc 1 559 107
	add	r0, sp, #80
	add	r2, r0, r2, lsl #2
	ldr	r2, [r2, #-76]
	.loc 1 559 93
	orr	r3, r3, r2, lsl #4
	.loc 1 559 34
	str	r3, [r1, #188]
.L38:
	.loc 1 564 3 is_stmt 1
	.loc 1 564 19 is_stmt 0
	ldr	r3, [r4, #80]
	.loc 1 564 6
	cbz	r3, .L39
	.loc 1 566 5 is_stmt 1
	.loc 1 566 48 is_stmt 0
	ldr	r1, [r4]
	.loc 1 566 58
	ldr	r3, [r1, #188]
	.loc 1 566 69
	bic	r3, r3, #1792
	.loc 1 566 120
	ldr	r2, [r4, #84]
	.loc 1 566 107
	add	r0, sp, #80
	add	r2, r0, r2, lsl #2
	ldr	r2, [r2, #-76]
	.loc 1 566 93
	orr	r3, r3, r2, lsl #8
	.loc 1 566 34
	str	r3, [r1, #188]
.L39:
	.loc 1 573 3 is_stmt 1
	.loc 1 573 13 is_stmt 0
	ldr	r2, [r4]
	.loc 1 573 6
	ldr	r3, .L53+4
	cmp	r2, r3
	beq	.L52
.L40:
	.loc 1 579 3 is_stmt 1
	.loc 1 579 32 is_stmt 0
	movs	r3, #0
	str	r3, [r4, #148]
	.loc 1 582 3 is_stmt 1
	.loc 1 582 21 is_stmt 0
	str	r3, [r4, #156]
	.loc 1 585 3 is_stmt 1
	.loc 1 585 17 is_stmt 0
	movs	r3, #1
	strb	r3, [r4, #152]
	.loc 1 588 3 is_stmt 1
	.loc 1 588 12 is_stmt 0
	mov	r0, r4
	bl	FDCAN_CalcultateRamBlockAddresses
.LVL41:
	.loc 1 591 3 is_stmt 1
	.loc 1 591 10 is_stmt 0
	b	.L18
.LVL42:
.L33:
	.loc 1 514 7 is_stmt 1
	.loc 1 514 15 is_stmt 0
	ldr	r2, [r4]
	.loc 1 514 25
	ldr	r3, [r2, #24]
	.loc 1 514 33
	orr	r3, r3, #32
	str	r3, [r2, #24]
	b	.L32
.L51:
	.loc 1 531 5 is_stmt 1
	.loc 1 531 55 is_stmt 0
	ldr	r3, [r4, #40]
	.loc 1 531 80
	subs	r3, r3, #1
	.loc 1 532 55
	ldr	r2, [r4, #44]
	.loc 1 532 69
	subs	r2, r2, #1
	.loc 1 531 89
	orr	r3, r3, r2, lsl #8
	.loc 1 533 55
	ldr	r2, [r4, #48]
	.loc 1 533 69
	subs	r2, r2, #1
	.loc 1 532 84
	orr	r3, r3, r2, lsl #4
	.loc 1 534 55
	ldr	r2, [r4, #36]
	.loc 1 534 70
	subs	r2, r2, #1
	.loc 1 531 11
	ldr	r1, [r4]
	.loc 1 533 84
	orr	r3, r3, r2, lsl #16
	.loc 1 531 28
	str	r3, [r1, #12]
	b	.L34
.L52:
	.loc 1 575 5 is_stmt 1
	.loc 1 575 13 is_stmt 0
	ldr	r2, [r4, #4]
	.loc 1 575 20
	ldr	r3, [r2, #8]
	.loc 1 575 29
	bic	r3, r3, #3
	str	r3, [r2, #8]
	b	.L40
.LVL43:
.L41:
	.loc 1 301 12
	movs	r0, #1
	b	.L18
.L54:
	.align	2
.L53:
	.word	.LANCHOR0
	.word	1073782784
	.cfi_endproc
.LFE335:
	.size	HAL_FDCAN_Init, .-HAL_FDCAN_Init
	.section	.text.HAL_FDCAN_MspDeInit,"ax",%progbits
	.align	1
	.weak	HAL_FDCAN_MspDeInit
	.syntax unified
	.thumb
	.thumb_func
	.type	HAL_FDCAN_MspDeInit, %function
HAL_FDCAN_MspDeInit:
.LFB338:
	.loc 1 662 1 is_stmt 1
	.cfi_startproc
	@ args = 0, pretend = 0, frame = 0
	@ frame_needed = 0, uses_anonymous_args = 0
	@ link register save eliminated.
.LVL44:
	.loc 1 664 3
	.loc 1 668 1 is_stmt 0
	bx	lr
	.cfi_endproc
.LFE338:
	.size	HAL_FDCAN_MspDeInit, .-HAL_FDCAN_MspDeInit
	.section	.text.HAL_FDCAN_EnterPowerDownMode,"ax",%progbits
	.align	1
	.global	HAL_FDCAN_EnterPowerDownMode
	.syntax unified
	.thumb
	.thumb_func
	.type	HAL_FDCAN_EnterPowerDownMode, %function
HAL_FDCAN_EnterPowerDownMode:
.LFB339:
	.loc 1 677 1 is_stmt 1
	.cfi_startproc
	@ args = 0, pretend = 0, frame = 0
	@ frame_needed = 0, uses_anonymous_args = 0
.LVL45:
	push	{r3, r4, r5, lr}
	.cfi_def_cfa_offset 16
	.cfi_offset 3, -16
	.cfi_offset 4, -12
	.cfi_offset 5, -8
	.cfi_offset 14, -4
	mov	r4, r0
	.loc 1 678 3
	.loc 1 681 3
	.loc 1 681 11 is_stmt 0
	ldr	r2, [r0]
	.loc 1 681 21
	ldr	r3, [r2, #24]
	.loc 1 681 29
	orr	r3, r3, #16
	str	r3, [r2, #24]
	.loc 1 684 3 is_stmt 1
	.loc 1 684 15 is_stmt 0
	bl	HAL_GetTick
.LVL46:
	mov	r5, r0
.LVL47:
	.loc 1 687 3 is_stmt 1
.L57:
	.loc 1 687 53
	.loc 1 687 17 is_stmt 0
	ldr	r3, [r4]
	.loc 1 687 27
	ldr	r3, [r3, #24]
	.loc 1 687 53
	tst	r3, #8
	bne	.L61
	.loc 1 689 5 is_stmt 1
	.loc 1 689 10 is_stmt 0
	bl	HAL_GetTick
.LVL48:
	.loc 1 689 24
	subs	r0, r0, r5
	.loc 1 689 8
	cmp	r0, #10
	bls	.L57
	.loc 1 692 7 is_stmt 1
	.loc 1 692 13 is_stmt 0
	ldr	r3, [r4, #156]
	.loc 1 692 25
	orr	r3, r3, #1
	str	r3, [r4, #156]
	.loc 1 695 7 is_stmt 1
	.loc 1 695 21 is_stmt 0
	movs	r3, #3
	strb	r3, [r4, #152]
	.loc 1 697 7 is_stmt 1
	.loc 1 697 14 is_stmt 0
	movs	r0, #1
	b	.L58
.L61:
	.loc 1 702 10
	movs	r0, #0
.L58:
	.loc 1 703 1
	pop	{r3, r4, r5, pc}
	.cfi_endproc
.LFE339:
	.size	HAL_FDCAN_EnterPowerDownMode, .-HAL_FDCAN_EnterPowerDownMode
	.section	.text.HAL_FDCAN_ExitPowerDownMode,"ax",%progbits
	.align	1
	.global	HAL_FDCAN_ExitPowerDownMode
	.syntax unified
	.thumb
	.thumb_func
	.type	HAL_FDCAN_ExitPowerDownMode, %function
HAL_FDCAN_ExitPowerDownMode:
.LFB340:
	.loc 1 712 1 is_stmt 1
	.cfi_startproc
	@ args = 0, pretend = 0, frame = 0
	@ frame_needed = 0, uses_anonymous_args = 0
.LVL49:
	push	{r3, r4, r5, lr}
	.cfi_def_cfa_offset 16
	.cfi_offset 3, -16
	.cfi_offset 4, -12
	.cfi_offset 5, -8
	.cfi_offset 14, -4
	mov	r4, r0
	.loc 1 713 3
	.loc 1 716 3
	.loc 1 716 11 is_stmt 0
	ldr	r2, [r0]
	.loc 1 716 21
	ldr	r3, [r2, #24]
	.loc 1 716 29
	bic	r3, r3, #16
	str	r3, [r2, #24]
	.loc 1 719 3 is_stmt 1
	.loc 1 719 15 is_stmt 0
	bl	HAL_GetTick
.LVL50:
	mov	r5, r0
.LVL51:
	.loc 1 722 3 is_stmt 1
.L63:
	.loc 1 722 53
	.loc 1 722 17 is_stmt 0
	ldr	r3, [r4]
	.loc 1 722 27
	ldr	r2, [r3, #24]
	.loc 1 722 53
	tst	r2, #8
	beq	.L67
	.loc 1 724 5 is_stmt 1
	.loc 1 724 10 is_stmt 0
	bl	HAL_GetTick
.LVL52:
	.loc 1 724 24
	subs	r0, r0, r5
	.loc 1 724 8
	cmp	r0, #10
	bls	.L63
	.loc 1 727 7 is_stmt 1
	.loc 1 727 13 is_stmt 0
	ldr	r3, [r4, #156]
	.loc 1 727 25
	orr	r3, r3, #1
	str	r3, [r4, #156]
	.loc 1 730 7 is_stmt 1
	.loc 1 730 21 is_stmt 0
	movs	r3, #3
	strb	r3, [r4, #152]
	.loc 1 732 7 is_stmt 1
	.loc 1 732 14 is_stmt 0
	movs	r0, #1
	b	.L64
.L67:
	.loc 1 737 3 is_stmt 1
	.loc 1 737 21 is_stmt 0
	ldr	r2, [r3, #24]
	.loc 1 737 29
	bic	r2, r2, #1
	str	r2, [r3, #24]
	.loc 1 740 3 is_stmt 1
	.loc 1 740 10 is_stmt 0
	movs	r0, #0
.L64:
	.loc 1 741 1
	pop	{r3, r4, r5, pc}
	.cfi_endproc
.LFE340:
	.size	HAL_FDCAN_ExitPowerDownMode, .-HAL_FDCAN_ExitPowerDownMode
	.section	.text.HAL_FDCAN_ConfigClockCalibration,"ax",%progbits
	.align	1
	.global	HAL_FDCAN_ConfigClockCalibration
	.syntax unified
	.thumb
	.thumb_func
	.type	HAL_FDCAN_ConfigClockCalibration, %function
HAL_FDCAN_ConfigClockCalibration:
.LFB341:
	.loc 1 1684 1 is_stmt 1
	.cfi_startproc
	@ args = 0, pretend = 0, frame = 0
	@ frame_needed = 0, uses_anonymous_args = 0
	@ link register save eliminated.
.LVL53:
	push	{r4}
	.cfi_def_cfa_offset 4
	.cfi_offset 4, -4
	.loc 1 1686 3
	.loc 1 1687 3
	.loc 1 1687 17 is_stmt 0
	ldr	r4, [r1]
	.loc 1 1693 5 is_stmt 1
	.loc 1 1694 5
	.loc 1 1695 5
	.loc 1 1696 5
	.loc 1 1697 5
	.loc 1 1701 3
	.loc 1 1701 13 is_stmt 0
	ldr	r2, [r0]
	.loc 1 1701 6
	ldr	r3, .L76
	cmp	r2, r3
	beq	.L69
	.loc 1 1704 5 is_stmt 1
	.loc 1 1704 11 is_stmt 0
	ldr	r3, [r0, #156]
	.loc 1 1704 23
	orr	r3, r3, #32
	str	r3, [r0, #156]
	.loc 1 1706 5 is_stmt 1
	.loc 1 1706 12 is_stmt 0
	movs	r0, #1
.LVL54:
.L70:
	.loc 1 1745 1
	ldr	r4, [sp], #4
	.cfi_remember_state
	.cfi_restore 4
	.cfi_def_cfa_offset 0
	bx	lr
.LVL55:
.L69:
	.cfi_restore_state
	.loc 1 1709 3 is_stmt 1
	.loc 1 1709 13 is_stmt 0
	ldrb	r3, [r0, #152]	@ zero_extendqisi2
	uxtb	r3, r3
	.loc 1 1709 6
	cmp	r3, #1
	beq	.L75
	.loc 1 1741 5 is_stmt 1
	.loc 1 1741 11 is_stmt 0
	ldr	r3, [r0, #156]
	.loc 1 1741 23
	orr	r3, r3, #4
	str	r3, [r0, #156]
	.loc 1 1743 5 is_stmt 1
	.loc 1 1743 12 is_stmt 0
	movs	r0, #1
.LVL56:
	b	.L70
.LVL57:
.L75:
	.loc 1 1711 5 is_stmt 1
	.loc 1 1711 8 is_stmt 0
	cbnz	r4, .L72
	.loc 1 1714 7 is_stmt 1
	.loc 1 1714 77 is_stmt 0
	ldr	r2, .L76+4
	ldr	r3, [r2, #4]
	.loc 1 1714 85
	orr	r3, r3, #64
	str	r3, [r2, #4]
	.loc 1 1717 7 is_stmt 1
	.loc 1 1717 163 is_stmt 0
	ldr	r3, [r2, #4]
	.loc 1 1717 173
	bic	r3, r3, #983040
	.loc 1 1717 212
	ldr	r1, [r1, #4]
.LVL58:
	.loc 1 1717 198
	orr	r3, r3, r1, lsl #16
	.loc 1 1717 87
	str	r3, [r2, #4]
.LVL59:
.L73:
	.loc 1 1736 5 is_stmt 1
	.loc 1 1736 12 is_stmt 0
	movs	r0, #0
	b	.L70
.LVL60:
.L72:
	.loc 1 1723 7 is_stmt 1
	.loc 1 1723 77 is_stmt 0
	ldr	r3, .L76+4
	ldr	r2, [r3, #4]
	.loc 1 1723 85
	bic	r2, r2, #64
	str	r2, [r3, #4]
	.loc 1 1726 7 is_stmt 1
	.loc 1 1726 163 is_stmt 0
	ldr	r0, [r3, #4]
.LVL61:
	.loc 1 1726 173
	ldr	r2, .L76+8
	ands	r2, r2, r0
	.loc 1 1726 252
	ldr	r0, [r1, #16]
	.loc 1 1726 296
	ldr	r4, [r1, #12]
	.loc 1 1726 284
	orrs	r0, r0, r4
	.loc 1 1726 326
	ldr	r4, [r1, #8]
	.loc 1 1726 313
	orr	r0, r0, r4, lsl #8
	.loc 1 1726 237
	orrs	r2, r2, r0
	.loc 1 1726 87
	str	r2, [r3, #4]
	.loc 1 1732 7 is_stmt 1
	.loc 1 1732 162 is_stmt 0
	ldr	r0, [r3, #12]
	.loc 1 1732 171
	ldr	r2, .L76+12
	ands	r2, r2, r0
	.loc 1 1732 211
	ldr	r1, [r1, #20]
.LVL62:
	.loc 1 1732 198
	orrs	r2, r2, r1
	.loc 1 1732 86
	str	r2, [r3, #12]
	b	.L73
.L77:
	.align	2
.L76:
	.word	1073782784
	.word	1073784832
	.word	-65440
	.word	-65536
	.cfi_endproc
.LFE341:
	.size	HAL_FDCAN_ConfigClockCalibration, .-HAL_FDCAN_ConfigClockCalibration
	.section	.text.HAL_FDCAN_GetClockCalibrationState,"ax",%progbits
	.align	1
	.global	HAL_FDCAN_GetClockCalibrationState
	.syntax unified
	.thumb
	.thumb_func
	.type	HAL_FDCAN_GetClockCalibrationState, %function
HAL_FDCAN_GetClockCalibrationState:
.LFB342:
	.loc 1 1754 1 is_stmt 1
	.cfi_startproc
	@ args = 0, pretend = 0, frame = 0
	@ frame_needed = 0, uses_anonymous_args = 0
	@ link register save eliminated.
.LVL63:
	.loc 1 1756 3
	.loc 1 1758 3
	.loc 1 1758 79 is_stmt 0
	ldr	r3, .L79
	ldr	r0, [r3, #8]
.LVL64:
	.loc 1 1759 1
	and	r0, r0, #-1073741824
	bx	lr
.L80:
	.align	2
.L79:
	.word	1073784832
	.cfi_endproc
.LFE342:
	.size	HAL_FDCAN_GetClockCalibrationState, .-HAL_FDCAN_GetClockCalibrationState
	.section	.text.HAL_FDCAN_ResetClockCalibrationState,"ax",%progbits
	.align	1
	.global	HAL_FDCAN_ResetClockCalibrationState
	.syntax unified
	.thumb
	.thumb_func
	.type	HAL_FDCAN_ResetClockCalibrationState, %function
HAL_FDCAN_ResetClockCalibrationState:
.LFB343:
	.loc 1 1768 1 is_stmt 1
	.cfi_startproc
	@ args = 0, pretend = 0, frame = 0
	@ frame_needed = 0, uses_anonymous_args = 0
	@ link register save eliminated.
.LVL65:
	.loc 1 1770 3
	.loc 1 1770 13 is_stmt 0
	ldr	r2, [r0]
	.loc 1 1770 6
	ldr	r3, .L86
	cmp	r2, r3
	beq	.L82
	.loc 1 1773 5 is_stmt 1
	.loc 1 1773 11 is_stmt 0
	ldr	r3, [r0, #156]
	.loc 1 1773 23
	orr	r3, r3, #32
	str	r3, [r0, #156]
	.loc 1 1775 5 is_stmt 1
	.loc 1 1775 12 is_stmt 0
	movs	r0, #1
.LVL66:
	bx	lr
.LVL67:
.L82:
	.loc 1 1778 3 is_stmt 1
	.loc 1 1778 13 is_stmt 0
	ldrb	r3, [r0, #152]	@ zero_extendqisi2
	uxtb	r3, r3
	.loc 1 1778 6
	cmp	r3, #1
	beq	.L85
	.loc 1 1789 5 is_stmt 1
	.loc 1 1789 11 is_stmt 0
	ldr	r3, [r0, #156]
	.loc 1 1789 23
	orr	r3, r3, #4
	str	r3, [r0, #156]
	.loc 1 1791 5 is_stmt 1
	.loc 1 1791 12 is_stmt 0
	movs	r0, #1
.LVL68:
	.loc 1 1793 1
	bx	lr
.LVL69:
.L85:
	.loc 1 1781 5 is_stmt 1
	.loc 1 1781 75 is_stmt 0
	ldr	r2, .L86+4
	ldr	r3, [r2, #4]
	.loc 1 1781 83
	orr	r3, r3, #-2147483648
	str	r3, [r2, #4]
	.loc 1 1784 5 is_stmt 1
	.loc 1 1784 12 is_stmt 0
	movs	r0, #0
.LVL70:
	bx	lr
.L87:
	.align	2
.L86:
	.word	1073782784
	.word	1073784832
	.cfi_endproc
.LFE343:
	.size	HAL_FDCAN_ResetClockCalibrationState, .-HAL_FDCAN_ResetClockCalibrationState
	.section	.text.HAL_FDCAN_GetClockCalibrationCounter,"ax",%progbits
	.align	1
	.global	HAL_FDCAN_GetClockCalibrationCounter
	.syntax unified
	.thumb
	.thumb_func
	.type	HAL_FDCAN_GetClockCalibrationCounter, %function
HAL_FDCAN_GetClockCalibrationCounter:
.LFB344:
	.loc 1 1804 1 is_stmt 1
	.cfi_startproc
	@ args = 0, pretend = 0, frame = 0
	@ frame_needed = 0, uses_anonymous_args = 0
	@ link register save eliminated.
.LVL71:
	.loc 1 1806 3
	.loc 1 1809 3
	.loc 1 1811 3
	.loc 1 1811 6 is_stmt 0
	cbz	r1, .L92
	.loc 1 1815 8 is_stmt 1
	.loc 1 1815 11 is_stmt 0
	cmp	r1, #1
	beq	.L93
	.loc 1 1821 5 is_stmt 1
	.loc 1 1821 82 is_stmt 0
	ldr	r3, .L94
	ldr	r0, [r3, #12]
.LVL72:
	.loc 1 1821 111
	lsrs	r0, r0, #16
	.loc 1 1823 1
	bx	lr
.LVL73:
.L92:
	.loc 1 1813 5 is_stmt 1
	.loc 1 1813 82 is_stmt 0
	ldr	r3, .L94
	ldr	r0, [r3, #8]
.LVL74:
	.loc 1 1813 112
	ubfx	r0, r0, #18, #11
	bx	lr
.LVL75:
.L93:
	.loc 1 1817 5 is_stmt 1
	.loc 1 1817 81 is_stmt 0
	ldr	r3, .L94
	ldr	r0, [r3, #8]
.LVL76:
	.loc 1 1817 89
	ubfx	r0, r0, #0, #18
	bx	lr
.L95:
	.align	2
.L94:
	.word	1073784832
	.cfi_endproc
.LFE344:
	.size	HAL_FDCAN_GetClockCalibrationCounter, .-HAL_FDCAN_GetClockCalibrationCounter
	.section	.text.HAL_FDCAN_ConfigFilter,"ax",%progbits
	.align	1
	.global	HAL_FDCAN_ConfigFilter
	.syntax unified
	.thumb
	.thumb_func
	.type	HAL_FDCAN_ConfigFilter, %function
HAL_FDCAN_ConfigFilter:
.LFB345:
	.loc 1 1835 1 is_stmt 1
	.cfi_startproc
	@ args = 0, pretend = 0, frame = 0
	@ frame_needed = 0, uses_anonymous_args = 0
	@ link register save eliminated.
.LVL77:
	.loc 1 1836 3
	.loc 1 1837 3
	.loc 1 1838 3
	.loc 1 1839 3
	.loc 1 1839 26 is_stmt 0
	ldrb	r3, [r0, #152]	@ zero_extendqisi2
.LVL78:
	.loc 1 1841 3 is_stmt 1
	.loc 1 1841 40 is_stmt 0
	subs	r3, r3, #1
.LVL79:
	uxtb	r3, r3
	.loc 1 1841 6
	cmp	r3, #1
	bls	.L109
	.loc 1 1924 5 is_stmt 1
	.loc 1 1924 11 is_stmt 0
	ldr	r3, [r0, #156]
	.loc 1 1924 23
	orr	r3, r3, #2
	str	r3, [r0, #156]
	.loc 1 1926 5 is_stmt 1
	.loc 1 1926 12 is_stmt 0
	movs	r0, #1
.LVL80:
	bx	lr
.LVL81:
.L109:
	.loc 1 1844 5 is_stmt 1
	.loc 1 1845 5
	.loc 1 1846 5
	.loc 1 1846 22 is_stmt 0
	ldr	r3, [r1, #12]
	.loc 1 1848 7 is_stmt 1
	.loc 1 1849 7
	.loc 1 1852 5
	.loc 1 1852 22 is_stmt 0
	ldr	r2, [r1]
	.loc 1 1852 8
	cbnz	r2, .L98
	.loc 1 1855 7 is_stmt 1
	.loc 1 1856 7
	.loc 1 1857 7
	.loc 1 1859 9
	.loc 1 1860 9
	.loc 1 1864 7
	.loc 1 1864 10 is_stmt 0
	cmp	r3, #7
	beq	.L110
	.loc 1 1873 9 is_stmt 1
	.loc 1 1873 42 is_stmt 0
	ldr	r2, [r1, #8]
	.loc 1 1874 57
	lsls	r3, r3, #27
	.loc 1 1873 63
	orr	r3, r3, r2, lsl #30
	.loc 1 1875 42
	ldr	r2, [r1, #16]
	.loc 1 1874 65
	orr	r3, r3, r2, lsl #16
	.loc 1 1876 41
	ldr	r2, [r1, #20]
	.loc 1 1873 25
	orrs	r3, r3, r2
.LVL82:
.L100:
	.loc 1 1880 7 is_stmt 1
	.loc 1 1880 50 is_stmt 0
	ldr	r2, [r0, #108]
	.loc 1 1880 84
	ldr	r1, [r1, #4]
.LVL83:
	.loc 1 1883 7 is_stmt 1
	.loc 1 1883 22 is_stmt 0
	str	r3, [r2, r1, lsl #2]
	.loc 1 1919 5 is_stmt 1
	.loc 1 1919 12 is_stmt 0
	movs	r0, #0
.LVL84:
	.loc 1 1928 1
	bx	lr
.LVL85:
.L110:
	.loc 1 1866 9 is_stmt 1
	.loc 1 1867 42 is_stmt 0
	ldr	r2, [r1, #16]
	.loc 1 1868 42
	ldr	r3, [r1, #28]
	.loc 1 1868 61
	lsls	r3, r3, #8
	.loc 1 1867 62
	orr	r3, r3, r2, lsl #16
	.loc 1 1869 41
	ldr	r2, [r1, #24]
	.loc 1 1868 68
	orrs	r3, r3, r2
	.loc 1 1866 25
	orr	r3, r3, #939524096
.LVL86:
	b	.L100
.LVL87:
.L98:
	.loc 1 1835 1
	push	{r4}
	.cfi_def_cfa_offset 4
	.cfi_offset 4, -4
	.loc 1 1888 7 is_stmt 1
	.loc 1 1889 7
	.loc 1 1890 7
	.loc 1 1892 9
	.loc 1 1893 9
	.loc 1 1897 7
	.loc 1 1897 78 is_stmt 0
	ldr	r2, [r1, #16]
	.loc 1 1897 23
	orr	r2, r2, r3, lsl #29
.LVL88:
	.loc 1 1900 7 is_stmt 1
	.loc 1 1900 10 is_stmt 0
	cmp	r3, #7
	beq	.L111
	.loc 1 1906 9 is_stmt 1
	.loc 1 1906 78 is_stmt 0
	ldr	r3, [r1, #20]
	.loc 1 1906 25
	ldr	r4, [r1, #8]
	orr	r3, r3, r4, lsl #30
.LVL89:
.L103:
	.loc 1 1910 7 is_stmt 1
	.loc 1 1910 50 is_stmt 0
	ldr	r0, [r0, #112]
.LVL90:
	.loc 1 1910 84
	ldr	r1, [r1, #4]
.LVL91:
	.loc 1 1910 68
	add	ip, r0, r1, lsl #3
.LVL92:
	.loc 1 1913 7 is_stmt 1
	.loc 1 1913 22 is_stmt 0
	str	r2, [r0, r1, lsl #3]
	.loc 1 1914 7 is_stmt 1
.LVL93:
	.loc 1 1915 7
	.loc 1 1915 22 is_stmt 0
	str	r3, [ip, #4]
	.loc 1 1919 5 is_stmt 1
	.loc 1 1919 12 is_stmt 0
	movs	r0, #0
	.loc 1 1928 1
	ldr	r4, [sp], #4
	.cfi_remember_state
	.cfi_restore 4
	.cfi_def_cfa_offset 0
	bx	lr
.LVL94:
.L111:
	.cfi_restore_state
	.loc 1 1902 9 is_stmt 1
	.loc 1 1902 25 is_stmt 0
	ldr	r3, [r1, #24]
.LVL95:
	b	.L103
	.cfi_endproc
.LFE345:
	.size	HAL_FDCAN_ConfigFilter, .-HAL_FDCAN_ConfigFilter
	.section	.text.HAL_FDCAN_ConfigGlobalFilter,"ax",%progbits
	.align	1
	.global	HAL_FDCAN_ConfigGlobalFilter
	.syntax unified
	.thumb
	.thumb_func
	.type	HAL_FDCAN_ConfigGlobalFilter, %function
HAL_FDCAN_ConfigGlobalFilter:
.LFB346:
	.loc 1 1951 1 is_stmt 1
	.cfi_startproc
	@ args = 4, pretend = 0, frame = 0
	@ frame_needed = 0, uses_anonymous_args = 0
	@ link register save eliminated.
.LVL96:
	.loc 1 1953 3
	.loc 1 1954 3
	.loc 1 1955 3
	.loc 1 1956 3
	.loc 1 1958 3
	.loc 1 1958 13 is_stmt 0
	ldrb	ip, [r0, #152]	@ zero_extendqisi2
	uxtb	ip, ip
	.loc 1 1958 6
	cmp	ip, #1
	beq	.L115
	.loc 1 1972 5 is_stmt 1
	.loc 1 1972 11 is_stmt 0
	ldr	r3, [r0, #156]
.LVL97:
	.loc 1 1972 23
	orr	r3, r3, #4
	str	r3, [r0, #156]
	.loc 1 1974 5 is_stmt 1
	.loc 1 1974 12 is_stmt 0
	movs	r0, #1
.LVL98:
	.loc 1 1976 1
	bx	lr
.LVL99:
.L115:
	.loc 1 1961 5 is_stmt 1
	.loc 1 1962 46 is_stmt 0
	lsls	r2, r2, #2
.LVL100:
	.loc 1 1961 55
	orr	r2, r2, r1, lsl #4
	.loc 1 1962 55
	orr	r3, r2, r3, lsl #1
.LVL101:
	.loc 1 1961 11
	ldr	r1, [r0]
.LVL102:
	.loc 1 1963 56
	ldr	r2, [sp]
	orrs	r2, r2, r3
	.loc 1 1961 27
	str	r2, [r1, #128]
	.loc 1 1967 5 is_stmt 1
	.loc 1 1967 12 is_stmt 0
	movs	r0, #0
.LVL103:
	bx	lr
	.cfi_endproc
.LFE346:
	.size	HAL_FDCAN_ConfigGlobalFilter, .-HAL_FDCAN_ConfigGlobalFilter
	.section	.text.HAL_FDCAN_ConfigExtendedIdMask,"ax",%progbits
	.align	1
	.global	HAL_FDCAN_ConfigExtendedIdMask
	.syntax unified
	.thumb
	.thumb_func
	.type	HAL_FDCAN_ConfigExtendedIdMask, %function
HAL_FDCAN_ConfigExtendedIdMask:
.LFB347:
	.loc 1 1987 1 is_stmt 1
	.cfi_startproc
	@ args = 0, pretend = 0, frame = 0
	@ frame_needed = 0, uses_anonymous_args = 0
	@ link register save eliminated.
.LVL104:
	.loc 1 1989 3
	.loc 1 1991 3
	.loc 1 1991 13 is_stmt 0
	ldrb	r3, [r0, #152]	@ zero_extendqisi2
	uxtb	r3, r3
	.loc 1 1991 6
	cmp	r3, #1
	beq	.L119
	.loc 1 2002 5 is_stmt 1
	.loc 1 2002 11 is_stmt 0
	ldr	r3, [r0, #156]
	.loc 1 2002 23
	orr	r3, r3, #4
	str	r3, [r0, #156]
	.loc 1 2004 5 is_stmt 1
	.loc 1 2004 12 is_stmt 0
	movs	r0, #1
.LVL105:
	.loc 1 2006 1
	bx	lr
.LVL106:
.L119:
	.loc 1 1994 5 is_stmt 1
	.loc 1 1994 11 is_stmt 0
	ldr	r3, [r0]
	.loc 1 1994 29
	str	r1, [r3, #144]
	.loc 1 1997 5 is_stmt 1
	.loc 1 1997 12 is_stmt 0
	movs	r0, #0
.LVL107:
	bx	lr
	.cfi_endproc
.LFE347:
	.size	HAL_FDCAN_ConfigExtendedIdMask, .-HAL_FDCAN_ConfigExtendedIdMask
	.section	.text.HAL_FDCAN_ConfigRxFifoOverwrite,"ax",%progbits
	.align	1
	.global	HAL_FDCAN_ConfigRxFifoOverwrite
	.syntax unified
	.thumb
	.thumb_func
	.type	HAL_FDCAN_ConfigRxFifoOverwrite, %function
HAL_FDCAN_ConfigRxFifoOverwrite:
.LFB348:
	.loc 1 2021 1 is_stmt 1
	.cfi_startproc
	@ args = 0, pretend = 0, frame = 0
	@ frame_needed = 0, uses_anonymous_args = 0
	@ link register save eliminated.
.LVL108:
	.loc 1 2023 3
	.loc 1 2024 3
	.loc 1 2026 3
	.loc 1 2026 13 is_stmt 0
	ldrb	r3, [r0, #152]	@ zero_extendqisi2
	uxtb	r3, r3
	.loc 1 2026 6
	cmp	r3, #1
	beq	.L125
	.loc 1 2045 5 is_stmt 1
	.loc 1 2045 11 is_stmt 0
	ldr	r3, [r0, #156]
	.loc 1 2045 23
	orr	r3, r3, #4
	str	r3, [r0, #156]
	.loc 1 2047 5 is_stmt 1
	.loc 1 2047 12 is_stmt 0
	movs	r0, #1
.LVL109:
	.loc 1 2049 1
	bx	lr
.LVL110:
.L125:
	.loc 1 2028 5 is_stmt 1
	.loc 1 2028 8 is_stmt 0
	cmp	r1, #64
	beq	.L126
	.loc 1 2036 7 is_stmt 1
	.loc 1 2036 50 is_stmt 0
	ldr	r1, [r0]
.LVL111:
	.loc 1 2036 60
	ldr	r3, [r1, #176]
	.loc 1 2036 71
	bic	r3, r3, #-2147483648
	.loc 1 2036 96
	orr	r3, r3, r2, lsl #31
	.loc 1 2036 36
	str	r3, [r1, #176]
.L123:
	.loc 1 2040 5 is_stmt 1
	.loc 1 2040 12 is_stmt 0
	movs	r0, #0
.LVL112:
	bx	lr
.LVL113:
.L126:
	.loc 1 2031 7 is_stmt 1
	.loc 1 2031 50 is_stmt 0
	ldr	r1, [r0]
.LVL114:
	.loc 1 2031 60
	ldr	r3, [r1, #160]
	.loc 1 2031 71
	bic	r3, r3, #-2147483648
	.loc 1 2031 96
	orr	r3, r3, r2, lsl #31
	.loc 1 2031 36
	str	r3, [r1, #160]
	b	.L123
	.cfi_endproc
.LFE348:
	.size	HAL_FDCAN_ConfigRxFifoOverwrite, .-HAL_FDCAN_ConfigRxFifoOverwrite
	.section	.text.HAL_FDCAN_ConfigFifoWatermark,"ax",%progbits
	.align	1
	.global	HAL_FDCAN_ConfigFifoWatermark
	.syntax unified
	.thumb
	.thumb_func
	.type	HAL_FDCAN_ConfigFifoWatermark, %function
HAL_FDCAN_ConfigFifoWatermark:
.LFB349:
	.loc 1 2064 1 is_stmt 1
	.cfi_startproc
	@ args = 0, pretend = 0, frame = 0
	@ frame_needed = 0, uses_anonymous_args = 0
	@ link register save eliminated.
.LVL115:
	.loc 1 2066 3
	.loc 1 2067 3
	.loc 1 2073 5
	.loc 1 2076 3
	.loc 1 2076 13 is_stmt 0
	ldrb	r3, [r0, #152]	@ zero_extendqisi2
	uxtb	r3, r3
	.loc 1 2076 6
	cmp	r3, #1
	beq	.L133
	.loc 1 2098 5 is_stmt 1
	.loc 1 2098 11 is_stmt 0
	ldr	r3, [r0, #156]
	.loc 1 2098 23
	orr	r3, r3, #4
	str	r3, [r0, #156]
	.loc 1 2100 5 is_stmt 1
	.loc 1 2100 12 is_stmt 0
	movs	r0, #1
.LVL116:
	.loc 1 2102 1
	bx	lr
.LVL117:
.L133:
	.loc 1 2079 5 is_stmt 1
	.loc 1 2079 8 is_stmt 0
	cbnz	r1, .L129
	.loc 1 2081 7 is_stmt 1
	.loc 1 2081 50 is_stmt 0
	ldr	r1, [r0]
.LVL118:
	.loc 1 2081 60
	ldr	r3, [r1, #240]
	.loc 1 2081 71
	bic	r3, r3, #1056964608
	.loc 1 2081 97
	orr	r3, r3, r2, lsl #24
	.loc 1 2081 36
	str	r3, [r1, #240]
.L130:
	.loc 1 2093 5 is_stmt 1
	.loc 1 2093 12 is_stmt 0
	movs	r0, #0
.LVL119:
	bx	lr
.LVL120:
.L129:
	.loc 1 2083 10 is_stmt 1
	.loc 1 2083 13 is_stmt 0
	cmp	r1, #1
	beq	.L134
	.loc 1 2089 7 is_stmt 1
	.loc 1 2089 50 is_stmt 0
	ldr	r1, [r0]
.LVL121:
	.loc 1 2089 60
	ldr	r3, [r1, #176]
	.loc 1 2089 71
	bic	r3, r3, #2130706432
	.loc 1 2089 97
	orr	r3, r3, r2, lsl #24
	.loc 1 2089 36
	str	r3, [r1, #176]
	b	.L130
.LVL122:
.L134:
	.loc 1 2085 7 is_stmt 1
	.loc 1 2085 50 is_stmt 0
	ldr	r1, [r0]
.LVL123:
	.loc 1 2085 60
	ldr	r3, [r1, #160]
	.loc 1 2085 71
	bic	r3, r3, #2130706432
	.loc 1 2085 97
	orr	r3, r3, r2, lsl #24
	.loc 1 2085 36
	str	r3, [r1, #160]
	b	.L130
	.cfi_endproc
.LFE349:
	.size	HAL_FDCAN_ConfigFifoWatermark, .-HAL_FDCAN_ConfigFifoWatermark
	.section	.text.HAL_FDCAN_ConfigRamWatchdog,"ax",%progbits
	.align	1
	.global	HAL_FDCAN_ConfigRamWatchdog
	.syntax unified
	.thumb
	.thumb_func
	.type	HAL_FDCAN_ConfigRamWatchdog, %function
HAL_FDCAN_ConfigRamWatchdog:
.LFB350:
	.loc 1 2114 1 is_stmt 1
	.cfi_startproc
	@ args = 0, pretend = 0, frame = 0
	@ frame_needed = 0, uses_anonymous_args = 0
	@ link register save eliminated.
.LVL124:
	.loc 1 2116 3
	.loc 1 2118 3
	.loc 1 2118 13 is_stmt 0
	ldrb	r3, [r0, #152]	@ zero_extendqisi2
	uxtb	r3, r3
	.loc 1 2118 6
	cmp	r3, #1
	beq	.L138
	.loc 1 2129 5 is_stmt 1
	.loc 1 2129 11 is_stmt 0
	ldr	r3, [r0, #156]
	.loc 1 2129 23
	orr	r3, r3, #4
	str	r3, [r0, #156]
	.loc 1 2131 5 is_stmt 1
	.loc 1 2131 12 is_stmt 0
	movs	r0, #1
.LVL125:
	.loc 1 2133 1
	bx	lr
.LVL126:
.L138:
	.loc 1 2121 5 is_stmt 1
	.loc 1 2121 46 is_stmt 0
	ldr	r2, [r0]
	.loc 1 2121 56
	ldr	r3, [r2, #20]
	.loc 1 2121 65
	bic	r3, r3, #255
	.loc 1 2121 90
	orrs	r3, r3, r1
	.loc 1 2121 32
	str	r3, [r2, #20]
	.loc 1 2124 5 is_stmt 1
	.loc 1 2124 12 is_stmt 0
	movs	r0, #0
.LVL127:
	bx	lr
	.cfi_endproc
.LFE350:
	.size	HAL_FDCAN_ConfigRamWatchdog, .-HAL_FDCAN_ConfigRamWatchdog
	.section	.text.HAL_FDCAN_ConfigTimestampCounter,"ax",%progbits
	.align	1
	.global	HAL_FDCAN_ConfigTimestampCounter
	.syntax unified
	.thumb
	.thumb_func
	.type	HAL_FDCAN_ConfigTimestampCounter, %function
HAL_FDCAN_ConfigTimestampCounter:
.LFB351:
	.loc 1 2144 1 is_stmt 1
	.cfi_startproc
	@ args = 0, pretend = 0, frame = 0
	@ frame_needed = 0, uses_anonymous_args = 0
	@ link register save eliminated.
.LVL128:
	.loc 1 2146 3
	.loc 1 2148 3
	.loc 1 2148 13 is_stmt 0
	ldrb	r3, [r0, #152]	@ zero_extendqisi2
	uxtb	r3, r3
	.loc 1 2148 6
	cmp	r3, #1
	beq	.L142
	.loc 1 2159 5 is_stmt 1
	.loc 1 2159 11 is_stmt 0
	ldr	r3, [r0, #156]
	.loc 1 2159 23
	orr	r3, r3, #4
	str	r3, [r0, #156]
	.loc 1 2161 5 is_stmt 1
	.loc 1 2161 12 is_stmt 0
	movs	r0, #1
.LVL129:
	.loc 1 2163 1
	bx	lr
.LVL130:
.L142:
	.loc 1 2151 5 is_stmt 1
	.loc 1 2151 47 is_stmt 0
	ldr	r2, [r0]
	.loc 1 2151 57
	ldr	r3, [r2, #32]
	.loc 1 2151 67
	bic	r3, r3, #983040
	.loc 1 2151 92
	orrs	r3, r3, r1
	.loc 1 2151 33
	str	r3, [r2, #32]
	.loc 1 2154 5 is_stmt 1
	.loc 1 2154 12 is_stmt 0
	movs	r0, #0
.LVL131:
	bx	lr
	.cfi_endproc
.LFE351:
	.size	HAL_FDCAN_ConfigTimestampCounter, .-HAL_FDCAN_ConfigTimestampCounter
	.section	.text.HAL_FDCAN_EnableTimestampCounter,"ax",%progbits
	.align	1
	.global	HAL_FDCAN_EnableTimestampCounter
	.syntax unified
	.thumb
	.thumb_func
	.type	HAL_FDCAN_EnableTimestampCounter, %function
HAL_FDCAN_EnableTimestampCounter:
.LFB352:
	.loc 1 2174 1 is_stmt 1
	.cfi_startproc
	@ args = 0, pretend = 0, frame = 0
	@ frame_needed = 0, uses_anonymous_args = 0
	@ link register save eliminated.
.LVL132:
	.loc 1 2176 3
	.loc 1 2178 3
	.loc 1 2178 13 is_stmt 0
	ldrb	r3, [r0, #152]	@ zero_extendqisi2
	uxtb	r3, r3
	.loc 1 2178 6
	cmp	r3, #1
	beq	.L146
	.loc 1 2189 5 is_stmt 1
	.loc 1 2189 11 is_stmt 0
	ldr	r3, [r0, #156]
	.loc 1 2189 23
	orr	r3, r3, #4
	str	r3, [r0, #156]
	.loc 1 2191 5 is_stmt 1
	.loc 1 2191 12 is_stmt 0
	movs	r0, #1
.LVL133:
	.loc 1 2193 1
	bx	lr
.LVL134:
.L146:
	.loc 1 2181 5 is_stmt 1
	.loc 1 2181 47 is_stmt 0
	ldr	r2, [r0]
	.loc 1 2181 57
	ldr	r3, [r2, #32]
	.loc 1 2181 67
	bic	r3, r3, #3
	.loc 1 2181 91
	orrs	r3, r3, r1
	.loc 1 2181 33
	str	r3, [r2, #32]
	.loc 1 2184 5 is_stmt 1
	.loc 1 2184 12 is_stmt 0
	movs	r0, #0
.LVL135:
	bx	lr
	.cfi_endproc
.LFE352:
	.size	HAL_FDCAN_EnableTimestampCounter, .-HAL_FDCAN_EnableTimestampCounter
	.section	.text.HAL_FDCAN_DisableTimestampCounter,"ax",%progbits
	.align	1
	.global	HAL_FDCAN_DisableTimestampCounter
	.syntax unified
	.thumb
	.thumb_func
	.type	HAL_FDCAN_DisableTimestampCounter, %function
HAL_FDCAN_DisableTimestampCounter:
.LFB353:
	.loc 1 2202 1 is_stmt 1
	.cfi_startproc
	@ args = 0, pretend = 0, frame = 0
	@ frame_needed = 0, uses_anonymous_args = 0
	@ link register save eliminated.
.LVL136:
	.loc 1 2203 3
	.loc 1 2203 13 is_stmt 0
	ldrb	r3, [r0, #152]	@ zero_extendqisi2
	uxtb	r3, r3
	.loc 1 2203 6
	cmp	r3, #1
	beq	.L150
	.loc 1 2214 5 is_stmt 1
	.loc 1 2214 11 is_stmt 0
	ldr	r3, [r0, #156]
	.loc 1 2214 23
	orr	r3, r3, #4
	str	r3, [r0, #156]
	.loc 1 2216 5 is_stmt 1
	.loc 1 2216 12 is_stmt 0
	movs	r0, #1
.LVL137:
	.loc 1 2218 1
	bx	lr
.LVL138:
.L150:
	.loc 1 2206 5 is_stmt 1
	.loc 1 2206 13 is_stmt 0
	ldr	r2, [r0]
	.loc 1 2206 23
	ldr	r3, [r2, #32]
	.loc 1 2206 31
	bic	r3, r3, #3
	str	r3, [r2, #32]
	.loc 1 2209 5 is_stmt 1
	.loc 1 2209 12 is_stmt 0
	movs	r0, #0
.LVL139:
	bx	lr
	.cfi_endproc
.LFE353:
	.size	HAL_FDCAN_DisableTimestampCounter, .-HAL_FDCAN_DisableTimestampCounter
	.section	.text.HAL_FDCAN_GetTimestampCounter,"ax",%progbits
	.align	1
	.global	HAL_FDCAN_GetTimestampCounter
	.syntax unified
	.thumb
	.thumb_func
	.type	HAL_FDCAN_GetTimestampCounter, %function
HAL_FDCAN_GetTimestampCounter:
.LFB354:
	.loc 1 2227 1 is_stmt 1
	.cfi_startproc
	@ args = 0, pretend = 0, frame = 0
	@ frame_needed = 0, uses_anonymous_args = 0
	@ link register save eliminated.
.LVL140:
	.loc 1 2228 3
	.loc 1 2228 27 is_stmt 0
	ldr	r3, [r0]
	.loc 1 2228 37
	ldr	r0, [r3, #36]
.LVL141:
	.loc 1 2229 1
	uxth	r0, r0
	bx	lr
	.cfi_endproc
.LFE354:
	.size	HAL_FDCAN_GetTimestampCounter, .-HAL_FDCAN_GetTimestampCounter
	.section	.text.HAL_FDCAN_ResetTimestampCounter,"ax",%progbits
	.align	1
	.global	HAL_FDCAN_ResetTimestampCounter
	.syntax unified
	.thumb
	.thumb_func
	.type	HAL_FDCAN_ResetTimestampCounter, %function
HAL_FDCAN_ResetTimestampCounter:
.LFB355:
	.loc 1 2238 1 is_stmt 1
	.cfi_startproc
	@ args = 0, pretend = 0, frame = 0
	@ frame_needed = 0, uses_anonymous_args = 0
	@ link register save eliminated.
.LVL142:
	.loc 1 2239 3
	.loc 1 2239 14 is_stmt 0
	ldr	r2, [r0]
	.loc 1 2239 24
	ldr	r3, [r2, #32]
	.loc 1 2239 31
	and	r3, r3, #3
	.loc 1 2239 6
	cmp	r3, #2
	beq	.L153
	.loc 1 2243 5 is_stmt 1
	.loc 1 2243 31 is_stmt 0
	movs	r0, #0
.LVL143:
	str	r0, [r2, #36]
	.loc 1 2255 3 is_stmt 1
	.loc 1 2255 10 is_stmt 0
	bx	lr
.LVL144:
.L153:
	.loc 1 2249 5 is_stmt 1
	.loc 1 2249 11 is_stmt 0
	ldr	r3, [r0, #156]
	.loc 1 2249 23
	orr	r3, r3, #16
	str	r3, [r0, #156]
	.loc 1 2251 5 is_stmt 1
	.loc 1 2251 12 is_stmt 0
	movs	r0, #1
.LVL145:
	.loc 1 2256 1
	bx	lr
	.cfi_endproc
.LFE355:
	.size	HAL_FDCAN_ResetTimestampCounter, .-HAL_FDCAN_ResetTimestampCounter
	.section	.text.HAL_FDCAN_ConfigTimeoutCounter,"ax",%progbits
	.align	1
	.global	HAL_FDCAN_ConfigTimeoutCounter
	.syntax unified
	.thumb
	.thumb_func
	.type	HAL_FDCAN_ConfigTimeoutCounter, %function
HAL_FDCAN_ConfigTimeoutCounter:
.LFB356:
	.loc 1 2270 1 is_stmt 1
	.cfi_startproc
	@ args = 0, pretend = 0, frame = 0
	@ frame_needed = 0, uses_anonymous_args = 0
	@ link register save eliminated.
.LVL146:
	.loc 1 2272 3
	.loc 1 2273 3
	.loc 1 2275 3
	.loc 1 2275 13 is_stmt 0
	ldrb	r3, [r0, #152]	@ zero_extendqisi2
	uxtb	r3, r3
	.loc 1 2275 6
	cmp	r3, #1
	beq	.L158
	.loc 1 2287 5 is_stmt 1
	.loc 1 2287 11 is_stmt 0
	ldr	r3, [r0, #156]
	.loc 1 2287 23
	orr	r3, r3, #4
	str	r3, [r0, #156]
	.loc 1 2289 5 is_stmt 1
	.loc 1 2289 12 is_stmt 0
	movs	r0, #1
.LVL147:
	.loc 1 2291 1
	bx	lr
.LVL148:
.L158:
	.loc 1 2278 5 is_stmt 1
	.loc 1 2278 47 is_stmt 0
	ldr	r0, [r0]
.LVL149:
	.loc 1 2278 57
	ldr	r3, [r0, #40]
	.loc 1 2278 67
	bic	r3, r3, #6
	lsls	r3, r3, #16
	lsrs	r3, r3, #16
	.loc 1 2278 136
	orr	r1, r1, r2, lsl #16
.LVL150:
	.loc 1 2278 115
	orrs	r3, r3, r1
	.loc 1 2278 33
	str	r3, [r0, #40]
	.loc 1 2282 5 is_stmt 1
	.loc 1 2282 12 is_stmt 0
	movs	r0, #0
	bx	lr
	.cfi_endproc
.LFE356:
	.size	HAL_FDCAN_ConfigTimeoutCounter, .-HAL_FDCAN_ConfigTimeoutCounter
	.section	.text.HAL_FDCAN_EnableTimeoutCounter,"ax",%progbits
	.align	1
	.global	HAL_FDCAN_EnableTimeoutCounter
	.syntax unified
	.thumb
	.thumb_func
	.type	HAL_FDCAN_EnableTimeoutCounter, %function
HAL_FDCAN_EnableTimeoutCounter:
.LFB357:
	.loc 1 2300 1 is_stmt 1
	.cfi_startproc
	@ args = 0, pretend = 0, frame = 0
	@ frame_needed = 0, uses_anonymous_args = 0
	@ link register save eliminated.
.LVL151:
	.loc 1 2301 3
	.loc 1 2301 13 is_stmt 0
	ldrb	r3, [r0, #152]	@ zero_extendqisi2
	uxtb	r3, r3
	.loc 1 2301 6
	cmp	r3, #1
	beq	.L162
	.loc 1 2312 5 is_stmt 1
	.loc 1 2312 11 is_stmt 0
	ldr	r3, [r0, #156]
	.loc 1 2312 23
	orr	r3, r3, #4
	str	r3, [r0, #156]
	.loc 1 2314 5 is_stmt 1
	.loc 1 2314 12 is_stmt 0
	movs	r0, #1
.LVL152:
	.loc 1 2316 1
	bx	lr
.LVL153:
.L162:
	.loc 1 2304 5 is_stmt 1
	.loc 1 2304 13 is_stmt 0
	ldr	r2, [r0]
	.loc 1 2304 23
	ldr	r3, [r2, #40]
	.loc 1 2304 31
	orr	r3, r3, #1
	str	r3, [r2, #40]
	.loc 1 2307 5 is_stmt 1
	.loc 1 2307 12 is_stmt 0
	movs	r0, #0
.LVL154:
	bx	lr
	.cfi_endproc
.LFE357:
	.size	HAL_FDCAN_EnableTimeoutCounter, .-HAL_FDCAN_EnableTimeoutCounter
	.section	.text.HAL_FDCAN_DisableTimeoutCounter,"ax",%progbits
	.align	1
	.global	HAL_FDCAN_DisableTimeoutCounter
	.syntax unified
	.thumb
	.thumb_func
	.type	HAL_FDCAN_DisableTimeoutCounter, %function
HAL_FDCAN_DisableTimeoutCounter:
.LFB358:
	.loc 1 2325 1 is_stmt 1
	.cfi_startproc
	@ args = 0, pretend = 0, frame = 0
	@ frame_needed = 0, uses_anonymous_args = 0
	@ link register save eliminated.
.LVL155:
	.loc 1 2326 3
	.loc 1 2326 13 is_stmt 0
	ldrb	r3, [r0, #152]	@ zero_extendqisi2
	uxtb	r3, r3
	.loc 1 2326 6
	cmp	r3, #1
	beq	.L166
	.loc 1 2337 5 is_stmt 1
	.loc 1 2337 11 is_stmt 0
	ldr	r3, [r0, #156]
	.loc 1 2337 23
	orr	r3, r3, #4
	str	r3, [r0, #156]
	.loc 1 2339 5 is_stmt 1
	.loc 1 2339 12 is_stmt 0
	movs	r0, #1
.LVL156:
	.loc 1 2341 1
	bx	lr
.LVL157:
.L166:
	.loc 1 2329 5 is_stmt 1
	.loc 1 2329 13 is_stmt 0
	ldr	r2, [r0]
	.loc 1 2329 23
	ldr	r3, [r2, #40]
	.loc 1 2329 31
	bic	r3, r3, #1
	str	r3, [r2, #40]
	.loc 1 2332 5 is_stmt 1
	.loc 1 2332 12 is_stmt 0
	movs	r0, #0
.LVL158:
	bx	lr
	.cfi_endproc
.LFE358:
	.size	HAL_FDCAN_DisableTimeoutCounter, .-HAL_FDCAN_DisableTimeoutCounter
	.section	.text.HAL_FDCAN_GetTimeoutCounter,"ax",%progbits
	.align	1
	.global	HAL_FDCAN_GetTimeoutCounter
	.syntax unified
	.thumb
	.thumb_func
	.type	HAL_FDCAN_GetTimeoutCounter, %function
HAL_FDCAN_GetTimeoutCounter:
.LFB359:
	.loc 1 2350 1 is_stmt 1
	.cfi_startproc
	@ args = 0, pretend = 0, frame = 0
	@ frame_needed = 0, uses_anonymous_args = 0
	@ link register save eliminated.
.LVL159:
	.loc 1 2351 3
	.loc 1 2351 27 is_stmt 0
	ldr	r3, [r0]
	.loc 1 2351 37
	ldr	r0, [r3, #44]
.LVL160:
	.loc 1 2352 1
	uxth	r0, r0
	bx	lr
	.cfi_endproc
.LFE359:
	.size	HAL_FDCAN_GetTimeoutCounter, .-HAL_FDCAN_GetTimeoutCounter
	.section	.text.HAL_FDCAN_ResetTimeoutCounter,"ax",%progbits
	.align	1
	.global	HAL_FDCAN_ResetTimeoutCounter
	.syntax unified
	.thumb
	.thumb_func
	.type	HAL_FDCAN_ResetTimeoutCounter, %function
HAL_FDCAN_ResetTimeoutCounter:
.LFB360:
	.loc 1 2361 1 is_stmt 1
	.cfi_startproc
	@ args = 0, pretend = 0, frame = 0
	@ frame_needed = 0, uses_anonymous_args = 0
	@ link register save eliminated.
.LVL161:
	.loc 1 2362 3
	.loc 1 2362 14 is_stmt 0
	ldr	r3, [r0]
	.loc 1 2362 24
	ldr	r2, [r3, #40]
	.loc 1 2362 6
	tst	r2, #6
	bne	.L169
	.loc 1 2365 5 is_stmt 1
	.loc 1 2365 31 is_stmt 0
	movs	r0, #0
.LVL162:
	str	r0, [r3, #44]
	.loc 1 2368 5 is_stmt 1
	.loc 1 2368 12 is_stmt 0
	bx	lr
.LVL163:
.L169:
	.loc 1 2374 5 is_stmt 1
	.loc 1 2374 11 is_stmt 0
	ldr	r3, [r0, #156]
	.loc 1 2374 23
	orr	r3, r3, #16
	str	r3, [r0, #156]
	.loc 1 2376 5 is_stmt 1
	.loc 1 2376 12 is_stmt 0
	movs	r0, #1
.LVL164:
	.loc 1 2378 1
	bx	lr
	.cfi_endproc
.LFE360:
	.size	HAL_FDCAN_ResetTimeoutCounter, .-HAL_FDCAN_ResetTimeoutCounter
	.section	.text.HAL_FDCAN_ConfigTxDelayCompensation,"ax",%progbits
	.align	1
	.global	HAL_FDCAN_ConfigTxDelayCompensation
	.syntax unified
	.thumb
	.thumb_func
	.type	HAL_FDCAN_ConfigTxDelayCompensation, %function
HAL_FDCAN_ConfigTxDelayCompensation:
.LFB361:
	.loc 1 2392 1 is_stmt 1
	.cfi_startproc
	@ args = 0, pretend = 0, frame = 0
	@ frame_needed = 0, uses_anonymous_args = 0
	@ link register save eliminated.
.LVL165:
	.loc 1 2394 3
	.loc 1 2395 3
	.loc 1 2397 3
	.loc 1 2397 13 is_stmt 0
	ldrb	r3, [r0, #152]	@ zero_extendqisi2
	uxtb	r3, r3
	.loc 1 2397 6
	cmp	r3, #1
	beq	.L174
	.loc 1 2408 5 is_stmt 1
	.loc 1 2408 11 is_stmt 0
	ldr	r3, [r0, #156]
	.loc 1 2408 23
	orr	r3, r3, #4
	str	r3, [r0, #156]
	.loc 1 2410 5 is_stmt 1
	.loc 1 2410 12 is_stmt 0
	movs	r0, #1
.LVL166:
	.loc 1 2412 1
	bx	lr
.LVL167:
.L174:
	.loc 1 2400 5 is_stmt 1
	.loc 1 2400 11 is_stmt 0
	ldr	r3, [r0]
	.loc 1 2400 51
	orr	r2, r2, r1, lsl #8
.LVL168:
	.loc 1 2400 28
	str	r2, [r3, #72]
	.loc 1 2403 5 is_stmt 1
	.loc 1 2403 12 is_stmt 0
	movs	r0, #0
.LVL169:
	bx	lr
	.cfi_endproc
.LFE361:
	.size	HAL_FDCAN_ConfigTxDelayCompensation, .-HAL_FDCAN_ConfigTxDelayCompensation
	.section	.text.HAL_FDCAN_EnableTxDelayCompensation,"ax",%progbits
	.align	1
	.global	HAL_FDCAN_EnableTxDelayCompensation
	.syntax unified
	.thumb
	.thumb_func
	.type	HAL_FDCAN_EnableTxDelayCompensation, %function
HAL_FDCAN_EnableTxDelayCompensation:
.LFB362:
	.loc 1 2421 1 is_stmt 1
	.cfi_startproc
	@ args = 0, pretend = 0, frame = 0
	@ frame_needed = 0, uses_anonymous_args = 0
	@ link register save eliminated.
.LVL170:
	.loc 1 2422 3
	.loc 1 2422 13 is_stmt 0
	ldrb	r3, [r0, #152]	@ zero_extendqisi2
	uxtb	r3, r3
	.loc 1 2422 6
	cmp	r3, #1
	beq	.L178
	.loc 1 2433 5 is_stmt 1
	.loc 1 2433 11 is_stmt 0
	ldr	r3, [r0, #156]
	.loc 1 2433 23
	orr	r3, r3, #4
	str	r3, [r0, #156]
	.loc 1 2435 5 is_stmt 1
	.loc 1 2435 12 is_stmt 0
	movs	r0, #1
.LVL171:
	.loc 1 2437 1
	bx	lr
.LVL172:
.L178:
	.loc 1 2425 5 is_stmt 1
	.loc 1 2425 13 is_stmt 0
	ldr	r2, [r0]
	.loc 1 2425 23
	ldr	r3, [r2, #12]
	.loc 1 2425 31
	orr	r3, r3, #8388608
	str	r3, [r2, #12]
	.loc 1 2428 5 is_stmt 1
	.loc 1 2428 12 is_stmt 0
	movs	r0, #0
.LVL173:
	bx	lr
	.cfi_endproc
.LFE362:
	.size	HAL_FDCAN_EnableTxDelayCompensation, .-HAL_FDCAN_EnableTxDelayCompensation
	.section	.text.HAL_FDCAN_DisableTxDelayCompensation,"ax",%progbits
	.align	1
	.global	HAL_FDCAN_DisableTxDelayCompensation
	.syntax unified
	.thumb
	.thumb_func
	.type	HAL_FDCAN_DisableTxDelayCompensation, %function
HAL_FDCAN_DisableTxDelayCompensation:
.LFB363:
	.loc 1 2446 1 is_stmt 1
	.cfi_startproc
	@ args = 0, pretend = 0, frame = 0
	@ frame_needed = 0, uses_anonymous_args = 0
	@ link register save eliminated.
.LVL174:
	.loc 1 2447 3
	.loc 1 2447 13 is_stmt 0
	ldrb	r3, [r0, #152]	@ zero_extendqisi2
	uxtb	r3, r3
	.loc 1 2447 6
	cmp	r3, #1
	beq	.L182
	.loc 1 2458 5 is_stmt 1
	.loc 1 2458 11 is_stmt 0
	ldr	r3, [r0, #156]
	.loc 1 2458 23
	orr	r3, r3, #4
	str	r3, [r0, #156]
	.loc 1 2460 5 is_stmt 1
	.loc 1 2460 12 is_stmt 0
	movs	r0, #1
.LVL175:
	.loc 1 2462 1
	bx	lr
.LVL176:
.L182:
	.loc 1 2450 5 is_stmt 1
	.loc 1 2450 13 is_stmt 0
	ldr	r2, [r0]
	.loc 1 2450 23
	ldr	r3, [r2, #12]
	.loc 1 2450 31
	bic	r3, r3, #8388608
	str	r3, [r2, #12]
	.loc 1 2453 5 is_stmt 1
	.loc 1 2453 12 is_stmt 0
	movs	r0, #0
.LVL177:
	bx	lr
	.cfi_endproc
.LFE363:
	.size	HAL_FDCAN_DisableTxDelayCompensation, .-HAL_FDCAN_DisableTxDelayCompensation
	.section	.text.HAL_FDCAN_EnableISOMode,"ax",%progbits
	.align	1
	.global	HAL_FDCAN_EnableISOMode
	.syntax unified
	.thumb
	.thumb_func
	.type	HAL_FDCAN_EnableISOMode, %function
HAL_FDCAN_EnableISOMode:
.LFB364:
	.loc 1 2472 1 is_stmt 1
	.cfi_startproc
	@ args = 0, pretend = 0, frame = 0
	@ frame_needed = 0, uses_anonymous_args = 0
	@ link register save eliminated.
.LVL178:
	.loc 1 2473 3
	.loc 1 2473 13 is_stmt 0
	ldrb	r3, [r0, #152]	@ zero_extendqisi2
	uxtb	r3, r3
	.loc 1 2473 6
	cmp	r3, #1
	beq	.L186
	.loc 1 2484 5 is_stmt 1
	.loc 1 2484 11 is_stmt 0
	ldr	r3, [r0, #156]
	.loc 1 2484 23
	orr	r3, r3, #4
	str	r3, [r0, #156]
	.loc 1 2486 5 is_stmt 1
	.loc 1 2486 12 is_stmt 0
	movs	r0, #1
.LVL179:
	.loc 1 2488 1
	bx	lr
.LVL180:
.L186:
	.loc 1 2476 5 is_stmt 1
	.loc 1 2476 13 is_stmt 0
	ldr	r2, [r0]
	.loc 1 2476 23
	ldr	r3, [r2, #24]
	.loc 1 2476 31
	bic	r3, r3, #32768
	str	r3, [r2, #24]
	.loc 1 2479 5 is_stmt 1
	.loc 1 2479 12 is_stmt 0
	movs	r0, #0
.LVL181:
	bx	lr
	.cfi_endproc
.LFE364:
	.size	HAL_FDCAN_EnableISOMode, .-HAL_FDCAN_EnableISOMode
	.section	.text.HAL_FDCAN_DisableISOMode,"ax",%progbits
	.align	1
	.global	HAL_FDCAN_DisableISOMode
	.syntax unified
	.thumb
	.thumb_func
	.type	HAL_FDCAN_DisableISOMode, %function
HAL_FDCAN_DisableISOMode:
.LFB365:
	.loc 1 2498 1 is_stmt 1
	.cfi_startproc
	@ args = 0, pretend = 0, frame = 0
	@ frame_needed = 0, uses_anonymous_args = 0
	@ link register save eliminated.
.LVL182:
	.loc 1 2499 3
	.loc 1 2499 13 is_stmt 0
	ldrb	r3, [r0, #152]	@ zero_extendqisi2
	uxtb	r3, r3
	.loc 1 2499 6
	cmp	r3, #1
	beq	.L190
	.loc 1 2510 5 is_stmt 1
	.loc 1 2510 11 is_stmt 0
	ldr	r3, [r0, #156]
	.loc 1 2510 23
	orr	r3, r3, #4
	str	r3, [r0, #156]
	.loc 1 2512 5 is_stmt 1
	.loc 1 2512 12 is_stmt 0
	movs	r0, #1
.LVL183:
	.loc 1 2514 1
	bx	lr
.LVL184:
.L190:
	.loc 1 2502 5 is_stmt 1
	.loc 1 2502 13 is_stmt 0
	ldr	r2, [r0]
	.loc 1 2502 23
	ldr	r3, [r2, #24]
	.loc 1 2502 31
	orr	r3, r3, #32768
	str	r3, [r2, #24]
	.loc 1 2505 5 is_stmt 1
	.loc 1 2505 12 is_stmt 0
	movs	r0, #0
.LVL185:
	bx	lr
	.cfi_endproc
.LFE365:
	.size	HAL_FDCAN_DisableISOMode, .-HAL_FDCAN_DisableISOMode
	.section	.text.HAL_FDCAN_EnableEdgeFiltering,"ax",%progbits
	.align	1
	.global	HAL_FDCAN_EnableEdgeFiltering
	.syntax unified
	.thumb
	.thumb_func
	.type	HAL_FDCAN_EnableEdgeFiltering, %function
HAL_FDCAN_EnableEdgeFiltering:
.LFB366:
	.loc 1 2524 1 is_stmt 1
	.cfi_startproc
	@ args = 0, pretend = 0, frame = 0
	@ frame_needed = 0, uses_anonymous_args = 0
	@ link register save eliminated.
.LVL186:
	.loc 1 2525 3
	.loc 1 2525 13 is_stmt 0
	ldrb	r3, [r0, #152]	@ zero_extendqisi2
	uxtb	r3, r3
	.loc 1 2525 6
	cmp	r3, #1
	beq	.L194
	.loc 1 2536 5 is_stmt 1
	.loc 1 2536 11 is_stmt 0
	ldr	r3, [r0, #156]
	.loc 1 2536 23
	orr	r3, r3, #4
	str	r3, [r0, #156]
	.loc 1 2538 5 is_stmt 1
	.loc 1 2538 12 is_stmt 0
	movs	r0, #1
.LVL187:
	.loc 1 2540 1
	bx	lr
.LVL188:
.L194:
	.loc 1 2528 5 is_stmt 1
	.loc 1 2528 13 is_stmt 0
	ldr	r2, [r0]
	.loc 1 2528 23
	ldr	r3, [r2, #24]
	.loc 1 2528 31
	orr	r3, r3, #8192
	str	r3, [r2, #24]
	.loc 1 2531 5 is_stmt 1
	.loc 1 2531 12 is_stmt 0
	movs	r0, #0
.LVL189:
	bx	lr
	.cfi_endproc
.LFE366:
	.size	HAL_FDCAN_EnableEdgeFiltering, .-HAL_FDCAN_EnableEdgeFiltering
	.section	.text.HAL_FDCAN_DisableEdgeFiltering,"ax",%progbits
	.align	1
	.global	HAL_FDCAN_DisableEdgeFiltering
	.syntax unified
	.thumb
	.thumb_func
	.type	HAL_FDCAN_DisableEdgeFiltering, %function
HAL_FDCAN_DisableEdgeFiltering:
.LFB367:
	.loc 1 2550 1 is_stmt 1
	.cfi_startproc
	@ args = 0, pretend = 0, frame = 0
	@ frame_needed = 0, uses_anonymous_args = 0
	@ link register save eliminated.
.LVL190:
	.loc 1 2551 3
	.loc 1 2551 13 is_stmt 0
	ldrb	r3, [r0, #152]	@ zero_extendqisi2
	uxtb	r3, r3
	.loc 1 2551 6
	cmp	r3, #1
	beq	.L198
	.loc 1 2562 5 is_stmt 1
	.loc 1 2562 11 is_stmt 0
	ldr	r3, [r0, #156]
	.loc 1 2562 23
	orr	r3, r3, #4
	str	r3, [r0, #156]
	.loc 1 2564 5 is_stmt 1
	.loc 1 2564 12 is_stmt 0
	movs	r0, #1
.LVL191:
	.loc 1 2566 1
	bx	lr
.LVL192:
.L198:
	.loc 1 2554 5 is_stmt 1
	.loc 1 2554 13 is_stmt 0
	ldr	r2, [r0]
	.loc 1 2554 23
	ldr	r3, [r2, #24]
	.loc 1 2554 31
	bic	r3, r3, #8192
	str	r3, [r2, #24]
	.loc 1 2557 5 is_stmt 1
	.loc 1 2557 12 is_stmt 0
	movs	r0, #0
.LVL193:
	bx	lr
	.cfi_endproc
.LFE367:
	.size	HAL_FDCAN_DisableEdgeFiltering, .-HAL_FDCAN_DisableEdgeFiltering
	.section	.text.HAL_FDCAN_Start,"ax",%progbits
	.align	1
	.global	HAL_FDCAN_Start
	.syntax unified
	.thumb
	.thumb_func
	.type	HAL_FDCAN_Start, %function
HAL_FDCAN_Start:
.LFB368:
	.loc 1 2614 1 is_stmt 1
	.cfi_startproc
	@ args = 0, pretend = 0, frame = 0
	@ frame_needed = 0, uses_anonymous_args = 0
	@ link register save eliminated.
.LVL194:
	.loc 1 2615 3
	.loc 1 2615 13 is_stmt 0
	ldrb	r3, [r0, #152]	@ zero_extendqisi2
	uxtb	r3, r3
	.loc 1 2615 6
	cmp	r3, #1
	beq	.L202
	.loc 1 2632 5 is_stmt 1
	.loc 1 2632 11 is_stmt 0
	ldr	r3, [r0, #156]
	.loc 1 2632 23
	orr	r3, r3, #4
	str	r3, [r0, #156]
	.loc 1 2634 5 is_stmt 1
	.loc 1 2634 12 is_stmt 0
	movs	r0, #1
.LVL195:
	.loc 1 2636 1
	bx	lr
.LVL196:
.L202:
	.loc 1 2618 5 is_stmt 1
	.loc 1 2618 19 is_stmt 0
	movs	r3, #2
	strb	r3, [r0, #152]
	.loc 1 2621 5 is_stmt 1
	.loc 1 2621 13 is_stmt 0
	ldr	r2, [r0]
	.loc 1 2621 23
	ldr	r3, [r2, #24]
	.loc 1 2621 31
	bic	r3, r3, #1
	str	r3, [r2, #24]
	.loc 1 2624 5 is_stmt 1
	.loc 1 2624 23 is_stmt 0
	movs	r3, #0
	str	r3, [r0, #156]
	.loc 1 2627 5 is_stmt 1
	.loc 1 2627 12 is_stmt 0
	mov	r0, r3
.LVL197:
	bx	lr
	.cfi_endproc
.LFE368:
	.size	HAL_FDCAN_Start, .-HAL_FDCAN_Start
	.section	.text.HAL_FDCAN_Stop,"ax",%progbits
	.align	1
	.global	HAL_FDCAN_Stop
	.syntax unified
	.thumb
	.thumb_func
	.type	HAL_FDCAN_Stop, %function
HAL_FDCAN_Stop:
.LFB369:
	.loc 1 2645 1 is_stmt 1
	.cfi_startproc
	@ args = 0, pretend = 0, frame = 0
	@ frame_needed = 0, uses_anonymous_args = 0
	@ link register save eliminated.
.LVL198:
	.loc 1 2646 3
	.loc 1 2648 3
	.loc 1 2648 13 is_stmt 0
	ldrb	r3, [r0, #152]	@ zero_extendqisi2
	uxtb	r3, r3
	.loc 1 2648 6
	cmp	r3, #2
	bne	.L204
	.loc 1 2651 5 is_stmt 1
	.loc 1 2651 13 is_stmt 0
	ldr	r2, [r0]
	.loc 1 2651 23
	ldr	r3, [r2, #24]
	.loc 1 2651 31
	orr	r3, r3, #1
	str	r3, [r2, #24]
	.loc 1 2654 5 is_stmt 1
	.loc 1 2646 12 is_stmt 0
	movs	r3, #0
.LVL199:
.L205:
	.loc 1 2654 55 is_stmt 1
	.loc 1 2654 19 is_stmt 0
	ldr	r2, [r0]
	.loc 1 2654 29
	ldr	r1, [r2, #24]
	.loc 1 2654 55
	tst	r1, #1
	bne	.L212
	.loc 1 2657 7 is_stmt 1
	.loc 1 2657 10 is_stmt 0
	cmp	r3, #50
	bhi	.L213
	.loc 1 2669 7 is_stmt 1
	.loc 1 2669 14 is_stmt 0
	adds	r3, r3, #1
.LVL200:
	b	.L205
.L213:
	.loc 1 2660 9 is_stmt 1
	.loc 1 2660 15 is_stmt 0
	ldr	r3, [r0, #156]
.LVL201:
	.loc 1 2660 27
	orr	r3, r3, #1
	str	r3, [r0, #156]
	.loc 1 2663 9 is_stmt 1
	.loc 1 2663 23 is_stmt 0
	movs	r3, #3
	strb	r3, [r0, #152]
	.loc 1 2665 9 is_stmt 1
	.loc 1 2665 16 is_stmt 0
	movs	r0, #1
.LVL202:
	bx	lr
.LVL203:
.L212:
	.loc 1 2673 5 is_stmt 1
	.loc 1 2676 5
	.loc 1 2676 23 is_stmt 0
	ldr	r3, [r2, #24]
	.loc 1 2676 31
	bic	r3, r3, #16
	str	r3, [r2, #24]
	.loc 1 2679 5 is_stmt 1
	.loc 1 2673 13 is_stmt 0
	movs	r3, #0
.LVL204:
.L209:
	.loc 1 2679 55 is_stmt 1
	.loc 1 2679 19 is_stmt 0
	ldr	r2, [r0]
	.loc 1 2679 29
	ldr	r1, [r2, #24]
	.loc 1 2679 55
	tst	r1, #8
	beq	.L214
	.loc 1 2682 7 is_stmt 1
	.loc 1 2682 10 is_stmt 0
	cmp	r3, #50
	bhi	.L215
	.loc 1 2694 7 is_stmt 1
	.loc 1 2694 14 is_stmt 0
	adds	r3, r3, #1
.LVL205:
	b	.L209
.L215:
	.loc 1 2685 9 is_stmt 1
	.loc 1 2685 15 is_stmt 0
	ldr	r3, [r0, #156]
.LVL206:
	.loc 1 2685 27
	orr	r3, r3, #1
	str	r3, [r0, #156]
	.loc 1 2688 9 is_stmt 1
	.loc 1 2688 23 is_stmt 0
	movs	r3, #3
	strb	r3, [r0, #152]
	.loc 1 2690 9 is_stmt 1
	.loc 1 2690 16 is_stmt 0
	movs	r0, #1
.LVL207:
	bx	lr
.LVL208:
.L214:
	.loc 1 2698 5 is_stmt 1
	.loc 1 2698 23 is_stmt 0
	ldr	r3, [r2, #24]
.LVL209:
	.loc 1 2698 31
	orr	r3, r3, #2
	str	r3, [r2, #24]
	.loc 1 2701 5 is_stmt 1
	.loc 1 2701 34 is_stmt 0
	movs	r3, #0
	str	r3, [r0, #148]
	.loc 1 2704 5 is_stmt 1
	.loc 1 2704 19 is_stmt 0
	movs	r2, #1
	strb	r2, [r0, #152]
	.loc 1 2707 5 is_stmt 1
	.loc 1 2707 12 is_stmt 0
	mov	r0, r3
.LVL210:
	bx	lr
.LVL211:
.L204:
	.loc 1 2712 5 is_stmt 1
	.loc 1 2712 11 is_stmt 0
	ldr	r3, [r0, #156]
	.loc 1 2712 23
	orr	r3, r3, #8
	str	r3, [r0, #156]
	.loc 1 2714 5 is_stmt 1
	.loc 1 2714 12 is_stmt 0
	movs	r0, #1
.LVL212:
	.loc 1 2716 1
	bx	lr
	.cfi_endproc
.LFE369:
	.size	HAL_FDCAN_Stop, .-HAL_FDCAN_Stop
	.section	.text.HAL_FDCAN_DeInit,"ax",%progbits
	.align	1
	.global	HAL_FDCAN_DeInit
	.syntax unified
	.thumb
	.thumb_func
	.type	HAL_FDCAN_DeInit, %function
HAL_FDCAN_DeInit:
.LFB336:
	.loc 1 601 1 is_stmt 1
	.cfi_startproc
	@ args = 0, pretend = 0, frame = 0
	@ frame_needed = 0, uses_anonymous_args = 0
.LVL213:
	.loc 1 603 3
	.loc 1 603 6 is_stmt 0
	cbz	r0, .L218
	.loc 1 601 1
	push	{r4, lr}
	.cfi_def_cfa_offset 8
	.cfi_offset 4, -8
	.cfi_offset 14, -4
	mov	r4, r0
	.loc 1 609 3 is_stmt 1
	.loc 1 612 3
	.loc 1 612 9 is_stmt 0
	bl	HAL_FDCAN_Stop
.LVL214:
	.loc 1 615 3 is_stmt 1
	.loc 1 615 11 is_stmt 0
	ldr	r2, [r4]
	.loc 1 615 21
	ldr	r3, [r2, #92]
	.loc 1 615 28
	bic	r3, r3, #3
	str	r3, [r2, #92]
	.loc 1 627 3 is_stmt 1
	mov	r0, r4
	bl	HAL_FDCAN_MspDeInit
.LVL215:
	.loc 1 631 3
	.loc 1 631 21 is_stmt 0
	movs	r0, #0
	str	r0, [r4, #156]
	.loc 1 634 3 is_stmt 1
	.loc 1 634 17 is_stmt 0
	strb	r0, [r4, #152]
	.loc 1 637 3 is_stmt 1
	.loc 1 638 1 is_stmt 0
	pop	{r4, pc}
.LVL216:
.L218:
	.cfi_def_cfa_offset 0
	.cfi_restore 4
	.cfi_restore 14
	.loc 1 605 12
	movs	r0, #1
.LVL217:
	.loc 1 638 1
	bx	lr
	.cfi_endproc
.LFE336:
	.size	HAL_FDCAN_DeInit, .-HAL_FDCAN_DeInit
	.section	.text.HAL_FDCAN_AddMessageToTxFifoQ,"ax",%progbits
	.align	1
	.global	HAL_FDCAN_AddMessageToTxFifoQ
	.syntax unified
	.thumb
	.thumb_func
	.type	HAL_FDCAN_AddMessageToTxFifoQ, %function
HAL_FDCAN_AddMessageToTxFifoQ:
.LFB370:
	.loc 1 2728 1 is_stmt 1
	.cfi_startproc
	@ args = 0, pretend = 0, frame = 0
	@ frame_needed = 0, uses_anonymous_args = 0
.LVL218:
	push	{r3, r4, r5, lr}
	.cfi_def_cfa_offset 16
	.cfi_offset 3, -16
	.cfi_offset 4, -12
	.cfi_offset 5, -8
	.cfi_offset 14, -4
	mov	r4, r0
	.loc 1 2729 3
	.loc 1 2732 3
	.loc 1 2733 3
	.loc 1 2739 5
	.loc 1 2741 3
	.loc 1 2742 3
	.loc 1 2743 3
	.loc 1 2744 3
	.loc 1 2745 3
	.loc 1 2746 3
	.loc 1 2747 3
	.loc 1 2749 3
	.loc 1 2749 13 is_stmt 0
	ldrb	r3, [r0, #152]	@ zero_extendqisi2
	uxtb	r3, r3
	.loc 1 2749 6
	cmp	r3, #2
	bne	.L224
	.loc 1 2752 5 is_stmt 1
	.loc 1 2752 16 is_stmt 0
	ldr	r3, [r0]
	.loc 1 2752 26
	ldr	r0, [r3, #192]
.LVL219:
	.loc 1 2752 8
	tst	r0, #1056964608
	beq	.L229
	.loc 1 2761 5 is_stmt 1
	.loc 1 2761 26 is_stmt 0
	ldr	r0, [r3, #196]
	.loc 1 2761 8
	tst	r0, #2097152
	beq	.L227
	.loc 1 2764 7 is_stmt 1
	.loc 1 2764 13 is_stmt 0
	ldr	r3, [r4, #156]
	.loc 1 2764 25
	orr	r3, r3, #512
	str	r3, [r4, #156]
	.loc 1 2766 7 is_stmt 1
	.loc 1 2766 14 is_stmt 0
	movs	r0, #1
	b	.L226
.L229:
	.loc 1 2755 7 is_stmt 1
	.loc 1 2755 13 is_stmt 0
	ldr	r3, [r4, #156]
	.loc 1 2755 25
	orr	r3, r3, #32
	str	r3, [r4, #156]
	.loc 1 2757 7 is_stmt 1
	.loc 1 2757 14 is_stmt 0
	movs	r0, #1
	b	.L226
.L227:
	.loc 1 2771 7 is_stmt 1
	.loc 1 2771 36 is_stmt 0
	ldr	r5, [r3, #196]
	.loc 1 2771 16
	ubfx	r5, r5, #16, #5
.LVL220:
	.loc 1 2774 7 is_stmt 1
	mov	r3, r5
	mov	r0, r4
	bl	FDCAN_CopyMessageToRAM
.LVL221:
	.loc 1 2777 7
	.loc 1 2777 13 is_stmt 0
	ldr	r2, [r4]
	.loc 1 2777 46
	movs	r3, #1
	lsls	r3, r3, r5
	.loc 1 2777 31
	str	r3, [r2, #208]
	.loc 1 2780 7 is_stmt 1
	.loc 1 2780 36 is_stmt 0
	str	r3, [r4, #148]
	.loc 1 2784 5 is_stmt 1
	.loc 1 2784 12 is_stmt 0
	movs	r0, #0
	b	.L226
.LVL222:
.L224:
	.loc 1 2789 5 is_stmt 1
	.loc 1 2789 11 is_stmt 0
	ldr	r3, [r0, #156]
	.loc 1 2789 23
	orr	r3, r3, #8
	str	r3, [r0, #156]
	.loc 1 2791 5 is_stmt 1
	.loc 1 2791 12 is_stmt 0
	movs	r0, #1
.LVL223:
.L226:
	.loc 1 2793 1
	pop	{r3, r4, r5, pc}
	.cfi_endproc
.LFE370:
	.size	HAL_FDCAN_AddMessageToTxFifoQ, .-HAL_FDCAN_AddMessageToTxFifoQ
	.section	.text.HAL_FDCAN_AddMessageToTxBuffer,"ax",%progbits
	.align	1
	.global	HAL_FDCAN_AddMessageToTxBuffer
	.syntax unified
	.thumb
	.thumb_func
	.type	HAL_FDCAN_AddMessageToTxBuffer, %function
HAL_FDCAN_AddMessageToTxBuffer:
.LFB371:
	.loc 1 2807 1 is_stmt 1
	.cfi_startproc
	@ args = 0, pretend = 0, frame = 0
	@ frame_needed = 0, uses_anonymous_args = 0
.LVL224:
	.loc 1 2808 3
	.loc 1 2808 26 is_stmt 0
	ldrb	ip, [r0, #152]	@ zero_extendqisi2
.LVL225:
	.loc 1 2811 3 is_stmt 1
	.loc 1 2812 3
	.loc 1 2818 5
	.loc 1 2820 3
	.loc 1 2821 3
	.loc 1 2822 3
	.loc 1 2823 3
	.loc 1 2824 3
	.loc 1 2825 3
	.loc 1 2826 3
	.loc 1 2827 3
	.loc 1 2829 3
	.loc 1 2829 40 is_stmt 0
	add	ip, ip, #-1
.LVL226:
	uxtb	ip, ip
	.loc 1 2829 6
	cmp	ip, #1
	bhi	.L231
	.loc 1 2807 1
	push	{r4, r5, r6, lr}
	.cfi_def_cfa_offset 16
	.cfi_offset 4, -16
	.cfi_offset 5, -12
	.cfi_offset 6, -8
	.cfi_offset 14, -4
	.loc 1 2832 5 is_stmt 1
.LVL227:
.LBB14:
.LBB15:
	.file 2 "d:\\rtos\\board\\yd-stm32h7xxvx_classicv19\\cmake-build-debug\\_deps\\stm32h7xx_cmsis_include\\drivers\\cmsis\\include\\cmsis_gcc.h"
	.loc 2 1050 3
	.loc 2 1055 4
	.syntax unified
@ 1055 "d:\rtos\board\yd-stm32h7xxvx_classicv19\cmake-build-debug\_deps\stm32h7xx_cmsis_include\drivers\cmsis\include\cmsis_gcc.h" 1
	rbit r4, r3
@ 0 "" 2
.LVL228:
	.loc 2 1068 3
	.thumb
	.syntax unified
.LBE15:
.LBE14:
.LBB16:
.LBB17:
	.loc 2 1089 3
	.loc 2 1089 6 is_stmt 0
	cbz	r4, .L237
	.loc 2 1093 3 is_stmt 1
	.loc 2 1093 10 is_stmt 0
	clz	r4, r4
.LVL229:
.L232:
.LBE17:
.LBE16:
	.loc 1 2832 49
	ldr	r6, [r0]
	.loc 1 2832 59
	ldr	r5, [r6, #192]
	.loc 1 2832 87
	ubfx	ip, r5, #16, #6
	.loc 1 2832 8
	cmp	r4, ip
	bcs	.L243
	.loc 1 2841 5 is_stmt 1
	.loc 1 2841 26 is_stmt 0
	ldr	r4, [r6, #204]
	.loc 1 2841 8
	tst	r4, r3
	beq	.L235
	.loc 1 2844 7 is_stmt 1
	.loc 1 2844 13 is_stmt 0
	ldr	r3, [r0, #156]
.LVL230:
	.loc 1 2844 25
	orr	r3, r3, #64
	str	r3, [r0, #156]
	.loc 1 2846 7 is_stmt 1
	.loc 1 2846 14 is_stmt 0
	movs	r0, #1
.LVL231:
	b	.L234
.LVL232:
.L237:
.LBB19:
.LBB18:
	.loc 2 1091 12
	movs	r4, #32
.LVL233:
	b	.L232
.LVL234:
.L243:
.LBE18:
.LBE19:
	.loc 1 2835 7 is_stmt 1
	.loc 1 2835 13 is_stmt 0
	ldr	r3, [r0, #156]
.LVL235:
	.loc 1 2835 25
	orr	r3, r3, #32
	str	r3, [r0, #156]
	.loc 1 2837 7 is_stmt 1
	.loc 1 2837 14 is_stmt 0
	movs	r0, #1
.LVL236:
.L234:
	.loc 1 2864 1
	pop	{r4, r5, r6, pc}
.LVL237:
.L235:
	.loc 1 2851 7 is_stmt 1
.LBB20:
.LBB21:
	.loc 2 1050 3
	.loc 2 1055 4
	.syntax unified
@ 1055 "d:\rtos\board\yd-stm32h7xxvx_classicv19\cmake-build-debug\_deps\stm32h7xx_cmsis_include\drivers\cmsis\include\cmsis_gcc.h" 1
	rbit r3, r3
@ 0 "" 2
.LVL238:
	.loc 2 1068 3
	.thumb
	.syntax unified
.LBE21:
.LBE20:
.LBB22:
.LBB23:
	.loc 2 1089 3
	.loc 2 1089 6 is_stmt 0
	cbz	r3, .L238
	.loc 2 1093 3 is_stmt 1
	.loc 2 1093 10 is_stmt 0
	clz	r3, r3
.LVL239:
.L236:
.LBE23:
.LBE22:
	.loc 1 2851 7
	bl	FDCAN_CopyMessageToRAM
.LVL240:
	.loc 1 2855 5 is_stmt 1
	.loc 1 2855 12 is_stmt 0
	movs	r0, #0
	b	.L234
.LVL241:
.L238:
.LBB25:
.LBB24:
	.loc 2 1091 12
	movs	r3, #32
.LVL242:
	b	.L236
.LVL243:
.L231:
	.cfi_def_cfa_offset 0
	.cfi_restore 4
	.cfi_restore 5
	.cfi_restore 6
	.cfi_restore 14
.LBE24:
.LBE25:
	.loc 1 2860 5 is_stmt 1
	.loc 1 2860 11 is_stmt 0
	ldr	r3, [r0, #156]
.LVL244:
	.loc 1 2860 23
	orr	r3, r3, #2
	str	r3, [r0, #156]
	.loc 1 2862 5 is_stmt 1
	.loc 1 2862 12 is_stmt 0
	movs	r0, #1
.LVL245:
	.loc 1 2864 1
	bx	lr
	.cfi_endproc
.LFE371:
	.size	HAL_FDCAN_AddMessageToTxBuffer, .-HAL_FDCAN_AddMessageToTxBuffer
	.section	.text.HAL_FDCAN_EnableTxBufferRequest,"ax",%progbits
	.align	1
	.global	HAL_FDCAN_EnableTxBufferRequest
	.syntax unified
	.thumb
	.thumb_func
	.type	HAL_FDCAN_EnableTxBufferRequest, %function
HAL_FDCAN_EnableTxBufferRequest:
.LFB372:
	.loc 1 2875 1 is_stmt 1
	.cfi_startproc
	@ args = 0, pretend = 0, frame = 0
	@ frame_needed = 0, uses_anonymous_args = 0
	@ link register save eliminated.
.LVL246:
	.loc 1 2876 3
	.loc 1 2876 13 is_stmt 0
	ldrb	r3, [r0, #152]	@ zero_extendqisi2
	uxtb	r3, r3
	.loc 1 2876 6
	cmp	r3, #2
	beq	.L247
	.loc 1 2887 5 is_stmt 1
	.loc 1 2887 11 is_stmt 0
	ldr	r3, [r0, #156]
	.loc 1 2887 23
	orr	r3, r3, #8
	str	r3, [r0, #156]
	.loc 1 2889 5 is_stmt 1
	.loc 1 2889 12 is_stmt 0
	movs	r0, #1
.LVL247:
	.loc 1 2891 1
	bx	lr
.LVL248:
.L247:
	.loc 1 2879 5 is_stmt 1
	.loc 1 2879 11 is_stmt 0
	ldr	r3, [r0]
	.loc 1 2879 29
	str	r1, [r3, #208]
	.loc 1 2882 5 is_stmt 1
	.loc 1 2882 12 is_stmt 0
	movs	r0, #0
.LVL249:
	bx	lr
	.cfi_endproc
.LFE372:
	.size	HAL_FDCAN_EnableTxBufferRequest, .-HAL_FDCAN_EnableTxBufferRequest
	.section	.text.HAL_FDCAN_GetLatestTxFifoQRequestBuffer,"ax",%progbits
	.align	1
	.global	HAL_FDCAN_GetLatestTxFifoQRequestBuffer
	.syntax unified
	.thumb
	.thumb_func
	.type	HAL_FDCAN_GetLatestTxFifoQRequestBuffer, %function
HAL_FDCAN_GetLatestTxFifoQRequestBuffer:
.LFB373:
	.loc 1 2902 1 is_stmt 1
	.cfi_startproc
	@ args = 0, pretend = 0, frame = 0
	@ frame_needed = 0, uses_anonymous_args = 0
	@ link register save eliminated.
.LVL250:
	.loc 1 2904 3
	.loc 1 2905 1 is_stmt 0
	ldr	r0, [r0, #148]
.LVL251:
	bx	lr
	.cfi_endproc
.LFE373:
	.size	HAL_FDCAN_GetLatestTxFifoQRequestBuffer, .-HAL_FDCAN_GetLatestTxFifoQRequestBuffer
	.section	.text.HAL_FDCAN_AbortTxRequest,"ax",%progbits
	.align	1
	.global	HAL_FDCAN_AbortTxRequest
	.syntax unified
	.thumb
	.thumb_func
	.type	HAL_FDCAN_AbortTxRequest, %function
HAL_FDCAN_AbortTxRequest:
.LFB374:
	.loc 1 2916 1 is_stmt 1
	.cfi_startproc
	@ args = 0, pretend = 0, frame = 0
	@ frame_needed = 0, uses_anonymous_args = 0
	@ link register save eliminated.
.LVL252:
	.loc 1 2917 3
	.loc 1 2917 13 is_stmt 0
	ldrb	r3, [r0, #152]	@ zero_extendqisi2
	uxtb	r3, r3
	.loc 1 2917 6
	cmp	r3, #2
	beq	.L252
	.loc 1 2928 5 is_stmt 1
	.loc 1 2928 11 is_stmt 0
	ldr	r3, [r0, #156]
	.loc 1 2928 23
	orr	r3, r3, #8
	str	r3, [r0, #156]
	.loc 1 2930 5 is_stmt 1
	.loc 1 2930 12 is_stmt 0
	movs	r0, #1
.LVL253:
	.loc 1 2932 1
	bx	lr
.LVL254:
.L252:
	.loc 1 2920 5 is_stmt 1
	.loc 1 2920 11 is_stmt 0
	ldr	r3, [r0]
	.loc 1 2920 29
	str	r1, [r3, #212]
	.loc 1 2923 5 is_stmt 1
	.loc 1 2923 12 is_stmt 0
	movs	r0, #0
.LVL255:
	bx	lr
	.cfi_endproc
.LFE374:
	.size	HAL_FDCAN_AbortTxRequest, .-HAL_FDCAN_AbortTxRequest
	.section	.text.HAL_FDCAN_GetRxMessage,"ax",%progbits
	.align	1
	.global	HAL_FDCAN_GetRxMessage
	.syntax unified
	.thumb
	.thumb_func
	.type	HAL_FDCAN_GetRxMessage, %function
HAL_FDCAN_GetRxMessage:
.LFB375:
	.loc 1 2946 1 is_stmt 1
	.cfi_startproc
	@ args = 0, pretend = 0, frame = 0
	@ frame_needed = 0, uses_anonymous_args = 0
.LVL256:
	.loc 1 2947 3
	.loc 1 2948 3
	.loc 1 2949 3
	.loc 1 2950 3
	.loc 1 2951 3
	.loc 1 2951 26 is_stmt 0
	ldrb	ip, [r0, #152]	@ zero_extendqisi2
	uxtb	ip, ip
.LVL257:
	.loc 1 2953 3 is_stmt 1
	.loc 1 2953 6 is_stmt 0
	cmp	ip, #2
	bne	.L254
	.loc 1 2946 1
	push	{r4, r5, r6, lr}
	.cfi_def_cfa_offset 16
	.cfi_offset 4, -16
	.cfi_offset 5, -12
	.cfi_offset 6, -8
	.cfi_offset 14, -4
	.loc 1 2955 5 is_stmt 1
	.loc 1 2955 8 is_stmt 0
	cmp	r1, #64
	beq	.L278
	.loc 1 2993 10 is_stmt 1
	.loc 1 2993 13 is_stmt 0
	cmp	r1, #65
	beq	.L279
	.loc 1 3034 7 is_stmt 1
	.loc 1 3034 37 is_stmt 0
	ldr	r4, [r0, #80]
	.loc 1 3034 10
	cmp	r4, r1
	bhi	.L265
	.loc 1 3037 9 is_stmt 1
	.loc 1 3037 15 is_stmt 0
	ldr	r3, [r0, #156]
.LVL258:
	.loc 1 3037 27
	orr	r3, r3, #32
	str	r3, [r0, #156]
	.loc 1 3039 9 is_stmt 1
	.loc 1 3039 16 is_stmt 0
	movs	r0, #1
.LVL259:
	b	.L257
.LVL260:
.L278:
	.loc 1 2958 7 is_stmt 1
	.loc 1 2958 18 is_stmt 0
	ldr	r4, [r0]
	.loc 1 2958 28
	ldr	r5, [r4, #160]
	.loc 1 2958 10
	tst	r5, #8323072
	beq	.L280
	.loc 1 2967 7 is_stmt 1
	.loc 1 2967 28 is_stmt 0
	ldr	r5, [r4, #164]
	.loc 1 2967 10
	tst	r5, #127
	bne	.L258
	.loc 1 2970 9 is_stmt 1
	.loc 1 2970 15 is_stmt 0
	ldr	r3, [r0, #156]
.LVL261:
	.loc 1 2970 27
	orr	r3, r3, #256
	str	r3, [r0, #156]
	.loc 1 2972 9 is_stmt 1
	.loc 1 2972 16 is_stmt 0
	movs	r0, #1
.LVL262:
	b	.L257
.LVL263:
.L280:
	.loc 1 2961 9 is_stmt 1
	.loc 1 2961 15 is_stmt 0
	ldr	r3, [r0, #156]
.LVL264:
	.loc 1 2961 27
	orr	r3, r3, #32
	str	r3, [r0, #156]
	.loc 1 2963 9 is_stmt 1
	.loc 1 2963 16 is_stmt 0
	movs	r0, #1
.LVL265:
	b	.L257
.LVL266:
.L258:
	.loc 1 2977 9 is_stmt 1
	.loc 1 2977 31 is_stmt 0
	ldr	r5, [r4, #164]
	.loc 1 2977 59
	ubfx	r6, r5, #24, #1
	.loc 1 2977 12
	tst	r5, #16777216
	beq	.L259
	.loc 1 2979 11 is_stmt 1
	.loc 1 2979 33 is_stmt 0
	ldr	r6, [r4, #160]
	.loc 1 2979 14
	lsrs	r6, r6, #31
	bne	.L259
	.loc 1 2950 12
	movs	r6, #0
.L259:
.LVL267:
	.loc 1 2987 9 is_stmt 1
	.loc 1 2987 39 is_stmt 0
	ldr	r4, [r4, #164]
	.loc 1 2987 67
	ubfx	r4, r4, #8, #6
	.loc 1 2987 18
	add	r6, r6, r4
.LVL268:
	.loc 1 2990 9 is_stmt 1
	.loc 1 2990 48 is_stmt 0
	ldr	r5, [r0, #116]
	.loc 1 2990 85
	ldr	r4, [r0, #68]
	.loc 1 2990 71
	mul	r4, r6, r4
	.loc 1 2990 59
	add	lr, r5, r4, lsl #2
.LVL269:
	b	.L260
.LVL270:
.L279:
	.loc 1 2996 7 is_stmt 1
	.loc 1 2996 18 is_stmt 0
	ldr	r4, [r0]
	.loc 1 2996 28
	ldr	r5, [r4, #176]
	.loc 1 2996 10
	tst	r5, #8323072
	beq	.L281
	.loc 1 3005 7 is_stmt 1
	.loc 1 3005 28 is_stmt 0
	ldr	r5, [r4, #180]
	.loc 1 3005 10
	tst	r5, #127
	bne	.L263
	.loc 1 3008 9 is_stmt 1
	.loc 1 3008 15 is_stmt 0
	ldr	r3, [r0, #156]
.LVL271:
	.loc 1 3008 27
	orr	r3, r3, #256
	str	r3, [r0, #156]
	.loc 1 3010 9 is_stmt 1
	.loc 1 3010 16 is_stmt 0
	movs	r0, #1
.LVL272:
	b	.L257
.LVL273:
.L281:
	.loc 1 2999 9 is_stmt 1
	.loc 1 2999 15 is_stmt 0
	ldr	r3, [r0, #156]
.LVL274:
	.loc 1 2999 27
	orr	r3, r3, #32
	str	r3, [r0, #156]
	.loc 1 3001 9 is_stmt 1
	.loc 1 3001 16 is_stmt 0
	movs	r0, #1
.LVL275:
	b	.L257
.LVL276:
.L263:
	.loc 1 3015 9 is_stmt 1
	.loc 1 3015 31 is_stmt 0
	ldr	r5, [r4, #180]
	.loc 1 3015 59
	ubfx	r6, r5, #24, #1
	.loc 1 3015 12
	tst	r5, #16777216
	beq	.L264
	.loc 1 3017 11 is_stmt 1
	.loc 1 3017 33 is_stmt 0
	ldr	r6, [r4, #176]
	.loc 1 3017 14
	lsrs	r6, r6, #31
	bne	.L264
	.loc 1 2950 12
	movs	r6, #0
.L264:
.LVL277:
	.loc 1 3025 9 is_stmt 1
	.loc 1 3025 39 is_stmt 0
	ldr	r4, [r4, #180]
	.loc 1 3025 67
	ubfx	r4, r4, #8, #6
	.loc 1 3025 18
	add	r6, r6, r4
.LVL278:
	.loc 1 3028 9 is_stmt 1
	.loc 1 3028 48 is_stmt 0
	ldr	r5, [r0, #120]
	.loc 1 3028 85
	ldr	r4, [r0, #76]
	.loc 1 3028 71
	mul	r4, r6, r4
	.loc 1 3028 59
	add	lr, r5, r4, lsl #2
.LVL279:
	b	.L260
.LVL280:
.L265:
	.loc 1 3044 9 is_stmt 1
	.loc 1 3044 48 is_stmt 0
	ldr	r5, [r0, #124]
	.loc 1 3044 88
	ldr	r4, [r0, #84]
	.loc 1 3044 74
	mul	r4, r1, r4
	.loc 1 3044 60
	add	lr, r5, r4, lsl #2
.LVL281:
	.loc 1 2950 12
	movs	r6, #0
.LVL282:
.L260:
	.loc 1 3049 5 is_stmt 1
	.loc 1 3049 25 is_stmt 0
	ldr	r4, [lr]
	.loc 1 3049 36
	and	r4, r4, #1073741824
	.loc 1 3049 23
	str	r4, [r2, #4]
	.loc 1 3052 5 is_stmt 1
	.loc 1 3052 8 is_stmt 0
	cbnz	r4, .L266
	.loc 1 3054 7 is_stmt 1
	.loc 1 3054 33 is_stmt 0
	ldr	r4, [lr]
	.loc 1 3054 71
	ubfx	r4, r4, #18, #11
	.loc 1 3054 29
	str	r4, [r2]
.L267:
	.loc 1 3062 5 is_stmt 1
	.loc 1 3062 31 is_stmt 0
	ldr	r4, [lr]
	.loc 1 3062 42
	and	r4, r4, #536870912
	.loc 1 3062 28
	str	r4, [r2, #8]
	.loc 1 3065 5 is_stmt 1
	.loc 1 3065 39 is_stmt 0
	ldr	r4, [lr]
	.loc 1 3065 50
	and	r4, r4, #-2147483648
	.loc 1 3065 36
	str	r4, [r2, #16]
	.loc 1 3068 5 is_stmt 1
.LVL283:
	.loc 1 3071 5
	.loc 1 3071 42 is_stmt 0
	ldrh	r4, [lr, #4]
	.loc 1 3071 28
	str	r4, [r2, #28]
	.loc 1 3074 5 is_stmt 1
	.loc 1 3074 69 is_stmt 0
	ldrh	r4, [lr, #6]
	and	r4, r4, #15
	.loc 1 3074 27
	str	r4, [r2, #12]
	.loc 1 3077 5 is_stmt 1
	.loc 1 3077 33 is_stmt 0
	ldr	r4, [lr, #4]
	.loc 1 3077 44
	and	r4, r4, #1048576
	.loc 1 3077 30
	str	r4, [r2, #20]
	.loc 1 3080 5 is_stmt 1
	.loc 1 3080 28 is_stmt 0
	ldr	r4, [lr, #4]
	.loc 1 3080 39
	and	r4, r4, #2097152
	.loc 1 3080 25
	str	r4, [r2, #24]
	.loc 1 3083 5 is_stmt 1
	.loc 1 3083 70 is_stmt 0
	ldrb	r4, [lr, #7]	@ zero_extendqisi2
	and	r4, r4, #127
	.loc 1 3083 28
	str	r4, [r2, #32]
	.loc 1 3086 5 is_stmt 1
	.loc 1 3086 42 is_stmt 0
	ldr	r4, [lr, #4]
	.loc 1 3086 80
	lsrs	r4, r4, #31
	.loc 1 3086 38
	str	r4, [r2, #36]
	.loc 1 3089 5 is_stmt 1
.LVL284:
	.loc 1 3092 5
	.loc 1 3093 5
	.loc 1 3093 22 is_stmt 0
	mov	ip, #0
.LVL285:
	.loc 1 3093 5
	b	.L268
.LVL286:
.L266:
	.loc 1 3058 7 is_stmt 1
	.loc 1 3058 32 is_stmt 0
	ldr	r4, [lr]
	.loc 1 3058 43
	bic	r4, r4, #-536870912
	.loc 1 3058 29
	str	r4, [r2]
	b	.L267
.LVL287:
.L269:
	.loc 1 3095 7 is_stmt 1 discriminator 3
	.loc 1 3095 35 is_stmt 0 discriminator 3
	add	r4, lr, ip
	ldrb	r4, [r4, #8]	@ zero_extendqisi2
	.loc 1 3095 28 discriminator 3
	strb	r4, [r3, ip]
	.loc 1 3093 87 is_stmt 1 discriminator 3
	add	ip, ip, #1
.LVL288:
.L268:
	.loc 1 3093 39 discriminator 1
	.loc 1 3093 61 is_stmt 0 discriminator 1
	ldr	r4, [r2, #12]
	.loc 1 3093 51 discriminator 1
	ldr	r5, .L284
	ldrb	r4, [r5, r4]	@ zero_extendqisi2
	.loc 1 3093 39 discriminator 1
	cmp	r4, ip
	bhi	.L269
	.loc 1 3098 5 is_stmt 1
	.loc 1 3098 8 is_stmt 0
	cmp	r1, #64
	beq	.L282
	.loc 1 3103 10 is_stmt 1
	.loc 1 3103 13 is_stmt 0
	cmp	r1, #65
	beq	.L283
	.loc 1 3111 7 is_stmt 1
	.loc 1 3111 10 is_stmt 0
	cmp	r1, #31
	bhi	.L273
	.loc 1 3113 9 is_stmt 1
	.loc 1 3113 15 is_stmt 0
	ldr	r2, [r0]
.LVL289:
	.loc 1 3113 49
	movs	r3, #1
.LVL290:
	lsls	r3, r3, r1
	.loc 1 3113 33
	str	r3, [r2, #152]
	b	.L271
.LVL291:
.L282:
	.loc 1 3101 7 is_stmt 1
	.loc 1 3101 13 is_stmt 0
	ldr	r3, [r0]
.LVL292:
	.loc 1 3101 31
	str	r6, [r3, #168]
.LVL293:
.L271:
	.loc 1 3122 5 is_stmt 1
	.loc 1 3122 12 is_stmt 0
	movs	r0, #0
.LVL294:
.L257:
	.loc 1 3131 1
	pop	{r4, r5, r6, pc}
.LVL295:
.L283:
	.loc 1 3106 7 is_stmt 1
	.loc 1 3106 13 is_stmt 0
	ldr	r3, [r0]
.LVL296:
	.loc 1 3106 31
	str	r6, [r3, #184]
	b	.L271
.LVL297:
.L273:
	.loc 1 3117 9 is_stmt 1
	.loc 1 3117 64 is_stmt 0
	and	r1, r1, #31
.LVL298:
	.loc 1 3117 15
	ldr	r2, [r0]
.LVL299:
	.loc 1 3117 49
	movs	r3, #1
.LVL300:
	lsls	r3, r3, r1
	.loc 1 3117 33
	str	r3, [r2, #156]
	b	.L271
.LVL301:
.L254:
	.cfi_def_cfa_offset 0
	.cfi_restore 4
	.cfi_restore 5
	.cfi_restore 6
	.cfi_restore 14
	.loc 1 3127 5 is_stmt 1
	.loc 1 3127 11 is_stmt 0
	ldr	r3, [r0, #156]
.LVL302:
	.loc 1 3127 23
	orr	r3, r3, #8
	str	r3, [r0, #156]
	.loc 1 3129 5 is_stmt 1
	.loc 1 3129 12 is_stmt 0
	movs	r0, #1
.LVL303:
	.loc 1 3131 1
	bx	lr
.L285:
	.align	2
.L284:
	.word	DLCtoBytes
	.cfi_endproc
.LFE375:
	.size	HAL_FDCAN_GetRxMessage, .-HAL_FDCAN_GetRxMessage
	.section	.text.HAL_FDCAN_GetTxEvent,"ax",%progbits
	.align	1
	.global	HAL_FDCAN_GetTxEvent
	.syntax unified
	.thumb
	.thumb_func
	.type	HAL_FDCAN_GetTxEvent, %function
HAL_FDCAN_GetTxEvent:
.LFB376:
	.loc 1 3141 1 is_stmt 1
	.cfi_startproc
	@ args = 0, pretend = 0, frame = 0
	@ frame_needed = 0, uses_anonymous_args = 0
	@ link register save eliminated.
.LVL304:
	.loc 1 3142 3
	.loc 1 3143 3
	.loc 1 3144 3
	.loc 1 3144 26 is_stmt 0
	ldrb	r3, [r0, #152]	@ zero_extendqisi2
	uxtb	r3, r3
.LVL305:
	.loc 1 3147 3 is_stmt 1
	.loc 1 3149 3
	.loc 1 3149 6 is_stmt 0
	cmp	r3, #2
	bne	.L287
	.loc 1 3152 5 is_stmt 1
	.loc 1 3152 16 is_stmt 0
	ldr	r3, [r0]
.LVL306:
	.loc 1 3152 26
	ldr	r2, [r3, #240]
	.loc 1 3152 8
	tst	r2, #4128768
	beq	.L296
	.loc 1 3161 5 is_stmt 1
	.loc 1 3161 26 is_stmt 0
	ldr	r2, [r3, #244]
	.loc 1 3161 8
	tst	r2, #63
	bne	.L290
	.loc 1 3164 7 is_stmt 1
	.loc 1 3164 13 is_stmt 0
	ldr	r3, [r0, #156]
	.loc 1 3164 25
	orr	r3, r3, #256
	str	r3, [r0, #156]
	.loc 1 3166 7 is_stmt 1
	.loc 1 3166 14 is_stmt 0
	movs	r0, #1
.LVL307:
	bx	lr
.LVL308:
.L296:
	.loc 1 3155 7 is_stmt 1
	.loc 1 3155 13 is_stmt 0
	ldr	r3, [r0, #156]
	.loc 1 3155 25
	orr	r3, r3, #32
	str	r3, [r0, #156]
	.loc 1 3157 7 is_stmt 1
	.loc 1 3157 14 is_stmt 0
	movs	r0, #1
.LVL309:
	bx	lr
.LVL310:
.L290:
	.loc 1 3141 1
	push	{r4, r5}
	.cfi_def_cfa_offset 8
	.cfi_offset 4, -8
	.cfi_offset 5, -4
	.loc 1 3170 5 is_stmt 1
	.loc 1 3170 34 is_stmt 0
	ldr	r3, [r3, #244]
	.loc 1 3170 14
	ubfx	r3, r3, #8, #5
.LVL311:
	.loc 1 3171 5 is_stmt 1
	.loc 1 3171 49 is_stmt 0
	ldr	r4, [r0, #128]
	.loc 1 3171 64
	add	r2, r4, r3, lsl #3
.LVL312:
	.loc 1 3174 5 is_stmt 1
	.loc 1 3174 24 is_stmt 0
	ldr	r5, [r4, r3, lsl #3]
	.loc 1 3174 40
	and	r5, r5, #1073741824
	.loc 1 3174 22
	str	r5, [r1, #4]
	.loc 1 3177 5 is_stmt 1
	.loc 1 3177 8 is_stmt 0
	cbnz	r5, .L291
	.loc 1 3179 7 is_stmt 1
	.loc 1 3179 32 is_stmt 0
	ldr	r5, [r4, r3, lsl #3]
	.loc 1 3179 75
	ubfx	r5, r5, #18, #11
	.loc 1 3179 28
	str	r5, [r1]
.L292:
	.loc 1 3187 5 is_stmt 1
	.loc 1 3187 30 is_stmt 0
	ldr	r5, [r4, r3, lsl #3]
	.loc 1 3187 46
	and	r5, r5, #536870912
	.loc 1 3187 27
	str	r5, [r1, #8]
	.loc 1 3190 5 is_stmt 1
	.loc 1 3190 38 is_stmt 0
	ldr	r4, [r4, r3, lsl #3]
	.loc 1 3190 54
	and	r4, r4, #-2147483648
	.loc 1 3190 35
	str	r4, [r1, #16]
	.loc 1 3193 5 is_stmt 1
.LVL313:
	.loc 1 3196 5
	.loc 1 3196 46 is_stmt 0
	ldrh	r4, [r2, #4]
	.loc 1 3196 27
	str	r4, [r1, #28]
	.loc 1 3199 5 is_stmt 1
	.loc 1 3199 73 is_stmt 0
	ldrh	r4, [r2, #6]
	and	r4, r4, #15
	.loc 1 3199 26
	str	r4, [r1, #12]
	.loc 1 3202 5 is_stmt 1
	.loc 1 3202 32 is_stmt 0
	ldr	r4, [r2, #4]
	.loc 1 3202 48
	and	r4, r4, #1048576
	.loc 1 3202 29
	str	r4, [r1, #20]
	.loc 1 3205 5 is_stmt 1
	.loc 1 3205 27 is_stmt 0
	ldr	r4, [r2, #4]
	.loc 1 3205 43
	and	r4, r4, #2097152
	.loc 1 3205 24
	str	r4, [r1, #24]
	.loc 1 3208 5 is_stmt 1
	.loc 1 3208 28 is_stmt 0
	ldr	r4, [r2, #4]
	.loc 1 3208 44
	and	r4, r4, #12582912
	.loc 1 3208 25
	str	r4, [r1, #36]
	.loc 1 3211 5 is_stmt 1
	.loc 1 3211 76 is_stmt 0
	ldrb	r2, [r2, #7]	@ zero_extendqisi2
.LVL314:
	.loc 1 3211 29
	str	r2, [r1, #32]
	.loc 1 3214 5 is_stmt 1
	.loc 1 3214 11 is_stmt 0
	ldr	r2, [r0]
	.loc 1 3214 29
	str	r3, [r2, #248]
	.loc 1 3217 5 is_stmt 1
	.loc 1 3217 12 is_stmt 0
	movs	r0, #0
.LVL315:
	.loc 1 3226 1
	pop	{r4, r5}
	.cfi_remember_state
	.cfi_restore 5
	.cfi_restore 4
	.cfi_def_cfa_offset 0
	bx	lr
.LVL316:
.L291:
	.cfi_restore_state
	.loc 1 3183 7 is_stmt 1
	.loc 1 3183 31 is_stmt 0
	ldr	r5, [r4, r3, lsl #3]
	.loc 1 3183 47
	bic	r5, r5, #-536870912
	.loc 1 3183 28
	str	r5, [r1]
	b	.L292
.LVL317:
.L287:
	.cfi_def_cfa_offset 0
	.cfi_restore 4
	.cfi_restore 5
	.loc 1 3222 5 is_stmt 1
	.loc 1 3222 11 is_stmt 0
	ldr	r3, [r0, #156]
.LVL318:
	.loc 1 3222 23
	orr	r3, r3, #8
	str	r3, [r0, #156]
	.loc 1 3224 5 is_stmt 1
	.loc 1 3224 12 is_stmt 0
	movs	r0, #1
.LVL319:
	.loc 1 3226 1
	bx	lr
	.cfi_endproc
.LFE376:
	.size	HAL_FDCAN_GetTxEvent, .-HAL_FDCAN_GetTxEvent
	.section	.text.HAL_FDCAN_GetHighPriorityMessageStatus,"ax",%progbits
	.align	1
	.global	HAL_FDCAN_GetHighPriorityMessageStatus
	.syntax unified
	.thumb
	.thumb_func
	.type	HAL_FDCAN_GetHighPriorityMessageStatus, %function
HAL_FDCAN_GetHighPriorityMessageStatus:
.LFB377:
	.loc 1 3237 1 is_stmt 1
	.cfi_startproc
	@ args = 0, pretend = 0, frame = 0
	@ frame_needed = 0, uses_anonymous_args = 0
	@ link register save eliminated.
.LVL320:
	.loc 1 3238 3
	.loc 1 3238 37 is_stmt 0
	ldr	r3, [r0]
	.loc 1 3238 47
	ldr	r3, [r3, #148]
	.loc 1 3238 74
	ubfx	r3, r3, #15, #1
	.loc 1 3238 27
	str	r3, [r1]
	.loc 1 3239 3 is_stmt 1
	.loc 1 3239 38 is_stmt 0
	ldr	r3, [r0]
	.loc 1 3239 48
	ldr	r3, [r3, #148]
	.loc 1 3239 75
	ubfx	r3, r3, #8, #7
	.loc 1 3239 28
	str	r3, [r1, #4]
	.loc 1 3240 3 is_stmt 1
	.loc 1 3240 40 is_stmt 0
	ldr	r3, [r0]
	.loc 1 3240 50
	ldr	r3, [r3, #148]
	.loc 1 3240 57
	and	r3, r3, #192
	.loc 1 3240 31
	str	r3, [r1, #8]
	.loc 1 3241 3 is_stmt 1
	.loc 1 3241 38 is_stmt 0
	ldr	r3, [r0]
	.loc 1 3241 48
	ldr	r3, [r3, #148]
	.loc 1 3241 55
	and	r3, r3, #63
	.loc 1 3241 29
	str	r3, [r1, #12]
	.loc 1 3244 3 is_stmt 1
	.loc 1 3245 1 is_stmt 0
	movs	r0, #0
.LVL321:
	bx	lr
	.cfi_endproc
.LFE377:
	.size	HAL_FDCAN_GetHighPriorityMessageStatus, .-HAL_FDCAN_GetHighPriorityMessageStatus
	.section	.text.HAL_FDCAN_GetProtocolStatus,"ax",%progbits
	.align	1
	.global	HAL_FDCAN_GetProtocolStatus
	.syntax unified
	.thumb
	.thumb_func
	.type	HAL_FDCAN_GetProtocolStatus, %function
HAL_FDCAN_GetProtocolStatus:
.LFB378:
	.loc 1 3256 1 is_stmt 1
	.cfi_startproc
	@ args = 0, pretend = 0, frame = 0
	@ frame_needed = 0, uses_anonymous_args = 0
	@ link register save eliminated.
.LVL322:
	.loc 1 3257 3
	.loc 1 3260 3
	.loc 1 3260 23 is_stmt 0
	ldr	r3, [r0]
	.loc 1 3260 13
	ldr	r3, [r3, #68]
.LVL323:
	.loc 1 3263 3 is_stmt 1
	.loc 1 3263 46 is_stmt 0
	and	r2, r3, #7
	.loc 1 3263 33
	str	r2, [r1]
	.loc 1 3264 3 is_stmt 1
	.loc 1 3264 70 is_stmt 0
	ubfx	r2, r3, #8, #3
	.loc 1 3264 37
	str	r2, [r1, #4]
	.loc 1 3265 3 is_stmt 1
	.loc 1 3265 41 is_stmt 0
	and	r2, r3, #24
	.loc 1 3265 28
	str	r2, [r1, #8]
	.loc 1 3266 3 is_stmt 1
	.loc 1 3266 65 is_stmt 0
	ubfx	r2, r3, #5, #1
	.loc 1 3266 32
	str	r2, [r1, #12]
	.loc 1 3267 3 is_stmt 1
	.loc 1 3267 60 is_stmt 0
	ubfx	r2, r3, #6, #1
	.loc 1 3267 27
	str	r2, [r1, #16]
	.loc 1 3268 3 is_stmt 1
	.loc 1 3268 59 is_stmt 0
	ubfx	r2, r3, #7, #1
	.loc 1 3268 26
	str	r2, [r1, #20]
	.loc 1 3269 3 is_stmt 1
	.loc 1 3269 63 is_stmt 0
	ubfx	r2, r3, #11, #1
	.loc 1 3269 29
	str	r2, [r1, #24]
	.loc 1 3270 3 is_stmt 1
	.loc 1 3270 63 is_stmt 0
	ubfx	r2, r3, #12, #1
	.loc 1 3270 29
	str	r2, [r1, #28]
	.loc 1 3271 3 is_stmt 1
	.loc 1 3271 63 is_stmt 0
	ubfx	r2, r3, #13, #1
	.loc 1 3271 29
	str	r2, [r1, #32]
	.loc 1 3272 3 is_stmt 1
	.loc 1 3272 71 is_stmt 0
	ubfx	r2, r3, #14, #1
	.loc 1 3272 37
	str	r2, [r1, #36]
	.loc 1 3273 3 is_stmt 1
	.loc 1 3273 63 is_stmt 0
	ubfx	r3, r3, #16, #7
.LVL324:
	.loc 1 3273 28
	str	r3, [r1, #40]
	.loc 1 3276 3 is_stmt 1
	.loc 1 3277 1 is_stmt 0
	movs	r0, #0
.LVL325:
	bx	lr
	.cfi_endproc
.LFE378:
	.size	HAL_FDCAN_GetProtocolStatus, .-HAL_FDCAN_GetProtocolStatus
	.section	.text.HAL_FDCAN_GetErrorCounters,"ax",%progbits
	.align	1
	.global	HAL_FDCAN_GetErrorCounters
	.syntax unified
	.thumb
	.thumb_func
	.type	HAL_FDCAN_GetErrorCounters, %function
HAL_FDCAN_GetErrorCounters:
.LFB379:
	.loc 1 3288 1 is_stmt 1
	.cfi_startproc
	@ args = 0, pretend = 0, frame = 0
	@ frame_needed = 0, uses_anonymous_args = 0
	@ link register save eliminated.
.LVL326:
	.loc 1 3289 3
	.loc 1 3292 3
	.loc 1 3292 25 is_stmt 0
	ldr	r3, [r0]
	.loc 1 3292 15
	ldr	r3, [r3, #64]
.LVL327:
	.loc 1 3295 3 is_stmt 1
	.loc 1 3295 65 is_stmt 0
	uxtb	r2, r3
	.loc 1 3295 29
	str	r2, [r1]
	.loc 1 3296 3 is_stmt 1
	.loc 1 3296 65 is_stmt 0
	ubfx	r2, r3, #8, #7
	.loc 1 3296 29
	str	r2, [r1, #4]
	.loc 1 3297 3 is_stmt 1
	.loc 1 3297 69 is_stmt 0
	ubfx	r2, r3, #15, #1
	.loc 1 3297 33
	str	r2, [r1, #8]
	.loc 1 3298 3 is_stmt 1
	.loc 1 3298 68 is_stmt 0
	ubfx	r3, r3, #16, #8
.LVL328:
	.loc 1 3298 31
	str	r3, [r1, #12]
	.loc 1 3301 3 is_stmt 1
	.loc 1 3302 1 is_stmt 0
	movs	r0, #0
.LVL329:
	bx	lr
	.cfi_endproc
.LFE379:
	.size	HAL_FDCAN_GetErrorCounters, .-HAL_FDCAN_GetErrorCounters
	.section	.text.HAL_FDCAN_IsRxBufferMessageAvailable,"ax",%progbits
	.align	1
	.global	HAL_FDCAN_IsRxBufferMessageAvailable
	.syntax unified
	.thumb
	.thumb_func
	.type	HAL_FDCAN_IsRxBufferMessageAvailable, %function
HAL_FDCAN_IsRxBufferMessageAvailable:
.LFB380:
	.loc 1 3315 1 is_stmt 1
	.cfi_startproc
	@ args = 0, pretend = 0, frame = 0
	@ frame_needed = 0, uses_anonymous_args = 0
	@ link register save eliminated.
.LVL330:
	.loc 1 3317 3
	.loc 1 3318 3
	.loc 1 3318 29 is_stmt 0
	ldr	r3, [r0]
	.loc 1 3318 12
	ldr	r2, [r3, #152]
.LVL331:
	.loc 1 3319 3 is_stmt 1
	.loc 1 3319 12 is_stmt 0
	ldr	r0, [r3, #156]
.LVL332:
	.loc 1 3322 3 is_stmt 1
	.loc 1 3322 6 is_stmt 0
	cmp	r1, #31
	bhi	.L301
	.loc 1 3322 88 discriminator 1
	lsrs	r2, r2, r1
.LVL333:
	.loc 1 3322 30 discriminator 1
	ands	r0, r2, #1
.LVL334:
	beq	.L305
.L303:
	.loc 1 3331 5 is_stmt 1
	.loc 1 3331 44 is_stmt 0
	movs	r0, #1
	lsl	r1, r0, r1
.LVL335:
	.loc 1 3331 29
	str	r1, [r3, #152]
	bx	lr
.LVL336:
.L305:
	bx	lr
.LVL337:
.L301:
	.loc 1 3323 88
	and	r2, r1, #31
.LVL338:
	.loc 1 3323 99
	lsrs	r0, r0, r2
.LVL339:
	.loc 1 3323 31
	ands	r0, r0, #1
	beq	.L300
	.loc 1 3329 3 is_stmt 1
	.loc 1 3329 6 is_stmt 0
	cmp	r1, #31
	bls	.L303
	.loc 1 3335 5 is_stmt 1
	.loc 1 3335 44 is_stmt 0
	movs	r0, #1
	lsl	r2, r0, r2
	.loc 1 3335 29
	str	r2, [r3, #156]
.L300:
	.loc 1 3339 1
	bx	lr
	.cfi_endproc
.LFE380:
	.size	HAL_FDCAN_IsRxBufferMessageAvailable, .-HAL_FDCAN_IsRxBufferMessageAvailable
	.section	.text.HAL_FDCAN_IsTxBufferMessagePending,"ax",%progbits
	.align	1
	.global	HAL_FDCAN_IsTxBufferMessagePending
	.syntax unified
	.thumb
	.thumb_func
	.type	HAL_FDCAN_IsTxBufferMessagePending, %function
HAL_FDCAN_IsTxBufferMessagePending:
.LFB381:
	.loc 1 3352 1 is_stmt 1
	.cfi_startproc
	@ args = 0, pretend = 0, frame = 0
	@ frame_needed = 0, uses_anonymous_args = 0
	@ link register save eliminated.
.LVL340:
	.loc 1 3354 3
	.loc 1 3354 14 is_stmt 0
	ldr	r3, [r0]
	.loc 1 3354 24
	ldr	r0, [r3, #204]
.LVL341:
	.loc 1 3354 6
	ands	r0, r0, r1
	beq	.L306
	.loc 1 3358 10
	movs	r0, #1
.L306:
	.loc 1 3359 1
	bx	lr
	.cfi_endproc
.LFE381:
	.size	HAL_FDCAN_IsTxBufferMessagePending, .-HAL_FDCAN_IsTxBufferMessagePending
	.section	.text.HAL_FDCAN_GetRxFifoFillLevel,"ax",%progbits
	.align	1
	.global	HAL_FDCAN_GetRxFifoFillLevel
	.syntax unified
	.thumb
	.thumb_func
	.type	HAL_FDCAN_GetRxFifoFillLevel, %function
HAL_FDCAN_GetRxFifoFillLevel:
.LFB382:
	.loc 1 3372 1 is_stmt 1
	.cfi_startproc
	@ args = 0, pretend = 0, frame = 0
	@ frame_needed = 0, uses_anonymous_args = 0
	@ link register save eliminated.
.LVL342:
	.loc 1 3373 3
	.loc 1 3376 3
	.loc 1 3378 3
	.loc 1 3378 6 is_stmt 0
	cmp	r1, #64
	beq	.L311
	.loc 1 3384 5 is_stmt 1
	.loc 1 3384 23 is_stmt 0
	ldr	r3, [r0]
	.loc 1 3384 33
	ldr	r0, [r3, #180]
.LVL343:
	.loc 1 3384 15
	and	r0, r0, #127
.LVL344:
	.loc 1 3388 3 is_stmt 1
	.loc 1 3389 1 is_stmt 0
	bx	lr
.LVL345:
.L311:
	.loc 1 3380 5 is_stmt 1
	.loc 1 3380 23 is_stmt 0
	ldr	r3, [r0]
	.loc 1 3380 33
	ldr	r0, [r3, #164]
.LVL346:
	.loc 1 3380 15
	and	r0, r0, #127
.LVL347:
	bx	lr
	.cfi_endproc
.LFE382:
	.size	HAL_FDCAN_GetRxFifoFillLevel, .-HAL_FDCAN_GetRxFifoFillLevel
	.section	.text.HAL_FDCAN_GetTxFifoFreeLevel,"ax",%progbits
	.align	1
	.global	HAL_FDCAN_GetTxFifoFreeLevel
	.syntax unified
	.thumb
	.thumb_func
	.type	HAL_FDCAN_GetTxFifoFreeLevel, %function
HAL_FDCAN_GetTxFifoFreeLevel:
.LFB383:
	.loc 1 3399 1 is_stmt 1
	.cfi_startproc
	@ args = 0, pretend = 0, frame = 0
	@ frame_needed = 0, uses_anonymous_args = 0
	@ link register save eliminated.
.LVL348:
	.loc 1 3400 3
	.loc 1 3402 3
	.loc 1 3402 21 is_stmt 0
	ldr	r3, [r0]
	.loc 1 3402 31
	ldr	r0, [r3, #196]
.LVL349:
	.loc 1 3405 3 is_stmt 1
	.loc 1 3406 1 is_stmt 0
	and	r0, r0, #63
.LVL350:
	bx	lr
	.cfi_endproc
.LFE383:
	.size	HAL_FDCAN_GetTxFifoFreeLevel, .-HAL_FDCAN_GetTxFifoFreeLevel
	.section	.text.HAL_FDCAN_IsRestrictedOperationMode,"ax",%progbits
	.align	1
	.global	HAL_FDCAN_IsRestrictedOperationMode
	.syntax unified
	.thumb
	.thumb_func
	.type	HAL_FDCAN_IsRestrictedOperationMode, %function
HAL_FDCAN_IsRestrictedOperationMode:
.LFB384:
	.loc 1 3417 1 is_stmt 1
	.cfi_startproc
	@ args = 0, pretend = 0, frame = 0
	@ frame_needed = 0, uses_anonymous_args = 0
	@ link register save eliminated.
.LVL351:
	.loc 1 3418 3
	.loc 1 3421 3
	.loc 1 3421 27 is_stmt 0
	ldr	r3, [r0]
	.loc 1 3421 37
	ldr	r0, [r3, #24]
.LVL352:
	.loc 1 3423 3 is_stmt 1
	.loc 1 3424 1 is_stmt 0
	ubfx	r0, r0, #2, #1
.LVL353:
	bx	lr
	.cfi_endproc
.LFE384:
	.size	HAL_FDCAN_IsRestrictedOperationMode, .-HAL_FDCAN_IsRestrictedOperationMode
	.section	.text.HAL_FDCAN_ExitRestrictedOperationMode,"ax",%progbits
	.align	1
	.global	HAL_FDCAN_ExitRestrictedOperationMode
	.syntax unified
	.thumb
	.thumb_func
	.type	HAL_FDCAN_ExitRestrictedOperationMode, %function
HAL_FDCAN_ExitRestrictedOperationMode:
.LFB385:
	.loc 1 3433 1 is_stmt 1
	.cfi_startproc
	@ args = 0, pretend = 0, frame = 0
	@ frame_needed = 0, uses_anonymous_args = 0
	@ link register save eliminated.
.LVL354:
	.loc 1 3434 3
	.loc 1 3434 26 is_stmt 0
	ldrb	r3, [r0, #152]	@ zero_extendqisi2
.LVL355:
	.loc 1 3436 3 is_stmt 1
	.loc 1 3436 40 is_stmt 0
	subs	r3, r3, #1
.LVL356:
	uxtb	r3, r3
	.loc 1 3436 6
	cmp	r3, #1
	bls	.L317
	.loc 1 3447 5 is_stmt 1
	.loc 1 3447 11 is_stmt 0
	ldr	r3, [r0, #156]
	.loc 1 3447 23
	orr	r3, r3, #2
	str	r3, [r0, #156]
	.loc 1 3449 5 is_stmt 1
	.loc 1 3449 12 is_stmt 0
	movs	r0, #1
.LVL357:
	.loc 1 3451 1
	bx	lr
.LVL358:
.L317:
	.loc 1 3439 5 is_stmt 1
	.loc 1 3439 13 is_stmt 0
	ldr	r2, [r0]
	.loc 1 3439 23
	ldr	r3, [r2, #24]
	.loc 1 3439 31
	bic	r3, r3, #4
	str	r3, [r2, #24]
	.loc 1 3442 5 is_stmt 1
	.loc 1 3442 12 is_stmt 0
	movs	r0, #0
.LVL359:
	bx	lr
	.cfi_endproc
.LFE385:
	.size	HAL_FDCAN_ExitRestrictedOperationMode, .-HAL_FDCAN_ExitRestrictedOperationMode
	.section	.text.HAL_FDCAN_TT_ConfigOperation,"ax",%progbits
	.align	1
	.global	HAL_FDCAN_TT_ConfigOperation
	.syntax unified
	.thumb
	.thumb_func
	.type	HAL_FDCAN_TT_ConfigOperation, %function
HAL_FDCAN_TT_ConfigOperation:
.LFB386:
	.loc 1 3500 1 is_stmt 1
	.cfi_startproc
	@ args = 0, pretend = 0, frame = 0
	@ frame_needed = 0, uses_anonymous_args = 0
.LVL360:
	push	{r3, r4, r5, r6, r7, lr}
	.cfi_def_cfa_offset 24
	.cfi_offset 3, -24
	.cfi_offset 4, -20
	.cfi_offset 5, -16
	.cfi_offset 6, -12
	.cfi_offset 7, -8
	.cfi_offset 14, -4
	mov	r4, r0
	.loc 1 3501 3
	.loc 1 3502 3
	.loc 1 3503 3
	.loc 1 3506 3
	.loc 1 3507 3
	.loc 1 3508 3
	.loc 1 3509 3
	.loc 1 3510 3
	.loc 1 3511 3
	.loc 1 3512 3
	.loc 1 3513 3
	.loc 1 3514 3
	.loc 1 3515 3
	.loc 1 3516 3
	.loc 1 3518 5
	.loc 1 3520 3
	.loc 1 3522 5
	.loc 1 3523 5
	.loc 1 3524 5
	.loc 1 3525 5
	.loc 1 3526 5
	.loc 1 3528 3
	.loc 1 3537 5
	.loc 1 3540 3
	.loc 1 3540 13 is_stmt 0
	ldrb	r6, [r0, #152]	@ zero_extendqisi2
	uxtb	r6, r6
	.loc 1 3540 6
	cmp	r6, #1
	beq	.L330
	.loc 1 3650 5 is_stmt 1
	.loc 1 3650 11 is_stmt 0
	ldr	r3, [r0, #156]
	.loc 1 3650 23
	orr	r3, r3, #4
	str	r3, [r0, #156]
	.loc 1 3652 5 is_stmt 1
	.loc 1 3652 12 is_stmt 0
	movs	r6, #1
.LVL361:
.L321:
	.loc 1 3654 1
	mov	r0, r6
	pop	{r3, r4, r5, r6, r7, pc}
.LVL362:
.L330:
	mov	r5, r1
	.loc 1 3543 5 is_stmt 1
	.loc 1 3543 13 is_stmt 0
	ldr	r2, [r0, #4]
	.loc 1 3543 20
	ldr	r3, [r2, #16]
	.loc 1 3543 29
	bic	r3, r3, #-2147483648
	str	r3, [r2, #16]
	.loc 1 3546 5 is_stmt 1
	.loc 1 3546 17 is_stmt 0
	bl	HAL_GetTick
.LVL363:
	mov	r7, r0
.LVL364:
	.loc 1 3549 5 is_stmt 1
.L320:
	.loc 1 3549 54
	.loc 1 3549 19 is_stmt 0
	ldr	r3, [r4, #4]
	.loc 1 3549 26
	ldr	r2, [r3, #16]
	.loc 1 3549 54
	cmp	r2, #0
	bge	.L331
	.loc 1 3552 7 is_stmt 1
	.loc 1 3552 12 is_stmt 0
	bl	HAL_GetTick
.LVL365:
	.loc 1 3552 26
	subs	r0, r0, r7
	.loc 1 3552 10
	cmp	r0, #10
	bls	.L320
	.loc 1 3555 9 is_stmt 1
	.loc 1 3555 15 is_stmt 0
	ldr	r3, [r4, #156]
	.loc 1 3555 27
	orr	r3, r3, #1
	str	r3, [r4, #156]
	.loc 1 3558 9 is_stmt 1
	.loc 1 3558 23 is_stmt 0
	movs	r3, #3
	strb	r3, [r4, #152]
	.loc 1 3560 9 is_stmt 1
	.loc 1 3560 16 is_stmt 0
	b	.L321
.L331:
	.loc 1 3565 5 is_stmt 1
	.loc 1 3565 52 is_stmt 0
	ldr	r2, [r3, #16]
	.loc 1 3565 63
	and	r2, r2, #-1073741824
	.loc 1 3565 129
	ldr	r1, [r5, #56]
	.loc 1 3565 156
	sub	r1, r1, #65536
	.loc 1 3565 177
	ldr	r0, [r5, #60]
	.loc 1 3565 165
	orr	r1, r1, r0, lsl #16
	.loc 1 3565 114
	orrs	r2, r2, r1
	.loc 1 3565 31
	str	r2, [r3, #16]
	.loc 1 3571 5 is_stmt 1
	.loc 1 3571 13 is_stmt 0
	ldr	r2, [r4, #4]
	.loc 1 3571 20
	ldr	r3, [r2, #16]
	.loc 1 3571 29
	orr	r3, r3, #-2147483648
	str	r3, [r2, #16]
	.loc 1 3574 5 is_stmt 1
	.loc 1 3574 45 is_stmt 0
	ldr	r1, [r4, #4]
	.loc 1 3574 52
	ldr	r3, [r1, #8]
	.loc 1 3574 63
	ldr	r2, .L333
	ands	r2, r2, r3
	.loc 1 3574 157
	ldr	r3, [r5]
	.loc 1 3574 184
	ldr	r0, [r5, #8]
	.loc 1 3574 173
	orrs	r3, r3, r0
	.loc 1 3574 209
	ldr	r0, [r5, #12]
	.loc 1 3574 197
	orr	r3, r3, r0, lsl #5
	.loc 1 3574 245
	ldr	r0, [r5, #16]
	.loc 1 3574 233
	orr	r3, r3, r0, lsl #8
	.loc 1 3574 144
	orrs	r2, r2, r3
	.loc 1 3574 31
	str	r2, [r1, #8]
	.loc 1 3580 5 is_stmt 1
	.loc 1 3580 18 is_stmt 0
	ldr	r3, [r5]
	.loc 1 3580 8
	cmp	r3, #3
	beq	.L323
	.loc 1 3582 7 is_stmt 1
	.loc 1 3582 47 is_stmt 0
	ldr	r1, [r4, #4]
	.loc 1 3582 54
	ldr	r2, [r1, #8]
	.loc 1 3582 65
	ldr	r3, .L333+4
	ands	r3, r3, r2
	.loc 1 3582 143
	ldr	r2, [r5, #4]
	.loc 1 3582 167
	ldr	r0, [r5, #24]
	.loc 1 3582 155
	orr	r2, r2, r0, lsl #16
	.loc 1 3582 202
	ldr	r0, [r5, #36]
	.loc 1 3582 191
	orrs	r2, r2, r0
	.loc 1 3582 130
	orrs	r3, r3, r2
	.loc 1 3582 33
	str	r3, [r1, #8]
.L323:
	.loc 1 3588 5 is_stmt 1
	.loc 1 3588 18 is_stmt 0
	ldr	r3, [r5]
	.loc 1 3588 8
	cmp	r3, #1
	beq	.L324
	.loc 1 3590 7 is_stmt 1
	.loc 1 3590 47 is_stmt 0
	ldr	r1, [r4, #4]
	.loc 1 3590 54
	ldr	r2, [r1, #8]
	.loc 1 3590 65
	ldr	r3, .L333+8
	ands	r3, r3, r2
	.loc 1 3590 143
	ldr	r2, [r5, #20]
	.loc 1 3590 172
	ldr	r0, [r5, #28]
	.loc 1 3590 161
	orrs	r2, r2, r0
	.loc 1 3590 202
	ldr	r0, [r5, #32]
	.loc 1 3590 191
	orrs	r2, r2, r0
	.loc 1 3590 130
	orrs	r3, r3, r2
	.loc 1 3590 33
	str	r3, [r1, #8]
.L324:
	.loc 1 3598 5 is_stmt 1
	.loc 1 3598 45 is_stmt 0
	ldr	r2, [r4, #4]
	.loc 1 3598 52
	ldr	r3, [r2, #12]
	.loc 1 3598 63
	bic	r3, r3, #192
	.loc 1 3598 99
	ldr	r1, [r5, #44]
	.loc 1 3598 87
	orrs	r3, r3, r1
	.loc 1 3598 31
	str	r3, [r2, #12]
	.loc 1 3599 5 is_stmt 1
	.loc 1 3599 18 is_stmt 0
	ldr	r3, [r5]
	.loc 1 3599 8
	cmp	r3, #3
	beq	.L325
	.loc 1 3601 7 is_stmt 1
	.loc 1 3601 47 is_stmt 0
	ldr	r0, [r4, #4]
	.loc 1 3601 54
	ldr	r2, [r0, #12]
	.loc 1 3601 65
	ldr	r3, .L333+12
	ands	r3, r3, r2
	.loc 1 3601 127
	ldr	r2, [r5, #48]
	.loc 1 3601 144
	subs	r1, r2, #1
	.loc 1 3601 171
	ldr	r2, [r5, #52]
	.loc 1 3601 186
	lsls	r2, r2, #16
	.loc 1 3601 159
	orr	r2, r2, r1, lsl #8
	.loc 1 3601 112
	orrs	r3, r3, r2
	.loc 1 3601 33
	str	r3, [r0, #12]
.L325:
	.loc 1 3606 5 is_stmt 1
	.loc 1 3606 18 is_stmt 0
	ldr	r3, [r5, #8]
	.loc 1 3606 8
	cmp	r3, #16
	beq	.L332
.L326:
	.loc 1 3612 5 is_stmt 1
	.loc 1 3612 44 is_stmt 0
	ldr	r1, [r4, #4]
	.loc 1 3612 51
	ldr	r3, [r1, #512]
	.loc 1 3612 61
	bic	r3, r3, #51
	.loc 1 3612 118
	ldr	r2, [r5, #68]
	.loc 1 3612 148
	ldr	r0, [r5, #72]
	.loc 1 3612 137
	orrs	r2, r2, r0
	.loc 1 3612 105
	orrs	r3, r3, r2
	.loc 1 3612 30
	str	r3, [r1, #512]
	.loc 1 3617 5 is_stmt 1
	.loc 1 3617 35 is_stmt 0
	ldr	r3, [r4, #144]
	.loc 1 3617 47
	ldr	r2, .L333+16
	add	r2, r2, r3
.LVL366:
	.loc 1 3618 5 is_stmt 1
	.loc 1 3618 45 is_stmt 0
	ldr	r1, [r4, #4]
	.loc 1 3618 52
	ldr	r0, [r1]
	.loc 1 3618 63
	ldr	r3, .L333+20
	ands	r3, r3, r0
	.loc 1 3618 107
	bic	r2, r2, #3
.LVL367:
	.loc 1 3618 90
	orrs	r3, r3, r2
	.loc 1 3618 31
	str	r3, [r1]
.LVL368:
	.loc 1 3621 5 is_stmt 1
	.loc 1 3621 45 is_stmt 0
	ldr	r2, [r4, #4]
	.loc 1 3621 52
	ldr	r3, [r2]
	.loc 1 3621 63
	bic	r3, r3, #8323072
	.loc 1 3621 102
	ldr	r1, [r5, #64]
	.loc 1 3621 89
	orr	r3, r3, r1, lsl #16
	.loc 1 3621 31
	str	r3, [r2]
	.loc 1 3624 5 is_stmt 1
	.loc 1 3624 47 is_stmt 0
	ldr	r3, [r4, #144]
	.loc 1 3624 31
	str	r3, [r4, #140]
	.loc 1 3625 5 is_stmt 1
	.loc 1 3625 71 is_stmt 0
	ldr	r2, [r5, #64]
	.loc 1 3625 59
	add	r2, r3, r2, lsl #3
	.loc 1 3625 31
	str	r2, [r4, #144]
	.loc 1 3627 5 is_stmt 1
	.loc 1 3627 8 is_stmt 0
	ldr	r1, .L333+24
	cmp	r2, r1
	bls	.L327
	.loc 1 3631 7 is_stmt 1
	.loc 1 3631 13 is_stmt 0
	ldr	r3, [r4, #156]
	.loc 1 3631 25
	orr	r3, r3, #32
	str	r3, [r4, #156]
	.loc 1 3633 7 is_stmt 1
	.loc 1 3633 14 is_stmt 0
	b	.L321
.LVL369:
.L332:
	.loc 1 3608 7 is_stmt 1
	.loc 1 3608 47 is_stmt 0
	ldr	r2, [r4, #4]
	.loc 1 3608 54
	ldr	r3, [r2, #12]
	.loc 1 3608 65
	bic	r3, r3, #63
	.loc 1 3608 102
	ldr	r1, [r5, #40]
	.loc 1 3608 90
	orrs	r3, r3, r1
	.loc 1 3608 33
	str	r3, [r2, #12]
	b	.L326
.LVL370:
.L328:
	.loc 1 3640 9 is_stmt 1 discriminator 3
	.loc 1 3640 35 is_stmt 0 discriminator 3
	movs	r2, #0
	str	r2, [r3], #4
.LVL371:
	.loc 1 3638 103 is_stmt 1 discriminator 3
.L327:
	.loc 1 3638 63 discriminator 1
	.loc 1 3638 79 is_stmt 0 discriminator 1
	ldr	r2, [r4, #144]
	.loc 1 3638 63 discriminator 1
	cmp	r2, r3
	bhi	.L328
	.loc 1 3645 12
	movs	r6, #0
	b	.L321
.L334:
	.align	2
.L333:
	.word	-32756
	.word	-83820553
	.word	-50364417
	.word	-268373761
	.word	-1073785856
	.word	-65533
	.word	1073796092
	.cfi_endproc
.LFE386:
	.size	HAL_FDCAN_TT_ConfigOperation, .-HAL_FDCAN_TT_ConfigOperation
	.section	.text.HAL_FDCAN_TT_ConfigReferenceMessage,"ax",%progbits
	.align	1
	.global	HAL_FDCAN_TT_ConfigReferenceMessage
	.syntax unified
	.thumb
	.thumb_func
	.type	HAL_FDCAN_TT_ConfigReferenceMessage, %function
HAL_FDCAN_TT_ConfigReferenceMessage:
.LFB387:
	.loc 1 3681 1 is_stmt 1
	.cfi_startproc
	@ args = 0, pretend = 0, frame = 0
	@ frame_needed = 0, uses_anonymous_args = 0
	@ link register save eliminated.
.LVL372:
	.loc 1 3683 3
	.loc 1 3684 3
	.loc 1 3685 3
	.loc 1 3691 5
	.loc 1 3693 3
	.loc 1 3695 3
	.loc 1 3695 13 is_stmt 0
	ldrb	ip, [r0, #152]	@ zero_extendqisi2
	uxtb	ip, ip
	.loc 1 3695 6
	cmp	ip, #1
	beq	.L344
	.loc 1 3715 5 is_stmt 1
	.loc 1 3715 11 is_stmt 0
	ldr	r3, [r0, #156]
.LVL373:
	.loc 1 3715 23
	orr	r3, r3, #4
	str	r3, [r0, #156]
	.loc 1 3717 5 is_stmt 1
	.loc 1 3717 12 is_stmt 0
	movs	r0, #1
.LVL374:
	.loc 1 3719 1
	bx	lr
.LVL375:
.L344:
	.loc 1 3681 1
	push	{r4}
	.cfi_def_cfa_offset 4
	.cfi_offset 4, -4
	.loc 1 3698 5 is_stmt 1
	.loc 1 3698 8 is_stmt 0
	cmp	r1, #1073741824
	beq	.L345
	.loc 1 3705 7 is_stmt 1
	.loc 1 3705 47 is_stmt 0
	ldr	r4, [r0, #4]
	.loc 1 3705 54
	ldr	r0, [r4, #4]
.LVL376:
	.loc 1 3705 65
	and	r0, r0, #536870912
	.loc 1 3705 148
	orrs	r3, r3, r1
.LVL377:
	.loc 1 3705 157
	orr	r2, r3, r2, lsl #18
.LVL378:
	.loc 1 3705 136
	orrs	r2, r2, r0
	.loc 1 3705 33
	str	r2, [r4, #4]
.LVL379:
.L338:
	.loc 1 3710 5 is_stmt 1
	.loc 1 3710 12 is_stmt 0
	movs	r0, #0
	.loc 1 3719 1
	ldr	r4, [sp], #4
	.cfi_remember_state
	.cfi_restore 4
	.cfi_def_cfa_offset 0
	bx	lr
.LVL380:
.L345:
	.cfi_restore_state
	.loc 1 3700 7 is_stmt 1
	.loc 1 3700 47 is_stmt 0
	ldr	r4, [r0, #4]
	.loc 1 3700 54
	ldr	r0, [r4, #4]
.LVL381:
	.loc 1 3700 65
	and	r0, r0, #536870912
	.loc 1 3700 148
	orrs	r1, r1, r3
.LVL382:
	.loc 1 3700 157
	orrs	r2, r2, r1
.LVL383:
	.loc 1 3700 136
	orrs	r2, r2, r0
	.loc 1 3700 33
	str	r2, [r4, #4]
	b	.L338
	.cfi_endproc
.LFE387:
	.size	HAL_FDCAN_TT_ConfigReferenceMessage, .-HAL_FDCAN_TT_ConfigReferenceMessage
	.section	.text.HAL_FDCAN_TT_ConfigTrigger,"ax",%progbits
	.align	1
	.global	HAL_FDCAN_TT_ConfigTrigger
	.syntax unified
	.thumb
	.thumb_func
	.type	HAL_FDCAN_TT_ConfigTrigger, %function
HAL_FDCAN_TT_ConfigTrigger:
.LFB388:
	.loc 1 3731 1 is_stmt 1
	.cfi_startproc
	@ args = 0, pretend = 0, frame = 0
	@ frame_needed = 0, uses_anonymous_args = 0
	@ link register save eliminated.
.LVL384:
	push	{r4}
	.cfi_def_cfa_offset 4
	.cfi_offset 4, -4
	.loc 1 3732 3
	.loc 1 3733 3
	.loc 1 3734 3
	.loc 1 3735 3
	.loc 1 3736 3
	.loc 1 3739 3
	.loc 1 3740 3
	.loc 1 3741 3
	.loc 1 3742 3
	.loc 1 3743 3
	.loc 1 3743 21 is_stmt 0
	ldr	r3, [r1, #8]
	.loc 1 3745 5 is_stmt 1
	.loc 1 3747 3
	.loc 1 3748 3
	.loc 1 3749 3
	.loc 1 3750 3
	.loc 1 3751 3
	.loc 1 3751 22 is_stmt 0
	ldr	r4, [r1, #24]
	.loc 1 3756 5 is_stmt 1
	.loc 1 3758 3
	.loc 1 3766 7
	.loc 1 3770 3
	.loc 1 3770 13 is_stmt 0
	ldrb	r2, [r0, #152]	@ zero_extendqisi2
	uxtb	r2, r2
	.loc 1 3770 6
	cmp	r2, #1
	beq	.L356
	.loc 1 3823 5 is_stmt 1
	.loc 1 3823 11 is_stmt 0
	ldr	r3, [r0, #156]
	.loc 1 3823 23
	orr	r3, r3, #4
	str	r3, [r0, #156]
	.loc 1 3825 5 is_stmt 1
	.loc 1 3825 12 is_stmt 0
	movs	r0, #1
.LVL385:
.L352:
	.loc 1 3827 1
	ldr	r4, [sp], #4
	.cfi_remember_state
	.cfi_restore 4
	.cfi_def_cfa_offset 0
	bx	lr
.LVL386:
.L356:
	.cfi_restore_state
	sub	ip, r4, #2
	.loc 1 3773 5 is_stmt 1
	.loc 1 3773 8 is_stmt 0
	cbz	r3, .L348
	.loc 1 3779 7 is_stmt 1
	.loc 1 3779 64 is_stmt 0
	ldr	r2, [r1, #12]
	.loc 1 3779 17
	add	r3, r3, r2
.LVL387:
.L348:
	.loc 1 3783 5 is_stmt 1
	.loc 1 3783 40 is_stmt 0
	ldr	r2, [r1, #4]
	.loc 1 3784 36
	lsls	r3, r3, #8
.LVL388:
	.loc 1 3783 58
	orr	r3, r3, r2, lsl #16
	.loc 1 3785 39
	ldr	r2, [r1, #16]
	.loc 1 3784 42
	orrs	r3, r3, r2
	.loc 1 3786 39
	ldr	r2, [r1, #20]
	.loc 1 3785 52
	orrs	r3, r3, r2
	.loc 1 3783 22
	orrs	r3, r3, r4
.LVL389:
	.loc 1 3790 5 is_stmt 1
	.loc 1 3790 8 is_stmt 0
	cmp	r4, #8
	beq	.L357
	.loc 1 3794 10 is_stmt 1
	.loc 1 3794 13 is_stmt 0
	cmp	ip, #3
	bhi	.L353
	.loc 1 3799 7 is_stmt 1
	.loc 1 3799 51 is_stmt 0
	ldr	r2, [r1, #32]
.LVL390:
.LBB26:
.LBB27:
	.loc 2 1050 3 is_stmt 1
	.loc 2 1055 4
	.syntax unified
@ 1055 "d:\rtos\board\yd-stm32h7xxvx_classicv19\cmake-build-debug\_deps\stm32h7xx_cmsis_include\drivers\cmsis\include\cmsis_gcc.h" 1
	rbit r2, r2
@ 0 "" 2
.LVL391:
	.loc 2 1068 3
	.thumb
	.syntax unified
.LBE27:
.LBE26:
.LBB28:
.LBB29:
	.loc 2 1089 3
	.loc 2 1089 6 is_stmt 0
	cbz	r2, .L354
	.loc 2 1093 3 is_stmt 1
	.loc 2 1093 10 is_stmt 0
	clz	r2, r2
.LVL392:
	b	.L350
.LVL393:
.L357:
.LBE29:
.LBE28:
	.loc 1 3792 7 is_stmt 1
	.loc 1 3792 21 is_stmt 0
	ldr	r2, [r1, #36]
.LVL394:
.L350:
	.loc 1 3807 5 is_stmt 1
	.loc 1 3807 40 is_stmt 0
	ldr	r4, [r1, #28]
	.loc 1 3807 76
	lsls	r2, r2, #16
.LVL395:
	.loc 1 3807 22
	orr	r2, r2, r4, lsr #7
.LVL396:
	.loc 1 3810 5 is_stmt 1
	.loc 1 3810 49 is_stmt 0
	ldr	r0, [r0, #140]
.LVL397:
	.loc 1 3810 78
	ldr	r1, [r1]
.LVL398:
	.loc 1 3810 61
	add	r4, r0, r1, lsl #3
.LVL399:
	.loc 1 3813 5 is_stmt 1
	.loc 1 3813 21 is_stmt 0
	str	r3, [r0, r1, lsl #3]
	.loc 1 3814 5 is_stmt 1
.LVL400:
	.loc 1 3815 5
	.loc 1 3815 21 is_stmt 0
	str	r2, [r4, #4]
	.loc 1 3818 5 is_stmt 1
	.loc 1 3818 12 is_stmt 0
	movs	r0, #0
	b	.L352
.LVL401:
.L354:
.LBB31:
.LBB30:
	.loc 2 1091 12
	movs	r2, #32
.LVL402:
	b	.L350
.LVL403:
.L353:
.LBE30:
.LBE31:
	.loc 1 3803 21
	movs	r2, #0
	b	.L350
	.cfi_endproc
.LFE388:
	.size	HAL_FDCAN_TT_ConfigTrigger, .-HAL_FDCAN_TT_ConfigTrigger
	.section	.text.HAL_FDCAN_TT_SetGlobalTime,"ax",%progbits
	.align	1
	.global	HAL_FDCAN_TT_SetGlobalTime
	.syntax unified
	.thumb
	.thumb_func
	.type	HAL_FDCAN_TT_SetGlobalTime, %function
HAL_FDCAN_TT_SetGlobalTime:
.LFB389:
	.loc 1 3841 1 is_stmt 1
	.cfi_startproc
	@ args = 0, pretend = 0, frame = 0
	@ frame_needed = 0, uses_anonymous_args = 0
	@ link register save eliminated.
.LVL404:
	.loc 1 3842 3
	.loc 1 3843 3
	.loc 1 3843 26 is_stmt 0
	ldrb	r3, [r0, #152]	@ zero_extendqisi2
.LVL405:
	.loc 1 3846 3 is_stmt 1
	.loc 1 3847 3
	.loc 1 3849 3
	.loc 1 3849 40 is_stmt 0
	subs	r3, r3, #1
.LVL406:
	uxtb	r3, r3
	.loc 1 3849 6
	cmp	r3, #1
	bhi	.L359
	.loc 1 3852 5 is_stmt 1
	.loc 1 3852 16 is_stmt 0
	ldr	r2, [r0, #4]
	.loc 1 3852 23
	ldr	r3, [r2, #8]
	.loc 1 3852 8
	tst	r3, #32768
	beq	.L369
	.loc 1 3861 5 is_stmt 1
	.loc 1 3861 23 is_stmt 0
	ldr	r3, [r2, #44]
	.loc 1 3861 8
	ands	r3, r3, #4194304
	bne	.L370
	.loc 1 3841 1
	push	{r4, r5}
	.cfi_def_cfa_offset 8
	.cfi_offset 4, -8
	.cfi_offset 5, -4
	.loc 1 3870 5 is_stmt 1
	.loc 1 3870 52 is_stmt 0
	ldr	r5, [r2, #24]
	.loc 1 3870 63
	ldr	r4, .L373
	ands	r4, r4, r5
	.loc 1 3870 90
	orrs	r4, r4, r1
	.loc 1 3870 31
	str	r4, [r2, #24]
	.loc 1 3873 5 is_stmt 1
.LVL407:
.L363:
	.loc 1 3873 54
	.loc 1 3873 19 is_stmt 0
	ldr	r2, [r0, #4]
	.loc 1 3873 26
	ldr	r1, [r2, #20]
	.loc 1 3873 54
	tst	r1, #32768
	beq	.L371
	.loc 1 3876 7 is_stmt 1
	.loc 1 3876 10 is_stmt 0
	cmp	r3, #50
	bhi	.L372
	.loc 1 3888 7 is_stmt 1
	.loc 1 3888 14 is_stmt 0
	adds	r3, r3, #1
.LVL408:
	b	.L363
.LVL409:
.L369:
	.cfi_def_cfa_offset 0
	.cfi_restore 4
	.cfi_restore 5
	.loc 1 3855 7 is_stmt 1
	.loc 1 3855 13 is_stmt 0
	ldr	r3, [r0, #156]
	.loc 1 3855 25
	orr	r3, r3, #16
	str	r3, [r0, #156]
	.loc 1 3857 7 is_stmt 1
	.loc 1 3857 14 is_stmt 0
	movs	r0, #1
.LVL410:
	bx	lr
.LVL411:
.L370:
	.loc 1 3864 7 is_stmt 1
	.loc 1 3864 13 is_stmt 0
	ldr	r3, [r0, #156]
	.loc 1 3864 25
	orr	r3, r3, #64
	str	r3, [r0, #156]
	.loc 1 3866 7 is_stmt 1
	.loc 1 3866 14 is_stmt 0
	movs	r0, #1
.LVL412:
	bx	lr
.LVL413:
.L372:
	.cfi_def_cfa_offset 8
	.cfi_offset 4, -8
	.cfi_offset 5, -4
	.loc 1 3879 9 is_stmt 1
	.loc 1 3879 15 is_stmt 0
	ldr	r3, [r0, #156]
.LVL414:
	.loc 1 3879 27
	orr	r3, r3, #1
	str	r3, [r0, #156]
	.loc 1 3882 9 is_stmt 1
	.loc 1 3882 23 is_stmt 0
	movs	r3, #3
	strb	r3, [r0, #152]
	.loc 1 3884 9 is_stmt 1
	.loc 1 3884 16 is_stmt 0
	movs	r0, #1
.LVL415:
	b	.L361
.LVL416:
.L371:
	.loc 1 3892 5 is_stmt 1
	.loc 1 3892 20 is_stmt 0
	ldr	r3, [r2, #20]
.LVL417:
	.loc 1 3892 29
	orr	r3, r3, #1
	str	r3, [r2, #20]
	.loc 1 3895 5 is_stmt 1
	.loc 1 3895 12 is_stmt 0
	movs	r0, #0
.LVL418:
.L361:
	.loc 1 3904 1
	pop	{r4, r5}
	.cfi_restore 5
	.cfi_restore 4
	.cfi_def_cfa_offset 0
	bx	lr
.LVL419:
.L359:
	.loc 1 3900 5 is_stmt 1
	.loc 1 3900 11 is_stmt 0
	ldr	r3, [r0, #156]
	.loc 1 3900 23
	orr	r3, r3, #2
	str	r3, [r0, #156]
	.loc 1 3902 5 is_stmt 1
	.loc 1 3902 12 is_stmt 0
	movs	r0, #1
.LVL420:
	.loc 1 3904 1
	bx	lr
.L374:
	.align	2
.L373:
	.word	-65536
	.cfi_endproc
.LFE389:
	.size	HAL_FDCAN_TT_SetGlobalTime, .-HAL_FDCAN_TT_SetGlobalTime
	.section	.text.HAL_FDCAN_TT_SetClockSynchronization,"ax",%progbits
	.align	1
	.global	HAL_FDCAN_TT_SetClockSynchronization
	.syntax unified
	.thumb
	.thumb_func
	.type	HAL_FDCAN_TT_SetClockSynchronization, %function
HAL_FDCAN_TT_SetClockSynchronization:
.LFB390:
	.loc 1 3915 1 is_stmt 1
	.cfi_startproc
	@ args = 0, pretend = 0, frame = 0
	@ frame_needed = 0, uses_anonymous_args = 0
	@ link register save eliminated.
.LVL421:
	.loc 1 3916 3
	.loc 1 3917 3
	.loc 1 3917 26 is_stmt 0
	ldrb	r3, [r0, #152]	@ zero_extendqisi2
.LVL422:
	.loc 1 3920 3 is_stmt 1
	.loc 1 3921 3
	.loc 1 3923 3
	.loc 1 3923 40 is_stmt 0
	subs	r3, r3, #1
.LVL423:
	uxtb	r3, r3
	.loc 1 3923 6
	cmp	r3, #1
	bhi	.L376
	.loc 1 3926 5 is_stmt 1
	.loc 1 3926 16 is_stmt 0
	ldr	r2, [r0, #4]
	.loc 1 3926 23
	ldr	r3, [r2, #8]
	.loc 1 3926 8
	tst	r3, #32768
	beq	.L386
	.loc 1 3935 5 is_stmt 1
	.loc 1 3935 23 is_stmt 0
	ldr	r3, [r2, #44]
	.loc 1 3935 8
	ands	r3, r3, #1073741824
	bne	.L387
	.loc 1 3915 1
	push	{r4, r5}
	.cfi_def_cfa_offset 8
	.cfi_offset 4, -8
	.cfi_offset 5, -4
	.loc 1 3944 5 is_stmt 1
	.loc 1 3944 52 is_stmt 0
	ldr	r5, [r2, #16]
	.loc 1 3944 63
	ldr	r4, .L390
	ands	r4, r4, r5
	.loc 1 3944 110
	sub	r1, r1, #65536
.LVL424:
	.loc 1 3944 90
	orrs	r4, r4, r1
	.loc 1 3944 31
	str	r4, [r2, #16]
	.loc 1 3947 5 is_stmt 1
.LVL425:
.L380:
	.loc 1 3947 54
	.loc 1 3947 19 is_stmt 0
	ldr	r2, [r0, #4]
	.loc 1 3947 26
	ldr	r1, [r2, #20]
	.loc 1 3947 54
	tst	r1, #32768
	beq	.L388
	.loc 1 3950 7 is_stmt 1
	.loc 1 3950 10 is_stmt 0
	cmp	r3, #50
	bhi	.L389
	.loc 1 3962 7 is_stmt 1
	.loc 1 3962 14 is_stmt 0
	adds	r3, r3, #1
.LVL426:
	b	.L380
.LVL427:
.L386:
	.cfi_def_cfa_offset 0
	.cfi_restore 4
	.cfi_restore 5
	.loc 1 3929 7 is_stmt 1
	.loc 1 3929 13 is_stmt 0
	ldr	r3, [r0, #156]
	.loc 1 3929 25
	orr	r3, r3, #16
	str	r3, [r0, #156]
	.loc 1 3931 7 is_stmt 1
	.loc 1 3931 14 is_stmt 0
	movs	r0, #1
.LVL428:
	bx	lr
.LVL429:
.L387:
	.loc 1 3938 7 is_stmt 1
	.loc 1 3938 13 is_stmt 0
	ldr	r3, [r0, #156]
	.loc 1 3938 25
	orr	r3, r3, #64
	str	r3, [r0, #156]
	.loc 1 3940 7 is_stmt 1
	.loc 1 3940 14 is_stmt 0
	movs	r0, #1
.LVL430:
	bx	lr
.LVL431:
.L389:
	.cfi_def_cfa_offset 8
	.cfi_offset 4, -8
	.cfi_offset 5, -4
	.loc 1 3953 9 is_stmt 1
	.loc 1 3953 15 is_stmt 0
	ldr	r3, [r0, #156]
.LVL432:
	.loc 1 3953 27
	orr	r3, r3, #1
	str	r3, [r0, #156]
	.loc 1 3956 9 is_stmt 1
	.loc 1 3956 23 is_stmt 0
	movs	r3, #3
	strb	r3, [r0, #152]
	.loc 1 3958 9 is_stmt 1
	.loc 1 3958 16 is_stmt 0
	movs	r0, #1
.LVL433:
	b	.L378
.LVL434:
.L388:
	.loc 1 3966 5 is_stmt 1
	.loc 1 3966 20 is_stmt 0
	ldr	r3, [r2, #20]
.LVL435:
	.loc 1 3966 29
	orr	r3, r3, #2
	str	r3, [r2, #20]
	.loc 1 3969 5 is_stmt 1
	.loc 1 3969 12 is_stmt 0
	movs	r0, #0
.LVL436:
.L378:
	.loc 1 3978 1
	pop	{r4, r5}
	.cfi_restore 5
	.cfi_restore 4
	.cfi_def_cfa_offset 0
	bx	lr
.LVL437:
.L376:
	.loc 1 3974 5 is_stmt 1
	.loc 1 3974 11 is_stmt 0
	ldr	r3, [r0, #156]
	.loc 1 3974 23
	orr	r3, r3, #2
	str	r3, [r0, #156]
	.loc 1 3976 5 is_stmt 1
	.loc 1 3976 12 is_stmt 0
	movs	r0, #1
.LVL438:
	.loc 1 3978 1
	bx	lr
.L391:
	.align	2
.L390:
	.word	-65536
	.cfi_endproc
.LFE390:
	.size	HAL_FDCAN_TT_SetClockSynchronization, .-HAL_FDCAN_TT_SetClockSynchronization
	.section	.text.HAL_FDCAN_TT_ConfigStopWatch,"ax",%progbits
	.align	1
	.global	HAL_FDCAN_TT_ConfigStopWatch
	.syntax unified
	.thumb
	.thumb_func
	.type	HAL_FDCAN_TT_ConfigStopWatch, %function
HAL_FDCAN_TT_ConfigStopWatch:
.LFB391:
	.loc 1 3991 1 is_stmt 1
	.cfi_startproc
	@ args = 0, pretend = 0, frame = 0
	@ frame_needed = 0, uses_anonymous_args = 0
	@ link register save eliminated.
.LVL439:
	.loc 1 3992 3
	.loc 1 3993 3
	.loc 1 3993 26 is_stmt 0
	ldrb	r3, [r0, #152]	@ zero_extendqisi2
.LVL440:
	.loc 1 3996 3 is_stmt 1
	.loc 1 3997 3
	.loc 1 3998 3
	.loc 1 4000 3
	.loc 1 4000 40 is_stmt 0
	subs	r3, r3, #1
.LVL441:
	uxtb	r3, r3
	.loc 1 4000 6
	cmp	r3, #1
	bhi	.L403
	.loc 1 3991 1
	push	{r4, r5}
	.cfi_def_cfa_offset 8
	.cfi_offset 4, -8
	.cfi_offset 5, -4
	.loc 1 3992 12
	movs	r3, #0
.LVL442:
.L393:
	.loc 1 4003 54 is_stmt 1
	.loc 1 4003 19 is_stmt 0
	ldr	r4, [r0, #4]
	.loc 1 4003 26
	ldr	r5, [r4, #20]
	.loc 1 4003 54
	tst	r5, #32768
	beq	.L404
	.loc 1 4006 7 is_stmt 1
	.loc 1 4006 10 is_stmt 0
	cmp	r3, #50
	bhi	.L405
	.loc 1 4018 7 is_stmt 1
	.loc 1 4018 14 is_stmt 0
	adds	r3, r3, #1
.LVL443:
	b	.L393
.L405:
	.loc 1 4009 9 is_stmt 1
	.loc 1 4009 15 is_stmt 0
	ldr	r3, [r0, #156]
.LVL444:
	.loc 1 4009 27
	orr	r3, r3, #1
	str	r3, [r0, #156]
	.loc 1 4012 9 is_stmt 1
	.loc 1 4012 23 is_stmt 0
	movs	r3, #3
	strb	r3, [r0, #152]
	.loc 1 4014 9 is_stmt 1
	.loc 1 4014 16 is_stmt 0
	movs	r0, #1
.LVL445:
	b	.L396
.LVL446:
.L404:
	.loc 1 4022 5 is_stmt 1
	.loc 1 4022 52 is_stmt 0
	ldr	r3, [r4, #20]
.LVL447:
	.loc 1 4022 63
	bic	r3, r3, #28
	.loc 1 4022 118
	orrs	r1, r1, r2
.LVL448:
	.loc 1 4022 107
	orrs	r3, r3, r1
	.loc 1 4022 31
	str	r3, [r4, #20]
	.loc 1 4025 5 is_stmt 1
	.loc 1 4025 12 is_stmt 0
	movs	r0, #0
.LVL449:
.L396:
	.loc 1 4034 1
	pop	{r4, r5}
	.cfi_restore 5
	.cfi_restore 4
	.cfi_def_cfa_offset 0
	bx	lr
.LVL450:
.L403:
	.loc 1 4030 5 is_stmt 1
	.loc 1 4030 11 is_stmt 0
	ldr	r3, [r0, #156]
	.loc 1 4030 23
	orr	r3, r3, #2
	str	r3, [r0, #156]
	.loc 1 4032 5 is_stmt 1
	.loc 1 4032 12 is_stmt 0
	movs	r0, #1
.LVL451:
	.loc 1 4034 1
	bx	lr
	.cfi_endproc
.LFE391:
	.size	HAL_FDCAN_TT_ConfigStopWatch, .-HAL_FDCAN_TT_ConfigStopWatch
	.section	.text.HAL_FDCAN_TT_ConfigRegisterTimeMark,"ax",%progbits
	.align	1
	.global	HAL_FDCAN_TT_ConfigRegisterTimeMark
	.syntax unified
	.thumb
	.thumb_func
	.type	HAL_FDCAN_TT_ConfigRegisterTimeMark, %function
HAL_FDCAN_TT_ConfigRegisterTimeMark:
.LFB392:
	.loc 1 4054 1 is_stmt 1
	.cfi_startproc
	@ args = 4, pretend = 0, frame = 0
	@ frame_needed = 0, uses_anonymous_args = 0
	@ link register save eliminated.
.LVL452:
	push	{r4, r5, r6, r7}
	.cfi_def_cfa_offset 16
	.cfi_offset 4, -16
	.cfi_offset 5, -12
	.cfi_offset 6, -8
	.cfi_offset 7, -4
	.loc 1 4055 3
.LVL453:
	.loc 1 4056 3
	.loc 1 4057 3
	.loc 1 4057 26 is_stmt 0
	ldrb	r4, [r0, #152]	@ zero_extendqisi2
.LVL454:
	.loc 1 4060 3 is_stmt 1
	.loc 1 4061 3
	.loc 1 4062 3
	.loc 1 4063 3
	.loc 1 4064 3
	.loc 1 4066 5
	.loc 1 4069 3
	.loc 1 4069 40 is_stmt 0
	subs	r4, r4, #1
.LVL455:
	uxtb	r4, r4
	.loc 1 4069 6
	cmp	r4, #1
	bhi	.L423
	.loc 1 4055 12
	mov	ip, #0
.LVL456:
.L407:
	.loc 1 4072 54 is_stmt 1
	.loc 1 4072 19 is_stmt 0
	ldr	r5, [r0, #4]
	.loc 1 4072 26
	ldr	r4, [r5, #20]
	.loc 1 4072 54
	ands	r4, r4, #32768
	beq	.L424
	.loc 1 4075 7 is_stmt 1
	.loc 1 4075 10 is_stmt 0
	cmp	ip, #50
	bhi	.L425
	.loc 1 4087 7 is_stmt 1
	.loc 1 4087 14 is_stmt 0
	add	ip, ip, #1
.LVL457:
	b	.L407
.L425:
	.loc 1 4078 9 is_stmt 1
	.loc 1 4078 15 is_stmt 0
	ldr	r3, [r0, #156]
.LVL458:
	.loc 1 4078 27
	orr	r3, r3, #1
	str	r3, [r0, #156]
	.loc 1 4081 9 is_stmt 1
	.loc 1 4081 23 is_stmt 0
	movs	r3, #3
	strb	r3, [r0, #152]
	.loc 1 4083 9 is_stmt 1
	.loc 1 4083 16 is_stmt 0
	movs	r0, #1
.LVL459:
	b	.L410
.LVL460:
.L424:
	.loc 1 4091 5 is_stmt 1
	.loc 1 4091 20 is_stmt 0
	ldr	r6, [r5, #20]
	.loc 1 4091 29
	bic	r6, r6, #192
	str	r6, [r5, #20]
	.loc 1 4093 5 is_stmt 1
	.loc 1 4093 8 is_stmt 0
	cbz	r1, .L412
	.loc 1 4096 7 is_stmt 1
	.loc 1 4096 10 is_stmt 0
	cbz	r3, .L413
	.loc 1 4102 9 is_stmt 1
	.loc 1 4102 19 is_stmt 0
	ldr	r5, [sp, #16]
	add	r3, r3, r5
.LVL461:
.L413:
	.loc 1 4105 7 is_stmt 1
	.loc 1 4108 7
	.loc 1 4105 15 is_stmt 0
	mov	r5, r4
.LVL462:
.L414:
	.loc 1 4108 56 is_stmt 1
	.loc 1 4108 21 is_stmt 0
	ldr	r6, [r0, #4]
	.loc 1 4108 28
	ldr	r7, [r6, #28]
	.loc 1 4108 56
	cmp	r7, #0
	bge	.L426
	.loc 1 4111 9 is_stmt 1
	.loc 1 4111 12 is_stmt 0
	cmp	r5, #50
	bhi	.L427
	.loc 1 4123 9 is_stmt 1
	.loc 1 4123 16 is_stmt 0
	adds	r5, r5, #1
.LVL463:
	b	.L414
.L427:
	.loc 1 4114 11 is_stmt 1
	.loc 1 4114 17 is_stmt 0
	ldr	r3, [r0, #156]
.LVL464:
	.loc 1 4114 29
	orr	r3, r3, #1
	str	r3, [r0, #156]
	.loc 1 4117 11 is_stmt 1
	.loc 1 4117 25 is_stmt 0
	movs	r3, #3
	strb	r3, [r0, #152]
	.loc 1 4119 11 is_stmt 1
	.loc 1 4119 18 is_stmt 0
	movs	r0, #1
.LVL465:
	b	.L410
.LVL466:
.L426:
	.loc 1 4127 7 is_stmt 1
	.loc 1 4127 55 is_stmt 0
	orr	r2, r2, r3, lsl #16
.LVL467:
	.loc 1 4127 28
	str	r2, [r6, #28]
	.loc 1 4129 7 is_stmt 1
.LVL468:
	.loc 1 4132 7
.L417:
	.loc 1 4132 56
	.loc 1 4132 21 is_stmt 0
	ldr	r3, [r0, #4]
	.loc 1 4132 28
	ldr	r2, [r3, #20]
	.loc 1 4132 56
	tst	r2, #32768
	beq	.L428
	.loc 1 4135 9 is_stmt 1
	.loc 1 4135 12 is_stmt 0
	cmp	r4, #50
	bhi	.L429
	.loc 1 4147 9 is_stmt 1
	.loc 1 4147 16 is_stmt 0
	adds	r4, r4, #1
.LVL469:
	b	.L417
.L429:
	.loc 1 4138 11 is_stmt 1
	.loc 1 4138 17 is_stmt 0
	ldr	r3, [r0, #156]
	.loc 1 4138 29
	orr	r3, r3, #1
	str	r3, [r0, #156]
	.loc 1 4141 11 is_stmt 1
	.loc 1 4141 25 is_stmt 0
	movs	r3, #3
	strb	r3, [r0, #152]
	.loc 1 4143 11 is_stmt 1
	.loc 1 4143 18 is_stmt 0
	movs	r0, #1
.LVL470:
	b	.L410
.LVL471:
.L428:
	.loc 1 4151 7 is_stmt 1
	.loc 1 4151 54 is_stmt 0
	ldr	r2, [r3, #20]
	.loc 1 4151 65
	bic	r2, r2, #192
	.loc 1 4151 89
	orrs	r2, r2, r1
	.loc 1 4151 33
	str	r2, [r3, #20]
.LVL472:
.L412:
	.loc 1 4155 5 is_stmt 1
	.loc 1 4155 12 is_stmt 0
	movs	r0, #0
.LVL473:
	b	.L410
.LVL474:
.L423:
	.loc 1 4160 5 is_stmt 1
	.loc 1 4160 11 is_stmt 0
	ldr	r3, [r0, #156]
.LVL475:
	.loc 1 4160 23
	orr	r3, r3, #2
	str	r3, [r0, #156]
	.loc 1 4162 5 is_stmt 1
	.loc 1 4162 12 is_stmt 0
	movs	r0, #1
.LVL476:
.L410:
	.loc 1 4164 1
	pop	{r4, r5, r6, r7}
	.cfi_restore 7
	.cfi_restore 6
	.cfi_restore 5
	.cfi_restore 4
	.cfi_def_cfa_offset 0
.LVL477:
	bx	lr
	.cfi_endproc
.LFE392:
	.size	HAL_FDCAN_TT_ConfigRegisterTimeMark, .-HAL_FDCAN_TT_ConfigRegisterTimeMark
	.section	.text.HAL_FDCAN_TT_EnableRegisterTimeMarkPulse,"ax",%progbits
	.align	1
	.global	HAL_FDCAN_TT_EnableRegisterTimeMarkPulse
	.syntax unified
	.thumb
	.thumb_func
	.type	HAL_FDCAN_TT_EnableRegisterTimeMarkPulse, %function
HAL_FDCAN_TT_EnableRegisterTimeMarkPulse:
.LFB393:
	.loc 1 4173 1 is_stmt 1
	.cfi_startproc
	@ args = 0, pretend = 0, frame = 0
	@ frame_needed = 0, uses_anonymous_args = 0
	@ link register save eliminated.
.LVL478:
	.loc 1 4174 3
	.loc 1 4175 3
	.loc 1 4175 26 is_stmt 0
	ldrb	r3, [r0, #152]	@ zero_extendqisi2
.LVL479:
	.loc 1 4178 3 is_stmt 1
	.loc 1 4180 3
	.loc 1 4180 40 is_stmt 0
	subs	r3, r3, #1
.LVL480:
	uxtb	r3, r3
	.loc 1 4180 6
	cmp	r3, #1
	bhi	.L438
	.loc 1 4174 12
	movs	r3, #0
.LVL481:
.L431:
	.loc 1 4183 54 is_stmt 1
	.loc 1 4183 19 is_stmt 0
	ldr	r2, [r0, #4]
	.loc 1 4183 26
	ldr	r1, [r2, #20]
	.loc 1 4183 54
	tst	r1, #32768
	beq	.L439
	.loc 1 4186 7 is_stmt 1
	.loc 1 4186 10 is_stmt 0
	cmp	r3, #50
	bhi	.L440
	.loc 1 4198 7 is_stmt 1
	.loc 1 4198 14 is_stmt 0
	adds	r3, r3, #1
.LVL482:
	b	.L431
.L440:
	.loc 1 4189 9 is_stmt 1
	.loc 1 4189 15 is_stmt 0
	ldr	r3, [r0, #156]
.LVL483:
	.loc 1 4189 27
	orr	r3, r3, #1
	str	r3, [r0, #156]
	.loc 1 4192 9 is_stmt 1
	.loc 1 4192 23 is_stmt 0
	movs	r3, #3
	strb	r3, [r0, #152]
	.loc 1 4194 9 is_stmt 1
	.loc 1 4194 16 is_stmt 0
	movs	r0, #1
.LVL484:
	bx	lr
.LVL485:
.L439:
	.loc 1 4202 5 is_stmt 1
	.loc 1 4202 20 is_stmt 0
	ldr	r3, [r2, #20]
.LVL486:
	.loc 1 4202 29
	orr	r3, r3, #32
	str	r3, [r2, #20]
	.loc 1 4205 5 is_stmt 1
	.loc 1 4205 12 is_stmt 0
	movs	r0, #0
.LVL487:
	bx	lr
.LVL488:
.L438:
	.loc 1 4210 5 is_stmt 1
	.loc 1 4210 11 is_stmt 0
	ldr	r3, [r0, #156]
	.loc 1 4210 23
	orr	r3, r3, #2
	str	r3, [r0, #156]
	.loc 1 4212 5 is_stmt 1
	.loc 1 4212 12 is_stmt 0
	movs	r0, #1
.LVL489:
	.loc 1 4214 1
	bx	lr
	.cfi_endproc
.LFE393:
	.size	HAL_FDCAN_TT_EnableRegisterTimeMarkPulse, .-HAL_FDCAN_TT_EnableRegisterTimeMarkPulse
	.section	.text.HAL_FDCAN_TT_DisableRegisterTimeMarkPulse,"ax",%progbits
	.align	1
	.global	HAL_FDCAN_TT_DisableRegisterTimeMarkPulse
	.syntax unified
	.thumb
	.thumb_func
	.type	HAL_FDCAN_TT_DisableRegisterTimeMarkPulse, %function
HAL_FDCAN_TT_DisableRegisterTimeMarkPulse:
.LFB394:
	.loc 1 4223 1 is_stmt 1
	.cfi_startproc
	@ args = 0, pretend = 0, frame = 0
	@ frame_needed = 0, uses_anonymous_args = 0
	@ link register save eliminated.
.LVL490:
	.loc 1 4224 3
	.loc 1 4225 3
	.loc 1 4225 26 is_stmt 0
	ldrb	r3, [r0, #152]	@ zero_extendqisi2
.LVL491:
	.loc 1 4228 3 is_stmt 1
	.loc 1 4230 3
	.loc 1 4230 40 is_stmt 0
	subs	r3, r3, #1
.LVL492:
	uxtb	r3, r3
	.loc 1 4230 6
	cmp	r3, #1
	bhi	.L449
	.loc 1 4224 12
	movs	r3, #0
.LVL493:
.L442:
	.loc 1 4233 54 is_stmt 1
	.loc 1 4233 19 is_stmt 0
	ldr	r2, [r0, #4]
	.loc 1 4233 26
	ldr	r1, [r2, #20]
	.loc 1 4233 54
	tst	r1, #32768
	beq	.L450
	.loc 1 4236 7 is_stmt 1
	.loc 1 4236 10 is_stmt 0
	cmp	r3, #50
	bhi	.L451
	.loc 1 4248 7 is_stmt 1
	.loc 1 4248 14 is_stmt 0
	adds	r3, r3, #1
.LVL494:
	b	.L442
.L451:
	.loc 1 4239 9 is_stmt 1
	.loc 1 4239 15 is_stmt 0
	ldr	r3, [r0, #156]
.LVL495:
	.loc 1 4239 27
	orr	r3, r3, #1
	str	r3, [r0, #156]
	.loc 1 4242 9 is_stmt 1
	.loc 1 4242 23 is_stmt 0
	movs	r3, #3
	strb	r3, [r0, #152]
	.loc 1 4244 9 is_stmt 1
	.loc 1 4244 16 is_stmt 0
	movs	r0, #1
.LVL496:
	bx	lr
.LVL497:
.L450:
	.loc 1 4252 5 is_stmt 1
	.loc 1 4252 20 is_stmt 0
	ldr	r3, [r2, #20]
.LVL498:
	.loc 1 4252 29
	bic	r3, r3, #32
	str	r3, [r2, #20]
	.loc 1 4255 5 is_stmt 1
	.loc 1 4255 12 is_stmt 0
	movs	r0, #0
.LVL499:
	bx	lr
.LVL500:
.L449:
	.loc 1 4260 5 is_stmt 1
	.loc 1 4260 11 is_stmt 0
	ldr	r3, [r0, #156]
	.loc 1 4260 23
	orr	r3, r3, #2
	str	r3, [r0, #156]
	.loc 1 4262 5 is_stmt 1
	.loc 1 4262 12 is_stmt 0
	movs	r0, #1
.LVL501:
	.loc 1 4264 1
	bx	lr
	.cfi_endproc
.LFE394:
	.size	HAL_FDCAN_TT_DisableRegisterTimeMarkPulse, .-HAL_FDCAN_TT_DisableRegisterTimeMarkPulse
	.section	.text.HAL_FDCAN_TT_EnableTriggerTimeMarkPulse,"ax",%progbits
	.align	1
	.global	HAL_FDCAN_TT_EnableTriggerTimeMarkPulse
	.syntax unified
	.thumb
	.thumb_func
	.type	HAL_FDCAN_TT_EnableTriggerTimeMarkPulse, %function
HAL_FDCAN_TT_EnableTriggerTimeMarkPulse:
.LFB395:
	.loc 1 4273 1 is_stmt 1
	.cfi_startproc
	@ args = 0, pretend = 0, frame = 0
	@ frame_needed = 0, uses_anonymous_args = 0
	@ link register save eliminated.
.LVL502:
	.loc 1 4274 3
	.loc 1 4275 3
	.loc 1 4275 26 is_stmt 0
	ldrb	r3, [r0, #152]	@ zero_extendqisi2
.LVL503:
	.loc 1 4278 3 is_stmt 1
	.loc 1 4280 3
	.loc 1 4280 40 is_stmt 0
	subs	r3, r3, #1
.LVL504:
	uxtb	r3, r3
	.loc 1 4280 6
	cmp	r3, #1
	bhi	.L453
	.loc 1 4282 5 is_stmt 1
	.loc 1 4282 16 is_stmt 0
	ldr	r1, [r0, #4]
	.loc 1 4282 23
	ldr	r3, [r1, #8]
	.loc 1 4282 31
	and	r3, r3, #3
	.loc 1 4282 8
	cmp	r3, #3
	beq	.L461
	.loc 1 4274 12
	movs	r3, #0
	b	.L454
.LVL505:
.L456:
	.loc 1 4300 9 is_stmt 1
	.loc 1 4300 16 is_stmt 0
	adds	r3, r3, #1
.LVL506:
.L454:
	.loc 1 4285 56 is_stmt 1
	.loc 1 4285 28 is_stmt 0
	ldr	r2, [r1, #20]
	.loc 1 4285 56
	tst	r2, #32768
	beq	.L462
	.loc 1 4288 9 is_stmt 1
	.loc 1 4288 12 is_stmt 0
	cmp	r3, #50
	bls	.L456
	.loc 1 4291 11 is_stmt 1
	.loc 1 4291 17 is_stmt 0
	ldr	r3, [r0, #156]
.LVL507:
	.loc 1 4291 29
	orr	r3, r3, #1
	str	r3, [r0, #156]
	.loc 1 4294 11 is_stmt 1
	.loc 1 4294 25 is_stmt 0
	movs	r3, #3
	strb	r3, [r0, #152]
	.loc 1 4296 11 is_stmt 1
	.loc 1 4296 18 is_stmt 0
	movs	r0, #1
.LVL508:
	bx	lr
.LVL509:
.L462:
	.loc 1 4304 7 is_stmt 1
	.loc 1 4304 22 is_stmt 0
	ldr	r3, [r1, #20]
.LVL510:
	.loc 1 4304 31
	orr	r3, r3, #256
	str	r3, [r1, #20]
	.loc 1 4307 7 is_stmt 1
	.loc 1 4307 14 is_stmt 0
	movs	r0, #0
.LVL511:
	bx	lr
.LVL512:
.L461:
	.loc 1 4313 7 is_stmt 1
	.loc 1 4313 13 is_stmt 0
	ldr	r3, [r0, #156]
	.loc 1 4313 25
	orr	r3, r3, #16
	str	r3, [r0, #156]
	.loc 1 4315 7 is_stmt 1
	.loc 1 4315 14 is_stmt 0
	movs	r0, #1
.LVL513:
	bx	lr
.LVL514:
.L453:
	.loc 1 4321 5 is_stmt 1
	.loc 1 4321 11 is_stmt 0
	ldr	r3, [r0, #156]
	.loc 1 4321 23
	orr	r3, r3, #2
	str	r3, [r0, #156]
	.loc 1 4323 5 is_stmt 1
	.loc 1 4323 12 is_stmt 0
	movs	r0, #1
.LVL515:
	.loc 1 4325 1
	bx	lr
	.cfi_endproc
.LFE395:
	.size	HAL_FDCAN_TT_EnableTriggerTimeMarkPulse, .-HAL_FDCAN_TT_EnableTriggerTimeMarkPulse
	.section	.text.HAL_FDCAN_TT_DisableTriggerTimeMarkPulse,"ax",%progbits
	.align	1
	.global	HAL_FDCAN_TT_DisableTriggerTimeMarkPulse
	.syntax unified
	.thumb
	.thumb_func
	.type	HAL_FDCAN_TT_DisableTriggerTimeMarkPulse, %function
HAL_FDCAN_TT_DisableTriggerTimeMarkPulse:
.LFB396:
	.loc 1 4334 1 is_stmt 1
	.cfi_startproc
	@ args = 0, pretend = 0, frame = 0
	@ frame_needed = 0, uses_anonymous_args = 0
	@ link register save eliminated.
.LVL516:
	.loc 1 4335 3
	.loc 1 4336 3
	.loc 1 4336 26 is_stmt 0
	ldrb	r3, [r0, #152]	@ zero_extendqisi2
.LVL517:
	.loc 1 4339 3 is_stmt 1
	.loc 1 4341 3
	.loc 1 4341 40 is_stmt 0
	subs	r3, r3, #1
.LVL518:
	uxtb	r3, r3
	.loc 1 4341 6
	cmp	r3, #1
	bhi	.L464
	.loc 1 4343 5 is_stmt 1
	.loc 1 4343 16 is_stmt 0
	ldr	r1, [r0, #4]
	.loc 1 4343 23
	ldr	r3, [r1, #8]
	.loc 1 4343 31
	and	r3, r3, #3
	.loc 1 4343 8
	cmp	r3, #3
	beq	.L472
	.loc 1 4335 12
	movs	r3, #0
	b	.L465
.LVL519:
.L467:
	.loc 1 4361 9 is_stmt 1
	.loc 1 4361 16 is_stmt 0
	adds	r3, r3, #1
.LVL520:
.L465:
	.loc 1 4346 56 is_stmt 1
	.loc 1 4346 28 is_stmt 0
	ldr	r2, [r1, #20]
	.loc 1 4346 56
	tst	r2, #32768
	beq	.L473
	.loc 1 4349 9 is_stmt 1
	.loc 1 4349 12 is_stmt 0
	cmp	r3, #50
	bls	.L467
	.loc 1 4352 11 is_stmt 1
	.loc 1 4352 17 is_stmt 0
	ldr	r3, [r0, #156]
.LVL521:
	.loc 1 4352 29
	orr	r3, r3, #1
	str	r3, [r0, #156]
	.loc 1 4355 11 is_stmt 1
	.loc 1 4355 25 is_stmt 0
	movs	r3, #3
	strb	r3, [r0, #152]
	.loc 1 4357 11 is_stmt 1
	.loc 1 4357 18 is_stmt 0
	movs	r0, #1
.LVL522:
	bx	lr
.LVL523:
.L473:
	.loc 1 4365 7 is_stmt 1
	.loc 1 4365 22 is_stmt 0
	ldr	r3, [r1, #20]
.LVL524:
	.loc 1 4365 31
	bic	r3, r3, #256
	str	r3, [r1, #20]
	.loc 1 4368 7 is_stmt 1
	.loc 1 4368 14 is_stmt 0
	movs	r0, #0
.LVL525:
	bx	lr
.LVL526:
.L472:
	.loc 1 4374 7 is_stmt 1
	.loc 1 4374 13 is_stmt 0
	ldr	r3, [r0, #156]
	.loc 1 4374 25
	orr	r3, r3, #16
	str	r3, [r0, #156]
	.loc 1 4376 7 is_stmt 1
	.loc 1 4376 14 is_stmt 0
	movs	r0, #1
.LVL527:
	bx	lr
.LVL528:
.L464:
	.loc 1 4382 5 is_stmt 1
	.loc 1 4382 11 is_stmt 0
	ldr	r3, [r0, #156]
	.loc 1 4382 23
	orr	r3, r3, #2
	str	r3, [r0, #156]
	.loc 1 4384 5 is_stmt 1
	.loc 1 4384 12 is_stmt 0
	movs	r0, #1
.LVL529:
	.loc 1 4386 1
	bx	lr
	.cfi_endproc
.LFE396:
	.size	HAL_FDCAN_TT_DisableTriggerTimeMarkPulse, .-HAL_FDCAN_TT_DisableTriggerTimeMarkPulse
	.section	.text.HAL_FDCAN_TT_EnableHardwareGapControl,"ax",%progbits
	.align	1
	.global	HAL_FDCAN_TT_EnableHardwareGapControl
	.syntax unified
	.thumb
	.thumb_func
	.type	HAL_FDCAN_TT_EnableHardwareGapControl, %function
HAL_FDCAN_TT_EnableHardwareGapControl:
.LFB397:
	.loc 1 4395 1 is_stmt 1
	.cfi_startproc
	@ args = 0, pretend = 0, frame = 0
	@ frame_needed = 0, uses_anonymous_args = 0
	@ link register save eliminated.
.LVL530:
	.loc 1 4396 3
	.loc 1 4397 3
	.loc 1 4397 26 is_stmt 0
	ldrb	r3, [r0, #152]	@ zero_extendqisi2
.LVL531:
	.loc 1 4400 3 is_stmt 1
	.loc 1 4402 3
	.loc 1 4402 40 is_stmt 0
	subs	r3, r3, #1
.LVL532:
	uxtb	r3, r3
	.loc 1 4402 6
	cmp	r3, #1
	bhi	.L475
	.loc 1 4404 5 is_stmt 1
	.loc 1 4404 16 is_stmt 0
	ldr	r1, [r0, #4]
	.loc 1 4404 23
	ldr	r3, [r1, #8]
	.loc 1 4404 31
	and	r3, r3, #3
	.loc 1 4404 8
	cmp	r3, #3
	beq	.L483
	.loc 1 4396 12
	movs	r3, #0
	b	.L476
.LVL533:
.L478:
	.loc 1 4422 9 is_stmt 1
	.loc 1 4422 16 is_stmt 0
	adds	r3, r3, #1
.LVL534:
.L476:
	.loc 1 4407 56 is_stmt 1
	.loc 1 4407 28 is_stmt 0
	ldr	r2, [r1, #20]
	.loc 1 4407 56
	tst	r2, #32768
	beq	.L484
	.loc 1 4410 9 is_stmt 1
	.loc 1 4410 12 is_stmt 0
	cmp	r3, #50
	bls	.L478
	.loc 1 4413 11 is_stmt 1
	.loc 1 4413 17 is_stmt 0
	ldr	r3, [r0, #156]
.LVL535:
	.loc 1 4413 29
	orr	r3, r3, #1
	str	r3, [r0, #156]
	.loc 1 4416 11 is_stmt 1
	.loc 1 4416 25 is_stmt 0
	movs	r3, #3
	strb	r3, [r0, #152]
	.loc 1 4418 11 is_stmt 1
	.loc 1 4418 18 is_stmt 0
	movs	r0, #1
.LVL536:
	bx	lr
.LVL537:
.L484:
	.loc 1 4426 7 is_stmt 1
	.loc 1 4426 22 is_stmt 0
	ldr	r3, [r1, #20]
.LVL538:
	.loc 1 4426 31
	orr	r3, r3, #512
	str	r3, [r1, #20]
	.loc 1 4429 7 is_stmt 1
	.loc 1 4429 14 is_stmt 0
	movs	r0, #0
.LVL539:
	bx	lr
.LVL540:
.L483:
	.loc 1 4435 7 is_stmt 1
	.loc 1 4435 13 is_stmt 0
	ldr	r3, [r0, #156]
	.loc 1 4435 25
	orr	r3, r3, #16
	str	r3, [r0, #156]
	.loc 1 4437 7 is_stmt 1
	.loc 1 4437 14 is_stmt 0
	movs	r0, #1
.LVL541:
	bx	lr
.LVL542:
.L475:
	.loc 1 4443 5 is_stmt 1
	.loc 1 4443 11 is_stmt 0
	ldr	r3, [r0, #156]
	.loc 1 4443 23
	orr	r3, r3, #2
	str	r3, [r0, #156]
	.loc 1 4445 5 is_stmt 1
	.loc 1 4445 12 is_stmt 0
	movs	r0, #1
.LVL543:
	.loc 1 4447 1
	bx	lr
	.cfi_endproc
.LFE397:
	.size	HAL_FDCAN_TT_EnableHardwareGapControl, .-HAL_FDCAN_TT_EnableHardwareGapControl
	.section	.text.HAL_FDCAN_TT_DisableHardwareGapControl,"ax",%progbits
	.align	1
	.global	HAL_FDCAN_TT_DisableHardwareGapControl
	.syntax unified
	.thumb
	.thumb_func
	.type	HAL_FDCAN_TT_DisableHardwareGapControl, %function
HAL_FDCAN_TT_DisableHardwareGapControl:
.LFB398:
	.loc 1 4456 1 is_stmt 1
	.cfi_startproc
	@ args = 0, pretend = 0, frame = 0
	@ frame_needed = 0, uses_anonymous_args = 0
	@ link register save eliminated.
.LVL544:
	.loc 1 4457 3
	.loc 1 4458 3
	.loc 1 4458 26 is_stmt 0
	ldrb	r3, [r0, #152]	@ zero_extendqisi2
.LVL545:
	.loc 1 4461 3 is_stmt 1
	.loc 1 4463 3
	.loc 1 4463 40 is_stmt 0
	subs	r3, r3, #1
.LVL546:
	uxtb	r3, r3
	.loc 1 4463 6
	cmp	r3, #1
	bhi	.L486
	.loc 1 4465 5 is_stmt 1
	.loc 1 4465 16 is_stmt 0
	ldr	r1, [r0, #4]
	.loc 1 4465 23
	ldr	r3, [r1, #8]
	.loc 1 4465 31
	and	r3, r3, #3
	.loc 1 4465 8
	cmp	r3, #3
	beq	.L494
	.loc 1 4457 12
	movs	r3, #0
	b	.L487
.LVL547:
.L489:
	.loc 1 4483 9 is_stmt 1
	.loc 1 4483 16 is_stmt 0
	adds	r3, r3, #1
.LVL548:
.L487:
	.loc 1 4468 56 is_stmt 1
	.loc 1 4468 28 is_stmt 0
	ldr	r2, [r1, #20]
	.loc 1 4468 56
	tst	r2, #32768
	beq	.L495
	.loc 1 4471 9 is_stmt 1
	.loc 1 4471 12 is_stmt 0
	cmp	r3, #50
	bls	.L489
	.loc 1 4474 11 is_stmt 1
	.loc 1 4474 17 is_stmt 0
	ldr	r3, [r0, #156]
.LVL549:
	.loc 1 4474 29
	orr	r3, r3, #1
	str	r3, [r0, #156]
	.loc 1 4477 11 is_stmt 1
	.loc 1 4477 25 is_stmt 0
	movs	r3, #3
	strb	r3, [r0, #152]
	.loc 1 4479 11 is_stmt 1
	.loc 1 4479 18 is_stmt 0
	movs	r0, #1
.LVL550:
	bx	lr
.LVL551:
.L495:
	.loc 1 4487 7 is_stmt 1
	.loc 1 4487 22 is_stmt 0
	ldr	r3, [r1, #20]
.LVL552:
	.loc 1 4487 31
	bic	r3, r3, #512
	str	r3, [r1, #20]
	.loc 1 4490 7 is_stmt 1
	.loc 1 4490 14 is_stmt 0
	movs	r0, #0
.LVL553:
	bx	lr
.LVL554:
.L494:
	.loc 1 4496 7 is_stmt 1
	.loc 1 4496 13 is_stmt 0
	ldr	r3, [r0, #156]
	.loc 1 4496 25
	orr	r3, r3, #16
	str	r3, [r0, #156]
	.loc 1 4498 7 is_stmt 1
	.loc 1 4498 14 is_stmt 0
	movs	r0, #1
.LVL555:
	bx	lr
.LVL556:
.L486:
	.loc 1 4504 5 is_stmt 1
	.loc 1 4504 11 is_stmt 0
	ldr	r3, [r0, #156]
	.loc 1 4504 23
	orr	r3, r3, #2
	str	r3, [r0, #156]
	.loc 1 4506 5 is_stmt 1
	.loc 1 4506 12 is_stmt 0
	movs	r0, #1
.LVL557:
	.loc 1 4508 1
	bx	lr
	.cfi_endproc
.LFE398:
	.size	HAL_FDCAN_TT_DisableHardwareGapControl, .-HAL_FDCAN_TT_DisableHardwareGapControl
	.section	.text.HAL_FDCAN_TT_EnableTimeMarkGapControl,"ax",%progbits
	.align	1
	.global	HAL_FDCAN_TT_EnableTimeMarkGapControl
	.syntax unified
	.thumb
	.thumb_func
	.type	HAL_FDCAN_TT_EnableTimeMarkGapControl, %function
HAL_FDCAN_TT_EnableTimeMarkGapControl:
.LFB399:
	.loc 1 4519 1 is_stmt 1
	.cfi_startproc
	@ args = 0, pretend = 0, frame = 0
	@ frame_needed = 0, uses_anonymous_args = 0
	@ link register save eliminated.
.LVL558:
	.loc 1 4520 3
	.loc 1 4521 3
	.loc 1 4521 26 is_stmt 0
	ldrb	r3, [r0, #152]	@ zero_extendqisi2
.LVL559:
	.loc 1 4524 3 is_stmt 1
	.loc 1 4526 3
	.loc 1 4526 40 is_stmt 0
	subs	r3, r3, #1
.LVL560:
	uxtb	r3, r3
	.loc 1 4526 6
	cmp	r3, #1
	bhi	.L497
	.loc 1 4528 5 is_stmt 1
	.loc 1 4528 16 is_stmt 0
	ldr	r1, [r0, #4]
	.loc 1 4528 23
	ldr	r3, [r1, #8]
	.loc 1 4528 31
	and	r3, r3, #3
	.loc 1 4528 8
	cmp	r3, #3
	beq	.L505
	.loc 1 4520 12
	movs	r3, #0
	b	.L498
.LVL561:
.L500:
	.loc 1 4546 9 is_stmt 1
	.loc 1 4546 16 is_stmt 0
	adds	r3, r3, #1
.LVL562:
.L498:
	.loc 1 4531 56 is_stmt 1
	.loc 1 4531 28 is_stmt 0
	ldr	r2, [r1, #20]
	.loc 1 4531 56
	tst	r2, #32768
	beq	.L506
	.loc 1 4534 9 is_stmt 1
	.loc 1 4534 12 is_stmt 0
	cmp	r3, #50
	bls	.L500
	.loc 1 4537 11 is_stmt 1
	.loc 1 4537 17 is_stmt 0
	ldr	r3, [r0, #156]
.LVL563:
	.loc 1 4537 29
	orr	r3, r3, #1
	str	r3, [r0, #156]
	.loc 1 4540 11 is_stmt 1
	.loc 1 4540 25 is_stmt 0
	movs	r3, #3
	strb	r3, [r0, #152]
	.loc 1 4542 11 is_stmt 1
	.loc 1 4542 18 is_stmt 0
	movs	r0, #1
.LVL564:
	bx	lr
.LVL565:
.L506:
	.loc 1 4550 7 is_stmt 1
	.loc 1 4550 22 is_stmt 0
	ldr	r3, [r1, #20]
.LVL566:
	.loc 1 4550 31
	orr	r3, r3, #2048
	str	r3, [r1, #20]
	.loc 1 4553 7 is_stmt 1
	.loc 1 4553 14 is_stmt 0
	movs	r0, #0
.LVL567:
	bx	lr
.LVL568:
.L505:
	.loc 1 4559 7 is_stmt 1
	.loc 1 4559 13 is_stmt 0
	ldr	r3, [r0, #156]
	.loc 1 4559 25
	orr	r3, r3, #16
	str	r3, [r0, #156]
	.loc 1 4561 7 is_stmt 1
	.loc 1 4561 14 is_stmt 0
	movs	r0, #1
.LVL569:
	bx	lr
.LVL570:
.L497:
	.loc 1 4567 5 is_stmt 1
	.loc 1 4567 11 is_stmt 0
	ldr	r3, [r0, #156]
	.loc 1 4567 23
	orr	r3, r3, #2
	str	r3, [r0, #156]
	.loc 1 4569 5 is_stmt 1
	.loc 1 4569 12 is_stmt 0
	movs	r0, #1
.LVL571:
	.loc 1 4571 1
	bx	lr
	.cfi_endproc
.LFE399:
	.size	HAL_FDCAN_TT_EnableTimeMarkGapControl, .-HAL_FDCAN_TT_EnableTimeMarkGapControl
	.section	.text.HAL_FDCAN_TT_DisableTimeMarkGapControl,"ax",%progbits
	.align	1
	.global	HAL_FDCAN_TT_DisableTimeMarkGapControl
	.syntax unified
	.thumb
	.thumb_func
	.type	HAL_FDCAN_TT_DisableTimeMarkGapControl, %function
HAL_FDCAN_TT_DisableTimeMarkGapControl:
.LFB400:
	.loc 1 4580 1 is_stmt 1
	.cfi_startproc
	@ args = 0, pretend = 0, frame = 0
	@ frame_needed = 0, uses_anonymous_args = 0
	@ link register save eliminated.
.LVL572:
	.loc 1 4581 3
	.loc 1 4582 3
	.loc 1 4582 26 is_stmt 0
	ldrb	r3, [r0, #152]	@ zero_extendqisi2
.LVL573:
	.loc 1 4585 3 is_stmt 1
	.loc 1 4587 3
	.loc 1 4587 40 is_stmt 0
	subs	r3, r3, #1
.LVL574:
	uxtb	r3, r3
	.loc 1 4587 6
	cmp	r3, #1
	bhi	.L508
	.loc 1 4589 5 is_stmt 1
	.loc 1 4589 16 is_stmt 0
	ldr	r1, [r0, #4]
	.loc 1 4589 23
	ldr	r3, [r1, #8]
	.loc 1 4589 31
	and	r3, r3, #3
	.loc 1 4589 8
	cmp	r3, #3
	beq	.L516
	.loc 1 4581 12
	movs	r3, #0
	b	.L509
.LVL575:
.L511:
	.loc 1 4607 9 is_stmt 1
	.loc 1 4607 16 is_stmt 0
	adds	r3, r3, #1
.LVL576:
.L509:
	.loc 1 4592 56 is_stmt 1
	.loc 1 4592 28 is_stmt 0
	ldr	r2, [r1, #20]
	.loc 1 4592 56
	tst	r2, #32768
	beq	.L517
	.loc 1 4595 9 is_stmt 1
	.loc 1 4595 12 is_stmt 0
	cmp	r3, #50
	bls	.L511
	.loc 1 4598 11 is_stmt 1
	.loc 1 4598 17 is_stmt 0
	ldr	r3, [r0, #156]
.LVL577:
	.loc 1 4598 29
	orr	r3, r3, #1
	str	r3, [r0, #156]
	.loc 1 4601 11 is_stmt 1
	.loc 1 4601 25 is_stmt 0
	movs	r3, #3
	strb	r3, [r0, #152]
	.loc 1 4603 11 is_stmt 1
	.loc 1 4603 18 is_stmt 0
	movs	r0, #1
.LVL578:
	bx	lr
.LVL579:
.L517:
	.loc 1 4611 7 is_stmt 1
	.loc 1 4611 22 is_stmt 0
	ldr	r3, [r1, #20]
.LVL580:
	.loc 1 4611 31
	bic	r3, r3, #2048
	str	r3, [r1, #20]
	.loc 1 4614 7 is_stmt 1
	.loc 1 4614 14 is_stmt 0
	movs	r0, #0
.LVL581:
	bx	lr
.LVL582:
.L516:
	.loc 1 4620 7 is_stmt 1
	.loc 1 4620 13 is_stmt 0
	ldr	r3, [r0, #156]
	.loc 1 4620 25
	orr	r3, r3, #16
	str	r3, [r0, #156]
	.loc 1 4622 7 is_stmt 1
	.loc 1 4622 14 is_stmt 0
	movs	r0, #1
.LVL583:
	bx	lr
.LVL584:
.L508:
	.loc 1 4628 5 is_stmt 1
	.loc 1 4628 11 is_stmt 0
	ldr	r3, [r0, #156]
	.loc 1 4628 23
	orr	r3, r3, #2
	str	r3, [r0, #156]
	.loc 1 4630 5 is_stmt 1
	.loc 1 4630 12 is_stmt 0
	movs	r0, #1
.LVL585:
	.loc 1 4632 1
	bx	lr
	.cfi_endproc
.LFE400:
	.size	HAL_FDCAN_TT_DisableTimeMarkGapControl, .-HAL_FDCAN_TT_DisableTimeMarkGapControl
	.section	.text.HAL_FDCAN_TT_SetNextIsGap,"ax",%progbits
	.align	1
	.global	HAL_FDCAN_TT_SetNextIsGap
	.syntax unified
	.thumb
	.thumb_func
	.type	HAL_FDCAN_TT_SetNextIsGap, %function
HAL_FDCAN_TT_SetNextIsGap:
.LFB401:
	.loc 1 4641 1 is_stmt 1
	.cfi_startproc
	@ args = 0, pretend = 0, frame = 0
	@ frame_needed = 0, uses_anonymous_args = 0
	@ link register save eliminated.
.LVL586:
	.loc 1 4642 3
	.loc 1 4643 3
	.loc 1 4643 26 is_stmt 0
	ldrb	r3, [r0, #152]	@ zero_extendqisi2
.LVL587:
	.loc 1 4646 3 is_stmt 1
	.loc 1 4648 3
	.loc 1 4648 40 is_stmt 0
	subs	r3, r3, #1
.LVL588:
	uxtb	r3, r3
	.loc 1 4648 6
	cmp	r3, #1
	bhi	.L519
	.loc 1 4651 5 is_stmt 1
	.loc 1 4651 16 is_stmt 0
	ldr	r1, [r0, #4]
	.loc 1 4651 23
	ldr	r3, [r1, #8]
	.loc 1 4651 8
	tst	r3, #8
	beq	.L528
	.loc 1 4659 5 is_stmt 1
	.loc 1 4659 23 is_stmt 0
	ldr	r3, [r1, #8]
	.loc 1 4659 31
	and	r3, r3, #3
	.loc 1 4659 8
	cmp	r3, #3
	beq	.L529
	.loc 1 4642 12
	movs	r3, #0
.LVL589:
.L522:
	.loc 1 4662 56 is_stmt 1
	.loc 1 4662 28 is_stmt 0
	ldr	r2, [r1, #20]
	.loc 1 4662 56
	tst	r2, #32768
	beq	.L530
	.loc 1 4665 9 is_stmt 1
	.loc 1 4665 12 is_stmt 0
	cmp	r3, #50
	bhi	.L531
	.loc 1 4677 9 is_stmt 1
	.loc 1 4677 16 is_stmt 0
	adds	r3, r3, #1
.LVL590:
	b	.L522
.LVL591:
.L528:
	.loc 1 4654 7 is_stmt 1
	.loc 1 4654 13 is_stmt 0
	ldr	r3, [r0, #156]
	.loc 1 4654 25
	orr	r3, r3, #16
	str	r3, [r0, #156]
	.loc 1 4656 7 is_stmt 1
	.loc 1 4656 14 is_stmt 0
	movs	r0, #1
.LVL592:
	bx	lr
.LVL593:
.L531:
	.loc 1 4668 11 is_stmt 1
	.loc 1 4668 17 is_stmt 0
	ldr	r3, [r0, #156]
.LVL594:
	.loc 1 4668 29
	orr	r3, r3, #1
	str	r3, [r0, #156]
	.loc 1 4671 11 is_stmt 1
	.loc 1 4671 25 is_stmt 0
	movs	r3, #3
	strb	r3, [r0, #152]
	.loc 1 4673 11 is_stmt 1
	.loc 1 4673 18 is_stmt 0
	movs	r0, #1
.LVL595:
	bx	lr
.LVL596:
.L530:
	.loc 1 4681 7 is_stmt 1
	.loc 1 4681 22 is_stmt 0
	ldr	r3, [r1, #20]
.LVL597:
	.loc 1 4681 31
	orr	r3, r3, #4096
	str	r3, [r1, #20]
	.loc 1 4684 7 is_stmt 1
	.loc 1 4684 14 is_stmt 0
	movs	r0, #0
.LVL598:
	bx	lr
.LVL599:
.L529:
	.loc 1 4690 7 is_stmt 1
	.loc 1 4690 13 is_stmt 0
	ldr	r3, [r0, #156]
	.loc 1 4690 25
	orr	r3, r3, #16
	str	r3, [r0, #156]
	.loc 1 4692 7 is_stmt 1
	.loc 1 4692 14 is_stmt 0
	movs	r0, #1
.LVL600:
	bx	lr
.LVL601:
.L519:
	.loc 1 4698 5 is_stmt 1
	.loc 1 4698 11 is_stmt 0
	ldr	r3, [r0, #156]
	.loc 1 4698 23
	orr	r3, r3, #2
	str	r3, [r0, #156]
	.loc 1 4700 5 is_stmt 1
	.loc 1 4700 12 is_stmt 0
	movs	r0, #1
.LVL602:
	.loc 1 4702 1
	bx	lr
	.cfi_endproc
.LFE401:
	.size	HAL_FDCAN_TT_SetNextIsGap, .-HAL_FDCAN_TT_SetNextIsGap
	.section	.text.HAL_FDCAN_TT_SetEndOfGap,"ax",%progbits
	.align	1
	.global	HAL_FDCAN_TT_SetEndOfGap
	.syntax unified
	.thumb
	.thumb_func
	.type	HAL_FDCAN_TT_SetEndOfGap, %function
HAL_FDCAN_TT_SetEndOfGap:
.LFB402:
	.loc 1 4711 1 is_stmt 1
	.cfi_startproc
	@ args = 0, pretend = 0, frame = 0
	@ frame_needed = 0, uses_anonymous_args = 0
	@ link register save eliminated.
.LVL603:
	.loc 1 4712 3
	.loc 1 4713 3
	.loc 1 4713 26 is_stmt 0
	ldrb	r3, [r0, #152]	@ zero_extendqisi2
.LVL604:
	.loc 1 4716 3 is_stmt 1
	.loc 1 4718 3
	.loc 1 4718 40 is_stmt 0
	subs	r3, r3, #1
.LVL605:
	uxtb	r3, r3
	.loc 1 4718 6
	cmp	r3, #1
	bhi	.L533
	.loc 1 4721 5 is_stmt 1
	.loc 1 4721 16 is_stmt 0
	ldr	r1, [r0, #4]
	.loc 1 4721 23
	ldr	r3, [r1, #8]
	.loc 1 4721 8
	tst	r3, #8
	beq	.L542
	.loc 1 4729 5 is_stmt 1
	.loc 1 4729 23 is_stmt 0
	ldr	r3, [r1, #8]
	.loc 1 4729 31
	and	r3, r3, #3
	.loc 1 4729 8
	cmp	r3, #3
	beq	.L543
	.loc 1 4712 12
	movs	r3, #0
.LVL606:
.L536:
	.loc 1 4732 56 is_stmt 1
	.loc 1 4732 28 is_stmt 0
	ldr	r2, [r1, #20]
	.loc 1 4732 56
	tst	r2, #32768
	beq	.L544
	.loc 1 4735 9 is_stmt 1
	.loc 1 4735 12 is_stmt 0
	cmp	r3, #50
	bhi	.L545
	.loc 1 4747 9 is_stmt 1
	.loc 1 4747 16 is_stmt 0
	adds	r3, r3, #1
.LVL607:
	b	.L536
.LVL608:
.L542:
	.loc 1 4724 7 is_stmt 1
	.loc 1 4724 13 is_stmt 0
	ldr	r3, [r0, #156]
	.loc 1 4724 25
	orr	r3, r3, #16
	str	r3, [r0, #156]
	.loc 1 4726 7 is_stmt 1
	.loc 1 4726 14 is_stmt 0
	movs	r0, #1
.LVL609:
	bx	lr
.LVL610:
.L545:
	.loc 1 4738 11 is_stmt 1
	.loc 1 4738 17 is_stmt 0
	ldr	r3, [r0, #156]
.LVL611:
	.loc 1 4738 29
	orr	r3, r3, #1
	str	r3, [r0, #156]
	.loc 1 4741 11 is_stmt 1
	.loc 1 4741 25 is_stmt 0
	movs	r3, #3
	strb	r3, [r0, #152]
	.loc 1 4743 11 is_stmt 1
	.loc 1 4743 18 is_stmt 0
	movs	r0, #1
.LVL612:
	bx	lr
.LVL613:
.L544:
	.loc 1 4751 7 is_stmt 1
	.loc 1 4751 22 is_stmt 0
	ldr	r3, [r1, #20]
.LVL614:
	.loc 1 4751 31
	orr	r3, r3, #1024
	str	r3, [r1, #20]
	.loc 1 4754 7 is_stmt 1
	.loc 1 4754 14 is_stmt 0
	movs	r0, #0
.LVL615:
	bx	lr
.LVL616:
.L543:
	.loc 1 4760 7 is_stmt 1
	.loc 1 4760 13 is_stmt 0
	ldr	r3, [r0, #156]
	.loc 1 4760 25
	orr	r3, r3, #16
	str	r3, [r0, #156]
	.loc 1 4762 7 is_stmt 1
	.loc 1 4762 14 is_stmt 0
	movs	r0, #1
.LVL617:
	bx	lr
.LVL618:
.L533:
	.loc 1 4768 5 is_stmt 1
	.loc 1 4768 11 is_stmt 0
	ldr	r3, [r0, #156]
	.loc 1 4768 23
	orr	r3, r3, #2
	str	r3, [r0, #156]
	.loc 1 4770 5 is_stmt 1
	.loc 1 4770 12 is_stmt 0
	movs	r0, #1
.LVL619:
	.loc 1 4772 1
	bx	lr
	.cfi_endproc
.LFE402:
	.size	HAL_FDCAN_TT_SetEndOfGap, .-HAL_FDCAN_TT_SetEndOfGap
	.section	.text.HAL_FDCAN_TT_ConfigExternalSyncPhase,"ax",%progbits
	.align	1
	.global	HAL_FDCAN_TT_ConfigExternalSyncPhase
	.syntax unified
	.thumb
	.thumb_func
	.type	HAL_FDCAN_TT_ConfigExternalSyncPhase, %function
HAL_FDCAN_TT_ConfigExternalSyncPhase:
.LFB403:
	.loc 1 4785 1 is_stmt 1
	.cfi_startproc
	@ args = 0, pretend = 0, frame = 0
	@ frame_needed = 0, uses_anonymous_args = 0
	@ link register save eliminated.
.LVL620:
	.loc 1 4786 3
	.loc 1 4786 26 is_stmt 0
	ldrb	r3, [r0, #152]	@ zero_extendqisi2
.LVL621:
	.loc 1 4789 3 is_stmt 1
	.loc 1 4790 3
	.loc 1 4792 3
	.loc 1 4792 40 is_stmt 0
	subs	r3, r3, #1
.LVL622:
	uxtb	r3, r3
	.loc 1 4792 6
	cmp	r3, #1
	bhi	.L547
	.loc 1 4795 5 is_stmt 1
	.loc 1 4795 16 is_stmt 0
	ldr	r3, [r0, #4]
	.loc 1 4795 23
	ldr	r2, [r3, #20]
	.loc 1 4795 8
	tst	r2, #8192
	beq	.L548
	.loc 1 4798 7 is_stmt 1
	.loc 1 4798 13 is_stmt 0
	ldr	r3, [r0, #156]
	.loc 1 4798 25
	orr	r3, r3, #64
	str	r3, [r0, #156]
	.loc 1 4800 7 is_stmt 1
	.loc 1 4800 14 is_stmt 0
	movs	r0, #1
.LVL623:
	bx	lr
.LVL624:
.L548:
	.loc 1 4804 5 is_stmt 1
	.loc 1 4804 52 is_stmt 0
	ldr	r2, [r3, #24]
	.loc 1 4804 63
	uxth	r2, r2
	.loc 1 4804 91
	orr	r2, r2, r1, lsl #16
	.loc 1 4804 31
	str	r2, [r3, #24]
	.loc 1 4807 5 is_stmt 1
	.loc 1 4807 12 is_stmt 0
	movs	r0, #0
.LVL625:
	bx	lr
.LVL626:
.L547:
	.loc 1 4812 5 is_stmt 1
	.loc 1 4812 11 is_stmt 0
	ldr	r3, [r0, #156]
	.loc 1 4812 23
	orr	r3, r3, #2
	str	r3, [r0, #156]
	.loc 1 4814 5 is_stmt 1
	.loc 1 4814 12 is_stmt 0
	movs	r0, #1
.LVL627:
	.loc 1 4816 1
	bx	lr
	.cfi_endproc
.LFE403:
	.size	HAL_FDCAN_TT_ConfigExternalSyncPhase, .-HAL_FDCAN_TT_ConfigExternalSyncPhase
	.section	.text.HAL_FDCAN_TT_EnableExternalSynchronization,"ax",%progbits
	.align	1
	.global	HAL_FDCAN_TT_EnableExternalSynchronization
	.syntax unified
	.thumb
	.thumb_func
	.type	HAL_FDCAN_TT_EnableExternalSynchronization, %function
HAL_FDCAN_TT_EnableExternalSynchronization:
.LFB404:
	.loc 1 4826 1 is_stmt 1
	.cfi_startproc
	@ args = 0, pretend = 0, frame = 0
	@ frame_needed = 0, uses_anonymous_args = 0
	@ link register save eliminated.
.LVL628:
	.loc 1 4827 3
	.loc 1 4828 3
	.loc 1 4828 26 is_stmt 0
	ldrb	r3, [r0, #152]	@ zero_extendqisi2
.LVL629:
	.loc 1 4831 3 is_stmt 1
	.loc 1 4833 3
	.loc 1 4833 40 is_stmt 0
	subs	r3, r3, #1
.LVL630:
	uxtb	r3, r3
	.loc 1 4833 6
	cmp	r3, #1
	bhi	.L558
	.loc 1 4827 12
	movs	r3, #0
.LVL631:
.L551:
	.loc 1 4836 54 is_stmt 1
	.loc 1 4836 19 is_stmt 0
	ldr	r2, [r0, #4]
	.loc 1 4836 26
	ldr	r1, [r2, #20]
	.loc 1 4836 54
	tst	r1, #32768
	beq	.L559
	.loc 1 4839 7 is_stmt 1
	.loc 1 4839 10 is_stmt 0
	cmp	r3, #50
	bhi	.L560
	.loc 1 4851 7 is_stmt 1
	.loc 1 4851 14 is_stmt 0
	adds	r3, r3, #1
.LVL632:
	b	.L551
.L560:
	.loc 1 4842 9 is_stmt 1
	.loc 1 4842 15 is_stmt 0
	ldr	r3, [r0, #156]
.LVL633:
	.loc 1 4842 27
	orr	r3, r3, #1
	str	r3, [r0, #156]
	.loc 1 4845 9 is_stmt 1
	.loc 1 4845 23 is_stmt 0
	movs	r3, #3
	strb	r3, [r0, #152]
	.loc 1 4847 9 is_stmt 1
	.loc 1 4847 16 is_stmt 0
	movs	r0, #1
.LVL634:
	bx	lr
.LVL635:
.L559:
	.loc 1 4855 5 is_stmt 1
	.loc 1 4855 20 is_stmt 0
	ldr	r3, [r2, #20]
.LVL636:
	.loc 1 4855 29
	orr	r3, r3, #8192
	str	r3, [r2, #20]
	.loc 1 4858 5 is_stmt 1
	.loc 1 4858 12 is_stmt 0
	movs	r0, #0
.LVL637:
	bx	lr
.LVL638:
.L558:
	.loc 1 4863 5 is_stmt 1
	.loc 1 4863 11 is_stmt 0
	ldr	r3, [r0, #156]
	.loc 1 4863 23
	orr	r3, r3, #2
	str	r3, [r0, #156]
	.loc 1 4865 5 is_stmt 1
	.loc 1 4865 12 is_stmt 0
	movs	r0, #1
.LVL639:
	.loc 1 4867 1
	bx	lr
	.cfi_endproc
.LFE404:
	.size	HAL_FDCAN_TT_EnableExternalSynchronization, .-HAL_FDCAN_TT_EnableExternalSynchronization
	.section	.text.HAL_FDCAN_TT_DisableExternalSynchronization,"ax",%progbits
	.align	1
	.global	HAL_FDCAN_TT_DisableExternalSynchronization
	.syntax unified
	.thumb
	.thumb_func
	.type	HAL_FDCAN_TT_DisableExternalSynchronization, %function
HAL_FDCAN_TT_DisableExternalSynchronization:
.LFB405:
	.loc 1 4876 1 is_stmt 1
	.cfi_startproc
	@ args = 0, pretend = 0, frame = 0
	@ frame_needed = 0, uses_anonymous_args = 0
	@ link register save eliminated.
.LVL640:
	.loc 1 4877 3
	.loc 1 4878 3
	.loc 1 4878 26 is_stmt 0
	ldrb	r3, [r0, #152]	@ zero_extendqisi2
.LVL641:
	.loc 1 4881 3 is_stmt 1
	.loc 1 4883 3
	.loc 1 4883 40 is_stmt 0
	subs	r3, r3, #1
.LVL642:
	uxtb	r3, r3
	.loc 1 4883 6
	cmp	r3, #1
	bhi	.L569
	.loc 1 4877 12
	movs	r3, #0
.LVL643:
.L562:
	.loc 1 4886 54 is_stmt 1
	.loc 1 4886 19 is_stmt 0
	ldr	r2, [r0, #4]
	.loc 1 4886 26
	ldr	r1, [r2, #20]
	.loc 1 4886 54
	tst	r1, #32768
	beq	.L570
	.loc 1 4889 7 is_stmt 1
	.loc 1 4889 10 is_stmt 0
	cmp	r3, #50
	bhi	.L571
	.loc 1 4901 7 is_stmt 1
	.loc 1 4901 14 is_stmt 0
	adds	r3, r3, #1
.LVL644:
	b	.L562
.L571:
	.loc 1 4892 9 is_stmt 1
	.loc 1 4892 15 is_stmt 0
	ldr	r3, [r0, #156]
.LVL645:
	.loc 1 4892 27
	orr	r3, r3, #1
	str	r3, [r0, #156]
	.loc 1 4895 9 is_stmt 1
	.loc 1 4895 23 is_stmt 0
	movs	r3, #3
	strb	r3, [r0, #152]
	.loc 1 4897 9 is_stmt 1
	.loc 1 4897 16 is_stmt 0
	movs	r0, #1
.LVL646:
	bx	lr
.LVL647:
.L570:
	.loc 1 4905 5 is_stmt 1
	.loc 1 4905 20 is_stmt 0
	ldr	r3, [r2, #20]
.LVL648:
	.loc 1 4905 29
	bic	r3, r3, #8192
	str	r3, [r2, #20]
	.loc 1 4908 5 is_stmt 1
	.loc 1 4908 12 is_stmt 0
	movs	r0, #0
.LVL649:
	bx	lr
.LVL650:
.L569:
	.loc 1 4913 5 is_stmt 1
	.loc 1 4913 11 is_stmt 0
	ldr	r3, [r0, #156]
	.loc 1 4913 23
	orr	r3, r3, #2
	str	r3, [r0, #156]
	.loc 1 4915 5 is_stmt 1
	.loc 1 4915 12 is_stmt 0
	movs	r0, #1
.LVL651:
	.loc 1 4917 1
	bx	lr
	.cfi_endproc
.LFE405:
	.size	HAL_FDCAN_TT_DisableExternalSynchronization, .-HAL_FDCAN_TT_DisableExternalSynchronization
	.section	.text.HAL_FDCAN_TT_GetOperationStatus,"ax",%progbits
	.align	1
	.global	HAL_FDCAN_TT_GetOperationStatus
	.syntax unified
	.thumb
	.thumb_func
	.type	HAL_FDCAN_TT_GetOperationStatus, %function
HAL_FDCAN_TT_GetOperationStatus:
.LFB406:
	.loc 1 4928 1 is_stmt 1
	.cfi_startproc
	@ args = 0, pretend = 0, frame = 0
	@ frame_needed = 0, uses_anonymous_args = 0
	@ link register save eliminated.
.LVL652:
	.loc 1 4929 3
	.loc 1 4932 3
	.loc 1 4935 3
	.loc 1 4935 25 is_stmt 0
	ldr	r3, [r0, #4]
	.loc 1 4935 15
	ldr	r3, [r3, #44]
.LVL653:
	.loc 1 4938 3 is_stmt 1
	.loc 1 4938 41 is_stmt 0
	and	r2, r3, #3
	.loc 1 4938 26
	str	r2, [r1]
	.loc 1 4939 3 is_stmt 1
	.loc 1 4939 42 is_stmt 0
	and	r2, r3, #12
	.loc 1 4939 27
	str	r2, [r1, #4]
	.loc 1 4940 3 is_stmt 1
	.loc 1 4940 40 is_stmt 0
	and	r2, r3, #48
	.loc 1 4940 25
	str	r2, [r1, #8]
	.loc 1 4941 3 is_stmt 1
	.loc 1 4941 63 is_stmt 0
	ubfx	r2, r3, #6, #1
	.loc 1 4941 28
	str	r2, [r1, #12]
	.loc 1 4942 3 is_stmt 1
	.loc 1 4942 63 is_stmt 0
	ubfx	r2, r3, #7, #1
	.loc 1 4942 28
	str	r2, [r1, #16]
	.loc 1 4943 3 is_stmt 1
	.loc 1 4943 65 is_stmt 0
	ubfx	r2, r3, #8, #8
	.loc 1 4943 29
	str	r2, [r1, #20]
	.loc 1 4944 3 is_stmt 1
	.loc 1 4944 68 is_stmt 0
	ubfx	r2, r3, #22, #1
	.loc 1 4944 32
	str	r2, [r1, #24]
	.loc 1 4945 3 is_stmt 1
	.loc 1 4945 63 is_stmt 0
	ubfx	r2, r3, #23, #1
	.loc 1 4945 27
	str	r2, [r1, #28]
	.loc 1 4946 3 is_stmt 1
	.loc 1 4946 66 is_stmt 0
	ubfx	r2, r3, #24, #3
	.loc 1 4946 30
	str	r2, [r1, #32]
	.loc 1 4947 3 is_stmt 1
	.loc 1 4947 62 is_stmt 0
	ubfx	r2, r3, #27, #1
	.loc 1 4947 26
	str	r2, [r1, #36]
	.loc 1 4948 3 is_stmt 1
	.loc 1 4948 62 is_stmt 0
	ubfx	r2, r3, #28, #1
	.loc 1 4948 26
	str	r2, [r1, #40]
	.loc 1 4949 3 is_stmt 1
	.loc 1 4949 61 is_stmt 0
	ubfx	r2, r3, #29, #1
	.loc 1 4949 25
	str	r2, [r1, #44]
	.loc 1 4950 3 is_stmt 1
	.loc 1 4950 62 is_stmt 0
	ubfx	r2, r3, #30, #1
	.loc 1 4950 26
	str	r2, [r1, #48]
	.loc 1 4951 3 is_stmt 1
	.loc 1 4951 61 is_stmt 0
	lsrs	r3, r3, #31
.LVL654:
	.loc 1 4951 25
	str	r3, [r1, #52]
	.loc 1 4954 3 is_stmt 1
	.loc 1 4955 1 is_stmt 0
	movs	r0, #0
.LVL655:
	bx	lr
	.cfi_endproc
.LFE406:
	.size	HAL_FDCAN_TT_GetOperationStatus, .-HAL_FDCAN_TT_GetOperationStatus
	.section	.text.HAL_FDCAN_ConfigInterruptLines,"ax",%progbits
	.align	1
	.global	HAL_FDCAN_ConfigInterruptLines
	.syntax unified
	.thumb
	.thumb_func
	.type	HAL_FDCAN_ConfigInterruptLines, %function
HAL_FDCAN_ConfigInterruptLines:
.LFB407:
	.loc 1 4992 1 is_stmt 1
	.cfi_startproc
	@ args = 0, pretend = 0, frame = 0
	@ frame_needed = 0, uses_anonymous_args = 0
	@ link register save eliminated.
.LVL656:
	.loc 1 4993 3
	.loc 1 4993 26 is_stmt 0
	ldrb	r3, [r0, #152]	@ zero_extendqisi2
.LVL657:
	.loc 1 4996 3 is_stmt 1
	.loc 1 4997 3
	.loc 1 4999 3
	.loc 1 4999 40 is_stmt 0
	subs	r3, r3, #1
.LVL658:
	uxtb	r3, r3
	.loc 1 4999 6
	cmp	r3, #1
	bls	.L578
	.loc 1 5017 5 is_stmt 1
	.loc 1 5017 11 is_stmt 0
	ldr	r3, [r0, #156]
	.loc 1 5017 23
	orr	r3, r3, #2
	str	r3, [r0, #156]
	.loc 1 5019 5 is_stmt 1
	.loc 1 5019 12 is_stmt 0
	movs	r0, #1
.LVL659:
	.loc 1 5021 1
	bx	lr
.LVL660:
.L578:
	.loc 1 5002 5 is_stmt 1
	.loc 1 5002 8 is_stmt 0
	cmp	r2, #1
	beq	.L579
	.loc 1 5008 7 is_stmt 1
	.loc 1 5008 15 is_stmt 0
	ldr	r2, [r0]
.LVL661:
	.loc 1 5008 25
	ldr	r3, [r2, #88]
	.loc 1 5008 32
	orrs	r3, r3, r1
	str	r3, [r2, #88]
.L576:
	.loc 1 5012 5 is_stmt 1
	.loc 1 5012 12 is_stmt 0
	movs	r0, #0
.LVL662:
	bx	lr
.LVL663:
.L579:
	.loc 1 5004 7 is_stmt 1
	.loc 1 5004 15 is_stmt 0
	ldr	r2, [r0]
.LVL664:
	.loc 1 5004 25
	ldr	r3, [r2, #88]
	.loc 1 5004 32
	bic	r3, r3, r1
	str	r3, [r2, #88]
	b	.L576
	.cfi_endproc
.LFE407:
	.size	HAL_FDCAN_ConfigInterruptLines, .-HAL_FDCAN_ConfigInterruptLines
	.section	.text.HAL_FDCAN_TT_ConfigInterruptLines,"ax",%progbits
	.align	1
	.global	HAL_FDCAN_TT_ConfigInterruptLines
	.syntax unified
	.thumb
	.thumb_func
	.type	HAL_FDCAN_TT_ConfigInterruptLines, %function
HAL_FDCAN_TT_ConfigInterruptLines:
.LFB408:
	.loc 1 5035 1 is_stmt 1
	.cfi_startproc
	@ args = 0, pretend = 0, frame = 0
	@ frame_needed = 0, uses_anonymous_args = 0
	@ link register save eliminated.
.LVL665:
	.loc 1 5036 3
	.loc 1 5036 26 is_stmt 0
	ldrb	r3, [r0, #152]	@ zero_extendqisi2
.LVL666:
	.loc 1 5039 3 is_stmt 1
	.loc 1 5040 3
	.loc 1 5041 3
	.loc 1 5043 3
	.loc 1 5043 40 is_stmt 0
	subs	r3, r3, #1
.LVL667:
	uxtb	r3, r3
	.loc 1 5043 6
	cmp	r3, #1
	bls	.L585
	.loc 1 5061 5 is_stmt 1
	.loc 1 5061 11 is_stmt 0
	ldr	r3, [r0, #156]
	.loc 1 5061 23
	orr	r3, r3, #2
	str	r3, [r0, #156]
	.loc 1 5063 5 is_stmt 1
	.loc 1 5063 12 is_stmt 0
	movs	r0, #1
.LVL668:
	.loc 1 5065 1
	bx	lr
.LVL669:
.L585:
	.loc 1 5046 5 is_stmt 1
	.loc 1 5046 8 is_stmt 0
	cmp	r2, #1
	beq	.L586
	.loc 1 5052 7 is_stmt 1
	.loc 1 5052 15 is_stmt 0
	ldr	r2, [r0, #4]
.LVL670:
	.loc 1 5052 22
	ldr	r3, [r2, #40]
	.loc 1 5052 31
	orrs	r3, r3, r1
	str	r3, [r2, #40]
.L583:
	.loc 1 5056 5 is_stmt 1
	.loc 1 5056 12 is_stmt 0
	movs	r0, #0
.LVL671:
	bx	lr
.LVL672:
.L586:
	.loc 1 5048 7 is_stmt 1
	.loc 1 5048 15 is_stmt 0
	ldr	r2, [r0, #4]
.LVL673:
	.loc 1 5048 22
	ldr	r3, [r2, #40]
	.loc 1 5048 31
	bic	r3, r3, r1
	str	r3, [r2, #40]
	b	.L583
	.cfi_endproc
.LFE408:
	.size	HAL_FDCAN_TT_ConfigInterruptLines, .-HAL_FDCAN_TT_ConfigInterruptLines
	.section	.text.HAL_FDCAN_ActivateNotification,"ax",%progbits
	.align	1
	.global	HAL_FDCAN_ActivateNotification
	.syntax unified
	.thumb
	.thumb_func
	.type	HAL_FDCAN_ActivateNotification, %function
HAL_FDCAN_ActivateNotification:
.LFB409:
	.loc 1 5082 1 is_stmt 1
	.cfi_startproc
	@ args = 0, pretend = 0, frame = 0
	@ frame_needed = 0, uses_anonymous_args = 0
	@ link register save eliminated.
.LVL674:
	.loc 1 5083 3
	.loc 1 5083 26 is_stmt 0
	ldrb	r3, [r0, #152]	@ zero_extendqisi2
.LVL675:
	.loc 1 5086 3 is_stmt 1
	.loc 1 5088 3
	.loc 1 5088 40 is_stmt 0
	subs	r3, r3, #1
.LVL676:
	uxtb	r3, r3
	.loc 1 5088 6
	cmp	r3, #1
	bls	.L599
	.loc 1 5130 5 is_stmt 1
	.loc 1 5130 11 is_stmt 0
	ldr	r3, [r0, #156]
	.loc 1 5130 23
	orr	r3, r3, #2
	str	r3, [r0, #156]
	.loc 1 5132 5 is_stmt 1
	.loc 1 5132 12 is_stmt 0
	movs	r0, #1
.LVL677:
	.loc 1 5134 1
	bx	lr
.LVL678:
.L599:
	.loc 1 5082 1
	push	{r4}
	.cfi_def_cfa_offset 4
	.cfi_offset 4, -4
	.loc 1 5091 5 is_stmt 1
	.loc 1 5091 28 is_stmt 0
	ldr	r3, [r0]
	.loc 1 5091 38
	ldr	r4, [r3, #88]
	.loc 1 5091 8
	tst	r4, r1
	bne	.L589
	.loc 1 5094 7 is_stmt 1
	.loc 1 5094 25 is_stmt 0
	ldr	r4, [r3, #92]
	.loc 1 5094 32
	orr	r4, r4, #1
	str	r4, [r3, #92]
.L590:
	.loc 1 5107 5 is_stmt 1
	.loc 1 5107 8 is_stmt 0
	tst	r1, #512
	beq	.L592
	.loc 1 5111 7 is_stmt 1
	.loc 1 5111 15 is_stmt 0
	ldr	r4, [r0]
	.loc 1 5111 25
	ldr	r3, [r4, #224]
	.loc 1 5111 35
	orrs	r3, r3, r2
	str	r3, [r4, #224]
.L592:
	.loc 1 5114 5 is_stmt 1
	.loc 1 5114 8 is_stmt 0
	tst	r1, #1024
	beq	.L593
	.loc 1 5118 7 is_stmt 1
	.loc 1 5118 15 is_stmt 0
	ldr	r4, [r0]
	.loc 1 5118 25
	ldr	r3, [r4, #228]
	.loc 1 5118 35
	orrs	r3, r3, r2
	str	r3, [r4, #228]
.L593:
	.loc 1 5122 5 is_stmt 1
	.loc 1 5122 9
	.loc 1 5122 17 is_stmt 0
	ldr	r0, [r0]
.LVL679:
	.loc 1 5122 27
	ldr	r3, [r0, #84]
	.loc 1 5122 48
	ldr	r2, .L601
.LVL680:
	ands	r2, r2, r1
	.loc 1 5122 32
	orrs	r3, r3, r2
	str	r3, [r0, #84]
	.loc 1 5122 76 is_stmt 1
	.loc 1 5122 144 is_stmt 0
	ldr	r2, .L601+4
	ldr	r3, [r2, #20]
	.loc 1 5122 149
	orr	r3, r3, r1, lsr #30
	str	r3, [r2, #20]
	.loc 1 5122 7 is_stmt 1
	.loc 1 5125 5
	.loc 1 5125 12 is_stmt 0
	movs	r0, #0
	.loc 1 5134 1
	ldr	r4, [sp], #4
	.cfi_remember_state
	.cfi_restore 4
	.cfi_def_cfa_offset 0
	bx	lr
.LVL681:
.L589:
	.cfi_restore_state
	.loc 1 5096 10 is_stmt 1
	.loc 1 5096 43 is_stmt 0
	ldr	r4, [r3, #88]
	.loc 1 5096 13
	bics	r4, r1, r4
	beq	.L600
	.loc 1 5104 7 is_stmt 1
	.loc 1 5104 29 is_stmt 0
	movs	r4, #3
	str	r4, [r3, #92]
	b	.L590
.L600:
	.loc 1 5099 7 is_stmt 1
	.loc 1 5099 25 is_stmt 0
	ldr	r4, [r3, #92]
	.loc 1 5099 32
	orr	r4, r4, #2
	str	r4, [r3, #92]
	b	.L590
.L602:
	.align	2
.L601:
	.word	1070596095
	.word	1073784832
	.cfi_endproc
.LFE409:
	.size	HAL_FDCAN_ActivateNotification, .-HAL_FDCAN_ActivateNotification
	.section	.text.HAL_FDCAN_DeactivateNotification,"ax",%progbits
	.align	1
	.global	HAL_FDCAN_DeactivateNotification
	.syntax unified
	.thumb
	.thumb_func
	.type	HAL_FDCAN_DeactivateNotification, %function
HAL_FDCAN_DeactivateNotification:
.LFB410:
	.loc 1 5145 1 is_stmt 1
	.cfi_startproc
	@ args = 0, pretend = 0, frame = 0
	@ frame_needed = 0, uses_anonymous_args = 0
	@ link register save eliminated.
.LVL682:
	.loc 1 5146 3
	.loc 1 5147 3
	.loc 1 5147 26 is_stmt 0
	ldrb	r3, [r0, #152]	@ zero_extendqisi2
.LVL683:
	.loc 1 5150 3 is_stmt 1
	.loc 1 5152 3
	.loc 1 5152 40 is_stmt 0
	subs	r3, r3, #1
.LVL684:
	uxtb	r3, r3
	.loc 1 5152 6
	cmp	r3, #1
	bls	.L614
	.loc 1 5189 5 is_stmt 1
	.loc 1 5189 11 is_stmt 0
	ldr	r3, [r0, #156]
	.loc 1 5189 23
	orr	r3, r3, #2
	str	r3, [r0, #156]
	.loc 1 5191 5 is_stmt 1
	.loc 1 5191 12 is_stmt 0
	movs	r0, #1
.LVL685:
	.loc 1 5193 1
	bx	lr
.LVL686:
.L614:
	.loc 1 5145 1
	push	{r4}
	.cfi_def_cfa_offset 4
	.cfi_offset 4, -4
	.loc 1 5155 5 is_stmt 1
	.loc 1 5155 9
	.loc 1 5155 18 is_stmt 0
	ldr	r4, [r0]
	.loc 1 5155 28
	ldr	r3, [r4, #84]
	.loc 1 5155 53
	ldr	r2, .L616
	ands	r2, r2, r1
	.loc 1 5155 34
	bic	r3, r3, r2
	str	r3, [r4, #84]
	.loc 1 5155 81 is_stmt 1
	.loc 1 5155 149 is_stmt 0
	ldr	r2, .L616+4
	ldr	r3, [r2, #20]
	.loc 1 5155 154
	bic	r3, r3, r1, lsr #30
	str	r3, [r2, #20]
	.loc 1 5155 7 is_stmt 1
	.loc 1 5157 5
	.loc 1 5157 8 is_stmt 0
	tst	r1, #512
	beq	.L605
	.loc 1 5160 7 is_stmt 1
	.loc 1 5160 15 is_stmt 0
	ldr	r3, [r0]
	.loc 1 5160 35
	movs	r2, #0
	str	r2, [r3, #224]
.L605:
	.loc 1 5163 5 is_stmt 1
	.loc 1 5163 8 is_stmt 0
	tst	r1, #1024
	beq	.L606
	.loc 1 5166 7 is_stmt 1
	.loc 1 5166 15 is_stmt 0
	ldr	r3, [r0]
	.loc 1 5166 35
	movs	r2, #0
	str	r2, [r3, #228]
.L606:
	.loc 1 5169 5 is_stmt 1
	.loc 1 5169 29 is_stmt 0
	ldr	r3, [r0]
	.loc 1 5169 21
	ldr	r2, [r3, #88]
.LVL687:
	.loc 1 5171 5 is_stmt 1
	.loc 1 5171 26 is_stmt 0
	ldr	r1, [r3, #84]
.LVL688:
	.loc 1 5171 8
	bics	r1, r1, r2
	beq	.L615
.L607:
	.loc 1 5177 5 is_stmt 1
	.loc 1 5177 16 is_stmt 0
	ldr	r3, [r0]
	.loc 1 5177 26
	ldr	r1, [r3, #84]
	.loc 1 5177 8
	tst	r1, r2
	bne	.L608
	.loc 1 5180 7 is_stmt 1
	.loc 1 5180 25 is_stmt 0
	ldr	r2, [r3, #92]
.LVL689:
	.loc 1 5180 32
	bic	r2, r2, #2
	str	r2, [r3, #92]
.L608:
	.loc 1 5184 5 is_stmt 1
	.loc 1 5184 12 is_stmt 0
	movs	r0, #0
.LVL690:
	.loc 1 5193 1
	ldr	r4, [sp], #4
	.cfi_remember_state
	.cfi_restore 4
	.cfi_def_cfa_offset 0
	bx	lr
.LVL691:
.L615:
	.cfi_restore_state
	.loc 1 5174 7 is_stmt 1
	.loc 1 5174 25 is_stmt 0
	ldr	r1, [r3, #92]
	.loc 1 5174 32
	bic	r1, r1, #1
	str	r1, [r3, #92]
	b	.L607
.L617:
	.align	2
.L616:
	.word	1070596095
	.word	1073784832
	.cfi_endproc
.LFE410:
	.size	HAL_FDCAN_DeactivateNotification, .-HAL_FDCAN_DeactivateNotification
	.section	.text.HAL_FDCAN_TT_ActivateNotification,"ax",%progbits
	.align	1
	.global	HAL_FDCAN_TT_ActivateNotification
	.syntax unified
	.thumb
	.thumb_func
	.type	HAL_FDCAN_TT_ActivateNotification, %function
HAL_FDCAN_TT_ActivateNotification:
.LFB411:
	.loc 1 5204 1 is_stmt 1
	.cfi_startproc
	@ args = 0, pretend = 0, frame = 0
	@ frame_needed = 0, uses_anonymous_args = 0
	@ link register save eliminated.
.LVL692:
	.loc 1 5205 3
	.loc 1 5205 26 is_stmt 0
	ldrb	r3, [r0, #152]	@ zero_extendqisi2
.LVL693:
	.loc 1 5208 3 is_stmt 1
	.loc 1 5209 3
	.loc 1 5211 3
	.loc 1 5211 40 is_stmt 0
	subs	r3, r3, #1
.LVL694:
	uxtb	r3, r3
	.loc 1 5211 6
	cmp	r3, #1
	bls	.L624
	.loc 1 5239 5 is_stmt 1
	.loc 1 5239 11 is_stmt 0
	ldr	r3, [r0, #156]
	.loc 1 5239 23
	orr	r3, r3, #2
	str	r3, [r0, #156]
	.loc 1 5241 5 is_stmt 1
	.loc 1 5241 12 is_stmt 0
	movs	r0, #1
.LVL695:
	.loc 1 5243 1
	bx	lr
.LVL696:
.L624:
	.loc 1 5214 5 is_stmt 1
	.loc 1 5214 30 is_stmt 0
	ldr	r3, [r0, #4]
	.loc 1 5214 37
	ldr	r2, [r3, #40]
	.loc 1 5214 8
	tst	r2, r1
	bne	.L620
	.loc 1 5217 7 is_stmt 1
	.loc 1 5217 15 is_stmt 0
	ldr	r2, [r0]
	.loc 1 5217 25
	ldr	r3, [r2, #92]
	.loc 1 5217 32
	orr	r3, r3, #1
	str	r3, [r2, #92]
.L621:
	.loc 1 5231 5 is_stmt 1
	.loc 1 5231 15 is_stmt 0
	ldr	r2, [r0, #4]
	.loc 1 5231 22
	ldr	r3, [r2, #36]
	.loc 1 5231 30
	orrs	r3, r3, r1
	str	r3, [r2, #36]
	.loc 1 5234 5 is_stmt 1
	.loc 1 5234 12 is_stmt 0
	movs	r0, #0
.LVL697:
	bx	lr
.LVL698:
.L620:
	.loc 1 5219 10 is_stmt 1
	.loc 1 5219 42 is_stmt 0
	ldr	r3, [r3, #40]
	.loc 1 5219 13
	bics	r3, r1, r3
	beq	.L625
	.loc 1 5227 7 is_stmt 1
	.loc 1 5227 13 is_stmt 0
	ldr	r3, [r0]
	.loc 1 5227 29
	movs	r2, #3
	str	r2, [r3, #92]
	b	.L621
.L625:
	.loc 1 5222 7 is_stmt 1
	.loc 1 5222 15 is_stmt 0
	ldr	r2, [r0]
	.loc 1 5222 25
	ldr	r3, [r2, #92]
	.loc 1 5222 32
	orr	r3, r3, #2
	str	r3, [r2, #92]
	b	.L621
	.cfi_endproc
.LFE411:
	.size	HAL_FDCAN_TT_ActivateNotification, .-HAL_FDCAN_TT_ActivateNotification
	.section	.text.HAL_FDCAN_TT_DeactivateNotification,"ax",%progbits
	.align	1
	.global	HAL_FDCAN_TT_DeactivateNotification
	.syntax unified
	.thumb
	.thumb_func
	.type	HAL_FDCAN_TT_DeactivateNotification, %function
HAL_FDCAN_TT_DeactivateNotification:
.LFB412:
	.loc 1 5254 1 is_stmt 1
	.cfi_startproc
	@ args = 0, pretend = 0, frame = 0
	@ frame_needed = 0, uses_anonymous_args = 0
	@ link register save eliminated.
.LVL699:
	.loc 1 5255 3
	.loc 1 5256 3
	.loc 1 5256 26 is_stmt 0
	ldrb	r3, [r0, #152]	@ zero_extendqisi2
.LVL700:
	.loc 1 5259 3 is_stmt 1
	.loc 1 5260 3
	.loc 1 5262 3
	.loc 1 5262 40 is_stmt 0
	subs	r3, r3, #1
.LVL701:
	uxtb	r3, r3
	.loc 1 5262 6
	cmp	r3, #1
	bls	.L631
	.loc 1 5287 5 is_stmt 1
	.loc 1 5287 11 is_stmt 0
	ldr	r3, [r0, #156]
	.loc 1 5287 23
	orr	r3, r3, #2
	str	r3, [r0, #156]
	.loc 1 5289 5 is_stmt 1
	.loc 1 5289 12 is_stmt 0
	movs	r0, #1
.LVL702:
	.loc 1 5291 1
	bx	lr
.LVL703:
.L631:
	.loc 1 5265 5 is_stmt 1
	.loc 1 5265 15 is_stmt 0
	ldr	r2, [r0, #4]
	.loc 1 5265 22
	ldr	r3, [r2, #36]
	.loc 1 5265 30
	bic	r3, r3, r1
	str	r3, [r2, #36]
	.loc 1 5267 5 is_stmt 1
	.loc 1 5267 29 is_stmt 0
	ldr	r2, [r0, #4]
	.loc 1 5267 21
	ldr	r3, [r2, #40]
.LVL704:
	.loc 1 5269 5 is_stmt 1
	.loc 1 5269 23 is_stmt 0
	ldr	r2, [r2, #36]
	.loc 1 5269 8
	bics	r2, r2, r3
	beq	.L632
.LVL705:
.L628:
	.loc 1 5275 5 is_stmt 1
	.loc 1 5275 16 is_stmt 0
	ldr	r2, [r0, #4]
	.loc 1 5275 23
	ldr	r2, [r2, #36]
	.loc 1 5275 8
	tst	r2, r3
	bne	.L629
	.loc 1 5278 7 is_stmt 1
	.loc 1 5278 15 is_stmt 0
	ldr	r2, [r0]
	.loc 1 5278 25
	ldr	r3, [r2, #92]
.LVL706:
	.loc 1 5278 32
	bic	r3, r3, #2
	str	r3, [r2, #92]
.L629:
	.loc 1 5282 5 is_stmt 1
	.loc 1 5282 12 is_stmt 0
	movs	r0, #0
.LVL707:
	bx	lr
.LVL708:
.L632:
	.loc 1 5272 7 is_stmt 1
	.loc 1 5272 15 is_stmt 0
	ldr	r1, [r0]
.LVL709:
	.loc 1 5272 25
	ldr	r2, [r1, #92]
	.loc 1 5272 32
	bic	r2, r2, #1
	str	r2, [r1, #92]
	b	.L628
	.cfi_endproc
.LFE412:
	.size	HAL_FDCAN_TT_DeactivateNotification, .-HAL_FDCAN_TT_DeactivateNotification
	.section	.text.HAL_FDCAN_ClockCalibrationCallback,"ax",%progbits
	.align	1
	.weak	HAL_FDCAN_ClockCalibrationCallback
	.syntax unified
	.thumb
	.thumb_func
	.type	HAL_FDCAN_ClockCalibrationCallback, %function
HAL_FDCAN_ClockCalibrationCallback:
.LFB414:
	.loc 1 5730 1 is_stmt 1
	.cfi_startproc
	@ args = 0, pretend = 0, frame = 0
	@ frame_needed = 0, uses_anonymous_args = 0
	@ link register save eliminated.
.LVL710:
	.loc 1 5732 3
	.loc 1 5733 3
	.loc 1 5738 1 is_stmt 0
	bx	lr
	.cfi_endproc
.LFE414:
	.size	HAL_FDCAN_ClockCalibrationCallback, .-HAL_FDCAN_ClockCalibrationCallback
	.section	.text.HAL_FDCAN_TxEventFifoCallback,"ax",%progbits
	.align	1
	.weak	HAL_FDCAN_TxEventFifoCallback
	.syntax unified
	.thumb
	.thumb_func
	.type	HAL_FDCAN_TxEventFifoCallback, %function
HAL_FDCAN_TxEventFifoCallback:
.LFB415:
	.loc 1 5749 1 is_stmt 1
	.cfi_startproc
	@ args = 0, pretend = 0, frame = 0
	@ frame_needed = 0, uses_anonymous_args = 0
	@ link register save eliminated.
.LVL711:
	.loc 1 5751 3
	.loc 1 5752 3
	.loc 1 5757 1 is_stmt 0
	bx	lr
	.cfi_endproc
.LFE415:
	.size	HAL_FDCAN_TxEventFifoCallback, .-HAL_FDCAN_TxEventFifoCallback
	.section	.text.HAL_FDCAN_RxFifo0Callback,"ax",%progbits
	.align	1
	.weak	HAL_FDCAN_RxFifo0Callback
	.syntax unified
	.thumb
	.thumb_func
	.type	HAL_FDCAN_RxFifo0Callback, %function
HAL_FDCAN_RxFifo0Callback:
.LFB416:
	.loc 1 5768 1 is_stmt 1
	.cfi_startproc
	@ args = 0, pretend = 0, frame = 0
	@ frame_needed = 0, uses_anonymous_args = 0
	@ link register save eliminated.
.LVL712:
	.loc 1 5770 3
	.loc 1 5771 3
	.loc 1 5776 1 is_stmt 0
	bx	lr
	.cfi_endproc
.LFE416:
	.size	HAL_FDCAN_RxFifo0Callback, .-HAL_FDCAN_RxFifo0Callback
	.section	.text.HAL_FDCAN_RxFifo1Callback,"ax",%progbits
	.align	1
	.weak	HAL_FDCAN_RxFifo1Callback
	.syntax unified
	.thumb
	.thumb_func
	.type	HAL_FDCAN_RxFifo1Callback, %function
HAL_FDCAN_RxFifo1Callback:
.LFB417:
	.loc 1 5787 1 is_stmt 1
	.cfi_startproc
	@ args = 0, pretend = 0, frame = 0
	@ frame_needed = 0, uses_anonymous_args = 0
	@ link register save eliminated.
.LVL713:
	.loc 1 5789 3
	.loc 1 5790 3
	.loc 1 5795 1 is_stmt 0
	bx	lr
	.cfi_endproc
.LFE417:
	.size	HAL_FDCAN_RxFifo1Callback, .-HAL_FDCAN_RxFifo1Callback
	.section	.text.HAL_FDCAN_TxFifoEmptyCallback,"ax",%progbits
	.align	1
	.weak	HAL_FDCAN_TxFifoEmptyCallback
	.syntax unified
	.thumb
	.thumb_func
	.type	HAL_FDCAN_TxFifoEmptyCallback, %function
HAL_FDCAN_TxFifoEmptyCallback:
.LFB418:
	.loc 1 5804 1 is_stmt 1
	.cfi_startproc
	@ args = 0, pretend = 0, frame = 0
	@ frame_needed = 0, uses_anonymous_args = 0
	@ link register save eliminated.
.LVL714:
	.loc 1 5806 3
	.loc 1 5811 1 is_stmt 0
	bx	lr
	.cfi_endproc
.LFE418:
	.size	HAL_FDCAN_TxFifoEmptyCallback, .-HAL_FDCAN_TxFifoEmptyCallback
	.section	.text.HAL_FDCAN_TxBufferCompleteCallback,"ax",%progbits
	.align	1
	.weak	HAL_FDCAN_TxBufferCompleteCallback
	.syntax unified
	.thumb
	.thumb_func
	.type	HAL_FDCAN_TxBufferCompleteCallback, %function
HAL_FDCAN_TxBufferCompleteCallback:
.LFB419:
	.loc 1 5822 1 is_stmt 1
	.cfi_startproc
	@ args = 0, pretend = 0, frame = 0
	@ frame_needed = 0, uses_anonymous_args = 0
	@ link register save eliminated.
.LVL715:
	.loc 1 5824 3
	.loc 1 5825 3
	.loc 1 5830 1 is_stmt 0
	bx	lr
	.cfi_endproc
.LFE419:
	.size	HAL_FDCAN_TxBufferCompleteCallback, .-HAL_FDCAN_TxBufferCompleteCallback
	.section	.text.HAL_FDCAN_TxBufferAbortCallback,"ax",%progbits
	.align	1
	.weak	HAL_FDCAN_TxBufferAbortCallback
	.syntax unified
	.thumb
	.thumb_func
	.type	HAL_FDCAN_TxBufferAbortCallback, %function
HAL_FDCAN_TxBufferAbortCallback:
.LFB420:
	.loc 1 5841 1 is_stmt 1
	.cfi_startproc
	@ args = 0, pretend = 0, frame = 0
	@ frame_needed = 0, uses_anonymous_args = 0
	@ link register save eliminated.
.LVL716:
	.loc 1 5843 3
	.loc 1 5844 3
	.loc 1 5849 1 is_stmt 0
	bx	lr
	.cfi_endproc
.LFE420:
	.size	HAL_FDCAN_TxBufferAbortCallback, .-HAL_FDCAN_TxBufferAbortCallback
	.section	.text.HAL_FDCAN_RxBufferNewMessageCallback,"ax",%progbits
	.align	1
	.weak	HAL_FDCAN_RxBufferNewMessageCallback
	.syntax unified
	.thumb
	.thumb_func
	.type	HAL_FDCAN_RxBufferNewMessageCallback, %function
HAL_FDCAN_RxBufferNewMessageCallback:
.LFB421:
	.loc 1 5858 1 is_stmt 1
	.cfi_startproc
	@ args = 0, pretend = 0, frame = 0
	@ frame_needed = 0, uses_anonymous_args = 0
	@ link register save eliminated.
.LVL717:
	.loc 1 5860 3
	.loc 1 5865 1 is_stmt 0
	bx	lr
	.cfi_endproc
.LFE421:
	.size	HAL_FDCAN_RxBufferNewMessageCallback, .-HAL_FDCAN_RxBufferNewMessageCallback
	.section	.text.HAL_FDCAN_TimestampWraparoundCallback,"ax",%progbits
	.align	1
	.weak	HAL_FDCAN_TimestampWraparoundCallback
	.syntax unified
	.thumb
	.thumb_func
	.type	HAL_FDCAN_TimestampWraparoundCallback, %function
HAL_FDCAN_TimestampWraparoundCallback:
.LFB422:
	.loc 1 5874 1 is_stmt 1
	.cfi_startproc
	@ args = 0, pretend = 0, frame = 0
	@ frame_needed = 0, uses_anonymous_args = 0
	@ link register save eliminated.
.LVL718:
	.loc 1 5876 3
	.loc 1 5881 1 is_stmt 0
	bx	lr
	.cfi_endproc
.LFE422:
	.size	HAL_FDCAN_TimestampWraparoundCallback, .-HAL_FDCAN_TimestampWraparoundCallback
	.section	.text.HAL_FDCAN_TimeoutOccurredCallback,"ax",%progbits
	.align	1
	.weak	HAL_FDCAN_TimeoutOccurredCallback
	.syntax unified
	.thumb
	.thumb_func
	.type	HAL_FDCAN_TimeoutOccurredCallback, %function
HAL_FDCAN_TimeoutOccurredCallback:
.LFB423:
	.loc 1 5890 1 is_stmt 1
	.cfi_startproc
	@ args = 0, pretend = 0, frame = 0
	@ frame_needed = 0, uses_anonymous_args = 0
	@ link register save eliminated.
.LVL719:
	.loc 1 5892 3
	.loc 1 5897 1 is_stmt 0
	bx	lr
	.cfi_endproc
.LFE423:
	.size	HAL_FDCAN_TimeoutOccurredCallback, .-HAL_FDCAN_TimeoutOccurredCallback
	.section	.text.HAL_FDCAN_HighPriorityMessageCallback,"ax",%progbits
	.align	1
	.weak	HAL_FDCAN_HighPriorityMessageCallback
	.syntax unified
	.thumb
	.thumb_func
	.type	HAL_FDCAN_HighPriorityMessageCallback, %function
HAL_FDCAN_HighPriorityMessageCallback:
.LFB424:
	.loc 1 5906 1 is_stmt 1
	.cfi_startproc
	@ args = 0, pretend = 0, frame = 0
	@ frame_needed = 0, uses_anonymous_args = 0
	@ link register save eliminated.
.LVL720:
	.loc 1 5908 3
	.loc 1 5913 1 is_stmt 0
	bx	lr
	.cfi_endproc
.LFE424:
	.size	HAL_FDCAN_HighPriorityMessageCallback, .-HAL_FDCAN_HighPriorityMessageCallback
	.section	.text.HAL_FDCAN_ErrorCallback,"ax",%progbits
	.align	1
	.weak	HAL_FDCAN_ErrorCallback
	.syntax unified
	.thumb
	.thumb_func
	.type	HAL_FDCAN_ErrorCallback, %function
HAL_FDCAN_ErrorCallback:
.LFB425:
	.loc 1 5922 1 is_stmt 1
	.cfi_startproc
	@ args = 0, pretend = 0, frame = 0
	@ frame_needed = 0, uses_anonymous_args = 0
	@ link register save eliminated.
.LVL721:
	.loc 1 5924 3
	.loc 1 5929 1 is_stmt 0
	bx	lr
	.cfi_endproc
.LFE425:
	.size	HAL_FDCAN_ErrorCallback, .-HAL_FDCAN_ErrorCallback
	.section	.text.HAL_FDCAN_ErrorStatusCallback,"ax",%progbits
	.align	1
	.weak	HAL_FDCAN_ErrorStatusCallback
	.syntax unified
	.thumb
	.thumb_func
	.type	HAL_FDCAN_ErrorStatusCallback, %function
HAL_FDCAN_ErrorStatusCallback:
.LFB426:
	.loc 1 5940 1 is_stmt 1
	.cfi_startproc
	@ args = 0, pretend = 0, frame = 0
	@ frame_needed = 0, uses_anonymous_args = 0
	@ link register save eliminated.
.LVL722:
	.loc 1 5942 3
	.loc 1 5943 3
	.loc 1 5948 1 is_stmt 0
	bx	lr
	.cfi_endproc
.LFE426:
	.size	HAL_FDCAN_ErrorStatusCallback, .-HAL_FDCAN_ErrorStatusCallback
	.section	.text.HAL_FDCAN_TT_ScheduleSyncCallback,"ax",%progbits
	.align	1
	.weak	HAL_FDCAN_TT_ScheduleSyncCallback
	.syntax unified
	.thumb
	.thumb_func
	.type	HAL_FDCAN_TT_ScheduleSyncCallback, %function
HAL_FDCAN_TT_ScheduleSyncCallback:
.LFB427:
	.loc 1 5959 1 is_stmt 1
	.cfi_startproc
	@ args = 0, pretend = 0, frame = 0
	@ frame_needed = 0, uses_anonymous_args = 0
	@ link register save eliminated.
.LVL723:
	.loc 1 5961 3
	.loc 1 5962 3
	.loc 1 5967 1 is_stmt 0
	bx	lr
	.cfi_endproc
.LFE427:
	.size	HAL_FDCAN_TT_ScheduleSyncCallback, .-HAL_FDCAN_TT_ScheduleSyncCallback
	.section	.text.HAL_FDCAN_TT_TimeMarkCallback,"ax",%progbits
	.align	1
	.weak	HAL_FDCAN_TT_TimeMarkCallback
	.syntax unified
	.thumb
	.thumb_func
	.type	HAL_FDCAN_TT_TimeMarkCallback, %function
HAL_FDCAN_TT_TimeMarkCallback:
.LFB428:
	.loc 1 5978 1 is_stmt 1
	.cfi_startproc
	@ args = 0, pretend = 0, frame = 0
	@ frame_needed = 0, uses_anonymous_args = 0
	@ link register save eliminated.
.LVL724:
	.loc 1 5980 3
	.loc 1 5981 3
	.loc 1 5986 1 is_stmt 0
	bx	lr
	.cfi_endproc
.LFE428:
	.size	HAL_FDCAN_TT_TimeMarkCallback, .-HAL_FDCAN_TT_TimeMarkCallback
	.section	.text.HAL_FDCAN_TT_StopWatchCallback,"ax",%progbits
	.align	1
	.weak	HAL_FDCAN_TT_StopWatchCallback
	.syntax unified
	.thumb
	.thumb_func
	.type	HAL_FDCAN_TT_StopWatchCallback, %function
HAL_FDCAN_TT_StopWatchCallback:
.LFB429:
	.loc 1 6000 1 is_stmt 1
	.cfi_startproc
	@ args = 0, pretend = 0, frame = 0
	@ frame_needed = 0, uses_anonymous_args = 0
	@ link register save eliminated.
.LVL725:
	.loc 1 6002 3
	.loc 1 6003 3
	.loc 1 6004 3
	.loc 1 6009 1 is_stmt 0
	bx	lr
	.cfi_endproc
.LFE429:
	.size	HAL_FDCAN_TT_StopWatchCallback, .-HAL_FDCAN_TT_StopWatchCallback
	.section	.text.HAL_FDCAN_TT_GlobalTimeCallback,"ax",%progbits
	.align	1
	.weak	HAL_FDCAN_TT_GlobalTimeCallback
	.syntax unified
	.thumb
	.thumb_func
	.type	HAL_FDCAN_TT_GlobalTimeCallback, %function
HAL_FDCAN_TT_GlobalTimeCallback:
.LFB430:
	.loc 1 6020 1 is_stmt 1
	.cfi_startproc
	@ args = 0, pretend = 0, frame = 0
	@ frame_needed = 0, uses_anonymous_args = 0
	@ link register save eliminated.
.LVL726:
	.loc 1 6022 3
	.loc 1 6023 3
	.loc 1 6028 1 is_stmt 0
	bx	lr
	.cfi_endproc
.LFE430:
	.size	HAL_FDCAN_TT_GlobalTimeCallback, .-HAL_FDCAN_TT_GlobalTimeCallback
	.section	.text.HAL_FDCAN_IRQHandler,"ax",%progbits
	.align	1
	.global	HAL_FDCAN_IRQHandler
	.syntax unified
	.thumb
	.thumb_func
	.type	HAL_FDCAN_IRQHandler, %function
HAL_FDCAN_IRQHandler:
.LFB413:
	.loc 1 5300 1 is_stmt 1
	.cfi_startproc
	@ args = 0, pretend = 0, frame = 8
	@ frame_needed = 0, uses_anonymous_args = 0
.LVL727:
	push	{r4, r5, r6, r7, r8, r9, r10, fp, lr}
	.cfi_def_cfa_offset 36
	.cfi_offset 4, -36
	.cfi_offset 5, -32
	.cfi_offset 6, -28
	.cfi_offset 7, -24
	.cfi_offset 8, -20
	.cfi_offset 9, -16
	.cfi_offset 10, -12
	.cfi_offset 11, -8
	.cfi_offset 14, -4
	sub	sp, sp, #12
	.cfi_def_cfa_offset 48
	mov	r4, r0
	.loc 1 5301 3
	.loc 1 5302 3
	.loc 1 5303 3
	.loc 1 5304 3
	.loc 1 5305 3
	.loc 1 5306 3
	.loc 1 5307 3
	.loc 1 5308 3
	.loc 1 5309 3
	.loc 1 5310 3
	.loc 1 5311 3
	.loc 1 5312 3
	.loc 1 5313 3
	.loc 1 5314 3
	.loc 1 5315 3
	.loc 1 5316 3
	.loc 1 5317 3
	.loc 1 5318 3
	.loc 1 5319 3
	.loc 1 5321 3
	.loc 1 5321 92 is_stmt 0
	ldr	r3, .L691
	ldr	r2, [r3, #16]
.LVL728:
	.loc 1 5322 3 is_stmt 1
	.loc 1 5322 93 is_stmt 0
	ldr	r3, [r3, #20]
	.loc 1 5322 98
	lsls	r3, r3, #30
	.loc 1 5322 21
	and	r3, r3, r2, lsl #30
	str	r3, [sp, #4]
.LVL729:
	.loc 1 5323 3 is_stmt 1
	.loc 1 5323 26 is_stmt 0
	ldr	r3, [r0]
.LVL730:
	.loc 1 5323 36
	ldr	r2, [r3, #80]
	.loc 1 5323 18
	and	r10, r2, #61440
.LVL731:
	.loc 1 5324 3 is_stmt 1
	.loc 1 5324 37 is_stmt 0
	ldr	r2, [r3, #84]
	.loc 1 5324 18
	and	r10, r10, r2
.LVL732:
	.loc 1 5325 3 is_stmt 1
	.loc 1 5325 32 is_stmt 0
	ldr	r2, [r3, #80]
	.loc 1 5325 14
	and	r9, r2, #15
.LVL733:
	.loc 1 5326 3 is_stmt 1
	.loc 1 5326 33 is_stmt 0
	ldr	r2, [r3, #84]
	.loc 1 5326 14
	and	r9, r9, r2
.LVL734:
	.loc 1 5327 3 is_stmt 1
	.loc 1 5327 32 is_stmt 0
	ldr	r2, [r3, #80]
	.loc 1 5327 14
	and	r8, r2, #240
.LVL735:
	.loc 1 5328 3 is_stmt 1
	.loc 1 5328 33 is_stmt 0
	ldr	r2, [r3, #84]
	.loc 1 5328 14
	and	r8, r8, r2
.LVL736:
	.loc 1 5329 3 is_stmt 1
	.loc 1 5329 28 is_stmt 0
	ldr	r6, [r3, #80]
	.loc 1 5329 10
	and	r6, r6, #1010827264
.LVL737:
	.loc 1 5330 3 is_stmt 1
	.loc 1 5330 29 is_stmt 0
	ldr	r2, [r3, #84]
	.loc 1 5330 10
	ands	r6, r6, r2
.LVL738:
	.loc 1 5331 3 is_stmt 1
	.loc 1 5331 36 is_stmt 0
	ldr	r7, [r3, #80]
	.loc 1 5331 18
	and	r7, r7, #58720256
.LVL739:
	.loc 1 5332 3 is_stmt 1
	.loc 1 5332 37 is_stmt 0
	ldr	r2, [r3, #84]
	.loc 1 5332 18
	ands	r7, r7, r2
.LVL740:
	.loc 1 5333 3 is_stmt 1
	.loc 1 5333 14 is_stmt 0
	ldr	r5, [r3, #84]
.LVL741:
	.loc 1 5334 3 is_stmt 1
	.loc 1 5334 12 is_stmt 0
	ldr	fp, [r3, #80]
.LVL742:
	.loc 1 5337 3 is_stmt 1
	.loc 1 5337 6 is_stmt 0
	tst	r5, #256
	beq	.L651
	.loc 1 5339 5 is_stmt 1
	.loc 1 5339 8 is_stmt 0
	tst	fp, #256
	bne	.L673
.LVL743:
.L651:
	.loc 1 5355 3 is_stmt 1
	.loc 1 5355 6 is_stmt 0
	tst	r5, #1024
	beq	.L652
	.loc 1 5357 5 is_stmt 1
	.loc 1 5357 8 is_stmt 0
	tst	fp, #1024
	bne	.L674
.L652:
	.loc 1 5377 3 is_stmt 1
	.loc 1 5377 6 is_stmt 0
	ldr	r3, [sp, #4]
	cmp	r3, #0
	bne	.L675
.L653:
	.loc 1 5392 3 is_stmt 1
	.loc 1 5392 6 is_stmt 0
	cmp	r10, #0
	bne	.L676
.L654:
	.loc 1 5407 3 is_stmt 1
	.loc 1 5407 6 is_stmt 0
	cmp	r9, #0
	bne	.L677
.L655:
	.loc 1 5422 3 is_stmt 1
	.loc 1 5422 6 is_stmt 0
	cmp	r8, #0
	bne	.L678
.L656:
	.loc 1 5437 3 is_stmt 1
	.loc 1 5437 6 is_stmt 0
	tst	r5, #2048
	beq	.L657
	.loc 1 5439 5 is_stmt 1
	.loc 1 5439 8 is_stmt 0
	tst	fp, #2048
	bne	.L679
.L657:
	.loc 1 5455 3 is_stmt 1
	.loc 1 5455 6 is_stmt 0
	tst	r5, #512
	beq	.L658
	.loc 1 5457 5 is_stmt 1
	.loc 1 5457 8 is_stmt 0
	tst	fp, #512
	bne	.L680
.L658:
	.loc 1 5477 3 is_stmt 1
	.loc 1 5477 6 is_stmt 0
	tst	r5, #524288
	beq	.L659
	.loc 1 5479 5 is_stmt 1
	.loc 1 5479 8 is_stmt 0
	tst	fp, #524288
	bne	.L681
.L659:
	.loc 1 5495 3 is_stmt 1
	.loc 1 5495 6 is_stmt 0
	tst	r5, #65536
	beq	.L660
	.loc 1 5497 5 is_stmt 1
	.loc 1 5497 8 is_stmt 0
	tst	fp, #65536
	bne	.L682
.L660:
	.loc 1 5513 3 is_stmt 1
	.loc 1 5513 6 is_stmt 0
	tst	r5, #262144
	beq	.L661
	.loc 1 5515 5 is_stmt 1
	.loc 1 5515 8 is_stmt 0
	tst	fp, #262144
	bne	.L683
.L661:
	.loc 1 5531 3 is_stmt 1
	.loc 1 5531 6 is_stmt 0
	tst	r5, #131072
	beq	.L662
	.loc 1 5533 5 is_stmt 1
	.loc 1 5533 8 is_stmt 0
	tst	fp, #131072
	beq	.L662
	.loc 1 5536 7 is_stmt 1
	.loc 1 5536 12
	.loc 1 5536 21 is_stmt 0
	ldr	r3, [r4]
	.loc 1 5536 37
	mov	r2, #131072
	str	r2, [r3, #80]
	.loc 1 5536 87 is_stmt 1
	.loc 1 5536 160 is_stmt 0
	ldr	r3, .L691
	movs	r2, #0
	str	r2, [r3, #16]
	.loc 1 5536 10 is_stmt 1
	.loc 1 5536 229
	.loc 1 5539 7
	.loc 1 5539 13 is_stmt 0
	ldr	r3, [r4, #156]
	.loc 1 5539 25
	orr	r3, r3, #128
	str	r3, [r4, #156]
.L662:
	.loc 1 5544 3 is_stmt 1
	.loc 1 5544 6 is_stmt 0
	cmp	r7, #0
	bne	.L684
.L663:
	.loc 1 5559 3 is_stmt 1
	.loc 1 5559 6 is_stmt 0
	cbz	r6, .L664
	.loc 1 5562 5 is_stmt 1
	.loc 1 5562 10
	.loc 1 5562 19 is_stmt 0
	ldr	r3, [r4]
	.loc 1 5562 35
	str	r6, [r3, #80]
	.loc 1 5562 75 is_stmt 1
	.loc 1 5562 188 is_stmt 0
	lsrs	r2, r6, #30
	.loc 1 5562 148
	ldr	r3, .L691
	str	r2, [r3, #16]
	.loc 1 5562 8 is_stmt 1
	.loc 1 5562 207
	.loc 1 5565 5
	.loc 1 5565 11 is_stmt 0
	ldr	r3, [r4, #156]
	.loc 1 5565 23
	orrs	r3, r3, r6
	str	r3, [r4, #156]
.L664:
	.loc 1 5568 3 is_stmt 1
	.loc 1 5568 13 is_stmt 0
	ldr	r2, [r4]
	.loc 1 5568 6
	ldr	r3, .L691+4
	cmp	r2, r3
	beq	.L685
.LVL744:
.L665:
	.loc 1 5674 3 is_stmt 1
	.loc 1 5674 13 is_stmt 0
	ldr	r3, [r4, #156]
	.loc 1 5674 6
	cmp	r3, #0
	bne	.L686
.L650:
	.loc 1 5684 1
	add	sp, sp, #12
	.cfi_remember_state
	.cfi_def_cfa_offset 36
	@ sp needed
	pop	{r4, r5, r6, r7, r8, r9, r10, fp, pc}
.LVL745:
.L673:
	.cfi_restore_state
	.loc 1 5342 7 is_stmt 1
	.loc 1 5342 12
	.loc 1 5342 37 is_stmt 0
	mov	r2, #256
	str	r2, [r3, #80]
	.loc 1 5342 86 is_stmt 1
	.loc 1 5342 159 is_stmt 0
	ldr	r3, .L691
	movs	r2, #0
	str	r2, [r3, #16]
.LVL746:
	.loc 1 5342 10 is_stmt 1
	.loc 1 5342 227
	.loc 1 5349 7
	bl	HAL_FDCAN_HighPriorityMessageCallback
.LVL747:
	b	.L651
.L674:
	.loc 1 5360 7
	.loc 1 5360 30 is_stmt 0
	ldr	r3, [r4]
	.loc 1 5360 22
	ldr	r1, [r3, #220]
.LVL748:
	.loc 1 5361 7 is_stmt 1
	.loc 1 5361 41 is_stmt 0
	ldr	r2, [r3, #228]
.LVL749:
	.loc 1 5364 7 is_stmt 1
	.loc 1 5364 12
	.loc 1 5364 37 is_stmt 0
	mov	r0, #1024
	str	r0, [r3, #80]
	.loc 1 5364 87 is_stmt 1
	.loc 1 5364 160 is_stmt 0
	ldr	r3, .L691
	movs	r0, #0
	str	r0, [r3, #16]
	.loc 1 5364 10 is_stmt 1
	.loc 1 5364 229
	.loc 1 5371 7
	ands	r1, r1, r2
.LVL750:
	mov	r0, r4
	bl	HAL_FDCAN_TxBufferAbortCallback
.LVL751:
	b	.L652
.LVL752:
.L675:
	.loc 1 5380 5
	.loc 1 5380 10
	.loc 1 5380 19 is_stmt 0
	ldr	r3, [r4]
	.loc 1 5380 58
	movs	r2, #0
	.loc 1 5380 35
	str	r2, [r3, #80]
	.loc 1 5380 86 is_stmt 1
	.loc 1 5380 210 is_stmt 0
	ldr	r1, [sp, #4]
	lsrs	r2, r1, #30
	.loc 1 5380 159
	ldr	r3, .L691
	str	r2, [r3, #16]
	.loc 1 5380 8 is_stmt 1
	.loc 1 5380 229
	.loc 1 5387 5
	mov	r0, r4
	bl	HAL_FDCAN_ClockCalibrationCallback
.LVL753:
	b	.L653
.L676:
	.loc 1 5395 5
	.loc 1 5395 10
	.loc 1 5395 19 is_stmt 0
	ldr	r3, [r4]
	.loc 1 5395 35
	str	r10, [r3, #80]
	.loc 1 5395 83 is_stmt 1
	.loc 1 5395 204 is_stmt 0
	lsr	r2, r10, #30
	.loc 1 5395 156
	ldr	r3, .L691
	str	r2, [r3, #16]
	.loc 1 5395 8 is_stmt 1
	.loc 1 5395 223
	.loc 1 5402 5
	mov	r1, r10
	mov	r0, r4
	bl	HAL_FDCAN_TxEventFifoCallback
.LVL754:
	b	.L654
.L677:
	.loc 1 5410 5
	.loc 1 5410 10
	.loc 1 5410 19 is_stmt 0
	ldr	r3, [r4]
	.loc 1 5410 35
	str	r9, [r3, #80]
	.loc 1 5410 79 is_stmt 1
	.loc 1 5410 196 is_stmt 0
	lsr	r2, r9, #30
	.loc 1 5410 152
	ldr	r3, .L691
	str	r2, [r3, #16]
	.loc 1 5410 8 is_stmt 1
	.loc 1 5410 215
	.loc 1 5417 5
	mov	r1, r9
	mov	r0, r4
	bl	HAL_FDCAN_RxFifo0Callback
.LVL755:
	b	.L655
.L678:
	.loc 1 5425 5
	.loc 1 5425 10
	.loc 1 5425 19 is_stmt 0
	ldr	r3, [r4]
	.loc 1 5425 35
	str	r8, [r3, #80]
	.loc 1 5425 79 is_stmt 1
	.loc 1 5425 196 is_stmt 0
	lsr	r2, r8, #30
	.loc 1 5425 152
	ldr	r3, .L691
	str	r2, [r3, #16]
	.loc 1 5425 8 is_stmt 1
	.loc 1 5425 215
	.loc 1 5432 5
	mov	r1, r8
	mov	r0, r4
	bl	HAL_FDCAN_RxFifo1Callback
.LVL756:
	b	.L656
.L679:
	.loc 1 5442 7
	.loc 1 5442 12
	.loc 1 5442 21 is_stmt 0
	ldr	r3, [r4]
	.loc 1 5442 37
	mov	r2, #2048
	str	r2, [r3, #80]
	.loc 1 5442 87 is_stmt 1
	.loc 1 5442 160 is_stmt 0
	ldr	r3, .L691
	movs	r2, #0
	str	r2, [r3, #16]
	.loc 1 5442 10 is_stmt 1
	.loc 1 5442 229
	.loc 1 5449 7
	mov	r0, r4
	bl	HAL_FDCAN_TxFifoEmptyCallback
.LVL757:
	b	.L657
.L680:
	.loc 1 5460 7
	.loc 1 5460 34 is_stmt 0
	ldr	r3, [r4]
	.loc 1 5460 26
	ldr	r1, [r3, #216]
.LVL758:
	.loc 1 5461 7 is_stmt 1
	.loc 1 5461 45 is_stmt 0
	ldr	r2, [r3, #224]
.LVL759:
	.loc 1 5464 7 is_stmt 1
	.loc 1 5464 12
	.loc 1 5464 37 is_stmt 0
	mov	r0, #512
	str	r0, [r3, #80]
	.loc 1 5464 86 is_stmt 1
	.loc 1 5464 159 is_stmt 0
	ldr	r3, .L691
	movs	r0, #0
	str	r0, [r3, #16]
	.loc 1 5464 10 is_stmt 1
	.loc 1 5464 227
	.loc 1 5471 7
	ands	r1, r1, r2
.LVL760:
	mov	r0, r4
	bl	HAL_FDCAN_TxBufferCompleteCallback
.LVL761:
	b	.L658
.LVL762:
.L681:
	.loc 1 5482 7
	.loc 1 5482 12
	.loc 1 5482 21 is_stmt 0
	ldr	r3, [r4]
	.loc 1 5482 37
	mov	r2, #524288
	str	r2, [r3, #80]
	.loc 1 5482 87 is_stmt 1
	.loc 1 5482 160 is_stmt 0
	ldr	r3, .L691
	movs	r2, #0
	str	r2, [r3, #16]
	.loc 1 5482 10 is_stmt 1
	.loc 1 5482 229
	.loc 1 5489 7
	mov	r0, r4
	bl	HAL_FDCAN_RxBufferNewMessageCallback
.LVL763:
	b	.L659
.L682:
	.loc 1 5500 7
	.loc 1 5500 12
	.loc 1 5500 21 is_stmt 0
	ldr	r3, [r4]
	.loc 1 5500 37
	mov	r2, #65536
	str	r2, [r3, #80]
	.loc 1 5500 87 is_stmt 1
	.loc 1 5500 160 is_stmt 0
	ldr	r3, .L691
	movs	r2, #0
	str	r2, [r3, #16]
	.loc 1 5500 10 is_stmt 1
	.loc 1 5500 229
	.loc 1 5507 7
	mov	r0, r4
	bl	HAL_FDCAN_TimestampWraparoundCallback
.LVL764:
	b	.L660
.L683:
	.loc 1 5518 7
	.loc 1 5518 12
	.loc 1 5518 21 is_stmt 0
	ldr	r3, [r4]
	.loc 1 5518 37
	mov	r2, #262144
	str	r2, [r3, #80]
	.loc 1 5518 87 is_stmt 1
	.loc 1 5518 160 is_stmt 0
	ldr	r3, .L691
	movs	r2, #0
	str	r2, [r3, #16]
	.loc 1 5518 10 is_stmt 1
	.loc 1 5518 229
	.loc 1 5525 7
	mov	r0, r4
	bl	HAL_FDCAN_TimeoutOccurredCallback
.LVL765:
	b	.L661
.L684:
	.loc 1 5547 5
	.loc 1 5547 10
	.loc 1 5547 19 is_stmt 0
	ldr	r3, [r4]
	.loc 1 5547 35
	str	r7, [r3, #80]
	.loc 1 5547 83 is_stmt 1
	.loc 1 5547 204 is_stmt 0
	lsrs	r2, r7, #30
	.loc 1 5547 156
	ldr	r3, .L691
	str	r2, [r3, #16]
	.loc 1 5547 8 is_stmt 1
	.loc 1 5547 223
	.loc 1 5554 5
	mov	r1, r7
	mov	r0, r4
	bl	HAL_FDCAN_ErrorStatusCallback
.LVL766:
	b	.L663
.L685:
	.loc 1 5570 5
	.loc 1 5570 16 is_stmt 0
	ldr	r3, [r4, #4]
	.loc 1 5570 23
	ldr	r2, [r3, #8]
	.loc 1 5570 8
	tst	r2, #3
	beq	.L665
	.loc 1 5572 7 is_stmt 1
	.loc 1 5572 37 is_stmt 0
	ldr	r1, [r3, #32]
	.loc 1 5572 22
	and	r1, r1, #15
.LVL767:
	.loc 1 5573 7 is_stmt 1
	.loc 1 5573 38 is_stmt 0
	ldr	r2, [r3, #36]
.LVL768:
	.loc 1 5574 7 is_stmt 1
	.loc 1 5574 36 is_stmt 0
	ldr	r0, [r3, #32]
	.loc 1 5574 21
	and	r8, r0, #48
.LVL769:
	.loc 1 5575 7 is_stmt 1
	.loc 1 5575 37 is_stmt 0
	ldr	r0, [r3, #36]
	.loc 1 5575 21
	and	r8, r8, r0
.LVL770:
	.loc 1 5576 7 is_stmt 1
	.loc 1 5576 36 is_stmt 0
	ldr	r7, [r3, #32]
.LVL771:
	.loc 1 5576 21
	and	r7, r7, #384
.LVL772:
	.loc 1 5577 7 is_stmt 1
	.loc 1 5577 37 is_stmt 0
	ldr	r0, [r3, #36]
	.loc 1 5577 21
	ands	r7, r7, r0
.LVL773:
	.loc 1 5578 7 is_stmt 1
	.loc 1 5578 35 is_stmt 0
	ldr	r6, [r3, #32]
.LVL774:
	.loc 1 5578 20
	and	r6, r6, #32256
.LVL775:
	.loc 1 5579 7 is_stmt 1
	.loc 1 5579 36 is_stmt 0
	ldr	r0, [r3, #36]
	.loc 1 5579 20
	ands	r6, r6, r0
.LVL776:
	.loc 1 5580 7 is_stmt 1
	.loc 1 5580 36 is_stmt 0
	ldr	r5, [r3, #32]
.LVL777:
	.loc 1 5580 21
	and	r5, r5, #491520
.LVL778:
	.loc 1 5581 7 is_stmt 1
	.loc 1 5581 37 is_stmt 0
	ldr	r0, [r3, #36]
	.loc 1 5581 21
	ands	r5, r5, r0
.LVL779:
	.loc 1 5582 7 is_stmt 1
	.loc 1 5582 20 is_stmt 0
	ldr	r9, [r3, #36]
.LVL780:
	.loc 1 5583 7 is_stmt 1
	.loc 1 5583 18 is_stmt 0
	ldr	r10, [r3, #32]
.LVL781:
	.loc 1 5586 7 is_stmt 1
	.loc 1 5586 10 is_stmt 0
	ands	r1, r1, r2
.LVL782:
	bne	.L687
.LVL783:
.L666:
	.loc 1 5601 7 is_stmt 1
	.loc 1 5601 10 is_stmt 0
	cmp	r8, #0
	bne	.L688
.L667:
	.loc 1 5616 7 is_stmt 1
	.loc 1 5616 10 is_stmt 0
	tst	r9, #64
	beq	.L668
	.loc 1 5618 9 is_stmt 1
	.loc 1 5618 12 is_stmt 0
	tst	r10, #64
	bne	.L689
.L668:
	.loc 1 5638 7 is_stmt 1
	.loc 1 5638 10 is_stmt 0
	cbnz	r7, .L690
.L669:
	.loc 1 5653 7 is_stmt 1
	.loc 1 5653 10 is_stmt 0
	cbz	r6, .L670
	.loc 1 5656 9 is_stmt 1
	.loc 1 5656 19 is_stmt 0
	ldr	r3, [r4, #4]
	.loc 1 5656 34
	str	r6, [r3, #32]
	.loc 1 5659 9 is_stmt 1
	.loc 1 5659 15 is_stmt 0
	ldr	r3, [r4, #156]
	.loc 1 5659 27
	orrs	r3, r3, r6
	str	r3, [r4, #156]
.L670:
	.loc 1 5663 7 is_stmt 1
	.loc 1 5663 10 is_stmt 0
	cmp	r5, #0
	beq	.L665
	.loc 1 5666 9 is_stmt 1
	.loc 1 5666 19 is_stmt 0
	ldr	r3, [r4, #4]
	.loc 1 5666 34
	str	r5, [r3, #32]
	.loc 1 5669 9 is_stmt 1
	.loc 1 5669 15 is_stmt 0
	ldr	r3, [r4, #156]
	.loc 1 5669 27
	orrs	r3, r3, r5
	str	r3, [r4, #156]
	b	.L665
.L692:
	.align	2
.L691:
	.word	1073784832
	.word	1073782784
.LVL784:
.L687:
	.loc 1 5589 9 is_stmt 1
	.loc 1 5589 34 is_stmt 0
	str	r1, [r3, #32]
	.loc 1 5596 9 is_stmt 1
	mov	r0, r4
	bl	HAL_FDCAN_TT_ScheduleSyncCallback
.LVL785:
	b	.L666
.L688:
	.loc 1 5604 9
	.loc 1 5604 19 is_stmt 0
	ldr	r3, [r4, #4]
	.loc 1 5604 34
	str	r8, [r3, #32]
	.loc 1 5611 9 is_stmt 1
	mov	r1, r8
	mov	r0, r4
	bl	HAL_FDCAN_TT_TimeMarkCallback
.LVL786:
	b	.L667
.L689:
	.loc 1 5621 11
	.loc 1 5621 28 is_stmt 0
	ldr	r3, [r4, #4]
	.loc 1 5621 35
	ldr	r1, [r3, #60]
.LVL787:
	.loc 1 5622 11 is_stmt 1
	.loc 1 5622 41 is_stmt 0
	ldr	r2, [r3, #60]
.LVL788:
	.loc 1 5625 11 is_stmt 1
	.loc 1 5625 36 is_stmt 0
	movs	r0, #64
	str	r0, [r3, #32]
	.loc 1 5632 11 is_stmt 1
	and	r2, r2, #63
.LVL789:
	lsrs	r1, r1, #16
.LVL790:
	mov	r0, r4
	bl	HAL_FDCAN_TT_StopWatchCallback
.LVL791:
	b	.L668
.LVL792:
.L690:
	.loc 1 5641 9
	.loc 1 5641 19 is_stmt 0
	ldr	r3, [r4, #4]
	.loc 1 5641 34
	str	r7, [r3, #32]
	.loc 1 5648 9 is_stmt 1
	mov	r1, r7
	mov	r0, r4
	bl	HAL_FDCAN_TT_GlobalTimeCallback
.LVL793:
	b	.L669
.LVL794:
.L686:
	.loc 1 5681 5
	mov	r0, r4
	bl	HAL_FDCAN_ErrorCallback
.LVL795:
	.loc 1 5684 1 is_stmt 0
	b	.L650
	.cfi_endproc
.LFE413:
	.size	HAL_FDCAN_IRQHandler, .-HAL_FDCAN_IRQHandler
	.section	.text.HAL_FDCAN_GetState,"ax",%progbits
	.align	1
	.global	HAL_FDCAN_GetState
	.syntax unified
	.thumb
	.thumb_func
	.type	HAL_FDCAN_GetState, %function
HAL_FDCAN_GetState:
.LFB431:
	.loc 1 6056 1 is_stmt 1
	.cfi_startproc
	@ args = 0, pretend = 0, frame = 0
	@ frame_needed = 0, uses_anonymous_args = 0
	@ link register save eliminated.
.LVL796:
	.loc 1 6058 3
	.loc 1 6058 16 is_stmt 0
	ldrb	r0, [r0, #152]	@ zero_extendqisi2
.LVL797:
	.loc 1 6059 1
	bx	lr
	.cfi_endproc
.LFE431:
	.size	HAL_FDCAN_GetState, .-HAL_FDCAN_GetState
	.section	.text.HAL_FDCAN_GetError,"ax",%progbits
	.align	1
	.global	HAL_FDCAN_GetError
	.syntax unified
	.thumb
	.thumb_func
	.type	HAL_FDCAN_GetError, %function
HAL_FDCAN_GetError:
.LFB432:
	.loc 1 6068 1 is_stmt 1
	.cfi_startproc
	@ args = 0, pretend = 0, frame = 0
	@ frame_needed = 0, uses_anonymous_args = 0
	@ link register save eliminated.
.LVL798:
	.loc 1 6070 3
	.loc 1 6070 16 is_stmt 0
	ldr	r0, [r0, #156]
.LVL799:
	.loc 1 6071 1
	bx	lr
	.cfi_endproc
.LFE432:
	.size	HAL_FDCAN_GetError, .-HAL_FDCAN_GetError
	.section	.rodata.DLCtoBytes,"a"
	.align	2
	.type	DLCtoBytes, %object
	.size	DLCtoBytes, 16
DLCtoBytes:
	.ascii	"\000\001\002\003\004\005\006\007\010\014\020\024\030"
	.ascii	" 0@"
	.section	.rodata
	.align	2
	.set	.LANCHOR0,. + 0
.LC0:
	.word	0
	.word	0
	.word	0
	.word	0
	.word	0
	.word	1
	.word	2
	.word	3
	.word	4
	.word	0
	.word	5
	.word	0
	.word	0
	.word	0
	.word	6
	.word	0
	.word	0
	.word	0
	.word	7
	.text
.Letext0:
	.file 3 "m:\\noinstall\\arm-gnu-toolchain-12.2.rel1-mingw-w64-i686-arm-none-eabi\\arm-none-eabi\\include\\machine\\_default_types.h"
	.file 4 "m:\\noinstall\\arm-gnu-toolchain-12.2.rel1-mingw-w64-i686-arm-none-eabi\\arm-none-eabi\\include\\sys\\_stdint.h"
	.file 5 "D:/RTOS/Board/YD-STM32H7xxVx_ClassicV19/cmake-build-debug/_deps/stm32h7xx_cmsis_device-src/Include/stm32h743xx.h"
	.file 6 "D:/RTOS/Board/YD-STM32H7xxVx_ClassicV19/cmake-build-debug/_deps/stm32h7xx_cmsis_device-src/Include/stm32h7xx.h"
	.file 7 "D:/RTOS/Board/YD-STM32H7xxVx_ClassicV19/cmake-build-debug/_deps/stm32h7xx_hal_driver-src/Inc/stm32h7xx_hal_def.h"
	.file 8 "D:/RTOS/Board/YD-STM32H7xxVx_ClassicV19/cmake-build-debug/_deps/stm32h7xx_hal_driver-src/Inc/stm32h7xx_hal_fdcan.h"
	.file 9 "D:/RTOS/Board/YD-STM32H7xxVx_ClassicV19/cmake-build-debug/_deps/stm32h7xx_hal_driver-src/Inc/stm32h7xx_hal.h"
	.file 10 "<built-in>"