	.cpu cortex-m7
	.arch armv7e-m
	.fpu fpv5-d16
	.eabi_attribute 28, 1
	.eabi_attribute 20, 1
	.eabi_attribute 21, 1
	.eabi_attribute 23, 3
	.eabi_attribute 24, 1
	.eabi_attribute 25, 1
	.eabi_attribute 26, 1
	.eabi_attribute 30, 1
	.eabi_attribute 34, 1
	.eabi_attribute 18, 4
	.file	"stm32h7xx_hal_spdifrx.c"
	.text
.Ltext0:
	.cfi_sections	.debug_frame
	.file 1 "D:/RTOS/Board/YD-STM32H7xxVx_ClassicV19/cmake-build-debug/_deps/stm32h7xx_hal_driver-src/Src/stm32h7xx_hal_spdifrx.c"
	.section	.text.SPDIFRX_WaitOnFlagUntilTimeout,"ax",%progbits
	.align	1
	.syntax unified
	.thumb
	.thumb_func
	.type	SPDIFRX_WaitOnFlagUntilTimeout, %function
SPDIFRX_WaitOnFlagUntilTimeout:
.LFB362:
	.loc 1 1614 1
	.cfi_startproc
	@ args = 4, pretend = 0, frame = 0
	@ frame_needed = 0, uses_anonymous_args = 0
.LVL0:
	push	{r4, r5, r6, r7, r8, lr}
	.cfi_def_cfa_offset 24
	.cfi_offset 4, -24
	.cfi_offset 5, -20
	.cfi_offset 6, -16
	.cfi_offset 7, -12
	.cfi_offset 8, -8
	.cfi_offset 14, -4
	mov	r6, r0
	mov	r8, r1
	mov	r7, r2
	mov	r5, r3
	.loc 1 1616 3
.LVL1:
.L3:
	.loc 1 1616 74
	.loc 1 1616 22 is_stmt 0
	ldr	r4, [r6]
	.loc 1 1616 32
	ldr	r4, [r4, #8]
	.loc 1 1616 65
	bics	r4, r8, r4
	ite	eq
	moveq	r4, #1
	movne	r4, #0
	.loc 1 1616 74
	cmp	r4, r7
	bne	.L8
	.loc 1 1619 5 is_stmt 1
	.loc 1 1619 8 is_stmt 0
	cmp	r5, #-1
	beq	.L3
	.loc 1 1621 7 is_stmt 1
	.loc 1 1621 13 is_stmt 0
	bl	HAL_GetTick
.LVL2:
	.loc 1 1621 27
	ldr	r3, [sp, #24]
	subs	r0, r0, r3
	.loc 1 1621 10
	cmp	r0, r5
	bhi	.L4
	.loc 1 1621 51 discriminator 1
	cmp	r5, #0
	bne	.L3
.L4:
	.loc 1 1625 9 is_stmt 1
	.loc 1 1625 18 is_stmt 0
	ldr	r2, [r6]
	.loc 1 1625 28
	ldr	r3, [r2, #4]
	.loc 1 1625 34
	bic	r3, r3, #1
	lsls	r3, r3, #16
	lsrs	r3, r3, #16
	str	r3, [r2, #4]
	.loc 1 1626 9 is_stmt 1
	.loc 1 1626 18 is_stmt 0
	ldr	r2, [r6]
	.loc 1 1626 28
	ldr	r3, [r2, #4]
	.loc 1 1626 34
	bic	r3, r3, #2
	lsls	r3, r3, #16
	lsrs	r3, r3, #16
	str	r3, [r2, #4]
	.loc 1 1627 9 is_stmt 1
	.loc 1 1627 18 is_stmt 0
	ldr	r2, [r6]
	.loc 1 1627 28
	ldr	r3, [r2, #4]
	.loc 1 1627 34
	bic	r3, r3, #4
	lsls	r3, r3, #16
	lsrs	r3, r3, #16
	str	r3, [r2, #4]
	.loc 1 1628 9 is_stmt 1
	.loc 1 1628 18 is_stmt 0
	ldr	r2, [r6]
	.loc 1 1628 28
	ldr	r3, [r2, #4]
	.loc 1 1628 34
	bic	r3, r3, #8
	lsls	r3, r3, #16
	lsrs	r3, r3, #16
	str	r3, [r2, #4]
	.loc 1 1629 9 is_stmt 1
	.loc 1 1629 18 is_stmt 0
	ldr	r2, [r6]
	.loc 1 1629 28
	ldr	r3, [r2, #4]
	.loc 1 1629 34
	bic	r3, r3, #16
	lsls	r3, r3, #16
	lsrs	r3, r3, #16
	str	r3, [r2, #4]
	.loc 1 1630 9 is_stmt 1
	.loc 1 1630 18 is_stmt 0
	ldr	r2, [r6]
	.loc 1 1630 28
	ldr	r3, [r2, #4]
	.loc 1 1630 34
	bic	r3, r3, #32
	lsls	r3, r3, #16
	lsrs	r3, r3, #16
	str	r3, [r2, #4]
	.loc 1 1631 9 is_stmt 1
	.loc 1 1631 18 is_stmt 0
	ldr	r2, [r6]
	.loc 1 1631 28
	ldr	r3, [r2, #4]
	.loc 1 1631 34
	bic	r3, r3, #64
	lsls	r3, r3, #16
	lsrs	r3, r3, #16
	str	r3, [r2, #4]
	.loc 1 1633 9 is_stmt 1
	.loc 1 1633 23 is_stmt 0
	movs	r3, #1
	strb	r3, [r6, #73]
	.loc 1 1636 9 is_stmt 1
	.loc 1 1636 13
	.loc 1 1636 28 is_stmt 0
	movs	r3, #0
	strb	r3, [r6, #72]
	.loc 1 1636 11 is_stmt 1
	.loc 1 1638 9
	.loc 1 1638 16 is_stmt 0
	movs	r0, #3
	b	.L5
.L8:
	.loc 1 1643 10
	movs	r0, #0
.L5:
	.loc 1 1644 1
	pop	{r4, r5, r6, r7, r8, pc}
	.cfi_endproc
.LFE362:
	.size	SPDIFRX_WaitOnFlagUntilTimeout, .-SPDIFRX_WaitOnFlagUntilTimeout
	.section	.text.HAL_SPDIFRX_MspInit,"ax",%progbits
	.align	1
	.weak	HAL_SPDIFRX_MspInit
	.syntax unified
	.thumb
	.thumb_func
	.type	HAL_SPDIFRX_MspInit, %function
HAL_SPDIFRX_MspInit:
.LFB337:
	.loc 1 397 1 is_stmt 1
	.cfi_startproc
	@ args = 0, pretend = 0, frame = 0
	@ frame_needed = 0, uses_anonymous_args = 0
	@ link register save eliminated.
.LVL3:
	.loc 1 399 3
	.loc 1 404 1 is_stmt 0
	bx	lr
	.cfi_endproc
.LFE337:
	.size	HAL_SPDIFRX_MspInit, .-HAL_SPDIFRX_MspInit
	.section	.text.HAL_SPDIFRX_Init,"ax",%progbits
	.align	1
	.global	HAL_SPDIFRX_Init
	.syntax unified
	.thumb
	.thumb_func
	.type	HAL_SPDIFRX_Init, %function
HAL_SPDIFRX_Init:
.LFB335:
	.loc 1 245 1 is_stmt 1
	.cfi_startproc
	@ args = 0, pretend = 0, frame = 0
	@ frame_needed = 0, uses_anonymous_args = 0
.LVL4:
	.loc 1 246 3
	.loc 1 249 3
	.loc 1 249 6 is_stmt 0
	cmp	r0, #0
	beq	.L15
	.loc 1 245 1
	push	{r4, lr}
	.cfi_def_cfa_offset 8
	.cfi_offset 4, -8
	.cfi_offset 14, -4
	mov	r4, r0
	.loc 1 255 3 is_stmt 1
	.loc 1 256 3
	.loc 1 257 3
	.loc 1 258 3
	.loc 1 259 3
	.loc 1 260 3
	.loc 1 261 3
	.loc 1 262 3
	.loc 1 263 3
	.loc 1 264 3
	.loc 1 265 3
	.loc 1 266 3
	.loc 1 289 3
	.loc 1 289 13 is_stmt 0
	ldrb	r3, [r0, #73]	@ zero_extendqisi2
	.loc 1 289 6
	cmp	r3, #0
	beq	.L20
.LVL5:
.L12:
	.loc 1 299 3 is_stmt 1
	.loc 1 299 17 is_stmt 0
	movs	r3, #2
	strb	r3, [r4, #73]
	.loc 1 302 3 is_stmt 1
	.loc 1 302 12 is_stmt 0
	ldr	r2, [r4]
	.loc 1 302 22
	ldr	r3, [r2]
	.loc 1 302 27
	bic	r3, r3, #3
	str	r3, [r2]
	.loc 1 305 3 is_stmt 1
	.loc 1 305 18 is_stmt 0
	ldr	r1, [r4]
	.loc 1 305 10
	ldr	r3, [r1]
.LVL6:
	.loc 1 307 3 is_stmt 1
	.loc 1 307 10 is_stmt 0
	ldr	r2, .L23
	ands	r2, r2, r3
.LVL7:
	.loc 1 314 3 is_stmt 1
	.loc 1 314 26 is_stmt 0
	ldr	r3, [r4, #24]
	.loc 1 315 26
	ldr	r0, [r4, #4]
	.loc 1 314 38
	orrs	r3, r3, r0
	.loc 1 316 26
	ldr	r0, [r4, #8]
	.loc 1 315 42
	orrs	r3, r3, r0
	.loc 1 317 26
	ldr	r0, [r4, #12]
	.loc 1 316 35
	orrs	r3, r3, r0
	.loc 1 318 26
	ldr	r0, [r4, #16]
	.loc 1 317 43
	orrs	r3, r3, r0
	.loc 1 319 26
	ldr	r0, [r4, #20]
	.loc 1 318 44
	orrs	r3, r3, r0
	.loc 1 320 26
	ldr	r0, [r4, #28]
	.loc 1 319 38
	orrs	r3, r3, r0
	.loc 1 321 26
	ldr	r0, [r4, #32]
	.loc 1 320 44
	orrs	r3, r3, r0
	.loc 1 322 26
	ldr	r0, [r4, #36]
	.loc 1 321 45
	orrs	r3, r3, r0
	.loc 1 323 26
	ldr	r0, [r4, #40]
	.loc 1 322 43
	orrs	r3, r3, r0
	.loc 1 314 10
	orrs	r3, r3, r2
.LVL8:
	.loc 1 326 3 is_stmt 1
	.loc 1 326 19 is_stmt 0
	ldrb	r2, [r4, #44]	@ zero_extendqisi2
	.loc 1 326 6
	cmp	r2, #1
	beq	.L21
.L13:
	.loc 1 331 3 is_stmt 1
	.loc 1 331 19 is_stmt 0
	ldrb	r2, [r4, #45]	@ zero_extendqisi2
	.loc 1 331 6
	cmp	r2, #1
	beq	.L22
.L14:
	.loc 1 336 3 is_stmt 1
	.loc 1 336 24 is_stmt 0
	str	r3, [r1]
	.loc 1 338 3 is_stmt 1
	.loc 1 338 21 is_stmt 0
	movs	r0, #0
	str	r0, [r4, #76]
	.loc 1 341 3 is_stmt 1
	.loc 1 341 17 is_stmt 0
	movs	r3, #1
.LVL9:
	strb	r3, [r4, #73]
	.loc 1 343 3 is_stmt 1
	.loc 1 344 1 is_stmt 0
	pop	{r4, pc}
.LVL10:
.L20:
	.loc 1 292 5 is_stmt 1
	.loc 1 292 18 is_stmt 0
	strb	r3, [r0, #72]
	.loc 1 294 5 is_stmt 1
	bl	HAL_SPDIFRX_MspInit
.LVL11:
	b	.L12
.LVL12:
.L21:
	.loc 1 328 5
	.loc 1 328 12 is_stmt 0
	orr	r3, r3, #1048576
.LVL13:
	b	.L13
.L22:
	.loc 1 333 5 is_stmt 1
	.loc 1 333 12 is_stmt 0
	orr	r3, r3, #2097152
.LVL14:
	b	.L14
.LVL15:
.L15:
	.cfi_def_cfa_offset 0
	.cfi_restore 4
	.cfi_restore 14
	.loc 1 251 12
	movs	r0, #1
.LVL16:
	.loc 1 344 1
	bx	lr
.L24:
	.align	2
.L23:
	.word	-3636217
	.cfi_endproc
.LFE335:
	.size	HAL_SPDIFRX_Init, .-HAL_SPDIFRX_Init
	.section	.text.HAL_SPDIFRX_MspDeInit,"ax",%progbits
	.align	1
	.weak	HAL_SPDIFRX_MspDeInit
	.syntax unified
	.thumb
	.thumb_func
	.type	HAL_SPDIFRX_MspDeInit, %function
HAL_SPDIFRX_MspDeInit:
.LFB338:
	.loc 1 412 1 is_stmt 1
	.cfi_startproc
	@ args = 0, pretend = 0, frame = 0
	@ frame_needed = 0, uses_anonymous_args = 0
	@ link register save eliminated.
.LVL17:
	.loc 1 414 3
	.loc 1 419 1 is_stmt 0
	bx	lr
	.cfi_endproc
.LFE338:
	.size	HAL_SPDIFRX_MspDeInit, .-HAL_SPDIFRX_MspDeInit
	.section	.text.HAL_SPDIFRX_DeInit,"ax",%progbits
	.align	1
	.global	HAL_SPDIFRX_DeInit
	.syntax unified
	.thumb
	.thumb_func
	.type	HAL_SPDIFRX_DeInit, %function
HAL_SPDIFRX_DeInit:
.LFB336:
	.loc 1 352 1 is_stmt 1
	.cfi_startproc
	@ args = 0, pretend = 0, frame = 0
	@ frame_needed = 0, uses_anonymous_args = 0
.LVL18:
	.loc 1 354 3
	.loc 1 354 6 is_stmt 0
	cbz	r0, .L28
	.loc 1 352 1
	push	{r4, lr}
	.cfi_def_cfa_offset 8
	.cfi_offset 4, -8
	.cfi_offset 14, -4
	mov	r4, r0
	.loc 1 360 3 is_stmt 1
	.loc 1 362 3
	.loc 1 362 17 is_stmt 0
	movs	r3, #2
	strb	r3, [r0, #73]
	.loc 1 365 3 is_stmt 1
	.loc 1 365 12 is_stmt 0
	ldr	r2, [r0]
	.loc 1 365 22
	ldr	r3, [r2]
	.loc 1 365 27
	bic	r3, r3, #3
	str	r3, [r2]
	.loc 1 377 3 is_stmt 1
	bl	HAL_SPDIFRX_MspDeInit
.LVL19:
	.loc 1 380 3
	.loc 1 380 21 is_stmt 0
	movs	r0, #0
	str	r0, [r4, #76]
	.loc 1 383 3 is_stmt 1
	.loc 1 383 17 is_stmt 0
	strb	r0, [r4, #73]
	.loc 1 386 3 is_stmt 1
	.loc 1 386 7
	.loc 1 386 22 is_stmt 0
	strb	r0, [r4, #72]
	.loc 1 386 5 is_stmt 1
	.loc 1 388 3
	.loc 1 389 1 is_stmt 0
	pop	{r4, pc}
.LVL20:
.L28:
	.cfi_def_cfa_offset 0
	.cfi_restore 4
	.cfi_restore 14
	.loc 1 356 12
	movs	r0, #1
.LVL21:
	.loc 1 389 1
	bx	lr
	.cfi_endproc
.LFE336:
	.size	HAL_SPDIFRX_DeInit, .-HAL_SPDIFRX_DeInit
	.section	.text.HAL_SPDIFRX_SetDataFormat,"ax",%progbits
	.align	1
	.global	HAL_SPDIFRX_SetDataFormat
	.syntax unified
	.thumb
	.thumb_func
	.type	HAL_SPDIFRX_SetDataFormat, %function
HAL_SPDIFRX_SetDataFormat:
.LFB339:
	.loc 1 622 1 is_stmt 1
	.cfi_startproc
	@ args = 28, pretend = 16, frame = 0
	@ frame_needed = 0, uses_anonymous_args = 0
	@ link register save eliminated.
.LVL22:
	sub	sp, sp, #16
	.cfi_def_cfa_offset 16
	add	ip, sp, #4
	stm	ip, {r1, r2, r3}
	.loc 1 623 3
	.loc 1 626 3
	.loc 1 626 6 is_stmt 0
	cbz	r0, .L36
	.loc 1 632 3 is_stmt 1
	.loc 1 633 3
	.loc 1 634 3
	.loc 1 635 3
	.loc 1 636 3
	.loc 1 637 3
	.loc 1 640 3
	.loc 1 640 18 is_stmt 0
	ldr	r1, [r0]
	.loc 1 640 10
	ldr	r3, [r1]
.LVL23:
	.loc 1 642 3 is_stmt 1
	.loc 1 642 16 is_stmt 0
	and	r2, r3, #3
	.loc 1 642 6
	cmp	r2, #3
	beq	.L40
.LVL24:
.L35:
	.loc 1 649 3 is_stmt 1
	.loc 1 649 10 is_stmt 0
	bic	r2, r3, #1016
.LVL25:
	.loc 1 653 3 is_stmt 1
	.loc 1 653 37 is_stmt 0
	ldr	r3, [sp, #8]
	ldr	r0, [sp, #4]
	orrs	r3, r3, r0
	.loc 1 655 25
	ldr	r0, [sp, #12]
	.loc 1 654 37
	orrs	r3, r3, r0
	.loc 1 656 25
	ldr	r0, [sp, #16]
	.loc 1 655 43
	orrs	r3, r3, r0
	.loc 1 657 25
	ldr	r0, [sp, #20]
	.loc 1 656 44
	orrs	r3, r3, r0
	.loc 1 658 25
	ldr	r0, [sp, #24]
	.loc 1 657 42
	orrs	r3, r3, r0
	.loc 1 653 10
	orrs	r3, r3, r2
.LVL26:
	.loc 1 660 3 is_stmt 1
	.loc 1 660 24 is_stmt 0
	str	r3, [r1]
	.loc 1 662 3 is_stmt 1
	.loc 1 662 10 is_stmt 0
	movs	r0, #0
.LVL27:
.L34:
	.loc 1 663 1
	add	sp, sp, #16
	.cfi_remember_state
	.cfi_def_cfa_offset 0
	bx	lr
.LVL28:
.L40:
	.cfi_restore_state
	.loc 1 643 17 discriminator 1
	and	r2, r3, #48
	.loc 1 643 50 discriminator 1
	ldr	r0, [sp, #4]
.LVL29:
	.loc 1 642 79 discriminator 1
	cmp	r2, r0
	bne	.L37
	.loc 1 644 17
	and	r2, r3, #8
	.loc 1 644 50
	ldr	r0, [sp, #8]
	.loc 1 643 63
	cmp	r2, r0
	beq	.L35
	.loc 1 646 12
	movs	r0, #1
	b	.L34
.LVL30:
.L36:
	.loc 1 628 12
	movs	r0, #1
.LVL31:
	b	.L34
.LVL32:
.L37:
	.loc 1 646 12
	movs	r0, #1
	b	.L34
	.cfi_endproc
.LFE339:
	.size	HAL_SPDIFRX_SetDataFormat, .-HAL_SPDIFRX_SetDataFormat
	.section	.text.HAL_SPDIFRX_ReceiveDataFlow,"ax",%progbits
	.align	1
	.global	HAL_SPDIFRX_ReceiveDataFlow
	.syntax unified
	.thumb
	.thumb_func
	.type	HAL_SPDIFRX_ReceiveDataFlow, %function
HAL_SPDIFRX_ReceiveDataFlow:
.LFB340:
	.loc 1 722 1 is_stmt 1
	.cfi_startproc
	@ args = 0, pretend = 0, frame = 0
	@ frame_needed = 0, uses_anonymous_args = 0
.LVL33:
	push	{r4, r5, r6, r7, r8, lr}
	.cfi_def_cfa_offset 24
	.cfi_offset 4, -24
	.cfi_offset 5, -20
	.cfi_offset 6, -16
	.cfi_offset 7, -12
	.cfi_offset 8, -8
	.cfi_offset 14, -4
	sub	sp, sp, #8
	.cfi_def_cfa_offset 32
	.loc 1 723 3
	.loc 1 724 3
.LVL34:
	.loc 1 725 3
	.loc 1 727 3
	.loc 1 727 6 is_stmt 0
	cmp	r2, #0
	it	ne
	cmpne	r1, #0
	beq	.L45
	mov	r5, r0
	mov	r6, r3
	mov	r7, r1
	mov	r4, r2
	.loc 1 732 3 is_stmt 1
	.loc 1 732 13 is_stmt 0
	ldrb	r3, [r0, #73]	@ zero_extendqisi2
.LVL35:
	uxtb	r3, r3
	.loc 1 732 6
	cmp	r3, #1
	bne	.L46
	.loc 1 735 5 is_stmt 1
	.loc 1 735 9
	.loc 1 735 20 is_stmt 0
	ldrb	r3, [r0, #72]	@ zero_extendqisi2
	uxtb	r3, r3
	.loc 1 735 11
	cmp	r3, #1
	beq	.L47
	.loc 1 735 70 is_stmt 1 discriminator 2
	.loc 1 735 85 is_stmt 0 discriminator 2
	movs	r3, #1
	strb	r3, [r0, #72]
	.loc 1 735 7 is_stmt 1 discriminator 2
	.loc 1 737 5 discriminator 2
	.loc 1 737 19 is_stmt 0 discriminator 2
	movs	r3, #2
	strb	r3, [r0, #73]
	.loc 1 740 5 is_stmt 1 discriminator 2
	.loc 1 740 14 is_stmt 0 discriminator 2
	ldr	r2, [r0]
.LVL36:
	.loc 1 740 24 discriminator 2
	ldr	r3, [r2]
	.loc 1 740 29 discriminator 2
	orr	r3, r3, #1
	str	r3, [r2]
	.loc 1 743 5 is_stmt 1 discriminator 2
	.loc 1 743 17 is_stmt 0 discriminator 2
	bl	HAL_GetTick
.LVL37:
	.loc 1 746 5 is_stmt 1 discriminator 2
	.loc 1 746 9 is_stmt 0 discriminator 2
	str	r0, [sp]
	mov	r3, r6
	movs	r2, #0
	movs	r1, #32
	mov	r0, r5
.LVL38:
	bl	SPDIFRX_WaitOnFlagUntilTimeout
.LVL39:
	.loc 1 746 8 discriminator 2
	mov	r8, r0
	cbnz	r0, .L48
	.loc 1 752 5 is_stmt 1
	.loc 1 752 14 is_stmt 0
	ldr	r2, [r5]
	.loc 1 752 24
	ldr	r3, [r2]
	.loc 1 752 29
	orr	r3, r3, #3
	str	r3, [r2]
	.loc 1 755 5 is_stmt 1
.LVL40:
.L43:
	.loc 1 755 24
	cbz	r4, .L51
	.loc 1 758 7
	.loc 1 758 19 is_stmt 0
	bl	HAL_GetTick
.LVL41:
	.loc 1 761 7 is_stmt 1
	.loc 1 761 11 is_stmt 0
	str	r0, [sp]
	mov	r3, r6
	movs	r2, #0
	movs	r1, #1
	mov	r0, r5
.LVL42:
	bl	SPDIFRX_WaitOnFlagUntilTimeout
.LVL43:
	.loc 1 761 10
	cbnz	r0, .L49
	.loc 1 766 7 is_stmt 1
	.loc 1 766 26 is_stmt 0
	ldr	r3, [r5]
	.loc 1 766 36
	ldr	r3, [r3, #16]
	.loc 1 766 18
	str	r3, [r7], #4
.LVL44:
	.loc 1 767 7 is_stmt 1
	.loc 1 768 7
	.loc 1 768 18 is_stmt 0
	subs	r4, r4, #1
.LVL45:
	uxth	r4, r4
.LVL46:
	b	.L43
.LVL47:
.L51:
	.loc 1 772 5 is_stmt 1
	.loc 1 772 19 is_stmt 0
	movs	r3, #1
	strb	r3, [r5, #73]
	.loc 1 775 5 is_stmt 1
	.loc 1 775 9
	.loc 1 775 24 is_stmt 0
	movs	r3, #0
	strb	r3, [r5, #72]
	.loc 1 775 7 is_stmt 1
	.loc 1 777 5
	.loc 1 777 12 is_stmt 0
	b	.L42
.LVL48:
.L45:
	.loc 1 729 12
	mov	r8, #1
.LVL49:
.L42:
	.loc 1 783 1
	mov	r0, r8
	add	sp, sp, #8
	.cfi_remember_state
	.cfi_def_cfa_offset 24
	@ sp needed
	pop	{r4, r5, r6, r7, r8, pc}
.LVL50:
.L46:
	.cfi_restore_state
	.loc 1 781 12
	mov	r8, #2
	b	.L42
.L47:
	.loc 1 735 51
	mov	r8, #2
	b	.L42
.LVL51:
.L48:
	.loc 1 748 14
	mov	r8, #3
	b	.L42
.LVL52:
.L49:
	.loc 1 763 16
	mov	r8, #3
	b	.L42
	.cfi_endproc
.LFE340:
	.size	HAL_SPDIFRX_ReceiveDataFlow, .-HAL_SPDIFRX_ReceiveDataFlow
	.section	.text.HAL_SPDIFRX_ReceiveCtrlFlow,"ax",%progbits
	.align	1
	.global	HAL_SPDIFRX_ReceiveCtrlFlow
	.syntax unified
	.thumb
	.thumb_func
	.type	HAL_SPDIFRX_ReceiveCtrlFlow, %function
HAL_SPDIFRX_ReceiveCtrlFlow:
.LFB341:
	.loc 1 796 1 is_stmt 1
	.cfi_startproc
	@ args = 0, pretend = 0, frame = 0
	@ frame_needed = 0, uses_anonymous_args = 0
.LVL53:
	push	{r4, r5, r6, r7, r8, lr}
	.cfi_def_cfa_offset 24
	.cfi_offset 4, -24
	.cfi_offset 5, -20
	.cfi_offset 6, -16
	.cfi_offset 7, -12
	.cfi_offset 8, -8
	.cfi_offset 14, -4
	sub	sp, sp, #8
	.cfi_def_cfa_offset 32
	.loc 1 797 3
	.loc 1 798 3
.LVL54:
	.loc 1 799 3
	.loc 1 801 3
	.loc 1 801 6 is_stmt 0
	cmp	r2, #0
	it	ne
	cmpne	r1, #0
	beq	.L56
	mov	r5, r0
	mov	r6, r3
	mov	r7, r1
	mov	r4, r2
	.loc 1 806 3 is_stmt 1
	.loc 1 806 13 is_stmt 0
	ldrb	r3, [r0, #73]	@ zero_extendqisi2
.LVL55:
	uxtb	r3, r3
	.loc 1 806 6
	cmp	r3, #1
	bne	.L57
	.loc 1 809 5 is_stmt 1
	.loc 1 809 9
	.loc 1 809 20 is_stmt 0
	ldrb	r3, [r0, #72]	@ zero_extendqisi2
	uxtb	r3, r3
	.loc 1 809 11
	cmp	r3, #1
	beq	.L58
	.loc 1 809 70 is_stmt 1 discriminator 2
	.loc 1 809 85 is_stmt 0 discriminator 2
	movs	r3, #1
	strb	r3, [r0, #72]
	.loc 1 809 7 is_stmt 1 discriminator 2
	.loc 1 811 5 discriminator 2
	.loc 1 811 19 is_stmt 0 discriminator 2
	movs	r3, #2
	strb	r3, [r0, #73]
	.loc 1 814 5 is_stmt 1 discriminator 2
	.loc 1 814 14 is_stmt 0 discriminator 2
	ldr	r2, [r0]
.LVL56:
	.loc 1 814 24 discriminator 2
	ldr	r3, [r2]
	.loc 1 814 29 discriminator 2
	orr	r3, r3, #1
	str	r3, [r2]
	.loc 1 817 5 is_stmt 1 discriminator 2
	.loc 1 817 17 is_stmt 0 discriminator 2
	bl	HAL_GetTick
.LVL57:
	.loc 1 820 5 is_stmt 1 discriminator 2
	.loc 1 820 9 is_stmt 0 discriminator 2
	str	r0, [sp]
	mov	r3, r6
	movs	r2, #0
	movs	r1, #32
	mov	r0, r5
.LVL58:
	bl	SPDIFRX_WaitOnFlagUntilTimeout
.LVL59:
	.loc 1 820 8 discriminator 2
	mov	r8, r0
	cbnz	r0, .L59
	.loc 1 826 5 is_stmt 1
	.loc 1 826 14 is_stmt 0
	ldr	r2, [r5]
	.loc 1 826 24
	ldr	r3, [r2]
	.loc 1 826 29
	orr	r3, r3, #3
	str	r3, [r2]
	.loc 1 829 5 is_stmt 1
.LVL60:
.L54:
	.loc 1 829 24
	cbz	r4, .L62
	.loc 1 832 7
	.loc 1 832 19 is_stmt 0
	bl	HAL_GetTick
.LVL61:
	.loc 1 835 7 is_stmt 1
	.loc 1 835 11 is_stmt 0
	str	r0, [sp]
	mov	r3, r6
	movs	r2, #0
	movs	r1, #2
	mov	r0, r5
.LVL62:
	bl	SPDIFRX_WaitOnFlagUntilTimeout
.LVL63:
	.loc 1 835 10
	cbnz	r0, .L60
	.loc 1 840 7 is_stmt 1
	.loc 1 840 26 is_stmt 0
	ldr	r3, [r5]
	.loc 1 840 36
	ldr	r3, [r3, #20]
	.loc 1 840 18
	str	r3, [r7], #4
.LVL64:
	.loc 1 841 7 is_stmt 1
	.loc 1 842 7
	.loc 1 842 18 is_stmt 0
	subs	r4, r4, #1
.LVL65:
	uxth	r4, r4
.LVL66:
	b	.L54
.LVL67:
.L62:
	.loc 1 846 5 is_stmt 1
	.loc 1 846 19 is_stmt 0
	movs	r3, #1
	strb	r3, [r5, #73]
	.loc 1 849 5 is_stmt 1
	.loc 1 849 9
	.loc 1 849 24 is_stmt 0
	movs	r3, #0
	strb	r3, [r5, #72]
	.loc 1 849 7 is_stmt 1
	.loc 1 851 5
	.loc 1 851 12 is_stmt 0
	b	.L53
.LVL68:
.L56:
	.loc 1 803 12
	mov	r8, #1
.LVL69:
.L53:
	.loc 1 857 1
	mov	r0, r8
	add	sp, sp, #8
	.cfi_remember_state
	.cfi_def_cfa_offset 24
	@ sp needed
	pop	{r4, r5, r6, r7, r8, pc}
.LVL70:
.L57:
	.cfi_restore_state
	.loc 1 855 12
	mov	r8, #2
	b	.L53
.L58:
	.loc 1 809 51
	mov	r8, #2
	b	.L53
.LVL71:
.L59:
	.loc 1 822 14
	mov	r8, #3
	b	.L53
.LVL72:
.L60:
	.loc 1 837 16
	mov	r8, #3
	b	.L53
	.cfi_endproc
.LFE341:
	.size	HAL_SPDIFRX_ReceiveCtrlFlow, .-HAL_SPDIFRX_ReceiveCtrlFlow
	.section	.text.HAL_SPDIFRX_ReceiveDataFlow_IT,"ax",%progbits
	.align	1
	.global	HAL_SPDIFRX_ReceiveDataFlow_IT
	.syntax unified
	.thumb
	.thumb_func
	.type	HAL_SPDIFRX_ReceiveDataFlow_IT, %function
HAL_SPDIFRX_ReceiveDataFlow_IT:
.LFB342:
	.loc 1 867 1 is_stmt 1
	.cfi_startproc
	@ args = 0, pretend = 0, frame = 0
	@ frame_needed = 0, uses_anonymous_args = 0
	@ link register save eliminated.
.LVL73:
	push	{r4}
	.cfi_def_cfa_offset 4
	.cfi_offset 4, -4
	.loc 1 868 3
	.loc 1 868 49 is_stmt 0
	ldr	r3, .L73
	ldr	r3, [r3]
	ldr	r4, .L73+4
	umull	r4, r3, r4, r3
	lsrs	r3, r3, #9
	.loc 1 868 12
	add	r3, r3, r3, lsl #2
.LVL74:
	.loc 1 870 3 is_stmt 1
	.loc 1 870 34 is_stmt 0
	ldrb	ip, [r0, #73]	@ zero_extendqisi2
	uxtb	ip, ip
.LVL75:
	.loc 1 872 3 is_stmt 1
	.loc 1 872 6 is_stmt 0
	cmp	ip, #4
	it	ne
	cmpne	ip, #1
	bne	.L68
	lsls	r3, r3, #1
.LVL76:
	.loc 1 874 5 is_stmt 1
	.loc 1 874 8 is_stmt 0
	cmp	r2, #0
	it	ne
	cmpne	r1, #0
	beq	.L69
	.loc 1 880 5 is_stmt 1
	.loc 1 880 9
	.loc 1 880 20 is_stmt 0
	ldrb	r4, [r0, #72]	@ zero_extendqisi2
	uxtb	r4, r4
	.loc 1 880 11
	cmp	r4, #1
	beq	.L70
	.loc 1 880 70 is_stmt 1 discriminator 2
	.loc 1 880 85 is_stmt 0 discriminator 2
	movs	r4, #1
	strb	r4, [r0, #72]
	.loc 1 880 7 is_stmt 1 discriminator 2
	.loc 1 882 5 discriminator 2
	.loc 1 882 24 is_stmt 0 discriminator 2
	str	r1, [r0, #48]
	.loc 1 883 5 is_stmt 1 discriminator 2
	.loc 1 883 24 is_stmt 0 discriminator 2
	strh	r2, [r0, #56]	@ movhi
	.loc 1 884 5 is_stmt 1 discriminator 2
	.loc 1 884 25 is_stmt 0 discriminator 2
	strh	r2, [r0, #58]	@ movhi
	.loc 1 886 5 is_stmt 1 discriminator 2
	.loc 1 886 23 is_stmt 0 discriminator 2
	movs	r2, #0
.LVL77:
	str	r2, [r0, #76]
.LVL78:
	.loc 1 889 5 is_stmt 1 discriminator 2
	.loc 1 889 19 is_stmt 0 discriminator 2
	movs	r2, #3
	strb	r2, [r0, #73]
	.loc 1 892 5 is_stmt 1 discriminator 2
	.loc 1 892 14 is_stmt 0 discriminator 2
	ldr	r1, [r0]
.LVL79:
	.loc 1 892 24 discriminator 2
	ldr	r2, [r1, #4]
	.loc 1 892 30 discriminator 2
	orr	r2, r2, #4
	str	r2, [r1, #4]
.LVL80:
	.loc 1 895 5 is_stmt 1 discriminator 2
	.loc 1 895 14 is_stmt 0 discriminator 2
	ldr	r1, [r0]
	.loc 1 895 24 discriminator 2
	ldr	r2, [r1, #4]
	.loc 1 895 30 discriminator 2
	orr	r2, r2, #8
	str	r2, [r1, #4]
	.loc 1 898 5 is_stmt 1 discriminator 2
	.loc 1 898 14 is_stmt 0 discriminator 2
	ldr	r1, [r0]
	.loc 1 898 24 discriminator 2
	ldr	r2, [r1, #4]
	.loc 1 898 30 discriminator 2
	orrs	r2, r2, r4
	str	r2, [r1, #4]
	.loc 1 900 5 is_stmt 1 discriminator 2
	.loc 1 900 59 is_stmt 0 discriminator 2
	mov	r2, #1073758208
	ldr	r2, [r2]
	.loc 1 900 64 discriminator 2
	and	r2, r2, #3
	.loc 1 900 8 discriminator 2
	cmp	r2, #3
	beq	.L65
	.loc 1 903 7 is_stmt 1
	.loc 1 903 16 is_stmt 0
	ldr	r1, [r0]
	.loc 1 903 26
	ldr	r2, [r1]
	.loc 1 903 31
	orrs	r2, r2, r4
	str	r2, [r1]
.LVL81:
.L67:
	.loc 1 906 7 is_stmt 1
	.loc 1 908 9
	.loc 1 908 12 is_stmt 0
	cbz	r3, .L72
	.loc 1 927 9 is_stmt 1
	.loc 1 927 14 is_stmt 0
	subs	r3, r3, #1
.LVL82:
	.loc 1 928 126 is_stmt 1
	.loc 1 928 28 is_stmt 0
	ldr	r2, [r0]
	.loc 1 928 38
	ldr	r1, [r2, #8]
	.loc 1 928 126
	tst	r1, #32
	beq	.L67
	.loc 1 931 7 is_stmt 1
	.loc 1 931 26 is_stmt 0
	ldr	r3, [r2]
.LVL83:
	.loc 1 931 31
	orr	r3, r3, #3
	str	r3, [r2]
.LVL84:
.L65:
	.loc 1 935 5 is_stmt 1
	.loc 1 935 9
	.loc 1 935 24 is_stmt 0
	movs	r3, #0
	strb	r3, [r0, #72]
	.loc 1 935 7 is_stmt 1
	.loc 1 937 5
	.loc 1 937 12 is_stmt 0
	mov	r0, r3
.LVL85:
.L64:
	.loc 1 943 1
	ldr	r4, [sp], #4
	.cfi_remember_state
	.cfi_restore 4
	.cfi_def_cfa_offset 0
	bx	lr
.LVL86:
.L72:
	.cfi_restore_state
	.loc 1 912 11 is_stmt 1
	.loc 1 912 20 is_stmt 0
	ldr	r2, [r0]
	.loc 1 912 30
	ldr	r3, [r2, #4]
.LVL87:
	.loc 1 912 36
	bic	r3, r3, #1
	lsls	r3, r3, #16
	lsrs	r3, r3, #16
	str	r3, [r2, #4]
	.loc 1 913 11 is_stmt 1
	.loc 1 913 20 is_stmt 0
	ldr	r2, [r0]
	.loc 1 913 30
	ldr	r3, [r2, #4]
	.loc 1 913 36
	bic	r3, r3, #2
	lsls	r3, r3, #16
	lsrs	r3, r3, #16
	str	r3, [r2, #4]
	.loc 1 914 11 is_stmt 1
	.loc 1 914 20 is_stmt 0
	ldr	r2, [r0]
	.loc 1 914 30
	ldr	r3, [r2, #4]
	.loc 1 914 36
	bic	r3, r3, #4
	lsls	r3, r3, #16
	lsrs	r3, r3, #16
	str	r3, [r2, #4]
	.loc 1 915 11 is_stmt 1
	.loc 1 915 20 is_stmt 0
	ldr	r2, [r0]
	.loc 1 915 30
	ldr	r3, [r2, #4]
	.loc 1 915 36
	bic	r3, r3, #8
	lsls	r3, r3, #16
	lsrs	r3, r3, #16
	str	r3, [r2, #4]
	.loc 1 916 11 is_stmt 1
	.loc 1 916 20 is_stmt 0
	ldr	r2, [r0]
	.loc 1 916 30
	ldr	r3, [r2, #4]
	.loc 1 916 36
	bic	r3, r3, #16
	lsls	r3, r3, #16
	lsrs	r3, r3, #16
	str	r3, [r2, #4]
	.loc 1 917 11 is_stmt 1
	.loc 1 917 20 is_stmt 0
	ldr	r2, [r0]
	.loc 1 917 30
	ldr	r3, [r2, #4]
	.loc 1 917 36
	bic	r3, r3, #32
	lsls	r3, r3, #16
	lsrs	r3, r3, #16
	str	r3, [r2, #4]
	.loc 1 918 11 is_stmt 1
	.loc 1 918 20 is_stmt 0
	ldr	r2, [r0]
	.loc 1 918 30
	ldr	r3, [r2, #4]
	.loc 1 918 36
	bic	r3, r3, #64
	lsls	r3, r3, #16
	lsrs	r3, r3, #16
	str	r3, [r2, #4]
	.loc 1 920 11 is_stmt 1
	.loc 1 920 25 is_stmt 0
	movs	r3, #1
	strb	r3, [r0, #73]
	.loc 1 923 11 is_stmt 1
	.loc 1 923 15
	.loc 1 923 30 is_stmt 0
	movs	r3, #0
	strb	r3, [r0, #72]
	.loc 1 923 13 is_stmt 1
	.loc 1 925 11
	.loc 1 925 18 is_stmt 0
	movs	r0, #3
.LVL88:
	b	.L64
.LVL89:
.L68:
	.loc 1 941 12
	movs	r0, #2
.LVL90:
	b	.L64
.LVL91:
.L69:
	.loc 1 876 14
	movs	r0, #1
.LVL92:
	b	.L64
.LVL93:
.L70:
	.loc 1 880 51
	movs	r0, #2
.LVL94:
	b	.L64
.L74:
	.align	2
.L73:
	.word	SystemCoreClock
	.word	91625969
	.cfi_endproc
.LFE342:
	.size	HAL_SPDIFRX_ReceiveDataFlow_IT, .-HAL_SPDIFRX_ReceiveDataFlow_IT
	.section	.text.HAL_SPDIFRX_ReceiveCtrlFlow_IT,"ax",%progbits
	.align	1
	.global	HAL_SPDIFRX_ReceiveCtrlFlow_IT
	.syntax unified
	.thumb
	.thumb_func
	.type	HAL_SPDIFRX_ReceiveCtrlFlow_IT, %function
HAL_SPDIFRX_ReceiveCtrlFlow_IT:
.LFB343:
	.loc 1 953 1 is_stmt 1
	.cfi_startproc
	@ args = 0, pretend = 0, frame = 0
	@ frame_needed = 0, uses_anonymous_args = 0
	@ link register save eliminated.
.LVL95:
	push	{r4}
	.cfi_def_cfa_offset 4
	.cfi_offset 4, -4
	.loc 1 954 3
	.loc 1 954 49 is_stmt 0
	ldr	r3, .L85
	ldr	r3, [r3]
	ldr	r4, .L85+4
	umull	r4, r3, r4, r3
	lsrs	r3, r3, #9
	.loc 1 954 12
	add	r3, r3, r3, lsl #2
.LVL96:
	.loc 1 956 3 is_stmt 1
	.loc 1 956 34 is_stmt 0
	ldrb	ip, [r0, #73]	@ zero_extendqisi2
	uxtb	ip, ip
.LVL97:
	.loc 1 958 3 is_stmt 1
	.loc 1 958 6 is_stmt 0
	cmp	ip, #3
	it	ne
	cmpne	ip, #1
	bne	.L80
	lsls	r3, r3, #1
.LVL98:
	.loc 1 960 5 is_stmt 1
	.loc 1 960 8 is_stmt 0
	cmp	r2, #0
	it	ne
	cmpne	r1, #0
	beq	.L81
	.loc 1 966 5 is_stmt 1
	.loc 1 966 9
	.loc 1 966 20 is_stmt 0
	ldrb	r4, [r0, #72]	@ zero_extendqisi2
	uxtb	r4, r4
	.loc 1 966 11
	cmp	r4, #1
	beq	.L82
	.loc 1 966 70 is_stmt 1 discriminator 2
	.loc 1 966 85 is_stmt 0 discriminator 2
	movs	r4, #1
	strb	r4, [r0, #72]
	.loc 1 966 7 is_stmt 1 discriminator 2
	.loc 1 968 5 discriminator 2
	.loc 1 968 24 is_stmt 0 discriminator 2
	str	r1, [r0, #52]
	.loc 1 969 5 is_stmt 1 discriminator 2
	.loc 1 969 24 is_stmt 0 discriminator 2
	strh	r2, [r0, #60]	@ movhi
	.loc 1 970 5 is_stmt 1 discriminator 2
	.loc 1 970 25 is_stmt 0 discriminator 2
	strh	r2, [r0, #62]	@ movhi
	.loc 1 972 5 is_stmt 1 discriminator 2
	.loc 1 972 23 is_stmt 0 discriminator 2
	movs	r2, #0
.LVL99:
	str	r2, [r0, #76]
.LVL100:
	.loc 1 975 5 is_stmt 1 discriminator 2
	.loc 1 975 19 is_stmt 0 discriminator 2
	movs	r2, #4
	strb	r2, [r0, #73]
	.loc 1 978 5 is_stmt 1 discriminator 2
	.loc 1 978 14 is_stmt 0 discriminator 2
	ldr	r1, [r0]
.LVL101:
	.loc 1 978 24 discriminator 2
	ldr	r2, [r1, #4]
	.loc 1 978 30 discriminator 2
	orr	r2, r2, #4
	str	r2, [r1, #4]
.LVL102:
	.loc 1 981 5 is_stmt 1 discriminator 2
	.loc 1 981 14 is_stmt 0 discriminator 2
	ldr	r1, [r0]
	.loc 1 981 24 discriminator 2
	ldr	r2, [r1, #4]
	.loc 1 981 30 discriminator 2
	orr	r2, r2, #8
	str	r2, [r1, #4]
	.loc 1 984 5 is_stmt 1 discriminator 2
	.loc 1 984 14 is_stmt 0 discriminator 2
	ldr	r1, [r0]
	.loc 1 984 24 discriminator 2
	ldr	r2, [r1, #4]
	.loc 1 984 30 discriminator 2
	orr	r2, r2, #2
	str	r2, [r1, #4]
	.loc 1 986 5 is_stmt 1 discriminator 2
	.loc 1 986 59 is_stmt 0 discriminator 2
	mov	r2, #1073758208
	ldr	r2, [r2]
	.loc 1 986 64 discriminator 2
	and	r2, r2, #3
	.loc 1 986 8 discriminator 2
	cmp	r2, #3
	beq	.L77
	.loc 1 989 7 is_stmt 1
	.loc 1 989 16 is_stmt 0
	ldr	r1, [r0]
	.loc 1 989 26
	ldr	r2, [r1]
	.loc 1 989 31
	orrs	r2, r2, r4
	str	r2, [r1]
.LVL103:
.L79:
	.loc 1 992 7 is_stmt 1
	.loc 1 994 9
	.loc 1 994 12 is_stmt 0
	cbz	r3, .L84
	.loc 1 1013 9 is_stmt 1
	.loc 1 1013 14 is_stmt 0
	subs	r3, r3, #1
.LVL104:
	.loc 1 1014 126 is_stmt 1
	.loc 1 1014 28 is_stmt 0
	ldr	r2, [r0]
	.loc 1 1014 38
	ldr	r1, [r2, #8]
	.loc 1 1014 126
	tst	r1, #32
	beq	.L79
	.loc 1 1017 7 is_stmt 1
	.loc 1 1017 26 is_stmt 0
	ldr	r3, [r2]
.LVL105:
	.loc 1 1017 31
	orr	r3, r3, #3
	str	r3, [r2]
.LVL106:
.L77:
	.loc 1 1021 5 is_stmt 1
	.loc 1 1021 9
	.loc 1 1021 24 is_stmt 0
	movs	r3, #0
	strb	r3, [r0, #72]
	.loc 1 1021 7 is_stmt 1
	.loc 1 1023 5
	.loc 1 1023 12 is_stmt 0
	mov	r0, r3
.LVL107:
.L76:
	.loc 1 1029 1
	ldr	r4, [sp], #4
	.cfi_remember_state
	.cfi_restore 4
	.cfi_def_cfa_offset 0
	bx	lr
.LVL108:
.L84:
	.cfi_restore_state
	.loc 1 998 11 is_stmt 1
	.loc 1 998 20 is_stmt 0
	ldr	r2, [r0]
	.loc 1 998 30
	ldr	r3, [r2, #4]
.LVL109:
	.loc 1 998 36
	bic	r3, r3, #1
	lsls	r3, r3, #16
	lsrs	r3, r3, #16
	str	r3, [r2, #4]
	.loc 1 999 11 is_stmt 1
	.loc 1 999 20 is_stmt 0
	ldr	r2, [r0]
	.loc 1 999 30
	ldr	r3, [r2, #4]
	.loc 1 999 36
	bic	r3, r3, #2
	lsls	r3, r3, #16
	lsrs	r3, r3, #16
	str	r3, [r2, #4]
	.loc 1 1000 11 is_stmt 1
	.loc 1 1000 20 is_stmt 0
	ldr	r2, [r0]
	.loc 1 1000 30
	ldr	r3, [r2, #4]
	.loc 1 1000 36
	bic	r3, r3, #4
	lsls	r3, r3, #16
	lsrs	r3, r3, #16
	str	r3, [r2, #4]
	.loc 1 1001 11 is_stmt 1
	.loc 1 1001 20 is_stmt 0
	ldr	r2, [r0]
	.loc 1 1001 30
	ldr	r3, [r2, #4]
	.loc 1 1001 36
	bic	r3, r3, #8
	lsls	r3, r3, #16
	lsrs	r3, r3, #16
	str	r3, [r2, #4]
	.loc 1 1002 11 is_stmt 1
	.loc 1 1002 20 is_stmt 0
	ldr	r2, [r0]
	.loc 1 1002 30
	ldr	r3, [r2, #4]
	.loc 1 1002 36
	bic	r3, r3, #16
	lsls	r3, r3, #16
	lsrs	r3, r3, #16
	str	r3, [r2, #4]
	.loc 1 1003 11 is_stmt 1
	.loc 1 1003 20 is_stmt 0
	ldr	r2, [r0]
	.loc 1 1003 30
	ldr	r3, [r2, #4]
	.loc 1 1003 36
	bic	r3, r3, #32
	lsls	r3, r3, #16
	lsrs	r3, r3, #16
	str	r3, [r2, #4]
	.loc 1 1004 11 is_stmt 1
	.loc 1 1004 20 is_stmt 0
	ldr	r2, [r0]
	.loc 1 1004 30
	ldr	r3, [r2, #4]
	.loc 1 1004 36
	bic	r3, r3, #64
	lsls	r3, r3, #16
	lsrs	r3, r3, #16
	str	r3, [r2, #4]
	.loc 1 1006 11 is_stmt 1
	.loc 1 1006 25 is_stmt 0
	movs	r3, #1
	strb	r3, [r0, #73]
	.loc 1 1009 11 is_stmt 1
	.loc 1 1009 15
	.loc 1 1009 30 is_stmt 0
	movs	r3, #0
	strb	r3, [r0, #72]
	.loc 1 1009 13 is_stmt 1
	.loc 1 1011 11
	.loc 1 1011 18 is_stmt 0
	movs	r0, #3
.LVL110:
	b	.L76
.LVL111:
.L80:
	.loc 1 1027 12
	movs	r0, #2
.LVL112:
	b	.L76
.LVL113:
.L81:
	.loc 1 962 14
	movs	r0, #1
.LVL114:
	b	.L76
.LVL115:
.L82:
	.loc 1 966 51
	movs	r0, #2
.LVL116:
	b	.L76
.L86:
	.align	2
.L85:
	.word	SystemCoreClock
	.word	91625969
	.cfi_endproc
.LFE343:
	.size	HAL_SPDIFRX_ReceiveCtrlFlow_IT, .-HAL_SPDIFRX_ReceiveCtrlFlow_IT
	.section	.text.HAL_SPDIFRX_ReceiveDataFlow_DMA,"ax",%progbits
	.align	1
	.global	HAL_SPDIFRX_ReceiveDataFlow_DMA
	.syntax unified
	.thumb
	.thumb_func
	.type	HAL_SPDIFRX_ReceiveDataFlow_DMA, %function
HAL_SPDIFRX_ReceiveDataFlow_DMA:
.LFB344:
	.loc 1 1039 1 is_stmt 1
	.cfi_startproc
	@ args = 0, pretend = 0, frame = 0
	@ frame_needed = 0, uses_anonymous_args = 0
.LVL117:
	push	{r4, r5, r6, lr}
	.cfi_def_cfa_offset 16
	.cfi_offset 4, -16
	.cfi_offset 5, -12
	.cfi_offset 6, -8
	.cfi_offset 14, -4
	mov	r5, r0
	.loc 1 1040 3
	.loc 1 1040 49 is_stmt 0
	ldr	r3, .L99
	ldr	r4, [r3]
	ldr	r3, .L99+4
	umull	r3, r4, r3, r4
	lsrs	r4, r4, #9
	.loc 1 1040 12
	add	r4, r4, r4, lsl #2
.LVL118:
	.loc 1 1042 3 is_stmt 1
	.loc 1 1042 34 is_stmt 0
	ldrb	r0, [r0, #73]	@ zero_extendqisi2
.LVL119:
	.loc 1 1044 3 is_stmt 1
	.loc 1 1044 6 is_stmt 0
	cmp	r2, #0
	it	ne
	cmpne	r1, #0
	beq	.L93
	lsls	r4, r4, #1
.LVL120:
	uxtb	r0, r0
	mov	r3, r2
	.loc 1 1049 3 is_stmt 1
	.loc 1 1049 6 is_stmt 0
	cmp	r0, #4
	it	ne
	cmpne	r0, #1
	bne	.L94
	.loc 1 1052 5 is_stmt 1
	.loc 1 1052 9
	.loc 1 1052 20 is_stmt 0
	ldrb	r2, [r5, #72]	@ zero_extendqisi2
.LVL121:
	uxtb	r2, r2
	.loc 1 1052 11
	cmp	r2, #1
	beq	.L95
	.loc 1 1052 70 is_stmt 1 discriminator 2
	.loc 1 1052 85 is_stmt 0 discriminator 2
	movs	r2, #1
	strb	r2, [r5, #72]
	.loc 1 1052 7 is_stmt 1 discriminator 2
	.loc 1 1054 5 discriminator 2
	.loc 1 1054 24 is_stmt 0 discriminator 2
	str	r1, [r5, #48]
	.loc 1 1055 5 is_stmt 1 discriminator 2
	.loc 1 1055 24 is_stmt 0 discriminator 2
	strh	r3, [r5, #56]	@ movhi
	.loc 1 1056 5 is_stmt 1 discriminator 2
	.loc 1 1056 25 is_stmt 0 discriminator 2
	strh	r3, [r5, #58]	@ movhi
	.loc 1 1058 5 is_stmt 1 discriminator 2
	.loc 1 1058 23 is_stmt 0 discriminator 2
	movs	r2, #0
	str	r2, [r5, #76]
	.loc 1 1059 5 is_stmt 1 discriminator 2
	.loc 1 1059 19 is_stmt 0 discriminator 2
	movs	r2, #3
	strb	r2, [r5, #73]
	.loc 1 1062 5 is_stmt 1 discriminator 2
	.loc 1 1062 11 is_stmt 0 discriminator 2
	ldr	r2, [r5, #68]
	.loc 1 1062 44 discriminator 2
	ldr	r1, .L99+8
.LVL122:
	str	r1, [r2, #64]
.LVL123:
	.loc 1 1065 5 is_stmt 1 discriminator 2
	.loc 1 1065 11 is_stmt 0 discriminator 2
	ldr	r2, [r5, #68]
	.loc 1 1065 40 discriminator 2
	ldr	r1, .L99+12
	str	r1, [r2, #60]
	.loc 1 1068 5 is_stmt 1 discriminator 2
	.loc 1 1068 11 is_stmt 0 discriminator 2
	ldr	r2, [r5, #68]
	.loc 1 1068 41 discriminator 2
	ldr	r1, .L99+16
	str	r1, [r2, #76]
	.loc 1 1071 5 is_stmt 1 discriminator 2
	.loc 1 1071 61 is_stmt 0 discriminator 2
	ldr	r1, [r5]
	.loc 1 1071 9 discriminator 2
	ldr	r2, [r5, #48]
	adds	r1, r1, #16
	ldr	r0, [r5, #68]
.LVL124:
	bl	HAL_DMA_Start_IT
.LVL125:
	.loc 1 1071 8 discriminator 2
	cbnz	r0, .L97
	.loc 1 1087 5 is_stmt 1
	.loc 1 1087 11 is_stmt 0
	ldr	r2, [r5]
	.loc 1 1087 21
	ldr	r3, [r2]
	.loc 1 1087 26
	orr	r3, r3, #4
	str	r3, [r2]
	.loc 1 1089 5 is_stmt 1
	.loc 1 1089 59 is_stmt 0
	mov	r3, #1073758208
	ldr	r3, [r3]
	.loc 1 1089 64
	and	r3, r3, #3
	.loc 1 1089 8
	cmp	r3, #3
	beq	.L90
	.loc 1 1092 7 is_stmt 1
	.loc 1 1092 16 is_stmt 0
	ldr	r2, [r5]
	.loc 1 1092 26
	ldr	r3, [r2]
	.loc 1 1092 31
	orr	r3, r3, #1
	str	r3, [r2]
.LVL126:
.L92:
	.loc 1 1095 7 is_stmt 1
	.loc 1 1097 9
	.loc 1 1097 12 is_stmt 0
	cbz	r4, .L98
	.loc 1 1116 9 is_stmt 1
	.loc 1 1116 14 is_stmt 0
	subs	r4, r4, #1
.LVL127:
	.loc 1 1117 126 is_stmt 1
	.loc 1 1117 28 is_stmt 0
	ldr	r3, [r5]
	.loc 1 1117 38
	ldr	r2, [r3, #8]
	.loc 1 1117 126
	tst	r2, #32
	beq	.L92
	.loc 1 1120 7 is_stmt 1
	.loc 1 1120 26 is_stmt 0
	ldr	r2, [r3]
	.loc 1 1120 31
	orr	r2, r2, #3
	str	r2, [r3]
.LVL128:
.L90:
	.loc 1 1124 5 is_stmt 1
	.loc 1 1124 9
	.loc 1 1124 24 is_stmt 0
	movs	r3, #0
	strb	r3, [r5, #72]
	.loc 1 1124 7 is_stmt 1
	.loc 1 1126 5
	.loc 1 1126 12 is_stmt 0
	b	.L88
.LVL129:
.L97:
	.loc 1 1075 7 is_stmt 1
	.loc 1 1075 25 is_stmt 0
	movs	r3, #8
	str	r3, [r5, #76]
	.loc 1 1078 7 is_stmt 1
	.loc 1 1078 21 is_stmt 0
	movs	r3, #7
	strb	r3, [r5, #73]
	.loc 1 1081 7 is_stmt 1
	.loc 1 1081 11
	.loc 1 1081 26 is_stmt 0
	movs	r3, #0
	strb	r3, [r5, #72]
	.loc 1 1081 9 is_stmt 1
	.loc 1 1083 7
	.loc 1 1083 14 is_stmt 0
	movs	r0, #1
	b	.L88
.L98:
	.loc 1 1101 11 is_stmt 1
	.loc 1 1101 20 is_stmt 0
	ldr	r2, [r5]
	.loc 1 1101 30
	ldr	r3, [r2, #4]
	.loc 1 1101 36
	bic	r3, r3, #1
	lsls	r3, r3, #16
	lsrs	r3, r3, #16
	str	r3, [r2, #4]
	.loc 1 1102 11 is_stmt 1
	.loc 1 1102 20 is_stmt 0
	ldr	r2, [r5]
	.loc 1 1102 30
	ldr	r3, [r2, #4]
	.loc 1 1102 36
	bic	r3, r3, #2
	lsls	r3, r3, #16
	lsrs	r3, r3, #16
	str	r3, [r2, #4]
	.loc 1 1103 11 is_stmt 1
	.loc 1 1103 20 is_stmt 0
	ldr	r2, [r5]
	.loc 1 1103 30
	ldr	r3, [r2, #4]
	.loc 1 1103 36
	bic	r3, r3, #4
	lsls	r3, r3, #16
	lsrs	r3, r3, #16
	str	r3, [r2, #4]
	.loc 1 1104 11 is_stmt 1
	.loc 1 1104 20 is_stmt 0
	ldr	r2, [r5]
	.loc 1 1104 30
	ldr	r3, [r2, #4]
	.loc 1 1104 36
	bic	r3, r3, #8
	lsls	r3, r3, #16
	lsrs	r3, r3, #16
	str	r3, [r2, #4]
	.loc 1 1105 11 is_stmt 1
	.loc 1 1105 20 is_stmt 0
	ldr	r2, [r5]
	.loc 1 1105 30
	ldr	r3, [r2, #4]
	.loc 1 1105 36
	bic	r3, r3, #16
	lsls	r3, r3, #16
	lsrs	r3, r3, #16
	str	r3, [r2, #4]
	.loc 1 1106 11 is_stmt 1
	.loc 1 1106 20 is_stmt 0
	ldr	r2, [r5]
	.loc 1 1106 30
	ldr	r3, [r2, #4]
	.loc 1 1106 36
	bic	r3, r3, #32
	lsls	r3, r3, #16
	lsrs	r3, r3, #16
	str	r3, [r2, #4]
	.loc 1 1107 11 is_stmt 1
	.loc 1 1107 20 is_stmt 0
	ldr	r2, [r5]
	.loc 1 1107 30
	ldr	r3, [r2, #4]
	.loc 1 1107 36
	bic	r3, r3, #64
	lsls	r3, r3, #16
	lsrs	r3, r3, #16
	str	r3, [r2, #4]
	.loc 1 1109 11 is_stmt 1
	.loc 1 1109 25 is_stmt 0
	movs	r3, #1
	strb	r3, [r5, #73]
	.loc 1 1112 11 is_stmt 1
	.loc 1 1112 15
	.loc 1 1112 30 is_stmt 0
	movs	r3, #0
	strb	r3, [r5, #72]
	.loc 1 1112 13 is_stmt 1
	.loc 1 1114 11
	.loc 1 1114 18 is_stmt 0
	movs	r0, #3
	b	.L88
.LVL130:
.L93:
	.loc 1 1046 12
	movs	r0, #1
.LVL131:
.L88:
	.loc 1 1132 1
	pop	{r4, r5, r6, pc}
.LVL132:
.L94:
	.loc 1 1130 12
	movs	r0, #2
.LVL133:
	b	.L88
.LVL134:
.L95:
	.loc 1 1052 51
	movs	r0, #2
.LVL135:
	b	.L88
.L100:
	.align	2
.L99:
	.word	SystemCoreClock
	.word	91625969
	.word	SPDIFRX_DMARxHalfCplt
	.word	SPDIFRX_DMARxCplt
	.word	SPDIFRX_DMAError
	.cfi_endproc
.LFE344:
	.size	HAL_SPDIFRX_ReceiveDataFlow_DMA, .-HAL_SPDIFRX_ReceiveDataFlow_DMA
	.section	.text.HAL_SPDIFRX_ReceiveCtrlFlow_DMA,"ax",%progbits
	.align	1
	.global	HAL_SPDIFRX_ReceiveCtrlFlow_DMA
	.syntax unified
	.thumb
	.thumb_func
	.type	HAL_SPDIFRX_ReceiveCtrlFlow_DMA, %function
HAL_SPDIFRX_ReceiveCtrlFlow_DMA:
.LFB345:
	.loc 1 1142 1 is_stmt 1
	.cfi_startproc
	@ args = 0, pretend = 0, frame = 0
	@ frame_needed = 0, uses_anonymous_args = 0
.LVL136:
	push	{r4, r5, r6, lr}
	.cfi_def_cfa_offset 16
	.cfi_offset 4, -16
	.cfi_offset 5, -12
	.cfi_offset 6, -8
	.cfi_offset 14, -4
	mov	r5, r0
	.loc 1 1143 3
	.loc 1 1143 49 is_stmt 0
	ldr	r3, .L113
	ldr	r4, [r3]
	ldr	r3, .L113+4
	umull	r3, r4, r3, r4
	lsrs	r4, r4, #9
	.loc 1 1143 12
	add	r4, r4, r4, lsl #2
.LVL137:
	.loc 1 1145 3 is_stmt 1
	.loc 1 1145 34 is_stmt 0
	ldrb	r0, [r0, #73]	@ zero_extendqisi2
.LVL138:
	.loc 1 1147 3 is_stmt 1
	.loc 1 1147 6 is_stmt 0
	cmp	r2, #0
	it	ne
	cmpne	r1, #0
	beq	.L107
	lsls	r4, r4, #1
.LVL139:
	uxtb	r0, r0
	mov	r3, r2
	.loc 1 1152 3 is_stmt 1
	.loc 1 1152 6 is_stmt 0
	cmp	r0, #3
	it	ne
	cmpne	r0, #1
	bne	.L108
	.loc 1 1154 5 is_stmt 1
	.loc 1 1154 24 is_stmt 0
	str	r1, [r5, #52]
	.loc 1 1155 5 is_stmt 1
	.loc 1 1155 24 is_stmt 0
	strh	r2, [r5, #60]	@ movhi
	.loc 1 1156 5 is_stmt 1
	.loc 1 1156 25 is_stmt 0
	strh	r2, [r5, #62]	@ movhi
	.loc 1 1159 5 is_stmt 1
	.loc 1 1159 9
	.loc 1 1159 20 is_stmt 0
	ldrb	r2, [r5, #72]	@ zero_extendqisi2
.LVL140:
	uxtb	r2, r2
	.loc 1 1159 11
	cmp	r2, #1
	beq	.L109
	.loc 1 1159 70 is_stmt 1 discriminator 2
	.loc 1 1159 85 is_stmt 0 discriminator 2
	movs	r2, #1
	strb	r2, [r5, #72]
.LVL141:
	.loc 1 1159 7 is_stmt 1 discriminator 2
	.loc 1 1161 5 discriminator 2
	.loc 1 1161 23 is_stmt 0 discriminator 2
	movs	r2, #0
	str	r2, [r5, #76]
	.loc 1 1162 5 is_stmt 1 discriminator 2
	.loc 1 1162 19 is_stmt 0 discriminator 2
	movs	r2, #4
	strb	r2, [r5, #73]
	.loc 1 1165 5 is_stmt 1 discriminator 2
	.loc 1 1165 11 is_stmt 0 discriminator 2
	ldr	r2, [r5, #64]
	.loc 1 1165 44 discriminator 2
	ldr	r1, .L113+8
.LVL142:
	str	r1, [r2, #64]
.LVL143:
	.loc 1 1168 5 is_stmt 1 discriminator 2
	.loc 1 1168 11 is_stmt 0 discriminator 2
	ldr	r2, [r5, #64]
	.loc 1 1168 40 discriminator 2
	ldr	r1, .L113+12
	str	r1, [r2, #60]
	.loc 1 1171 5 is_stmt 1 discriminator 2
	.loc 1 1171 11 is_stmt 0 discriminator 2
	ldr	r2, [r5, #64]
	.loc 1 1171 41 discriminator 2
	ldr	r1, .L113+16
	str	r1, [r2, #76]
	.loc 1 1174 5 is_stmt 1 discriminator 2
	.loc 1 1174 61 is_stmt 0 discriminator 2
	ldr	r1, [r5]
	.loc 1 1174 9 discriminator 2
	ldr	r2, [r5, #52]
	adds	r1, r1, #20
	ldr	r0, [r5, #64]
.LVL144:
	bl	HAL_DMA_Start_IT
.LVL145:
	.loc 1 1174 8 discriminator 2
	cbnz	r0, .L111
	.loc 1 1190 5 is_stmt 1
	.loc 1 1190 11 is_stmt 0
	ldr	r2, [r5]
	.loc 1 1190 21
	ldr	r3, [r2]
	.loc 1 1190 26
	orr	r3, r3, #1024
	str	r3, [r2]
	.loc 1 1192 5 is_stmt 1
	.loc 1 1192 59 is_stmt 0
	mov	r3, #1073758208
	ldr	r3, [r3]
	.loc 1 1192 64
	and	r3, r3, #3
	.loc 1 1192 8
	cmp	r3, #3
	beq	.L104
	.loc 1 1195 7 is_stmt 1
	.loc 1 1195 16 is_stmt 0
	ldr	r2, [r5]
	.loc 1 1195 26
	ldr	r3, [r2]
	.loc 1 1195 31
	orr	r3, r3, #1
	str	r3, [r2]
.LVL146:
.L106:
	.loc 1 1198 7 is_stmt 1
	.loc 1 1200 9
	.loc 1 1200 12 is_stmt 0
	cbz	r4, .L112
	.loc 1 1219 9 is_stmt 1
	.loc 1 1219 14 is_stmt 0
	subs	r4, r4, #1
.LVL147:
	.loc 1 1220 126 is_stmt 1
	.loc 1 1220 28 is_stmt 0
	ldr	r3, [r5]
	.loc 1 1220 38
	ldr	r2, [r3, #8]
	.loc 1 1220 126
	tst	r2, #32
	beq	.L106
	.loc 1 1223 7 is_stmt 1
	.loc 1 1223 26 is_stmt 0
	ldr	r2, [r3]
	.loc 1 1223 31
	orr	r2, r2, #3
	str	r2, [r3]
.LVL148:
.L104:
	.loc 1 1227 5 is_stmt 1
	.loc 1 1227 9
	.loc 1 1227 24 is_stmt 0
	movs	r3, #0
	strb	r3, [r5, #72]
	.loc 1 1227 7 is_stmt 1
	.loc 1 1229 5
	.loc 1 1229 12 is_stmt 0
	b	.L102
.LVL149:
.L111:
	.loc 1 1178 7 is_stmt 1
	.loc 1 1178 25 is_stmt 0
	movs	r3, #8
	str	r3, [r5, #76]
	.loc 1 1181 7 is_stmt 1
	.loc 1 1181 21 is_stmt 0
	movs	r3, #7
	strb	r3, [r5, #73]
	.loc 1 1184 7 is_stmt 1
	.loc 1 1184 11
	.loc 1 1184 26 is_stmt 0
	movs	r3, #0
	strb	r3, [r5, #72]
	.loc 1 1184 9 is_stmt 1
	.loc 1 1186 7
	.loc 1 1186 14 is_stmt 0
	movs	r0, #1
	b	.L102
.L112:
	.loc 1 1204 11 is_stmt 1
	.loc 1 1204 20 is_stmt 0
	ldr	r2, [r5]
	.loc 1 1204 30
	ldr	r3, [r2, #4]
	.loc 1 1204 36
	bic	r3, r3, #1
	lsls	r3, r3, #16
	lsrs	r3, r3, #16
	str	r3, [r2, #4]
	.loc 1 1205 11 is_stmt 1
	.loc 1 1205 20 is_stmt 0
	ldr	r2, [r5]
	.loc 1 1205 30
	ldr	r3, [r2, #4]
	.loc 1 1205 36
	bic	r3, r3, #2
	lsls	r3, r3, #16
	lsrs	r3, r3, #16
	str	r3, [r2, #4]
	.loc 1 1206 11 is_stmt 1
	.loc 1 1206 20 is_stmt 0
	ldr	r2, [r5]
	.loc 1 1206 30
	ldr	r3, [r2, #4]
	.loc 1 1206 36
	bic	r3, r3, #4
	lsls	r3, r3, #16
	lsrs	r3, r3, #16
	str	r3, [r2, #4]
	.loc 1 1207 11 is_stmt 1
	.loc 1 1207 20 is_stmt 0
	ldr	r2, [r5]
	.loc 1 1207 30
	ldr	r3, [r2, #4]
	.loc 1 1207 36
	bic	r3, r3, #8
	lsls	r3, r3, #16
	lsrs	r3, r3, #16
	str	r3, [r2, #4]
	.loc 1 1208 11 is_stmt 1
	.loc 1 1208 20 is_stmt 0
	ldr	r2, [r5]
	.loc 1 1208 30
	ldr	r3, [r2, #4]
	.loc 1 1208 36
	bic	r3, r3, #16
	lsls	r3, r3, #16
	lsrs	r3, r3, #16
	str	r3, [r2, #4]
	.loc 1 1209 11 is_stmt 1
	.loc 1 1209 20 is_stmt 0
	ldr	r2, [r5]
	.loc 1 1209 30
	ldr	r3, [r2, #4]
	.loc 1 1209 36
	bic	r3, r3, #32
	lsls	r3, r3, #16
	lsrs	r3, r3, #16
	str	r3, [r2, #4]
	.loc 1 1210 11 is_stmt 1
	.loc 1 1210 20 is_stmt 0
	ldr	r2, [r5]
	.loc 1 1210 30
	ldr	r3, [r2, #4]
	.loc 1 1210 36
	bic	r3, r3, #64
	lsls	r3, r3, #16
	lsrs	r3, r3, #16
	str	r3, [r2, #4]
	.loc 1 1212 11 is_stmt 1
	.loc 1 1212 25 is_stmt 0
	movs	r3, #1
	strb	r3, [r5, #73]
	.loc 1 1215 11 is_stmt 1
	.loc 1 1215 15
	.loc 1 1215 30 is_stmt 0
	movs	r3, #0
	strb	r3, [r5, #72]
	.loc 1 1215 13 is_stmt 1
	.loc 1 1217 11
	.loc 1 1217 18 is_stmt 0
	movs	r0, #3
	b	.L102
.LVL150:
.L107:
	.loc 1 1149 12
	movs	r0, #1
.LVL151:
.L102:
	.loc 1 1235 1
	pop	{r4, r5, r6, pc}
.LVL152:
.L108:
	.loc 1 1233 12
	movs	r0, #2
.LVL153:
	b	.L102
.LVL154:
.L109:
	.loc 1 1159 51
	movs	r0, #2
.LVL155:
	b	.L102
.L114:
	.align	2
.L113:
	.word	SystemCoreClock
	.word	91625969
	.word	SPDIFRX_DMACxHalfCplt
	.word	SPDIFRX_DMACxCplt
	.word	SPDIFRX_DMAError
	.cfi_endproc
.LFE345:
	.size	HAL_SPDIFRX_ReceiveCtrlFlow_DMA, .-HAL_SPDIFRX_ReceiveCtrlFlow_DMA
	.section	.text.HAL_SPDIFRX_DMAStop,"ax",%progbits
	.align	1
	.global	HAL_SPDIFRX_DMAStop
	.syntax unified
	.thumb
	.thumb_func
	.type	HAL_SPDIFRX_DMAStop, %function
HAL_SPDIFRX_DMAStop:
.LFB346:
	.loc 1 1243 1 is_stmt 1
	.cfi_startproc
	@ args = 0, pretend = 0, frame = 0
	@ frame_needed = 0, uses_anonymous_args = 0
	@ link register save eliminated.
.LVL156:
	mov	r3, r0
	.loc 1 1245 3
	.loc 1 1245 7
	.loc 1 1245 18 is_stmt 0
	ldrb	r2, [r0, #72]	@ zero_extendqisi2
	uxtb	r2, r2
	.loc 1 1245 9
	cmp	r2, #1
	beq	.L123
	.loc 1 1245 68 is_stmt 1 discriminator 2
	.loc 1 1245 83 is_stmt 0 discriminator 2
	movs	r2, #1
	strb	r2, [r0, #72]
	.loc 1 1245 5 is_stmt 1 discriminator 2
	.loc 1 1248 3 discriminator 2
	.loc 1 1248 9 is_stmt 0 discriminator 2
	ldr	r1, [r0]
	.loc 1 1248 19 discriminator 2
	ldr	r2, [r1]
	.loc 1 1248 24 discriminator 2
	bic	r2, r2, #4
	lsls	r2, r2, #16
	lsrs	r2, r2, #16
	str	r2, [r1]
	.loc 1 1249 3 is_stmt 1 discriminator 2
	.loc 1 1249 9 is_stmt 0 discriminator 2
	ldr	r1, [r0]
	.loc 1 1249 19 discriminator 2
	ldr	r2, [r1]
	.loc 1 1249 24 discriminator 2
	bic	r2, r2, #1024
	lsls	r2, r2, #16
	lsrs	r2, r2, #16
	str	r2, [r1]
	.loc 1 1252 3 is_stmt 1 discriminator 2
	.loc 1 1252 13 is_stmt 0 discriminator 2
	ldr	r2, [r0, #68]
	.loc 1 1252 6 discriminator 2
	cmp	r2, #0
	beq	.L117
	.loc 1 1254 5 is_stmt 1
	.loc 1 1254 28 is_stmt 0
	ldr	r2, [r2]
	.loc 1 1254 2023
	ldr	r0, .L124
.LVL157:
	ldr	r1, .L124+4
	cmp	r2, r1
	it	ne
	cmpne	r2, r0
	beq	.L118
	.loc 1 1254 247 discriminator 2
	adds	r1, r1, #24
	cmp	r2, r1
	beq	.L118
	.loc 1 1254 368 discriminator 4
	adds	r1, r1, #24
	cmp	r2, r1
	beq	.L118
	.loc 1 1254 489 discriminator 6
	adds	r1, r1, #24
	cmp	r2, r1
	beq	.L118
	.loc 1 1254 610 discriminator 8
	adds	r1, r1, #24
	cmp	r2, r1
	beq	.L118
	.loc 1 1254 731 discriminator 10
	adds	r1, r1, #24
	cmp	r2, r1
	beq	.L118
	.loc 1 1254 852 discriminator 12
	adds	r1, r1, #24
	cmp	r2, r1
	beq	.L118
	.loc 1 1254 973 discriminator 14
	add	r1, r1, #856
	cmp	r2, r1
	beq	.L118
	.loc 1 1254 1094 discriminator 16
	adds	r1, r1, #24
	cmp	r2, r1
	beq	.L118
	.loc 1 1254 1215 discriminator 18
	adds	r1, r1, #24
	cmp	r2, r1
	beq	.L118
	.loc 1 1254 1336 discriminator 20
	adds	r1, r1, #24
	cmp	r2, r1
	beq	.L118
	.loc 1 1254 1457 discriminator 22
	adds	r1, r1, #24
	cmp	r2, r1
	beq	.L118
	.loc 1 1254 1578 discriminator 24
	adds	r1, r1, #24
	cmp	r2, r1
	beq	.L118
	.loc 1 1254 1699 discriminator 26
	adds	r1, r1, #24
	cmp	r2, r1
	beq	.L118
	.loc 1 1254 1820 discriminator 28
	adds	r1, r1, #24
	cmp	r2, r1
	beq	.L118
	.loc 1 1254 2080 discriminator 30
	ldr	r1, [r2]
	.loc 1 1254 2086 discriminator 30
	bic	r1, r1, #1
	str	r1, [r2]
	b	.L117
.L118:
	.loc 1 1254 1997 discriminator 29
	ldr	r1, [r2]
	.loc 1 1254 2002 discriminator 29
	bic	r1, r1, #1
	str	r1, [r2]
.L117:
	.loc 1 1256 3 is_stmt 1
	.loc 1 1256 13 is_stmt 0
	ldr	r2, [r3, #64]
	.loc 1 1256 6
	cmp	r2, #0
	beq	.L120
	.loc 1 1258 5 is_stmt 1
	.loc 1 1258 28 is_stmt 0
	ldr	r2, [r2]
	.loc 1 1258 2023
	ldr	r0, .L124
	ldr	r1, .L124+4
	cmp	r2, r1
	it	ne
	cmpne	r2, r0
	beq	.L121
	.loc 1 1258 247 discriminator 2
	adds	r1, r1, #24
	cmp	r2, r1
	beq	.L121
	.loc 1 1258 368 discriminator 4
	adds	r1, r1, #24
	cmp	r2, r1
	beq	.L121
	.loc 1 1258 489 discriminator 6
	adds	r1, r1, #24
	cmp	r2, r1
	beq	.L121
	.loc 1 1258 610 discriminator 8
	adds	r1, r1, #24
	cmp	r2, r1
	beq	.L121
	.loc 1 1258 731 discriminator 10
	adds	r1, r1, #24
	cmp	r2, r1
	beq	.L121
	.loc 1 1258 852 discriminator 12
	adds	r1, r1, #24
	cmp	r2, r1
	beq	.L121
	.loc 1 1258 973 discriminator 14
	add	r1, r1, #856
	cmp	r2, r1
	beq	.L121
	.loc 1 1258 1094 discriminator 16
	adds	r1, r1, #24
	cmp	r2, r1
	beq	.L121
	.loc 1 1258 1215 discriminator 18
	adds	r1, r1, #24
	cmp	r2, r1
	beq	.L121
	.loc 1 1258 1336 discriminator 20
	adds	r1, r1, #24
	cmp	r2, r1
	beq	.L121
	.loc 1 1258 1457 discriminator 22
	adds	r1, r1, #24
	cmp	r2, r1
	beq	.L121
	.loc 1 1258 1578 discriminator 24
	adds	r1, r1, #24
	cmp	r2, r1
	beq	.L121
	.loc 1 1258 1699 discriminator 26
	adds	r1, r1, #24
	cmp	r2, r1
	beq	.L121
	.loc 1 1258 1820 discriminator 28
	adds	r1, r1, #24
	cmp	r2, r1
	beq	.L121
	.loc 1 1258 2080 discriminator 30
	ldr	r1, [r2]
	.loc 1 1258 2086 discriminator 30
	bic	r1, r1, #1
	str	r1, [r2]
	b	.L120
.L121:
	.loc 1 1258 1997 discriminator 29
	ldr	r1, [r2]
	.loc 1 1258 2002 discriminator 29
	bic	r1, r1, #1
	str	r1, [r2]
.L120:
	.loc 1 1262 3 is_stmt 1
	.loc 1 1262 12 is_stmt 0
	ldr	r1, [r3]
	.loc 1 1262 22
	ldr	r2, [r1]
	.loc 1 1262 27
	bic	r2, r2, #3
	str	r2, [r1]
	.loc 1 1264 3 is_stmt 1
	.loc 1 1264 17 is_stmt 0
	movs	r2, #1
	strb	r2, [r3, #73]
	.loc 1 1267 3 is_stmt 1
	.loc 1 1267 7
	.loc 1 1267 22 is_stmt 0
	movs	r0, #0
	strb	r0, [r3, #72]
	.loc 1 1267 5 is_stmt 1
	.loc 1 1269 3
	.loc 1 1269 10 is_stmt 0
	bx	lr
.LVL158:
.L123:
	.loc 1 1245 49
	movs	r0, #2
.LVL159:
	.loc 1 1270 1
	bx	lr
.L125:
	.align	2
.L124:
	.word	1073872912
	.word	1073872936
	.cfi_endproc
.LFE346:
	.size	HAL_SPDIFRX_DMAStop, .-HAL_SPDIFRX_DMAStop
	.section	.text.HAL_SPDIFRX_RxHalfCpltCallback,"ax",%progbits
	.align	1
	.weak	HAL_SPDIFRX_RxHalfCpltCallback
	.syntax unified
	.thumb
	.thumb_func
	.type	HAL_SPDIFRX_RxHalfCpltCallback, %function
HAL_SPDIFRX_RxHalfCpltCallback:
.LFB348:
	.loc 1 1327 1 is_stmt 1
	.cfi_startproc
	@ args = 0, pretend = 0, frame = 0
	@ frame_needed = 0, uses_anonymous_args = 0
	@ link register save eliminated.
.LVL160:
	.loc 1 1329 3
	.loc 1 1334 1 is_stmt 0
	bx	lr
	.cfi_endproc
.LFE348:
	.size	HAL_SPDIFRX_RxHalfCpltCallback, .-HAL_SPDIFRX_RxHalfCpltCallback
	.section	.text.SPDIFRX_DMARxHalfCplt,"ax",%progbits
	.align	1
	.syntax unified
	.thumb
	.thumb_func
	.type	SPDIFRX_DMARxHalfCplt, %function
SPDIFRX_DMARxHalfCplt:
.LFB356:
	.loc 1 1468 1 is_stmt 1
	.cfi_startproc
	@ args = 0, pretend = 0, frame = 0
	@ frame_needed = 0, uses_anonymous_args = 0
.LVL161:
	push	{r3, lr}
	.cfi_def_cfa_offset 8
	.cfi_offset 3, -8
	.cfi_offset 14, -4
	.loc 1 1469 3
.LVL162:
	.loc 1 1474 3
	ldr	r0, [r0, #56]
.LVL163:
	bl	HAL_SPDIFRX_RxHalfCpltCallback
.LVL164:
	.loc 1 1476 1 is_stmt 0
	pop	{r3, pc}
	.cfi_endproc
.LFE356:
	.size	SPDIFRX_DMARxHalfCplt, .-SPDIFRX_DMARxHalfCplt
	.section	.text.HAL_SPDIFRX_RxCpltCallback,"ax",%progbits
	.align	1
	.weak	HAL_SPDIFRX_RxCpltCallback
	.syntax unified
	.thumb
	.thumb_func
	.type	HAL_SPDIFRX_RxCpltCallback, %function
HAL_SPDIFRX_RxCpltCallback:
.LFB349:
	.loc 1 1342 1 is_stmt 1
	.cfi_startproc
	@ args = 0, pretend = 0, frame = 0
	@ frame_needed = 0, uses_anonymous_args = 0
	@ link register save eliminated.
.LVL165:
	.loc 1 1344 3
	.loc 1 1349 1 is_stmt 0
	bx	lr
	.cfi_endproc
.LFE349:
	.size	HAL_SPDIFRX_RxCpltCallback, .-HAL_SPDIFRX_RxCpltCallback
	.section	.text.SPDIFRX_DMARxCplt,"ax",%progbits
	.align	1
	.syntax unified
	.thumb
	.thumb_func
	.type	SPDIFRX_DMARxCplt, %function
SPDIFRX_DMARxCplt:
.LFB355:
	.loc 1 1445 1 is_stmt 1
	.cfi_startproc
	@ args = 0, pretend = 0, frame = 0
	@ frame_needed = 0, uses_anonymous_args = 0
.LVL166:
	push	{r3, lr}
	.cfi_def_cfa_offset 8
	.cfi_offset 3, -8
	.cfi_offset 14, -4
	mov	r3, r0
	.loc 1 1446 3
	.loc 1 1446 26 is_stmt 0
	ldr	r0, [r0, #56]
.LVL167:
	.loc 1 1449 3 is_stmt 1
	.loc 1 1449 17 is_stmt 0
	ldr	r3, [r3, #28]
.LVL168:
	.loc 1 1449 6
	cmp	r3, #256
	beq	.L131
	.loc 1 1451 5 is_stmt 1
	.loc 1 1451 11 is_stmt 0
	ldr	r2, [r0]
	.loc 1 1451 21
	ldr	r3, [r2]
	.loc 1 1451 26
	bic	r3, r3, #4
	lsls	r3, r3, #16
	lsrs	r3, r3, #16
	str	r3, [r2]
	.loc 1 1452 5 is_stmt 1
	.loc 1 1452 25 is_stmt 0
	movs	r3, #0
	strh	r3, [r0, #58]	@ movhi
	.loc 1 1453 5 is_stmt 1
	.loc 1 1453 19 is_stmt 0
	movs	r3, #1
	strb	r3, [r0, #73]
.L131:
	.loc 1 1458 3 is_stmt 1
	bl	HAL_SPDIFRX_RxCpltCallback
.LVL169:
	.loc 1 1460 1 is_stmt 0
	pop	{r3, pc}
	.cfi_endproc
.LFE355:
	.size	SPDIFRX_DMARxCplt, .-SPDIFRX_DMARxCplt
	.section	.text.SPDIFRX_ReceiveDataFlow_IT,"ax",%progbits
	.align	1
	.syntax unified
	.thumb
	.thumb_func
	.type	SPDIFRX_ReceiveDataFlow_IT, %function
SPDIFRX_ReceiveDataFlow_IT:
.LFB360:
	.loc 1 1549 1 is_stmt 1
	.cfi_startproc
	@ args = 0, pretend = 0, frame = 0
	@ frame_needed = 0, uses_anonymous_args = 0
.LVL170:
	push	{r3, lr}
	.cfi_def_cfa_offset 8
	.cfi_offset 3, -8
	.cfi_offset 14, -4
	.loc 1 1551 3
	.loc 1 1551 33 is_stmt 0
	ldr	r2, [r0]
	.loc 1 1551 11
	ldr	r3, [r0, #48]
	.loc 1 1551 43
	ldr	r2, [r2, #16]
	.loc 1 1551 25
	str	r2, [r3]
	.loc 1 1552 3 is_stmt 1
	.loc 1 1552 9 is_stmt 0
	ldr	r3, [r0, #48]
	.loc 1 1552 21
	adds	r3, r3, #4
	str	r3, [r0, #48]
	.loc 1 1553 3 is_stmt 1
	.loc 1 1553 9 is_stmt 0
	ldrh	r3, [r0, #58]
	uxth	r3, r3
	.loc 1 1553 22
	subs	r3, r3, #1
	uxth	r3, r3
	strh	r3, [r0, #58]	@ movhi
	.loc 1 1555 3 is_stmt 1
	.loc 1 1555 13 is_stmt 0
	ldrh	r3, [r0, #58]
	uxth	r3, r3
	.loc 1 1555 6
	cbz	r3, .L136
.LVL171:
.L133:
	.loc 1 1571 1
	pop	{r3, pc}
.LVL172:
.L136:
	.loc 1 1558 5 is_stmt 1
	.loc 1 1558 14 is_stmt 0
	ldr	r2, [r0]
	.loc 1 1558 24
	ldr	r3, [r2, #4]
	.loc 1 1558 30
	bic	r3, r3, #13
	lsls	r3, r3, #16
	lsrs	r3, r3, #16
	str	r3, [r2, #4]
	.loc 1 1560 5 is_stmt 1
	.loc 1 1560 19 is_stmt 0
	movs	r3, #1
	strb	r3, [r0, #73]
	.loc 1 1563 5 is_stmt 1
	.loc 1 1563 9
	.loc 1 1563 24 is_stmt 0
	movs	r3, #0
	strb	r3, [r0, #72]
	.loc 1 1563 7 is_stmt 1
	.loc 1 1568 5
	bl	HAL_SPDIFRX_RxCpltCallback
.LVL173:
	.loc 1 1571 1 is_stmt 0
	b	.L133
	.cfi_endproc
.LFE360:
	.size	SPDIFRX_ReceiveDataFlow_IT, .-SPDIFRX_ReceiveDataFlow_IT
	.section	.text.HAL_SPDIFRX_CxHalfCpltCallback,"ax",%progbits
	.align	1
	.weak	HAL_SPDIFRX_CxHalfCpltCallback
	.syntax unified
	.thumb
	.thumb_func
	.type	HAL_SPDIFRX_CxHalfCpltCallback, %function
HAL_SPDIFRX_CxHalfCpltCallback:
.LFB350:
	.loc 1 1357 1 is_stmt 1
	.cfi_startproc
	@ args = 0, pretend = 0, frame = 0
	@ frame_needed = 0, uses_anonymous_args = 0
	@ link register save eliminated.
.LVL174:
	.loc 1 1359 3
	.loc 1 1364 1 is_stmt 0
	bx	lr
	.cfi_endproc
.LFE350:
	.size	HAL_SPDIFRX_CxHalfCpltCallback, .-HAL_SPDIFRX_CxHalfCpltCallback
	.section	.text.SPDIFRX_DMACxHalfCplt,"ax",%progbits
	.align	1
	.syntax unified
	.thumb
	.thumb_func
	.type	SPDIFRX_DMACxHalfCplt, %function
SPDIFRX_DMACxHalfCplt:
.LFB358:
	.loc 1 1506 1 is_stmt 1
	.cfi_startproc
	@ args = 0, pretend = 0, frame = 0
	@ frame_needed = 0, uses_anonymous_args = 0
.LVL175:
	push	{r3, lr}
	.cfi_def_cfa_offset 8
	.cfi_offset 3, -8
	.cfi_offset 14, -4
	.loc 1 1507 3
.LVL176:
	.loc 1 1512 3
	ldr	r0, [r0, #56]
.LVL177:
	bl	HAL_SPDIFRX_CxHalfCpltCallback
.LVL178:
	.loc 1 1514 1 is_stmt 0
	pop	{r3, pc}
	.cfi_endproc
.LFE358:
	.size	SPDIFRX_DMACxHalfCplt, .-SPDIFRX_DMACxHalfCplt
	.section	.text.HAL_SPDIFRX_CxCpltCallback,"ax",%progbits
	.align	1
	.weak	HAL_SPDIFRX_CxCpltCallback
	.syntax unified
	.thumb
	.thumb_func
	.type	HAL_SPDIFRX_CxCpltCallback, %function
HAL_SPDIFRX_CxCpltCallback:
.LFB351:
	.loc 1 1372 1 is_stmt 1
	.cfi_startproc
	@ args = 0, pretend = 0, frame = 0
	@ frame_needed = 0, uses_anonymous_args = 0
	@ link register save eliminated.
.LVL179:
	.loc 1 1374 3
	.loc 1 1379 1 is_stmt 0
	bx	lr
	.cfi_endproc
.LFE351:
	.size	HAL_SPDIFRX_CxCpltCallback, .-HAL_SPDIFRX_CxCpltCallback
	.section	.text.SPDIFRX_DMACxCplt,"ax",%progbits
	.align	1
	.syntax unified
	.thumb
	.thumb_func
	.type	SPDIFRX_DMACxCplt, %function
SPDIFRX_DMACxCplt:
.LFB357:
	.loc 1 1485 1 is_stmt 1
	.cfi_startproc
	@ args = 0, pretend = 0, frame = 0
	@ frame_needed = 0, uses_anonymous_args = 0
.LVL180:
	push	{r3, lr}
	.cfi_def_cfa_offset 8
	.cfi_offset 3, -8
	.cfi_offset 14, -4
	.loc 1 1486 3
	.loc 1 1486 26 is_stmt 0
	ldr	r0, [r0, #56]
.LVL181:
	.loc 1 1489 3 is_stmt 1
	.loc 1 1489 9 is_stmt 0
	ldr	r2, [r0]
	.loc 1 1489 19
	ldr	r3, [r2]
	.loc 1 1489 24
	bic	r3, r3, #1024
	lsls	r3, r3, #16
	lsrs	r3, r3, #16
	str	r3, [r2]
	.loc 1 1490 3 is_stmt 1
	.loc 1 1490 23 is_stmt 0
	movs	r3, #0
	strh	r3, [r0, #62]	@ movhi
	.loc 1 1492 3 is_stmt 1
	.loc 1 1492 17 is_stmt 0
	movs	r3, #1
	strb	r3, [r0, #73]
	.loc 1 1496 3 is_stmt 1
	bl	HAL_SPDIFRX_CxCpltCallback
.LVL182:
	.loc 1 1498 1 is_stmt 0
	pop	{r3, pc}
	.cfi_endproc
.LFE357:
	.size	SPDIFRX_DMACxCplt, .-SPDIFRX_DMACxCplt
	.section	.text.SPDIFRX_ReceiveControlFlow_IT,"ax",%progbits
	.align	1
	.syntax unified
	.thumb
	.thumb_func
	.type	SPDIFRX_ReceiveControlFlow_IT, %function
SPDIFRX_ReceiveControlFlow_IT:
.LFB361:
	.loc 1 1579 1 is_stmt 1
	.cfi_startproc
	@ args = 0, pretend = 0, frame = 0
	@ frame_needed = 0, uses_anonymous_args = 0
.LVL183:
	push	{r3, lr}
	.cfi_def_cfa_offset 8
	.cfi_offset 3, -8
	.cfi_offset 14, -4
	.loc 1 1581 3
	.loc 1 1581 33 is_stmt 0
	ldr	r2, [r0]
	.loc 1 1581 11
	ldr	r3, [r0, #52]
	.loc 1 1581 43
	ldr	r2, [r2, #20]
	.loc 1 1581 25
	str	r2, [r3]
	.loc 1 1582 3 is_stmt 1
	.loc 1 1582 9 is_stmt 0
	ldr	r3, [r0, #52]
	.loc 1 1582 21
	adds	r3, r3, #4
	str	r3, [r0, #52]
	.loc 1 1583 3 is_stmt 1
	.loc 1 1583 9 is_stmt 0
	ldrh	r3, [r0, #62]
	uxth	r3, r3
	.loc 1 1583 22
	subs	r3, r3, #1
	uxth	r3, r3
	strh	r3, [r0, #62]	@ movhi
	.loc 1 1585 3 is_stmt 1
	.loc 1 1585 13 is_stmt 0
	ldrh	r3, [r0, #62]
	uxth	r3, r3
	.loc 1 1585 6
	cbz	r3, .L146
.LVL184:
.L143:
	.loc 1 1601 1
	pop	{r3, pc}
.LVL185:
.L146:
	.loc 1 1588 5 is_stmt 1
	.loc 1 1588 14 is_stmt 0
	ldr	r2, [r0]
	.loc 1 1588 24
	ldr	r3, [r2, #4]
	.loc 1 1588 30
	bic	r3, r3, #2
	lsls	r3, r3, #16
	lsrs	r3, r3, #16
	str	r3, [r2, #4]
	.loc 1 1590 5 is_stmt 1
	.loc 1 1590 19 is_stmt 0
	movs	r3, #1
	strb	r3, [r0, #73]
	.loc 1 1593 5 is_stmt 1
	.loc 1 1593 9
	.loc 1 1593 24 is_stmt 0
	movs	r3, #0
	strb	r3, [r0, #72]
	.loc 1 1593 7 is_stmt 1
	.loc 1 1598 5
	bl	HAL_SPDIFRX_CxCpltCallback
.LVL186:
	.loc 1 1601 1 is_stmt 0
	b	.L143
	.cfi_endproc
.LFE361:
	.size	SPDIFRX_ReceiveControlFlow_IT, .-SPDIFRX_ReceiveControlFlow_IT
	.section	.text.HAL_SPDIFRX_ErrorCallback,"ax",%progbits
	.align	1
	.weak	HAL_SPDIFRX_ErrorCallback
	.syntax unified
	.thumb
	.thumb_func
	.type	HAL_SPDIFRX_ErrorCallback, %function
HAL_SPDIFRX_ErrorCallback:
.LFB352:
	.loc 1 1387 1 is_stmt 1
	.cfi_startproc
	@ args = 0, pretend = 0, frame = 0
	@ frame_needed = 0, uses_anonymous_args = 0
	@ link register save eliminated.
.LVL187:
	.loc 1 1389 3
	.loc 1 1394 1 is_stmt 0
	bx	lr
	.cfi_endproc
.LFE352:
	.size	HAL_SPDIFRX_ErrorCallback, .-HAL_SPDIFRX_ErrorCallback
	.section	.text.SPDIFRX_DMAError,"ax",%progbits
	.align	1
	.syntax unified
	.thumb
	.thumb_func
	.type	SPDIFRX_DMAError, %function
SPDIFRX_DMAError:
.LFB359:
	.loc 1 1522 1 is_stmt 1
	.cfi_startproc
	@ args = 0, pretend = 0, frame = 0
	@ frame_needed = 0, uses_anonymous_args = 0
.LVL188:
	push	{r3, lr}
	.cfi_def_cfa_offset 8
	.cfi_offset 3, -8
	.cfi_offset 14, -4
	.loc 1 1523 3
	.loc 1 1523 26 is_stmt 0
	ldr	r0, [r0, #56]
.LVL189:
	.loc 1 1526 3 is_stmt 1
	.loc 1 1526 9 is_stmt 0
	ldr	r2, [r0]
	.loc 1 1526 19
	ldr	r3, [r2]
	.loc 1 1526 24
	bic	r3, r3, #1024
	bic	r3, r3, #4
	lsls	r3, r3, #16
	lsrs	r3, r3, #16
	str	r3, [r2]
	.loc 1 1527 3 is_stmt 1
	.loc 1 1527 23 is_stmt 0
	movs	r3, #0
	strh	r3, [r0, #58]	@ movhi
	.loc 1 1529 3 is_stmt 1
	.loc 1 1529 17 is_stmt 0
	movs	r3, #1
	strb	r3, [r0, #73]
	.loc 1 1532 3 is_stmt 1
	.loc 1 1532 9 is_stmt 0
	ldr	r3, [r0, #76]
	.loc 1 1532 21
	orr	r3, r3, #8
	str	r3, [r0, #76]
	.loc 1 1539 3 is_stmt 1
	bl	HAL_SPDIFRX_ErrorCallback
.LVL190:
	.loc 1 1541 1 is_stmt 0
	pop	{r3, pc}
	.cfi_endproc
.LFE359:
	.size	SPDIFRX_DMAError, .-SPDIFRX_DMAError
	.section	.text.HAL_SPDIFRX_IRQHandler,"ax",%progbits
	.align	1
	.global	HAL_SPDIFRX_IRQHandler
	.syntax unified
	.thumb
	.thumb_func
	.type	HAL_SPDIFRX_IRQHandler, %function
HAL_SPDIFRX_IRQHandler:
.LFB347:
	.loc 1 1278 1 is_stmt 1
	.cfi_startproc
	@ args = 0, pretend = 0, frame = 0
	@ frame_needed = 0, uses_anonymous_args = 0
.LVL191:
	push	{r4, r5, r6, lr}
	.cfi_def_cfa_offset 16
	.cfi_offset 4, -16
	.cfi_offset 5, -12
	.cfi_offset 6, -8
	.cfi_offset 14, -4
	mov	r4, r0
	.loc 1 1279 3
	.loc 1 1279 27 is_stmt 0
	ldr	r3, [r0]
	.loc 1 1279 12
	ldr	r5, [r3, #8]
.LVL192:
	.loc 1 1280 3 is_stmt 1
	.loc 1 1280 12 is_stmt 0
	ldr	r6, [r3, #4]
.LVL193:
	.loc 1 1283 3 is_stmt 1
	.loc 1 1283 6 is_stmt 0
	tst	r5, #1
	beq	.L151
	.loc 1 1283 79 discriminator 1
	tst	r6, #1
	bne	.L156
.LVL194:
.L151:
	.loc 1 1290 3 is_stmt 1
	.loc 1 1290 6 is_stmt 0
	tst	r5, #2
	beq	.L152
	.loc 1 1290 79 discriminator 1
	tst	r6, #2
	bne	.L157
.L152:
	.loc 1 1297 3 is_stmt 1
	.loc 1 1297 6 is_stmt 0
	tst	r5, #8
	beq	.L153
	.loc 1 1297 79 discriminator 1
	tst	r6, #8
	bne	.L158
.L153:
	.loc 1 1309 3 is_stmt 1
	.loc 1 1309 6 is_stmt 0
	tst	r5, #4
	beq	.L150
	.loc 1 1309 79 discriminator 1
	tst	r6, #4
	bne	.L159
.L150:
	.loc 1 1319 1
	pop	{r4, r5, r6, pc}
.LVL195:
.L156:
	.loc 1 1285 5 is_stmt 1
	.loc 1 1285 31 is_stmt 0
	movs	r2, #1
	str	r2, [r3, #12]
	.loc 1 1286 5 is_stmt 1
	bl	SPDIFRX_ReceiveDataFlow_IT
.LVL196:
	b	.L151
.L157:
	.loc 1 1292 5
	.loc 1 1292 14 is_stmt 0
	ldr	r3, [r4]
	.loc 1 1292 31
	movs	r2, #2
	str	r2, [r3, #12]
	.loc 1 1293 5 is_stmt 1
	mov	r0, r4
	bl	SPDIFRX_ReceiveControlFlow_IT
.LVL197:
	b	.L152
.L158:
	.loc 1 1299 5
	.loc 1 1299 14 is_stmt 0
	ldr	r3, [r4]
	.loc 1 1299 31
	movs	r2, #8
	str	r2, [r3, #12]
	.loc 1 1302 5 is_stmt 1
	.loc 1 1302 11 is_stmt 0
	ldr	r3, [r4, #76]
	.loc 1 1302 23
	orr	r3, r3, #2
	str	r3, [r4, #76]
	.loc 1 1305 5 is_stmt 1
	mov	r0, r4
	bl	HAL_SPDIFRX_ErrorCallback
.LVL198:
	b	.L153
.L159:
	.loc 1 1311 5
	.loc 1 1311 14 is_stmt 0
	ldr	r3, [r4]
	.loc 1 1311 31
	movs	r2, #4
	str	r2, [r3, #12]
	.loc 1 1314 5 is_stmt 1
	.loc 1 1314 11 is_stmt 0
	ldr	r3, [r4, #76]
	.loc 1 1314 23
	orrs	r3, r3, r2
	str	r3, [r4, #76]
	.loc 1 1317 5 is_stmt 1
	mov	r0, r4
	bl	HAL_SPDIFRX_ErrorCallback
.LVL199:
	.loc 1 1319 1 is_stmt 0
	b	.L150
	.cfi_endproc
.LFE347:
	.size	HAL_SPDIFRX_IRQHandler, .-HAL_SPDIFRX_IRQHandler
	.section	.text.HAL_SPDIFRX_GetState,"ax",%progbits
	.align	1
	.global	HAL_SPDIFRX_GetState
	.syntax unified
	.thumb
	.thumb_func
	.type	HAL_SPDIFRX_GetState, %function
HAL_SPDIFRX_GetState:
.LFB353:
	.loc 1 1421 1 is_stmt 1
	.cfi_startproc
	@ args = 0, pretend = 0, frame = 0
	@ frame_needed = 0, uses_anonymous_args = 0
	@ link register save eliminated.
.LVL200:
	.loc 1 1422 3
	.loc 1 1422 16 is_stmt 0
	ldrb	r0, [r0, #73]	@ zero_extendqisi2
.LVL201:
	.loc 1 1423 1
	bx	lr
	.cfi_endproc
.LFE353:
	.size	HAL_SPDIFRX_GetState, .-HAL_SPDIFRX_GetState
	.section	.text.HAL_SPDIFRX_GetError,"ax",%progbits
	.align	1
	.global	HAL_SPDIFRX_GetError
	.syntax unified
	.thumb
	.thumb_func
	.type	HAL_SPDIFRX_GetError, %function
HAL_SPDIFRX_GetError:
.LFB354:
	.loc 1 1431 1 is_stmt 1
	.cfi_startproc
	@ args = 0, pretend = 0, frame = 0
	@ frame_needed = 0, uses_anonymous_args = 0
	@ link register save eliminated.
.LVL202:
	.loc 1 1432 3
	.loc 1 1432 16 is_stmt 0
	ldr	r0, [r0, #76]
.LVL203:
	.loc 1 1433 1
	bx	lr
	.cfi_endproc
.LFE354:
	.size	HAL_SPDIFRX_GetError, .-HAL_SPDIFRX_GetError
	.text
.Letext0:
	.file 2 "m:\\noinstall\\arm-gnu-toolchain-12.2.rel1-mingw-w64-i686-arm-none-eabi\\arm-none-eabi\\include\\machine\\_default_types.h"
	.file 3 "m:\\noinstall\\arm-gnu-toolchain-12.2.rel1-mingw-w64-i686-arm-none-eabi\\arm-none-eabi\\include\\sys\\_stdint.h"
	.file 4 "D:/RTOS/Board/YD-STM32H7xxVx_ClassicV19/cmake-build-debug/_deps/stm32h7xx_cmsis_device-src/Include/stm32h743xx.h"
	.file 5 "D:/RTOS/Board/YD-STM32H7xxVx_ClassicV19/cmake-build-debug/_deps/stm32h7xx_cmsis_device-src/Include/stm32h7xx.h"
	.file 6 "D:/RTOS/Board/YD-STM32H7xxVx_ClassicV19/cmake-build-debug/_deps/stm32h7xx_hal_driver-src/Inc/stm32h7xx_hal_def.h"
	.file 7 "D:/RTOS/Board/YD-STM32H7xxVx_ClassicV19/cmake-build-debug/_deps/stm32h7xx_hal_driver-src/Inc/stm32h7xx_hal_dma.h"
	.file 8 "D:/RTOS/Board/YD-STM32H7xxVx_ClassicV19/cmake-build-debug/_deps/stm32h7xx_hal_driver-src/Inc/stm32h7xx_hal_spdifrx.h"
	.file 9 "D:/RTOS/Board/YD-STM32H7xxVx_ClassicV19/cmake-build-debug/_deps/stm32h7xx_cmsis_device-src/Include/system_stm32h7xx.h"
	.file 10 "D:/RTOS/Board/YD-STM32H7xxVx_ClassicV19/cmake-build-debug/_deps/stm32h7xx_hal_driver-src/Inc/stm32h7xx_hal.h"