	.cpu cortex-m7
	.arch armv7e-m
	.fpu fpv5-d16
	.eabi_attribute 28, 1
	.eabi_attribute 20, 1
	.eabi_attribute 21, 1
	.eabi_attribute 23, 3
	.eabi_attribute 24, 1
	.eabi_attribute 25, 1
	.eabi_attribute 26, 1
	.eabi_attribute 30, 1
	.eabi_attribute 34, 1
	.eabi_attribute 18, 4
	.file	"stm32h7xx_hal_i2c.c"
	.text
.Ltext0:
	.cfi_sections	.debug_frame
	.file 1 "D:/RTOS/Board/YD-STM32H7xxVx_ClassicV19/cmake-build-debug/_deps/stm32h7xx_hal_driver-src/Src/stm32h7xx_hal_i2c.c"
	.section	.text.I2C_Flush_TXDR,"ax",%progbits
	.align	1
	.syntax unified
	.thumb
	.thumb_func
	.type	I2C_Flush_TXDR, %function
I2C_Flush_TXDR:
.LFB400:
	.loc 1 6697 1
	.cfi_startproc
	@ args = 0, pretend = 0, frame = 0
	@ frame_needed = 0, uses_anonymous_args = 0
	@ link register save eliminated.
.LVL0:
	.loc 1 6700 3
	.loc 1 6700 17 is_stmt 0
	ldr	r3, [r0]
	.loc 1 6700 27
	ldr	r2, [r3, #24]
	.loc 1 6700 6
	tst	r2, #2
	beq	.L2
	.loc 1 6702 5 is_stmt 1
	.loc 1 6702 26 is_stmt 0
	movs	r2, #0
	str	r2, [r3, #40]
.L2:
	.loc 1 6706 3 is_stmt 1
	.loc 1 6706 17 is_stmt 0
	ldr	r3, [r0]
	.loc 1 6706 27
	ldr	r2, [r3, #24]
	.loc 1 6706 6
	tst	r2, #1
	bne	.L1
	.loc 1 6708 5 is_stmt 1
	.loc 1 6708 64 is_stmt 0
	ldr	r2, [r3, #24]
	.loc 1 6708 70
	orr	r2, r2, #1
	.loc 1 6708 92
	str	r2, [r3, #24]
.L1:
	.loc 1 6710 1
	bx	lr
	.cfi_endproc
.LFE400:
	.size	I2C_Flush_TXDR, .-I2C_Flush_TXDR
	.section	.text.I2C_TransferConfig,"ax",%progbits
	.align	1
	.syntax unified
	.thumb
	.thumb_func
	.type	I2C_TransferConfig, %function
I2C_TransferConfig:
.LFB412:
	.loc 1 7286 1 is_stmt 1
	.cfi_startproc
	@ args = 4, pretend = 0, frame = 0
	@ frame_needed = 0, uses_anonymous_args = 0
	@ link register save eliminated.
.LVL1:
	push	{r4}
	.cfi_def_cfa_offset 4
	.cfi_offset 4, -4
	ldr	r4, [sp, #4]
	.loc 1 7288 3
	.loc 1 7289 3
	.loc 1 7290 3
	.loc 1 7293 3
	.loc 1 7293 52 is_stmt 0
	ubfx	r1, r1, #0, #10
.LVL2:
	.loc 1 7293 73
	orr	r1, r1, r2, lsl #16
	.loc 1 7294 78
	orrs	r1, r1, r3
	.loc 1 7293 19
	orrs	r1, r1, r4
	.loc 1 7293 12
	bic	r1, r1, #-2147483648
.LVL3:
	.loc 1 7298 3 is_stmt 1
	.loc 1 7298 40 is_stmt 0
	ldr	r2, [r0]
.LVL4:
	.loc 1 7298 50
	ldr	r3, [r2, #4]
.LVL5:
	.loc 1 7298 183
	lsrs	r4, r4, #21
	.loc 1 7298 162
	and	r4, r4, #1024
	.loc 1 7298 221
	orr	r4, r4, #66846720
	orr	r4, r4, #221184
	orr	r4, r4, #1020
	orr	r4, r4, #3
	.loc 1 7298 59
	bic	r3, r3, r4
	.loc 1 7298 245
	orrs	r3, r3, r1
	.loc 1 7298 28
	str	r3, [r2, #4]
	.loc 1 7302 1
	ldr	r4, [sp], #4
	.cfi_restore 4
	.cfi_def_cfa_offset 0
.LVL6:
	bx	lr
	.cfi_endproc
.LFE412:
	.size	I2C_TransferConfig, .-I2C_TransferConfig
	.section	.text.I2C_Enable_IRQ,"ax",%progbits
	.align	1
	.syntax unified
	.thumb
	.thumb_func
	.type	I2C_Enable_IRQ, %function
I2C_Enable_IRQ:
.LFB413:
	.loc 1 7312 1 is_stmt 1
	.cfi_startproc
	@ args = 0, pretend = 0, frame = 0
	@ frame_needed = 0, uses_anonymous_args = 0
	@ link register save eliminated.
.LVL7:
	.loc 1 7313 3
	.loc 1 7315 3
	.loc 1 7315 12 is_stmt 0
	ldr	r3, [r0, #52]
	.loc 1 7315 6
	ldr	r2, .L24
	cmp	r3, r2
	beq	.L7
	.loc 1 7315 45 discriminator 1
	ldr	r2, .L24+4
	cmp	r3, r2
	beq	.L7
	.loc 1 7316 44
	ldr	r2, .L24+8
	cmp	r3, r2
	beq	.L7
	.loc 1 7319 5 is_stmt 1
	.loc 1 7319 8 is_stmt 0
	tst	r1, #32768
	bne	.L18
	.loc 1 7313 12
	movs	r3, #0
.L8:
.LVL8:
	.loc 1 7325 5 is_stmt 1
	.loc 1 7325 8 is_stmt 0
	tst	r1, #1
	beq	.L9
	.loc 1 7328 7 is_stmt 1
	.loc 1 7328 14 is_stmt 0
	orr	r3, r3, #242
.LVL9:
.L9:
	.loc 1 7331 5 is_stmt 1
	.loc 1 7331 8 is_stmt 0
	tst	r1, #2
	beq	.L10
	.loc 1 7334 7 is_stmt 1
	.loc 1 7334 14 is_stmt 0
	orr	r3, r3, #244
.LVL10:
.L10:
	.loc 1 7337 5 is_stmt 1
	.loc 1 7337 8 is_stmt 0
	cmp	r1, #16
	beq	.L20
.L11:
	.loc 1 7343 5 is_stmt 1
	.loc 1 7343 8 is_stmt 0
	cmp	r1, #32
	bne	.L12
	.loc 1 7346 7 is_stmt 1
	.loc 1 7346 14 is_stmt 0
	orr	r3, r3, #32
.LVL11:
	b	.L12
.LVL12:
.L18:
	.loc 1 7322 14
	movs	r3, #184
	b	.L8
.LVL13:
.L20:
	.loc 1 7340 7 is_stmt 1
	.loc 1 7340 14 is_stmt 0
	orr	r3, r3, #144
.LVL14:
	b	.L11
.LVL15:
.L7:
	.loc 1 7352 5 is_stmt 1
	.loc 1 7352 8 is_stmt 0
	tst	r1, #32768
	bne	.L19
	.loc 1 7313 12
	movs	r3, #0
.L13:
.LVL16:
	.loc 1 7358 5 is_stmt 1
	.loc 1 7358 8 is_stmt 0
	tst	r1, #1
	beq	.L14
	.loc 1 7361 7 is_stmt 1
	.loc 1 7361 14 is_stmt 0
	orr	r3, r3, #242
.LVL17:
.L14:
	.loc 1 7364 5 is_stmt 1
	.loc 1 7364 8 is_stmt 0
	tst	r1, #2
	beq	.L15
	.loc 1 7367 7 is_stmt 1
	.loc 1 7367 14 is_stmt 0
	orr	r3, r3, #244
.LVL18:
.L15:
	.loc 1 7370 5 is_stmt 1
	.loc 1 7370 8 is_stmt 0
	cmp	r1, #16
	beq	.L21
.L16:
	.loc 1 7376 5 is_stmt 1
	.loc 1 7376 8 is_stmt 0
	cmp	r1, #32
	beq	.L22
.L17:
	.loc 1 7382 5 is_stmt 1
	.loc 1 7382 8 is_stmt 0
	cmp	r1, #64
	beq	.L23
.L12:
	.loc 1 7392 3 is_stmt 1
	.loc 1 7392 10 is_stmt 0
	ldr	r1, [r0]
.LVL19:
	.loc 1 7392 20
	ldr	r2, [r1]
	.loc 1 7392 26
	orrs	r3, r3, r2
.LVL20:
	str	r3, [r1]
	.loc 1 7393 1
	bx	lr
.LVL21:
.L19:
	.loc 1 7355 14
	movs	r3, #184
	b	.L13
.LVL22:
.L21:
	.loc 1 7373 7 is_stmt 1
	.loc 1 7373 14 is_stmt 0
	orr	r3, r3, #144
.LVL23:
	b	.L16
.L22:
	.loc 1 7379 7 is_stmt 1
	.loc 1 7379 14 is_stmt 0
	orr	r3, r3, #96
.LVL24:
	b	.L17
.L23:
	.loc 1 7385 7 is_stmt 1
	.loc 1 7385 14 is_stmt 0
	orr	r3, r3, #64
.LVL25:
	b	.L12
.L25:
	.align	2
.L24:
	.word	I2C_Master_ISR_DMA
	.word	I2C_Slave_ISR_DMA
	.word	I2C_Mem_ISR_DMA
	.cfi_endproc
.LFE413:
	.size	I2C_Enable_IRQ, .-I2C_Enable_IRQ
	.section	.text.I2C_Disable_IRQ,"ax",%progbits
	.align	1
	.syntax unified
	.thumb
	.thumb_func
	.type	I2C_Disable_IRQ, %function
I2C_Disable_IRQ:
.LFB414:
	.loc 1 7403 1 is_stmt 1
	.cfi_startproc
	@ args = 0, pretend = 0, frame = 0
	@ frame_needed = 0, uses_anonymous_args = 0
	@ link register save eliminated.
.LVL26:
	.loc 1 7404 3
	.loc 1 7406 3
	.loc 1 7406 6 is_stmt 0
	tst	r1, #1
	beq	.L33
	.loc 1 7409 5 is_stmt 1
.LVL27:
	.loc 1 7411 5
	.loc 1 7411 24 is_stmt 0
	ldrb	r3, [r0, #65]	@ zero_extendqisi2
	.loc 1 7411 8
	and	r3, r3, #40
	cmp	r3, #40
	beq	.L36
	.loc 1 7414 14
	movs	r3, #242
	b	.L27
.L36:
	.loc 1 7409 12
	movs	r3, #66
	b	.L27
.LVL28:
.L33:
	.loc 1 7404 12
	movs	r3, #0
.LVL29:
.L27:
	.loc 1 7418 3 is_stmt 1
	.loc 1 7418 6 is_stmt 0
	tst	r1, #2
	beq	.L28
	.loc 1 7421 5 is_stmt 1
	.loc 1 7421 12 is_stmt 0
	orr	ip, r3, #68
.LVL30:
	.loc 1 7423 5 is_stmt 1
	.loc 1 7423 24 is_stmt 0
	ldrb	r2, [r0, #65]	@ zero_extendqisi2
	.loc 1 7423 8
	and	r2, r2, #40
	cmp	r2, #40
	beq	.L35
	.loc 1 7426 7 is_stmt 1
	.loc 1 7426 14 is_stmt 0
	orr	r3, r3, #244
.LVL31:
.L28:
	.loc 1 7430 3 is_stmt 1
	.loc 1 7430 6 is_stmt 0
	tst	r1, #32768
	bne	.L37
.L29:
	.loc 1 7436 3 is_stmt 1
	.loc 1 7436 6 is_stmt 0
	cmp	r1, #16
	beq	.L38
.L30:
	.loc 1 7442 3 is_stmt 1
	.loc 1 7442 6 is_stmt 0
	cmp	r1, #32
	beq	.L39
.L31:
	.loc 1 7448 3 is_stmt 1
	.loc 1 7448 6 is_stmt 0
	cmp	r1, #64
	beq	.L40
.L32:
	.loc 1 7457 3 is_stmt 1
	.loc 1 7457 10 is_stmt 0
	ldr	r1, [r0]
.LVL32:
	.loc 1 7457 20
	ldr	r2, [r1]
	.loc 1 7457 26
	bic	r3, r2, r3
.LVL33:
	str	r3, [r1]
	.loc 1 7458 1
	bx	lr
.LVL34:
.L35:
	.loc 1 7421 12
	mov	r3, ip
	b	.L28
.LVL35:
.L37:
	.loc 1 7433 5 is_stmt 1
	.loc 1 7433 12 is_stmt 0
	orr	r3, r3, #184
.LVL36:
	b	.L29
.L38:
	.loc 1 7439 5 is_stmt 1
	.loc 1 7439 12 is_stmt 0
	orr	r3, r3, #144
.LVL37:
	b	.L30
.L39:
	.loc 1 7445 5 is_stmt 1
	.loc 1 7445 12 is_stmt 0
	orr	r3, r3, #32
.LVL38:
	b	.L31
.L40:
	.loc 1 7451 5 is_stmt 1
	.loc 1 7451 12 is_stmt 0
	orr	r3, r3, #64
.LVL39:
	b	.L32
	.cfi_endproc
.LFE414:
	.size	I2C_Disable_IRQ, .-I2C_Disable_IRQ
	.section	.text.I2C_ConvertOtherXferOptions,"ax",%progbits
	.align	1
	.syntax unified
	.thumb
	.thumb_func
	.type	I2C_ConvertOtherXferOptions, %function
I2C_ConvertOtherXferOptions:
.LFB415:
	.loc 1 7466 1 is_stmt 1
	.cfi_startproc
	@ args = 0, pretend = 0, frame = 0
	@ frame_needed = 0, uses_anonymous_args = 0
	@ link register save eliminated.
.LVL40:
	.loc 1 7470 3
	.loc 1 7470 11 is_stmt 0
	ldr	r3, [r0, #44]
	.loc 1 7470 6
	cmp	r3, #170
	beq	.L44
	.loc 1 7478 8 is_stmt 1
	.loc 1 7478 16 is_stmt 0
	ldr	r3, [r0, #44]
	.loc 1 7478 11
	cmp	r3, #43520
	beq	.L45
.L41:
	.loc 1 7486 1
	bx	lr
.L44:
	.loc 1 7472 5 is_stmt 1
	.loc 1 7472 23 is_stmt 0
	movs	r3, #0
	str	r3, [r0, #44]
	bx	lr
.L45:
	.loc 1 7480 5 is_stmt 1
	.loc 1 7480 23 is_stmt 0
	mov	r3, #33554432
	str	r3, [r0, #44]
	.loc 1 7485 3 is_stmt 1
	.loc 1 7486 1 is_stmt 0
	b	.L41
	.cfi_endproc
.LFE415:
	.size	I2C_ConvertOtherXferOptions, .-I2C_ConvertOtherXferOptions
	.section	.text.I2C_IsErrorOccurred,"ax",%progbits
	.align	1
	.syntax unified
	.thumb
	.thumb_func
	.type	I2C_IsErrorOccurred, %function
I2C_IsErrorOccurred:
.LFB411:
	.loc 1 7144 1 is_stmt 1
	.cfi_startproc
	@ args = 0, pretend = 0, frame = 0
	@ frame_needed = 0, uses_anonymous_args = 0
.LVL41:
	push	{r4, r5, r6, r7, r8, lr}
	.cfi_def_cfa_offset 24
	.cfi_offset 4, -24
	.cfi_offset 5, -20
	.cfi_offset 6, -16
	.cfi_offset 7, -12
	.cfi_offset 8, -8
	.cfi_offset 14, -4
	mov	r4, r0
	.loc 1 7145 3
.LVL42:
	.loc 1 7146 3
	.loc 1 7146 25 is_stmt 0
	ldr	r3, [r0]
	.loc 1 7146 12
	ldr	r6, [r3, #24]
.LVL43:
	.loc 1 7147 3 is_stmt 1
	.loc 1 7148 3
	.loc 1 7149 3
	.loc 1 7150 3
	.loc 1 7152 3
	.loc 1 7152 6 is_stmt 0
	ands	r6, r6, #16
.LVL44:
	beq	.L63
	mov	r5, r1
	mov	r8, r2
	.loc 1 7155 5 is_stmt 1
	.loc 1 7155 92 is_stmt 0
	movs	r2, #16
.LVL45:
	str	r2, [r3, #28]
	.loc 1 7159 5 is_stmt 1
	.loc 1 7147 12 is_stmt 0
	movs	r6, #0
	.loc 1 7145 21
	mov	r7, r6
.LVL46:
.L49:
	.loc 1 7159 108 is_stmt 1
	.loc 1 7159 23 is_stmt 0
	ldr	r3, [r4]
	.loc 1 7159 33
	ldr	r0, [r3, #24]
	.loc 1 7159 108
	tst	r0, #32
	bne	.L55
	.loc 1 7159 108 discriminator 1
	cbnz	r7, .L55
	.loc 1 7162 7 is_stmt 1
	.loc 1 7162 10 is_stmt 0
	cmp	r5, #-1
	beq	.L49
	.loc 1 7164 9 is_stmt 1
	.loc 1 7164 15 is_stmt 0
	bl	HAL_GetTick
.LVL47:
	.loc 1 7164 29
	sub	r0, r0, r8
	.loc 1 7164 12
	cmp	r0, r5
	bhi	.L50
	.loc 1 7164 53 discriminator 1
	cmp	r5, #0
	bne	.L49
.L50:
	.loc 1 7166 11 is_stmt 1
	.loc 1 7166 33 is_stmt 0
	ldr	r1, [r4]
	.loc 1 7166 43
	ldr	r2, [r1, #4]
	.loc 1 7166 16
	and	r2, r2, #16384
.LVL48:
	.loc 1 7167 11 is_stmt 1
	.loc 1 7167 16 is_stmt 0
	ldrb	r3, [r4, #66]	@ zero_extendqisi2
	uxtb	r3, r3
.LVL49:
	.loc 1 7170 11 is_stmt 1
	.loc 1 7170 36 is_stmt 0
	ldr	r0, [r1, #24]
	.loc 1 7170 14
	tst	r0, #32768
	beq	.L53
	.loc 1 7172 21
	subs	r3, r3, #32
.LVL50:
	it	ne
	movne	r3, #1
.LVL51:
	.loc 1 7171 42
	cbnz	r2, .L53
	cbnz	r3, .L65
.LVL52:
.L53:
	.loc 1 7181 103 is_stmt 1
	.loc 1 7181 28 is_stmt 0
	ldr	r3, [r4]
	.loc 1 7181 38
	ldr	r3, [r3, #24]
	.loc 1 7181 103
	tst	r3, #32
	bne	.L49
	.loc 1 7184 13 is_stmt 1
	.loc 1 7184 18 is_stmt 0
	bl	HAL_GetTick
.LVL53:
	.loc 1 7184 32
	sub	r0, r0, r8
	.loc 1 7184 16
	cmp	r0, #25
	bls	.L53
	.loc 1 7186 15 is_stmt 1
	.loc 1 7186 26 is_stmt 0
	orr	r6, r6, #32
.LVL54:
	.loc 1 7188 15 is_stmt 1
	.loc 1 7190 15
	.loc 1 7188 22 is_stmt 0
	movs	r7, #1
	.loc 1 7190 15
	b	.L49
.LVL55:
.L65:
	.loc 1 7175 13 is_stmt 1
	.loc 1 7175 27 is_stmt 0
	ldr	r3, [r1, #4]
	.loc 1 7175 33
	orr	r3, r3, #16384
	str	r3, [r1, #4]
	.loc 1 7178 13 is_stmt 1
	.loc 1 7178 25 is_stmt 0
	bl	HAL_GetTick
.LVL56:
	mov	r8, r0
.LVL57:
	b	.L53
.LVL58:
.L55:
	.loc 1 7198 5 is_stmt 1
	.loc 1 7198 8 is_stmt 0
	cbnz	r7, .L57
	.loc 1 7201 7 is_stmt 1
	.loc 1 7201 94 is_stmt 0
	movs	r2, #32
	str	r2, [r3, #28]
.L57:
	.loc 1 7204 5 is_stmt 1
	.loc 1 7204 16 is_stmt 0
	orr	r6, r6, #4
.LVL59:
	.loc 1 7206 5 is_stmt 1
	.loc 1 7206 12 is_stmt 0
	movs	r5, #1
.LVL60:
.L47:
	.loc 1 7210 3 is_stmt 1
	.loc 1 7210 16 is_stmt 0
	ldr	r2, [r4]
	.loc 1 7210 10
	ldr	r3, [r2, #24]
.LVL61:
	.loc 1 7214 3 is_stmt 1
	.loc 1 7214 6 is_stmt 0
	tst	r3, #256
	beq	.L58
	.loc 1 7216 5 is_stmt 1
	.loc 1 7216 16 is_stmt 0
	orr	r6, r6, #1
.LVL62:
	.loc 1 7219 5 is_stmt 1
	.loc 1 7219 92 is_stmt 0
	mov	r1, #256
	str	r1, [r2, #28]
	.loc 1 7221 5 is_stmt 1
.LVL63:
	.loc 1 7221 12 is_stmt 0
	movs	r5, #1
.LVL64:
.L58:
	.loc 1 7225 3 is_stmt 1
	.loc 1 7225 6 is_stmt 0
	tst	r3, #1024
	beq	.L59
	.loc 1 7227 5 is_stmt 1
	.loc 1 7227 16 is_stmt 0
	orr	r6, r6, #8
.LVL65:
	.loc 1 7230 5 is_stmt 1
	.loc 1 7230 103 is_stmt 0
	ldr	r2, [r4]
	.loc 1 7230 94
	mov	r1, #1024
	str	r1, [r2, #28]
	.loc 1 7232 5 is_stmt 1
.LVL66:
	.loc 1 7232 12 is_stmt 0
	movs	r5, #1
.LVL67:
.L59:
	.loc 1 7236 3 is_stmt 1
	.loc 1 7236 6 is_stmt 0
	tst	r3, #512
	beq	.L60
	.loc 1 7238 5 is_stmt 1
	.loc 1 7238 16 is_stmt 0
	orr	r6, r6, #2
.LVL68:
	.loc 1 7241 5 is_stmt 1
	.loc 1 7241 101 is_stmt 0
	ldr	r3, [r4]
.LVL69:
	.loc 1 7241 92
	mov	r2, #512
	str	r2, [r3, #28]
	.loc 1 7243 5 is_stmt 1
.LVL70:
	.loc 1 7246 3
	.loc 1 7243 12 is_stmt 0
	movs	r5, #1
.LVL71:
.L61:
	.loc 1 7249 5 is_stmt 1
	mov	r0, r4
	bl	I2C_Flush_TXDR
.LVL72:
	.loc 1 7252 5
	.loc 1 7252 12 is_stmt 0
	ldr	r2, [r4]
	.loc 1 7252 22
	ldr	r3, [r2, #4]
	.loc 1 7252 28
	bic	r3, r3, #33423360
	bic	r3, r3, #71168
	bic	r3, r3, #510
	bic	r3, r3, #1
	str	r3, [r2, #4]
	.loc 1 7254 5 is_stmt 1
	.loc 1 7254 9 is_stmt 0
	ldr	r3, [r4, #68]
	.loc 1 7254 21
	orrs	r3, r3, r6
	str	r3, [r4, #68]
	.loc 1 7255 5 is_stmt 1
	.loc 1 7255 17 is_stmt 0
	movs	r3, #32
	strb	r3, [r4, #65]
	.loc 1 7256 5 is_stmt 1
	.loc 1 7256 16 is_stmt 0
	movs	r3, #0
	strb	r3, [r4, #66]
	.loc 1 7259 5 is_stmt 1
	.loc 1 7259 9
	.loc 1 7259 22 is_stmt 0
	strb	r3, [r4, #64]
.L62:
	.loc 1 7259 7 is_stmt 1 discriminator 1
	.loc 1 7262 3 discriminator 1
	.loc 1 7263 1 is_stmt 0 discriminator 1
	mov	r0, r5
	pop	{r4, r5, r6, r7, r8, pc}
.LVL73:
.L63:
	.loc 1 7145 21
	movs	r5, #0
	b	.L47
.LVL74:
.L60:
	.loc 1 7246 3 is_stmt 1
	.loc 1 7246 6 is_stmt 0
	cmp	r5, #0
	beq	.L62
	b	.L61
	.cfi_endproc
.LFE411:
	.size	I2C_IsErrorOccurred, .-I2C_IsErrorOccurred
	.section	.text.I2C_WaitOnTXISFlagUntilTimeout,"ax",%progbits
	.align	1
	.syntax unified
	.thumb
	.thumb_func
	.type	I2C_WaitOnTXISFlagUntilTimeout, %function
I2C_WaitOnTXISFlagUntilTimeout:
.LFB408:
	.loc 1 6989 1 is_stmt 1
	.cfi_startproc
	@ args = 0, pretend = 0, frame = 0
	@ frame_needed = 0, uses_anonymous_args = 0
.LVL75:
	push	{r4, r5, r6, lr}
	.cfi_def_cfa_offset 16
	.cfi_offset 4, -16
	.cfi_offset 5, -12
	.cfi_offset 6, -8
	.cfi_offset 14, -4
	mov	r4, r0
	mov	r5, r1
	mov	r6, r2
	.loc 1 6990 3
.LVL76:
.L69:
	.loc 1 6990 95
	.loc 1 6990 20 is_stmt 0
	ldr	r3, [r4]
	.loc 1 6990 30
	ldr	r3, [r3, #24]
	.loc 1 6990 95
	tst	r3, #2
	bne	.L74
	.loc 1 6993 5 is_stmt 1
	.loc 1 6993 9 is_stmt 0
	mov	r2, r6
	mov	r1, r5
	mov	r0, r4
	bl	I2C_IsErrorOccurred
.LVL77:
	.loc 1 6993 8
	cbnz	r0, .L72
	.loc 1 6999 5 is_stmt 1
	.loc 1 6999 8 is_stmt 0
	cmp	r5, #-1
	beq	.L69
	.loc 1 7001 7 is_stmt 1
	.loc 1 7001 13 is_stmt 0
	bl	HAL_GetTick
.LVL78:
	.loc 1 7001 27
	subs	r0, r0, r6
	.loc 1 7001 10
	cmp	r0, r5
	bhi	.L70
	.loc 1 7001 51 discriminator 1
	cmp	r5, #0
	bne	.L69
.L70:
	.loc 1 7003 9 is_stmt 1
	.loc 1 7003 24 is_stmt 0
	ldr	r3, [r4]
	.loc 1 7003 34
	ldr	r3, [r3, #24]
	.loc 1 7003 12
	tst	r3, #2
	bne	.L69
	.loc 1 7005 11 is_stmt 1
	.loc 1 7005 15 is_stmt 0
	ldr	r3, [r4, #68]
	.loc 1 7005 27
	orr	r3, r3, #32
	str	r3, [r4, #68]
	.loc 1 7006 11 is_stmt 1
	.loc 1 7006 23 is_stmt 0
	movs	r3, #32
	strb	r3, [r4, #65]
	.loc 1 7007 11 is_stmt 1
	.loc 1 7007 22 is_stmt 0
	movs	r3, #0
	strb	r3, [r4, #66]
	.loc 1 7010 11 is_stmt 1
	.loc 1 7010 15
	.loc 1 7010 28 is_stmt 0
	strb	r3, [r4, #64]
	.loc 1 7010 13 is_stmt 1
	.loc 1 7012 11
	.loc 1 7012 18 is_stmt 0
	movs	r0, #1
	b	.L68
.L74:
	.loc 1 7017 10
	movs	r0, #0
.L68:
	.loc 1 7018 1
	pop	{r4, r5, r6, pc}
.LVL79:
.L72:
	.loc 1 6995 14
	movs	r0, #1
	b	.L68
	.cfi_endproc
.LFE408:
	.size	I2C_WaitOnTXISFlagUntilTimeout, .-I2C_WaitOnTXISFlagUntilTimeout
	.section	.text.I2C_WaitOnFlagUntilTimeout,"ax",%progbits
	.align	1
	.syntax unified
	.thumb
	.thumb_func
	.type	I2C_WaitOnFlagUntilTimeout, %function
I2C_WaitOnFlagUntilTimeout:
.LFB407:
	.loc 1 6949 1 is_stmt 1
	.cfi_startproc
	@ args = 4, pretend = 0, frame = 0
	@ frame_needed = 0, uses_anonymous_args = 0
.LVL80:
	push	{r3, r4, r5, r6, r7, r8, r9, lr}
	.cfi_def_cfa_offset 32
	.cfi_offset 3, -32
	.cfi_offset 4, -28
	.cfi_offset 5, -24
	.cfi_offset 6, -20
	.cfi_offset 7, -16
	.cfi_offset 8, -12
	.cfi_offset 9, -8
	.cfi_offset 14, -4
	mov	r5, r0
	mov	r8, r1
	mov	r7, r2
	mov	r6, r3
	ldr	r9, [sp, #32]
	.loc 1 6950 3
.LVL81:
.L78:
	.loc 1 6950 73
	.loc 1 6950 20 is_stmt 0
	ldr	r3, [r5]
	.loc 1 6950 30
	ldr	r4, [r3, #24]
	.loc 1 6950 64
	bics	r4, r8, r4
	ite	eq
	moveq	r3, #1
	movne	r3, #0
	.loc 1 6950 73
	cmp	r3, r7
	bne	.L83
	.loc 1 6953 5 is_stmt 1
	.loc 1 6953 9 is_stmt 0
	mov	r2, r9
	mov	r1, r6
	mov	r0, r5
	bl	I2C_IsErrorOccurred
.LVL82:
	.loc 1 6953 8
	cbnz	r0, .L81
	.loc 1 6959 5 is_stmt 1
	.loc 1 6959 8 is_stmt 0
	cmp	r6, #-1
	beq	.L78
	.loc 1 6961 7 is_stmt 1
	.loc 1 6961 13 is_stmt 0
	bl	HAL_GetTick
.LVL83:
	.loc 1 6961 27
	sub	r0, r0, r9
	.loc 1 6961 10
	cmp	r0, r6
	bhi	.L79
	.loc 1 6961 51 discriminator 1
	cmp	r6, #0
	bne	.L78
.L79:
	.loc 1 6963 9 is_stmt 1
	.loc 1 6963 24 is_stmt 0
	ldr	r3, [r5]
	.loc 1 6963 34
	ldr	r3, [r3, #24]
	.loc 1 6963 68
	bics	r3, r8, r3
	ite	eq
	moveq	r3, #1
	movne	r3, #0
	.loc 1 6963 12
	cmp	r3, r7
	bne	.L78
	.loc 1 6965 11 is_stmt 1
	.loc 1 6965 15 is_stmt 0
	ldr	r3, [r5, #68]
	.loc 1 6965 27
	orr	r3, r3, #32
	str	r3, [r5, #68]
	.loc 1 6966 11 is_stmt 1
	.loc 1 6966 23 is_stmt 0
	movs	r3, #32
	strb	r3, [r5, #65]
	.loc 1 6967 11 is_stmt 1
	.loc 1 6967 22 is_stmt 0
	movs	r3, #0
	strb	r3, [r5, #66]
	.loc 1 6970 11 is_stmt 1
	.loc 1 6970 15
	.loc 1 6970 28 is_stmt 0
	strb	r3, [r5, #64]
	.loc 1 6970 13 is_stmt 1
	.loc 1 6971 11
	.loc 1 6971 18 is_stmt 0
	movs	r0, #1
	b	.L77
.L83:
	.loc 1 6976 10
	movs	r0, #0
.L77:
	.loc 1 6977 1
	pop	{r3, r4, r5, r6, r7, r8, r9, pc}
.LVL84:
.L81:
	.loc 1 6955 14
	movs	r0, #1
	b	.L77
	.cfi_endproc
.LFE407:
	.size	I2C_WaitOnFlagUntilTimeout, .-I2C_WaitOnFlagUntilTimeout
	.section	.text.I2C_RequestMemoryWrite,"ax",%progbits
	.align	1
	.syntax unified
	.thumb
	.thumb_func
	.type	I2C_RequestMemoryWrite, %function
I2C_RequestMemoryWrite:
.LFB390:
	.loc 1 5794 1 is_stmt 1
	.cfi_startproc
	@ args = 8, pretend = 0, frame = 0
	@ frame_needed = 0, uses_anonymous_args = 0
.LVL85:
	push	{r4, r5, r6, r7, r8, lr}
	.cfi_def_cfa_offset 24
	.cfi_offset 4, -24
	.cfi_offset 5, -20
	.cfi_offset 6, -16
	.cfi_offset 7, -12
	.cfi_offset 8, -8
	.cfi_offset 14, -4
	sub	sp, sp, #8
	.cfi_def_cfa_offset 32
	mov	r4, r0
	mov	r8, r2
	mov	r5, r3
	ldr	r6, [sp, #32]
	ldr	r7, [sp, #36]
	.loc 1 5795 3
	ldr	r3, .L93
.LVL86:
	str	r3, [sp]
	mov	r3, #16777216
	uxtb	r2, r5
.LVL87:
	bl	I2C_TransferConfig
.LVL88:
	.loc 1 5798 3
	.loc 1 5798 7 is_stmt 0
	mov	r2, r7
	mov	r1, r6
	mov	r0, r4
	bl	I2C_WaitOnTXISFlagUntilTimeout
.LVL89:
	.loc 1 5798 6
	cbnz	r0, .L88
	.loc 1 5804 3 is_stmt 1
	.loc 1 5804 6 is_stmt 0
	cmp	r5, #1
	bne	.L86
	.loc 1 5807 5 is_stmt 1
	.loc 1 5807 9 is_stmt 0
	ldr	r3, [r4]
	.loc 1 5807 29
	uxtb	r2, r8
	.loc 1 5807 26
	str	r2, [r3, #40]
.L87:
	.loc 1 5826 3 is_stmt 1
	.loc 1 5826 7 is_stmt 0
	str	r7, [sp]
	mov	r3, r6
	movs	r2, #0
	movs	r1, #128
	mov	r0, r4
	bl	I2C_WaitOnFlagUntilTimeout
.LVL90:
	.loc 1 5826 6
	cbnz	r0, .L92
.L85:
	.loc 1 5832 1
	add	sp, sp, #8
	.cfi_remember_state
	.cfi_def_cfa_offset 24
	@ sp needed
	pop	{r4, r5, r6, r7, r8, pc}
.LVL91:
.L86:
	.cfi_restore_state
	.loc 1 5813 5 is_stmt 1
	.loc 1 5813 9 is_stmt 0
	ldr	r3, [r4]
	.loc 1 5813 29
	lsr	r2, r8, #8
	.loc 1 5813 26
	str	r2, [r3, #40]
	.loc 1 5816 5 is_stmt 1
	.loc 1 5816 9 is_stmt 0
	mov	r2, r7
	mov	r1, r6
	mov	r0, r4
	bl	I2C_WaitOnTXISFlagUntilTimeout
.LVL92:
	.loc 1 5816 8
	cbnz	r0, .L89
	.loc 1 5822 5 is_stmt 1
	.loc 1 5822 9 is_stmt 0
	ldr	r3, [r4]
	.loc 1 5822 29
	uxtb	r2, r8
	.loc 1 5822 26
	str	r2, [r3, #40]
	b	.L87
.L88:
	.loc 1 5800 12
	movs	r0, #1
	b	.L85
.L89:
	.loc 1 5818 14
	movs	r0, #1
	b	.L85
.L92:
	.loc 1 5828 12
	movs	r0, #1
	b	.L85
.L94:
	.align	2
.L93:
	.word	-2147475456
	.cfi_endproc
.LFE390:
	.size	I2C_RequestMemoryWrite, .-I2C_RequestMemoryWrite
	.section	.text.I2C_RequestMemoryRead,"ax",%progbits
	.align	1
	.syntax unified
	.thumb
	.thumb_func
	.type	I2C_RequestMemoryRead, %function
I2C_RequestMemoryRead:
.LFB391:
	.loc 1 5849 1 is_stmt 1
	.cfi_startproc
	@ args = 8, pretend = 0, frame = 0
	@ frame_needed = 0, uses_anonymous_args = 0
.LVL93:
	push	{r4, r5, r6, r7, r8, lr}
	.cfi_def_cfa_offset 24
	.cfi_offset 4, -24
	.cfi_offset 5, -20
	.cfi_offset 6, -16
	.cfi_offset 7, -12
	.cfi_offset 8, -8
	.cfi_offset 14, -4
	sub	sp, sp, #8
	.cfi_def_cfa_offset 32
	mov	r4, r0
	mov	r8, r2
	mov	r5, r3
	ldr	r6, [sp, #32]
	ldr	r7, [sp, #36]
	.loc 1 5850 3
	ldr	r3, .L104
.LVL94:
	str	r3, [sp]
	movs	r3, #0
	uxtb	r2, r5
.LVL95:
	bl	I2C_TransferConfig
.LVL96:
	.loc 1 5853 3
	.loc 1 5853 7 is_stmt 0
	mov	r2, r7
	mov	r1, r6
	mov	r0, r4
	bl	I2C_WaitOnTXISFlagUntilTimeout
.LVL97:
	.loc 1 5853 6
	cbnz	r0, .L99
	.loc 1 5859 3 is_stmt 1
	.loc 1 5859 6 is_stmt 0
	cmp	r5, #1
	bne	.L97
	.loc 1 5862 5 is_stmt 1
	.loc 1 5862 9 is_stmt 0
	ldr	r3, [r4]
	.loc 1 5862 29
	uxtb	r2, r8
	.loc 1 5862 26
	str	r2, [r3, #40]
.L98:
	.loc 1 5881 3 is_stmt 1
	.loc 1 5881 7 is_stmt 0
	str	r7, [sp]
	mov	r3, r6
	movs	r2, #0
	movs	r1, #64
	mov	r0, r4
	bl	I2C_WaitOnFlagUntilTimeout
.LVL98:
	.loc 1 5881 6
	cbnz	r0, .L103
.L96:
	.loc 1 5887 1
	add	sp, sp, #8
	.cfi_remember_state
	.cfi_def_cfa_offset 24
	@ sp needed
	pop	{r4, r5, r6, r7, r8, pc}
.LVL99:
.L97:
	.cfi_restore_state
	.loc 1 5868 5 is_stmt 1
	.loc 1 5868 9 is_stmt 0
	ldr	r3, [r4]
	.loc 1 5868 29
	lsr	r2, r8, #8
	.loc 1 5868 26
	str	r2, [r3, #40]
	.loc 1 5871 5 is_stmt 1
	.loc 1 5871 9 is_stmt 0
	mov	r2, r7
	mov	r1, r6
	mov	r0, r4
	bl	I2C_WaitOnTXISFlagUntilTimeout
.LVL100:
	.loc 1 5871 8
	cbnz	r0, .L100
	.loc 1 5877 5 is_stmt 1
	.loc 1 5877 9 is_stmt 0
	ldr	r3, [r4]
	.loc 1 5877 29
	uxtb	r2, r8
	.loc 1 5877 26
	str	r2, [r3, #40]
	b	.L98
.L99:
	.loc 1 5855 12
	movs	r0, #1
	b	.L96
.L100:
	.loc 1 5873 14
	movs	r0, #1
	b	.L96
.L103:
	.loc 1 5883 12
	movs	r0, #1
	b	.L96
.L105:
	.align	2
.L104:
	.word	-2147475456
	.cfi_endproc
.LFE391:
	.size	I2C_RequestMemoryRead, .-I2C_RequestMemoryRead
	.section	.text.I2C_WaitOnSTOPFlagUntilTimeout,"ax",%progbits
	.align	1
	.syntax unified
	.thumb
	.thumb_func
	.type	I2C_WaitOnSTOPFlagUntilTimeout, %function
I2C_WaitOnSTOPFlagUntilTimeout:
.LFB409:
	.loc 1 7030 1 is_stmt 1
	.cfi_startproc
	@ args = 0, pretend = 0, frame = 0
	@ frame_needed = 0, uses_anonymous_args = 0
.LVL101:
	push	{r4, r5, r6, lr}
	.cfi_def_cfa_offset 16
	.cfi_offset 4, -16
	.cfi_offset 5, -12
	.cfi_offset 6, -8
	.cfi_offset 14, -4
	mov	r4, r0
	mov	r5, r1
	mov	r6, r2
	.loc 1 7031 3
	.loc 1 7031 9 is_stmt 0
	b	.L107
.LVL102:
.L109:
	.loc 1 7042 7 is_stmt 1
	.loc 1 7042 22 is_stmt 0
	ldr	r3, [r4]
	.loc 1 7042 32
	ldr	r3, [r3, #24]
	.loc 1 7042 10
	tst	r3, #32
	beq	.L113
.L107:
	.loc 1 7031 95 is_stmt 1
	.loc 1 7031 20 is_stmt 0
	ldr	r3, [r4]
	.loc 1 7031 30
	ldr	r3, [r3, #24]
	.loc 1 7031 95
	tst	r3, #32
	bne	.L114
	.loc 1 7034 5 is_stmt 1
	.loc 1 7034 9 is_stmt 0
	mov	r2, r6
	mov	r1, r5
	mov	r0, r4
	bl	I2C_IsErrorOccurred
.LVL103:
	.loc 1 7034 8
	cbnz	r0, .L111
	.loc 1 7040 5 is_stmt 1
	.loc 1 7040 11 is_stmt 0
	bl	HAL_GetTick
.LVL104:
	.loc 1 7040 25
	subs	r0, r0, r6
	.loc 1 7040 8
	cmp	r0, r5
	bhi	.L109
	.loc 1 7040 49 discriminator 1
	cmp	r5, #0
	bne	.L107
	b	.L109
.L113:
	.loc 1 7044 9 is_stmt 1
	.loc 1 7044 13 is_stmt 0
	ldr	r3, [r4, #68]
	.loc 1 7044 25
	orr	r3, r3, #32
	str	r3, [r4, #68]
	.loc 1 7045 9 is_stmt 1
	.loc 1 7045 21 is_stmt 0
	movs	r3, #32
	strb	r3, [r4, #65]
	.loc 1 7046 9 is_stmt 1
	.loc 1 7046 20 is_stmt 0
	movs	r3, #0
	strb	r3, [r4, #66]
	.loc 1 7049 9 is_stmt 1
	.loc 1 7049 13
	.loc 1 7049 26 is_stmt 0
	strb	r3, [r4, #64]
	.loc 1 7049 11 is_stmt 1
	.loc 1 7051 9
	.loc 1 7051 16 is_stmt 0
	movs	r0, #1
	b	.L108
.L114:
	.loc 1 7055 10
	movs	r0, #0
.L108:
	.loc 1 7056 1
	pop	{r4, r5, r6, pc}
.LVL105:
.L111:
	.loc 1 7036 14
	movs	r0, #1
	b	.L108
	.cfi_endproc
.LFE409:
	.size	I2C_WaitOnSTOPFlagUntilTimeout, .-I2C_WaitOnSTOPFlagUntilTimeout
	.section	.text.I2C_WaitOnRXNEFlagUntilTimeout,"ax",%progbits
	.align	1
	.syntax unified
	.thumb
	.thumb_func
	.type	I2C_WaitOnRXNEFlagUntilTimeout, %function
I2C_WaitOnRXNEFlagUntilTimeout:
.LFB410:
	.loc 1 7068 1 is_stmt 1
	.cfi_startproc
	@ args = 0, pretend = 0, frame = 0
	@ frame_needed = 0, uses_anonymous_args = 0
.LVL106:
	push	{r3, r4, r5, r6, r7, lr}
	.cfi_def_cfa_offset 24
	.cfi_offset 3, -24
	.cfi_offset 4, -20
	.cfi_offset 5, -16
	.cfi_offset 6, -12
	.cfi_offset 7, -8
	.cfi_offset 14, -4
	mov	r4, r0
	mov	r6, r1
	mov	r7, r2
	.loc 1 7069 3
.LVL107:
	.loc 1 7071 3
	.loc 1 7069 21 is_stmt 0
	movs	r5, #0
	.loc 1 7071 9
	b	.L116
.LVL108:
.L120:
	.loc 1 7113 9 is_stmt 1
	.loc 1 7113 25 is_stmt 0
	movs	r3, #0
	str	r3, [r4, #68]
.LVL109:
.L118:
	.loc 1 7118 5 is_stmt 1
	.loc 1 7118 12 is_stmt 0
	bl	HAL_GetTick
.LVL110:
	.loc 1 7118 26
	subs	r0, r0, r7
	.loc 1 7118 8
	cmp	r0, r6
	bhi	.L121
	.loc 1 7118 50 discriminator 2
	cbnz	r6, .L116
.L121:
	.loc 1 7118 70 discriminator 3
	cbnz	r5, .L116
	.loc 1 7120 7 is_stmt 1
	.loc 1 7120 22 is_stmt 0
	ldr	r3, [r4]
	.loc 1 7120 32
	ldr	r3, [r3, #24]
	.loc 1 7120 10
	tst	r3, #4
	bne	.L116
	.loc 1 7122 9 is_stmt 1
	.loc 1 7122 13 is_stmt 0
	ldr	r3, [r4, #68]
	.loc 1 7122 25
	orr	r3, r3, #32
	str	r3, [r4, #68]
	.loc 1 7123 9 is_stmt 1
	.loc 1 7123 21 is_stmt 0
	movs	r3, #32
	strb	r3, [r4, #65]
	.loc 1 7126 9 is_stmt 1
	.loc 1 7126 13
	.loc 1 7126 26 is_stmt 0
	movs	r3, #0
	strb	r3, [r4, #64]
	.loc 1 7126 11 is_stmt 1
	.loc 1 7128 9
.LVL111:
	.loc 1 7128 16 is_stmt 0
	movs	r5, #1
.LVL112:
.L116:
	.loc 1 7071 106 is_stmt 1
	.loc 1 7071 21 is_stmt 0
	ldr	r3, [r4]
	.loc 1 7071 31
	ldr	r3, [r3, #24]
	.loc 1 7071 106
	tst	r3, #4
	bne	.L123
	.loc 1 7071 106 discriminator 1
	cbnz	r5, .L123
	.loc 1 7074 5 is_stmt 1
	.loc 1 7074 9 is_stmt 0
	mov	r2, r7
	mov	r1, r6
	mov	r0, r4
	bl	I2C_IsErrorOccurred
.LVL113:
	.loc 1 7074 8
	cbz	r0, .L117
	.loc 1 7076 14
	movs	r5, #1
.LVL114:
.L117:
	.loc 1 7080 5 is_stmt 1
	.loc 1 7080 20 is_stmt 0
	ldr	r3, [r4]
	.loc 1 7080 30
	ldr	r2, [r3, #24]
	.loc 1 7080 8
	tst	r2, #32
	beq	.L118
	.loc 1 7080 103 discriminator 1
	cmp	r5, #0
	bne	.L118
	.loc 1 7084 7 is_stmt 1
	.loc 1 7084 32 is_stmt 0
	ldr	r2, [r3, #24]
	.loc 1 7092 7 is_stmt 1
	.loc 1 7092 31 is_stmt 0
	ldr	r2, [r3, #24]
	.loc 1 7092 10
	tst	r2, #16
	beq	.L120
	.loc 1 7094 9 is_stmt 1
	.loc 1 7094 96 is_stmt 0
	movs	r2, #16
	str	r2, [r3, #28]
	.loc 1 7095 9 is_stmt 1
	.loc 1 7095 25 is_stmt 0
	movs	r3, #4
	str	r3, [r4, #68]
	.loc 1 7098 9 is_stmt 1
	.loc 1 7098 105 is_stmt 0
	ldr	r3, [r4]
	.loc 1 7098 96
	movs	r2, #32
	str	r2, [r3, #28]
	.loc 1 7101 9 is_stmt 1
	.loc 1 7101 16 is_stmt 0
	ldr	r1, [r4]
	.loc 1 7101 26
	ldr	r3, [r1, #4]
	.loc 1 7101 32
	bic	r3, r3, #33423360
	bic	r3, r3, #71168
	bic	r3, r3, #510
	bic	r3, r3, #1
	str	r3, [r1, #4]
	.loc 1 7103 9 is_stmt 1
	.loc 1 7103 21 is_stmt 0
	strb	r2, [r4, #65]
	.loc 1 7104 9 is_stmt 1
	.loc 1 7104 20 is_stmt 0
	movs	r3, #0
	strb	r3, [r4, #66]
	.loc 1 7107 9 is_stmt 1
	.loc 1 7107 13
	.loc 1 7107 26 is_stmt 0
	strb	r3, [r4, #64]
	.loc 1 7107 11 is_stmt 1
	.loc 1 7109 9
.LVL115:
	.loc 1 7109 16 is_stmt 0
	movs	r5, #1
	b	.L118
.LVL116:
.L123:
	.loc 1 7132 3 is_stmt 1
	.loc 1 7133 1 is_stmt 0
	mov	r0, r5
	pop	{r3, r4, r5, r6, r7, pc}
	.cfi_endproc
.LFE410:
	.size	I2C_WaitOnRXNEFlagUntilTimeout, .-I2C_WaitOnRXNEFlagUntilTimeout
	.section	.text.HAL_I2C_MspInit,"ax",%progbits
	.align	1
	.weak	HAL_I2C_MspInit
	.syntax unified
	.thumb
	.thumb_func
	.type	HAL_I2C_MspInit, %function
HAL_I2C_MspInit:
.LFB337:
	.loc 1 697 1 is_stmt 1
	.cfi_startproc
	@ args = 0, pretend = 0, frame = 0
	@ frame_needed = 0, uses_anonymous_args = 0
	@ link register save eliminated.
.LVL117:
	.loc 1 699 3
	.loc 1 704 1 is_stmt 0
	bx	lr
	.cfi_endproc
.LFE337:
	.size	HAL_I2C_MspInit, .-HAL_I2C_MspInit
	.section	.text.HAL_I2C_Init,"ax",%progbits
	.align	1
	.global	HAL_I2C_Init
	.syntax unified
	.thumb
	.thumb_func
	.type	HAL_I2C_Init, %function
HAL_I2C_Init:
.LFB335:
	.loc 1 536 1 is_stmt 1
	.cfi_startproc
	@ args = 0, pretend = 0, frame = 0
	@ frame_needed = 0, uses_anonymous_args = 0
.LVL118:
	.loc 1 538 3
	.loc 1 538 6 is_stmt 0
	cmp	r0, #0
	beq	.L135
	.loc 1 536 1
	push	{r4, lr}
	.cfi_def_cfa_offset 8
	.cfi_offset 4, -8
	.cfi_offset 14, -4
	mov	r4, r0
	.loc 1 544 3 is_stmt 1
	.loc 1 545 3
	.loc 1 546 3
	.loc 1 547 3
	.loc 1 548 3
	.loc 1 549 3
	.loc 1 550 3
	.loc 1 551 3
	.loc 1 553 3
	.loc 1 553 11 is_stmt 0
	ldrb	r3, [r0, #65]	@ zero_extendqisi2
	.loc 1 553 6
	cmp	r3, #0
	beq	.L140
.LVL119:
.L130:
	.loc 1 584 3 is_stmt 1
	.loc 1 584 15 is_stmt 0
	movs	r3, #36
	strb	r3, [r4, #65]
	.loc 1 587 3 is_stmt 1
	.loc 1 587 12 is_stmt 0
	ldr	r2, [r4]
	.loc 1 587 22
	ldr	r3, [r2]
	.loc 1 587 29
	bic	r3, r3, #1
	str	r3, [r2]
	.loc 1 591 3 is_stmt 1
	.loc 1 591 39 is_stmt 0
	ldr	r3, [r4, #4]
	.loc 1 591 7
	ldr	r2, [r4]
	.loc 1 591 47
	bic	r3, r3, #251658240
	.loc 1 591 27
	str	r3, [r2, #16]
	.loc 1 595 3 is_stmt 1
	.loc 1 595 7 is_stmt 0
	ldr	r2, [r4]
	.loc 1 595 17
	ldr	r3, [r2, #8]
	.loc 1 595 24
	bic	r3, r3, #32768
	str	r3, [r2, #8]
	.loc 1 598 3 is_stmt 1
	.loc 1 598 17 is_stmt 0
	ldr	r3, [r4, #12]
	.loc 1 598 6
	cmp	r3, #1
	beq	.L141
	.loc 1 604 5 is_stmt 1
	.loc 1 604 77 is_stmt 0
	ldr	r3, [r4, #8]
	.loc 1 604 9
	ldr	r2, [r4]
	.loc 1 604 65
	orr	r3, r3, #33792
	.loc 1 604 26
	str	r3, [r2, #8]
.L132:
	.loc 1 609 3 is_stmt 1
	.loc 1 609 17 is_stmt 0
	ldr	r3, [r4, #12]
	.loc 1 609 6
	cmp	r3, #2
	beq	.L142
	.loc 1 616 5 is_stmt 1
	.loc 1 616 11 is_stmt 0
	ldr	r2, [r4]
	.loc 1 616 21
	ldr	r3, [r2, #4]
	.loc 1 616 28
	bic	r3, r3, #2048
	str	r3, [r2, #4]
.L134:
	.loc 1 619 3 is_stmt 1
	.loc 1 619 7 is_stmt 0
	ldr	r2, [r4]
	.loc 1 619 17
	ldr	r1, [r2, #4]
	.loc 1 619 23
	ldr	r3, .L143
	orrs	r3, r3, r1
	str	r3, [r2, #4]
	.loc 1 623 3 is_stmt 1
	.loc 1 623 7 is_stmt 0
	ldr	r2, [r4]
	.loc 1 623 17
	ldr	r3, [r2, #12]
	.loc 1 623 24
	bic	r3, r3, #32768
	str	r3, [r2, #12]
	.loc 1 626 3 is_stmt 1
	.loc 1 626 37 is_stmt 0
	ldr	r3, [r4, #16]
	.loc 1 626 66
	ldr	r2, [r4, #20]
	.loc 1 626 54
	orrs	r3, r3, r2
	.loc 1 627 38
	ldr	r1, [r4, #24]
	.loc 1 626 7
	ldr	r2, [r4]
	.loc 1 626 79
	orr	r3, r3, r1, lsl #8
	.loc 1 626 24
	str	r3, [r2, #12]
	.loc 1 631 3 is_stmt 1
	.loc 1 631 36 is_stmt 0
	ldr	r3, [r4, #28]
	.loc 1 631 65
	ldr	r1, [r4, #32]
	.loc 1 631 7
	ldr	r2, [r4]
	.loc 1 631 53
	orrs	r3, r3, r1
	.loc 1 631 23
	str	r3, [r2]
	.loc 1 634 3 is_stmt 1
	.loc 1 634 12 is_stmt 0
	ldr	r2, [r4]
	.loc 1 634 22
	ldr	r3, [r2]
	.loc 1 634 29
	orr	r3, r3, #1
	str	r3, [r2]
	.loc 1 636 3 is_stmt 1
	.loc 1 636 19 is_stmt 0
	movs	r0, #0
	str	r0, [r4, #68]
	.loc 1 637 3 is_stmt 1
	.loc 1 637 15 is_stmt 0
	movs	r3, #32
	strb	r3, [r4, #65]
	.loc 1 638 3 is_stmt 1
	.loc 1 638 23 is_stmt 0
	str	r0, [r4, #48]
	.loc 1 639 3 is_stmt 1
	.loc 1 639 14 is_stmt 0
	strb	r0, [r4, #66]
	.loc 1 641 3 is_stmt 1
	.loc 1 642 1 is_stmt 0
	pop	{r4, pc}
.LVL120:
.L140:
	.loc 1 556 5 is_stmt 1
	.loc 1 556 16 is_stmt 0
	strb	r3, [r0, #64]
	.loc 1 580 5 is_stmt 1
	bl	HAL_I2C_MspInit
.LVL121:
	b	.L130
.L141:
	.loc 1 600 5
	.loc 1 600 58 is_stmt 0
	ldr	r3, [r4, #8]
	.loc 1 600 9
	ldr	r2, [r4]
	.loc 1 600 46
	orr	r3, r3, #32768
	.loc 1 600 26
	str	r3, [r2, #8]
	b	.L132
.L142:
	.loc 1 611 5 is_stmt 1
	.loc 1 611 11 is_stmt 0
	ldr	r2, [r4]
	.loc 1 611 21
	ldr	r3, [r2, #4]
	.loc 1 611 28
	orr	r3, r3, #2048
	str	r3, [r2, #4]
	b	.L134
.LVL122:
.L135:
	.cfi_def_cfa_offset 0
	.cfi_restore 4
	.cfi_restore 14
	.loc 1 540 12
	movs	r0, #1
.LVL123:
	.loc 1 642 1
	bx	lr
.L144:
	.align	2
.L143:
	.word	33587200
	.cfi_endproc
.LFE335:
	.size	HAL_I2C_Init, .-HAL_I2C_Init
	.section	.text.HAL_I2C_MspDeInit,"ax",%progbits
	.align	1
	.weak	HAL_I2C_MspDeInit
	.syntax unified
	.thumb
	.thumb_func
	.type	HAL_I2C_MspDeInit, %function
HAL_I2C_MspDeInit:
.LFB338:
	.loc 1 713 1 is_stmt 1
	.cfi_startproc
	@ args = 0, pretend = 0, frame = 0
	@ frame_needed = 0, uses_anonymous_args = 0
	@ link register save eliminated.
.LVL124:
	.loc 1 715 3
	.loc 1 720 1 is_stmt 0
	bx	lr
	.cfi_endproc
.LFE338:
	.size	HAL_I2C_MspDeInit, .-HAL_I2C_MspDeInit
	.section	.text.HAL_I2C_DeInit,"ax",%progbits
	.align	1
	.global	HAL_I2C_DeInit
	.syntax unified
	.thumb
	.thumb_func
	.type	HAL_I2C_DeInit, %function
HAL_I2C_DeInit:
.LFB336:
	.loc 1 651 1 is_stmt 1
	.cfi_startproc
	@ args = 0, pretend = 0, frame = 0
	@ frame_needed = 0, uses_anonymous_args = 0
.LVL125:
	.loc 1 653 3
	.loc 1 653 6 is_stmt 0
	cbz	r0, .L148
	.loc 1 651 1
	push	{r4, lr}
	.cfi_def_cfa_offset 8
	.cfi_offset 4, -8
	.cfi_offset 14, -4
	mov	r4, r0
	.loc 1 659 3 is_stmt 1
	.loc 1 661 3
	.loc 1 661 15 is_stmt 0
	movs	r3, #36
	strb	r3, [r0, #65]
	.loc 1 664 3 is_stmt 1
	.loc 1 664 12 is_stmt 0
	ldr	r2, [r0]
	.loc 1 664 22
	ldr	r3, [r2]
	.loc 1 664 29
	bic	r3, r3, #1
	str	r3, [r2]
	.loc 1 676 3 is_stmt 1
	bl	HAL_I2C_MspDeInit
.LVL126:
	.loc 1 679 3
	.loc 1 679 19 is_stmt 0
	movs	r0, #0
	str	r0, [r4, #68]
	.loc 1 680 3 is_stmt 1
	.loc 1 680 15 is_stmt 0
	strb	r0, [r4, #65]
	.loc 1 681 3 is_stmt 1
	.loc 1 681 23 is_stmt 0
	str	r0, [r4, #48]
	.loc 1 682 3 is_stmt 1
	.loc 1 682 14 is_stmt 0
	strb	r0, [r4, #66]
	.loc 1 685 3 is_stmt 1
	.loc 1 685 7
	.loc 1 685 20 is_stmt 0
	strb	r0, [r4, #64]
	.loc 1 685 5 is_stmt 1
	.loc 1 687 3
	.loc 1 688 1 is_stmt 0
	pop	{r4, pc}
.LVL127:
.L148:
	.cfi_def_cfa_offset 0
	.cfi_restore 4
	.cfi_restore 14
	.loc 1 655 12
	movs	r0, #1
.LVL128:
	.loc 1 688 1
	bx	lr
	.cfi_endproc
.LFE336:
	.size	HAL_I2C_DeInit, .-HAL_I2C_DeInit
	.section	.text.HAL_I2C_Master_Transmit,"ax",%progbits
	.align	1
	.global	HAL_I2C_Master_Transmit
	.syntax unified
	.thumb
	.thumb_func
	.type	HAL_I2C_Master_Transmit, %function
HAL_I2C_Master_Transmit:
.LFB339:
	.loc 1 1121 1 is_stmt 1
	.cfi_startproc
	@ args = 4, pretend = 0, frame = 0
	@ frame_needed = 0, uses_anonymous_args = 0
.LVL129:
	push	{r4, r5, r6, r7, r8, r9, r10, lr}
	.cfi_def_cfa_offset 32
	.cfi_offset 4, -32
	.cfi_offset 5, -28
	.cfi_offset 6, -24
	.cfi_offset 7, -20
	.cfi_offset 8, -16
	.cfi_offset 9, -12
	.cfi_offset 10, -8
	.cfi_offset 14, -4
	sub	sp, sp, #8
	.cfi_def_cfa_offset 40
	mov	r7, r1
	ldr	r6, [sp, #40]
	.loc 1 1122 3
	.loc 1 1123 3
	.loc 1 1125 3
	.loc 1 1125 11 is_stmt 0
	ldrb	r1, [r0, #65]	@ zero_extendqisi2
.LVL130:
	uxtb	r1, r1
	.loc 1 1125 6
	cmp	r1, #32
	bne	.L163
	mov	r4, r0
	mov	r8, r2
	mov	r9, r3
	.loc 1 1128 5 is_stmt 1
	.loc 1 1128 9
	.loc 1 1128 18 is_stmt 0
	ldrb	r3, [r0, #64]	@ zero_extendqisi2
.LVL131:
	.loc 1 1128 11
	cmp	r3, #1
	beq	.L164
	.loc 1 1128 68 is_stmt 1 discriminator 2
	.loc 1 1128 81 is_stmt 0 discriminator 2
	mov	r10, #1
	strb	r10, [r0, #64]
	.loc 1 1128 7 is_stmt 1 discriminator 2
	.loc 1 1131 5 discriminator 2
	.loc 1 1131 17 is_stmt 0 discriminator 2
	bl	HAL_GetTick
.LVL132:
	mov	r5, r0
.LVL133:
	.loc 1 1133 5 is_stmt 1 discriminator 2
	.loc 1 1133 9 is_stmt 0 discriminator 2
	str	r0, [sp]
	movs	r3, #25
	mov	r2, r10
	mov	r1, #32768
	mov	r0, r4
.LVL134:
	bl	I2C_WaitOnFlagUntilTimeout
.LVL135:
	.loc 1 1133 8 discriminator 2
	cmp	r0, #0
	bne	.L165
	.loc 1 1138 5 is_stmt 1
	.loc 1 1138 17 is_stmt 0
	movs	r3, #33
	strb	r3, [r4, #65]
	.loc 1 1139 5 is_stmt 1
	.loc 1 1139 16 is_stmt 0
	movs	r3, #16
	strb	r3, [r4, #66]
	.loc 1 1140 5 is_stmt 1
	.loc 1 1140 21 is_stmt 0
	movs	r3, #0
	str	r3, [r4, #68]
	.loc 1 1143 5 is_stmt 1
	.loc 1 1143 20 is_stmt 0
	str	r8, [r4, #36]
	.loc 1 1144 5 is_stmt 1
	.loc 1 1144 21 is_stmt 0
	strh	r9, [r4, #42]	@ movhi
	.loc 1 1145 5 is_stmt 1
	.loc 1 1145 19 is_stmt 0
	str	r3, [r4, #52]
	.loc 1 1147 5 is_stmt 1
	.loc 1 1147 13 is_stmt 0
	ldrh	r3, [r4, #42]
	uxth	r3, r3
	.loc 1 1147 8
	cmp	r3, #255
	bls	.L155
	.loc 1 1149 7 is_stmt 1
	.loc 1 1149 22 is_stmt 0
	movs	r3, #255
	strh	r3, [r4, #40]	@ movhi
	.loc 1 1150 7 is_stmt 1
.LVL136:
	.loc 1 1150 16 is_stmt 0
	mov	r3, #16777216
.LVL137:
.L156:
	.loc 1 1158 5 is_stmt 1
	.loc 1 1158 13 is_stmt 0
	ldrh	r2, [r4, #40]
	.loc 1 1158 8
	cbz	r2, .L157
	.loc 1 1162 7 is_stmt 1
	.loc 1 1162 11 is_stmt 0
	ldr	r2, [r4]
	.loc 1 1162 30
	ldrb	r1, [r8]	@ zero_extendqisi2
	.loc 1 1162 28
	str	r1, [r2, #40]
	.loc 1 1165 7 is_stmt 1
	.loc 1 1165 11 is_stmt 0
	ldr	r2, [r4, #36]
	.loc 1 1165 21
	adds	r2, r2, #1
	str	r2, [r4, #36]
	.loc 1 1167 7 is_stmt 1
	.loc 1 1167 11 is_stmt 0
	ldrh	r2, [r4, #42]
	uxth	r2, r2
	.loc 1 1167 22
	subs	r2, r2, #1
	uxth	r2, r2
	strh	r2, [r4, #42]	@ movhi
	.loc 1 1168 7 is_stmt 1
	.loc 1 1168 11 is_stmt 0
	ldrh	r2, [r4, #40]
	.loc 1 1168 21
	subs	r2, r2, #1
	uxth	r2, r2
	strh	r2, [r4, #40]	@ movhi
	.loc 1 1172 7 is_stmt 1
	adds	r2, r2, #1
	ldr	r1, .L171
	str	r1, [sp]
	uxtb	r2, r2
	mov	r1, r7
	mov	r0, r4
	bl	I2C_TransferConfig
.LVL138:
	b	.L159
.LVL139:
.L155:
	.loc 1 1154 7
	.loc 1 1154 28 is_stmt 0
	ldrh	r3, [r4, #42]
	.loc 1 1154 22
	strh	r3, [r4, #40]	@ movhi
	.loc 1 1155 7 is_stmt 1
.LVL140:
	.loc 1 1155 16 is_stmt 0
	mov	r3, #33554432
	b	.L156
.LVL141:
.L157:
	.loc 1 1179 7 is_stmt 1
	ldr	r1, .L171
	str	r1, [sp]
	uxtb	r2, r2
	mov	r1, r7
	mov	r0, r4
	bl	I2C_TransferConfig
.LVL142:
	b	.L159
.L161:
	.loc 1 1215 11
	.loc 1 1215 32 is_stmt 0
	ldrh	r2, [r4, #42]
	uxth	r2, r2
	.loc 1 1215 26
	strh	r2, [r4, #40]	@ movhi
	.loc 1 1216 11 is_stmt 1
	movs	r3, #0
	str	r3, [sp]
	mov	r3, #33554432
	uxtb	r2, r2
	mov	r1, r7
	mov	r0, r4
	bl	I2C_TransferConfig
.LVL143:
.L159:
	.loc 1 1183 28
	.loc 1 1183 16 is_stmt 0
	ldrh	r3, [r4, #42]
	uxth	r3, r3
	.loc 1 1183 28
	cmp	r3, #0
	beq	.L170
	.loc 1 1186 7 is_stmt 1
	.loc 1 1186 11 is_stmt 0
	mov	r2, r5
	mov	r1, r6
	mov	r0, r4
	bl	I2C_WaitOnTXISFlagUntilTimeout
.LVL144:
	.loc 1 1186 10
	cmp	r0, #0
	bne	.L166
	.loc 1 1191 7 is_stmt 1
	.loc 1 1191 35 is_stmt 0
	ldr	r2, [r4, #36]
	.loc 1 1191 11
	ldr	r3, [r4]
	.loc 1 1191 30
	ldrb	r2, [r2]	@ zero_extendqisi2
	.loc 1 1191 28
	str	r2, [r3, #40]
	.loc 1 1194 7 is_stmt 1
	.loc 1 1194 11 is_stmt 0
	ldr	r3, [r4, #36]
	.loc 1 1194 21
	adds	r3, r3, #1
	str	r3, [r4, #36]
	.loc 1 1196 7 is_stmt 1
	.loc 1 1196 11 is_stmt 0
	ldrh	r3, [r4, #42]
	uxth	r3, r3
	.loc 1 1196 22
	subs	r3, r3, #1
	uxth	r3, r3
	strh	r3, [r4, #42]	@ movhi
	.loc 1 1197 7 is_stmt 1
	.loc 1 1197 11 is_stmt 0
	ldrh	r3, [r4, #40]
	.loc 1 1197 21
	subs	r3, r3, #1
	uxth	r3, r3
	strh	r3, [r4, #40]	@ movhi
	.loc 1 1199 7 is_stmt 1
	.loc 1 1199 16 is_stmt 0
	ldrh	r2, [r4, #42]
	uxth	r2, r2
	.loc 1 1199 10
	cmp	r2, #0
	beq	.L159
	.loc 1 1199 35 discriminator 1
	cmp	r3, #0
	bne	.L159
	.loc 1 1202 9 is_stmt 1
	.loc 1 1202 13 is_stmt 0
	str	r5, [sp]
	mov	r3, r6
	movs	r2, #0
	movs	r1, #128
	mov	r0, r4
	bl	I2C_WaitOnFlagUntilTimeout
.LVL145:
	.loc 1 1202 12
	cbnz	r0, .L167
	.loc 1 1207 9 is_stmt 1
	.loc 1 1207 17 is_stmt 0
	ldrh	r3, [r4, #42]
	uxth	r3, r3
	.loc 1 1207 12
	cmp	r3, #255
	bls	.L161
	.loc 1 1209 11 is_stmt 1
	.loc 1 1209 26 is_stmt 0
	movs	r2, #255
	strh	r2, [r4, #40]	@ movhi
	.loc 1 1210 11 is_stmt 1
	movs	r3, #0
	str	r3, [sp]
	mov	r3, #16777216
	mov	r1, r7
	mov	r0, r4
	bl	I2C_TransferConfig
.LVL146:
	b	.L159
.L170:
	.loc 1 1224 5
	.loc 1 1224 9 is_stmt 0
	mov	r2, r5
	mov	r1, r6
	mov	r0, r4
	bl	I2C_WaitOnSTOPFlagUntilTimeout
.LVL147:
	.loc 1 1224 8
	cbnz	r0, .L168
	.loc 1 1230 5 is_stmt 1
	.loc 1 1230 101 is_stmt 0
	ldr	r3, [r4]
	.loc 1 1230 92
	movs	r2, #32
	str	r2, [r3, #28]
	.loc 1 1233 5 is_stmt 1
	.loc 1 1233 12 is_stmt 0
	ldr	r1, [r4]
	.loc 1 1233 22
	ldr	r3, [r1, #4]
	.loc 1 1233 28
	bic	r3, r3, #33423360
	bic	r3, r3, #71168
	bic	r3, r3, #510
	bic	r3, r3, #1
	str	r3, [r1, #4]
	.loc 1 1235 5 is_stmt 1
	.loc 1 1235 17 is_stmt 0
	strb	r2, [r4, #65]
	.loc 1 1236 5 is_stmt 1
	.loc 1 1236 16 is_stmt 0
	movs	r3, #0
	strb	r3, [r4, #66]
	.loc 1 1239 5 is_stmt 1
	.loc 1 1239 9
	.loc 1 1239 22 is_stmt 0
	strb	r3, [r4, #64]
	.loc 1 1239 7 is_stmt 1
	.loc 1 1241 5
	.loc 1 1241 12 is_stmt 0
	b	.L154
.LVL148:
.L163:
	.loc 1 1245 12
	movs	r0, #2
.LVL149:
.L154:
	.loc 1 1247 1
	add	sp, sp, #8
	.cfi_remember_state
	.cfi_def_cfa_offset 32
	@ sp needed
	pop	{r4, r5, r6, r7, r8, r9, r10, pc}
.LVL150:
.L164:
	.cfi_restore_state
	.loc 1 1128 49
	movs	r0, #2
.LVL151:
	b	.L154
.LVL152:
.L165:
	.loc 1 1135 14
	movs	r0, #1
	b	.L154
.LVL153:
.L166:
	.loc 1 1188 16
	movs	r0, #1
	b	.L154
.L167:
	.loc 1 1204 18
	movs	r0, #1
	b	.L154
.L168:
	.loc 1 1226 14
	movs	r0, #1
	b	.L154
.L172:
	.align	2
.L171:
	.word	-2147475456
	.cfi_endproc
.LFE339:
	.size	HAL_I2C_Master_Transmit, .-HAL_I2C_Master_Transmit
	.section	.text.HAL_I2C_Master_Receive,"ax",%progbits
	.align	1
	.global	HAL_I2C_Master_Receive
	.syntax unified
	.thumb
	.thumb_func
	.type	HAL_I2C_Master_Receive, %function
HAL_I2C_Master_Receive:
.LFB340:
	.loc 1 1262 1 is_stmt 1
	.cfi_startproc
	@ args = 4, pretend = 0, frame = 0
	@ frame_needed = 0, uses_anonymous_args = 0
.LVL154:
	push	{r4, r5, r6, r7, r8, r9, r10, lr}
	.cfi_def_cfa_offset 32
	.cfi_offset 4, -32
	.cfi_offset 5, -28
	.cfi_offset 6, -24
	.cfi_offset 7, -20
	.cfi_offset 8, -16
	.cfi_offset 9, -12
	.cfi_offset 10, -8
	.cfi_offset 14, -4
	sub	sp, sp, #8
	.cfi_def_cfa_offset 40
	mov	r7, r1
	ldr	r6, [sp, #40]
	.loc 1 1263 3
	.loc 1 1265 3
	.loc 1 1265 11 is_stmt 0
	ldrb	r1, [r0, #65]	@ zero_extendqisi2
.LVL155:
	uxtb	r1, r1
	.loc 1 1265 6
	cmp	r1, #32
	bne	.L181
	mov	r4, r0
	mov	r8, r2
	mov	r9, r3
	.loc 1 1268 5 is_stmt 1
	.loc 1 1268 9
	.loc 1 1268 18 is_stmt 0
	ldrb	r3, [r0, #64]	@ zero_extendqisi2
.LVL156:
	.loc 1 1268 11
	cmp	r3, #1
	beq	.L182
	.loc 1 1268 68 is_stmt 1 discriminator 2
	.loc 1 1268 81 is_stmt 0 discriminator 2
	mov	r10, #1
	strb	r10, [r0, #64]
	.loc 1 1268 7 is_stmt 1 discriminator 2
	.loc 1 1271 5 discriminator 2
	.loc 1 1271 17 is_stmt 0 discriminator 2
	bl	HAL_GetTick
.LVL157:
	mov	r5, r0
.LVL158:
	.loc 1 1273 5 is_stmt 1 discriminator 2
	.loc 1 1273 9 is_stmt 0 discriminator 2
	str	r0, [sp]
	movs	r3, #25
	mov	r2, r10
	mov	r1, #32768
	mov	r0, r4
.LVL159:
	bl	I2C_WaitOnFlagUntilTimeout
.LVL160:
	.loc 1 1273 8 discriminator 2
	cmp	r0, #0
	bne	.L183
	.loc 1 1278 5 is_stmt 1
	.loc 1 1278 17 is_stmt 0
	movs	r3, #34
	strb	r3, [r4, #65]
	.loc 1 1279 5 is_stmt 1
	.loc 1 1279 16 is_stmt 0
	movs	r3, #16
	strb	r3, [r4, #66]
	.loc 1 1280 5 is_stmt 1
	.loc 1 1280 21 is_stmt 0
	movs	r3, #0
	str	r3, [r4, #68]
	.loc 1 1283 5 is_stmt 1
	.loc 1 1283 20 is_stmt 0
	str	r8, [r4, #36]
	.loc 1 1284 5 is_stmt 1
	.loc 1 1284 21 is_stmt 0
	strh	r9, [r4, #42]	@ movhi
	.loc 1 1285 5 is_stmt 1
	.loc 1 1285 19 is_stmt 0
	str	r3, [r4, #52]
	.loc 1 1289 5 is_stmt 1
	.loc 1 1289 13 is_stmt 0
	ldrh	r3, [r4, #42]
	uxth	r3, r3
	.loc 1 1289 8
	cmp	r3, #255
	bls	.L175
	.loc 1 1291 7 is_stmt 1
	.loc 1 1291 22 is_stmt 0
	movs	r2, #255
	strh	r2, [r4, #40]	@ movhi
	.loc 1 1292 7 is_stmt 1
	ldr	r3, .L189
	str	r3, [sp]
	mov	r3, #16777216
	mov	r1, r7
	mov	r0, r4
	bl	I2C_TransferConfig
.LVL161:
	b	.L177
.L175:
	.loc 1 1297 7
	.loc 1 1297 28 is_stmt 0
	ldrh	r2, [r4, #42]
	uxth	r2, r2
	.loc 1 1297 22
	strh	r2, [r4, #40]	@ movhi
	.loc 1 1298 7 is_stmt 1
	ldr	r3, .L189
	str	r3, [sp]
	mov	r3, #33554432
	uxtb	r2, r2
	mov	r1, r7
	mov	r0, r4
	bl	I2C_TransferConfig
.LVL162:
	b	.L177
.L179:
	.loc 1 1335 11
	.loc 1 1335 32 is_stmt 0
	ldrh	r2, [r4, #42]
	uxth	r2, r2
	.loc 1 1335 26
	strh	r2, [r4, #40]	@ movhi
	.loc 1 1336 11 is_stmt 1
	movs	r3, #0
	str	r3, [sp]
	mov	r3, #33554432
	uxtb	r2, r2
	mov	r1, r7
	mov	r0, r4
	bl	I2C_TransferConfig
.LVL163:
.L177:
	.loc 1 1302 28
	.loc 1 1302 16 is_stmt 0
	ldrh	r3, [r4, #42]
	uxth	r3, r3
	.loc 1 1302 28
	cmp	r3, #0
	beq	.L188
	.loc 1 1305 7 is_stmt 1
	.loc 1 1305 11 is_stmt 0
	mov	r2, r5
	mov	r1, r6
	mov	r0, r4
	bl	I2C_WaitOnRXNEFlagUntilTimeout
.LVL164:
	.loc 1 1305 10
	cmp	r0, #0
	bne	.L184
	.loc 1 1311 7 is_stmt 1
	.loc 1 1311 38 is_stmt 0
	ldr	r3, [r4]
	.loc 1 1311 48
	ldr	r2, [r3, #36]
	.loc 1 1311 12
	ldr	r3, [r4, #36]
	.loc 1 1311 23
	strb	r2, [r3]
	.loc 1 1314 7 is_stmt 1
	.loc 1 1314 11 is_stmt 0
	ldr	r3, [r4, #36]
	.loc 1 1314 21
	adds	r3, r3, #1
	str	r3, [r4, #36]
	.loc 1 1316 7 is_stmt 1
	.loc 1 1316 11 is_stmt 0
	ldrh	r2, [r4, #40]
	.loc 1 1316 21
	subs	r2, r2, #1
	uxth	r2, r2
	strh	r2, [r4, #40]	@ movhi
	.loc 1 1317 7 is_stmt 1
	.loc 1 1317 11 is_stmt 0
	ldrh	r3, [r4, #42]
	uxth	r3, r3
	.loc 1 1317 22
	subs	r3, r3, #1
	uxth	r3, r3
	strh	r3, [r4, #42]	@ movhi
	.loc 1 1319 7 is_stmt 1
	.loc 1 1319 16 is_stmt 0
	ldrh	r3, [r4, #42]
	uxth	r3, r3
	.loc 1 1319 10
	cmp	r3, #0
	beq	.L177
	.loc 1 1319 35 discriminator 1
	cmp	r2, #0
	bne	.L177
	.loc 1 1322 9 is_stmt 1
	.loc 1 1322 13 is_stmt 0
	str	r5, [sp]
	mov	r3, r6
	movs	r1, #128
	mov	r0, r4
	bl	I2C_WaitOnFlagUntilTimeout
.LVL165:
	.loc 1 1322 12
	cbnz	r0, .L185
	.loc 1 1327 9 is_stmt 1
	.loc 1 1327 17 is_stmt 0
	ldrh	r3, [r4, #42]
	uxth	r3, r3
	.loc 1 1327 12
	cmp	r3, #255
	bls	.L179
	.loc 1 1329 11 is_stmt 1
	.loc 1 1329 26 is_stmt 0
	movs	r2, #255
	strh	r2, [r4, #40]	@ movhi
	.loc 1 1330 11 is_stmt 1
	movs	r3, #0
	str	r3, [sp]
	mov	r3, #16777216
	mov	r1, r7
	mov	r0, r4
	bl	I2C_TransferConfig
.LVL166:
	b	.L177
.L188:
	.loc 1 1344 5
	.loc 1 1344 9 is_stmt 0
	mov	r2, r5
	mov	r1, r6
	mov	r0, r4
	bl	I2C_WaitOnSTOPFlagUntilTimeout
.LVL167:
	.loc 1 1344 8
	cbnz	r0, .L186
	.loc 1 1350 5 is_stmt 1
	.loc 1 1350 101 is_stmt 0
	ldr	r3, [r4]
	.loc 1 1350 92
	movs	r2, #32
	str	r2, [r3, #28]
	.loc 1 1353 5 is_stmt 1
	.loc 1 1353 12 is_stmt 0
	ldr	r1, [r4]
	.loc 1 1353 22
	ldr	r3, [r1, #4]
	.loc 1 1353 28
	bic	r3, r3, #33423360
	bic	r3, r3, #71168
	bic	r3, r3, #510
	bic	r3, r3, #1
	str	r3, [r1, #4]
	.loc 1 1355 5 is_stmt 1
	.loc 1 1355 17 is_stmt 0
	strb	r2, [r4, #65]
	.loc 1 1356 5 is_stmt 1
	.loc 1 1356 16 is_stmt 0
	movs	r3, #0
	strb	r3, [r4, #66]
	.loc 1 1359 5 is_stmt 1
	.loc 1 1359 9
	.loc 1 1359 22 is_stmt 0
	strb	r3, [r4, #64]
	.loc 1 1359 7 is_stmt 1
	.loc 1 1361 5
	.loc 1 1361 12 is_stmt 0
	b	.L174
.LVL168:
.L181:
	.loc 1 1365 12
	movs	r0, #2
.LVL169:
.L174:
	.loc 1 1367 1
	add	sp, sp, #8
	.cfi_remember_state
	.cfi_def_cfa_offset 32
	@ sp needed
	pop	{r4, r5, r6, r7, r8, r9, r10, pc}
.LVL170:
.L182:
	.cfi_restore_state
	.loc 1 1268 49
	movs	r0, #2
.LVL171:
	b	.L174
.LVL172:
.L183:
	.loc 1 1275 14
	movs	r0, #1
	b	.L174
.L184:
	.loc 1 1307 16
	movs	r0, #1
	b	.L174
.L185:
	.loc 1 1324 18
	movs	r0, #1
	b	.L174
.L186:
	.loc 1 1346 14
	movs	r0, #1
	b	.L174
.L190:
	.align	2
.L189:
	.word	-2147474432
	.cfi_endproc
.LFE340:
	.size	HAL_I2C_Master_Receive, .-HAL_I2C_Master_Receive
	.section	.text.HAL_I2C_Slave_Transmit,"ax",%progbits
	.align	1
	.global	HAL_I2C_Slave_Transmit
	.syntax unified
	.thumb
	.thumb_func
	.type	HAL_I2C_Slave_Transmit, %function
HAL_I2C_Slave_Transmit:
.LFB341:
	.loc 1 1380 1 is_stmt 1
	.cfi_startproc
	@ args = 0, pretend = 0, frame = 0
	@ frame_needed = 0, uses_anonymous_args = 0
.LVL173:
	push	{r4, r5, r6, r7, r8, lr}
	.cfi_def_cfa_offset 24
	.cfi_offset 4, -24
	.cfi_offset 5, -20
	.cfi_offset 6, -16
	.cfi_offset 7, -12
	.cfi_offset 8, -8
	.cfi_offset 14, -4
	sub	sp, sp, #8
	.cfi_def_cfa_offset 32
	mov	r5, r3
	.loc 1 1381 3
	.loc 1 1382 3
	.loc 1 1383 3
	.loc 1 1385 3
	.loc 1 1385 11 is_stmt 0
	ldrb	r3, [r0, #65]	@ zero_extendqisi2
.LVL174:
	uxtb	r3, r3
	.loc 1 1385 6
	cmp	r3, #32
	bne	.L206
	mov	r4, r0
	mov	r7, r1
	mov	r8, r2
	.loc 1 1387 5 is_stmt 1
	.loc 1 1387 8 is_stmt 0
	cmp	r2, #0
	it	ne
	cmpne	r1, #0
	beq	.L209
	.loc 1 1393 5 is_stmt 1
	.loc 1 1393 9
	.loc 1 1393 18 is_stmt 0
	ldrb	r3, [r0, #64]	@ zero_extendqisi2
	.loc 1 1393 11
	cmp	r3, #1
	beq	.L207
	.loc 1 1393 68 is_stmt 1 discriminator 2
	.loc 1 1393 81 is_stmt 0 discriminator 2
	movs	r3, #1
	strb	r3, [r0, #64]
	.loc 1 1393 7 is_stmt 1 discriminator 2
	.loc 1 1396 5 discriminator 2
	.loc 1 1396 17 is_stmt 0 discriminator 2
	bl	HAL_GetTick
.LVL175:
	mov	r6, r0
.LVL176:
	.loc 1 1398 5 is_stmt 1 discriminator 2
	.loc 1 1398 17 is_stmt 0 discriminator 2
	movs	r3, #33
	strb	r3, [r4, #65]
	.loc 1 1399 5 is_stmt 1 discriminator 2
	.loc 1 1399 16 is_stmt 0 discriminator 2
	movs	r3, #32
	strb	r3, [r4, #66]
	.loc 1 1400 5 is_stmt 1 discriminator 2
	.loc 1 1400 21 is_stmt 0 discriminator 2
	movs	r2, #0
	str	r2, [r4, #68]
	.loc 1 1403 5 is_stmt 1 discriminator 2
	.loc 1 1403 20 is_stmt 0 discriminator 2
	str	r7, [r4, #36]
	.loc 1 1404 5 is_stmt 1 discriminator 2
	.loc 1 1404 21 is_stmt 0 discriminator 2
	strh	r8, [r4, #42]	@ movhi
	.loc 1 1405 5 is_stmt 1 discriminator 2
	.loc 1 1405 19 is_stmt 0 discriminator 2
	str	r2, [r4, #52]
	.loc 1 1408 5 is_stmt 1 discriminator 2
	.loc 1 1408 9 is_stmt 0 discriminator 2
	ldr	r1, [r4]
	.loc 1 1408 19 discriminator 2
	ldr	r3, [r1, #4]
	.loc 1 1408 25 discriminator 2
	bic	r3, r3, #32768
	str	r3, [r1, #4]
	.loc 1 1411 5 is_stmt 1 discriminator 2
	.loc 1 1411 9 is_stmt 0 discriminator 2
	str	r0, [sp]
	mov	r3, r5
	movs	r1, #8
	mov	r0, r4
.LVL177:
	bl	I2C_WaitOnFlagUntilTimeout
.LVL178:
	.loc 1 1411 8 discriminator 2
	cmp	r0, #0
	bne	.L210
	.loc 1 1419 5 is_stmt 1
	.loc 1 1419 19 is_stmt 0
	ldr	r3, [r4, #32]
	.loc 1 1419 8
	cmp	r3, #131072
	beq	.L211
.L195:
	.loc 1 1432 5 is_stmt 1
	.loc 1 1432 101 is_stmt 0
	ldr	r3, [r4]
	.loc 1 1432 92
	movs	r2, #8
	str	r2, [r3, #28]
	.loc 1 1435 5 is_stmt 1
	.loc 1 1435 19 is_stmt 0
	ldr	r3, [r4, #12]
	.loc 1 1435 8
	cmp	r3, #2
	beq	.L212
.L196:
	.loc 1 1450 5 is_stmt 1
	.loc 1 1450 9 is_stmt 0
	str	r6, [sp]
	mov	r3, r5
	movs	r2, #0
	mov	r1, #65536
	mov	r0, r4
	bl	I2C_WaitOnFlagUntilTimeout
.LVL179:
	.loc 1 1450 8
	cmp	r0, #0
	bne	.L213
.L198:
	.loc 1 1457 28 is_stmt 1
	.loc 1 1457 16 is_stmt 0
	ldrh	r3, [r4, #42]
	uxth	r3, r3
	.loc 1 1457 28
	cmp	r3, #0
	beq	.L214
	.loc 1 1460 7 is_stmt 1
	.loc 1 1460 11 is_stmt 0
	mov	r2, r6
	mov	r1, r5
	mov	r0, r4
	bl	I2C_WaitOnTXISFlagUntilTimeout
.LVL180:
	.loc 1 1460 10
	cmp	r0, #0
	bne	.L215
	.loc 1 1468 7 is_stmt 1
	.loc 1 1468 35 is_stmt 0
	ldr	r2, [r4, #36]
	.loc 1 1468 11
	ldr	r3, [r4]
	.loc 1 1468 30
	ldrb	r2, [r2]	@ zero_extendqisi2
	.loc 1 1468 28
	str	r2, [r3, #40]
	.loc 1 1471 7 is_stmt 1
	.loc 1 1471 11 is_stmt 0
	ldr	r3, [r4, #36]
	.loc 1 1471 21
	adds	r3, r3, #1
	str	r3, [r4, #36]
	.loc 1 1473 7 is_stmt 1
	.loc 1 1473 11 is_stmt 0
	ldrh	ip, [r4, #42]
	uxth	ip, ip
	.loc 1 1473 22
	add	ip, ip, #-1
	uxth	ip, ip
	strh	ip, [r4, #42]	@ movhi
	b	.L198
.LVL181:
.L209:
	.loc 1 1389 7 is_stmt 1
	.loc 1 1389 23 is_stmt 0
	mov	r3, #512
	str	r3, [r0, #68]
	.loc 1 1390 7 is_stmt 1
	.loc 1 1390 14 is_stmt 0
	movs	r0, #1
.LVL182:
	b	.L192
.LVL183:
.L210:
	.loc 1 1414 7 is_stmt 1
	.loc 1 1414 11 is_stmt 0
	ldr	r2, [r4]
	.loc 1 1414 21
	ldr	r3, [r2, #4]
	.loc 1 1414 27
	orr	r3, r3, #32768
	str	r3, [r2, #4]
	.loc 1 1415 7 is_stmt 1
	.loc 1 1415 14 is_stmt 0
	movs	r0, #1
	b	.L192
.L211:
	.loc 1 1423 7 is_stmt 1
	.loc 1 1423 35 is_stmt 0
	ldr	r2, [r4, #36]
	.loc 1 1423 11
	ldr	r3, [r4]
	.loc 1 1423 30
	ldrb	r2, [r2]	@ zero_extendqisi2
	.loc 1 1423 28
	str	r2, [r3, #40]
	.loc 1 1426 7 is_stmt 1
	.loc 1 1426 11 is_stmt 0
	ldr	r3, [r4, #36]
	.loc 1 1426 21
	adds	r3, r3, #1
	str	r3, [r4, #36]
	.loc 1 1428 7 is_stmt 1
	.loc 1 1428 11 is_stmt 0
	ldrh	r3, [r4, #42]
	uxth	r3, r3
	.loc 1 1428 22
	subs	r3, r3, #1
	uxth	r3, r3
	strh	r3, [r4, #42]	@ movhi
	b	.L195
.L212:
	.loc 1 1438 7 is_stmt 1
	.loc 1 1438 11 is_stmt 0
	str	r6, [sp]
	mov	r3, r5
	movs	r2, #0
	movs	r1, #8
	mov	r0, r4
	bl	I2C_WaitOnFlagUntilTimeout
.LVL184:
	.loc 1 1438 10
	cbnz	r0, .L216
	.loc 1 1446 7 is_stmt 1
	.loc 1 1446 103 is_stmt 0
	ldr	r3, [r4]
	.loc 1 1446 94
	movs	r2, #8
	str	r2, [r3, #28]
	b	.L196
.L216:
	.loc 1 1441 9 is_stmt 1
	.loc 1 1441 13 is_stmt 0
	ldr	r2, [r4]
	.loc 1 1441 23
	ldr	r3, [r2, #4]
	.loc 1 1441 29
	orr	r3, r3, #32768
	str	r3, [r2, #4]
	.loc 1 1442 9 is_stmt 1
	.loc 1 1442 16 is_stmt 0
	movs	r0, #1
	b	.L192
.L213:
	.loc 1 1453 7 is_stmt 1
	.loc 1 1453 11 is_stmt 0
	ldr	r2, [r4]
	.loc 1 1453 21
	ldr	r3, [r2, #4]
	.loc 1 1453 27
	orr	r3, r3, #32768
	str	r3, [r2, #4]
	.loc 1 1454 7 is_stmt 1
	.loc 1 1454 14 is_stmt 0
	movs	r0, #1
	b	.L192
.L215:
	.loc 1 1463 9 is_stmt 1
	.loc 1 1463 13 is_stmt 0
	ldr	r2, [r4]
	.loc 1 1463 23
	ldr	r3, [r2, #4]
	.loc 1 1463 29
	orr	r3, r3, #32768
	str	r3, [r2, #4]
	.loc 1 1464 9 is_stmt 1
	.loc 1 1464 16 is_stmt 0
	movs	r0, #1
	b	.L192
.L214:
	.loc 1 1477 5 is_stmt 1
	.loc 1 1477 13 is_stmt 0
	str	r6, [sp]
	mov	r3, r5
	movs	r2, #0
	movs	r1, #16
	mov	r0, r4
	bl	I2C_WaitOnFlagUntilTimeout
.LVL185:
	.loc 1 1479 5 is_stmt 1
	.loc 1 1479 8 is_stmt 0
	cbz	r0, .L201
	.loc 1 1485 7 is_stmt 1
	.loc 1 1485 20 is_stmt 0
	ldrh	r3, [r4, #42]
	uxth	r3, r3
.LVL186:
	.loc 1 1486 7 is_stmt 1
	.loc 1 1486 16 is_stmt 0
	ldr	r2, [r4, #68]
	.loc 1 1486 10
	cmp	r2, #4
	bne	.L202
	.loc 1 1486 46 discriminator 1
	cbnz	r3, .L202
	.loc 1 1489 9 is_stmt 1
	.loc 1 1489 25 is_stmt 0
	str	r3, [r4, #68]
.LVL187:
.L203:
	.loc 1 1520 5 is_stmt 1
	.loc 1 1520 9 is_stmt 0
	str	r6, [sp]
	mov	r3, r5
	movs	r2, #1
	mov	r1, #32768
	mov	r0, r4
	bl	I2C_WaitOnFlagUntilTimeout
.LVL188:
	.loc 1 1520 8
	cbz	r0, .L205
	.loc 1 1523 7 is_stmt 1
	.loc 1 1523 11 is_stmt 0
	ldr	r2, [r4]
	.loc 1 1523 21
	ldr	r3, [r2, #4]
	.loc 1 1523 27
	orr	r3, r3, #32768
	str	r3, [r2, #4]
	.loc 1 1524 7 is_stmt 1
	.loc 1 1524 14 is_stmt 0
	movs	r0, #1
	b	.L192
.LVL189:
.L202:
	.loc 1 1494 9 is_stmt 1
	.loc 1 1494 13 is_stmt 0
	ldr	r2, [r4]
	.loc 1 1494 23
	ldr	r3, [r2, #4]
.LVL190:
	.loc 1 1494 29
	orr	r3, r3, #32768
	str	r3, [r2, #4]
	.loc 1 1495 9 is_stmt 1
	.loc 1 1495 16 is_stmt 0
	movs	r0, #1
.LVL191:
	b	.L192
.LVL192:
.L201:
	.loc 1 1501 7 is_stmt 1
	mov	r0, r4
.LVL193:
	bl	I2C_Flush_TXDR
.LVL194:
	.loc 1 1504 7
	.loc 1 1504 103 is_stmt 0
	ldr	r3, [r4]
	.loc 1 1504 94
	movs	r2, #16
	str	r2, [r3, #28]
	.loc 1 1507 7 is_stmt 1
	.loc 1 1507 11 is_stmt 0
	mov	r2, r6
	mov	r1, r5
	mov	r0, r4
	bl	I2C_WaitOnSTOPFlagUntilTimeout
.LVL195:
	.loc 1 1507 10
	cbnz	r0, .L217
	.loc 1 1516 7 is_stmt 1
	.loc 1 1516 103 is_stmt 0
	ldr	r3, [r4]
	.loc 1 1516 94
	movs	r2, #32
	str	r2, [r3, #28]
	b	.L203
.L217:
	.loc 1 1510 9 is_stmt 1
	.loc 1 1510 13 is_stmt 0
	ldr	r2, [r4]
	.loc 1 1510 23
	ldr	r3, [r2, #4]
	.loc 1 1510 29
	orr	r3, r3, #32768
	str	r3, [r2, #4]
	.loc 1 1512 9 is_stmt 1
	.loc 1 1512 16 is_stmt 0
	movs	r0, #1
	b	.L192
.L205:
	.loc 1 1528 5 is_stmt 1
	.loc 1 1528 9 is_stmt 0
	ldr	r2, [r4]
	.loc 1 1528 19
	ldr	r3, [r2, #4]
	.loc 1 1528 25
	orr	r3, r3, #32768
	str	r3, [r2, #4]
	.loc 1 1530 5 is_stmt 1
	.loc 1 1530 17 is_stmt 0
	movs	r3, #32
	strb	r3, [r4, #65]
	.loc 1 1531 5 is_stmt 1
	.loc 1 1531 16 is_stmt 0
	movs	r3, #0
	strb	r3, [r4, #66]
	.loc 1 1534 5 is_stmt 1
	.loc 1 1534 9
	.loc 1 1534 22 is_stmt 0
	strb	r3, [r4, #64]
	.loc 1 1534 7 is_stmt 1
	.loc 1 1536 5
	.loc 1 1536 12 is_stmt 0
	b	.L192
.LVL196:
.L206:
	.loc 1 1540 12
	movs	r0, #2
.LVL197:
.L192:
	.loc 1 1542 1
	add	sp, sp, #8
	.cfi_remember_state
	.cfi_def_cfa_offset 24
	@ sp needed
	pop	{r4, r5, r6, r7, r8, pc}
.LVL198:
.L207:
	.cfi_restore_state
	.loc 1 1393 49
	movs	r0, #2
.LVL199:
	b	.L192
	.cfi_endproc
.LFE341:
	.size	HAL_I2C_Slave_Transmit, .-HAL_I2C_Slave_Transmit
	.section	.text.HAL_I2C_Slave_Receive,"ax",%progbits
	.align	1
	.global	HAL_I2C_Slave_Receive
	.syntax unified
	.thumb
	.thumb_func
	.type	HAL_I2C_Slave_Receive, %function
HAL_I2C_Slave_Receive:
.LFB342:
	.loc 1 1555 1 is_stmt 1
	.cfi_startproc
	@ args = 0, pretend = 0, frame = 0
	@ frame_needed = 0, uses_anonymous_args = 0
.LVL200:
	push	{r4, r5, r6, r7, r8, lr}
	.cfi_def_cfa_offset 24
	.cfi_offset 4, -24
	.cfi_offset 5, -20
	.cfi_offset 6, -16
	.cfi_offset 7, -12
	.cfi_offset 8, -8
	.cfi_offset 14, -4
	sub	sp, sp, #8
	.cfi_def_cfa_offset 32
	mov	r5, r3
	.loc 1 1556 3
	.loc 1 1558 3
	.loc 1 1558 11 is_stmt 0
	ldrb	r3, [r0, #65]	@ zero_extendqisi2
.LVL201:
	uxtb	r3, r3
	.loc 1 1558 6
	cmp	r3, #32
	bne	.L228
	mov	r4, r0
	mov	r7, r1
	mov	r8, r2
	.loc 1 1560 5 is_stmt 1
	.loc 1 1560 8 is_stmt 0
	cmp	r2, #0
	it	ne
	cmpne	r1, #0
	beq	.L231
	.loc 1 1566 5 is_stmt 1
	.loc 1 1566 9
	.loc 1 1566 18 is_stmt 0
	ldrb	r3, [r0, #64]	@ zero_extendqisi2
	.loc 1 1566 11
	cmp	r3, #1
	beq	.L229
	.loc 1 1566 68 is_stmt 1 discriminator 2
	.loc 1 1566 81 is_stmt 0 discriminator 2
	movs	r3, #1
	strb	r3, [r0, #64]
	.loc 1 1566 7 is_stmt 1 discriminator 2
	.loc 1 1569 5 discriminator 2
	.loc 1 1569 17 is_stmt 0 discriminator 2
	bl	HAL_GetTick
.LVL202:
	mov	r6, r0
.LVL203:
	.loc 1 1571 5 is_stmt 1 discriminator 2
	.loc 1 1571 17 is_stmt 0 discriminator 2
	movs	r3, #34
	strb	r3, [r4, #65]
	.loc 1 1572 5 is_stmt 1 discriminator 2
	.loc 1 1572 16 is_stmt 0 discriminator 2
	movs	r3, #32
	strb	r3, [r4, #66]
	.loc 1 1573 5 is_stmt 1 discriminator 2
	.loc 1 1573 21 is_stmt 0 discriminator 2
	movs	r2, #0
	str	r2, [r4, #68]
	.loc 1 1576 5 is_stmt 1 discriminator 2
	.loc 1 1576 20 is_stmt 0 discriminator 2
	str	r7, [r4, #36]
	.loc 1 1577 5 is_stmt 1 discriminator 2
	.loc 1 1577 21 is_stmt 0 discriminator 2
	strh	r8, [r4, #42]	@ movhi
	.loc 1 1578 5 is_stmt 1 discriminator 2
	.loc 1 1578 26 is_stmt 0 discriminator 2
	ldrh	r3, [r4, #42]
	.loc 1 1578 20 discriminator 2
	strh	r3, [r4, #40]	@ movhi
	.loc 1 1579 5 is_stmt 1 discriminator 2
	.loc 1 1579 19 is_stmt 0 discriminator 2
	str	r2, [r4, #52]
	.loc 1 1582 5 is_stmt 1 discriminator 2
	.loc 1 1582 9 is_stmt 0 discriminator 2
	ldr	r1, [r4]
	.loc 1 1582 19 discriminator 2
	ldr	r3, [r1, #4]
	.loc 1 1582 25 discriminator 2
	bic	r3, r3, #32768
	str	r3, [r1, #4]
	.loc 1 1585 5 is_stmt 1 discriminator 2
	.loc 1 1585 9 is_stmt 0 discriminator 2
	str	r0, [sp]
	mov	r3, r5
	movs	r1, #8
	mov	r0, r4
.LVL204:
	bl	I2C_WaitOnFlagUntilTimeout
.LVL205:
	.loc 1 1585 8 discriminator 2
	cbz	r0, .L221
	.loc 1 1588 7 is_stmt 1
	.loc 1 1588 11 is_stmt 0
	ldr	r2, [r4]
	.loc 1 1588 21
	ldr	r3, [r2, #4]
	.loc 1 1588 27
	orr	r3, r3, #32768
	str	r3, [r2, #4]
	.loc 1 1589 7 is_stmt 1
	.loc 1 1589 14 is_stmt 0
	movs	r0, #1
	b	.L219
.LVL206:
.L231:
	.loc 1 1562 7 is_stmt 1
	.loc 1 1562 23 is_stmt 0
	mov	r3, #512
	str	r3, [r0, #68]
	.loc 1 1563 7 is_stmt 1
	.loc 1 1563 14 is_stmt 0
	movs	r0, #1
.LVL207:
	b	.L219
.LVL208:
.L221:
	.loc 1 1593 5 is_stmt 1
	.loc 1 1593 101 is_stmt 0
	ldr	r3, [r4]
	.loc 1 1593 92
	movs	r2, #8
	str	r2, [r3, #28]
	.loc 1 1596 5 is_stmt 1
	.loc 1 1596 9 is_stmt 0
	str	r6, [sp]
	mov	r3, r5
	movs	r2, #1
	mov	r1, #65536
	mov	r0, r4
	bl	I2C_WaitOnFlagUntilTimeout
.LVL209:
	.loc 1 1596 8
	cbnz	r0, .L232
.L222:
	.loc 1 1603 28 is_stmt 1
	.loc 1 1603 16 is_stmt 0
	ldrh	r3, [r4, #42]
	uxth	r3, r3
	.loc 1 1603 28
	cmp	r3, #0
	beq	.L233
	.loc 1 1606 7 is_stmt 1
	.loc 1 1606 11 is_stmt 0
	mov	r2, r6
	mov	r1, r5
	mov	r0, r4
	bl	I2C_WaitOnRXNEFlagUntilTimeout
.LVL210:
	.loc 1 1606 10
	cbnz	r0, .L234
	.loc 1 1628 7 is_stmt 1
	.loc 1 1628 38 is_stmt 0
	ldr	r3, [r4]
	.loc 1 1628 48
	ldr	r2, [r3, #36]
	.loc 1 1628 12
	ldr	r3, [r4, #36]
	.loc 1 1628 23
	strb	r2, [r3]
	.loc 1 1631 7 is_stmt 1
	.loc 1 1631 11 is_stmt 0
	ldr	r3, [r4, #36]
	.loc 1 1631 21
	adds	r3, r3, #1
	str	r3, [r4, #36]
	.loc 1 1633 7 is_stmt 1
	.loc 1 1633 11 is_stmt 0
	ldrh	ip, [r4, #42]
	uxth	ip, ip
	.loc 1 1633 22
	add	ip, ip, #-1
	uxth	ip, ip
	strh	ip, [r4, #42]	@ movhi
	.loc 1 1634 7 is_stmt 1
	.loc 1 1634 11 is_stmt 0
	ldrh	r3, [r4, #40]
	.loc 1 1634 21
	subs	r3, r3, #1
	strh	r3, [r4, #40]	@ movhi
	b	.L222
.L232:
	.loc 1 1599 7 is_stmt 1
	.loc 1 1599 11 is_stmt 0
	ldr	r2, [r4]
	.loc 1 1599 21
	ldr	r3, [r2, #4]
	.loc 1 1599 27
	orr	r3, r3, #32768
	str	r3, [r2, #4]
	.loc 1 1600 7 is_stmt 1
	.loc 1 1600 14 is_stmt 0
	movs	r0, #1
	b	.L219
.L234:
	.loc 1 1609 9 is_stmt 1
	.loc 1 1609 13 is_stmt 0
	ldr	r2, [r4]
	.loc 1 1609 23
	ldr	r3, [r2, #4]
	.loc 1 1609 29
	orr	r3, r3, #32768
	str	r3, [r2, #4]
	.loc 1 1612 9 is_stmt 1
	.loc 1 1612 23 is_stmt 0
	ldr	r3, [r4]
	.loc 1 1612 33
	ldr	r2, [r3, #24]
	.loc 1 1612 12
	tst	r2, #4
	beq	.L224
	.loc 1 1615 11 is_stmt 1
	.loc 1 1615 52 is_stmt 0
	ldr	r2, [r3, #36]
	.loc 1 1615 16
	ldr	r3, [r4, #36]
	.loc 1 1615 27
	strb	r2, [r3]
	.loc 1 1618 11 is_stmt 1
	.loc 1 1618 15 is_stmt 0
	ldr	r3, [r4, #36]
	.loc 1 1618 25
	adds	r3, r3, #1
	str	r3, [r4, #36]
	.loc 1 1620 11 is_stmt 1
	.loc 1 1620 15 is_stmt 0
	ldrh	r3, [r4, #42]
	uxth	r3, r3
	.loc 1 1620 26
	subs	r3, r3, #1
	uxth	r3, r3
	strh	r3, [r4, #42]	@ movhi
	.loc 1 1621 11 is_stmt 1
	.loc 1 1621 15 is_stmt 0
	ldrh	r3, [r4, #40]
	.loc 1 1621 25
	subs	r3, r3, #1
	strh	r3, [r4, #40]	@ movhi
.L224:
	.loc 1 1624 9 is_stmt 1
	.loc 1 1624 16 is_stmt 0
	movs	r0, #1
	b	.L219
.L233:
	.loc 1 1638 5 is_stmt 1
	.loc 1 1638 9 is_stmt 0
	mov	r2, r6
	mov	r1, r5
	mov	r0, r4
	bl	I2C_WaitOnSTOPFlagUntilTimeout
.LVL211:
	.loc 1 1638 8
	cbz	r0, .L226
	.loc 1 1641 7 is_stmt 1
	.loc 1 1641 11 is_stmt 0
	ldr	r2, [r4]
	.loc 1 1641 21
	ldr	r3, [r2, #4]
	.loc 1 1641 27
	orr	r3, r3, #32768
	str	r3, [r2, #4]
	.loc 1 1642 7 is_stmt 1
	.loc 1 1642 14 is_stmt 0
	movs	r0, #1
	b	.L219
.L226:
	.loc 1 1646 5 is_stmt 1
	.loc 1 1646 101 is_stmt 0
	ldr	r3, [r4]
	.loc 1 1646 92
	movs	r2, #32
	str	r2, [r3, #28]
	.loc 1 1649 5 is_stmt 1
	.loc 1 1649 9 is_stmt 0
	str	r6, [sp]
	mov	r3, r5
	movs	r2, #1
	mov	r1, #32768
	mov	r0, r4
	bl	I2C_WaitOnFlagUntilTimeout
.LVL212:
	.loc 1 1649 8
	cbz	r0, .L227
	.loc 1 1652 7 is_stmt 1
	.loc 1 1652 11 is_stmt 0
	ldr	r2, [r4]
	.loc 1 1652 21
	ldr	r3, [r2, #4]
	.loc 1 1652 27
	orr	r3, r3, #32768
	str	r3, [r2, #4]
	.loc 1 1653 7 is_stmt 1
	.loc 1 1653 14 is_stmt 0
	movs	r0, #1
	b	.L219
.L227:
	.loc 1 1657 5 is_stmt 1
	.loc 1 1657 9 is_stmt 0
	ldr	r2, [r4]
	.loc 1 1657 19
	ldr	r3, [r2, #4]
	.loc 1 1657 25
	orr	r3, r3, #32768
	str	r3, [r2, #4]
	.loc 1 1659 5 is_stmt 1
	.loc 1 1659 17 is_stmt 0
	movs	r3, #32
	strb	r3, [r4, #65]
	.loc 1 1660 5 is_stmt 1
	.loc 1 1660 16 is_stmt 0
	movs	r3, #0
	strb	r3, [r4, #66]
	.loc 1 1663 5 is_stmt 1
	.loc 1 1663 9
	.loc 1 1663 22 is_stmt 0
	strb	r3, [r4, #64]
	.loc 1 1663 7 is_stmt 1
	.loc 1 1665 5
	.loc 1 1665 12 is_stmt 0
	b	.L219
.LVL213:
.L228:
	.loc 1 1669 12
	movs	r0, #2
.LVL214:
.L219:
	.loc 1 1671 1
	add	sp, sp, #8
	.cfi_remember_state
	.cfi_def_cfa_offset 24
	@ sp needed
	pop	{r4, r5, r6, r7, r8, pc}
.LVL215:
.L229:
	.cfi_restore_state
	.loc 1 1566 49
	movs	r0, #2
.LVL216:
	b	.L219
	.cfi_endproc
.LFE342:
	.size	HAL_I2C_Slave_Receive, .-HAL_I2C_Slave_Receive
	.section	.text.HAL_I2C_Master_Transmit_IT,"ax",%progbits
	.align	1
	.global	HAL_I2C_Master_Transmit_IT
	.syntax unified
	.thumb
	.thumb_func
	.type	HAL_I2C_Master_Transmit_IT, %function
HAL_I2C_Master_Transmit_IT:
.LFB343:
	.loc 1 1685 1 is_stmt 1
	.cfi_startproc
	@ args = 0, pretend = 0, frame = 0
	@ frame_needed = 0, uses_anonymous_args = 0
.LVL217:
	push	{r4, r5, lr}
	.cfi_def_cfa_offset 12
	.cfi_offset 4, -12
	.cfi_offset 5, -8
	.cfi_offset 14, -4
	sub	sp, sp, #12
	.cfi_def_cfa_offset 24
	mov	r4, r0
	.loc 1 1686 3
	.loc 1 1688 3
	.loc 1 1688 11 is_stmt 0
	ldrb	r0, [r0, #65]	@ zero_extendqisi2
.LVL218:
	uxtb	r0, r0
	.loc 1 1688 6
	cmp	r0, #32
	bne	.L241
	.loc 1 1690 5 is_stmt 1
	.loc 1 1690 19 is_stmt 0
	ldr	r0, [r4]
	.loc 1 1690 29
	ldr	r5, [r0, #24]
	.loc 1 1690 8
	tst	r5, #32768
	bne	.L242
	.loc 1 1696 5 is_stmt 1
	.loc 1 1696 9
	.loc 1 1696 18 is_stmt 0
	ldrb	r5, [r4, #64]	@ zero_extendqisi2
	.loc 1 1696 11
	cmp	r5, #1
	beq	.L243
	.loc 1 1696 68 is_stmt 1 discriminator 2
	.loc 1 1696 81 is_stmt 0 discriminator 2
	movs	r5, #1
	strb	r5, [r4, #64]
	.loc 1 1696 7 is_stmt 1 discriminator 2
	.loc 1 1698 5 discriminator 2
	.loc 1 1698 17 is_stmt 0 discriminator 2
	movs	r5, #33
	strb	r5, [r4, #65]
	.loc 1 1699 5 is_stmt 1 discriminator 2
	.loc 1 1699 16 is_stmt 0 discriminator 2
	movs	r5, #16
	strb	r5, [r4, #66]
	.loc 1 1700 5 is_stmt 1 discriminator 2
	.loc 1 1700 21 is_stmt 0 discriminator 2
	movs	r5, #0
	str	r5, [r4, #68]
	.loc 1 1703 5 is_stmt 1 discriminator 2
	.loc 1 1703 20 is_stmt 0 discriminator 2
	str	r2, [r4, #36]
	.loc 1 1704 5 is_stmt 1 discriminator 2
	.loc 1 1704 21 is_stmt 0 discriminator 2
	strh	r3, [r4, #42]	@ movhi
	.loc 1 1705 5 is_stmt 1 discriminator 2
	.loc 1 1705 23 is_stmt 0 discriminator 2
	ldr	r3, .L245
.LVL219:
	str	r3, [r4, #44]
.LVL220:
	.loc 1 1706 5 is_stmt 1 discriminator 2
	.loc 1 1706 19 is_stmt 0 discriminator 2
	ldr	r3, .L245+4
	str	r3, [r4, #52]
	.loc 1 1708 5 is_stmt 1 discriminator 2
	.loc 1 1708 13 is_stmt 0 discriminator 2
	ldrh	r3, [r4, #42]
	uxth	r3, r3
	.loc 1 1708 8 discriminator 2
	cmp	r3, #255
	bls	.L237
	.loc 1 1710 7 is_stmt 1
	.loc 1 1710 22 is_stmt 0
	movs	r3, #255
	strh	r3, [r4, #40]	@ movhi
	.loc 1 1711 7 is_stmt 1
.LVL221:
	.loc 1 1711 16 is_stmt 0
	mov	r3, #16777216
.LVL222:
.L238:
	.loc 1 1721 5 is_stmt 1
	.loc 1 1721 13 is_stmt 0
	ldrh	r5, [r4, #40]
	.loc 1 1721 8
	cbz	r5, .L239
	.loc 1 1725 7 is_stmt 1
	.loc 1 1725 30 is_stmt 0
	ldrb	r2, [r2]	@ zero_extendqisi2
.LVL223:
	.loc 1 1725 28
	str	r2, [r0, #40]
.LVL224:
	.loc 1 1728 7 is_stmt 1
	.loc 1 1728 11 is_stmt 0
	ldr	r2, [r4, #36]
	.loc 1 1728 21
	adds	r2, r2, #1
	str	r2, [r4, #36]
	.loc 1 1730 7 is_stmt 1
	.loc 1 1730 11 is_stmt 0
	ldrh	r2, [r4, #42]
	uxth	r2, r2
	.loc 1 1730 22
	subs	r2, r2, #1
	uxth	r2, r2
	strh	r2, [r4, #42]	@ movhi
	.loc 1 1731 7 is_stmt 1
	.loc 1 1731 11 is_stmt 0
	ldrh	r2, [r4, #40]
	.loc 1 1731 21
	subs	r2, r2, #1
	uxth	r2, r2
	strh	r2, [r4, #40]	@ movhi
	.loc 1 1733 7 is_stmt 1
	adds	r2, r2, #1
	ldr	r0, .L245+8
	str	r0, [sp]
	uxtb	r2, r2
	mov	r0, r4
	bl	I2C_TransferConfig
.LVL225:
.L240:
	.loc 1 1743 5
	.loc 1 1743 9
	.loc 1 1743 22 is_stmt 0
	movs	r5, #0
	strb	r5, [r4, #64]
	.loc 1 1743 7 is_stmt 1
	.loc 1 1753 5
	movs	r1, #1
	mov	r0, r4
	bl	I2C_Enable_IRQ
.LVL226:
	.loc 1 1755 5
	.loc 1 1755 12 is_stmt 0
	mov	r0, r5
.LVL227:
.L236:
	.loc 1 1761 1
	add	sp, sp, #12
	.cfi_remember_state
	.cfi_def_cfa_offset 12
	@ sp needed
	pop	{r4, r5, pc}
.LVL228:
.L237:
	.cfi_restore_state
	.loc 1 1715 7 is_stmt 1
	.loc 1 1715 28 is_stmt 0
	ldrh	r3, [r4, #42]
	.loc 1 1715 22
	strh	r3, [r4, #40]	@ movhi
	.loc 1 1716 7 is_stmt 1
.LVL229:
	.loc 1 1716 16 is_stmt 0
	mov	r3, #33554432
	b	.L238
.LVL230:
.L239:
	.loc 1 1738 7 is_stmt 1
	ldr	r2, .L245+8
.LVL231:
	str	r2, [sp]
.LVL232:
	uxtb	r2, r5
	mov	r0, r4
	bl	I2C_TransferConfig
.LVL233:
	b	.L240
.LVL234:
.L241:
	.loc 1 1759 12 is_stmt 0
	movs	r0, #2
	b	.L236
.L242:
	.loc 1 1692 14
	movs	r0, #2
	b	.L236
.L243:
	.loc 1 1696 49
	movs	r0, #2
	b	.L236
.L246:
	.align	2
.L245:
	.word	-65536
	.word	I2C_Master_ISR_IT
	.word	-2147475456
	.cfi_endproc
.LFE343:
	.size	HAL_I2C_Master_Transmit_IT, .-HAL_I2C_Master_Transmit_IT
	.section	.text.HAL_I2C_Master_Receive_IT,"ax",%progbits
	.align	1
	.global	HAL_I2C_Master_Receive_IT
	.syntax unified
	.thumb
	.thumb_func
	.type	HAL_I2C_Master_Receive_IT, %function
HAL_I2C_Master_Receive_IT:
.LFB344:
	.loc 1 1775 1 is_stmt 1
	.cfi_startproc
	@ args = 0, pretend = 0, frame = 0
	@ frame_needed = 0, uses_anonymous_args = 0
.LVL235:
	push	{r4, r5, lr}
	.cfi_def_cfa_offset 12
	.cfi_offset 4, -12
	.cfi_offset 5, -8
	.cfi_offset 14, -4
	sub	sp, sp, #12
	.cfi_def_cfa_offset 24
	mov	r4, r0
	.loc 1 1776 3
	.loc 1 1778 3
	.loc 1 1778 11 is_stmt 0
	ldrb	r0, [r0, #65]	@ zero_extendqisi2
.LVL236:
	uxtb	r0, r0
	.loc 1 1778 6
	cmp	r0, #32
	bne	.L251
	.loc 1 1780 5 is_stmt 1
	.loc 1 1780 19 is_stmt 0
	ldr	r0, [r4]
	.loc 1 1780 29
	ldr	r0, [r0, #24]
	.loc 1 1780 8
	tst	r0, #32768
	bne	.L252
	.loc 1 1786 5 is_stmt 1
	.loc 1 1786 9
	.loc 1 1786 18 is_stmt 0
	ldrb	r0, [r4, #64]	@ zero_extendqisi2
	.loc 1 1786 11
	cmp	r0, #1
	beq	.L253
	.loc 1 1786 68 is_stmt 1 discriminator 2
	.loc 1 1786 81 is_stmt 0 discriminator 2
	movs	r0, #1
	strb	r0, [r4, #64]
	.loc 1 1786 7 is_stmt 1 discriminator 2
	.loc 1 1788 5 discriminator 2
	.loc 1 1788 17 is_stmt 0 discriminator 2
	movs	r0, #34
	strb	r0, [r4, #65]
	.loc 1 1789 5 is_stmt 1 discriminator 2
	.loc 1 1789 16 is_stmt 0 discriminator 2
	movs	r0, #16
	strb	r0, [r4, #66]
	.loc 1 1790 5 is_stmt 1 discriminator 2
	.loc 1 1790 21 is_stmt 0 discriminator 2
	movs	r0, #0
	str	r0, [r4, #68]
	.loc 1 1793 5 is_stmt 1 discriminator 2
	.loc 1 1793 20 is_stmt 0 discriminator 2
	str	r2, [r4, #36]
	.loc 1 1794 5 is_stmt 1 discriminator 2
	.loc 1 1794 21 is_stmt 0 discriminator 2
	strh	r3, [r4, #42]	@ movhi
	.loc 1 1795 5 is_stmt 1 discriminator 2
	.loc 1 1795 23 is_stmt 0 discriminator 2
	ldr	r3, .L255
.LVL237:
	str	r3, [r4, #44]
.LVL238:
	.loc 1 1796 5 is_stmt 1 discriminator 2
	.loc 1 1796 19 is_stmt 0 discriminator 2
	ldr	r3, .L255+4
	str	r3, [r4, #52]
	.loc 1 1798 5 is_stmt 1 discriminator 2
	.loc 1 1798 13 is_stmt 0 discriminator 2
	ldrh	r3, [r4, #42]
	uxth	r3, r3
	.loc 1 1798 8 discriminator 2
	cmp	r3, #255
	bls	.L249
	.loc 1 1800 7 is_stmt 1
	.loc 1 1800 22 is_stmt 0
	movs	r3, #255
	strh	r3, [r4, #40]	@ movhi
	.loc 1 1801 7 is_stmt 1
.LVL239:
	.loc 1 1801 16 is_stmt 0
	mov	r3, #16777216
.LVL240:
.L250:
	.loc 1 1811 5 is_stmt 1
	ldr	r2, .L255+8
.LVL241:
	str	r2, [sp]
.LVL242:
	ldrb	r2, [r4, #40]	@ zero_extendqisi2
	mov	r0, r4
	bl	I2C_TransferConfig
.LVL243:
	.loc 1 1814 5
	.loc 1 1814 9
	.loc 1 1814 22 is_stmt 0
	movs	r5, #0
	strb	r5, [r4, #64]
	.loc 1 1814 7 is_stmt 1
	.loc 1 1824 5
	movs	r1, #2
	mov	r0, r4
	bl	I2C_Enable_IRQ
.LVL244:
	.loc 1 1826 5
	.loc 1 1826 12 is_stmt 0
	mov	r0, r5
.LVL245:
.L248:
	.loc 1 1832 1
	add	sp, sp, #12
	.cfi_remember_state
	.cfi_def_cfa_offset 12
	@ sp needed
	pop	{r4, r5, pc}
.LVL246:
.L249:
	.cfi_restore_state
	.loc 1 1805 7 is_stmt 1
	.loc 1 1805 28 is_stmt 0
	ldrh	r3, [r4, #42]
	.loc 1 1805 22
	strh	r3, [r4, #40]	@ movhi
	.loc 1 1806 7 is_stmt 1
.LVL247:
	.loc 1 1806 16 is_stmt 0
	mov	r3, #33554432
	b	.L250
.LVL248:
.L251:
	.loc 1 1830 12
	movs	r0, #2
	b	.L248
.L252:
	.loc 1 1782 14
	movs	r0, #2
	b	.L248
.L253:
	.loc 1 1786 49
	movs	r0, #2
	b	.L248
.L256:
	.align	2
.L255:
	.word	-65536
	.word	I2C_Master_ISR_IT
	.word	-2147474432
	.cfi_endproc
.LFE344:
	.size	HAL_I2C_Master_Receive_IT, .-HAL_I2C_Master_Receive_IT
	.section	.text.HAL_I2C_Slave_Transmit_IT,"ax",%progbits
	.align	1
	.global	HAL_I2C_Slave_Transmit_IT
	.syntax unified
	.thumb
	.thumb_func
	.type	HAL_I2C_Slave_Transmit_IT, %function
HAL_I2C_Slave_Transmit_IT:
.LFB345:
	.loc 1 1843 1 is_stmt 1
	.cfi_startproc
	@ args = 0, pretend = 0, frame = 0
	@ frame_needed = 0, uses_anonymous_args = 0
.LVL249:
	.loc 1 1844 3
	.loc 1 1844 11 is_stmt 0
	ldrb	r3, [r0, #65]	@ zero_extendqisi2
	uxtb	r3, r3
	.loc 1 1844 6
	cmp	r3, #32
	bne	.L260
	.loc 1 1847 5 is_stmt 1
	.loc 1 1847 9
	.loc 1 1847 18 is_stmt 0
	ldrb	r3, [r0, #64]	@ zero_extendqisi2
	.loc 1 1847 11
	cmp	r3, #1
	beq	.L261
	.loc 1 1843 1 discriminator 2
	push	{r4, lr}
	.cfi_def_cfa_offset 8
	.cfi_offset 4, -8
	.cfi_offset 14, -4
	.loc 1 1847 68 is_stmt 1 discriminator 2
	.loc 1 1847 81 is_stmt 0 discriminator 2
	movs	r3, #1
	strb	r3, [r0, #64]
	.loc 1 1847 7 is_stmt 1 discriminator 2
	.loc 1 1849 5 discriminator 2
	.loc 1 1849 17 is_stmt 0 discriminator 2
	movs	r3, #33
	strb	r3, [r0, #65]
	.loc 1 1850 5 is_stmt 1 discriminator 2
	.loc 1 1850 16 is_stmt 0 discriminator 2
	movs	r3, #32
	strb	r3, [r0, #66]
	.loc 1 1851 5 is_stmt 1 discriminator 2
	.loc 1 1851 21 is_stmt 0 discriminator 2
	movs	r3, #0
	str	r3, [r0, #68]
	.loc 1 1854 5 is_stmt 1 discriminator 2
	.loc 1 1854 9 is_stmt 0 discriminator 2
	ldr	r4, [r0]
	.loc 1 1854 19 discriminator 2
	ldr	r3, [r4, #4]
	.loc 1 1854 25 discriminator 2
	bic	r3, r3, #32768
	str	r3, [r4, #4]
	.loc 1 1857 5 is_stmt 1 discriminator 2
	.loc 1 1857 20 is_stmt 0 discriminator 2
	str	r1, [r0, #36]
	.loc 1 1858 5 is_stmt 1 discriminator 2
	.loc 1 1858 21 is_stmt 0 discriminator 2
	strh	r2, [r0, #42]	@ movhi
	.loc 1 1859 5 is_stmt 1 discriminator 2
	.loc 1 1859 26 is_stmt 0 discriminator 2
	ldrh	r3, [r0, #42]
	.loc 1 1859 20 discriminator 2
	strh	r3, [r0, #40]	@ movhi
	.loc 1 1860 5 is_stmt 1 discriminator 2
	.loc 1 1860 23 is_stmt 0 discriminator 2
	ldr	r3, .L267
	str	r3, [r0, #44]
	.loc 1 1861 5 is_stmt 1 discriminator 2
	.loc 1 1861 19 is_stmt 0 discriminator 2
	ldr	r3, .L267+4
	str	r3, [r0, #52]
	.loc 1 1864 5 is_stmt 1 discriminator 2
	.loc 1 1864 19 is_stmt 0 discriminator 2
	ldr	r3, [r0, #32]
	.loc 1 1864 8 discriminator 2
	cmp	r3, #131072
	beq	.L266
.LVL250:
.L259:
	.loc 1 1878 5 is_stmt 1
	.loc 1 1878 9
	.loc 1 1878 22 is_stmt 0
	movs	r4, #0
	strb	r4, [r0, #64]
	.loc 1 1878 7 is_stmt 1
	.loc 1 1888 5
	movw	r1, #32769
.LVL251:
	bl	I2C_Enable_IRQ
.LVL252:
	.loc 1 1890 5
	.loc 1 1890 12 is_stmt 0
	mov	r0, r4
	.loc 1 1896 1
	pop	{r4, pc}
.LVL253:
.L266:
	.loc 1 1868 7 is_stmt 1
	.loc 1 1868 11 is_stmt 0
	ldr	r3, [r0]
	.loc 1 1868 30
	ldrb	r2, [r1]	@ zero_extendqisi2
.LVL254:
	.loc 1 1868 28
	str	r2, [r3, #40]
	.loc 1 1871 7 is_stmt 1
	.loc 1 1871 11 is_stmt 0
	ldr	r3, [r0, #36]
	.loc 1 1871 21
	adds	r3, r3, #1
	str	r3, [r0, #36]
	.loc 1 1873 7 is_stmt 1
	.loc 1 1873 11 is_stmt 0
	ldrh	r3, [r0, #42]
	uxth	r3, r3
	.loc 1 1873 22
	subs	r3, r3, #1
	uxth	r3, r3
	strh	r3, [r0, #42]	@ movhi
	.loc 1 1874 7 is_stmt 1
	.loc 1 1874 11 is_stmt 0
	ldrh	r3, [r0, #40]
	.loc 1 1874 21
	subs	r3, r3, #1
	strh	r3, [r0, #40]	@ movhi
	b	.L259
.LVL255:
.L260:
	.cfi_def_cfa_offset 0
	.cfi_restore 4
	.cfi_restore 14
	.loc 1 1894 12
	movs	r0, #2
.LVL256:
	bx	lr
.LVL257:
.L261:
	.loc 1 1847 49
	movs	r0, #2
.LVL258:
	.loc 1 1896 1
	bx	lr
.L268:
	.align	2
.L267:
	.word	-65536
	.word	I2C_Slave_ISR_IT
	.cfi_endproc
.LFE345:
	.size	HAL_I2C_Slave_Transmit_IT, .-HAL_I2C_Slave_Transmit_IT
	.section	.text.HAL_I2C_Slave_Receive_IT,"ax",%progbits
	.align	1
	.global	HAL_I2C_Slave_Receive_IT
	.syntax unified
	.thumb
	.thumb_func
	.type	HAL_I2C_Slave_Receive_IT, %function
HAL_I2C_Slave_Receive_IT:
.LFB346:
	.loc 1 1907 1 is_stmt 1
	.cfi_startproc
	@ args = 0, pretend = 0, frame = 0
	@ frame_needed = 0, uses_anonymous_args = 0
.LVL259:
	push	{r3, r4, r5, lr}
	.cfi_def_cfa_offset 16
	.cfi_offset 3, -16
	.cfi_offset 4, -12
	.cfi_offset 5, -8
	.cfi_offset 14, -4
	.loc 1 1908 3
	.loc 1 1908 11 is_stmt 0
	ldrb	r3, [r0, #65]	@ zero_extendqisi2
	uxtb	r3, r3
	.loc 1 1908 6
	cmp	r3, #32
	bne	.L271
	.loc 1 1911 5 is_stmt 1
	.loc 1 1911 9
	.loc 1 1911 18 is_stmt 0
	ldrb	r3, [r0, #64]	@ zero_extendqisi2
	.loc 1 1911 11
	cmp	r3, #1
	beq	.L272
	.loc 1 1911 68 is_stmt 1 discriminator 2
	.loc 1 1911 81 is_stmt 0 discriminator 2
	movs	r3, #1
	strb	r3, [r0, #64]
	.loc 1 1911 7 is_stmt 1 discriminator 2
	.loc 1 1913 5 discriminator 2
	.loc 1 1913 17 is_stmt 0 discriminator 2
	movs	r3, #34
	strb	r3, [r0, #65]
	.loc 1 1914 5 is_stmt 1 discriminator 2
	.loc 1 1914 16 is_stmt 0 discriminator 2
	movs	r3, #32
	strb	r3, [r0, #66]
	.loc 1 1915 5 is_stmt 1 discriminator 2
	.loc 1 1915 21 is_stmt 0 discriminator 2
	movs	r4, #0
	str	r4, [r0, #68]
	.loc 1 1918 5 is_stmt 1 discriminator 2
	.loc 1 1918 9 is_stmt 0 discriminator 2
	ldr	r5, [r0]
	.loc 1 1918 19 discriminator 2
	ldr	r3, [r5, #4]
	.loc 1 1918 25 discriminator 2
	bic	r3, r3, #32768
	str	r3, [r5, #4]
	.loc 1 1921 5 is_stmt 1 discriminator 2
	.loc 1 1921 20 is_stmt 0 discriminator 2
	str	r1, [r0, #36]
	.loc 1 1922 5 is_stmt 1 discriminator 2
	.loc 1 1922 21 is_stmt 0 discriminator 2
	strh	r2, [r0, #42]	@ movhi
	.loc 1 1923 5 is_stmt 1 discriminator 2
	.loc 1 1923 26 is_stmt 0 discriminator 2
	ldrh	r3, [r0, #42]
	.loc 1 1923 20 discriminator 2
	strh	r3, [r0, #40]	@ movhi
	.loc 1 1924 5 is_stmt 1 discriminator 2
	.loc 1 1924 23 is_stmt 0 discriminator 2
	ldr	r3, .L274
	str	r3, [r0, #44]
	.loc 1 1925 5 is_stmt 1 discriminator 2
	.loc 1 1925 19 is_stmt 0 discriminator 2
	ldr	r3, .L274+4
	str	r3, [r0, #52]
	.loc 1 1928 5 is_stmt 1 discriminator 2
	.loc 1 1928 9 discriminator 2
	.loc 1 1928 22 is_stmt 0 discriminator 2
	strb	r4, [r0, #64]
	.loc 1 1928 7 is_stmt 1 discriminator 2
	.loc 1 1938 5 discriminator 2
	movw	r1, #32770
.LVL260:
	bl	I2C_Enable_IRQ
.LVL261:
	.loc 1 1940 5 discriminator 2
	.loc 1 1940 12 is_stmt 0 discriminator 2
	mov	r0, r4
.L270:
	.loc 1 1946 1
	pop	{r3, r4, r5, pc}
.LVL262:
.L271:
	.loc 1 1944 12
	movs	r0, #2
.LVL263:
	b	.L270
.LVL264:
.L272:
	.loc 1 1911 49
	movs	r0, #2
.LVL265:
	b	.L270
.L275:
	.align	2
.L274:
	.word	-65536
	.word	I2C_Slave_ISR_IT
	.cfi_endproc
.LFE346:
	.size	HAL_I2C_Slave_Receive_IT, .-HAL_I2C_Slave_Receive_IT
	.section	.text.HAL_I2C_Master_Transmit_DMA,"ax",%progbits
	.align	1
	.global	HAL_I2C_Master_Transmit_DMA
	.syntax unified
	.thumb
	.thumb_func
	.type	HAL_I2C_Master_Transmit_DMA, %function
HAL_I2C_Master_Transmit_DMA:
.LFB347:
	.loc 1 1960 1 is_stmt 1
	.cfi_startproc
	@ args = 0, pretend = 0, frame = 0
	@ frame_needed = 0, uses_anonymous_args = 0
.LVL266:
	push	{r4, r5, r6, lr}
	.cfi_def_cfa_offset 16
	.cfi_offset 4, -16
	.cfi_offset 5, -12
	.cfi_offset 6, -8
	.cfi_offset 14, -4
	sub	sp, sp, #8
	.cfi_def_cfa_offset 24
	mov	r4, r0
	.loc 1 1961 3
	.loc 1 1962 3
	.loc 1 1963 3
.LVL267:
	.loc 1 1965 3
	.loc 1 1965 11 is_stmt 0
	ldrb	r0, [r0, #65]	@ zero_extendqisi2
.LVL268:
	uxtb	r0, r0
	.loc 1 1965 6
	cmp	r0, #32
	bne	.L286
	mov	r5, r1
	.loc 1 1967 5 is_stmt 1
	.loc 1 1967 19 is_stmt 0
	ldr	r0, [r4]
	.loc 1 1967 29
	ldr	r1, [r0, #24]
.LVL269:
	.loc 1 1967 8
	ands	r1, r1, #32768
	bne	.L287
	.loc 1 1973 5 is_stmt 1
	.loc 1 1973 9
	.loc 1 1973 18 is_stmt 0
	ldrb	r6, [r4, #64]	@ zero_extendqisi2
	.loc 1 1973 11
	cmp	r6, #1
	beq	.L288
	.loc 1 1973 68 is_stmt 1 discriminator 2
	.loc 1 1973 81 is_stmt 0 discriminator 2
	movs	r6, #1
	strb	r6, [r4, #64]
	.loc 1 1973 7 is_stmt 1 discriminator 2
	.loc 1 1975 5 discriminator 2
	.loc 1 1975 17 is_stmt 0 discriminator 2
	movs	r6, #33
	strb	r6, [r4, #65]
	.loc 1 1976 5 is_stmt 1 discriminator 2
	.loc 1 1976 16 is_stmt 0 discriminator 2
	movs	r6, #16
	strb	r6, [r4, #66]
	.loc 1 1977 5 is_stmt 1 discriminator 2
	.loc 1 1977 21 is_stmt 0 discriminator 2
	movs	r6, #0
	str	r6, [r4, #68]
	.loc 1 1980 5 is_stmt 1 discriminator 2
	.loc 1 1980 20 is_stmt 0 discriminator 2
	str	r2, [r4, #36]
	.loc 1 1981 5 is_stmt 1 discriminator 2
	.loc 1 1981 21 is_stmt 0 discriminator 2
	strh	r3, [r4, #42]	@ movhi
	.loc 1 1982 5 is_stmt 1 discriminator 2
	.loc 1 1982 23 is_stmt 0 discriminator 2
	ldr	r3, .L292
.LVL270:
	str	r3, [r4, #44]
.LVL271:
	.loc 1 1983 5 is_stmt 1 discriminator 2
	.loc 1 1983 19 is_stmt 0 discriminator 2
	ldr	r3, .L292+4
	str	r3, [r4, #52]
	.loc 1 1985 5 is_stmt 1 discriminator 2
	.loc 1 1985 13 is_stmt 0 discriminator 2
	ldrh	r3, [r4, #42]
	uxth	r3, r3
	.loc 1 1985 8 discriminator 2
	cmp	r3, #255
	bls	.L278
	.loc 1 1987 7 is_stmt 1
	.loc 1 1987 22 is_stmt 0
	movs	r3, #255
	strh	r3, [r4, #40]	@ movhi
	.loc 1 1988 7 is_stmt 1
.LVL272:
	.loc 1 1988 16 is_stmt 0
	mov	r6, #16777216
.LVL273:
.L279:
	.loc 1 1996 5 is_stmt 1
	.loc 1 1996 13 is_stmt 0
	ldrh	r3, [r4, #40]
	.loc 1 1996 8
	cbz	r3, .L280
	.loc 1 2000 7 is_stmt 1
	.loc 1 2000 30 is_stmt 0
	ldrb	r3, [r2]	@ zero_extendqisi2
	.loc 1 2000 28
	str	r3, [r0, #40]
	.loc 1 2003 7 is_stmt 1
	.loc 1 2003 11 is_stmt 0
	ldr	r3, [r4, #36]
	.loc 1 2003 21
	adds	r3, r3, #1
	str	r3, [r4, #36]
	.loc 1 2005 7 is_stmt 1
	.loc 1 2005 24 is_stmt 0
	ldrh	r1, [r4, #40]
.LVL274:
	.loc 1 2006 7 is_stmt 1
	.loc 1 2006 11 is_stmt 0
	ldrh	r3, [r4, #42]
	uxth	r3, r3
	.loc 1 2006 22
	subs	r3, r3, #1
	uxth	r3, r3
	strh	r3, [r4, #42]	@ movhi
	.loc 1 2007 7 is_stmt 1
	.loc 1 2007 21 is_stmt 0
	subs	r3, r1, #1
	strh	r3, [r4, #40]	@ movhi
.LVL275:
.L280:
	.loc 1 2010 5 is_stmt 1
	.loc 1 2010 13 is_stmt 0
	ldrh	r3, [r4, #40]
	.loc 1 2010 8
	cmp	r3, #0
	beq	.L281
	.loc 1 2012 7 is_stmt 1
	.loc 1 2012 15 is_stmt 0
	ldr	r3, [r4, #56]
	.loc 1 2012 10
	cbz	r3, .L282
	.loc 1 2015 9 is_stmt 1
	.loc 1 2015 40 is_stmt 0
	ldr	r2, .L292+8
.LVL276:
	str	r2, [r3, #60]
	.loc 1 2018 9 is_stmt 1
	.loc 1 2018 13 is_stmt 0
	ldr	r3, [r4, #56]
	.loc 1 2018 41
	ldr	r2, .L292+12
	str	r2, [r3, #76]
	.loc 1 2021 9 is_stmt 1
	.loc 1 2021 13 is_stmt 0
	ldr	r2, [r4, #56]
	.loc 1 2021 44
	movs	r3, #0
	str	r3, [r2, #64]
	.loc 1 2022 9 is_stmt 1
	.loc 1 2022 13 is_stmt 0
	ldr	r2, [r4, #56]
	.loc 1 2022 41
	str	r3, [r2, #80]
	.loc 1 2025 9 is_stmt 1
	.loc 1 2026 57 is_stmt 0
	ldr	r2, [r4]
	.loc 1 2025 25
	ldrh	r3, [r4, #40]
	adds	r2, r2, #40
	ldr	r1, [r4, #36]
.LVL277:
	ldr	r0, [r4, #56]
	bl	HAL_DMA_Start_IT
.LVL278:
	.loc 1 2043 7 is_stmt 1
	.loc 1 2043 10 is_stmt 0
	cbz	r0, .L291
	.loc 1 2068 9 is_stmt 1
	.loc 1 2068 21 is_stmt 0
	movs	r3, #32
	strb	r3, [r4, #65]
	.loc 1 2069 9 is_stmt 1
	.loc 1 2069 20 is_stmt 0
	movs	r2, #0
	strb	r2, [r4, #66]
	.loc 1 2072 9 is_stmt 1
	.loc 1 2072 13 is_stmt 0
	ldr	r3, [r4, #68]
	.loc 1 2072 25
	orr	r3, r3, #16
	str	r3, [r4, #68]
	.loc 1 2075 9 is_stmt 1
	.loc 1 2075 13
	.loc 1 2075 26 is_stmt 0
	strb	r2, [r4, #64]
	.loc 1 2075 11 is_stmt 1
	.loc 1 2077 9
	.loc 1 2077 16 is_stmt 0
	movs	r0, #1
.LVL279:
	b	.L277
.LVL280:
.L278:
	.loc 1 1992 7 is_stmt 1
	.loc 1 1992 28 is_stmt 0
	ldrh	r3, [r4, #42]
	.loc 1 1992 22
	strh	r3, [r4, #40]	@ movhi
	.loc 1 1993 7 is_stmt 1
.LVL281:
	.loc 1 1993 16 is_stmt 0
	mov	r6, #33554432
	b	.L279
.LVL282:
.L282:
	.loc 1 2031 9 is_stmt 1
	.loc 1 2031 21 is_stmt 0
	movs	r3, #32
	strb	r3, [r4, #65]
	.loc 1 2032 9 is_stmt 1
	.loc 1 2032 20 is_stmt 0
	movs	r2, #0
.LVL283:
	strb	r2, [r4, #66]
	.loc 1 2035 9 is_stmt 1
	.loc 1 2035 13 is_stmt 0
	ldr	r3, [r4, #68]
	.loc 1 2035 25
	orr	r3, r3, #128
	str	r3, [r4, #68]
	.loc 1 2038 9 is_stmt 1
	.loc 1 2038 13
	.loc 1 2038 26 is_stmt 0
	strb	r2, [r4, #64]
	.loc 1 2038 11 is_stmt 1
	.loc 1 2040 9
	.loc 1 2040 16 is_stmt 0
	movs	r0, #1
	b	.L277
.LVL284:
.L291:
	.loc 1 2047 9 is_stmt 1
	.loc 1 2047 60 is_stmt 0
	ldrh	r2, [r4, #40]
	.loc 1 2047 9
	adds	r2, r2, #1
	ldr	r3, .L292+16
	str	r3, [sp]
	mov	r3, r6
	uxtb	r2, r2
	mov	r1, r5
	mov	r0, r4
.LVL285:
	bl	I2C_TransferConfig
.LVL286:
	.loc 1 2051 9 is_stmt 1
	.loc 1 2051 13 is_stmt 0
	ldrh	r3, [r4, #42]
	uxth	r3, r3
	.loc 1 2051 32
	ldrh	r2, [r4, #40]
	.loc 1 2051 25
	subs	r3, r3, r2
	uxth	r3, r3
	strh	r3, [r4, #42]	@ movhi
	.loc 1 2054 9 is_stmt 1
	.loc 1 2054 13
	.loc 1 2054 26 is_stmt 0
	movs	r3, #0
	strb	r3, [r4, #64]
	.loc 1 2054 11 is_stmt 1
	.loc 1 2060 9
	movs	r1, #16
	mov	r0, r4
	bl	I2C_Enable_IRQ
.LVL287:
	.loc 1 2063 9
	.loc 1 2063 13 is_stmt 0
	ldr	r2, [r4]
	.loc 1 2063 23
	ldr	r3, [r2]
	.loc 1 2063 29
	orr	r3, r3, #16384
	str	r3, [r2]
	b	.L285
.LVL288:
.L281:
	.loc 1 2083 7 is_stmt 1
	.loc 1 2083 21 is_stmt 0
	ldr	r3, .L292+20
	str	r3, [r4, #52]
	.loc 1 2087 7 is_stmt 1
	ldr	r3, .L292+16
	str	r3, [sp]
	mov	r3, #33554432
	uxtb	r2, r1
.LVL289:
	mov	r1, r5
.LVL290:
	mov	r0, r4
	bl	I2C_TransferConfig
.LVL291:
	.loc 1 2091 7
	.loc 1 2091 11
	.loc 1 2091 24 is_stmt 0
	movs	r3, #0
	strb	r3, [r4, #64]
	.loc 1 2091 9 is_stmt 1
	.loc 1 2100 7
	movs	r1, #1
	mov	r0, r4
	bl	I2C_Enable_IRQ
.LVL292:
.L285:
	.loc 1 2103 5
	.loc 1 2103 12 is_stmt 0
	movs	r0, #0
	b	.L277
.LVL293:
.L286:
	.loc 1 2107 12
	movs	r0, #2
.LVL294:
.L277:
	.loc 1 2109 1
	add	sp, sp, #8
	.cfi_remember_state
	.cfi_def_cfa_offset 16
	@ sp needed
	pop	{r4, r5, r6, pc}
.LVL295:
.L287:
	.cfi_restore_state
	.loc 1 1969 14
	movs	r0, #2
	b	.L277
.L288:
	.loc 1 1973 49
	movs	r0, #2
	b	.L277
.L293:
	.align	2
.L292:
	.word	-65536
	.word	I2C_Master_ISR_DMA
	.word	I2C_DMAMasterTransmitCplt
	.word	I2C_DMAError
	.word	-2147475456
	.word	I2C_Master_ISR_IT
	.cfi_endproc
.LFE347:
	.size	HAL_I2C_Master_Transmit_DMA, .-HAL_I2C_Master_Transmit_DMA
	.section	.text.HAL_I2C_Master_Receive_DMA,"ax",%progbits
	.align	1
	.global	HAL_I2C_Master_Receive_DMA
	.syntax unified
	.thumb
	.thumb_func
	.type	HAL_I2C_Master_Receive_DMA, %function
HAL_I2C_Master_Receive_DMA:
.LFB348:
	.loc 1 2123 1 is_stmt 1
	.cfi_startproc
	@ args = 0, pretend = 0, frame = 0
	@ frame_needed = 0, uses_anonymous_args = 0
.LVL296:
	push	{r4, r5, r6, lr}
	.cfi_def_cfa_offset 16
	.cfi_offset 4, -16
	.cfi_offset 5, -12
	.cfi_offset 6, -8
	.cfi_offset 14, -4
	sub	sp, sp, #8
	.cfi_def_cfa_offset 24
	mov	r4, r0
	.loc 1 2124 3
	.loc 1 2125 3
	.loc 1 2127 3
	.loc 1 2127 11 is_stmt 0
	ldrb	r0, [r0, #65]	@ zero_extendqisi2
.LVL297:
	uxtb	r0, r0
	.loc 1 2127 6
	cmp	r0, #32
	bne	.L303
	mov	r5, r1
	.loc 1 2129 5 is_stmt 1
	.loc 1 2129 19 is_stmt 0
	ldr	r1, [r4]
.LVL298:
	.loc 1 2129 29
	ldr	r1, [r1, #24]
	.loc 1 2129 8
	tst	r1, #32768
	bne	.L304
	.loc 1 2135 5 is_stmt 1
	.loc 1 2135 9
	.loc 1 2135 18 is_stmt 0
	ldrb	r1, [r4, #64]	@ zero_extendqisi2
	.loc 1 2135 11
	cmp	r1, #1
	beq	.L305
	.loc 1 2135 68 is_stmt 1 discriminator 2
	.loc 1 2135 81 is_stmt 0 discriminator 2
	movs	r1, #1
	strb	r1, [r4, #64]
	.loc 1 2135 7 is_stmt 1 discriminator 2
	.loc 1 2137 5 discriminator 2
	.loc 1 2137 17 is_stmt 0 discriminator 2
	movs	r1, #34
	strb	r1, [r4, #65]
	.loc 1 2138 5 is_stmt 1 discriminator 2
	.loc 1 2138 16 is_stmt 0 discriminator 2
	movs	r1, #16
	strb	r1, [r4, #66]
	.loc 1 2139 5 is_stmt 1 discriminator 2
	.loc 1 2139 21 is_stmt 0 discriminator 2
	movs	r1, #0
	str	r1, [r4, #68]
	.loc 1 2142 5 is_stmt 1 discriminator 2
	.loc 1 2142 20 is_stmt 0 discriminator 2
	str	r2, [r4, #36]
	.loc 1 2143 5 is_stmt 1 discriminator 2
	.loc 1 2143 21 is_stmt 0 discriminator 2
	strh	r3, [r4, #42]	@ movhi
	.loc 1 2144 5 is_stmt 1 discriminator 2
	.loc 1 2144 23 is_stmt 0 discriminator 2
	ldr	r3, .L309
.LVL299:
	str	r3, [r4, #44]
.LVL300:
	.loc 1 2145 5 is_stmt 1 discriminator 2
	.loc 1 2145 19 is_stmt 0 discriminator 2
	ldr	r3, .L309+4
	str	r3, [r4, #52]
	.loc 1 2147 5 is_stmt 1 discriminator 2
	.loc 1 2147 13 is_stmt 0 discriminator 2
	ldrh	r3, [r4, #42]
	uxth	r3, r3
	.loc 1 2147 8 discriminator 2
	cmp	r3, #255
	bls	.L296
	.loc 1 2149 7 is_stmt 1
	.loc 1 2149 22 is_stmt 0
	movs	r3, #255
	strh	r3, [r4, #40]	@ movhi
	.loc 1 2150 7 is_stmt 1
.LVL301:
	.loc 1 2150 16 is_stmt 0
	mov	r6, #16777216
.LVL302:
.L297:
	.loc 1 2158 5 is_stmt 1
	.loc 1 2158 13 is_stmt 0
	ldrh	r1, [r4, #40]
	.loc 1 2158 8
	cmp	r1, #0
	beq	.L298
	.loc 1 2160 7 is_stmt 1
	.loc 1 2160 15 is_stmt 0
	ldr	r3, [r4, #60]
	.loc 1 2160 10
	cbz	r3, .L299
	.loc 1 2163 9 is_stmt 1
	.loc 1 2163 40 is_stmt 0
	ldr	r1, .L309+8
	str	r1, [r3, #60]
	.loc 1 2166 9 is_stmt 1
	.loc 1 2166 13 is_stmt 0
	ldr	r3, [r4, #60]
	.loc 1 2166 41
	ldr	r1, .L309+12
	str	r1, [r3, #76]
	.loc 1 2169 9 is_stmt 1
	.loc 1 2169 13 is_stmt 0
	ldr	r1, [r4, #60]
	.loc 1 2169 44
	movs	r3, #0
	str	r3, [r1, #64]
	.loc 1 2170 9 is_stmt 1
	.loc 1 2170 13 is_stmt 0
	ldr	r1, [r4, #60]
	.loc 1 2170 41
	str	r3, [r1, #80]
	.loc 1 2173 9 is_stmt 1
	.loc 1 2173 71 is_stmt 0
	ldr	r1, [r4]
	.loc 1 2173 25
	ldrh	r3, [r4, #40]
	adds	r1, r1, #36
	ldr	r0, [r4, #60]
	bl	HAL_DMA_Start_IT
.LVL303:
	.loc 1 2191 7 is_stmt 1
	.loc 1 2191 10 is_stmt 0
	cbz	r0, .L308
	.loc 1 2215 9 is_stmt 1
	.loc 1 2215 21 is_stmt 0
	movs	r3, #32
	strb	r3, [r4, #65]
	.loc 1 2216 9 is_stmt 1
	.loc 1 2216 20 is_stmt 0
	movs	r2, #0
	strb	r2, [r4, #66]
	.loc 1 2219 9 is_stmt 1
	.loc 1 2219 13 is_stmt 0
	ldr	r3, [r4, #68]
	.loc 1 2219 25
	orr	r3, r3, #16
	str	r3, [r4, #68]
	.loc 1 2222 9 is_stmt 1
	.loc 1 2222 13
	.loc 1 2222 26 is_stmt 0
	strb	r2, [r4, #64]
	.loc 1 2222 11 is_stmt 1
	.loc 1 2224 9
	.loc 1 2224 16 is_stmt 0
	movs	r0, #1
.LVL304:
	b	.L295
.LVL305:
.L296:
	.loc 1 2154 7 is_stmt 1
	.loc 1 2154 28 is_stmt 0
	ldrh	r3, [r4, #42]
	.loc 1 2154 22
	strh	r3, [r4, #40]	@ movhi
	.loc 1 2155 7 is_stmt 1
.LVL306:
	.loc 1 2155 16 is_stmt 0
	mov	r6, #33554432
	b	.L297
.LVL307:
.L299:
	.loc 1 2179 9 is_stmt 1
	.loc 1 2179 21 is_stmt 0
	movs	r3, #32
	strb	r3, [r4, #65]
	.loc 1 2180 9 is_stmt 1
	.loc 1 2180 20 is_stmt 0
	movs	r2, #0
.LVL308:
	strb	r2, [r4, #66]
	.loc 1 2183 9 is_stmt 1
	.loc 1 2183 13 is_stmt 0
	ldr	r3, [r4, #68]
	.loc 1 2183 25
	orr	r3, r3, #128
	str	r3, [r4, #68]
	.loc 1 2186 9 is_stmt 1
	.loc 1 2186 13
	.loc 1 2186 26 is_stmt 0
	strb	r2, [r4, #64]
	.loc 1 2186 11 is_stmt 1
	.loc 1 2188 9
	.loc 1 2188 16 is_stmt 0
	movs	r0, #1
	b	.L295
.LVL309:
.L308:
	.loc 1 2195 9 is_stmt 1
	ldr	r3, .L309+16
	str	r3, [sp]
	mov	r3, r6
	ldrb	r2, [r4, #40]	@ zero_extendqisi2
	mov	r1, r5
	mov	r0, r4
.LVL310:
	bl	I2C_TransferConfig
.LVL311:
	.loc 1 2198 9
	.loc 1 2198 13 is_stmt 0
	ldrh	r3, [r4, #42]
	uxth	r3, r3
	.loc 1 2198 32
	ldrh	r2, [r4, #40]
	.loc 1 2198 25
	subs	r3, r3, r2
	uxth	r3, r3
	strh	r3, [r4, #42]	@ movhi
	.loc 1 2201 9 is_stmt 1
	.loc 1 2201 13
	.loc 1 2201 26 is_stmt 0
	movs	r3, #0
	strb	r3, [r4, #64]
	.loc 1 2201 11 is_stmt 1
	.loc 1 2207 9
	movs	r1, #16
	mov	r0, r4
	bl	I2C_Enable_IRQ
.LVL312:
	.loc 1 2210 9
	.loc 1 2210 13 is_stmt 0
	ldr	r2, [r4]
	.loc 1 2210 23
	ldr	r3, [r2]
	.loc 1 2210 29
	orr	r3, r3, #32768
	str	r3, [r2]
	b	.L302
.LVL313:
.L298:
	.loc 1 2230 7 is_stmt 1
	.loc 1 2230 21 is_stmt 0
	ldr	r3, .L309+20
	str	r3, [r4, #52]
	.loc 1 2234 7 is_stmt 1
	ldr	r3, .L309+16
	str	r3, [sp]
	mov	r3, #33554432
	uxtb	r2, r1
.LVL314:
	mov	r1, r5
	mov	r0, r4
	bl	I2C_TransferConfig
.LVL315:
	.loc 1 2238 7
	.loc 1 2238 11
	.loc 1 2238 24 is_stmt 0
	movs	r3, #0
	strb	r3, [r4, #64]
	.loc 1 2238 9 is_stmt 1
	.loc 1 2247 7
	movs	r1, #2
	mov	r0, r4
	bl	I2C_Enable_IRQ
.LVL316:
.L302:
	.loc 1 2250 5
	.loc 1 2250 12 is_stmt 0
	movs	r0, #0
	b	.L295
.LVL317:
.L303:
	.loc 1 2254 12
	movs	r0, #2
.LVL318:
.L295:
	.loc 1 2256 1
	add	sp, sp, #8
	.cfi_remember_state
	.cfi_def_cfa_offset 16
	@ sp needed
	pop	{r4, r5, r6, pc}
.LVL319:
.L304:
	.cfi_restore_state
	.loc 1 2131 14
	movs	r0, #2
	b	.L295
.L305:
	.loc 1 2135 49
	movs	r0, #2
	b	.L295
.L310:
	.align	2
.L309:
	.word	-65536
	.word	I2C_Master_ISR_DMA
	.word	I2C_DMAMasterReceiveCplt
	.word	I2C_DMAError
	.word	-2147474432
	.word	I2C_Master_ISR_IT
	.cfi_endproc
.LFE348:
	.size	HAL_I2C_Master_Receive_DMA, .-HAL_I2C_Master_Receive_DMA
	.section	.text.HAL_I2C_Slave_Transmit_DMA,"ax",%progbits
	.align	1
	.global	HAL_I2C_Slave_Transmit_DMA
	.syntax unified
	.thumb
	.thumb_func
	.type	HAL_I2C_Slave_Transmit_DMA, %function
HAL_I2C_Slave_Transmit_DMA:
.LFB349:
	.loc 1 2267 1 is_stmt 1
	.cfi_startproc
	@ args = 0, pretend = 0, frame = 0
	@ frame_needed = 0, uses_anonymous_args = 0
.LVL320:
	.loc 1 2268 3
	.loc 1 2270 3
	.loc 1 2270 11 is_stmt 0
	ldrb	r3, [r0, #65]	@ zero_extendqisi2
	uxtb	r3, r3
	.loc 1 2270 6
	cmp	r3, #32
	bne	.L320
	.loc 1 2267 1
	push	{r4, lr}
	.cfi_def_cfa_offset 8
	.cfi_offset 4, -8
	.cfi_offset 14, -4
	mov	r4, r0
	.loc 1 2272 5 is_stmt 1
	.loc 1 2272 8 is_stmt 0
	cmp	r2, #0
	it	ne
	cmpne	r1, #0
	beq	.L327
	.loc 1 2278 5 is_stmt 1
	.loc 1 2278 9
	.loc 1 2278 18 is_stmt 0
	ldrb	r3, [r0, #64]	@ zero_extendqisi2
	.loc 1 2278 11
	cmp	r3, #1
	beq	.L321
	.loc 1 2278 68 is_stmt 1 discriminator 2
	.loc 1 2278 81 is_stmt 0 discriminator 2
	movs	r3, #1
	strb	r3, [r0, #64]
	.loc 1 2278 7 is_stmt 1 discriminator 2
	.loc 1 2280 5 discriminator 2
	.loc 1 2280 17 is_stmt 0 discriminator 2
	movs	r3, #33
	strb	r3, [r0, #65]
	.loc 1 2281 5 is_stmt 1 discriminator 2
	.loc 1 2281 16 is_stmt 0 discriminator 2
	movs	r3, #32
	strb	r3, [r0, #66]
	.loc 1 2282 5 is_stmt 1 discriminator 2
	.loc 1 2282 21 is_stmt 0 discriminator 2
	movs	r3, #0
	str	r3, [r0, #68]
	.loc 1 2285 5 is_stmt 1 discriminator 2
	.loc 1 2285 20 is_stmt 0 discriminator 2
	str	r1, [r0, #36]
	.loc 1 2286 5 is_stmt 1 discriminator 2
	.loc 1 2286 21 is_stmt 0 discriminator 2
	strh	r2, [r0, #42]	@ movhi
	.loc 1 2287 5 is_stmt 1 discriminator 2
	.loc 1 2287 26 is_stmt 0 discriminator 2
	ldrh	r3, [r0, #42]
	.loc 1 2287 20 discriminator 2
	strh	r3, [r0, #40]	@ movhi
	.loc 1 2288 5 is_stmt 1 discriminator 2
	.loc 1 2288 23 is_stmt 0 discriminator 2
	ldr	r3, .L330
	str	r3, [r0, #44]
	.loc 1 2289 5 is_stmt 1 discriminator 2
	.loc 1 2289 19 is_stmt 0 discriminator 2
	ldr	r3, .L330+4
	str	r3, [r0, #52]
	.loc 1 2292 5 is_stmt 1 discriminator 2
	.loc 1 2292 19 is_stmt 0 discriminator 2
	ldr	r3, [r0, #32]
	.loc 1 2292 8 discriminator 2
	cmp	r3, #131072
	beq	.L328
.LVL321:
.L314:
	.loc 1 2305 5 is_stmt 1
	.loc 1 2305 13 is_stmt 0
	ldrh	r3, [r4, #42]
	uxth	r3, r3
	.loc 1 2305 8
	cmp	r3, #0
	beq	.L315
	.loc 1 2307 7 is_stmt 1
	.loc 1 2307 15 is_stmt 0
	ldr	r3, [r4, #56]
	.loc 1 2307 10
	cmp	r3, #0
	beq	.L316
	.loc 1 2310 9 is_stmt 1
	.loc 1 2310 40 is_stmt 0
	ldr	r2, .L330+8
	str	r2, [r3, #60]
	.loc 1 2313 9 is_stmt 1
	.loc 1 2313 13 is_stmt 0
	ldr	r3, [r4, #56]
	.loc 1 2313 41
	ldr	r2, .L330+12
	str	r2, [r3, #76]
	.loc 1 2316 9 is_stmt 1
	.loc 1 2316 13 is_stmt 0
	ldr	r2, [r4, #56]
	.loc 1 2316 44
	movs	r3, #0
	str	r3, [r2, #64]
	.loc 1 2317 9 is_stmt 1
	.loc 1 2317 13 is_stmt 0
	ldr	r2, [r4, #56]
	.loc 1 2317 41
	str	r3, [r2, #80]
	.loc 1 2320 9 is_stmt 1
	.loc 1 2321 83 is_stmt 0
	ldr	r2, [r4]
	.loc 1 2320 25
	ldrh	r3, [r4, #40]
	adds	r2, r2, #40
	ldr	r1, [r4, #36]
.LVL322:
	ldr	r0, [r4, #56]
.LVL323:
	bl	HAL_DMA_Start_IT
.LVL324:
	.loc 1 2339 7 is_stmt 1
	.loc 1 2339 10 is_stmt 0
	cbz	r0, .L329
	.loc 1 2359 9 is_stmt 1
	.loc 1 2359 21 is_stmt 0
	movs	r3, #40
	strb	r3, [r4, #65]
	.loc 1 2360 9 is_stmt 1
	.loc 1 2360 20 is_stmt 0
	movs	r2, #0
	strb	r2, [r4, #66]
	.loc 1 2363 9 is_stmt 1
	.loc 1 2363 13 is_stmt 0
	ldr	r3, [r4, #68]
	.loc 1 2363 25
	orr	r3, r3, #16
	str	r3, [r4, #68]
	.loc 1 2366 9 is_stmt 1
	.loc 1 2366 13
	.loc 1 2366 26 is_stmt 0
	strb	r2, [r4, #64]
	.loc 1 2366 11 is_stmt 1
	.loc 1 2368 9
	.loc 1 2368 16 is_stmt 0
	movs	r0, #1
.LVL325:
	b	.L312
.LVL326:
.L327:
	.loc 1 2274 7 is_stmt 1
	.loc 1 2274 23 is_stmt 0
	mov	r3, #512
	str	r3, [r0, #68]
	.loc 1 2275 7 is_stmt 1
	.loc 1 2275 14 is_stmt 0
	movs	r0, #1
.LVL327:
.L312:
	.loc 1 2392 1
	pop	{r4, pc}
.LVL328:
.L328:
	.loc 1 2296 7 is_stmt 1
	.loc 1 2296 11 is_stmt 0
	ldr	r3, [r0]
	.loc 1 2296 30
	ldrb	r2, [r1]	@ zero_extendqisi2
.LVL329:
	.loc 1 2296 28
	str	r2, [r3, #40]
	.loc 1 2299 7 is_stmt 1
	.loc 1 2299 11 is_stmt 0
	ldr	r3, [r0, #36]
	.loc 1 2299 21
	adds	r3, r3, #1
	str	r3, [r0, #36]
	.loc 1 2301 7 is_stmt 1
	.loc 1 2301 11 is_stmt 0
	ldrh	r3, [r0, #42]
	uxth	r3, r3
	.loc 1 2301 22
	subs	r3, r3, #1
	uxth	r3, r3
	strh	r3, [r0, #42]	@ movhi
	.loc 1 2302 7 is_stmt 1
	.loc 1 2302 11 is_stmt 0
	ldrh	r3, [r0, #40]
	.loc 1 2302 21
	subs	r3, r3, #1
	strh	r3, [r0, #40]	@ movhi
	b	.L314
.L316:
	.loc 1 2327 9 is_stmt 1
	.loc 1 2327 21 is_stmt 0
	movs	r3, #40
	strb	r3, [r4, #65]
	.loc 1 2328 9 is_stmt 1
	.loc 1 2328 20 is_stmt 0
	movs	r2, #0
	strb	r2, [r4, #66]
	.loc 1 2331 9 is_stmt 1
	.loc 1 2331 13 is_stmt 0
	ldr	r3, [r4, #68]
	.loc 1 2331 25
	orr	r3, r3, #128
	str	r3, [r4, #68]
	.loc 1 2334 9 is_stmt 1
	.loc 1 2334 13
	.loc 1 2334 26 is_stmt 0
	strb	r2, [r4, #64]
	.loc 1 2334 11 is_stmt 1
	.loc 1 2336 9
	.loc 1 2336 16 is_stmt 0
	movs	r0, #1
.LVL330:
	b	.L312
.LVL331:
.L329:
	.loc 1 2342 9 is_stmt 1
	.loc 1 2342 13 is_stmt 0
	ldr	r2, [r4]
	.loc 1 2342 23
	ldr	r3, [r2, #4]
	.loc 1 2342 29
	bic	r3, r3, #32768
	str	r3, [r2, #4]
	.loc 1 2345 9 is_stmt 1
	.loc 1 2345 13
	.loc 1 2345 26 is_stmt 0
	movs	r3, #0
	strb	r3, [r4, #64]
	.loc 1 2345 11 is_stmt 1
	.loc 1 2351 9
	mov	r1, #32768
	mov	r0, r4
.LVL332:
	bl	I2C_Enable_IRQ
.LVL333:
	.loc 1 2354 9
	.loc 1 2354 13 is_stmt 0
	ldr	r2, [r4]
	.loc 1 2354 23
	ldr	r3, [r2]
	.loc 1 2354 29
	orr	r3, r3, #16384
	str	r3, [r2]
	b	.L319
.LVL334:
.L315:
	.loc 1 2374 7 is_stmt 1
	.loc 1 2374 11 is_stmt 0
	ldr	r2, [r4]
	.loc 1 2374 21
	ldr	r3, [r2, #4]
	.loc 1 2374 27
	bic	r3, r3, #32768
	str	r3, [r2, #4]
	.loc 1 2377 7 is_stmt 1
	.loc 1 2377 11
	.loc 1 2377 24 is_stmt 0
	movs	r3, #0
	strb	r3, [r4, #64]
	.loc 1 2377 9 is_stmt 1
	.loc 1 2383 7
	mov	r1, #32768
.LVL335:
	mov	r0, r4
.LVL336:
	bl	I2C_Enable_IRQ
.LVL337:
.L319:
	.loc 1 2386 5
	.loc 1 2386 12 is_stmt 0
	movs	r0, #0
	b	.L312
.LVL338:
.L320:
	.cfi_def_cfa_offset 0
	.cfi_restore 4
	.cfi_restore 14
	.loc 1 2390 12
	movs	r0, #2
.LVL339:
	.loc 1 2392 1
	bx	lr
.LVL340:
.L321:
	.cfi_def_cfa_offset 8
	.cfi_offset 4, -8
	.cfi_offset 14, -4
	.loc 1 2278 49
	movs	r0, #2
.LVL341:
	b	.L312
.L331:
	.align	2
.L330:
	.word	-65536
	.word	I2C_Slave_ISR_DMA
	.word	I2C_DMASlaveTransmitCplt
	.word	I2C_DMAError
	.cfi_endproc
.LFE349:
	.size	HAL_I2C_Slave_Transmit_DMA, .-HAL_I2C_Slave_Transmit_DMA
	.section	.text.HAL_I2C_Slave_Receive_DMA,"ax",%progbits
	.align	1
	.global	HAL_I2C_Slave_Receive_DMA
	.syntax unified
	.thumb
	.thumb_func
	.type	HAL_I2C_Slave_Receive_DMA, %function
HAL_I2C_Slave_Receive_DMA:
.LFB350:
	.loc 1 2403 1 is_stmt 1
	.cfi_startproc
	@ args = 0, pretend = 0, frame = 0
	@ frame_needed = 0, uses_anonymous_args = 0
.LVL342:
	push	{r3, r4, r5, lr}
	.cfi_def_cfa_offset 16
	.cfi_offset 3, -16
	.cfi_offset 4, -12
	.cfi_offset 5, -8
	.cfi_offset 14, -4
	.loc 1 2404 3
	.loc 1 2406 3
	.loc 1 2406 11 is_stmt 0
	ldrb	r3, [r0, #65]	@ zero_extendqisi2
	uxtb	r3, r3
	.loc 1 2406 6
	cmp	r3, #32
	bne	.L338
	mov	r4, r0
	.loc 1 2408 5 is_stmt 1
	.loc 1 2408 8 is_stmt 0
	cmp	r2, #0
	it	ne
	cmpne	r1, #0
	beq	.L342
	.loc 1 2414 5 is_stmt 1
	.loc 1 2414 9
	.loc 1 2414 18 is_stmt 0
	ldrb	r3, [r0, #64]	@ zero_extendqisi2
	.loc 1 2414 11
	cmp	r3, #1
	beq	.L339
	.loc 1 2414 68 is_stmt 1 discriminator 2
	.loc 1 2414 81 is_stmt 0 discriminator 2
	movs	r3, #1
	strb	r3, [r0, #64]
	.loc 1 2414 7 is_stmt 1 discriminator 2
	.loc 1 2416 5 discriminator 2
	.loc 1 2416 17 is_stmt 0 discriminator 2
	movs	r3, #34
	strb	r3, [r0, #65]
	.loc 1 2417 5 is_stmt 1 discriminator 2
	.loc 1 2417 16 is_stmt 0 discriminator 2
	movs	r3, #32
	strb	r3, [r0, #66]
	.loc 1 2418 5 is_stmt 1 discriminator 2
	.loc 1 2418 21 is_stmt 0 discriminator 2
	movs	r3, #0
	str	r3, [r0, #68]
	.loc 1 2421 5 is_stmt 1 discriminator 2
	.loc 1 2421 20 is_stmt 0 discriminator 2
	str	r1, [r0, #36]
	.loc 1 2422 5 is_stmt 1 discriminator 2
	.loc 1 2422 21 is_stmt 0 discriminator 2
	strh	r2, [r0, #42]	@ movhi
	.loc 1 2423 5 is_stmt 1 discriminator 2
	.loc 1 2423 26 is_stmt 0 discriminator 2
	ldrh	r3, [r0, #42]
	.loc 1 2423 20 discriminator 2
	strh	r3, [r0, #40]	@ movhi
	.loc 1 2424 5 is_stmt 1 discriminator 2
	.loc 1 2424 23 is_stmt 0 discriminator 2
	ldr	r3, .L344
	str	r3, [r0, #44]
	.loc 1 2425 5 is_stmt 1 discriminator 2
	.loc 1 2425 19 is_stmt 0 discriminator 2
	ldr	r3, .L344+4
	str	r3, [r0, #52]
	.loc 1 2427 5 is_stmt 1 discriminator 2
	.loc 1 2427 13 is_stmt 0 discriminator 2
	ldr	r3, [r0, #60]
	.loc 1 2427 8 discriminator 2
	cbz	r3, .L335
	.loc 1 2430 7 is_stmt 1
	.loc 1 2430 38 is_stmt 0
	ldr	r2, .L344+8
.LVL343:
	str	r2, [r3, #60]
	.loc 1 2433 7 is_stmt 1
	.loc 1 2433 11 is_stmt 0
	ldr	r3, [r0, #60]
	.loc 1 2433 39
	ldr	r2, .L344+12
	str	r2, [r3, #76]
	.loc 1 2436 7 is_stmt 1
	.loc 1 2436 11 is_stmt 0
	ldr	r2, [r0, #60]
	.loc 1 2436 42
	movs	r3, #0
	str	r3, [r2, #64]
	.loc 1 2437 7 is_stmt 1
	.loc 1 2437 11 is_stmt 0
	ldr	r2, [r0, #60]
	.loc 1 2437 39
	str	r3, [r2, #80]
	.loc 1 2440 7 is_stmt 1
	.loc 1 2440 69 is_stmt 0
	ldr	r0, [r0]
.LVL344:
	.loc 1 2440 23
	ldrh	r3, [r4, #40]
	mov	r2, r1
	add	r1, r0, #36
.LVL345:
	ldr	r0, [r4, #60]
	bl	HAL_DMA_Start_IT
.LVL346:
	.loc 1 2458 5 is_stmt 1
	.loc 1 2458 8 is_stmt 0
	mov	r5, r0
	cbz	r0, .L343
	.loc 1 2478 7 is_stmt 1
	.loc 1 2478 19 is_stmt 0
	movs	r3, #40
	strb	r3, [r4, #65]
	.loc 1 2479 7 is_stmt 1
	.loc 1 2479 18 is_stmt 0
	movs	r2, #0
	strb	r2, [r4, #66]
	.loc 1 2482 7 is_stmt 1
	.loc 1 2482 11 is_stmt 0
	ldr	r3, [r4, #68]
	.loc 1 2482 23
	orr	r3, r3, #16
	str	r3, [r4, #68]
	.loc 1 2485 7 is_stmt 1
	.loc 1 2485 11
	.loc 1 2485 24 is_stmt 0
	strb	r2, [r4, #64]
	.loc 1 2485 9 is_stmt 1
	.loc 1 2487 7
	.loc 1 2487 14 is_stmt 0
	movs	r5, #1
	b	.L333
.LVL347:
.L342:
	.loc 1 2410 7 is_stmt 1
	.loc 1 2410 23 is_stmt 0
	mov	r3, #512
	str	r3, [r0, #68]
	.loc 1 2411 7 is_stmt 1
	.loc 1 2411 14 is_stmt 0
	movs	r5, #1
	b	.L333
.L335:
	.loc 1 2446 7 is_stmt 1
	.loc 1 2446 19 is_stmt 0
	movs	r3, #40
	strb	r3, [r0, #65]
	.loc 1 2447 7 is_stmt 1
	.loc 1 2447 18 is_stmt 0
	movs	r2, #0
.LVL348:
	strb	r2, [r0, #66]
	.loc 1 2450 7 is_stmt 1
	.loc 1 2450 11 is_stmt 0
	ldr	r3, [r0, #68]
	.loc 1 2450 23
	orr	r3, r3, #128
	str	r3, [r0, #68]
	.loc 1 2453 7 is_stmt 1
	.loc 1 2453 11
	.loc 1 2453 24 is_stmt 0
	strb	r2, [r0, #64]
	.loc 1 2453 9 is_stmt 1
	.loc 1 2455 7
	.loc 1 2455 14 is_stmt 0
	movs	r5, #1
	b	.L333
.LVL349:
.L343:
	.loc 1 2461 7 is_stmt 1
	.loc 1 2461 11 is_stmt 0
	ldr	r2, [r4]
	.loc 1 2461 21
	ldr	r3, [r2, #4]
	.loc 1 2461 27
	bic	r3, r3, #32768
	str	r3, [r2, #4]
	.loc 1 2464 7 is_stmt 1
	.loc 1 2464 11
	.loc 1 2464 24 is_stmt 0
	movs	r3, #0
	strb	r3, [r4, #64]
	.loc 1 2464 9 is_stmt 1
	.loc 1 2470 7
	mov	r1, #32768
	mov	r0, r4
.LVL350:
	bl	I2C_Enable_IRQ
.LVL351:
	.loc 1 2473 7
	.loc 1 2473 11 is_stmt 0
	ldr	r2, [r4]
	.loc 1 2473 21
	ldr	r3, [r2]
	.loc 1 2473 27
	orr	r3, r3, #32768
	str	r3, [r2]
	.loc 1 2490 5 is_stmt 1
	.loc 1 2490 12 is_stmt 0
	b	.L333
.LVL352:
.L338:
	.loc 1 2494 12
	movs	r5, #2
.LVL353:
.L333:
	.loc 1 2496 1
	mov	r0, r5
	pop	{r3, r4, r5, pc}
.LVL354:
.L339:
	.loc 1 2414 49
	movs	r5, #2
	b	.L333
.L345:
	.align	2
.L344:
	.word	-65536
	.word	I2C_Slave_ISR_DMA
	.word	I2C_DMASlaveReceiveCplt
	.word	I2C_DMAError
	.cfi_endproc
.LFE350:
	.size	HAL_I2C_Slave_Receive_DMA, .-HAL_I2C_Slave_Receive_DMA
	.section	.text.HAL_I2C_Mem_Write,"ax",%progbits
	.align	1
	.global	HAL_I2C_Mem_Write
	.syntax unified
	.thumb
	.thumb_func
	.type	HAL_I2C_Mem_Write, %function
HAL_I2C_Mem_Write:
.LFB351:
	.loc 1 2513 1 is_stmt 1
	.cfi_startproc
	@ args = 12, pretend = 0, frame = 0
	@ frame_needed = 0, uses_anonymous_args = 0
.LVL355:
	push	{r4, r5, r6, r7, r8, r9, r10, fp, lr}
	.cfi_def_cfa_offset 36
	.cfi_offset 4, -36
	.cfi_offset 5, -32
	.cfi_offset 6, -28
	.cfi_offset 7, -24
	.cfi_offset 8, -20
	.cfi_offset 9, -16
	.cfi_offset 10, -12
	.cfi_offset 11, -8
	.cfi_offset 14, -4
	sub	sp, sp, #12
	.cfi_def_cfa_offset 48
	mov	r5, r1
	ldrh	r10, [sp, #52]
	ldr	r7, [sp, #56]
	.loc 1 2514 3
	.loc 1 2517 3
	.loc 1 2519 3
	.loc 1 2519 11 is_stmt 0
	ldrb	r1, [r0, #65]	@ zero_extendqisi2
.LVL356:
	uxtb	r1, r1
	.loc 1 2519 6
	cmp	r1, #32
	bne	.L355
	mov	r4, r0
	mov	r8, r2
	mov	r9, r3
	.loc 1 2521 5 is_stmt 1
	.loc 1 2521 8 is_stmt 0
	ldr	r3, [sp, #48]
.LVL357:
	cmp	r10, #0
	it	ne
	cmpne	r3, #0
	beq	.L362
	.loc 1 2528 5 is_stmt 1
	.loc 1 2528 9
	.loc 1 2528 18 is_stmt 0
	ldrb	r3, [r0, #64]	@ zero_extendqisi2
	.loc 1 2528 11
	cmp	r3, #1
	beq	.L356
	.loc 1 2528 68 is_stmt 1 discriminator 2
	.loc 1 2528 81 is_stmt 0 discriminator 2
	mov	fp, #1
	strb	fp, [r0, #64]
	.loc 1 2528 7 is_stmt 1 discriminator 2
	.loc 1 2531 5 discriminator 2
	.loc 1 2531 17 is_stmt 0 discriminator 2
	bl	HAL_GetTick
.LVL358:
	mov	r6, r0
.LVL359:
	.loc 1 2533 5 is_stmt 1 discriminator 2
	.loc 1 2533 9 is_stmt 0 discriminator 2
	str	r0, [sp]
	movs	r3, #25
	mov	r2, fp
	mov	r1, #32768
	mov	r0, r4
.LVL360:
	bl	I2C_WaitOnFlagUntilTimeout
.LVL361:
	.loc 1 2533 8 discriminator 2
	cbz	r0, .L363
	.loc 1 2535 14
	movs	r0, #1
	b	.L347
.LVL362:
.L362:
	.loc 1 2523 7 is_stmt 1
	.loc 1 2523 23 is_stmt 0
	mov	r3, #512
	str	r3, [r0, #68]
	.loc 1 2524 7 is_stmt 1
	.loc 1 2524 14 is_stmt 0
	movs	r0, #1
.LVL363:
	b	.L347
.LVL364:
.L363:
	.loc 1 2538 5 is_stmt 1
	.loc 1 2538 17 is_stmt 0
	movs	r3, #33
	strb	r3, [r4, #65]
	.loc 1 2539 5 is_stmt 1
	.loc 1 2539 16 is_stmt 0
	movs	r3, #64
	strb	r3, [r4, #66]
	.loc 1 2540 5 is_stmt 1
	.loc 1 2540 21 is_stmt 0
	movs	r3, #0
	str	r3, [r4, #68]
	.loc 1 2543 5 is_stmt 1
	.loc 1 2543 20 is_stmt 0
	ldr	r2, [sp, #48]
	str	r2, [r4, #36]
	.loc 1 2544 5 is_stmt 1
	.loc 1 2544 21 is_stmt 0
	strh	r10, [r4, #42]	@ movhi
	.loc 1 2545 5 is_stmt 1
	.loc 1 2545 19 is_stmt 0
	str	r3, [r4, #52]
	.loc 1 2548 5 is_stmt 1
	.loc 1 2548 9 is_stmt 0
	str	r6, [sp, #4]
	str	r7, [sp]
	mov	r3, r9
	mov	r2, r8
	mov	r1, r5
	mov	r0, r4
	bl	I2C_RequestMemoryWrite
.LVL365:
	.loc 1 2548 8
	cbnz	r0, .L364
	.loc 1 2556 5 is_stmt 1
	.loc 1 2556 13 is_stmt 0
	ldrh	r3, [r4, #42]
	uxth	r3, r3
	.loc 1 2556 8
	cmp	r3, #255
	bls	.L350
	.loc 1 2558 7 is_stmt 1
	.loc 1 2558 22 is_stmt 0
	movs	r2, #255
	strh	r2, [r4, #40]	@ movhi
	.loc 1 2559 7 is_stmt 1
	movs	r3, #0
	str	r3, [sp]
	mov	r3, #16777216
	mov	r1, r5
	mov	r0, r4
	bl	I2C_TransferConfig
.LVL366:
	b	.L354
.L364:
	.loc 1 2551 7
	.loc 1 2551 11
	.loc 1 2551 24 is_stmt 0
	movs	r3, #0
	strb	r3, [r4, #64]
	.loc 1 2551 9 is_stmt 1
	.loc 1 2552 7
	.loc 1 2552 14 is_stmt 0
	mov	r0, fp
	b	.L347
.L350:
	.loc 1 2563 7 is_stmt 1
	.loc 1 2563 28 is_stmt 0
	ldrh	r2, [r4, #42]
	uxth	r2, r2
	.loc 1 2563 22
	strh	r2, [r4, #40]	@ movhi
	.loc 1 2564 7 is_stmt 1
	movs	r3, #0
	str	r3, [sp]
	mov	r3, #33554432
	uxtb	r2, r2
	mov	r1, r5
	mov	r0, r4
	bl	I2C_TransferConfig
.LVL367:
	b	.L354
.L353:
	.loc 1 2600 11
	.loc 1 2600 32 is_stmt 0
	ldrh	r2, [r4, #42]
	uxth	r2, r2
	.loc 1 2600 26
	strh	r2, [r4, #40]	@ movhi
	.loc 1 2601 11 is_stmt 1
	movs	r3, #0
	str	r3, [sp]
	mov	r3, #33554432
	uxtb	r2, r2
	mov	r1, r5
	mov	r0, r4
	bl	I2C_TransferConfig
.LVL368:
.L352:
	.loc 1 2606 30
	.loc 1 2606 18 is_stmt 0
	ldrh	r3, [r4, #42]
	uxth	r3, r3
	.loc 1 2606 30
	cmp	r3, #0
	beq	.L365
.L354:
	.loc 1 2567 5 is_stmt 1
	.loc 1 2570 7
	.loc 1 2570 11 is_stmt 0
	mov	r2, r6
	mov	r1, r7
	mov	r0, r4
	bl	I2C_WaitOnTXISFlagUntilTimeout
.LVL369:
	.loc 1 2570 10
	cmp	r0, #0
	bne	.L358
	.loc 1 2576 7 is_stmt 1
	.loc 1 2576 35 is_stmt 0
	ldr	r2, [r4, #36]
	.loc 1 2576 11
	ldr	r3, [r4]
	.loc 1 2576 30
	ldrb	r2, [r2]	@ zero_extendqisi2
	.loc 1 2576 28
	str	r2, [r3, #40]
	.loc 1 2579 7 is_stmt 1
	.loc 1 2579 11 is_stmt 0
	ldr	r3, [r4, #36]
	.loc 1 2579 21
	adds	r3, r3, #1
	str	r3, [r4, #36]
	.loc 1 2581 7 is_stmt 1
	.loc 1 2581 11 is_stmt 0
	ldrh	r3, [r4, #42]
	uxth	r3, r3
	.loc 1 2581 22
	subs	r3, r3, #1
	uxth	r3, r3
	strh	r3, [r4, #42]	@ movhi
	.loc 1 2582 7 is_stmt 1
	.loc 1 2582 11 is_stmt 0
	ldrh	r3, [r4, #40]
	.loc 1 2582 21
	subs	r3, r3, #1
	uxth	r3, r3
	strh	r3, [r4, #40]	@ movhi
	.loc 1 2584 7 is_stmt 1
	.loc 1 2584 16 is_stmt 0
	ldrh	r2, [r4, #42]
	uxth	r2, r2
	.loc 1 2584 10
	cmp	r2, #0
	beq	.L352
	.loc 1 2584 35 discriminator 1
	cmp	r3, #0
	bne	.L352
	.loc 1 2587 9 is_stmt 1
	.loc 1 2587 13 is_stmt 0
	str	r6, [sp]
	mov	r3, r7
	movs	r2, #0
	movs	r1, #128
	mov	r0, r4
	bl	I2C_WaitOnFlagUntilTimeout
.LVL370:
	.loc 1 2587 12
	cbnz	r0, .L359
	.loc 1 2592 9 is_stmt 1
	.loc 1 2592 17 is_stmt 0
	ldrh	r3, [r4, #42]
	uxth	r3, r3
	.loc 1 2592 12
	cmp	r3, #255
	bls	.L353
	.loc 1 2594 11 is_stmt 1
	.loc 1 2594 26 is_stmt 0
	movs	r2, #255
	strh	r2, [r4, #40]	@ movhi
	.loc 1 2595 11 is_stmt 1
	movs	r3, #0
	str	r3, [sp]
	mov	r3, #16777216
	mov	r1, r5
	mov	r0, r4
	bl	I2C_TransferConfig
.LVL371:
	b	.L352
.L365:
	.loc 1 2610 5
	.loc 1 2610 9 is_stmt 0
	mov	r2, r6
	mov	r1, r7
	mov	r0, r4
	bl	I2C_WaitOnSTOPFlagUntilTimeout
.LVL372:
	.loc 1 2610 8
	cbnz	r0, .L360
	.loc 1 2616 5 is_stmt 1
	.loc 1 2616 101 is_stmt 0
	ldr	r3, [r4]
	.loc 1 2616 92
	movs	r2, #32
	str	r2, [r3, #28]
	.loc 1 2619 5 is_stmt 1
	.loc 1 2619 12 is_stmt 0
	ldr	r1, [r4]
	.loc 1 2619 22
	ldr	r3, [r1, #4]
	.loc 1 2619 28
	bic	r3, r3, #33423360
	bic	r3, r3, #71168
	bic	r3, r3, #510
	bic	r3, r3, #1
	str	r3, [r1, #4]
	.loc 1 2621 5 is_stmt 1
	.loc 1 2621 17 is_stmt 0
	strb	r2, [r4, #65]
	.loc 1 2622 5 is_stmt 1
	.loc 1 2622 16 is_stmt 0
	movs	r3, #0
	strb	r3, [r4, #66]
	.loc 1 2625 5 is_stmt 1
	.loc 1 2625 9
	.loc 1 2625 22 is_stmt 0
	strb	r3, [r4, #64]
	.loc 1 2625 7 is_stmt 1
	.loc 1 2627 5
	.loc 1 2627 12 is_stmt 0
	b	.L347
.LVL373:
.L355:
	.loc 1 2631 12
	movs	r0, #2
.LVL374:
.L347:
	.loc 1 2633 1
	add	sp, sp, #12
	.cfi_remember_state
	.cfi_def_cfa_offset 36
	@ sp needed
	pop	{r4, r5, r6, r7, r8, r9, r10, fp, pc}
.LVL375:
.L356:
	.cfi_restore_state
	.loc 1 2528 49
	movs	r0, #2
.LVL376:
	b	.L347
.LVL377:
.L358:
	.loc 1 2572 16
	movs	r0, #1
	b	.L347
.L359:
	.loc 1 2589 18
	movs	r0, #1
	b	.L347
.L360:
	.loc 1 2612 14
	movs	r0, #1
	b	.L347
	.cfi_endproc
.LFE351:
	.size	HAL_I2C_Mem_Write, .-HAL_I2C_Mem_Write
	.section	.text.HAL_I2C_Mem_Read,"ax",%progbits
	.align	1
	.global	HAL_I2C_Mem_Read
	.syntax unified
	.thumb
	.thumb_func
	.type	HAL_I2C_Mem_Read, %function
HAL_I2C_Mem_Read:
.LFB352:
	.loc 1 2650 1 is_stmt 1
	.cfi_startproc
	@ args = 12, pretend = 0, frame = 0
	@ frame_needed = 0, uses_anonymous_args = 0
.LVL378:
	push	{r4, r5, r6, r7, r8, r9, r10, fp, lr}
	.cfi_def_cfa_offset 36
	.cfi_offset 4, -36
	.cfi_offset 5, -32
	.cfi_offset 6, -28
	.cfi_offset 7, -24
	.cfi_offset 8, -20
	.cfi_offset 9, -16
	.cfi_offset 10, -12
	.cfi_offset 11, -8
	.cfi_offset 14, -4
	sub	sp, sp, #12
	.cfi_def_cfa_offset 48
	mov	r5, r1
	ldrh	r10, [sp, #52]
	ldr	r7, [sp, #56]
	.loc 1 2651 3
	.loc 1 2654 3
	.loc 1 2656 3
	.loc 1 2656 11 is_stmt 0
	ldrb	r1, [r0, #65]	@ zero_extendqisi2
.LVL379:
	uxtb	r1, r1
	.loc 1 2656 6
	cmp	r1, #32
	bne	.L375
	mov	r4, r0
	mov	r8, r2
	mov	r9, r3
	.loc 1 2658 5 is_stmt 1
	.loc 1 2658 8 is_stmt 0
	ldr	r3, [sp, #48]
.LVL380:
	cmp	r10, #0
	it	ne
	cmpne	r3, #0
	beq	.L382
	.loc 1 2665 5 is_stmt 1
	.loc 1 2665 9
	.loc 1 2665 18 is_stmt 0
	ldrb	r3, [r0, #64]	@ zero_extendqisi2
	.loc 1 2665 11
	cmp	r3, #1
	beq	.L376
	.loc 1 2665 68 is_stmt 1 discriminator 2
	.loc 1 2665 81 is_stmt 0 discriminator 2
	mov	fp, #1
	strb	fp, [r0, #64]
	.loc 1 2665 7 is_stmt 1 discriminator 2
	.loc 1 2668 5 discriminator 2
	.loc 1 2668 17 is_stmt 0 discriminator 2
	bl	HAL_GetTick
.LVL381:
	mov	r6, r0
.LVL382:
	.loc 1 2670 5 is_stmt 1 discriminator 2
	.loc 1 2670 9 is_stmt 0 discriminator 2
	str	r0, [sp]
	movs	r3, #25
	mov	r2, fp
	mov	r1, #32768
	mov	r0, r4
.LVL383:
	bl	I2C_WaitOnFlagUntilTimeout
.LVL384:
	.loc 1 2670 8 discriminator 2
	cbz	r0, .L383
	.loc 1 2672 14
	movs	r0, #1
	b	.L367
.LVL385:
.L382:
	.loc 1 2660 7 is_stmt 1
	.loc 1 2660 23 is_stmt 0
	mov	r3, #512
	str	r3, [r0, #68]
	.loc 1 2661 7 is_stmt 1
	.loc 1 2661 14 is_stmt 0
	movs	r0, #1
.LVL386:
	b	.L367
.LVL387:
.L383:
	.loc 1 2675 5 is_stmt 1
	.loc 1 2675 17 is_stmt 0
	movs	r3, #34
	strb	r3, [r4, #65]
	.loc 1 2676 5 is_stmt 1
	.loc 1 2676 16 is_stmt 0
	movs	r3, #64
	strb	r3, [r4, #66]
	.loc 1 2677 5 is_stmt 1
	.loc 1 2677 21 is_stmt 0
	movs	r3, #0
	str	r3, [r4, #68]
	.loc 1 2680 5 is_stmt 1
	.loc 1 2680 20 is_stmt 0
	ldr	r2, [sp, #48]
	str	r2, [r4, #36]
	.loc 1 2681 5 is_stmt 1
	.loc 1 2681 21 is_stmt 0
	strh	r10, [r4, #42]	@ movhi
	.loc 1 2682 5 is_stmt 1
	.loc 1 2682 19 is_stmt 0
	str	r3, [r4, #52]
	.loc 1 2685 5 is_stmt 1
	.loc 1 2685 9 is_stmt 0
	str	r6, [sp, #4]
	str	r7, [sp]
	mov	r3, r9
	mov	r2, r8
	mov	r1, r5
	mov	r0, r4
	bl	I2C_RequestMemoryRead
.LVL388:
	.loc 1 2685 8
	cbnz	r0, .L384
	.loc 1 2694 5 is_stmt 1
	.loc 1 2694 13 is_stmt 0
	ldrh	r3, [r4, #42]
	uxth	r3, r3
	.loc 1 2694 8
	cmp	r3, #255
	bls	.L370
	.loc 1 2696 7 is_stmt 1
	.loc 1 2696 22 is_stmt 0
	movs	r2, #255
	strh	r2, [r4, #40]	@ movhi
	.loc 1 2697 7 is_stmt 1
	ldr	r3, .L386
	str	r3, [sp]
	mov	r3, #16777216
	mov	r1, r5
	mov	r0, r4
	bl	I2C_TransferConfig
.LVL389:
	b	.L374
.L384:
	.loc 1 2688 7
	.loc 1 2688 11
	.loc 1 2688 24 is_stmt 0
	movs	r3, #0
	strb	r3, [r4, #64]
	.loc 1 2688 9 is_stmt 1
	.loc 1 2689 7
	.loc 1 2689 14 is_stmt 0
	mov	r0, fp
	b	.L367
.L370:
	.loc 1 2702 7 is_stmt 1
	.loc 1 2702 28 is_stmt 0
	ldrh	r2, [r4, #42]
	uxth	r2, r2
	.loc 1 2702 22
	strh	r2, [r4, #40]	@ movhi
	.loc 1 2703 7 is_stmt 1
	ldr	r3, .L386
	str	r3, [sp]
	mov	r3, #33554432
	uxtb	r2, r2
	mov	r1, r5
	mov	r0, r4
	bl	I2C_TransferConfig
.LVL390:
	b	.L374
.L373:
	.loc 1 2740 11
	.loc 1 2740 32 is_stmt 0
	ldrh	r2, [r4, #42]
	uxth	r2, r2
	.loc 1 2740 26
	strh	r2, [r4, #40]	@ movhi
	.loc 1 2741 11 is_stmt 1
	movs	r3, #0
	str	r3, [sp]
	mov	r3, #33554432
	uxtb	r2, r2
	mov	r1, r5
	mov	r0, r4
	bl	I2C_TransferConfig
.LVL391:
.L372:
	.loc 1 2745 30
	.loc 1 2745 18 is_stmt 0
	ldrh	r3, [r4, #42]
	uxth	r3, r3
	.loc 1 2745 30
	cmp	r3, #0
	beq	.L385
.L374:
	.loc 1 2707 5 is_stmt 1
	.loc 1 2710 7
	.loc 1 2710 11 is_stmt 0
	str	r6, [sp]
	mov	r3, r7
	movs	r2, #0
	movs	r1, #4
	mov	r0, r4
	bl	I2C_WaitOnFlagUntilTimeout
.LVL392:
	.loc 1 2710 10
	cmp	r0, #0
	bne	.L378
	.loc 1 2716 7 is_stmt 1
	.loc 1 2716 38 is_stmt 0
	ldr	r3, [r4]
	.loc 1 2716 48
	ldr	r2, [r3, #36]
	.loc 1 2716 12
	ldr	r3, [r4, #36]
	.loc 1 2716 23
	strb	r2, [r3]
	.loc 1 2719 7 is_stmt 1
	.loc 1 2719 11 is_stmt 0
	ldr	r3, [r4, #36]
	.loc 1 2719 21
	adds	r3, r3, #1
	str	r3, [r4, #36]
	.loc 1 2721 7 is_stmt 1
	.loc 1 2721 11 is_stmt 0
	ldrh	r2, [r4, #40]
	.loc 1 2721 21
	subs	r2, r2, #1
	uxth	r2, r2
	strh	r2, [r4, #40]	@ movhi
	.loc 1 2722 7 is_stmt 1
	.loc 1 2722 11 is_stmt 0
	ldrh	r3, [r4, #42]
	uxth	r3, r3
	.loc 1 2722 22
	subs	r3, r3, #1
	uxth	r3, r3
	strh	r3, [r4, #42]	@ movhi
	.loc 1 2724 7 is_stmt 1
	.loc 1 2724 16 is_stmt 0
	ldrh	r3, [r4, #42]
	uxth	r3, r3
	.loc 1 2724 10
	cmp	r3, #0
	beq	.L372
	.loc 1 2724 35 discriminator 1
	cmp	r2, #0
	bne	.L372
	.loc 1 2727 9 is_stmt 1
	.loc 1 2727 13 is_stmt 0
	str	r6, [sp]
	mov	r3, r7
	movs	r1, #128
	mov	r0, r4
	bl	I2C_WaitOnFlagUntilTimeout
.LVL393:
	.loc 1 2727 12
	cbnz	r0, .L379
	.loc 1 2732 9 is_stmt 1
	.loc 1 2732 17 is_stmt 0
	ldrh	r3, [r4, #42]
	uxth	r3, r3
	.loc 1 2732 12
	cmp	r3, #255
	bls	.L373
	.loc 1 2734 11 is_stmt 1
	.loc 1 2734 26 is_stmt 0
	movs	r2, #255
	strh	r2, [r4, #40]	@ movhi
	.loc 1 2735 11 is_stmt 1
	movs	r3, #0
	str	r3, [sp]
	mov	r3, #16777216
	mov	r1, r5
	mov	r0, r4
	bl	I2C_TransferConfig
.LVL394:
	b	.L372
.L385:
	.loc 1 2749 5
	.loc 1 2749 9 is_stmt 0
	mov	r2, r6
	mov	r1, r7
	mov	r0, r4
	bl	I2C_WaitOnSTOPFlagUntilTimeout
.LVL395:
	.loc 1 2749 8
	cbnz	r0, .L380
	.loc 1 2755 5 is_stmt 1
	.loc 1 2755 101 is_stmt 0
	ldr	r3, [r4]
	.loc 1 2755 92
	movs	r2, #32
	str	r2, [r3, #28]
	.loc 1 2758 5 is_stmt 1
	.loc 1 2758 12 is_stmt 0
	ldr	r1, [r4]
	.loc 1 2758 22
	ldr	r3, [r1, #4]
	.loc 1 2758 28
	bic	r3, r3, #33423360
	bic	r3, r3, #71168
	bic	r3, r3, #510
	bic	r3, r3, #1
	str	r3, [r1, #4]
	.loc 1 2760 5 is_stmt 1
	.loc 1 2760 17 is_stmt 0
	strb	r2, [r4, #65]
	.loc 1 2761 5 is_stmt 1
	.loc 1 2761 16 is_stmt 0
	movs	r3, #0
	strb	r3, [r4, #66]
	.loc 1 2764 5 is_stmt 1
	.loc 1 2764 9
	.loc 1 2764 22 is_stmt 0
	strb	r3, [r4, #64]
	.loc 1 2764 7 is_stmt 1
	.loc 1 2766 5
	.loc 1 2766 12 is_stmt 0
	b	.L367
.LVL396:
.L375:
	.loc 1 2770 12
	movs	r0, #2
.LVL397:
.L367:
	.loc 1 2772 1
	add	sp, sp, #12
	.cfi_remember_state
	.cfi_def_cfa_offset 36
	@ sp needed
	pop	{r4, r5, r6, r7, r8, r9, r10, fp, pc}
.LVL398:
.L376:
	.cfi_restore_state
	.loc 1 2665 49
	movs	r0, #2
.LVL399:
	b	.L367
.LVL400:
.L378:
	.loc 1 2712 16
	movs	r0, #1
	b	.L367
.L379:
	.loc 1 2729 18
	movs	r0, #1
	b	.L367
.L380:
	.loc 1 2751 14
	movs	r0, #1
	b	.L367
.L387:
	.align	2
.L386:
	.word	-2147474432
	.cfi_endproc
.LFE352:
	.size	HAL_I2C_Mem_Read, .-HAL_I2C_Mem_Read
	.section	.text.HAL_I2C_Mem_Write_IT,"ax",%progbits
	.align	1
	.global	HAL_I2C_Mem_Write_IT
	.syntax unified
	.thumb
	.thumb_func
	.type	HAL_I2C_Mem_Write_IT, %function
HAL_I2C_Mem_Write_IT:
.LFB353:
	.loc 1 2787 1 is_stmt 1
	.cfi_startproc
	@ args = 8, pretend = 0, frame = 0
	@ frame_needed = 0, uses_anonymous_args = 0
.LVL401:
	push	{r4, r5, r6, lr}
	.cfi_def_cfa_offset 16
	.cfi_offset 4, -16
	.cfi_offset 5, -12
	.cfi_offset 6, -8
	.cfi_offset 14, -4
	sub	sp, sp, #8
	.cfi_def_cfa_offset 24
	mov	r4, r0
	mov	r5, r3
	ldrh	r3, [sp, #28]
.LVL402:
	.loc 1 2789 3
	.loc 1 2791 3
	.loc 1 2791 11 is_stmt 0
	ldrb	r0, [r0, #65]	@ zero_extendqisi2
.LVL403:
	uxtb	r0, r0
	.loc 1 2791 6
	cmp	r0, #32
	bne	.L393
	.loc 1 2793 5 is_stmt 1
	.loc 1 2793 8 is_stmt 0
	ldr	r0, [sp, #24]
	cmp	r3, #0
	it	ne
	cmpne	r0, #0
	beq	.L397
	.loc 1 2799 5 is_stmt 1
	.loc 1 2799 19 is_stmt 0
	ldr	r0, [r4]
	.loc 1 2799 29
	ldr	r6, [r0, #24]
	.loc 1 2799 8
	tst	r6, #32768
	bne	.L394
	.loc 1 2805 5 is_stmt 1
	.loc 1 2805 9
	.loc 1 2805 18 is_stmt 0
	ldrb	r6, [r4, #64]	@ zero_extendqisi2
	.loc 1 2805 11
	cmp	r6, #1
	beq	.L395
	.loc 1 2805 68 is_stmt 1 discriminator 2
	.loc 1 2805 81 is_stmt 0 discriminator 2
	movs	r6, #1
	strb	r6, [r4, #64]
	.loc 1 2805 7 is_stmt 1 discriminator 2
	.loc 1 2807 5 discriminator 2
	.loc 1 2807 17 is_stmt 0 discriminator 2
	movs	r6, #33
	strb	r6, [r4, #65]
	.loc 1 2808 5 is_stmt 1 discriminator 2
	.loc 1 2808 16 is_stmt 0 discriminator 2
	movs	r6, #64
	strb	r6, [r4, #66]
	.loc 1 2809 5 is_stmt 1 discriminator 2
	.loc 1 2809 21 is_stmt 0 discriminator 2
	movs	r6, #0
	str	r6, [r4, #68]
	.loc 1 2812 5 is_stmt 1 discriminator 2
	.loc 1 2812 20 is_stmt 0 discriminator 2
	strh	r6, [r4, #40]	@ movhi
	.loc 1 2813 5 is_stmt 1 discriminator 2
	.loc 1 2813 20 is_stmt 0 discriminator 2
	ldr	r6, [sp, #24]
	str	r6, [r4, #36]
	.loc 1 2814 5 is_stmt 1 discriminator 2
	.loc 1 2814 21 is_stmt 0 discriminator 2
	strh	r3, [r4, #42]	@ movhi
	.loc 1 2815 5 is_stmt 1 discriminator 2
	.loc 1 2815 23 is_stmt 0 discriminator 2
	ldr	r3, .L399
	str	r3, [r4, #44]
	.loc 1 2816 5 is_stmt 1 discriminator 2
	.loc 1 2816 19 is_stmt 0 discriminator 2
	ldr	r3, .L399+4
	str	r3, [r4, #52]
	.loc 1 2817 5 is_stmt 1 discriminator 2
	.loc 1 2817 22 is_stmt 0 discriminator 2
	str	r1, [r4, #76]
	.loc 1 2820 5 is_stmt 1 discriminator 2
	.loc 1 2820 8 is_stmt 0 discriminator 2
	cmp	r5, #1
	beq	.L398
	.loc 1 2832 7 is_stmt 1
	.loc 1 2832 31 is_stmt 0
	lsrs	r3, r2, #8
	.loc 1 2832 28
	str	r3, [r0, #40]
	.loc 1 2835 7 is_stmt 1
	.loc 1 2835 27 is_stmt 0
	uxtb	r2, r2
.LVL404:
	.loc 1 2835 24
	str	r2, [r4, #80]
.L392:
	.loc 1 2838 5 is_stmt 1
	ldr	r3, .L399+8
	str	r3, [sp]
	mov	r3, #16777216
	uxtb	r2, r5
	mov	r0, r4
	bl	I2C_TransferConfig
.LVL405:
	.loc 1 2841 5
	.loc 1 2841 9
	.loc 1 2841 22 is_stmt 0
	movs	r5, #0
	strb	r5, [r4, #64]
	.loc 1 2841 7 is_stmt 1
	.loc 1 2851 5
	movs	r1, #1
	mov	r0, r4
	bl	I2C_Enable_IRQ
.LVL406:
	.loc 1 2853 5
	.loc 1 2853 12 is_stmt 0
	mov	r0, r5
	b	.L389
.LVL407:
.L397:
	.loc 1 2795 7 is_stmt 1
	.loc 1 2795 23 is_stmt 0
	mov	r3, #512
	str	r3, [r4, #68]
	.loc 1 2796 7 is_stmt 1
	.loc 1 2796 14 is_stmt 0
	movs	r0, #1
	b	.L389
.L398:
	.loc 1 2823 7 is_stmt 1
	.loc 1 2823 31 is_stmt 0
	uxtb	r2, r2
.LVL408:
	.loc 1 2823 28
	str	r2, [r0, #40]
	.loc 1 2826 7 is_stmt 1
	.loc 1 2826 24 is_stmt 0
	mov	r3, #-1
	str	r3, [r4, #80]
	b	.L392
.LVL409:
.L393:
	.loc 1 2857 12
	movs	r0, #2
.LVL410:
.L389:
	.loc 1 2859 1
	add	sp, sp, #8
	.cfi_remember_state
	.cfi_def_cfa_offset 16
	@ sp needed
	pop	{r4, r5, r6, pc}
.LVL411:
.L394:
	.cfi_restore_state
	.loc 1 2801 14
	movs	r0, #2
	b	.L389
.L395:
	.loc 1 2805 49
	movs	r0, #2
	b	.L389
.L400:
	.align	2
.L399:
	.word	-65536
	.word	I2C_Mem_ISR_IT
	.word	-2147475456
	.cfi_endproc
.LFE353:
	.size	HAL_I2C_Mem_Write_IT, .-HAL_I2C_Mem_Write_IT
	.section	.text.HAL_I2C_Mem_Read_IT,"ax",%progbits
	.align	1
	.global	HAL_I2C_Mem_Read_IT
	.syntax unified
	.thumb
	.thumb_func
	.type	HAL_I2C_Mem_Read_IT, %function
HAL_I2C_Mem_Read_IT:
.LFB354:
	.loc 1 2875 1 is_stmt 1
	.cfi_startproc
	@ args = 8, pretend = 0, frame = 0
	@ frame_needed = 0, uses_anonymous_args = 0
.LVL412:
	push	{r4, r5, r6, lr}
	.cfi_def_cfa_offset 16
	.cfi_offset 4, -16
	.cfi_offset 5, -12
	.cfi_offset 6, -8
	.cfi_offset 14, -4
	sub	sp, sp, #8
	.cfi_def_cfa_offset 24
	mov	r4, r0
	mov	r5, r3
	ldrh	r3, [sp, #28]
.LVL413:
	.loc 1 2877 3
	.loc 1 2879 3
	.loc 1 2879 11 is_stmt 0
	ldrb	r0, [r0, #65]	@ zero_extendqisi2
.LVL414:
	uxtb	r0, r0
	.loc 1 2879 6
	cmp	r0, #32
	bne	.L406
	.loc 1 2881 5 is_stmt 1
	.loc 1 2881 8 is_stmt 0
	ldr	r0, [sp, #24]
	cmp	r3, #0
	it	ne
	cmpne	r0, #0
	beq	.L410
	.loc 1 2887 5 is_stmt 1
	.loc 1 2887 19 is_stmt 0
	ldr	r0, [r4]
	.loc 1 2887 29
	ldr	r6, [r0, #24]
	.loc 1 2887 8
	tst	r6, #32768
	bne	.L407
	.loc 1 2893 5 is_stmt 1
	.loc 1 2893 9
	.loc 1 2893 18 is_stmt 0
	ldrb	r6, [r4, #64]	@ zero_extendqisi2
	.loc 1 2893 11
	cmp	r6, #1
	beq	.L408
	.loc 1 2893 68 is_stmt 1 discriminator 2
	.loc 1 2893 81 is_stmt 0 discriminator 2
	movs	r6, #1
	strb	r6, [r4, #64]
	.loc 1 2893 7 is_stmt 1 discriminator 2
	.loc 1 2895 5 discriminator 2
	.loc 1 2895 17 is_stmt 0 discriminator 2
	movs	r6, #34
	strb	r6, [r4, #65]
	.loc 1 2896 5 is_stmt 1 discriminator 2
	.loc 1 2896 16 is_stmt 0 discriminator 2
	movs	r6, #64
	strb	r6, [r4, #66]
	.loc 1 2897 5 is_stmt 1 discriminator 2
	.loc 1 2897 21 is_stmt 0 discriminator 2
	movs	r6, #0
	str	r6, [r4, #68]
	.loc 1 2900 5 is_stmt 1 discriminator 2
	.loc 1 2900 20 is_stmt 0 discriminator 2
	ldr	r6, [sp, #24]
	str	r6, [r4, #36]
	.loc 1 2901 5 is_stmt 1 discriminator 2
	.loc 1 2901 21 is_stmt 0 discriminator 2
	strh	r3, [r4, #42]	@ movhi
	.loc 1 2902 5 is_stmt 1 discriminator 2
	.loc 1 2902 23 is_stmt 0 discriminator 2
	ldr	r3, .L412
	str	r3, [r4, #44]
	.loc 1 2903 5 is_stmt 1 discriminator 2
	.loc 1 2903 19 is_stmt 0 discriminator 2
	ldr	r3, .L412+4
	str	r3, [r4, #52]
	.loc 1 2904 5 is_stmt 1 discriminator 2
	.loc 1 2904 22 is_stmt 0 discriminator 2
	str	r1, [r4, #76]
	.loc 1 2907 5 is_stmt 1 discriminator 2
	.loc 1 2907 8 is_stmt 0 discriminator 2
	cmp	r5, #1
	beq	.L411
	.loc 1 2919 7 is_stmt 1
	.loc 1 2919 31 is_stmt 0
	lsrs	r3, r2, #8
	.loc 1 2919 28
	str	r3, [r0, #40]
	.loc 1 2922 7 is_stmt 1
	.loc 1 2922 27 is_stmt 0
	uxtb	r2, r2
.LVL415:
	.loc 1 2922 24
	str	r2, [r4, #80]
.L405:
	.loc 1 2925 5 is_stmt 1
	ldr	r3, .L412+8
	str	r3, [sp]
	movs	r3, #0
	uxtb	r2, r5
	mov	r0, r4
	bl	I2C_TransferConfig
.LVL416:
	.loc 1 2928 5
	.loc 1 2928 9
	.loc 1 2928 22 is_stmt 0
	movs	r5, #0
	strb	r5, [r4, #64]
	.loc 1 2928 7 is_stmt 1
	.loc 1 2938 5
	movs	r1, #1
	mov	r0, r4
	bl	I2C_Enable_IRQ
.LVL417:
	.loc 1 2940 5
	.loc 1 2940 12 is_stmt 0
	mov	r0, r5
	b	.L402
.LVL418:
.L410:
	.loc 1 2883 7 is_stmt 1
	.loc 1 2883 23 is_stmt 0
	mov	r3, #512
	str	r3, [r4, #68]
	.loc 1 2884 7 is_stmt 1
	.loc 1 2884 14 is_stmt 0
	movs	r0, #1
	b	.L402
.L411:
	.loc 1 2910 7 is_stmt 1
	.loc 1 2910 31 is_stmt 0
	uxtb	r2, r2
.LVL419:
	.loc 1 2910 28
	str	r2, [r0, #40]
	.loc 1 2913 7 is_stmt 1
	.loc 1 2913 24 is_stmt 0
	mov	r3, #-1
	str	r3, [r4, #80]
	b	.L405
.LVL420:
.L406:
	.loc 1 2944 12
	movs	r0, #2
.LVL421:
.L402:
	.loc 1 2946 1
	add	sp, sp, #8
	.cfi_remember_state
	.cfi_def_cfa_offset 16
	@ sp needed
	pop	{r4, r5, r6, pc}
.LVL422:
.L407:
	.cfi_restore_state
	.loc 1 2889 14
	movs	r0, #2
	b	.L402
.L408:
	.loc 1 2893 49
	movs	r0, #2
	b	.L402
.L413:
	.align	2
.L412:
	.word	-65536
	.word	I2C_Mem_ISR_IT
	.word	-2147475456
	.cfi_endproc
.LFE354:
	.size	HAL_I2C_Mem_Read_IT, .-HAL_I2C_Mem_Read_IT
	.section	.text.HAL_I2C_Mem_Write_DMA,"ax",%progbits
	.align	1
	.global	HAL_I2C_Mem_Write_DMA
	.syntax unified
	.thumb
	.thumb_func
	.type	HAL_I2C_Mem_Write_DMA, %function
HAL_I2C_Mem_Write_DMA:
.LFB355:
	.loc 1 2962 1 is_stmt 1
	.cfi_startproc
	@ args = 8, pretend = 0, frame = 0
	@ frame_needed = 0, uses_anonymous_args = 0
.LVL423:
	push	{r4, r5, r6, r7, lr}
	.cfi_def_cfa_offset 20
	.cfi_offset 4, -20
	.cfi_offset 5, -16
	.cfi_offset 6, -12
	.cfi_offset 7, -8
	.cfi_offset 14, -4
	sub	sp, sp, #12
	.cfi_def_cfa_offset 32
	mov	r4, r0
	mov	r6, r1
	mov	r7, r3
	ldr	r1, [sp, #32]
.LVL424:
	ldrh	r3, [sp, #36]
.LVL425:
	.loc 1 2963 3
	.loc 1 2966 3
	.loc 1 2968 3
	.loc 1 2968 11 is_stmt 0
	ldrb	r0, [r0, #65]	@ zero_extendqisi2
.LVL426:
	uxtb	r0, r0
	.loc 1 2968 6
	cmp	r0, #32
	bne	.L424
	.loc 1 2970 5 is_stmt 1
	.loc 1 2970 8 is_stmt 0
	cmp	r3, #0
	it	ne
	cmpne	r1, #0
	beq	.L429
	.loc 1 2976 5 is_stmt 1
	.loc 1 2976 19 is_stmt 0
	ldr	r0, [r4]
	.loc 1 2976 29
	ldr	r5, [r0, #24]
	.loc 1 2976 8
	tst	r5, #32768
	bne	.L425
	.loc 1 2982 5 is_stmt 1
	.loc 1 2982 9
	.loc 1 2982 18 is_stmt 0
	ldrb	r5, [r4, #64]	@ zero_extendqisi2
	.loc 1 2982 11
	cmp	r5, #1
	beq	.L426
	.loc 1 2982 68 is_stmt 1 discriminator 2
	.loc 1 2982 81 is_stmt 0 discriminator 2
	movs	r5, #1
	strb	r5, [r4, #64]
	.loc 1 2982 7 is_stmt 1 discriminator 2
	.loc 1 2984 5 discriminator 2
	.loc 1 2984 17 is_stmt 0 discriminator 2
	movs	r5, #33
	strb	r5, [r4, #65]
	.loc 1 2985 5 is_stmt 1 discriminator 2
	.loc 1 2985 16 is_stmt 0 discriminator 2
	movs	r5, #64
	strb	r5, [r4, #66]
	.loc 1 2986 5 is_stmt 1 discriminator 2
	.loc 1 2986 21 is_stmt 0 discriminator 2
	movs	r5, #0
	str	r5, [r4, #68]
	.loc 1 2989 5 is_stmt 1 discriminator 2
	.loc 1 2989 20 is_stmt 0 discriminator 2
	str	r1, [r4, #36]
	.loc 1 2990 5 is_stmt 1 discriminator 2
	.loc 1 2990 21 is_stmt 0 discriminator 2
	strh	r3, [r4, #42]	@ movhi
	.loc 1 2991 5 is_stmt 1 discriminator 2
	.loc 1 2991 23 is_stmt 0 discriminator 2
	ldr	r3, .L432
	str	r3, [r4, #44]
	.loc 1 2992 5 is_stmt 1 discriminator 2
	.loc 1 2992 19 is_stmt 0 discriminator 2
	ldr	r3, .L432+4
	str	r3, [r4, #52]
	.loc 1 2993 5 is_stmt 1 discriminator 2
	.loc 1 2993 22 is_stmt 0 discriminator 2
	str	r6, [r4, #76]
	.loc 1 2995 5 is_stmt 1 discriminator 2
	.loc 1 2995 13 is_stmt 0 discriminator 2
	ldrh	r3, [r4, #42]
	uxth	r3, r3
	.loc 1 2995 8 discriminator 2
	cmp	r3, #255
	bls	.L417
	.loc 1 2997 7 is_stmt 1
	.loc 1 2997 22 is_stmt 0
	movs	r3, #255
	strh	r3, [r4, #40]	@ movhi
.L418:
	.loc 1 3005 5 is_stmt 1
	.loc 1 3005 8 is_stmt 0
	cmp	r7, #1
	beq	.L430
	.loc 1 3017 7 is_stmt 1
	.loc 1 3017 31 is_stmt 0
	lsrs	r3, r2, #8
	.loc 1 3017 28
	str	r3, [r0, #40]
	.loc 1 3020 7 is_stmt 1
	.loc 1 3020 27 is_stmt 0
	uxtb	r2, r2
.LVL427:
	.loc 1 3020 24
	str	r2, [r4, #80]
.L420:
	.loc 1 3023 5 is_stmt 1
	.loc 1 3023 13 is_stmt 0
	ldr	r3, [r4, #56]
	.loc 1 3023 8
	cmp	r3, #0
	beq	.L421
	.loc 1 3026 7 is_stmt 1
	.loc 1 3026 38 is_stmt 0
	ldr	r2, .L432+8
	str	r2, [r3, #60]
	.loc 1 3029 7 is_stmt 1
	.loc 1 3029 11 is_stmt 0
	ldr	r3, [r4, #56]
	.loc 1 3029 39
	ldr	r2, .L432+12
	str	r2, [r3, #76]
	.loc 1 3032 7 is_stmt 1
	.loc 1 3032 11 is_stmt 0
	ldr	r2, [r4, #56]
	.loc 1 3032 42
	movs	r3, #0
	str	r3, [r2, #64]
	.loc 1 3033 7 is_stmt 1
	.loc 1 3033 11 is_stmt 0
	ldr	r2, [r4, #56]
	.loc 1 3033 39
	str	r3, [r2, #80]
	.loc 1 3036 7 is_stmt 1
	.loc 1 3036 86 is_stmt 0
	ldr	r2, [r4]
	.loc 1 3036 23
	ldrh	r3, [r4, #40]
	adds	r2, r2, #40
	ldr	r0, [r4, #56]
	bl	HAL_DMA_Start_IT
.LVL428:
	.loc 1 3054 5 is_stmt 1
	.loc 1 3054 8 is_stmt 0
	mov	r5, r0
	cbz	r0, .L431
	.loc 1 3074 7 is_stmt 1
	.loc 1 3074 19 is_stmt 0
	movs	r3, #32
	strb	r3, [r4, #65]
	.loc 1 3075 7 is_stmt 1
	.loc 1 3075 18 is_stmt 0
	movs	r2, #0
	strb	r2, [r4, #66]
	.loc 1 3078 7 is_stmt 1
	.loc 1 3078 11 is_stmt 0
	ldr	r3, [r4, #68]
	.loc 1 3078 23
	orr	r3, r3, #16
	str	r3, [r4, #68]
	.loc 1 3081 7 is_stmt 1
	.loc 1 3081 11
	.loc 1 3081 24 is_stmt 0
	strb	r2, [r4, #64]
	.loc 1 3081 9 is_stmt 1
	.loc 1 3083 7
	.loc 1 3083 14 is_stmt 0
	movs	r5, #1
	b	.L415
.LVL429:
.L429:
	.loc 1 2972 7 is_stmt 1
	.loc 1 2972 23 is_stmt 0
	mov	r3, #512
	str	r3, [r4, #68]
	.loc 1 2973 7 is_stmt 1
	.loc 1 2973 14 is_stmt 0
	movs	r5, #1
	b	.L415
.L417:
	.loc 1 3001 7 is_stmt 1
	.loc 1 3001 28 is_stmt 0
	ldrh	r3, [r4, #42]
	.loc 1 3001 22
	strh	r3, [r4, #40]	@ movhi
	b	.L418
.L430:
	.loc 1 3008 7 is_stmt 1
	.loc 1 3008 31 is_stmt 0
	uxtb	r2, r2
.LVL430:
	.loc 1 3008 28
	str	r2, [r0, #40]
	.loc 1 3011 7 is_stmt 1
	.loc 1 3011 24 is_stmt 0
	mov	r3, #-1
	str	r3, [r4, #80]
	b	.L420
.L421:
	.loc 1 3042 7 is_stmt 1
	.loc 1 3042 19 is_stmt 0
	movs	r3, #32
	strb	r3, [r4, #65]
	.loc 1 3043 7 is_stmt 1
	.loc 1 3043 18 is_stmt 0
	movs	r2, #0
	strb	r2, [r4, #66]
	.loc 1 3046 7 is_stmt 1
	.loc 1 3046 11 is_stmt 0
	ldr	r3, [r4, #68]
	.loc 1 3046 23
	orr	r3, r3, #128
	str	r3, [r4, #68]
	.loc 1 3049 7 is_stmt 1
	.loc 1 3049 11
	.loc 1 3049 24 is_stmt 0
	strb	r2, [r4, #64]
	.loc 1 3049 9 is_stmt 1
	.loc 1 3051 7
	.loc 1 3051 14 is_stmt 0
	movs	r5, #1
	b	.L415
.LVL431:
.L431:
	.loc 1 3057 7 is_stmt 1
	ldr	r3, .L432+16
	str	r3, [sp]
	mov	r3, #16777216
	uxtb	r2, r7
	mov	r1, r6
	mov	r0, r4
.LVL432:
	bl	I2C_TransferConfig
.LVL433:
	.loc 1 3060 7
	.loc 1 3060 11
	.loc 1 3060 24 is_stmt 0
	movs	r3, #0
	strb	r3, [r4, #64]
	.loc 1 3060 9 is_stmt 1
	.loc 1 3069 7
	movs	r1, #1
	mov	r0, r4
	bl	I2C_Enable_IRQ
.LVL434:
	.loc 1 3086 5
	.loc 1 3086 12 is_stmt 0
	b	.L415
.LVL435:
.L424:
	.loc 1 3090 12
	movs	r5, #2
.LVL436:
.L415:
	.loc 1 3092 1
	mov	r0, r5
	add	sp, sp, #12
	.cfi_remember_state
	.cfi_def_cfa_offset 20
	@ sp needed
	pop	{r4, r5, r6, r7, pc}
.LVL437:
.L425:
	.cfi_restore_state
	.loc 1 2978 14
	movs	r5, #2
	b	.L415
.L426:
	.loc 1 2982 49
	movs	r5, #2
	b	.L415
.L433:
	.align	2
.L432:
	.word	-65536
	.word	I2C_Mem_ISR_DMA
	.word	I2C_DMAMasterTransmitCplt
	.word	I2C_DMAError
	.word	-2147475456
	.cfi_endproc
.LFE355:
	.size	HAL_I2C_Mem_Write_DMA, .-HAL_I2C_Mem_Write_DMA
	.section	.text.HAL_I2C_Mem_Read_DMA,"ax",%progbits
	.align	1
	.global	HAL_I2C_Mem_Read_DMA
	.syntax unified
	.thumb
	.thumb_func
	.type	HAL_I2C_Mem_Read_DMA, %function
HAL_I2C_Mem_Read_DMA:
.LFB356:
	.loc 1 3108 1 is_stmt 1
	.cfi_startproc
	@ args = 8, pretend = 0, frame = 0
	@ frame_needed = 0, uses_anonymous_args = 0
.LVL438:
	push	{r4, r5, r6, r7, lr}
	.cfi_def_cfa_offset 20
	.cfi_offset 4, -20
	.cfi_offset 5, -16
	.cfi_offset 6, -12
	.cfi_offset 7, -8
	.cfi_offset 14, -4
	sub	sp, sp, #12
	.cfi_def_cfa_offset 32
	mov	r4, r0
	mov	r7, r3
	ldr	r5, [sp, #32]
	ldrh	r3, [sp, #36]
.LVL439:
	.loc 1 3109 3
	.loc 1 3112 3
	.loc 1 3114 3
	.loc 1 3114 11 is_stmt 0
	ldrb	r0, [r0, #65]	@ zero_extendqisi2
.LVL440:
	uxtb	r0, r0
	.loc 1 3114 6
	cmp	r0, #32
	bne	.L444
	mov	r6, r1
	.loc 1 3116 5 is_stmt 1
	.loc 1 3116 8 is_stmt 0
	cmp	r3, #0
	it	ne
	cmpne	r5, #0
	beq	.L449
	.loc 1 3122 5 is_stmt 1
	.loc 1 3122 19 is_stmt 0
	ldr	r1, [r4]
.LVL441:
	.loc 1 3122 29
	ldr	r0, [r1, #24]
	.loc 1 3122 8
	tst	r0, #32768
	bne	.L445
	.loc 1 3128 5 is_stmt 1
	.loc 1 3128 9
	.loc 1 3128 18 is_stmt 0
	ldrb	r0, [r4, #64]	@ zero_extendqisi2
	.loc 1 3128 11
	cmp	r0, #1
	beq	.L446
	.loc 1 3128 68 is_stmt 1 discriminator 2
	.loc 1 3128 81 is_stmt 0 discriminator 2
	movs	r0, #1
	strb	r0, [r4, #64]
	.loc 1 3128 7 is_stmt 1 discriminator 2
	.loc 1 3130 5 discriminator 2
	.loc 1 3130 17 is_stmt 0 discriminator 2
	movs	r0, #34
	strb	r0, [r4, #65]
	.loc 1 3131 5 is_stmt 1 discriminator 2
	.loc 1 3131 16 is_stmt 0 discriminator 2
	movs	r0, #64
	strb	r0, [r4, #66]
	.loc 1 3132 5 is_stmt 1 discriminator 2
	.loc 1 3132 21 is_stmt 0 discriminator 2
	movs	r0, #0
	str	r0, [r4, #68]
	.loc 1 3135 5 is_stmt 1 discriminator 2
	.loc 1 3135 20 is_stmt 0 discriminator 2
	str	r5, [r4, #36]
	.loc 1 3136 5 is_stmt 1 discriminator 2
	.loc 1 3136 21 is_stmt 0 discriminator 2
	strh	r3, [r4, #42]	@ movhi
	.loc 1 3137 5 is_stmt 1 discriminator 2
	.loc 1 3137 23 is_stmt 0 discriminator 2
	ldr	r3, .L452
	str	r3, [r4, #44]
	.loc 1 3138 5 is_stmt 1 discriminator 2
	.loc 1 3138 19 is_stmt 0 discriminator 2
	ldr	r3, .L452+4
	str	r3, [r4, #52]
	.loc 1 3139 5 is_stmt 1 discriminator 2
	.loc 1 3139 22 is_stmt 0 discriminator 2
	str	r6, [r4, #76]
	.loc 1 3141 5 is_stmt 1 discriminator 2
	.loc 1 3141 13 is_stmt 0 discriminator 2
	ldrh	r3, [r4, #42]
	uxth	r3, r3
	.loc 1 3141 8 discriminator 2
	cmp	r3, #255
	bls	.L437
	.loc 1 3143 7 is_stmt 1
	.loc 1 3143 22 is_stmt 0
	movs	r3, #255
	strh	r3, [r4, #40]	@ movhi
.L438:
	.loc 1 3151 5 is_stmt 1
	.loc 1 3151 8 is_stmt 0
	cmp	r7, #1
	beq	.L450
	.loc 1 3163 7 is_stmt 1
	.loc 1 3163 31 is_stmt 0
	lsrs	r3, r2, #8
	.loc 1 3163 28
	str	r3, [r1, #40]
	.loc 1 3166 7 is_stmt 1
	.loc 1 3166 27 is_stmt 0
	uxtb	r2, r2
.LVL442:
	.loc 1 3166 24
	str	r2, [r4, #80]
.L440:
	.loc 1 3169 5 is_stmt 1
	.loc 1 3169 13 is_stmt 0
	ldr	r3, [r4, #60]
	.loc 1 3169 8
	cmp	r3, #0
	beq	.L441
	.loc 1 3172 7 is_stmt 1
	.loc 1 3172 38 is_stmt 0
	ldr	r2, .L452+8
	str	r2, [r3, #60]
	.loc 1 3175 7 is_stmt 1
	.loc 1 3175 11 is_stmt 0
	ldr	r3, [r4, #60]
	.loc 1 3175 39
	ldr	r2, .L452+12
	str	r2, [r3, #76]
	.loc 1 3178 7 is_stmt 1
	.loc 1 3178 11 is_stmt 0
	ldr	r2, [r4, #60]
	.loc 1 3178 42
	movs	r3, #0
	str	r3, [r2, #64]
	.loc 1 3179 7 is_stmt 1
	.loc 1 3179 11 is_stmt 0
	ldr	r2, [r4, #60]
	.loc 1 3179 39
	str	r3, [r2, #80]
	.loc 1 3182 7 is_stmt 1
	.loc 1 3182 69 is_stmt 0
	ldr	r1, [r4]
	.loc 1 3182 23
	ldrh	r3, [r4, #40]
	mov	r2, r5
	adds	r1, r1, #36
	ldr	r0, [r4, #60]
	bl	HAL_DMA_Start_IT
.LVL443:
	.loc 1 3200 5 is_stmt 1
	.loc 1 3200 8 is_stmt 0
	mov	r5, r0
	cbz	r0, .L451
	.loc 1 3220 7 is_stmt 1
	.loc 1 3220 19 is_stmt 0
	movs	r3, #32
	strb	r3, [r4, #65]
	.loc 1 3221 7 is_stmt 1
	.loc 1 3221 18 is_stmt 0
	movs	r2, #0
	strb	r2, [r4, #66]
	.loc 1 3224 7 is_stmt 1
	.loc 1 3224 11 is_stmt 0
	ldr	r3, [r4, #68]
	.loc 1 3224 23
	orr	r3, r3, #16
	str	r3, [r4, #68]
	.loc 1 3227 7 is_stmt 1
	.loc 1 3227 11
	.loc 1 3227 24 is_stmt 0
	strb	r2, [r4, #64]
	.loc 1 3227 9 is_stmt 1
	.loc 1 3229 7
	.loc 1 3229 14 is_stmt 0
	movs	r5, #1
	b	.L435
.LVL444:
.L449:
	.loc 1 3118 7 is_stmt 1
	.loc 1 3118 23 is_stmt 0
	mov	r3, #512
	str	r3, [r4, #68]
	.loc 1 3119 7 is_stmt 1
	.loc 1 3119 14 is_stmt 0
	movs	r5, #1
	b	.L435
.LVL445:
.L437:
	.loc 1 3147 7 is_stmt 1
	.loc 1 3147 28 is_stmt 0
	ldrh	r3, [r4, #42]
	.loc 1 3147 22
	strh	r3, [r4, #40]	@ movhi
	b	.L438
.L450:
	.loc 1 3154 7 is_stmt 1
	.loc 1 3154 31 is_stmt 0
	uxtb	r2, r2
.LVL446:
	.loc 1 3154 28
	str	r2, [r1, #40]
	.loc 1 3157 7 is_stmt 1
	.loc 1 3157 24 is_stmt 0
	mov	r3, #-1
	str	r3, [r4, #80]
	b	.L440
.L441:
	.loc 1 3188 7 is_stmt 1
	.loc 1 3188 19 is_stmt 0
	movs	r3, #32
	strb	r3, [r4, #65]
	.loc 1 3189 7 is_stmt 1
	.loc 1 3189 18 is_stmt 0
	movs	r2, #0
	strb	r2, [r4, #66]
	.loc 1 3192 7 is_stmt 1
	.loc 1 3192 11 is_stmt 0
	ldr	r3, [r4, #68]
	.loc 1 3192 23
	orr	r3, r3, #128
	str	r3, [r4, #68]
	.loc 1 3195 7 is_stmt 1
	.loc 1 3195 11
	.loc 1 3195 24 is_stmt 0
	strb	r2, [r4, #64]
	.loc 1 3195 9 is_stmt 1
	.loc 1 3197 7
	.loc 1 3197 14 is_stmt 0
	movs	r5, #1
	b	.L435
.LVL447:
.L451:
	.loc 1 3203 7 is_stmt 1
	ldr	r3, .L452+16
	str	r3, [sp]
	movs	r3, #0
	uxtb	r2, r7
	mov	r1, r6
	mov	r0, r4
.LVL448:
	bl	I2C_TransferConfig
.LVL449:
	.loc 1 3206 7
	.loc 1 3206 11
	.loc 1 3206 24 is_stmt 0
	movs	r3, #0
	strb	r3, [r4, #64]
	.loc 1 3206 9 is_stmt 1
	.loc 1 3215 7
	movs	r1, #1
	mov	r0, r4
	bl	I2C_Enable_IRQ
.LVL450:
	.loc 1 3232 5
	.loc 1 3232 12 is_stmt 0
	b	.L435
.LVL451:
.L444:
	.loc 1 3236 12
	movs	r5, #2
.LVL452:
.L435:
	.loc 1 3238 1
	mov	r0, r5
	add	sp, sp, #12
	.cfi_remember_state
	.cfi_def_cfa_offset 20
	@ sp needed
	pop	{r4, r5, r6, r7, pc}
.LVL453:
.L445:
	.cfi_restore_state
	.loc 1 3124 14
	movs	r5, #2
	b	.L435
.L446:
	.loc 1 3128 49
	movs	r5, #2
	b	.L435
.L453:
	.align	2
.L452:
	.word	-65536
	.word	I2C_Mem_ISR_DMA
	.word	I2C_DMAMasterReceiveCplt
	.word	I2C_DMAError
	.word	-2147475456
	.cfi_endproc
.LFE356:
	.size	HAL_I2C_Mem_Read_DMA, .-HAL_I2C_Mem_Read_DMA
	.section	.text.HAL_I2C_IsDeviceReady,"ax",%progbits
	.align	1
	.global	HAL_I2C_IsDeviceReady
	.syntax unified
	.thumb
	.thumb_func
	.type	HAL_I2C_IsDeviceReady, %function
HAL_I2C_IsDeviceReady:
.LFB357:
	.loc 1 3253 1 is_stmt 1
	.cfi_startproc
	@ args = 0, pretend = 0, frame = 8
	@ frame_needed = 0, uses_anonymous_args = 0
.LVL454:
	push	{r4, r5, r6, r7, r8, r9, lr}
	.cfi_def_cfa_offset 28
	.cfi_offset 4, -28
	.cfi_offset 5, -24
	.cfi_offset 6, -20
	.cfi_offset 7, -16
	.cfi_offset 8, -12
	.cfi_offset 9, -8
	.cfi_offset 14, -4
	sub	sp, sp, #20
	.cfi_def_cfa_offset 48
	mov	r5, r3
	.loc 1 3254 3
	.loc 1 3256 3
	.loc 1 3256 21 is_stmt 0
	movs	r3, #0
.LVL455:
	str	r3, [sp, #12]
	.loc 1 3258 3 is_stmt 1
	.loc 1 3259 3
	.loc 1 3261 3
	.loc 1 3261 11 is_stmt 0
	ldrb	r3, [r0, #65]	@ zero_extendqisi2
	uxtb	r3, r3
	.loc 1 3261 6
	cmp	r3, #32
	bne	.L464
	mov	r6, r0
	mov	r8, r1
	mov	r9, r2
	.loc 1 3263 5 is_stmt 1
	.loc 1 3263 19 is_stmt 0
	ldr	r3, [r0]
	.loc 1 3263 29
	ldr	r3, [r3, #24]
	.loc 1 3263 8
	tst	r3, #32768
	bne	.L465
	.loc 1 3269 5 is_stmt 1
	.loc 1 3269 9
	.loc 1 3269 18 is_stmt 0
	ldrb	r3, [r0, #64]	@ zero_extendqisi2
	.loc 1 3269 11
	cmp	r3, #1
	beq	.L466
	.loc 1 3269 68 is_stmt 1 discriminator 2
	.loc 1 3269 81 is_stmt 0 discriminator 2
	movs	r3, #1
	strb	r3, [r0, #64]
	.loc 1 3269 7 is_stmt 1 discriminator 2
	.loc 1 3271 5 discriminator 2
	.loc 1 3271 17 is_stmt 0 discriminator 2
	movs	r3, #36
	strb	r3, [r0, #65]
	.loc 1 3272 5 is_stmt 1 discriminator 2
	.loc 1 3272 21 is_stmt 0 discriminator 2
	movs	r3, #0
	str	r3, [r0, #68]
.LVL456:
.L463:
	.loc 1 3274 5 is_stmt 1
	.loc 1 3277 7
	.loc 1 3277 42 is_stmt 0
	ldr	r3, [r6, #12]
	.loc 1 3277 204
	cmp	r3, #1
	beq	.L470
	.loc 1 3277 206 discriminator 2
	ubfx	r2, r8, #0, #10
	.loc 1 3277 204 discriminator 2
	ldr	r3, .L473
	orrs	r3, r3, r2
.L457:
	.loc 1 3277 11 discriminator 4
	ldr	r2, [r6]
	.loc 1 3277 27 discriminator 4
	str	r3, [r2, #4]
	.loc 1 3281 7 is_stmt 1 discriminator 4
	.loc 1 3281 19 is_stmt 0 discriminator 4
	bl	HAL_GetTick
.LVL457:
	mov	r7, r0
.LVL458:
	.loc 1 3283 7 is_stmt 1 discriminator 4
	.loc 1 3283 24 is_stmt 0 discriminator 4
	ldr	r2, [r6]
	.loc 1 3283 34 discriminator 4
	ldr	r3, [r2, #24]
	.loc 1 3283 90 discriminator 4
	ubfx	ip, r3, #5, #1
.LVL459:
	.loc 1 3284 7 is_stmt 1 discriminator 4
	.loc 1 3284 34 is_stmt 0 discriminator 4
	ldr	r3, [r2, #24]
	.loc 1 3284 90 discriminator 4
	ubfx	r3, r3, #4, #1
.LVL460:
	.loc 1 3286 7 is_stmt 1 discriminator 4
	.loc 1 3286 13 is_stmt 0 discriminator 4
	b	.L458
.LVL461:
.L470:
	.loc 1 3277 79 discriminator 1
	ubfx	r2, r8, #0, #10
	.loc 1 3277 204 discriminator 1
	ldr	r3, .L473+4
	orrs	r3, r3, r2
	b	.L457
.LVL462:
.L459:
	.loc 1 3305 9 is_stmt 1
	.loc 1 3305 26 is_stmt 0
	ldr	r3, [r6]
	.loc 1 3305 36
	ldr	r4, [r3, #24]
	.loc 1 3305 92
	ubfx	ip, r4, #5, #1
.LVL463:
	.loc 1 3306 9 is_stmt 1
	.loc 1 3306 36 is_stmt 0
	ldr	r3, [r3, #24]
	.loc 1 3306 92
	ubfx	r3, r3, #4, #1
.LVL464:
.L458:
	.loc 1 3286 30 is_stmt 1
	orrs	ip, ip, r3
.LVL465:
	bne	.L471
	.loc 1 3288 9
	.loc 1 3288 12 is_stmt 0
	cmp	r5, #-1
	beq	.L459
	.loc 1 3290 11 is_stmt 1
	.loc 1 3290 17 is_stmt 0
	bl	HAL_GetTick
.LVL466:
	.loc 1 3290 31
	subs	r0, r0, r7
	.loc 1 3290 14
	cmp	r0, r5
	bhi	.L460
	.loc 1 3290 55 discriminator 1
	cmp	r5, #0
	bne	.L459
.L460:
	.loc 1 3293 13 is_stmt 1
	.loc 1 3293 25 is_stmt 0
	movs	r3, #32
	strb	r3, [r6, #65]
	.loc 1 3296 13 is_stmt 1
	.loc 1 3296 17 is_stmt 0
	ldr	r3, [r6, #68]
	.loc 1 3296 29
	orr	r3, r3, #32
	str	r3, [r6, #68]
	.loc 1 3299 13 is_stmt 1
	.loc 1 3299 17
	.loc 1 3299 30 is_stmt 0
	movs	r3, #0
	strb	r3, [r6, #64]
	.loc 1 3299 15 is_stmt 1
	.loc 1 3301 13
	.loc 1 3301 20 is_stmt 0
	movs	r0, #1
.LVL467:
.L455:
	.loc 1 3363 1
	add	sp, sp, #20
	.cfi_remember_state
	.cfi_def_cfa_offset 28
	@ sp needed
	pop	{r4, r5, r6, r7, r8, r9, pc}
.LVL468:
.L471:
	.cfi_restore_state
	.loc 1 3310 7 is_stmt 1
	.loc 1 3310 21 is_stmt 0
	ldr	r3, [r6]
.LVL469:
	.loc 1 3310 31
	ldr	r3, [r3, #24]
	.loc 1 3310 10
	tst	r3, #16
	beq	.L472
	.loc 1 3332 9 is_stmt 1
	.loc 1 3332 13 is_stmt 0
	str	r7, [sp]
	mov	r3, r5
	movs	r2, #0
	movs	r1, #32
	mov	r0, r6
	bl	I2C_WaitOnFlagUntilTimeout
.LVL470:
	.loc 1 3332 12
	cbnz	r0, .L468
	.loc 1 3338 9 is_stmt 1
	.loc 1 3338 105 is_stmt 0
	ldr	r3, [r6]
	.loc 1 3338 96
	movs	r2, #16
	str	r2, [r3, #28]
	.loc 1 3341 9 is_stmt 1
	.loc 1 3341 105 is_stmt 0
	ldr	r3, [r6]
	.loc 1 3341 96
	movs	r2, #32
	str	r2, [r3, #28]
	.loc 1 3345 7 is_stmt 1
	.loc 1 3345 17 is_stmt 0
	ldr	r3, [sp, #12]
	adds	r3, r3, #1
	str	r3, [sp, #12]
	.loc 1 3346 25 is_stmt 1
	ldr	r3, [sp, #12]
	cmp	r3, r9
	bcc	.L463
	.loc 1 3349 5
	.loc 1 3349 17 is_stmt 0
	strb	r2, [r6, #65]
	.loc 1 3352 5 is_stmt 1
	.loc 1 3352 9 is_stmt 0
	ldr	r3, [r6, #68]
	.loc 1 3352 21
	orrs	r3, r3, r2
	str	r3, [r6, #68]
	.loc 1 3355 5 is_stmt 1
	.loc 1 3355 9
	.loc 1 3355 22 is_stmt 0
	movs	r3, #0
	strb	r3, [r6, #64]
	.loc 1 3355 7 is_stmt 1
	.loc 1 3357 5
	.loc 1 3357 12 is_stmt 0
	movs	r0, #1
	b	.L455
.L472:
	.loc 1 3313 9 is_stmt 1
	.loc 1 3313 13 is_stmt 0
	str	r7, [sp]
	mov	r3, r5
	movs	r2, #0
	movs	r1, #32
	mov	r0, r6
	bl	I2C_WaitOnFlagUntilTimeout
.LVL471:
	.loc 1 3313 12
	cbnz	r0, .L467
	.loc 1 3319 9 is_stmt 1
	.loc 1 3319 105 is_stmt 0
	ldr	r2, [r6]
	.loc 1 3319 96
	movs	r3, #32
	str	r3, [r2, #28]
	.loc 1 3322 9 is_stmt 1
	.loc 1 3322 21 is_stmt 0
	strb	r3, [r6, #65]
	.loc 1 3325 9 is_stmt 1
	.loc 1 3325 13
	.loc 1 3325 26 is_stmt 0
	movs	r3, #0
	strb	r3, [r6, #64]
	.loc 1 3325 11 is_stmt 1
	.loc 1 3327 9
	.loc 1 3327 16 is_stmt 0
	b	.L455
.LVL472:
.L464:
	.loc 1 3361 12
	movs	r0, #2
.LVL473:
	b	.L455
.LVL474:
.L465:
	.loc 1 3265 14
	movs	r0, #2
.LVL475:
	b	.L455
.LVL476:
.L466:
	.loc 1 3269 49
	movs	r0, #2
.LVL477:
	b	.L455
.LVL478:
.L467:
	.loc 1 3315 18
	movs	r0, #1
	b	.L455
.L468:
	.loc 1 3334 18
	movs	r0, #1
	b	.L455
.L474:
	.align	2
.L473:
	.word	33564672
	.word	33562624
	.cfi_endproc
.LFE357:
	.size	HAL_I2C_IsDeviceReady, .-HAL_I2C_IsDeviceReady
	.section	.text.HAL_I2C_Master_Seq_Transmit_IT,"ax",%progbits
	.align	1
	.global	HAL_I2C_Master_Seq_Transmit_IT
	.syntax unified
	.thumb
	.thumb_func
	.type	HAL_I2C_Master_Seq_Transmit_IT, %function
HAL_I2C_Master_Seq_Transmit_IT:
.LFB358:
	.loc 1 3379 1 is_stmt 1
	.cfi_startproc
	@ args = 4, pretend = 0, frame = 0
	@ frame_needed = 0, uses_anonymous_args = 0
.LVL479:
	push	{r4, r5, r6, r7, r8, lr}
	.cfi_def_cfa_offset 24
	.cfi_offset 4, -24
	.cfi_offset 5, -20
	.cfi_offset 6, -16
	.cfi_offset 7, -12
	.cfi_offset 8, -8
	.cfi_offset 14, -4
	sub	sp, sp, #8
	.cfi_def_cfa_offset 32
	mov	r4, r0
	ldr	r6, [sp, #32]
	.loc 1 3380 3
	.loc 1 3381 3
.LVL480:
	.loc 1 3382 3
	.loc 1 3385 3
	.loc 1 3387 3
	.loc 1 3387 11 is_stmt 0
	ldrb	r0, [r0, #65]	@ zero_extendqisi2
.LVL481:
	uxtb	r0, r0
	.loc 1 3387 6
	cmp	r0, #32
	bne	.L484
	mov	r5, r1
	.loc 1 3390 5 is_stmt 1
	.loc 1 3390 9
	.loc 1 3390 18 is_stmt 0
	ldrb	r1, [r4, #64]	@ zero_extendqisi2
.LVL482:
	.loc 1 3390 11
	cmp	r1, #1
	beq	.L485
	.loc 1 3390 68 is_stmt 1 discriminator 2
	.loc 1 3390 81 is_stmt 0 discriminator 2
	movs	r1, #1
	strb	r1, [r4, #64]
	.loc 1 3390 7 is_stmt 1 discriminator 2
	.loc 1 3392 5 discriminator 2
	.loc 1 3392 17 is_stmt 0 discriminator 2
	movs	r1, #33
	strb	r1, [r4, #65]
	.loc 1 3393 5 is_stmt 1 discriminator 2
	.loc 1 3393 16 is_stmt 0 discriminator 2
	movs	r1, #16
	strb	r1, [r4, #66]
	.loc 1 3394 5 is_stmt 1 discriminator 2
	.loc 1 3394 21 is_stmt 0 discriminator 2
	movs	r1, #0
	str	r1, [r4, #68]
	.loc 1 3397 5 is_stmt 1 discriminator 2
	.loc 1 3397 20 is_stmt 0 discriminator 2
	str	r2, [r4, #36]
	.loc 1 3398 5 is_stmt 1 discriminator 2
	.loc 1 3398 21 is_stmt 0 discriminator 2
	strh	r3, [r4, #42]	@ movhi
	.loc 1 3399 5 is_stmt 1 discriminator 2
	.loc 1 3399 23 is_stmt 0 discriminator 2
	str	r6, [r4, #44]
	.loc 1 3400 5 is_stmt 1 discriminator 2
	.loc 1 3400 19 is_stmt 0 discriminator 2
	ldr	r3, .L491
.LVL483:
	str	r3, [r4, #52]
	.loc 1 3403 5 is_stmt 1 discriminator 2
	.loc 1 3403 13 is_stmt 0 discriminator 2
	ldrh	r3, [r4, #42]
	uxth	r3, r3
	.loc 1 3403 8 discriminator 2
	cmp	r3, #255
	bls	.L477
	.loc 1 3405 7 is_stmt 1
	.loc 1 3405 22 is_stmt 0
	movs	r3, #255
	strh	r3, [r4, #40]	@ movhi
	.loc 1 3406 7 is_stmt 1
.LVL484:
	.loc 1 3406 16 is_stmt 0
	mov	r7, #16777216
.LVL485:
.L478:
	.loc 1 3414 5 is_stmt 1
	.loc 1 3414 14 is_stmt 0
	ldrh	r3, [r4, #40]
	.loc 1 3414 8
	cbz	r3, .L486
	.loc 1 3414 31 discriminator 1
	cmp	r6, #33554432
	it	ne
	cmpne	r6, #0
	bne	.L487
	.loc 1 3419 7 is_stmt 1
	.loc 1 3419 11 is_stmt 0
	ldr	r3, [r4]
	.loc 1 3419 30
	ldrb	r2, [r2]	@ zero_extendqisi2
.LVL486:
	.loc 1 3419 28
	str	r2, [r3, #40]
.LVL487:
	.loc 1 3422 7 is_stmt 1
	.loc 1 3422 11 is_stmt 0
	ldr	r3, [r4, #36]
	.loc 1 3422 21
	adds	r3, r3, #1
	str	r3, [r4, #36]
	.loc 1 3424 7 is_stmt 1
	.loc 1 3424 24 is_stmt 0
	ldrh	r8, [r4, #40]
.LVL488:
	.loc 1 3425 7 is_stmt 1
	.loc 1 3425 11 is_stmt 0
	ldrh	r3, [r4, #42]
	uxth	r3, r3
	.loc 1 3425 22
	subs	r3, r3, #1
	uxth	r3, r3
	strh	r3, [r4, #42]	@ movhi
	.loc 1 3426 7 is_stmt 1
	.loc 1 3426 21 is_stmt 0
	add	r3, r8, #-1
	strh	r3, [r4, #40]	@ movhi
	b	.L479
.LVL489:
.L477:
	.loc 1 3410 7 is_stmt 1
	.loc 1 3410 28 is_stmt 0
	ldrh	r3, [r4, #42]
	.loc 1 3410 22
	strh	r3, [r4, #40]	@ movhi
	.loc 1 3411 7 is_stmt 1
	.loc 1 3411 16 is_stmt 0
	ldr	r7, [r4, #44]
.LVL490:
	b	.L478
.L486:
	.loc 1 3382 12
	mov	r8, #0
.LVL491:
.L479:
	.loc 1 3432 5 is_stmt 1
	.loc 1 3432 14 is_stmt 0
	ldr	r3, [r4, #48]
	.loc 1 3432 8
	cmp	r3, #17
	bne	.L480
	.loc 1 3432 255 discriminator 1
	cmp	r6, #43520
	it	ne
	cmpne	r6, #170
	bne	.L488
.L480:
	.loc 1 3440 7 is_stmt 1
	mov	r0, r4
	bl	I2C_ConvertOtherXferOptions
.LVL492:
	.loc 1 3443 7
	.loc 1 3443 15 is_stmt 0
	ldrh	r3, [r4, #42]
	uxth	r3, r3
	.loc 1 3443 10
	cmp	r3, #255
	bhi	.L489
	.loc 1 3445 9 is_stmt 1
	.loc 1 3445 18 is_stmt 0
	ldr	r7, [r4, #44]
.LVL493:
	.loc 1 3381 12
	ldr	r3, .L491+4
.L481:
.LVL494:
	.loc 1 3450 5 is_stmt 1
	.loc 1 3450 8 is_stmt 0
	cmp	r6, #33554432
	it	ne
	cmpne	r6, #0
	bne	.L482
	.loc 1 3452 7 is_stmt 1
	str	r3, [sp]
	mov	r3, r7
.LVL495:
	uxtb	r2, r8
	mov	r1, r5
	mov	r0, r4
	bl	I2C_TransferConfig
.LVL496:
.L483:
	.loc 1 3460 5
	.loc 1 3460 9
	.loc 1 3460 22 is_stmt 0
	movs	r5, #0
	strb	r5, [r4, #64]
	.loc 1 3460 7 is_stmt 1
	.loc 1 3469 5
	movs	r1, #1
	mov	r0, r4
	bl	I2C_Enable_IRQ
.LVL497:
	.loc 1 3471 5
	.loc 1 3471 12 is_stmt 0
	mov	r0, r5
.LVL498:
.L476:
	.loc 1 3477 1
	add	sp, sp, #8
	.cfi_remember_state
	.cfi_def_cfa_offset 24
	@ sp needed
	pop	{r4, r5, r6, r7, r8, pc}
.LVL499:
.L487:
	.cfi_restore_state
	.loc 1 3382 12
	mov	r8, #0
	b	.L479
.LVL500:
.L488:
	.loc 1 3435 19
	movs	r3, #0
	b	.L481
.L489:
	.loc 1 3381 12
	ldr	r3, .L491+4
	b	.L481
.LVL501:
.L482:
	.loc 1 3456 7 is_stmt 1
	str	r3, [sp]
	mov	r3, r7
.LVL502:
	ldrb	r2, [r4, #40]	@ zero_extendqisi2
	mov	r1, r5
	mov	r0, r4
	bl	I2C_TransferConfig
.LVL503:
	b	.L483
.LVL504:
.L484:
	.loc 1 3475 12 is_stmt 0
	movs	r0, #2
	b	.L476
.LVL505:
.L485:
	.loc 1 3390 49
	movs	r0, #2
	b	.L476
.L492:
	.align	2
.L491:
	.word	I2C_Master_ISR_IT
	.word	-2147475456
	.cfi_endproc
.LFE358:
	.size	HAL_I2C_Master_Seq_Transmit_IT, .-HAL_I2C_Master_Seq_Transmit_IT
	.section	.text.HAL_I2C_Master_Seq_Transmit_DMA,"ax",%progbits
	.align	1
	.global	HAL_I2C_Master_Seq_Transmit_DMA
	.syntax unified
	.thumb
	.thumb_func
	.type	HAL_I2C_Master_Seq_Transmit_DMA, %function
HAL_I2C_Master_Seq_Transmit_DMA:
.LFB359:
	.loc 1 3493 1 is_stmt 1
	.cfi_startproc
	@ args = 4, pretend = 0, frame = 0
	@ frame_needed = 0, uses_anonymous_args = 0
.LVL506:
	push	{r4, r5, r6, r7, r8, r9, lr}
	.cfi_def_cfa_offset 28
	.cfi_offset 4, -28
	.cfi_offset 5, -24
	.cfi_offset 6, -20
	.cfi_offset 7, -16
	.cfi_offset 8, -12
	.cfi_offset 9, -8
	.cfi_offset 14, -4
	sub	sp, sp, #12
	.cfi_def_cfa_offset 40
	mov	r4, r0
	ldr	r6, [sp, #40]
	.loc 1 3494 3
	.loc 1 3495 3
.LVL507:
	.loc 1 3496 3
	.loc 1 3497 3
	.loc 1 3500 3
	.loc 1 3502 3
	.loc 1 3502 11 is_stmt 0
	ldrb	r0, [r0, #65]	@ zero_extendqisi2
.LVL508:
	uxtb	r0, r0
	.loc 1 3502 6
	cmp	r0, #32
	bne	.L509
	mov	r5, r1
	.loc 1 3505 5 is_stmt 1
	.loc 1 3505 9
	.loc 1 3505 18 is_stmt 0
	ldrb	r1, [r4, #64]	@ zero_extendqisi2
.LVL509:
	.loc 1 3505 11
	cmp	r1, #1
	beq	.L510
	.loc 1 3505 68 is_stmt 1 discriminator 2
	.loc 1 3505 81 is_stmt 0 discriminator 2
	movs	r1, #1
	strb	r1, [r4, #64]
	.loc 1 3505 7 is_stmt 1 discriminator 2
	.loc 1 3507 5 discriminator 2
	.loc 1 3507 17 is_stmt 0 discriminator 2
	movs	r1, #33
	strb	r1, [r4, #65]
	.loc 1 3508 5 is_stmt 1 discriminator 2
	.loc 1 3508 16 is_stmt 0 discriminator 2
	movs	r1, #16
	strb	r1, [r4, #66]
	.loc 1 3509 5 is_stmt 1 discriminator 2
	.loc 1 3509 21 is_stmt 0 discriminator 2
	movs	r1, #0
	str	r1, [r4, #68]
	.loc 1 3512 5 is_stmt 1 discriminator 2
	.loc 1 3512 20 is_stmt 0 discriminator 2
	str	r2, [r4, #36]
	.loc 1 3513 5 is_stmt 1 discriminator 2
	.loc 1 3513 21 is_stmt 0 discriminator 2
	strh	r3, [r4, #42]	@ movhi
	.loc 1 3514 5 is_stmt 1 discriminator 2
	.loc 1 3514 23 is_stmt 0 discriminator 2
	str	r6, [r4, #44]
	.loc 1 3515 5 is_stmt 1 discriminator 2
	.loc 1 3515 19 is_stmt 0 discriminator 2
	ldr	r3, .L517
.LVL510:
	str	r3, [r4, #52]
	.loc 1 3518 5 is_stmt 1 discriminator 2
	.loc 1 3518 13 is_stmt 0 discriminator 2
	ldrh	r3, [r4, #42]
	uxth	r3, r3
	.loc 1 3518 8 discriminator 2
	cmp	r3, #255
	bls	.L495
	.loc 1 3520 7 is_stmt 1
	.loc 1 3520 22 is_stmt 0
	movs	r3, #255
	strh	r3, [r4, #40]	@ movhi
	.loc 1 3521 7 is_stmt 1
.LVL511:
	.loc 1 3521 16 is_stmt 0
	mov	r7, #16777216
.LVL512:
.L496:
	.loc 1 3529 5 is_stmt 1
	.loc 1 3529 14 is_stmt 0
	ldrh	r3, [r4, #40]
	.loc 1 3529 8
	cbz	r3, .L511
	.loc 1 3529 31 discriminator 1
	cmp	r6, #33554432
	it	ne
	cmpne	r6, #0
	bne	.L512
	.loc 1 3534 7 is_stmt 1
	.loc 1 3534 11 is_stmt 0
	ldr	r3, [r4]
	.loc 1 3534 30
	ldrb	r2, [r2]	@ zero_extendqisi2
.LVL513:
	.loc 1 3534 28
	str	r2, [r3, #40]
.LVL514:
	.loc 1 3537 7 is_stmt 1
	.loc 1 3537 11 is_stmt 0
	ldr	r3, [r4, #36]
	.loc 1 3537 21
	adds	r3, r3, #1
	str	r3, [r4, #36]
	.loc 1 3539 7 is_stmt 1
	.loc 1 3539 24 is_stmt 0
	ldrh	r8, [r4, #40]
.LVL515:
	.loc 1 3540 7 is_stmt 1
	.loc 1 3540 11 is_stmt 0
	ldrh	r3, [r4, #42]
	uxth	r3, r3
	.loc 1 3540 22
	subs	r3, r3, #1
	uxth	r3, r3
	strh	r3, [r4, #42]	@ movhi
	.loc 1 3541 7 is_stmt 1
	.loc 1 3541 21 is_stmt 0
	add	r3, r8, #-1
	strh	r3, [r4, #40]	@ movhi
	b	.L497
.LVL516:
.L495:
	.loc 1 3525 7 is_stmt 1
	.loc 1 3525 28 is_stmt 0
	ldrh	r3, [r4, #42]
	.loc 1 3525 22
	strh	r3, [r4, #40]	@ movhi
	.loc 1 3526 7 is_stmt 1
	.loc 1 3526 16 is_stmt 0
	ldr	r7, [r4, #44]
.LVL517:
	b	.L496
.L511:
	.loc 1 3497 12
	mov	r8, #0
.LVL518:
.L497:
	.loc 1 3547 5 is_stmt 1
	.loc 1 3547 14 is_stmt 0
	ldr	r3, [r4, #48]
	.loc 1 3547 8
	cmp	r3, #17
	bne	.L498
	.loc 1 3547 255 discriminator 1
	cmp	r6, #43520
	it	ne
	cmpne	r6, #170
	bne	.L513
.L498:
	.loc 1 3555 7 is_stmt 1
	mov	r0, r4
	bl	I2C_ConvertOtherXferOptions
.LVL519:
	.loc 1 3558 7
	.loc 1 3558 15 is_stmt 0
	ldrh	r3, [r4, #42]
	uxth	r3, r3
	.loc 1 3558 10
	cmp	r3, #255
	bhi	.L514
	.loc 1 3560 9 is_stmt 1
	.loc 1 3560 18 is_stmt 0
	ldr	r7, [r4, #44]
.LVL520:
	.loc 1 3495 12
	ldr	r9, .L517+16
	b	.L499
.LVL521:
.L512:
	.loc 1 3497 12
	mov	r8, #0
	b	.L497
.LVL522:
.L513:
	.loc 1 3550 19
	mov	r9, #0
	b	.L499
.L514:
	.loc 1 3495 12
	ldr	r9, .L517+16
.L499:
.LVL523:
	.loc 1 3564 5 is_stmt 1
	.loc 1 3564 13 is_stmt 0
	ldrh	r2, [r4, #40]
	.loc 1 3564 8
	cmp	r2, #0
	beq	.L500
	.loc 1 3566 7 is_stmt 1
	.loc 1 3566 15 is_stmt 0
	ldr	r3, [r4, #56]
	.loc 1 3566 10
	cbz	r3, .L501
	.loc 1 3569 9 is_stmt 1
	.loc 1 3569 40 is_stmt 0
	ldr	r2, .L517+4
	str	r2, [r3, #60]
	.loc 1 3572 9 is_stmt 1
	.loc 1 3572 13 is_stmt 0
	ldr	r3, [r4, #56]
	.loc 1 3572 41
	ldr	r2, .L517+8
	str	r2, [r3, #76]
	.loc 1 3575 9 is_stmt 1
	.loc 1 3575 13 is_stmt 0
	ldr	r2, [r4, #56]
	.loc 1 3575 44
	movs	r3, #0
	str	r3, [r2, #64]
	.loc 1 3576 9 is_stmt 1
	.loc 1 3576 13 is_stmt 0
	ldr	r2, [r4, #56]
	.loc 1 3576 41
	str	r3, [r2, #80]
	.loc 1 3579 9 is_stmt 1
	.loc 1 3580 57 is_stmt 0
	ldr	r2, [r4]
	.loc 1 3579 25
	ldrh	r3, [r4, #40]
	adds	r2, r2, #40
	ldr	r1, [r4, #36]
	ldr	r0, [r4, #56]
	bl	HAL_DMA_Start_IT
.LVL524:
	.loc 1 3597 7 is_stmt 1
	.loc 1 3597 10 is_stmt 0
	cbz	r0, .L502
	.loc 1 3627 9 is_stmt 1
	.loc 1 3627 21 is_stmt 0
	movs	r3, #32
	strb	r3, [r4, #65]
	.loc 1 3628 9 is_stmt 1
	.loc 1 3628 20 is_stmt 0
	movs	r2, #0
	strb	r2, [r4, #66]
	.loc 1 3631 9 is_stmt 1
	.loc 1 3631 13 is_stmt 0
	ldr	r3, [r4, #68]
	.loc 1 3631 25
	orr	r3, r3, #16
	str	r3, [r4, #68]
	.loc 1 3634 9 is_stmt 1
	.loc 1 3634 13
	.loc 1 3634 26 is_stmt 0
	strb	r2, [r4, #64]
	.loc 1 3634 11 is_stmt 1
	.loc 1 3636 9
	.loc 1 3636 16 is_stmt 0
	movs	r0, #1
.LVL525:
	b	.L494
.LVL526:
.L501:
	.loc 1 3585 9 is_stmt 1
	.loc 1 3585 21 is_stmt 0
	movs	r3, #32
	strb	r3, [r4, #65]
	.loc 1 3586 9 is_stmt 1
	.loc 1 3586 20 is_stmt 0
	movs	r2, #0
	strb	r2, [r4, #66]
	.loc 1 3589 9 is_stmt 1
	.loc 1 3589 13 is_stmt 0
	ldr	r3, [r4, #68]
	.loc 1 3589 25
	orr	r3, r3, #128
	str	r3, [r4, #68]
	.loc 1 3592 9 is_stmt 1
	.loc 1 3592 13
	.loc 1 3592 26 is_stmt 0
	strb	r2, [r4, #64]
	.loc 1 3592 11 is_stmt 1
	.loc 1 3594 9
	.loc 1 3594 16 is_stmt 0
	movs	r0, #1
	b	.L494
.LVL527:
.L502:
	.loc 1 3600 9 is_stmt 1
	.loc 1 3600 12 is_stmt 0
	cmp	r6, #33554432
	it	ne
	cmpne	r6, #0
	bne	.L504
	.loc 1 3602 11 is_stmt 1
	str	r9, [sp]
	mov	r3, r7
	uxtb	r2, r8
	mov	r1, r5
	mov	r0, r4
.LVL528:
	bl	I2C_TransferConfig
.LVL529:
.L505:
	.loc 1 3610 9
	.loc 1 3610 13 is_stmt 0
	ldrh	r3, [r4, #42]
	uxth	r3, r3
	.loc 1 3610 32
	ldrh	r2, [r4, #40]
	.loc 1 3610 25
	subs	r3, r3, r2
	uxth	r3, r3
	strh	r3, [r4, #42]	@ movhi
	.loc 1 3613 9 is_stmt 1
	.loc 1 3613 13
	.loc 1 3613 26 is_stmt 0
	movs	r3, #0
	strb	r3, [r4, #64]
	.loc 1 3613 11 is_stmt 1
	.loc 1 3619 9
	movs	r1, #16
	mov	r0, r4
	bl	I2C_Enable_IRQ
.LVL530:
	.loc 1 3622 9
	.loc 1 3622 13 is_stmt 0
	ldr	r2, [r4]
	.loc 1 3622 23
	ldr	r3, [r2]
	.loc 1 3622 29
	orr	r3, r3, #16384
	str	r3, [r2]
	b	.L506
.LVL531:
.L504:
	.loc 1 3606 11 is_stmt 1
	str	r9, [sp]
	mov	r3, r7
	ldrb	r2, [r4, #40]	@ zero_extendqisi2
	mov	r1, r5
	mov	r0, r4
.LVL532:
	bl	I2C_TransferConfig
.LVL533:
	b	.L505
.LVL534:
.L500:
	.loc 1 3642 7
	.loc 1 3642 21 is_stmt 0
	ldr	r3, .L517+12
	str	r3, [r4, #52]
	.loc 1 3646 7 is_stmt 1
	.loc 1 3646 10 is_stmt 0
	cmp	r6, #33554432
	it	ne
	cmpne	r6, #0
	bne	.L507
	.loc 1 3648 9 is_stmt 1
	str	r9, [sp]
	mov	r3, r7
	uxtb	r2, r8
	mov	r1, r5
	mov	r0, r4
	bl	I2C_TransferConfig
.LVL535:
.L508:
	.loc 1 3656 7
	.loc 1 3656 11
	.loc 1 3656 24 is_stmt 0
	movs	r3, #0
	strb	r3, [r4, #64]
	.loc 1 3656 9 is_stmt 1
	.loc 1 3665 7
	movs	r1, #1
	mov	r0, r4
	bl	I2C_Enable_IRQ
.LVL536:
.L506:
	.loc 1 3668 5
	.loc 1 3668 12 is_stmt 0
	movs	r0, #0
	b	.L494
.L507:
	.loc 1 3652 9 is_stmt 1
	str	r9, [sp]
	mov	r3, r7
	uxtb	r2, r2
	mov	r1, r5
	mov	r0, r4
	bl	I2C_TransferConfig
.LVL537:
	b	.L508
.LVL538:
.L509:
	.loc 1 3672 12 is_stmt 0
	movs	r0, #2
.LVL539:
.L494:
	.loc 1 3674 1
	add	sp, sp, #12
	.cfi_remember_state
	.cfi_def_cfa_offset 28
	@ sp needed
	pop	{r4, r5, r6, r7, r8, r9, pc}
.LVL540:
.L510:
	.cfi_restore_state
	.loc 1 3505 49
	movs	r0, #2
	b	.L494
.L518:
	.align	2
.L517:
	.word	I2C_Master_ISR_DMA
	.word	I2C_DMAMasterTransmitCplt
	.word	I2C_DMAError
	.word	I2C_Master_ISR_IT
	.word	-2147475456
	.cfi_endproc
.LFE359:
	.size	HAL_I2C_Master_Seq_Transmit_DMA, .-HAL_I2C_Master_Seq_Transmit_DMA
	.section	.text.HAL_I2C_Master_Seq_Receive_IT,"ax",%progbits
	.align	1
	.global	HAL_I2C_Master_Seq_Receive_IT
	.syntax unified
	.thumb
	.thumb_func
	.type	HAL_I2C_Master_Seq_Receive_IT, %function
HAL_I2C_Master_Seq_Receive_IT:
.LFB360:
	.loc 1 3690 1 is_stmt 1
	.cfi_startproc
	@ args = 4, pretend = 0, frame = 0
	@ frame_needed = 0, uses_anonymous_args = 0
.LVL541:
	push	{r4, r5, r6, lr}
	.cfi_def_cfa_offset 16
	.cfi_offset 4, -16
	.cfi_offset 5, -12
	.cfi_offset 6, -8
	.cfi_offset 14, -4
	sub	sp, sp, #8
	.cfi_def_cfa_offset 24
	mov	r4, r0
	mov	r5, r1
	ldr	r1, [sp, #24]
.LVL542:
	.loc 1 3691 3
	.loc 1 3692 3
	.loc 1 3695 3
	.loc 1 3697 3
	.loc 1 3697 11 is_stmt 0
	ldrb	r0, [r0, #65]	@ zero_extendqisi2
.LVL543:
	uxtb	r0, r0
	.loc 1 3697 6
	cmp	r0, #32
	bne	.L525
	.loc 1 3700 5 is_stmt 1
	.loc 1 3700 9
	.loc 1 3700 18 is_stmt 0
	ldrb	r0, [r4, #64]	@ zero_extendqisi2
	.loc 1 3700 11
	cmp	r0, #1
	beq	.L526
	.loc 1 3700 68 is_stmt 1 discriminator 2
	.loc 1 3700 81 is_stmt 0 discriminator 2
	movs	r0, #1
	strb	r0, [r4, #64]
	.loc 1 3700 7 is_stmt 1 discriminator 2
	.loc 1 3702 5 discriminator 2
	.loc 1 3702 17 is_stmt 0 discriminator 2
	movs	r0, #34
	strb	r0, [r4, #65]
	.loc 1 3703 5 is_stmt 1 discriminator 2
	.loc 1 3703 16 is_stmt 0 discriminator 2
	movs	r0, #16
	strb	r0, [r4, #66]
	.loc 1 3704 5 is_stmt 1 discriminator 2
	.loc 1 3704 21 is_stmt 0 discriminator 2
	movs	r0, #0
	str	r0, [r4, #68]
	.loc 1 3707 5 is_stmt 1 discriminator 2
	.loc 1 3707 20 is_stmt 0 discriminator 2
	str	r2, [r4, #36]
	.loc 1 3708 5 is_stmt 1 discriminator 2
	.loc 1 3708 21 is_stmt 0 discriminator 2
	strh	r3, [r4, #42]	@ movhi
	.loc 1 3709 5 is_stmt 1 discriminator 2
	.loc 1 3709 23 is_stmt 0 discriminator 2
	str	r1, [r4, #44]
	.loc 1 3710 5 is_stmt 1 discriminator 2
	.loc 1 3710 19 is_stmt 0 discriminator 2
	ldr	r3, .L530
.LVL544:
	str	r3, [r4, #52]
	.loc 1 3713 5 is_stmt 1 discriminator 2
	.loc 1 3713 13 is_stmt 0 discriminator 2
	ldrh	r3, [r4, #42]
	uxth	r3, r3
	.loc 1 3713 8 discriminator 2
	cmp	r3, #255
	bls	.L521
	.loc 1 3715 7 is_stmt 1
	.loc 1 3715 22 is_stmt 0
	movs	r3, #255
	strh	r3, [r4, #40]	@ movhi
	.loc 1 3716 7 is_stmt 1
.LVL545:
	.loc 1 3716 16 is_stmt 0
	mov	r6, #16777216
.LVL546:
.L522:
	.loc 1 3727 5 is_stmt 1
	.loc 1 3727 14 is_stmt 0
	ldr	r3, [r4, #48]
	.loc 1 3727 8
	cmp	r3, #18
	bne	.L523
	.loc 1 3727 255 discriminator 1
	cmp	r1, #43520
	it	ne
	cmpne	r1, #170
	bne	.L527
.L523:
	.loc 1 3735 7 is_stmt 1
	mov	r0, r4
	bl	I2C_ConvertOtherXferOptions
.LVL547:
	.loc 1 3738 7
	.loc 1 3738 15 is_stmt 0
	ldrh	r3, [r4, #42]
	uxth	r3, r3
	.loc 1 3738 10
	cmp	r3, #255
	bhi	.L528
	.loc 1 3740 9 is_stmt 1
	.loc 1 3740 18 is_stmt 0
	ldr	r6, [r4, #44]
.LVL548:
	.loc 1 3692 12
	ldr	r3, .L530+4
.L524:
.LVL549:
	.loc 1 3745 5 is_stmt 1
	str	r3, [sp]
	mov	r3, r6
.LVL550:
	ldrb	r2, [r4, #40]	@ zero_extendqisi2
	mov	r1, r5
	mov	r0, r4
	bl	I2C_TransferConfig
.LVL551:
	.loc 1 3748 5
	.loc 1 3748 9
	.loc 1 3748 22 is_stmt 0
	movs	r5, #0
	strb	r5, [r4, #64]
	.loc 1 3748 7 is_stmt 1
	.loc 1 3753 5
	movs	r1, #2
	mov	r0, r4
	bl	I2C_Enable_IRQ
.LVL552:
	.loc 1 3755 5
	.loc 1 3755 12 is_stmt 0
	mov	r0, r5
.LVL553:
.L520:
	.loc 1 3761 1
	add	sp, sp, #8
	.cfi_remember_state
	.cfi_def_cfa_offset 16
	@ sp needed
	pop	{r4, r5, r6, pc}
.LVL554:
.L521:
	.cfi_restore_state
	.loc 1 3720 7 is_stmt 1
	.loc 1 3720 28 is_stmt 0
	ldrh	r3, [r4, #42]
	.loc 1 3720 22
	strh	r3, [r4, #40]	@ movhi
	.loc 1 3721 7 is_stmt 1
	.loc 1 3721 16 is_stmt 0
	ldr	r6, [r4, #44]
.LVL555:
	b	.L522
.L527:
	.loc 1 3730 19
	movs	r3, #0
	b	.L524
.LVL556:
.L528:
	.loc 1 3692 12
	ldr	r3, .L530+4
	b	.L524
.LVL557:
.L525:
	.loc 1 3759 12
	movs	r0, #2
	b	.L520
.L526:
	.loc 1 3700 49
	movs	r0, #2
	b	.L520
.L531:
	.align	2
.L530:
	.word	I2C_Master_ISR_IT
	.word	-2147474432
	.cfi_endproc
.LFE360:
	.size	HAL_I2C_Master_Seq_Receive_IT, .-HAL_I2C_Master_Seq_Receive_IT
	.section	.text.HAL_I2C_Master_Seq_Receive_DMA,"ax",%progbits
	.align	1
	.global	HAL_I2C_Master_Seq_Receive_DMA
	.syntax unified
	.thumb
	.thumb_func
	.type	HAL_I2C_Master_Seq_Receive_DMA, %function
HAL_I2C_Master_Seq_Receive_DMA:
.LFB361:
	.loc 1 3777 1 is_stmt 1
	.cfi_startproc
	@ args = 4, pretend = 0, frame = 0
	@ frame_needed = 0, uses_anonymous_args = 0
.LVL558:
	push	{r4, r5, r6, r7, r8, lr}
	.cfi_def_cfa_offset 24
	.cfi_offset 4, -24
	.cfi_offset 5, -20
	.cfi_offset 6, -16
	.cfi_offset 7, -12
	.cfi_offset 8, -8
	.cfi_offset 14, -4
	sub	sp, sp, #8
	.cfi_def_cfa_offset 32
	mov	r4, r0
	mov	r5, r2
	ldr	r2, [sp, #32]
.LVL559:
	.loc 1 3778 3
	.loc 1 3779 3
	.loc 1 3780 3
	.loc 1 3783 3
	.loc 1 3785 3
	.loc 1 3785 11 is_stmt 0
	ldrb	r0, [r0, #65]	@ zero_extendqisi2
.LVL560:
	uxtb	r0, r0
	.loc 1 3785 6
	cmp	r0, #32
	bne	.L543
	mov	r6, r1
	.loc 1 3788 5 is_stmt 1
	.loc 1 3788 9
	.loc 1 3788 18 is_stmt 0
	ldrb	r1, [r4, #64]	@ zero_extendqisi2
.LVL561:
	.loc 1 3788 11
	cmp	r1, #1
	beq	.L544
	.loc 1 3788 68 is_stmt 1 discriminator 2
	.loc 1 3788 81 is_stmt 0 discriminator 2
	movs	r1, #1
	strb	r1, [r4, #64]
	.loc 1 3788 7 is_stmt 1 discriminator 2
	.loc 1 3790 5 discriminator 2
	.loc 1 3790 17 is_stmt 0 discriminator 2
	movs	r1, #34
	strb	r1, [r4, #65]
	.loc 1 3791 5 is_stmt 1 discriminator 2
	.loc 1 3791 16 is_stmt 0 discriminator 2
	movs	r1, #16
	strb	r1, [r4, #66]
	.loc 1 3792 5 is_stmt 1 discriminator 2
	.loc 1 3792 21 is_stmt 0 discriminator 2
	movs	r1, #0
	str	r1, [r4, #68]
	.loc 1 3795 5 is_stmt 1 discriminator 2
	.loc 1 3795 20 is_stmt 0 discriminator 2
	str	r5, [r4, #36]
	.loc 1 3796 5 is_stmt 1 discriminator 2
	.loc 1 3796 21 is_stmt 0 discriminator 2
	strh	r3, [r4, #42]	@ movhi
	.loc 1 3797 5 is_stmt 1 discriminator 2
	.loc 1 3797 23 is_stmt 0 discriminator 2
	str	r2, [r4, #44]
	.loc 1 3798 5 is_stmt 1 discriminator 2
	.loc 1 3798 19 is_stmt 0 discriminator 2
	ldr	r3, .L550
.LVL562:
	str	r3, [r4, #52]
	.loc 1 3801 5 is_stmt 1 discriminator 2
	.loc 1 3801 13 is_stmt 0 discriminator 2
	ldrh	r3, [r4, #42]
	uxth	r3, r3
	.loc 1 3801 8 discriminator 2
	cmp	r3, #255
	bls	.L534
	.loc 1 3803 7 is_stmt 1
	.loc 1 3803 22 is_stmt 0
	movs	r3, #255
	strh	r3, [r4, #40]	@ movhi
	.loc 1 3804 7 is_stmt 1
.LVL563:
	.loc 1 3804 16 is_stmt 0
	mov	r7, #16777216
.LVL564:
.L535:
	.loc 1 3815 5 is_stmt 1
	.loc 1 3815 14 is_stmt 0
	ldr	r3, [r4, #48]
	.loc 1 3815 8
	cmp	r3, #18
	bne	.L536
	.loc 1 3815 255 discriminator 1
	cmp	r2, #43520
	it	ne
	cmpne	r2, #170
	bne	.L545
.L536:
	.loc 1 3823 7 is_stmt 1
	mov	r0, r4
	bl	I2C_ConvertOtherXferOptions
.LVL565:
	.loc 1 3826 7
	.loc 1 3826 15 is_stmt 0
	ldrh	r3, [r4, #42]
	uxth	r3, r3
	.loc 1 3826 10
	cmp	r3, #255
	bhi	.L546
	.loc 1 3828 9 is_stmt 1
	.loc 1 3828 18 is_stmt 0
	ldr	r7, [r4, #44]
.LVL566:
	.loc 1 3779 12
	ldr	r8, .L550+16
.L537:
.LVL567:
	.loc 1 3832 5 is_stmt 1
	.loc 1 3832 13 is_stmt 0
	ldrh	r2, [r4, #40]
	.loc 1 3832 8
	cmp	r2, #0
	beq	.L538
	.loc 1 3834 7 is_stmt 1
	.loc 1 3834 15 is_stmt 0
	ldr	r3, [r4, #60]
	.loc 1 3834 10
	cbz	r3, .L539
	.loc 1 3837 9 is_stmt 1
	.loc 1 3837 40 is_stmt 0
	ldr	r2, .L550+4
	str	r2, [r3, #60]
	.loc 1 3840 9 is_stmt 1
	.loc 1 3840 13 is_stmt 0
	ldr	r3, [r4, #60]
	.loc 1 3840 41
	ldr	r2, .L550+8
	str	r2, [r3, #76]
	.loc 1 3843 9 is_stmt 1
	.loc 1 3843 13 is_stmt 0
	ldr	r2, [r4, #60]
	.loc 1 3843 44
	movs	r3, #0
	str	r3, [r2, #64]
	.loc 1 3844 9 is_stmt 1
	.loc 1 3844 13 is_stmt 0
	ldr	r2, [r4, #60]
	.loc 1 3844 41
	str	r3, [r2, #80]
	.loc 1 3847 9 is_stmt 1
	.loc 1 3847 71 is_stmt 0
	ldr	r1, [r4]
	.loc 1 3847 25
	ldrh	r3, [r4, #40]
	mov	r2, r5
	adds	r1, r1, #36
	ldr	r0, [r4, #60]
	bl	HAL_DMA_Start_IT
.LVL568:
	.loc 1 3865 7 is_stmt 1
	.loc 1 3865 10 is_stmt 0
	cbz	r0, .L549
	.loc 1 3888 9 is_stmt 1
	.loc 1 3888 21 is_stmt 0
	movs	r3, #32
	strb	r3, [r4, #65]
	.loc 1 3889 9 is_stmt 1
	.loc 1 3889 20 is_stmt 0
	movs	r2, #0
	strb	r2, [r4, #66]
	.loc 1 3892 9 is_stmt 1
	.loc 1 3892 13 is_stmt 0
	ldr	r3, [r4, #68]
	.loc 1 3892 25
	orr	r3, r3, #16
	str	r3, [r4, #68]
	.loc 1 3895 9 is_stmt 1
	.loc 1 3895 13
	.loc 1 3895 26 is_stmt 0
	strb	r2, [r4, #64]
	.loc 1 3895 11 is_stmt 1
	.loc 1 3897 9
	.loc 1 3897 16 is_stmt 0
	movs	r0, #1
.LVL569:
	b	.L533
.LVL570:
.L534:
	.loc 1 3808 7 is_stmt 1
	.loc 1 3808 28 is_stmt 0
	ldrh	r3, [r4, #42]
	.loc 1 3808 22
	strh	r3, [r4, #40]	@ movhi
	.loc 1 3809 7 is_stmt 1
	.loc 1 3809 16 is_stmt 0
	ldr	r7, [r4, #44]
.LVL571:
	b	.L535
.L545:
	.loc 1 3818 19
	mov	r8, #0
	b	.L537
.L546:
	.loc 1 3779 12
	ldr	r8, .L550+16
	b	.L537
.LVL572:
.L539:
	.loc 1 3853 9 is_stmt 1
	.loc 1 3853 21 is_stmt 0
	movs	r3, #32
	strb	r3, [r4, #65]
	.loc 1 3854 9 is_stmt 1
	.loc 1 3854 20 is_stmt 0
	movs	r2, #0
	strb	r2, [r4, #66]
	.loc 1 3857 9 is_stmt 1
	.loc 1 3857 13 is_stmt 0
	ldr	r3, [r4, #68]
	.loc 1 3857 25
	orr	r3, r3, #128
	str	r3, [r4, #68]
	.loc 1 3860 9 is_stmt 1
	.loc 1 3860 13
	.loc 1 3860 26 is_stmt 0
	strb	r2, [r4, #64]
	.loc 1 3860 11 is_stmt 1
	.loc 1 3862 9
	.loc 1 3862 16 is_stmt 0
	movs	r0, #1
	b	.L533
.LVL573:
.L549:
	.loc 1 3868 9 is_stmt 1
	str	r8, [sp]
	mov	r3, r7
	ldrb	r2, [r4, #40]	@ zero_extendqisi2
	mov	r1, r6
	mov	r0, r4
.LVL574:
	bl	I2C_TransferConfig
.LVL575:
	.loc 1 3871 9
	.loc 1 3871 13 is_stmt 0
	ldrh	r3, [r4, #42]
	uxth	r3, r3
	.loc 1 3871 32
	ldrh	r2, [r4, #40]
	.loc 1 3871 25
	subs	r3, r3, r2
	uxth	r3, r3
	strh	r3, [r4, #42]	@ movhi
	.loc 1 3874 9 is_stmt 1
	.loc 1 3874 13
	.loc 1 3874 26 is_stmt 0
	movs	r3, #0
	strb	r3, [r4, #64]
	.loc 1 3874 11 is_stmt 1
	.loc 1 3880 9
	movs	r1, #16
	mov	r0, r4
	bl	I2C_Enable_IRQ
.LVL576:
	.loc 1 3883 9
	.loc 1 3883 13 is_stmt 0
	ldr	r2, [r4]
	.loc 1 3883 23
	ldr	r3, [r2]
	.loc 1 3883 29
	orr	r3, r3, #32768
	str	r3, [r2]
	b	.L542
.LVL577:
.L538:
	.loc 1 3903 7 is_stmt 1
	.loc 1 3903 21 is_stmt 0
	ldr	r3, .L550+12
	str	r3, [r4, #52]
	.loc 1 3907 7 is_stmt 1
	ldr	r3, .L550+16
	str	r3, [sp]
	mov	r3, #33554432
	uxtb	r2, r2
	mov	r1, r6
	mov	r0, r4
	bl	I2C_TransferConfig
.LVL578:
	.loc 1 3911 7
	.loc 1 3911 11
	.loc 1 3911 24 is_stmt 0
	movs	r3, #0
	strb	r3, [r4, #64]
	.loc 1 3911 9 is_stmt 1
	.loc 1 3920 7
	movs	r1, #2
	mov	r0, r4
	bl	I2C_Enable_IRQ
.LVL579:
.L542:
	.loc 1 3923 5
	.loc 1 3923 12 is_stmt 0
	movs	r0, #0
	b	.L533
.LVL580:
.L543:
	.loc 1 3927 12
	movs	r0, #2
.LVL581:
.L533:
	.loc 1 3929 1
	add	sp, sp, #8
	.cfi_remember_state
	.cfi_def_cfa_offset 24
	@ sp needed
	pop	{r4, r5, r6, r7, r8, pc}
.LVL582:
.L544:
	.cfi_restore_state
	.loc 1 3788 49
	movs	r0, #2
	b	.L533
.L551:
	.align	2
.L550:
	.word	I2C_Master_ISR_DMA
	.word	I2C_DMAMasterReceiveCplt
	.word	I2C_DMAError
	.word	I2C_Master_ISR_IT
	.word	-2147474432
	.cfi_endproc
.LFE361:
	.size	HAL_I2C_Master_Seq_Receive_DMA, .-HAL_I2C_Master_Seq_Receive_DMA
	.section	.text.HAL_I2C_Slave_Seq_Transmit_IT,"ax",%progbits
	.align	1
	.global	HAL_I2C_Slave_Seq_Transmit_IT
	.syntax unified
	.thumb
	.thumb_func
	.type	HAL_I2C_Slave_Seq_Transmit_IT, %function
HAL_I2C_Slave_Seq_Transmit_IT:
.LFB362:
	.loc 1 3943 1 is_stmt 1
	.cfi_startproc
	@ args = 0, pretend = 0, frame = 0
	@ frame_needed = 0, uses_anonymous_args = 0
.LVL583:
	push	{r3, r4, r5, r6, r7, lr}
	.cfi_def_cfa_offset 24
	.cfi_offset 3, -24
	.cfi_offset 4, -20
	.cfi_offset 5, -16
	.cfi_offset 6, -12
	.cfi_offset 7, -8
	.cfi_offset 14, -4
	mov	r4, r0
	.loc 1 3945 3
	.loc 1 3948 3
	.loc 1 3950 3
	.loc 1 3950 22 is_stmt 0
	ldrb	r0, [r0, #65]	@ zero_extendqisi2
.LVL584:
	.loc 1 3950 6
	and	r0, r0, #40
	cmp	r0, #40
	bne	.L557
	mov	r7, r1
	mov	r6, r2
	mov	r5, r3
	.loc 1 3952 5 is_stmt 1
	.loc 1 3952 8 is_stmt 0
	cmp	r2, #0
	it	ne
	cmpne	r1, #0
	bne	.L554
	.loc 1 3954 7 is_stmt 1
	.loc 1 3954 23 is_stmt 0
	mov	r3, #512
.LVL585:
	str	r3, [r4, #68]
	.loc 1 3955 7 is_stmt 1
	.loc 1 3955 14 is_stmt 0
	movs	r0, #1
	b	.L553
.LVL586:
.L554:
	.loc 1 3959 5 is_stmt 1
	movw	r1, #32769
.LVL587:
	mov	r0, r4
	bl	I2C_Disable_IRQ
.LVL588:
	.loc 1 3962 5
	.loc 1 3962 9
	.loc 1 3962 18 is_stmt 0
	ldrb	r3, [r4, #64]	@ zero_extendqisi2
	.loc 1 3962 11
	cmp	r3, #1
	beq	.L558
	.loc 1 3962 68 is_stmt 1 discriminator 2
	.loc 1 3962 81 is_stmt 0 discriminator 2
	movs	r3, #1
	strb	r3, [r4, #64]
	.loc 1 3962 7 is_stmt 1 discriminator 2
	.loc 1 3966 5 discriminator 2
	.loc 1 3966 13 is_stmt 0 discriminator 2
	ldrb	r3, [r4, #65]	@ zero_extendqisi2
	uxtb	r3, r3
	.loc 1 3966 8 discriminator 2
	cmp	r3, #42
	beq	.L560
.L555:
	.loc 1 3992 5 is_stmt 1
	.loc 1 3992 17 is_stmt 0
	movs	r3, #41
	strb	r3, [r4, #65]
	.loc 1 3993 5 is_stmt 1
	.loc 1 3993 16 is_stmt 0
	movs	r3, #32
	strb	r3, [r4, #66]
	.loc 1 3994 5 is_stmt 1
	.loc 1 3994 21 is_stmt 0
	movs	r3, #0
	str	r3, [r4, #68]
	.loc 1 3997 5 is_stmt 1
	.loc 1 3997 9 is_stmt 0
	ldr	r2, [r4]
	.loc 1 3997 19
	ldr	r3, [r2, #4]
	.loc 1 3997 25
	bic	r3, r3, #32768
	str	r3, [r2, #4]
	.loc 1 4000 5 is_stmt 1
	.loc 1 4000 20 is_stmt 0
	str	r7, [r4, #36]
	.loc 1 4001 5 is_stmt 1
	.loc 1 4001 21 is_stmt 0
	strh	r6, [r4, #42]	@ movhi
	.loc 1 4002 5 is_stmt 1
	.loc 1 4002 26 is_stmt 0
	ldrh	r3, [r4, #42]
	.loc 1 4002 20
	strh	r3, [r4, #40]	@ movhi
	.loc 1 4003 5 is_stmt 1
	.loc 1 4003 23 is_stmt 0
	str	r5, [r4, #44]
	.loc 1 4004 5 is_stmt 1
	.loc 1 4004 19 is_stmt 0
	ldr	r3, .L561
	str	r3, [r4, #52]
	.loc 1 4006 5 is_stmt 1
	.loc 1 4006 21 is_stmt 0
	ldr	r2, [r4]
	.loc 1 4006 31
	ldr	r3, [r2, #24]
	.loc 1 4006 38
	and	r3, r3, #8
.LVL589:
	.loc 1 4007 5 is_stmt 1
	.loc 1 4007 38 is_stmt 0
	ldr	r1, [r2, #24]
	.loc 1 4007 8
	tst	r1, #65536
	beq	.L556
	.loc 1 4007 91 discriminator 1
	cbz	r3, .L556
	.loc 1 4011 7 is_stmt 1
	.loc 1 4011 94 is_stmt 0
	movs	r3, #8
.LVL590:
	str	r3, [r2, #28]
.L556:
	.loc 1 4015 5 is_stmt 1
	.loc 1 4015 9
	.loc 1 4015 22 is_stmt 0
	movs	r5, #0
.LVL591:
	strb	r5, [r4, #64]
	.loc 1 4015 7 is_stmt 1
	.loc 1 4021 5
	movw	r1, #32769
	mov	r0, r4
	bl	I2C_Enable_IRQ
.LVL592:
	.loc 1 4023 5
	.loc 1 4023 12 is_stmt 0
	mov	r0, r5
	b	.L553
.LVL593:
.L560:
	.loc 1 3969 7 is_stmt 1
	movs	r1, #2
	mov	r0, r4
	bl	I2C_Disable_IRQ
.LVL594:
	.loc 1 3972 7
	.loc 1 3972 16 is_stmt 0
	ldr	r3, [r4]
	.loc 1 3972 26
	ldr	r2, [r3]
	.loc 1 3972 10
	tst	r2, #32768
	beq	.L555
	.loc 1 3974 9 is_stmt 1
	.loc 1 3974 23 is_stmt 0
	ldr	r2, [r3]
	.loc 1 3974 29
	bic	r2, r2, #32768
	str	r2, [r3]
	.loc 1 3976 9 is_stmt 1
	.loc 1 3976 17 is_stmt 0
	ldr	r3, [r4, #60]
	.loc 1 3976 12
	cmp	r3, #0
	beq	.L555
	.loc 1 3980 11 is_stmt 1
	.loc 1 3980 43 is_stmt 0
	ldr	r2, .L561+4
	str	r2, [r3, #80]
	.loc 1 3983 11 is_stmt 1
	.loc 1 3983 15 is_stmt 0
	ldr	r0, [r4, #60]
	bl	HAL_DMA_Abort_IT
.LVL595:
	.loc 1 3983 14
	cmp	r0, #0
	beq	.L555
	.loc 1 3986 13 is_stmt 1
	.loc 1 3986 17 is_stmt 0
	ldr	r0, [r4, #60]
	.loc 1 3986 25
	ldr	r3, [r0, #80]
	.loc 1 3986 13
	blx	r3
.LVL596:
	b	.L555
.LVL597:
.L557:
	.loc 1 4027 12
	movs	r0, #1
.LVL598:
.L553:
	.loc 1 4029 1
	pop	{r3, r4, r5, r6, r7, pc}
.LVL599:
.L558:
	.loc 1 3962 49
	movs	r0, #2
	b	.L553
.L562:
	.align	2
.L561:
	.word	I2C_Slave_ISR_IT
	.word	I2C_DMAAbort
	.cfi_endproc
.LFE362:
	.size	HAL_I2C_Slave_Seq_Transmit_IT, .-HAL_I2C_Slave_Seq_Transmit_IT
	.section	.text.HAL_I2C_Slave_Seq_Transmit_DMA,"ax",%progbits
	.align	1
	.global	HAL_I2C_Slave_Seq_Transmit_DMA
	.syntax unified
	.thumb
	.thumb_func
	.type	HAL_I2C_Slave_Seq_Transmit_DMA, %function
HAL_I2C_Slave_Seq_Transmit_DMA:
.LFB363:
	.loc 1 4043 1 is_stmt 1
	.cfi_startproc
	@ args = 0, pretend = 0, frame = 0
	@ frame_needed = 0, uses_anonymous_args = 0
.LVL600:
	push	{r3, r4, r5, r6, r7, lr}
	.cfi_def_cfa_offset 24
	.cfi_offset 3, -24
	.cfi_offset 4, -20
	.cfi_offset 5, -16
	.cfi_offset 6, -12
	.cfi_offset 7, -8
	.cfi_offset 14, -4
	mov	r4, r0
	.loc 1 4045 3
	.loc 1 4046 3
	.loc 1 4049 3
	.loc 1 4051 3
	.loc 1 4051 22 is_stmt 0
	ldrb	r0, [r0, #65]	@ zero_extendqisi2
.LVL601:
	.loc 1 4051 6
	and	r0, r0, #40
	cmp	r0, #40
	bne	.L573
	mov	r7, r1
	mov	r6, r2
	mov	r5, r3
	.loc 1 4053 5 is_stmt 1
	.loc 1 4053 8 is_stmt 0
	cmp	r2, #0
	it	ne
	cmpne	r1, #0
	beq	.L577
	.loc 1 4060 5 is_stmt 1
	.loc 1 4060 9
	.loc 1 4060 18 is_stmt 0
	ldrb	r3, [r4, #64]	@ zero_extendqisi2
.LVL602:
	.loc 1 4060 11
	cmp	r3, #1
	beq	.L574
	.loc 1 4060 68 is_stmt 1 discriminator 2
	.loc 1 4060 81 is_stmt 0 discriminator 2
	movs	r3, #1
	strb	r3, [r4, #64]
	.loc 1 4060 7 is_stmt 1 discriminator 2
	.loc 1 4063 5 discriminator 2
	movw	r1, #32769
.LVL603:
	mov	r0, r4
	bl	I2C_Disable_IRQ
.LVL604:
	.loc 1 4067 5 discriminator 2
	.loc 1 4067 13 is_stmt 0 discriminator 2
	ldrb	r3, [r4, #65]	@ zero_extendqisi2
	uxtb	r3, r3
	.loc 1 4067 8 discriminator 2
	cmp	r3, #42
	beq	.L578
	.loc 1 4092 10 is_stmt 1
	.loc 1 4092 18 is_stmt 0
	ldrb	r3, [r4, #65]	@ zero_extendqisi2
	uxtb	r3, r3
	.loc 1 4092 13
	cmp	r3, #41
	beq	.L579
.L567:
	.loc 1 4117 5 is_stmt 1
	.loc 1 4119 5
	.loc 1 4119 17 is_stmt 0
	movs	r3, #41
	strb	r3, [r4, #65]
	.loc 1 4120 5 is_stmt 1
	.loc 1 4120 16 is_stmt 0
	movs	r3, #32
	strb	r3, [r4, #66]
	.loc 1 4121 5 is_stmt 1
	.loc 1 4121 21 is_stmt 0
	movs	r3, #0
	str	r3, [r4, #68]
	.loc 1 4124 5 is_stmt 1
	.loc 1 4124 9 is_stmt 0
	ldr	r2, [r4]
	.loc 1 4124 19
	ldr	r3, [r2, #4]
	.loc 1 4124 25
	bic	r3, r3, #32768
	str	r3, [r2, #4]
	.loc 1 4127 5 is_stmt 1
	.loc 1 4127 20 is_stmt 0
	str	r7, [r4, #36]
	.loc 1 4128 5 is_stmt 1
	.loc 1 4128 21 is_stmt 0
	strh	r6, [r4, #42]	@ movhi
	.loc 1 4129 5 is_stmt 1
	.loc 1 4129 26 is_stmt 0
	ldrh	r3, [r4, #42]
	.loc 1 4129 20
	strh	r3, [r4, #40]	@ movhi
	.loc 1 4130 5 is_stmt 1
	.loc 1 4130 23 is_stmt 0
	str	r5, [r4, #44]
	.loc 1 4131 5 is_stmt 1
	.loc 1 4131 19 is_stmt 0
	ldr	r3, .L580
	str	r3, [r4, #52]
	.loc 1 4133 5 is_stmt 1
	.loc 1 4133 13 is_stmt 0
	ldr	r3, [r4, #56]
	.loc 1 4133 8
	cmp	r3, #0
	beq	.L568
	.loc 1 4136 7 is_stmt 1
	.loc 1 4136 38 is_stmt 0
	ldr	r2, .L580+4
	str	r2, [r3, #60]
	.loc 1 4139 7 is_stmt 1
	.loc 1 4139 11 is_stmt 0
	ldr	r3, [r4, #56]
	.loc 1 4139 39
	ldr	r2, .L580+8
	str	r2, [r3, #76]
	.loc 1 4142 7 is_stmt 1
	.loc 1 4142 11 is_stmt 0
	ldr	r2, [r4, #56]
	.loc 1 4142 42
	movs	r3, #0
	str	r3, [r2, #64]
	.loc 1 4143 7 is_stmt 1
	.loc 1 4143 11 is_stmt 0
	ldr	r2, [r4, #56]
	.loc 1 4143 39
	str	r3, [r2, #80]
	.loc 1 4146 7 is_stmt 1
	.loc 1 4146 86 is_stmt 0
	ldr	r2, [r4]
	.loc 1 4146 23
	ldrh	r3, [r4, #40]
	adds	r2, r2, #40
	mov	r1, r7
	ldr	r0, [r4, #56]
	bl	HAL_DMA_Start_IT
.LVL605:
	.loc 1 4164 5 is_stmt 1
	.loc 1 4164 8 is_stmt 0
	mov	r5, r0
.LVL606:
	cmp	r0, #0
	beq	.L569
	.loc 1 4175 7 is_stmt 1
	.loc 1 4175 19 is_stmt 0
	movs	r3, #40
	strb	r3, [r4, #65]
	.loc 1 4176 7 is_stmt 1
	.loc 1 4176 18 is_stmt 0
	movs	r2, #0
	strb	r2, [r4, #66]
	.loc 1 4179 7 is_stmt 1
	.loc 1 4179 11 is_stmt 0
	ldr	r3, [r4, #68]
	.loc 1 4179 23
	orr	r3, r3, #16
	str	r3, [r4, #68]
	.loc 1 4182 7 is_stmt 1
	.loc 1 4182 11
	.loc 1 4182 24 is_stmt 0
	strb	r2, [r4, #64]
	.loc 1 4182 9 is_stmt 1
	.loc 1 4184 7
	.loc 1 4184 14 is_stmt 0
	movs	r5, #1
	b	.L564
.LVL607:
.L577:
	.loc 1 4055 7 is_stmt 1
	.loc 1 4055 23 is_stmt 0
	mov	r3, #512
.LVL608:
	str	r3, [r4, #68]
	.loc 1 4056 7 is_stmt 1
	.loc 1 4056 14 is_stmt 0
	movs	r5, #1
.LVL609:
	b	.L564
.LVL610:
.L578:
	.loc 1 4070 7 is_stmt 1
	movs	r1, #2
	mov	r0, r4
	bl	I2C_Disable_IRQ
.LVL611:
	.loc 1 4072 7
	.loc 1 4072 16 is_stmt 0
	ldr	r3, [r4]
	.loc 1 4072 26
	ldr	r2, [r3]
	.loc 1 4072 10
	tst	r2, #32768
	beq	.L567
	.loc 1 4075 9 is_stmt 1
	.loc 1 4075 17 is_stmt 0
	ldr	r2, [r4, #60]
	.loc 1 4075 12
	cmp	r2, #0
	beq	.L567
	.loc 1 4077 11 is_stmt 1
	.loc 1 4077 25 is_stmt 0
	ldr	r2, [r3]
	.loc 1 4077 31
	bic	r2, r2, #32768
	str	r2, [r3]
	.loc 1 4081 11 is_stmt 1
	.loc 1 4081 15 is_stmt 0
	ldr	r3, [r4, #60]
	.loc 1 4081 43
	ldr	r2, .L580+12
	str	r2, [r3, #80]
	.loc 1 4084 11 is_stmt 1
	.loc 1 4084 15 is_stmt 0
	ldr	r0, [r4, #60]
	bl	HAL_DMA_Abort_IT
.LVL612:
	.loc 1 4084 14
	cmp	r0, #0
	beq	.L567
	.loc 1 4087 13 is_stmt 1
	.loc 1 4087 17 is_stmt 0
	ldr	r0, [r4, #60]
	.loc 1 4087 25
	ldr	r3, [r0, #80]
	.loc 1 4087 13
	blx	r3
.LVL613:
	b	.L567
.L579:
	.loc 1 4094 7 is_stmt 1
	.loc 1 4094 16 is_stmt 0
	ldr	r3, [r4]
	.loc 1 4094 26
	ldr	r2, [r3]
	.loc 1 4094 10
	tst	r2, #16384
	beq	.L567
	.loc 1 4096 9 is_stmt 1
	.loc 1 4096 23 is_stmt 0
	ldr	r2, [r3]
	.loc 1 4096 29
	bic	r2, r2, #16384
	str	r2, [r3]
	.loc 1 4099 9 is_stmt 1
	.loc 1 4099 17 is_stmt 0
	ldr	r3, [r4, #56]
	.loc 1 4099 12
	cmp	r3, #0
	beq	.L567
	.loc 1 4103 11 is_stmt 1
	.loc 1 4103 43 is_stmt 0
	ldr	r2, .L580+12
	str	r2, [r3, #80]
	.loc 1 4106 11 is_stmt 1
	.loc 1 4106 15 is_stmt 0
	ldr	r0, [r4, #56]
	bl	HAL_DMA_Abort_IT
.LVL614:
	.loc 1 4106 14
	cmp	r0, #0
	beq	.L567
	.loc 1 4109 13 is_stmt 1
	.loc 1 4109 17 is_stmt 0
	ldr	r0, [r4, #56]
	.loc 1 4109 25
	ldr	r3, [r0, #80]
	.loc 1 4109 13
	blx	r3
.LVL615:
	b	.L567
.L568:
	.loc 1 4152 7 is_stmt 1
	.loc 1 4152 19 is_stmt 0
	movs	r3, #40
	strb	r3, [r4, #65]
	.loc 1 4153 7 is_stmt 1
	.loc 1 4153 18 is_stmt 0
	movs	r2, #0
	strb	r2, [r4, #66]
	.loc 1 4156 7 is_stmt 1
	.loc 1 4156 11 is_stmt 0
	ldr	r3, [r4, #68]
	.loc 1 4156 23
	orr	r3, r3, #128
	str	r3, [r4, #68]
	.loc 1 4159 7 is_stmt 1
	.loc 1 4159 11
	.loc 1 4159 24 is_stmt 0
	strb	r2, [r4, #64]
	.loc 1 4159 9 is_stmt 1
	.loc 1 4161 7
	.loc 1 4161 14 is_stmt 0
	movs	r5, #1
.LVL616:
	b	.L564
.LVL617:
.L569:
	.loc 1 4167 7 is_stmt 1
	.loc 1 4167 11 is_stmt 0
	ldrh	r3, [r4, #42]
	uxth	r3, r3
	.loc 1 4167 30
	ldrh	r2, [r4, #40]
	.loc 1 4167 23
	subs	r3, r3, r2
	uxth	r3, r3
	strh	r3, [r4, #42]	@ movhi
	.loc 1 4170 7 is_stmt 1
	.loc 1 4170 22 is_stmt 0
	movs	r3, #0
	strh	r3, [r4, #40]	@ movhi
	.loc 1 4187 5 is_stmt 1
	.loc 1 4187 21 is_stmt 0
	ldr	r2, [r4]
	.loc 1 4187 31
	ldr	r3, [r2, #24]
	.loc 1 4187 38
	and	r3, r3, #8
.LVL618:
	.loc 1 4188 5 is_stmt 1
	.loc 1 4188 38 is_stmt 0
	ldr	r1, [r2, #24]
	.loc 1 4188 8
	tst	r1, #65536
	bne	.L571
.LVL619:
.L572:
	.loc 1 4196 5 is_stmt 1
	.loc 1 4196 9
	.loc 1 4196 22 is_stmt 0
	movs	r3, #0
	strb	r3, [r4, #64]
	.loc 1 4196 7 is_stmt 1
	.loc 1 4199 5
	.loc 1 4199 9 is_stmt 0
	ldr	r2, [r4]
	.loc 1 4199 19
	ldr	r3, [r2]
	.loc 1 4199 25
	orr	r3, r3, #16384
	str	r3, [r2]
	.loc 1 4205 5 is_stmt 1
	mov	r1, #32768
	mov	r0, r4
.LVL620:
	bl	I2C_Enable_IRQ
.LVL621:
	.loc 1 4207 5
	.loc 1 4207 12 is_stmt 0
	b	.L564
.LVL622:
.L571:
	.loc 1 4188 91 discriminator 1
	cmp	r3, #0
	beq	.L572
	.loc 1 4192 7 is_stmt 1
	.loc 1 4192 94 is_stmt 0
	movs	r3, #8
.LVL623:
	str	r3, [r2, #28]
	b	.L572
.LVL624:
.L573:
	.loc 1 4211 12
	movs	r5, #1
.LVL625:
.L564:
	.loc 1 4213 1
	mov	r0, r5
	pop	{r3, r4, r5, r6, r7, pc}
.LVL626:
.L574:
	.loc 1 4060 49
	movs	r5, #2
.LVL627:
	b	.L564
.L581:
	.align	2
.L580:
	.word	I2C_Slave_ISR_DMA
	.word	I2C_DMASlaveTransmitCplt
	.word	I2C_DMAError
	.word	I2C_DMAAbort
	.cfi_endproc
.LFE363:
	.size	HAL_I2C_Slave_Seq_Transmit_DMA, .-HAL_I2C_Slave_Seq_Transmit_DMA
	.section	.text.HAL_I2C_Slave_Seq_Receive_IT,"ax",%progbits
	.align	1
	.global	HAL_I2C_Slave_Seq_Receive_IT
	.syntax unified
	.thumb
	.thumb_func
	.type	HAL_I2C_Slave_Seq_Receive_IT, %function
HAL_I2C_Slave_Seq_Receive_IT:
.LFB364:
	.loc 1 4227 1 is_stmt 1
	.cfi_startproc
	@ args = 0, pretend = 0, frame = 0
	@ frame_needed = 0, uses_anonymous_args = 0
.LVL628:
	push	{r3, r4, r5, r6, r7, lr}
	.cfi_def_cfa_offset 24
	.cfi_offset 3, -24
	.cfi_offset 4, -20
	.cfi_offset 5, -16
	.cfi_offset 6, -12
	.cfi_offset 7, -8
	.cfi_offset 14, -4
	mov	r4, r0
	.loc 1 4229 3
	.loc 1 4232 3
	.loc 1 4234 3
	.loc 1 4234 22 is_stmt 0
	ldrb	r0, [r0, #65]	@ zero_extendqisi2
.LVL629:
	.loc 1 4234 6
	and	r0, r0, #40
	cmp	r0, #40
	bne	.L587
	mov	r7, r1
	mov	r6, r2
	mov	r5, r3
	.loc 1 4236 5 is_stmt 1
	.loc 1 4236 8 is_stmt 0
	cmp	r2, #0
	it	ne
	cmpne	r1, #0
	bne	.L584
	.loc 1 4238 7 is_stmt 1
	.loc 1 4238 23 is_stmt 0
	mov	r3, #512
.LVL630:
	str	r3, [r4, #68]
	.loc 1 4239 7 is_stmt 1
	.loc 1 4239 14 is_stmt 0
	movs	r0, #1
	b	.L583
.LVL631:
.L584:
	.loc 1 4243 5 is_stmt 1
	movw	r1, #32770
.LVL632:
	mov	r0, r4
	bl	I2C_Disable_IRQ
.LVL633:
	.loc 1 4246 5
	.loc 1 4246 9
	.loc 1 4246 18 is_stmt 0
	ldrb	r3, [r4, #64]	@ zero_extendqisi2
	.loc 1 4246 11
	cmp	r3, #1
	beq	.L588
	.loc 1 4246 68 is_stmt 1 discriminator 2
	.loc 1 4246 81 is_stmt 0 discriminator 2
	movs	r3, #1
	strb	r3, [r4, #64]
	.loc 1 4246 7 is_stmt 1 discriminator 2
	.loc 1 4250 5 discriminator 2
	.loc 1 4250 13 is_stmt 0 discriminator 2
	ldrb	r3, [r4, #65]	@ zero_extendqisi2
	uxtb	r3, r3
	.loc 1 4250 8 discriminator 2
	cmp	r3, #41
	beq	.L590
.L585:
	.loc 1 4276 5 is_stmt 1
	.loc 1 4276 17 is_stmt 0
	movs	r3, #42
	strb	r3, [r4, #65]
	.loc 1 4277 5 is_stmt 1
	.loc 1 4277 16 is_stmt 0
	movs	r3, #32
	strb	r3, [r4, #66]
	.loc 1 4278 5 is_stmt 1
	.loc 1 4278 21 is_stmt 0
	movs	r3, #0
	str	r3, [r4, #68]
	.loc 1 4281 5 is_stmt 1
	.loc 1 4281 9 is_stmt 0
	ldr	r2, [r4]
	.loc 1 4281 19
	ldr	r3, [r2, #4]
	.loc 1 4281 25
	bic	r3, r3, #32768
	str	r3, [r2, #4]
	.loc 1 4284 5 is_stmt 1
	.loc 1 4284 20 is_stmt 0
	str	r7, [r4, #36]
	.loc 1 4285 5 is_stmt 1
	.loc 1 4285 21 is_stmt 0
	strh	r6, [r4, #42]	@ movhi
	.loc 1 4286 5 is_stmt 1
	.loc 1 4286 26 is_stmt 0
	ldrh	r3, [r4, #42]
	.loc 1 4286 20
	strh	r3, [r4, #40]	@ movhi
	.loc 1 4287 5 is_stmt 1
	.loc 1 4287 23 is_stmt 0
	str	r5, [r4, #44]
	.loc 1 4288 5 is_stmt 1
	.loc 1 4288 19 is_stmt 0
	ldr	r3, .L591
	str	r3, [r4, #52]
	.loc 1 4290 5 is_stmt 1
	.loc 1 4290 21 is_stmt 0
	ldr	r2, [r4]
	.loc 1 4290 31
	ldr	r3, [r2, #24]
	.loc 1 4290 38
	and	r3, r3, #8
.LVL634:
	.loc 1 4291 5 is_stmt 1
	.loc 1 4291 38 is_stmt 0
	ldr	r1, [r2, #24]
	.loc 1 4291 8
	tst	r1, #65536
	bne	.L586
	.loc 1 4291 91 discriminator 1
	cbz	r3, .L586
	.loc 1 4295 7 is_stmt 1
	.loc 1 4295 94 is_stmt 0
	movs	r3, #8
.LVL635:
	str	r3, [r2, #28]
.L586:
	.loc 1 4299 5 is_stmt 1
	.loc 1 4299 9
	.loc 1 4299 22 is_stmt 0
	movs	r5, #0
.LVL636:
	strb	r5, [r4, #64]
	.loc 1 4299 7 is_stmt 1
	.loc 1 4305 5
	movw	r1, #32770
	mov	r0, r4
	bl	I2C_Enable_IRQ
.LVL637:
	.loc 1 4307 5
	.loc 1 4307 12 is_stmt 0
	mov	r0, r5
	b	.L583
.LVL638:
.L590:
	.loc 1 4253 7 is_stmt 1
	movs	r1, #1
	mov	r0, r4
	bl	I2C_Disable_IRQ
.LVL639:
	.loc 1 4255 7
	.loc 1 4255 16 is_stmt 0
	ldr	r3, [r4]
	.loc 1 4255 26
	ldr	r2, [r3]
	.loc 1 4255 10
	tst	r2, #16384
	beq	.L585
	.loc 1 4257 9 is_stmt 1
	.loc 1 4257 23 is_stmt 0
	ldr	r2, [r3]
	.loc 1 4257 29
	bic	r2, r2, #16384
	str	r2, [r3]
	.loc 1 4260 9 is_stmt 1
	.loc 1 4260 17 is_stmt 0
	ldr	r3, [r4, #56]
	.loc 1 4260 12
	cmp	r3, #0
	beq	.L585
	.loc 1 4264 11 is_stmt 1
	.loc 1 4264 43 is_stmt 0
	ldr	r2, .L591+4
	str	r2, [r3, #80]
	.loc 1 4267 11 is_stmt 1
	.loc 1 4267 15 is_stmt 0
	ldr	r0, [r4, #56]
	bl	HAL_DMA_Abort_IT
.LVL640:
	.loc 1 4267 14
	cmp	r0, #0
	beq	.L585
	.loc 1 4270 13 is_stmt 1
	.loc 1 4270 17 is_stmt 0
	ldr	r0, [r4, #56]
	.loc 1 4270 25
	ldr	r3, [r0, #80]
	.loc 1 4270 13
	blx	r3
.LVL641:
	b	.L585
.LVL642:
.L587:
	.loc 1 4311 12
	movs	r0, #1
.LVL643:
.L583:
	.loc 1 4313 1
	pop	{r3, r4, r5, r6, r7, pc}
.LVL644:
.L588:
	.loc 1 4246 49
	movs	r0, #2
	b	.L583
.L592:
	.align	2
.L591:
	.word	I2C_Slave_ISR_IT
	.word	I2C_DMAAbort
	.cfi_endproc
.LFE364:
	.size	HAL_I2C_Slave_Seq_Receive_IT, .-HAL_I2C_Slave_Seq_Receive_IT
	.section	.text.HAL_I2C_Slave_Seq_Receive_DMA,"ax",%progbits
	.align	1
	.global	HAL_I2C_Slave_Seq_Receive_DMA
	.syntax unified
	.thumb
	.thumb_func
	.type	HAL_I2C_Slave_Seq_Receive_DMA, %function
HAL_I2C_Slave_Seq_Receive_DMA:
.LFB365:
	.loc 1 4327 1 is_stmt 1
	.cfi_startproc
	@ args = 0, pretend = 0, frame = 0
	@ frame_needed = 0, uses_anonymous_args = 0
.LVL645:
	push	{r3, r4, r5, r6, r7, lr}
	.cfi_def_cfa_offset 24
	.cfi_offset 3, -24
	.cfi_offset 4, -20
	.cfi_offset 5, -16
	.cfi_offset 6, -12
	.cfi_offset 7, -8
	.cfi_offset 14, -4
	mov	r4, r0
	.loc 1 4329 3
	.loc 1 4330 3
	.loc 1 4333 3
	.loc 1 4335 3
	.loc 1 4335 22 is_stmt 0
	ldrb	r0, [r0, #65]	@ zero_extendqisi2
.LVL646:
	.loc 1 4335 6
	and	r0, r0, #40
	cmp	r0, #40
	bne	.L603
	mov	r7, r1
	mov	r6, r2
	mov	r5, r3
	.loc 1 4337 5 is_stmt 1
	.loc 1 4337 8 is_stmt 0
	cmp	r2, #0
	it	ne
	cmpne	r1, #0
	bne	.L595
	.loc 1 4339 7 is_stmt 1
	.loc 1 4339 23 is_stmt 0
	mov	r3, #512
.LVL647:
	str	r3, [r4, #68]
	.loc 1 4340 7 is_stmt 1
	.loc 1 4340 14 is_stmt 0
	movs	r5, #1
.LVL648:
	b	.L594
.LVL649:
.L595:
	.loc 1 4344 5 is_stmt 1
	movw	r1, #32770
.LVL650:
	mov	r0, r4
	bl	I2C_Disable_IRQ
.LVL651:
	.loc 1 4347 5
	.loc 1 4347 9
	.loc 1 4347 18 is_stmt 0
	ldrb	r3, [r4, #64]	@ zero_extendqisi2
	.loc 1 4347 11
	cmp	r3, #1
	beq	.L604
	.loc 1 4347 68 is_stmt 1 discriminator 2
	.loc 1 4347 81 is_stmt 0 discriminator 2
	movs	r3, #1
	strb	r3, [r4, #64]
	.loc 1 4347 7 is_stmt 1 discriminator 2
	.loc 1 4351 5 discriminator 2
	.loc 1 4351 13 is_stmt 0 discriminator 2
	ldrb	r3, [r4, #65]	@ zero_extendqisi2
	uxtb	r3, r3
	.loc 1 4351 8 discriminator 2
	cmp	r3, #41
	beq	.L607
	.loc 1 4376 10 is_stmt 1
	.loc 1 4376 18 is_stmt 0
	ldrb	r3, [r4, #65]	@ zero_extendqisi2
	uxtb	r3, r3
	.loc 1 4376 13
	cmp	r3, #42
	beq	.L608
.L597:
	.loc 1 4401 5 is_stmt 1
	.loc 1 4403 5
	.loc 1 4403 17 is_stmt 0
	movs	r3, #42
	strb	r3, [r4, #65]
	.loc 1 4404 5 is_stmt 1
	.loc 1 4404 16 is_stmt 0
	movs	r3, #32
	strb	r3, [r4, #66]
	.loc 1 4405 5 is_stmt 1
	.loc 1 4405 21 is_stmt 0
	movs	r3, #0
	str	r3, [r4, #68]
	.loc 1 4408 5 is_stmt 1
	.loc 1 4408 9 is_stmt 0
	ldr	r2, [r4]
	.loc 1 4408 19
	ldr	r3, [r2, #4]
	.loc 1 4408 25
	bic	r3, r3, #32768
	str	r3, [r2, #4]
	.loc 1 4411 5 is_stmt 1
	.loc 1 4411 20 is_stmt 0
	str	r7, [r4, #36]
	.loc 1 4412 5 is_stmt 1
	.loc 1 4412 21 is_stmt 0
	strh	r6, [r4, #42]	@ movhi
	.loc 1 4413 5 is_stmt 1
	.loc 1 4413 26 is_stmt 0
	ldrh	r3, [r4, #42]
	.loc 1 4413 20
	strh	r3, [r4, #40]	@ movhi
	.loc 1 4414 5 is_stmt 1
	.loc 1 4414 23 is_stmt 0
	str	r5, [r4, #44]
	.loc 1 4415 5 is_stmt 1
	.loc 1 4415 19 is_stmt 0
	ldr	r3, .L609
	str	r3, [r4, #52]
	.loc 1 4417 5 is_stmt 1
	.loc 1 4417 13 is_stmt 0
	ldr	r3, [r4, #60]
	.loc 1 4417 8
	cmp	r3, #0
	beq	.L598
	.loc 1 4420 7 is_stmt 1
	.loc 1 4420 38 is_stmt 0
	ldr	r2, .L609+4
	str	r2, [r3, #60]
	.loc 1 4423 7 is_stmt 1
	.loc 1 4423 11 is_stmt 0
	ldr	r3, [r4, #60]
	.loc 1 4423 39
	ldr	r2, .L609+8
	str	r2, [r3, #76]
	.loc 1 4426 7 is_stmt 1
	.loc 1 4426 11 is_stmt 0
	ldr	r2, [r4, #60]
	.loc 1 4426 42
	movs	r3, #0
	str	r3, [r2, #64]
	.loc 1 4427 7 is_stmt 1
	.loc 1 4427 11 is_stmt 0
	ldr	r2, [r4, #60]
	.loc 1 4427 39
	str	r3, [r2, #80]
	.loc 1 4430 7 is_stmt 1
	.loc 1 4430 69 is_stmt 0
	ldr	r1, [r4]
	.loc 1 4430 23
	ldrh	r3, [r4, #40]
	mov	r2, r7
	adds	r1, r1, #36
	ldr	r0, [r4, #60]
	bl	HAL_DMA_Start_IT
.LVL652:
	.loc 1 4448 5 is_stmt 1
	.loc 1 4448 8 is_stmt 0
	mov	r5, r0
.LVL653:
	cmp	r0, #0
	beq	.L599
	.loc 1 4459 7 is_stmt 1
	.loc 1 4459 19 is_stmt 0
	movs	r3, #40
	strb	r3, [r4, #65]
	.loc 1 4460 7 is_stmt 1
	.loc 1 4460 18 is_stmt 0
	movs	r2, #0
	strb	r2, [r4, #66]
	.loc 1 4463 7 is_stmt 1
	.loc 1 4463 11 is_stmt 0
	ldr	r3, [r4, #68]
	.loc 1 4463 23
	orr	r3, r3, #16
	str	r3, [r4, #68]
	.loc 1 4466 7 is_stmt 1
	.loc 1 4466 11
	.loc 1 4466 24 is_stmt 0
	strb	r2, [r4, #64]
	.loc 1 4466 9 is_stmt 1
	.loc 1 4468 7
	.loc 1 4468 14 is_stmt 0
	movs	r5, #1
	b	.L594
.LVL654:
.L607:
	.loc 1 4354 7 is_stmt 1
	movs	r1, #1
	mov	r0, r4
	bl	I2C_Disable_IRQ
.LVL655:
	.loc 1 4356 7
	.loc 1 4356 16 is_stmt 0
	ldr	r3, [r4]
	.loc 1 4356 26
	ldr	r2, [r3]
	.loc 1 4356 10
	tst	r2, #16384
	beq	.L597
	.loc 1 4359 9 is_stmt 1
	.loc 1 4359 17 is_stmt 0
	ldr	r2, [r4, #56]
	.loc 1 4359 12
	cmp	r2, #0
	beq	.L597
	.loc 1 4361 11 is_stmt 1
	.loc 1 4361 25 is_stmt 0
	ldr	r2, [r3]
	.loc 1 4361 31
	bic	r2, r2, #16384
	str	r2, [r3]
	.loc 1 4365 11 is_stmt 1
	.loc 1 4365 15 is_stmt 0
	ldr	r3, [r4, #56]
	.loc 1 4365 43
	ldr	r2, .L609+12
	str	r2, [r3, #80]
	.loc 1 4368 11 is_stmt 1
	.loc 1 4368 15 is_stmt 0
	ldr	r0, [r4, #56]
	bl	HAL_DMA_Abort_IT
.LVL656:
	.loc 1 4368 14
	cmp	r0, #0
	beq	.L597
	.loc 1 4371 13 is_stmt 1
	.loc 1 4371 17 is_stmt 0
	ldr	r0, [r4, #56]
	.loc 1 4371 25
	ldr	r3, [r0, #80]
	.loc 1 4371 13
	blx	r3
.LVL657:
	b	.L597
.L608:
	.loc 1 4378 7 is_stmt 1
	.loc 1 4378 16 is_stmt 0
	ldr	r3, [r4]
	.loc 1 4378 26
	ldr	r2, [r3]
	.loc 1 4378 10
	tst	r2, #32768
	beq	.L597
	.loc 1 4380 9 is_stmt 1
	.loc 1 4380 23 is_stmt 0
	ldr	r2, [r3]
	.loc 1 4380 29
	bic	r2, r2, #32768
	str	r2, [r3]
	.loc 1 4383 9 is_stmt 1
	.loc 1 4383 17 is_stmt 0
	ldr	r3, [r4, #60]
	.loc 1 4383 12
	cmp	r3, #0
	beq	.L597
	.loc 1 4387 11 is_stmt 1
	.loc 1 4387 43 is_stmt 0
	ldr	r2, .L609+12
	str	r2, [r3, #80]
	.loc 1 4390 11 is_stmt 1
	.loc 1 4390 15 is_stmt 0
	ldr	r0, [r4, #60]
	bl	HAL_DMA_Abort_IT
.LVL658:
	.loc 1 4390 14
	cmp	r0, #0
	beq	.L597
	.loc 1 4393 13 is_stmt 1
	.loc 1 4393 17 is_stmt 0
	ldr	r0, [r4, #60]
	.loc 1 4393 25
	ldr	r3, [r0, #80]
	.loc 1 4393 13
	blx	r3
.LVL659:
	b	.L597
.L598:
	.loc 1 4436 7 is_stmt 1
	.loc 1 4436 19 is_stmt 0
	movs	r3, #40
	strb	r3, [r4, #65]
	.loc 1 4437 7 is_stmt 1
	.loc 1 4437 18 is_stmt 0
	movs	r2, #0
	strb	r2, [r4, #66]
	.loc 1 4440 7 is_stmt 1
	.loc 1 4440 11 is_stmt 0
	ldr	r3, [r4, #68]
	.loc 1 4440 23
	orr	r3, r3, #128
	str	r3, [r4, #68]
	.loc 1 4443 7 is_stmt 1
	.loc 1 4443 11
	.loc 1 4443 24 is_stmt 0
	strb	r2, [r4, #64]
	.loc 1 4443 9 is_stmt 1
	.loc 1 4445 7
	.loc 1 4445 14 is_stmt 0
	movs	r5, #1
.LVL660:
	b	.L594
.LVL661:
.L599:
	.loc 1 4451 7 is_stmt 1
	.loc 1 4451 11 is_stmt 0
	ldrh	r3, [r4, #42]
	uxth	r3, r3
	.loc 1 4451 30
	ldrh	r2, [r4, #40]
	.loc 1 4451 23
	subs	r3, r3, r2
	uxth	r3, r3
	strh	r3, [r4, #42]	@ movhi
	.loc 1 4454 7 is_stmt 1
	.loc 1 4454 22 is_stmt 0
	movs	r3, #0
	strh	r3, [r4, #40]	@ movhi
	.loc 1 4471 5 is_stmt 1
	.loc 1 4471 21 is_stmt 0
	ldr	r2, [r4]
	.loc 1 4471 31
	ldr	r3, [r2, #24]
	.loc 1 4471 38
	and	r3, r3, #8
.LVL662:
	.loc 1 4472 5 is_stmt 1
	.loc 1 4472 38 is_stmt 0
	ldr	r1, [r2, #24]
	.loc 1 4472 8
	tst	r1, #65536
	beq	.L601
.LVL663:
.L602:
	.loc 1 4480 5 is_stmt 1
	.loc 1 4480 9
	.loc 1 4480 22 is_stmt 0
	movs	r3, #0
	strb	r3, [r4, #64]
	.loc 1 4480 7 is_stmt 1
	.loc 1 4483 5
	.loc 1 4483 9 is_stmt 0
	ldr	r2, [r4]
	.loc 1 4483 19
	ldr	r3, [r2]
	.loc 1 4483 25
	orr	r3, r3, #32768
	str	r3, [r2]
	.loc 1 4489 5 is_stmt 1
	movw	r1, #32770
	mov	r0, r4
.LVL664:
	bl	I2C_Enable_IRQ
.LVL665:
	.loc 1 4491 5
	.loc 1 4491 12 is_stmt 0
	b	.L594
.LVL666:
.L601:
	.loc 1 4472 91 discriminator 1
	cmp	r3, #0
	beq	.L602
	.loc 1 4476 7 is_stmt 1
	.loc 1 4476 94 is_stmt 0
	movs	r3, #8
.LVL667:
	str	r3, [r2, #28]
	b	.L602
.LVL668:
.L603:
	.loc 1 4495 12
	movs	r5, #1
.LVL669:
.L594:
	.loc 1 4497 1
	mov	r0, r5
	pop	{r3, r4, r5, r6, r7, pc}
.LVL670:
.L604:
	.loc 1 4347 49
	movs	r5, #2
.LVL671:
	b	.L594
.L610:
	.align	2
.L609:
	.word	I2C_Slave_ISR_DMA
	.word	I2C_DMASlaveReceiveCplt
	.word	I2C_DMAError
	.word	I2C_DMAAbort
	.cfi_endproc
.LFE365:
	.size	HAL_I2C_Slave_Seq_Receive_DMA, .-HAL_I2C_Slave_Seq_Receive_DMA
	.section	.text.HAL_I2C_EnableListen_IT,"ax",%progbits
	.align	1
	.global	HAL_I2C_EnableListen_IT
	.syntax unified
	.thumb
	.thumb_func
	.type	HAL_I2C_EnableListen_IT, %function
HAL_I2C_EnableListen_IT:
.LFB366:
	.loc 1 4506 1 is_stmt 1
	.cfi_startproc
	@ args = 0, pretend = 0, frame = 0
	@ frame_needed = 0, uses_anonymous_args = 0
.LVL672:
	push	{r3, lr}
	.cfi_def_cfa_offset 8
	.cfi_offset 3, -8
	.cfi_offset 14, -4
	.loc 1 4507 3
	.loc 1 4507 11 is_stmt 0
	ldrb	r3, [r0, #65]	@ zero_extendqisi2
	uxtb	r3, r3
	.loc 1 4507 6
	cmp	r3, #32
	beq	.L615
	.loc 1 4519 12
	movs	r0, #2
.LVL673:
.L612:
	.loc 1 4521 1
	pop	{r3, pc}
.LVL674:
.L615:
	.loc 1 4509 5 is_stmt 1
	.loc 1 4509 17 is_stmt 0
	movs	r3, #40
	strb	r3, [r0, #65]
	.loc 1 4510 5 is_stmt 1
	.loc 1 4510 19 is_stmt 0
	ldr	r3, .L616
	str	r3, [r0, #52]
	.loc 1 4513 5 is_stmt 1
	mov	r1, #32768
	bl	I2C_Enable_IRQ
.LVL675:
	.loc 1 4515 5
	.loc 1 4515 12 is_stmt 0
	movs	r0, #0
	b	.L612
.L617:
	.align	2
.L616:
	.word	I2C_Slave_ISR_IT
	.cfi_endproc
.LFE366:
	.size	HAL_I2C_EnableListen_IT, .-HAL_I2C_EnableListen_IT
	.section	.text.HAL_I2C_DisableListen_IT,"ax",%progbits
	.align	1
	.global	HAL_I2C_DisableListen_IT
	.syntax unified
	.thumb
	.thumb_func
	.type	HAL_I2C_DisableListen_IT, %function
HAL_I2C_DisableListen_IT:
.LFB367:
	.loc 1 4530 1 is_stmt 1
	.cfi_startproc
	@ args = 0, pretend = 0, frame = 0
	@ frame_needed = 0, uses_anonymous_args = 0
.LVL676:
	.loc 1 4532 3
	.loc 1 4535 3
	.loc 1 4535 11 is_stmt 0
	ldrb	r3, [r0, #65]	@ zero_extendqisi2
	uxtb	r3, r3
	.loc 1 4535 6
	cmp	r3, #40
	beq	.L625
	.loc 1 4550 12
	movs	r0, #2
.LVL677:
	.loc 1 4552 1
	bx	lr
.LVL678:
.L625:
	.loc 1 4530 1
	push	{r4, lr}
	.cfi_def_cfa_offset 8
	.cfi_offset 4, -8
	.cfi_offset 14, -4
	.loc 1 4537 5 is_stmt 1
	.loc 1 4537 26 is_stmt 0
	ldrb	r2, [r0, #65]	@ zero_extendqisi2
.LVL679:
	.loc 1 4538 5 is_stmt 1
	.loc 1 4538 48 is_stmt 0
	ldrb	r3, [r0, #66]	@ zero_extendqisi2
	.loc 1 4538 31
	and	r2, r2, #3
.LVL680:
	orrs	r3, r3, r2
	.loc 1 4538 25
	str	r3, [r0, #48]
	.loc 1 4539 5 is_stmt 1
	.loc 1 4539 17 is_stmt 0
	movs	r3, #32
	strb	r3, [r0, #65]
	.loc 1 4540 5 is_stmt 1
	.loc 1 4540 16 is_stmt 0
	movs	r4, #0
	strb	r4, [r0, #66]
	.loc 1 4541 5 is_stmt 1
	.loc 1 4541 19 is_stmt 0
	str	r4, [r0, #52]
	.loc 1 4544 5 is_stmt 1
	mov	r1, #32768
	bl	I2C_Disable_IRQ
.LVL681:
	.loc 1 4546 5
	.loc 1 4546 12 is_stmt 0
	mov	r0, r4
	.loc 1 4552 1
	pop	{r4, pc}
	.cfi_endproc
.LFE367:
	.size	HAL_I2C_DisableListen_IT, .-HAL_I2C_DisableListen_IT
	.section	.text.HAL_I2C_Master_Abort_IT,"ax",%progbits
	.align	1
	.global	HAL_I2C_Master_Abort_IT
	.syntax unified
	.thumb
	.thumb_func
	.type	HAL_I2C_Master_Abort_IT, %function
HAL_I2C_Master_Abort_IT:
.LFB368:
	.loc 1 4563 1 is_stmt 1
	.cfi_startproc
	@ args = 0, pretend = 0, frame = 0
	@ frame_needed = 0, uses_anonymous_args = 0
.LVL682:
	.loc 1 4564 3
	.loc 1 4564 11 is_stmt 0
	ldrb	r3, [r0, #66]	@ zero_extendqisi2
	uxtb	r3, r3
	.loc 1 4564 6
	cmp	r3, #16
	bne	.L630
	.loc 1 4563 1
	push	{r4, r5, lr}
	.cfi_def_cfa_offset 12
	.cfi_offset 4, -12
	.cfi_offset 5, -8
	.cfi_offset 14, -4
	sub	sp, sp, #12
	.cfi_def_cfa_offset 24
	mov	r4, r0
	mov	r5, r1
	.loc 1 4567 5 is_stmt 1
	.loc 1 4567 9
	.loc 1 4567 18 is_stmt 0
	ldrb	r3, [r0, #64]	@ zero_extendqisi2
	.loc 1 4567 11
	cmp	r3, #1
	beq	.L631
	.loc 1 4567 68 is_stmt 1 discriminator 2
	.loc 1 4567 81 is_stmt 0 discriminator 2
	movs	r3, #1
	strb	r3, [r0, #64]
	.loc 1 4567 7 is_stmt 1 discriminator 2
	.loc 1 4570 5 discriminator 2
	.loc 1 4570 13 is_stmt 0 discriminator 2
	ldrb	r3, [r0, #65]	@ zero_extendqisi2
	uxtb	r3, r3
	.loc 1 4570 8 discriminator 2
	cmp	r3, #33
	beq	.L636
	.loc 1 4575 10 is_stmt 1
	.loc 1 4575 18 is_stmt 0
	ldrb	r3, [r0, #65]	@ zero_extendqisi2
	uxtb	r3, r3
	.loc 1 4575 13
	cmp	r3, #34
	beq	.L637
.LVL683:
.L629:
	.loc 1 4583 5 is_stmt 1
	.loc 1 4586 5
	.loc 1 4586 17 is_stmt 0
	movs	r3, #96
	strb	r3, [r4, #65]
	.loc 1 4590 5 is_stmt 1
	ldr	r3, .L638
	str	r3, [sp]
	mov	r3, #33554432
	movs	r2, #1
	mov	r1, r5
	mov	r0, r4
	bl	I2C_TransferConfig
.LVL684:
	.loc 1 4593 5
	.loc 1 4593 9
	.loc 1 4593 22 is_stmt 0
	movs	r5, #0
	strb	r5, [r4, #64]
	.loc 1 4593 7 is_stmt 1
	.loc 1 4598 5
	movs	r1, #32
	mov	r0, r4
	bl	I2C_Enable_IRQ
.LVL685:
	.loc 1 4600 5
	.loc 1 4600 12 is_stmt 0
	mov	r0, r5
.L627:
	.loc 1 4608 1
	add	sp, sp, #12
	.cfi_remember_state
	.cfi_def_cfa_offset 12
	@ sp needed
	pop	{r4, r5, pc}
.LVL686:
.L636:
	.cfi_restore_state
	.loc 1 4572 7 is_stmt 1
	movs	r1, #1
.LVL687:
	bl	I2C_Disable_IRQ
.LVL688:
	.loc 1 4573 7
	.loc 1 4573 27 is_stmt 0
	movs	r3, #17
	str	r3, [r4, #48]
	b	.L629
.LVL689:
.L637:
	.loc 1 4577 7 is_stmt 1
	movs	r1, #2
.LVL690:
	bl	I2C_Disable_IRQ
.LVL691:
	.loc 1 4578 7
	.loc 1 4578 27 is_stmt 0
	movs	r3, #18
	str	r3, [r4, #48]
	b	.L629
.LVL692:
.L630:
	.cfi_def_cfa_offset 0
	.cfi_restore 4
	.cfi_restore 5
	.cfi_restore 14
	.loc 1 4606 12
	movs	r0, #1
.LVL693:
	.loc 1 4608 1
	bx	lr
.LVL694:
.L631:
	.cfi_def_cfa_offset 24
	.cfi_offset 4, -12
	.cfi_offset 5, -8
	.cfi_offset 14, -4
	.loc 1 4567 49
	movs	r0, #2
.LVL695:
	b	.L627
.L639:
	.align	2
.L638:
	.word	-2147467264
	.cfi_endproc
.LFE368:
	.size	HAL_I2C_Master_Abort_IT, .-HAL_I2C_Master_Abort_IT
	.section	.text.HAL_I2C_EV_IRQHandler,"ax",%progbits
	.align	1
	.global	HAL_I2C_EV_IRQHandler
	.syntax unified
	.thumb
	.thumb_func
	.type	HAL_I2C_EV_IRQHandler, %function
HAL_I2C_EV_IRQHandler:
.LFB369:
	.loc 1 4625 1 is_stmt 1
	.cfi_startproc
	@ args = 0, pretend = 0, frame = 0
	@ frame_needed = 0, uses_anonymous_args = 0
.LVL696:
	push	{r3, lr}
	.cfi_def_cfa_offset 8
	.cfi_offset 3, -8
	.cfi_offset 14, -4
	.loc 1 4627 3
	.loc 1 4627 28 is_stmt 0
	ldr	r3, [r0]
	.loc 1 4627 12
	ldr	r1, [r3, #24]
.LVL697:
	.loc 1 4628 3 is_stmt 1
	.loc 1 4628 12 is_stmt 0
	ldr	r2, [r3]
.LVL698:
	.loc 1 4631 3 is_stmt 1
	.loc 1 4631 11 is_stmt 0
	ldr	r3, [r0, #52]
	.loc 1 4631 6
	cbz	r3, .L640
	.loc 1 4633 5 is_stmt 1
	blx	r3
.LVL699:
.L640:
	.loc 1 4635 1 is_stmt 0
	pop	{r3, pc}
	.cfi_endproc
.LFE369:
	.size	HAL_I2C_EV_IRQHandler, .-HAL_I2C_EV_IRQHandler
	.section	.text.HAL_I2C_MasterTxCpltCallback,"ax",%progbits
	.align	1
	.weak	HAL_I2C_MasterTxCpltCallback
	.syntax unified
	.thumb
	.thumb_func
	.type	HAL_I2C_MasterTxCpltCallback, %function
HAL_I2C_MasterTxCpltCallback:
.LFB371:
	.loc 1 4696 1 is_stmt 1
	.cfi_startproc
	@ args = 0, pretend = 0, frame = 0
	@ frame_needed = 0, uses_anonymous_args = 0
	@ link register save eliminated.
.LVL700:
	.loc 1 4698 3
	.loc 1 4703 1 is_stmt 0
	bx	lr
	.cfi_endproc
.LFE371:
	.size	HAL_I2C_MasterTxCpltCallback, .-HAL_I2C_MasterTxCpltCallback
	.section	.text.HAL_I2C_MasterRxCpltCallback,"ax",%progbits
	.align	1
	.weak	HAL_I2C_MasterRxCpltCallback
	.syntax unified
	.thumb
	.thumb_func
	.type	HAL_I2C_MasterRxCpltCallback, %function
HAL_I2C_MasterRxCpltCallback:
.LFB372:
	.loc 1 4712 1 is_stmt 1
	.cfi_startproc
	@ args = 0, pretend = 0, frame = 0
	@ frame_needed = 0, uses_anonymous_args = 0
	@ link register save eliminated.
.LVL701:
	.loc 1 4714 3
	.loc 1 4719 1 is_stmt 0
	bx	lr
	.cfi_endproc
.LFE372:
	.size	HAL_I2C_MasterRxCpltCallback, .-HAL_I2C_MasterRxCpltCallback
	.section	.text.I2C_ITMasterSeqCplt,"ax",%progbits
	.align	1
	.syntax unified
	.thumb
	.thumb_func
	.type	I2C_ITMasterSeqCplt, %function
I2C_ITMasterSeqCplt:
.LFB393:
	.loc 1 5991 1 is_stmt 1
	.cfi_startproc
	@ args = 0, pretend = 0, frame = 0
	@ frame_needed = 0, uses_anonymous_args = 0
.LVL702:
	push	{r3, r4, r5, lr}
	.cfi_def_cfa_offset 16
	.cfi_offset 3, -16
	.cfi_offset 4, -12
	.cfi_offset 5, -8
	.cfi_offset 14, -4
	mov	r4, r0
	.loc 1 5993 3
	.loc 1 5993 14 is_stmt 0
	movs	r3, #0
	strb	r3, [r0, #66]
	.loc 1 5997 3 is_stmt 1
	.loc 1 5997 11 is_stmt 0
	ldrb	r3, [r0, #65]	@ zero_extendqisi2
	uxtb	r3, r3
	.loc 1 5997 6
	cmp	r3, #33
	beq	.L649
	.loc 1 6019 5 is_stmt 1
	.loc 1 6019 17 is_stmt 0
	movs	r3, #32
	strb	r3, [r0, #65]
	.loc 1 6020 5 is_stmt 1
	.loc 1 6020 25 is_stmt 0
	movs	r3, #18
	str	r3, [r0, #48]
	.loc 1 6021 5 is_stmt 1
	.loc 1 6021 19 is_stmt 0
	movs	r5, #0
	str	r5, [r0, #52]
	.loc 1 6024 5 is_stmt 1
	movs	r1, #2
	bl	I2C_Disable_IRQ
.LVL703:
	.loc 1 6027 5
	.loc 1 6027 9
	.loc 1 6027 22 is_stmt 0
	strb	r5, [r4, #64]
	.loc 1 6027 7 is_stmt 1
	.loc 1 6033 5
	mov	r0, r4
	bl	HAL_I2C_MasterRxCpltCallback
.LVL704:
.L645:
	.loc 1 6036 1 is_stmt 0
	pop	{r3, r4, r5, pc}
.LVL705:
.L649:
	.loc 1 5999 5 is_stmt 1
	.loc 1 5999 17 is_stmt 0
	movs	r3, #32
	strb	r3, [r0, #65]
	.loc 1 6000 5 is_stmt 1
	.loc 1 6000 25 is_stmt 0
	movs	r3, #17
	str	r3, [r0, #48]
	.loc 1 6001 5 is_stmt 1
	.loc 1 6001 19 is_stmt 0
	movs	r5, #0
	str	r5, [r0, #52]
	.loc 1 6004 5 is_stmt 1
	movs	r1, #1
	bl	I2C_Disable_IRQ
.LVL706:
	.loc 1 6007 5
	.loc 1 6007 9
	.loc 1 6007 22 is_stmt 0
	strb	r5, [r4, #64]
	.loc 1 6007 7 is_stmt 1
	.loc 1 6013 5
	mov	r0, r4
	bl	HAL_I2C_MasterTxCpltCallback
.LVL707:
	b	.L645
	.cfi_endproc
.LFE393:
	.size	I2C_ITMasterSeqCplt, .-I2C_ITMasterSeqCplt
	.section	.text.HAL_I2C_SlaveTxCpltCallback,"ax",%progbits
	.align	1
	.weak	HAL_I2C_SlaveTxCpltCallback
	.syntax unified
	.thumb
	.thumb_func
	.type	HAL_I2C_SlaveTxCpltCallback, %function
HAL_I2C_SlaveTxCpltCallback:
.LFB373:
	.loc 1 4727 1
	.cfi_startproc
	@ args = 0, pretend = 0, frame = 0
	@ frame_needed = 0, uses_anonymous_args = 0
	@ link register save eliminated.
.LVL708:
	.loc 1 4729 3
	.loc 1 4734 1 is_stmt 0
	bx	lr
	.cfi_endproc
.LFE373:
	.size	HAL_I2C_SlaveTxCpltCallback, .-HAL_I2C_SlaveTxCpltCallback
	.section	.text.HAL_I2C_SlaveRxCpltCallback,"ax",%progbits
	.align	1
	.weak	HAL_I2C_SlaveRxCpltCallback
	.syntax unified
	.thumb
	.thumb_func
	.type	HAL_I2C_SlaveRxCpltCallback, %function
HAL_I2C_SlaveRxCpltCallback:
.LFB374:
	.loc 1 4743 1 is_stmt 1
	.cfi_startproc
	@ args = 0, pretend = 0, frame = 0
	@ frame_needed = 0, uses_anonymous_args = 0
	@ link register save eliminated.
.LVL709:
	.loc 1 4745 3
	.loc 1 4750 1 is_stmt 0
	bx	lr
	.cfi_endproc
.LFE374:
	.size	HAL_I2C_SlaveRxCpltCallback, .-HAL_I2C_SlaveRxCpltCallback
	.section	.text.I2C_ITSlaveSeqCplt,"ax",%progbits
	.align	1
	.syntax unified
	.thumb
	.thumb_func
	.type	I2C_ITSlaveSeqCplt, %function
I2C_ITSlaveSeqCplt:
.LFB394:
	.loc 1 6044 1 is_stmt 1
	.cfi_startproc
	@ args = 0, pretend = 0, frame = 0
	@ frame_needed = 0, uses_anonymous_args = 0
.LVL710:
	push	{r4, lr}
	.cfi_def_cfa_offset 8
	.cfi_offset 4, -8
	.cfi_offset 14, -4
	mov	r4, r0
	.loc 1 6045 3
	.loc 1 6045 32 is_stmt 0
	ldr	r3, [r0]
	.loc 1 6045 12
	ldr	r2, [r3]
.LVL711:
	.loc 1 6048 3 is_stmt 1
	.loc 1 6048 14 is_stmt 0
	movs	r1, #0
	strb	r1, [r0, #66]
	.loc 1 6051 3 is_stmt 1
	.loc 1 6051 6 is_stmt 0
	tst	r2, #16384
	beq	.L653
	.loc 1 6054 5 is_stmt 1
	.loc 1 6054 19 is_stmt 0
	ldr	r2, [r3]
.LVL712:
	.loc 1 6054 25
	bic	r2, r2, #16384
	str	r2, [r3]
.L654:
	.loc 1 6064 3 is_stmt 1
	.loc 1 6066 3
	.loc 1 6066 11 is_stmt 0
	ldrb	r3, [r4, #65]	@ zero_extendqisi2
	uxtb	r3, r3
	.loc 1 6066 6
	cmp	r3, #41
	beq	.L658
	.loc 1 6086 8 is_stmt 1
	.loc 1 6086 16 is_stmt 0
	ldrb	r3, [r4, #65]	@ zero_extendqisi2
	uxtb	r3, r3
	.loc 1 6086 11
	cmp	r3, #42
	beq	.L659
.LVL713:
.L652:
	.loc 1 6109 1
	pop	{r4, pc}
.LVL714:
.L653:
	.loc 1 6056 8 is_stmt 1
	.loc 1 6056 11 is_stmt 0
	tst	r2, #32768
	beq	.L654
	.loc 1 6059 5 is_stmt 1
	.loc 1 6059 19 is_stmt 0
	ldr	r2, [r3]
.LVL715:
	.loc 1 6059 25
	bic	r2, r2, #32768
	str	r2, [r3]
	b	.L654
.L658:
	.loc 1 6069 5 is_stmt 1
	.loc 1 6069 17 is_stmt 0
	movs	r3, #40
	strb	r3, [r4, #65]
	.loc 1 6070 5 is_stmt 1
	.loc 1 6070 25 is_stmt 0
	movs	r3, #33
	str	r3, [r4, #48]
	.loc 1 6073 5 is_stmt 1
	movs	r1, #1
	mov	r0, r4
.LVL716:
	bl	I2C_Disable_IRQ
.LVL717:
	.loc 1 6076 5
	.loc 1 6076 9
	.loc 1 6076 22 is_stmt 0
	movs	r3, #0
	strb	r3, [r4, #64]
	.loc 1 6076 7 is_stmt 1
	.loc 1 6082 5
	mov	r0, r4
	bl	HAL_I2C_SlaveTxCpltCallback
.LVL718:
	b	.L652
.LVL719:
.L659:
	.loc 1 6089 5
	.loc 1 6089 17 is_stmt 0
	movs	r3, #40
	strb	r3, [r4, #65]
	.loc 1 6090 5 is_stmt 1
	.loc 1 6090 25 is_stmt 0
	movs	r3, #34
	str	r3, [r4, #48]
	.loc 1 6093 5 is_stmt 1
	movs	r1, #2
	mov	r0, r4
.LVL720:
	bl	I2C_Disable_IRQ
.LVL721:
	.loc 1 6096 5
	.loc 1 6096 9
	.loc 1 6096 22 is_stmt 0
	movs	r3, #0
	strb	r3, [r4, #64]
	.loc 1 6096 7 is_stmt 1
	.loc 1 6102 5
	mov	r0, r4
	bl	HAL_I2C_SlaveRxCpltCallback
.LVL722:
	.loc 1 6108 3
	.loc 1 6109 1 is_stmt 0
	b	.L652
	.cfi_endproc
.LFE394:
	.size	I2C_ITSlaveSeqCplt, .-I2C_ITSlaveSeqCplt
	.section	.text.I2C_DMASlaveTransmitCplt,"ax",%progbits
	.align	1
	.syntax unified
	.thumb
	.thumb_func
	.type	I2C_DMASlaveTransmitCplt, %function
I2C_DMASlaveTransmitCplt:
.LFB402:
	.loc 1 6769 1 is_stmt 1
	.cfi_startproc
	@ args = 0, pretend = 0, frame = 0
	@ frame_needed = 0, uses_anonymous_args = 0
.LVL723:
	push	{r3, lr}
	.cfi_def_cfa_offset 8
	.cfi_offset 3, -8
	.cfi_offset 14, -4
	.loc 1 6771 3
	.loc 1 6771 22 is_stmt 0
	ldr	r0, [r0, #56]
.LVL724:
	.loc 1 6772 3 is_stmt 1
	.loc 1 6772 12 is_stmt 0
	ldr	r3, [r0, #44]
.LVL725:
	.loc 1 6774 3 is_stmt 1
	.loc 1 6774 6 is_stmt 0
	cmp	r3, #0
	it	ne
	cmpne	r3, #16777216
	beq	.L663
.LVL726:
.L660:
	.loc 1 6789 1
	pop	{r3, pc}
.LVL727:
.L663:
	.loc 1 6777 5 is_stmt 1
	.loc 1 6777 9 is_stmt 0
	ldr	r2, [r0]
	.loc 1 6777 19
	ldr	r3, [r2]
.LVL728:
	.loc 1 6777 25
	bic	r3, r3, #16384
	str	r3, [r2]
	.loc 1 6781 5 is_stmt 1
	bl	I2C_ITSlaveSeqCplt
.LVL729:
	.loc 1 6788 3
	.loc 1 6789 1 is_stmt 0
	b	.L660
	.cfi_endproc
.LFE402:
	.size	I2C_DMASlaveTransmitCplt, .-I2C_DMASlaveTransmitCplt
	.section	.text.I2C_DMASlaveReceiveCplt,"ax",%progbits
	.align	1
	.syntax unified
	.thumb
	.thumb_func
	.type	I2C_DMASlaveReceiveCplt, %function
I2C_DMASlaveReceiveCplt:
.LFB404:
	.loc 1 6849 1 is_stmt 1
	.cfi_startproc
	@ args = 0, pretend = 0, frame = 0
	@ frame_needed = 0, uses_anonymous_args = 0
.LVL730:
	push	{r4, lr}
	.cfi_def_cfa_offset 8
	.cfi_offset 4, -8
	.cfi_offset 14, -4
	.loc 1 6851 3
	.loc 1 6851 22 is_stmt 0
	ldr	r0, [r0, #56]
.LVL731:
	.loc 1 6852 3 is_stmt 1
	.loc 1 6852 12 is_stmt 0
	ldr	r4, [r0, #44]
.LVL732:
	.loc 1 6854 3 is_stmt 1
	.loc 1 6854 18 is_stmt 0
	ldr	r3, [r0, #60]
	.loc 1 6854 27
	ldr	r3, [r3]
	.loc 1 6854 2003
	ldr	r1, .L671
	ldr	r2, .L671+4
	cmp	r3, r2
	it	ne
	cmpne	r3, r1
	beq	.L665
	.loc 1 6854 242 discriminator 2
	adds	r2, r2, #24
	cmp	r3, r2
	beq	.L665
	.loc 1 6854 359 discriminator 4
	adds	r2, r2, #24
	cmp	r3, r2
	beq	.L665
	.loc 1 6854 476 discriminator 6
	adds	r2, r2, #24
	cmp	r3, r2
	beq	.L665
	.loc 1 6854 593 discriminator 8
	adds	r2, r2, #24
	cmp	r3, r2
	beq	.L665
	.loc 1 6854 710 discriminator 10
	adds	r2, r2, #24
	cmp	r3, r2
	beq	.L665
	.loc 1 6854 827 discriminator 12
	adds	r2, r2, #24
	cmp	r3, r2
	beq	.L665
	.loc 1 6854 944 discriminator 14
	add	r2, r2, #856
	cmp	r3, r2
	beq	.L665
	.loc 1 6854 1061 discriminator 16
	adds	r2, r2, #24
	cmp	r3, r2
	beq	.L665
	.loc 1 6854 1178 discriminator 18
	adds	r2, r2, #24
	cmp	r3, r2
	beq	.L665
	.loc 1 6854 1295 discriminator 20
	adds	r2, r2, #24
	cmp	r3, r2
	beq	.L665
	.loc 1 6854 1412 discriminator 22
	adds	r2, r2, #24
	cmp	r3, r2
	beq	.L665
	.loc 1 6854 1529 discriminator 24
	adds	r2, r2, #24
	cmp	r3, r2
	beq	.L665
	.loc 1 6854 1646 discriminator 26
	adds	r2, r2, #24
	cmp	r3, r2
	beq	.L665
	.loc 1 6854 1763 discriminator 28
	adds	r2, r2, #24
	cmp	r3, r2
	beq	.L665
	.loc 1 6854 1993 discriminator 30
	ldr	r3, [r3, #4]
	.loc 1 6854 2003 discriminator 30
	clz	r3, r3
	lsrs	r3, r3, #5
	b	.L667
.L665:
	.loc 1 6854 1932 discriminator 29
	ldr	r3, [r3, #4]
	.loc 1 6854 2003 discriminator 29
	clz	r3, r3
	lsrs	r3, r3, #5
.L667:
	.loc 1 6854 6 discriminator 32
	cbz	r3, .L664
	.loc 1 6854 2010 discriminator 33
	cmn	r4, #65536
	bne	.L670
.LVL733:
.L664:
	.loc 1 6869 1
	pop	{r4, pc}
.LVL734:
.L670:
	.loc 1 6858 5 is_stmt 1
	.loc 1 6858 9 is_stmt 0
	ldr	r2, [r0]
	.loc 1 6858 19
	ldr	r3, [r2]
	.loc 1 6858 25
	bic	r3, r3, #32768
	str	r3, [r2]
	.loc 1 6861 5 is_stmt 1
	bl	I2C_ITSlaveSeqCplt
.LVL735:
	.loc 1 6868 3
	.loc 1 6869 1 is_stmt 0
	b	.L664
.L672:
	.align	2
.L671:
	.word	1073872912
	.word	1073872936
	.cfi_endproc
.LFE404:
	.size	I2C_DMASlaveReceiveCplt, .-I2C_DMASlaveReceiveCplt
	.section	.text.HAL_I2C_AddrCallback,"ax",%progbits
	.align	1
	.weak	HAL_I2C_AddrCallback
	.syntax unified
	.thumb
	.thumb_func
	.type	HAL_I2C_AddrCallback, %function
HAL_I2C_AddrCallback:
.LFB375:
	.loc 1 4761 1 is_stmt 1
	.cfi_startproc
	@ args = 0, pretend = 0, frame = 0
	@ frame_needed = 0, uses_anonymous_args = 0
	@ link register save eliminated.
.LVL736:
	.loc 1 4763 3
	.loc 1 4764 3
	.loc 1 4765 3
	.loc 1 4770 1 is_stmt 0
	bx	lr
	.cfi_endproc
.LFE375:
	.size	HAL_I2C_AddrCallback, .-HAL_I2C_AddrCallback
	.section	.text.I2C_ITAddrCplt,"ax",%progbits
	.align	1
	.syntax unified
	.thumb
	.thumb_func
	.type	I2C_ITAddrCplt, %function
I2C_ITAddrCplt:
.LFB392:
	.loc 1 5896 1 is_stmt 1
	.cfi_startproc
	@ args = 0, pretend = 0, frame = 0
	@ frame_needed = 0, uses_anonymous_args = 0
.LVL737:
	push	{r3, r4, r5, r6, r7, lr}
	.cfi_def_cfa_offset 24
	.cfi_offset 3, -24
	.cfi_offset 4, -20
	.cfi_offset 5, -16
	.cfi_offset 6, -12
	.cfi_offset 7, -8
	.cfi_offset 14, -4
	mov	r4, r0
	.loc 1 5897 3
	.loc 1 5898 3
	.loc 1 5899 3
	.loc 1 5900 3
	.loc 1 5903 3
	.loc 1 5906 3
	.loc 1 5906 22 is_stmt 0
	ldrb	r3, [r0, #65]	@ zero_extendqisi2
	.loc 1 5906 6
	and	r3, r3, #40
	cmp	r3, #40
	beq	.L680
	.loc 1 5978 5 is_stmt 1
	.loc 1 5978 101 is_stmt 0
	ldr	r3, [r0]
	.loc 1 5978 92
	movs	r2, #8
	str	r2, [r3, #28]
	.loc 1 5981 5 is_stmt 1
	.loc 1 5981 9
	.loc 1 5981 22 is_stmt 0
	movs	r3, #0
	strb	r3, [r0, #64]
	.loc 1 5981 7 is_stmt 1
.LVL738:
.L674:
	.loc 1 5983 1 is_stmt 0
	pop	{r3, r4, r5, r6, r7, pc}
.LVL739:
.L680:
	.loc 1 5908 5 is_stmt 1
	.loc 1 5908 43 is_stmt 0
	ldr	r3, [r0]
	.loc 1 5908 53
	ldr	r6, [r3, #24]
	.loc 1 5908 23
	ubfx	r6, r6, #16, #1
.LVL740:
	.loc 1 5909 5 is_stmt 1
	.loc 1 5909 50 is_stmt 0
	ldr	r2, [r3, #24]
	.loc 1 5909 22
	lsrs	r2, r2, #16
	.loc 1 5909 19
	and	r5, r2, #254
.LVL741:
	.loc 1 5910 5 is_stmt 1
	.loc 1 5910 47 is_stmt 0
	ldr	r2, [r3, #8]
	.loc 1 5910 17
	ubfx	r2, r2, #0, #10
.LVL742:
	.loc 1 5911 5 is_stmt 1
	.loc 1 5911 47 is_stmt 0
	ldr	r7, [r3, #12]
	.loc 1 5911 17
	and	r7, r7, #254
.LVL743:
	.loc 1 5914 5 is_stmt 1
	.loc 1 5914 19 is_stmt 0
	ldr	r1, [r0, #12]
.LVL744:
	.loc 1 5914 8
	cmp	r1, #2
	bne	.L676
	.loc 1 5916 7 is_stmt 1
	.loc 1 5916 35 is_stmt 0
	eor	r5, r5, r2, lsr #7
.LVL745:
	.loc 1 5916 10
	tst	r5, #6
	bne	.L677
	.loc 1 5918 9 is_stmt 1
.LVL746:
	.loc 1 5919 9
	.loc 1 5919 13 is_stmt 0
	ldr	r1, [r0, #72]
	.loc 1 5919 29
	adds	r1, r1, #1
	str	r1, [r0, #72]
	.loc 1 5920 9 is_stmt 1
	.loc 1 5920 17 is_stmt 0
	ldr	r1, [r0, #72]
	.loc 1 5920 12
	cmp	r1, #2
	bne	.L674
	.loc 1 5923 11 is_stmt 1
	.loc 1 5923 32 is_stmt 0
	movs	r1, #0
	str	r1, [r0, #72]
	.loc 1 5926 11 is_stmt 1
	.loc 1 5926 98 is_stmt 0
	movs	r0, #8
.LVL747:
	str	r0, [r3, #28]
	.loc 1 5929 11 is_stmt 1
	.loc 1 5929 15
	.loc 1 5929 28 is_stmt 0
	strb	r1, [r4, #64]
	.loc 1 5929 13 is_stmt 1
	.loc 1 5935 11
	mov	r1, r6
	mov	r0, r4
	bl	HAL_I2C_AddrCallback
.LVL748:
	b	.L674
.LVL749:
.L677:
	.loc 1 5941 9
	.loc 1 5944 9
	mov	r1, #32768
	bl	I2C_Disable_IRQ
.LVL750:
	.loc 1 5947 9
	.loc 1 5947 13
	.loc 1 5947 26 is_stmt 0
	movs	r3, #0
	strb	r3, [r4, #64]
	.loc 1 5947 11 is_stmt 1
	.loc 1 5953 9
	mov	r2, r7
	mov	r1, r6
	mov	r0, r4
	bl	HAL_I2C_AddrCallback
.LVL751:
	b	.L674
.LVL752:
.L676:
	.loc 1 5961 7
	mov	r1, #32768
	bl	I2C_Disable_IRQ
.LVL753:
	.loc 1 5964 7
	.loc 1 5964 11
	.loc 1 5964 24 is_stmt 0
	movs	r3, #0
	strb	r3, [r4, #64]
	.loc 1 5964 9 is_stmt 1
	.loc 1 5970 7
	mov	r2, r5
	mov	r1, r6
	mov	r0, r4
	bl	HAL_I2C_AddrCallback
.LVL754:
	b	.L674
	.cfi_endproc
.LFE392:
	.size	I2C_ITAddrCplt, .-I2C_ITAddrCplt
	.section	.text.HAL_I2C_ListenCpltCallback,"ax",%progbits
	.align	1
	.weak	HAL_I2C_ListenCpltCallback
	.syntax unified
	.thumb
	.thumb_func
	.type	HAL_I2C_ListenCpltCallback, %function
HAL_I2C_ListenCpltCallback:
.LFB376:
	.loc 1 4779 1
	.cfi_startproc
	@ args = 0, pretend = 0, frame = 0
	@ frame_needed = 0, uses_anonymous_args = 0
	@ link register save eliminated.
.LVL755:
	.loc 1 4781 3
	.loc 1 4786 1 is_stmt 0
	bx	lr
	.cfi_endproc
.LFE376:
	.size	HAL_I2C_ListenCpltCallback, .-HAL_I2C_ListenCpltCallback
	.section	.text.I2C_ITListenCplt,"ax",%progbits
	.align	1
	.syntax unified
	.thumb
	.thumb_func
	.type	I2C_ITListenCplt, %function
I2C_ITListenCplt:
.LFB397:
	.loc 1 6477 1 is_stmt 1
	.cfi_startproc
	@ args = 0, pretend = 0, frame = 0
	@ frame_needed = 0, uses_anonymous_args = 0
.LVL756:
	push	{r4, lr}
	.cfi_def_cfa_offset 8
	.cfi_offset 4, -8
	.cfi_offset 14, -4
	mov	r4, r0
	.loc 1 6479 3
	.loc 1 6479 21 is_stmt 0
	ldr	r3, .L685
	str	r3, [r0, #44]
	.loc 1 6480 3 is_stmt 1
	.loc 1 6480 23 is_stmt 0
	movs	r3, #0
	str	r3, [r0, #48]
	.loc 1 6481 3 is_stmt 1
	.loc 1 6481 15 is_stmt 0
	movs	r2, #32
	strb	r2, [r0, #65]
	.loc 1 6482 3 is_stmt 1
	.loc 1 6482 14 is_stmt 0
	strb	r3, [r0, #66]
	.loc 1 6483 3 is_stmt 1
	.loc 1 6483 17 is_stmt 0
	str	r3, [r0, #52]
	.loc 1 6486 3 is_stmt 1
	.loc 1 6486 6 is_stmt 0
	tst	r1, #4
	beq	.L683
	.loc 1 6489 5 is_stmt 1
	.loc 1 6489 36 is_stmt 0
	ldr	r3, [r0]
	.loc 1 6489 46
	ldr	r2, [r3, #36]
	.loc 1 6489 10
	ldr	r3, [r0, #36]
	.loc 1 6489 21
	strb	r2, [r3]
	.loc 1 6492 5 is_stmt 1
	.loc 1 6492 9 is_stmt 0
	ldr	r3, [r0, #36]
	.loc 1 6492 19
	adds	r3, r3, #1
	str	r3, [r0, #36]
	.loc 1 6494 5 is_stmt 1
	.loc 1 6494 14 is_stmt 0
	ldrh	r3, [r0, #40]
	.loc 1 6494 8
	cbz	r3, .L683
	.loc 1 6496 7 is_stmt 1
	.loc 1 6496 21 is_stmt 0
	subs	r3, r3, #1
	strh	r3, [r0, #40]	@ movhi
	.loc 1 6497 7 is_stmt 1
	.loc 1 6497 11 is_stmt 0
	ldrh	r3, [r0, #42]
	uxth	r3, r3
	.loc 1 6497 22
	subs	r3, r3, #1
	uxth	r3, r3
	strh	r3, [r0, #42]	@ movhi
	.loc 1 6500 7 is_stmt 1
	.loc 1 6500 11 is_stmt 0
	ldr	r3, [r0, #68]
	.loc 1 6500 23
	orr	r3, r3, #4
	str	r3, [r0, #68]
.L683:
	.loc 1 6505 3 is_stmt 1
	movw	r1, #32771
.LVL757:
	mov	r0, r4
.LVL758:
	bl	I2C_Disable_IRQ
.LVL759:
	.loc 1 6508 3
	.loc 1 6508 99 is_stmt 0
	ldr	r3, [r4]
	.loc 1 6508 90
	movs	r2, #16
	str	r2, [r3, #28]
	.loc 1 6511 3 is_stmt 1
	.loc 1 6511 7
	.loc 1 6511 20 is_stmt 0
	movs	r3, #0
	strb	r3, [r4, #64]
	.loc 1 6511 5 is_stmt 1
	.loc 1 6517 3
	mov	r0, r4
	bl	HAL_I2C_ListenCpltCallback
.LVL760:
	.loc 1 6519 1 is_stmt 0
	pop	{r4, pc}
.LVL761:
.L686:
	.align	2
.L685:
	.word	-65536
	.cfi_endproc
.LFE397:
	.size	I2C_ITListenCplt, .-I2C_ITListenCplt
	.section	.text.HAL_I2C_MemTxCpltCallback,"ax",%progbits
	.align	1
	.weak	HAL_I2C_MemTxCpltCallback
	.syntax unified
	.thumb
	.thumb_func
	.type	HAL_I2C_MemTxCpltCallback, %function
HAL_I2C_MemTxCpltCallback:
.LFB377:
	.loc 1 4795 1 is_stmt 1
	.cfi_startproc
	@ args = 0, pretend = 0, frame = 0
	@ frame_needed = 0, uses_anonymous_args = 0
	@ link register save eliminated.
.LVL762:
	.loc 1 4797 3
	.loc 1 4802 1 is_stmt 0
	bx	lr
	.cfi_endproc
.LFE377:
	.size	HAL_I2C_MemTxCpltCallback, .-HAL_I2C_MemTxCpltCallback
	.section	.text.HAL_I2C_MemRxCpltCallback,"ax",%progbits
	.align	1
	.weak	HAL_I2C_MemRxCpltCallback
	.syntax unified
	.thumb
	.thumb_func
	.type	HAL_I2C_MemRxCpltCallback, %function
HAL_I2C_MemRxCpltCallback:
.LFB378:
	.loc 1 4811 1 is_stmt 1
	.cfi_startproc
	@ args = 0, pretend = 0, frame = 0
	@ frame_needed = 0, uses_anonymous_args = 0
	@ link register save eliminated.
.LVL763:
	.loc 1 4813 3
	.loc 1 4818 1 is_stmt 0
	bx	lr
	.cfi_endproc
.LFE378:
	.size	HAL_I2C_MemRxCpltCallback, .-HAL_I2C_MemRxCpltCallback
	.section	.text.HAL_I2C_ErrorCallback,"ax",%progbits
	.align	1
	.weak	HAL_I2C_ErrorCallback
	.syntax unified
	.thumb
	.thumb_func
	.type	HAL_I2C_ErrorCallback, %function
HAL_I2C_ErrorCallback:
.LFB379:
	.loc 1 4827 1 is_stmt 1
	.cfi_startproc
	@ args = 0, pretend = 0, frame = 0
	@ frame_needed = 0, uses_anonymous_args = 0
	@ link register save eliminated.
.LVL764:
	.loc 1 4829 3
	.loc 1 4834 1 is_stmt 0
	bx	lr
	.cfi_endproc
.LFE379:
	.size	HAL_I2C_ErrorCallback, .-HAL_I2C_ErrorCallback
	.section	.text.HAL_I2C_AbortCpltCallback,"ax",%progbits
	.align	1
	.weak	HAL_I2C_AbortCpltCallback
	.syntax unified
	.thumb
	.thumb_func
	.type	HAL_I2C_AbortCpltCallback, %function
HAL_I2C_AbortCpltCallback:
.LFB380:
	.loc 1 4843 1 is_stmt 1
	.cfi_startproc
	@ args = 0, pretend = 0, frame = 0
	@ frame_needed = 0, uses_anonymous_args = 0
	@ link register save eliminated.
.LVL765:
	.loc 1 4845 3
	.loc 1 4850 1 is_stmt 0
	bx	lr
	.cfi_endproc
.LFE380:
	.size	HAL_I2C_AbortCpltCallback, .-HAL_I2C_AbortCpltCallback
	.section	.text.I2C_TreatErrorCallback,"ax",%progbits
	.align	1
	.syntax unified
	.thumb
	.thumb_func
	.type	I2C_TreatErrorCallback, %function
I2C_TreatErrorCallback:
.LFB399:
	.loc 1 6659 1 is_stmt 1
	.cfi_startproc
	@ args = 0, pretend = 0, frame = 0
	@ frame_needed = 0, uses_anonymous_args = 0
.LVL766:
	push	{r3, lr}
	.cfi_def_cfa_offset 8
	.cfi_offset 3, -8
	.cfi_offset 14, -4
	.loc 1 6660 3
	.loc 1 6660 11 is_stmt 0
	ldrb	r3, [r0, #65]	@ zero_extendqisi2
	uxtb	r3, r3
	.loc 1 6660 6
	cmp	r3, #96
	beq	.L695
	.loc 1 6677 5 is_stmt 1
	.loc 1 6677 25 is_stmt 0
	movs	r3, #0
	str	r3, [r0, #48]
	.loc 1 6680 5 is_stmt 1
	.loc 1 6680 9
	.loc 1 6680 22 is_stmt 0
	strb	r3, [r0, #64]
	.loc 1 6680 7 is_stmt 1
	.loc 1 6686 5
	bl	HAL_I2C_ErrorCallback
.LVL767:
.L691:
	.loc 1 6689 1 is_stmt 0
	pop	{r3, pc}
.LVL768:
.L695:
	.loc 1 6662 5 is_stmt 1
	.loc 1 6662 17 is_stmt 0
	movs	r3, #32
	strb	r3, [r0, #65]
	.loc 1 6663 5 is_stmt 1
	.loc 1 6663 25 is_stmt 0
	movs	r3, #0
	str	r3, [r0, #48]
	.loc 1 6666 5 is_stmt 1
	.loc 1 6666 9
	.loc 1 6666 22 is_stmt 0
	strb	r3, [r0, #64]
	.loc 1 6666 7 is_stmt 1
	.loc 1 6672 5
	bl	HAL_I2C_AbortCpltCallback
.LVL769:
	b	.L691
	.cfi_endproc
.LFE399:
	.size	I2C_TreatErrorCallback, .-I2C_TreatErrorCallback
	.section	.text.I2C_ITError,"ax",%progbits
	.align	1
	.syntax unified
	.thumb
	.thumb_func
	.type	I2C_ITError, %function
I2C_ITError:
.LFB398:
	.loc 1 6528 1
	.cfi_startproc
	@ args = 0, pretend = 0, frame = 0
	@ frame_needed = 0, uses_anonymous_args = 0
.LVL770:
	push	{r4, lr}
	.cfi_def_cfa_offset 8
	.cfi_offset 4, -8
	.cfi_offset 14, -4
	mov	r4, r0
	.loc 1 6529 3
	.loc 1 6529 24 is_stmt 0
	ldrb	r3, [r0, #65]	@ zero_extendqisi2
.LVL771:
	.loc 1 6531 3 is_stmt 1
	.loc 1 6534 3
	.loc 1 6534 14 is_stmt 0
	movs	r2, #0
	strb	r2, [r0, #66]
	.loc 1 6535 3 is_stmt 1
	.loc 1 6535 21 is_stmt 0
	ldr	r0, .L709
.LVL772:
	str	r0, [r4, #44]
	.loc 1 6536 3 is_stmt 1
	.loc 1 6536 19 is_stmt 0
	strh	r2, [r4, #42]	@ movhi
	.loc 1 6539 3 is_stmt 1
	.loc 1 6539 7 is_stmt 0
	ldr	r2, [r4, #68]
	.loc 1 6539 19
	orrs	r2, r2, r1
	str	r2, [r4, #68]
	.loc 1 6542 3 is_stmt 1
	.loc 1 6543 50 is_stmt 0
	subs	r3, r3, #40
.LVL773:
	uxtb	r3, r3
	.loc 1 6542 6
	cmp	r3, #2
	bhi	.L697
	.loc 1 6547 5 is_stmt 1
	movs	r1, #3
.LVL774:
	mov	r0, r4
	bl	I2C_Disable_IRQ
.LVL775:
	.loc 1 6550 5
	.loc 1 6550 17 is_stmt 0
	movs	r3, #40
	strb	r3, [r4, #65]
	.loc 1 6551 5 is_stmt 1
	.loc 1 6551 19 is_stmt 0
	ldr	r3, .L709+4
	str	r3, [r4, #52]
.L698:
	.loc 1 6586 3 is_stmt 1
	.loc 1 6586 20 is_stmt 0
	ldr	r3, [r4, #48]
.LVL776:
	.loc 1 6588 3 is_stmt 1
	.loc 1 6588 12 is_stmt 0
	ldr	r2, [r4, #56]
	.loc 1 6588 6
	cmp	r2, #0
	beq	.L701
	.loc 1 6588 29 discriminator 1
	cmp	r3, #33
	it	ne
	cmpne	r3, #17
	bne	.L701
	.loc 1 6591 5 is_stmt 1
	.loc 1 6591 14 is_stmt 0
	ldr	r3, [r4]
.LVL777:
	.loc 1 6591 24
	ldr	r2, [r3]
	.loc 1 6591 8
	tst	r2, #16384
	beq	.L702
	.loc 1 6593 7 is_stmt 1
	.loc 1 6593 21 is_stmt 0
	ldr	r2, [r3]
	.loc 1 6593 27
	bic	r2, r2, #16384
	str	r2, [r3]
.L702:
	.loc 1 6596 5 is_stmt 1
	.loc 1 6596 9 is_stmt 0
	ldr	r0, [r4, #56]
	bl	HAL_DMA_GetState
.LVL778:
	.loc 1 6596 8
	cmp	r0, #1
	beq	.L703
	.loc 1 6600 7 is_stmt 1
	.loc 1 6600 11 is_stmt 0
	ldr	r3, [r4, #56]
	.loc 1 6600 39
	ldr	r2, .L709+8
	str	r2, [r3, #80]
	.loc 1 6603 7 is_stmt 1
	.loc 1 6603 11
	.loc 1 6603 24 is_stmt 0
	movs	r3, #0
	strb	r3, [r4, #64]
	.loc 1 6603 9 is_stmt 1
	.loc 1 6606 7
	.loc 1 6606 11 is_stmt 0
	ldr	r0, [r4, #56]
	bl	HAL_DMA_Abort_IT
.LVL779:
	.loc 1 6606 10
	cmp	r0, #0
	beq	.L696
	.loc 1 6609 9 is_stmt 1
	.loc 1 6609 13 is_stmt 0
	ldr	r0, [r4, #56]
	.loc 1 6609 21
	ldr	r3, [r0, #80]
	.loc 1 6609 9
	blx	r3
.LVL780:
	b	.L696
.LVL781:
.L697:
	.loc 1 6556 5 is_stmt 1
	movw	r1, #32771
.LVL782:
	mov	r0, r4
	bl	I2C_Disable_IRQ
.LVL783:
	.loc 1 6559 5
	mov	r0, r4
	bl	I2C_Flush_TXDR
.LVL784:
	.loc 1 6563 5
	.loc 1 6563 13 is_stmt 0
	ldrb	r3, [r4, #65]	@ zero_extendqisi2
	uxtb	r3, r3
	.loc 1 6563 8
	cmp	r3, #96
	beq	.L699
	.loc 1 6566 7 is_stmt 1
	.loc 1 6566 19 is_stmt 0
	movs	r3, #32
	strb	r3, [r4, #65]
	.loc 1 6569 7 is_stmt 1
	.loc 1 6569 21 is_stmt 0
	ldr	r3, [r4]
	.loc 1 6569 31
	ldr	r2, [r3, #24]
	.loc 1 6569 10
	tst	r2, #32
	beq	.L699
	.loc 1 6571 9 is_stmt 1
	.loc 1 6571 33 is_stmt 0
	ldr	r2, [r3, #24]
	.loc 1 6571 12
	tst	r2, #16
	beq	.L700
	.loc 1 6573 11 is_stmt 1
	.loc 1 6573 98 is_stmt 0
	movs	r2, #16
	str	r2, [r3, #28]
	.loc 1 6574 11 is_stmt 1
	.loc 1 6574 15 is_stmt 0
	ldr	r3, [r4, #68]
	.loc 1 6574 27
	orr	r3, r3, #4
	str	r3, [r4, #68]
.L700:
	.loc 1 6578 9 is_stmt 1
	.loc 1 6578 105 is_stmt 0
	ldr	r3, [r4]
	.loc 1 6578 96
	movs	r2, #32
	str	r2, [r3, #28]
.L699:
	.loc 1 6582 5 is_stmt 1
	.loc 1 6582 19 is_stmt 0
	movs	r3, #0
	str	r3, [r4, #52]
	b	.L698
.LVL785:
.L703:
	.loc 1 6614 7 is_stmt 1
	mov	r0, r4
	bl	I2C_TreatErrorCallback
.LVL786:
	b	.L696
.LVL787:
.L701:
	.loc 1 6618 8
	.loc 1 6618 17 is_stmt 0
	ldr	r2, [r4, #60]
	.loc 1 6618 11
	cbz	r2, .L705
	.loc 1 6618 34 discriminator 1
	cmp	r3, #34
	it	ne
	cmpne	r3, #18
	bne	.L705
	.loc 1 6621 5 is_stmt 1
	.loc 1 6621 14 is_stmt 0
	ldr	r3, [r4]
.LVL788:
	.loc 1 6621 24
	ldr	r2, [r3]
	.loc 1 6621 8
	tst	r2, #32768
	beq	.L706
	.loc 1 6623 7 is_stmt 1
	.loc 1 6623 21 is_stmt 0
	ldr	r2, [r3]
	.loc 1 6623 27
	bic	r2, r2, #32768
	str	r2, [r3]
.L706:
	.loc 1 6626 5 is_stmt 1
	.loc 1 6626 9 is_stmt 0
	ldr	r0, [r4, #60]
	bl	HAL_DMA_GetState
.LVL789:
	.loc 1 6626 8
	cmp	r0, #1
	beq	.L707
	.loc 1 6630 7 is_stmt 1
	.loc 1 6630 11 is_stmt 0
	ldr	r3, [r4, #60]
	.loc 1 6630 39
	ldr	r2, .L709+8
	str	r2, [r3, #80]
	.loc 1 6633 7 is_stmt 1
	.loc 1 6633 11
	.loc 1 6633 24 is_stmt 0
	movs	r3, #0
	strb	r3, [r4, #64]
	.loc 1 6633 9 is_stmt 1
	.loc 1 6636 7
	.loc 1 6636 11 is_stmt 0
	ldr	r0, [r4, #60]
	bl	HAL_DMA_Abort_IT
.LVL790:
	.loc 1 6636 10
	cbz	r0, .L696
	.loc 1 6639 9 is_stmt 1
	.loc 1 6639 13 is_stmt 0
	ldr	r0, [r4, #60]
	.loc 1 6639 21
	ldr	r3, [r0, #80]
	.loc 1 6639 9
	blx	r3
.LVL791:
	b	.L696
.L707:
	.loc 1 6644 7 is_stmt 1
	mov	r0, r4
	bl	I2C_TreatErrorCallback
.LVL792:
	b	.L696
.LVL793:
.L705:
	.loc 1 6649 5
	mov	r0, r4
	bl	I2C_TreatErrorCallback
.LVL794:
.L696:
	.loc 1 6651 1 is_stmt 0
	pop	{r4, pc}
.LVL795:
.L710:
	.align	2
.L709:
	.word	-65536
	.word	I2C_Slave_ISR_IT
	.word	I2C_DMAAbort
	.cfi_endproc
.LFE398:
	.size	I2C_ITError, .-I2C_ITError
	.section	.text.I2C_ITSlaveCplt,"ax",%progbits
	.align	1
	.syntax unified
	.thumb
	.thumb_func
	.type	I2C_ITSlaveCplt, %function
I2C_ITSlaveCplt:
.LFB396:
	.loc 1 6261 1 is_stmt 1
	.cfi_startproc
	@ args = 0, pretend = 0, frame = 0
	@ frame_needed = 0, uses_anonymous_args = 0
.LVL796:
	push	{r3, r4, r5, r6, r7, lr}
	.cfi_def_cfa_offset 24
	.cfi_offset 3, -24
	.cfi_offset 4, -20
	.cfi_offset 5, -16
	.cfi_offset 6, -12
	.cfi_offset 7, -8
	.cfi_offset 14, -4
	mov	r4, r0
	mov	r5, r1
	.loc 1 6262 3
	.loc 1 6262 32 is_stmt 0
	ldr	r2, [r0]
	.loc 1 6262 12
	ldr	r6, [r2]
.LVL797:
	.loc 1 6263 3 is_stmt 1
	.loc 1 6264 3
	.loc 1 6264 12 is_stmt 0
	ldr	r7, [r0, #44]
.LVL798:
	.loc 1 6265 3 is_stmt 1
	.loc 1 6265 24 is_stmt 0
	ldrb	r3, [r0, #65]	@ zero_extendqisi2
	uxtb	r3, r3
.LVL799:
	.loc 1 6268 3 is_stmt 1
	.loc 1 6268 90 is_stmt 0
	movs	r1, #32
.LVL800:
	str	r1, [r2, #28]
	.loc 1 6271 3 is_stmt 1
	.loc 1 6271 6 is_stmt 0
	cmp	r3, #41
	it	ne
	cmpne	r3, #33
	beq	.L734
	.loc 1 6276 8 is_stmt 1
	.loc 1 6276 11 is_stmt 0
	cmp	r3, #42
	it	ne
	cmpne	r3, #34
	beq	.L735
	.loc 1 6281 8 is_stmt 1
	.loc 1 6281 11 is_stmt 0
	cmp	r3, #40
	beq	.L736
.LVL801:
.L713:
	.loc 1 6289 3 is_stmt 1
	.loc 1 6292 3
	.loc 1 6292 7 is_stmt 0
	ldr	r2, [r4]
	.loc 1 6292 17
	ldr	r3, [r2, #4]
	.loc 1 6292 23
	orr	r3, r3, #32768
	str	r3, [r2, #4]
	.loc 1 6295 3 is_stmt 1
	.loc 1 6295 10 is_stmt 0
	ldr	r2, [r4]
	.loc 1 6295 20
	ldr	r3, [r2, #4]
	.loc 1 6295 26
	bic	r3, r3, #33423360
	bic	r3, r3, #71168
	bic	r3, r3, #510
	bic	r3, r3, #1
	str	r3, [r2, #4]
	.loc 1 6298 3 is_stmt 1
	mov	r0, r4
	bl	I2C_Flush_TXDR
.LVL802:
	.loc 1 6301 3
	.loc 1 6301 6 is_stmt 0
	tst	r6, #16384
	beq	.L715
	.loc 1 6304 5 is_stmt 1
	.loc 1 6304 9 is_stmt 0
	ldr	r2, [r4]
	.loc 1 6304 19
	ldr	r3, [r2]
	.loc 1 6304 25
	bic	r3, r3, #16384
	str	r3, [r2]
	.loc 1 6306 5 is_stmt 1
	.loc 1 6306 13 is_stmt 0
	ldr	r3, [r4, #56]
	.loc 1 6306 8
	cmp	r3, #0
	beq	.L716
	.loc 1 6308 7 is_stmt 1
	.loc 1 6308 54 is_stmt 0
	ldr	r3, [r3]
	.loc 1 6308 25
	ldr	r1, .L742
	ldr	r2, .L742+4
	cmp	r3, r2
	it	ne
	cmpne	r3, r1
	beq	.L717
	.loc 1 6308 269 discriminator 2
	adds	r2, r2, #24
	cmp	r3, r2
	beq	.L717
	.loc 1 6308 386 discriminator 4
	adds	r2, r2, #24
	cmp	r3, r2
	beq	.L717
	.loc 1 6308 503 discriminator 6
	adds	r2, r2, #24
	cmp	r3, r2
	beq	.L717
	.loc 1 6308 620 discriminator 8
	adds	r2, r2, #24
	cmp	r3, r2
	beq	.L717
	.loc 1 6308 737 discriminator 10
	adds	r2, r2, #24
	cmp	r3, r2
	beq	.L717
	.loc 1 6308 854 discriminator 12
	adds	r2, r2, #24
	cmp	r3, r2
	beq	.L717
	.loc 1 6308 971 discriminator 14
	add	r2, r2, #856
	cmp	r3, r2
	beq	.L717
	.loc 1 6308 1088 discriminator 16
	adds	r2, r2, #24
	cmp	r3, r2
	beq	.L717
	.loc 1 6308 1205 discriminator 18
	adds	r2, r2, #24
	cmp	r3, r2
	beq	.L717
	.loc 1 6308 1322 discriminator 20
	adds	r2, r2, #24
	cmp	r3, r2
	beq	.L717
	.loc 1 6308 1439 discriminator 22
	adds	r2, r2, #24
	cmp	r3, r2
	beq	.L717
	.loc 1 6308 1556 discriminator 24
	adds	r2, r2, #24
	cmp	r3, r2
	beq	.L717
	.loc 1 6308 1673 discriminator 26
	adds	r2, r2, #24
	cmp	r3, r2
	beq	.L717
	.loc 1 6308 1790 discriminator 28
	adds	r2, r2, #24
	cmp	r3, r2
	beq	.L717
	.loc 1 6308 2020 discriminator 30
	ldr	r3, [r3, #4]
	.loc 1 6308 25 discriminator 30
	uxth	r3, r3
	b	.L719
.LVL803:
.L734:
	.loc 1 6273 5 is_stmt 1
	movw	r1, #32769
	bl	I2C_Disable_IRQ
.LVL804:
	.loc 1 6274 5
	.loc 1 6274 25 is_stmt 0
	movs	r3, #33
	str	r3, [r4, #48]
	b	.L713
.LVL805:
.L735:
	.loc 1 6278 5 is_stmt 1
	movw	r1, #32770
	bl	I2C_Disable_IRQ
.LVL806:
	.loc 1 6279 5
	.loc 1 6279 25 is_stmt 0
	movs	r3, #34
	str	r3, [r4, #48]
	b	.L713
.LVL807:
.L736:
	.loc 1 6283 5 is_stmt 1
	movw	r1, #32771
	bl	I2C_Disable_IRQ
.LVL808:
	.loc 1 6284 5
	.loc 1 6284 25 is_stmt 0
	movs	r3, #0
	str	r3, [r4, #48]
	b	.L713
.L717:
	.loc 1 6308 1959 discriminator 29
	ldr	r3, [r3, #4]
	.loc 1 6308 25 discriminator 29
	uxth	r3, r3
.L719:
	.loc 1 6308 23 discriminator 32
	strh	r3, [r4, #42]	@ movhi
.L716:
	.loc 1 6324 3 is_stmt 1
	.loc 1 6327 3
	.loc 1 6327 6 is_stmt 0
	tst	r5, #4
	beq	.L723
	.loc 1 6330 5 is_stmt 1
	.loc 1 6330 16 is_stmt 0
	bic	r5, r5, #4
.LVL809:
	.loc 1 6333 5 is_stmt 1
	.loc 1 6333 36 is_stmt 0
	ldr	r3, [r4]
	.loc 1 6333 46
	ldr	r2, [r3, #36]
	.loc 1 6333 10
	ldr	r3, [r4, #36]
	.loc 1 6333 21
	strb	r2, [r3]
	.loc 1 6336 5 is_stmt 1
	.loc 1 6336 9 is_stmt 0
	ldr	r3, [r4, #36]
	.loc 1 6336 19
	adds	r3, r3, #1
	str	r3, [r4, #36]
	.loc 1 6338 5 is_stmt 1
	.loc 1 6338 14 is_stmt 0
	ldrh	r3, [r4, #40]
	.loc 1 6338 8
	cbz	r3, .L723
	.loc 1 6340 7 is_stmt 1
	.loc 1 6340 21 is_stmt 0
	subs	r3, r3, #1
	strh	r3, [r4, #40]	@ movhi
	.loc 1 6341 7 is_stmt 1
	.loc 1 6341 11 is_stmt 0
	ldrh	r3, [r4, #42]
	uxth	r3, r3
	.loc 1 6341 22
	subs	r3, r3, #1
	uxth	r3, r3
	strh	r3, [r4, #42]	@ movhi
.L723:
	.loc 1 6346 3 is_stmt 1
	.loc 1 6346 11 is_stmt 0
	ldrh	r3, [r4, #42]
	uxth	r3, r3
	.loc 1 6346 6
	cbz	r3, .L724
	.loc 1 6349 5 is_stmt 1
	.loc 1 6349 9 is_stmt 0
	ldr	r3, [r4, #68]
	.loc 1 6349 21
	orr	r3, r3, #4
	str	r3, [r4, #68]
.L724:
	.loc 1 6352 3 is_stmt 1
	.loc 1 6352 6 is_stmt 0
	tst	r5, #16
	beq	.L725
	.loc 1 6352 128 discriminator 1
	tst	r6, #16
	beq	.L725
	.loc 1 6359 5 is_stmt 1
	.loc 1 6359 13 is_stmt 0
	ldrh	r3, [r4, #42]
	uxth	r3, r3
	.loc 1 6359 8
	cmp	r3, #0
	bne	.L726
	.loc 1 6361 7 is_stmt 1
	.loc 1 6361 16 is_stmt 0
	ldrb	r3, [r4, #65]	@ zero_extendqisi2
	uxtb	r3, r3
	.loc 1 6361 10
	cmp	r3, #40
	beq	.L737
.L727:
	.loc 1 6368 12 is_stmt 1
	.loc 1 6368 21 is_stmt 0
	ldrb	r3, [r4, #65]	@ zero_extendqisi2
	uxtb	r3, r3
	.loc 1 6368 15
	cmp	r3, #41
	beq	.L738
.L728:
	.loc 1 6383 9 is_stmt 1
	.loc 1 6383 105 is_stmt 0
	ldr	r3, [r4]
	.loc 1 6383 96
	movs	r2, #16
	str	r2, [r3, #28]
.L725:
	.loc 1 6403 3 is_stmt 1
	.loc 1 6403 14 is_stmt 0
	movs	r3, #0
	strb	r3, [r4, #66]
	.loc 1 6404 3 is_stmt 1
	.loc 1 6404 17 is_stmt 0
	str	r3, [r4, #52]
	.loc 1 6406 3 is_stmt 1
	.loc 1 6406 11 is_stmt 0
	ldr	r3, [r4, #68]
	.loc 1 6406 6
	cmp	r3, #0
	bne	.L739
	.loc 1 6418 8 is_stmt 1
	.loc 1 6418 16 is_stmt 0
	ldr	r3, [r4, #44]
	.loc 1 6418 11
	cmn	r3, #65536
	bne	.L740
	.loc 1 6438 8 is_stmt 1
	.loc 1 6438 16 is_stmt 0
	ldrb	r3, [r4, #65]	@ zero_extendqisi2
	uxtb	r3, r3
	.loc 1 6438 11
	cmp	r3, #34
	beq	.L741
	.loc 1 6455 5 is_stmt 1
	.loc 1 6455 17 is_stmt 0
	movs	r3, #32
	strb	r3, [r4, #65]
	.loc 1 6456 5 is_stmt 1
	.loc 1 6456 25 is_stmt 0
	movs	r3, #0
	str	r3, [r4, #48]
	.loc 1 6459 5 is_stmt 1
	.loc 1 6459 9
	.loc 1 6459 22 is_stmt 0
	strb	r3, [r4, #64]
	.loc 1 6459 7 is_stmt 1
	.loc 1 6465 5
	mov	r0, r4
	bl	HAL_I2C_SlaveTxCpltCallback
.LVL810:
	.loc 1 6468 1 is_stmt 0
	b	.L711
.LVL811:
.L715:
	.loc 1 6311 8 is_stmt 1
	.loc 1 6311 11 is_stmt 0
	tst	r6, #32768
	beq	.L716
	.loc 1 6314 5 is_stmt 1
	.loc 1 6314 9 is_stmt 0
	ldr	r2, [r4]
	.loc 1 6314 19
	ldr	r3, [r2]
	.loc 1 6314 25
	bic	r3, r3, #32768
	str	r3, [r2]
	.loc 1 6316 5 is_stmt 1
	.loc 1 6316 13 is_stmt 0
	ldr	r3, [r4, #60]
	.loc 1 6316 8
	cmp	r3, #0
	beq	.L716
	.loc 1 6318 7 is_stmt 1
	.loc 1 6318 54 is_stmt 0
	ldr	r3, [r3]
	.loc 1 6318 25
	ldr	r1, .L742
	ldr	r2, .L742+4
	cmp	r3, r2
	it	ne
	cmpne	r3, r1
	beq	.L720
	.loc 1 6318 269 discriminator 2
	adds	r2, r2, #24
	cmp	r3, r2
	beq	.L720
	.loc 1 6318 386 discriminator 4
	adds	r2, r2, #24
	cmp	r3, r2
	beq	.L720
	.loc 1 6318 503 discriminator 6
	adds	r2, r2, #24
	cmp	r3, r2
	beq	.L720
	.loc 1 6318 620 discriminator 8
	adds	r2, r2, #24
	cmp	r3, r2
	beq	.L720
	.loc 1 6318 737 discriminator 10
	adds	r2, r2, #24
	cmp	r3, r2
	beq	.L720
	.loc 1 6318 854 discriminator 12
	adds	r2, r2, #24
	cmp	r3, r2
	beq	.L720
	.loc 1 6318 971 discriminator 14
	add	r2, r2, #856
	cmp	r3, r2
	beq	.L720
	.loc 1 6318 1088 discriminator 16
	adds	r2, r2, #24
	cmp	r3, r2
	beq	.L720
	.loc 1 6318 1205 discriminator 18
	adds	r2, r2, #24
	cmp	r3, r2
	beq	.L720
	.loc 1 6318 1322 discriminator 20
	adds	r2, r2, #24
	cmp	r3, r2
	beq	.L720
	.loc 1 6318 1439 discriminator 22
	adds	r2, r2, #24
	cmp	r3, r2
	beq	.L720
	.loc 1 6318 1556 discriminator 24
	adds	r2, r2, #24
	cmp	r3, r2
	beq	.L720
	.loc 1 6318 1673 discriminator 26
	adds	r2, r2, #24
	cmp	r3, r2
	beq	.L720
	.loc 1 6318 1790 discriminator 28
	adds	r2, r2, #24
	cmp	r3, r2
	beq	.L720
	.loc 1 6318 2020 discriminator 30
	ldr	r3, [r3, #4]
	.loc 1 6318 25 discriminator 30
	uxth	r3, r3
	b	.L722
.L720:
	.loc 1 6318 1959 discriminator 29
	ldr	r3, [r3, #4]
	.loc 1 6318 25 discriminator 29
	uxth	r3, r3
.L722:
	.loc 1 6318 23 discriminator 32
	strh	r3, [r4, #42]	@ movhi
	b	.L716
.LVL812:
.L737:
	.loc 1 6361 49 discriminator 1
	cmp	r7, #33554432
	bne	.L727
	.loc 1 6366 9 is_stmt 1
	mov	r1, r5
	mov	r0, r4
	bl	I2C_ITListenCplt
.LVL813:
	b	.L725
.L738:
	.loc 1 6368 62 is_stmt 0 discriminator 1
	cmn	r7, #65536
	beq	.L728
	.loc 1 6371 9 is_stmt 1
	.loc 1 6371 105 is_stmt 0
	ldr	r3, [r4]
	.loc 1 6371 96
	movs	r2, #16
	str	r2, [r3, #28]
	.loc 1 6374 9 is_stmt 1
	mov	r0, r4
	bl	I2C_Flush_TXDR
.LVL814:
	.loc 1 6378 9
	mov	r0, r4
	bl	I2C_ITSlaveSeqCplt
.LVL815:
	b	.L725
.L726:
	.loc 1 6390 7
	.loc 1 6390 103 is_stmt 0
	ldr	r3, [r4]
	.loc 1 6390 94
	movs	r2, #16
	str	r2, [r3, #28]
	.loc 1 6393 7 is_stmt 1
	.loc 1 6393 11 is_stmt 0
	ldr	r3, [r4, #68]
	.loc 1 6393 23
	orr	r3, r3, #4
	str	r3, [r4, #68]
	.loc 1 6395 7 is_stmt 1
	.loc 1 6395 10 is_stmt 0
	cmp	r7, #16777216
	it	ne
	cmpne	r7, #0
	bne	.L725
	.loc 1 6398 9 is_stmt 1
	.loc 1 6398 31 is_stmt 0
	ldr	r1, [r4, #68]
	.loc 1 6398 9
	mov	r0, r4
	bl	I2C_ITError
.LVL816:
	b	.L725
.L739:
	.loc 1 6409 5 is_stmt 1
	.loc 1 6409 27 is_stmt 0
	ldr	r1, [r4, #68]
	.loc 1 6409 5
	mov	r0, r4
	bl	I2C_ITError
.LVL817:
	.loc 1 6412 5 is_stmt 1
	.loc 1 6412 13 is_stmt 0
	ldrb	r3, [r4, #65]	@ zero_extendqisi2
	uxtb	r3, r3
	.loc 1 6412 8
	cmp	r3, #40
	bne	.L711
	.loc 1 6415 7 is_stmt 1
	mov	r1, r5
	mov	r0, r4
	bl	I2C_ITListenCplt
.LVL818:
	b	.L711
.L740:
	.loc 1 6421 5
	mov	r0, r4
	bl	I2C_ITSlaveSeqCplt
.LVL819:
	.loc 1 6423 5
	.loc 1 6423 23 is_stmt 0
	ldr	r3, .L742+8
	str	r3, [r4, #44]
	.loc 1 6424 5 is_stmt 1
	.loc 1 6424 17 is_stmt 0
	movs	r3, #32
	strb	r3, [r4, #65]
	.loc 1 6425 5 is_stmt 1
	.loc 1 6425 25 is_stmt 0
	movs	r3, #0
	str	r3, [r4, #48]
	.loc 1 6428 5 is_stmt 1
	.loc 1 6428 9
	.loc 1 6428 22 is_stmt 0
	strb	r3, [r4, #64]
	.loc 1 6428 7 is_stmt 1
	.loc 1 6434 5
	mov	r0, r4
	bl	HAL_I2C_ListenCpltCallback
.LVL820:
.L711:
	.loc 1 6468 1 is_stmt 0
	pop	{r3, r4, r5, r6, r7, pc}
.LVL821:
.L741:
	.loc 1 6440 5 is_stmt 1
	.loc 1 6440 17 is_stmt 0
	movs	r3, #32
	strb	r3, [r4, #65]
	.loc 1 6441 5 is_stmt 1
	.loc 1 6441 25 is_stmt 0
	movs	r3, #0
	str	r3, [r4, #48]
	.loc 1 6444 5 is_stmt 1
	.loc 1 6444 9
	.loc 1 6444 22 is_stmt 0
	strb	r3, [r4, #64]
	.loc 1 6444 7 is_stmt 1
	.loc 1 6450 5
	mov	r0, r4
	bl	HAL_I2C_SlaveRxCpltCallback
.LVL822:
	b	.L711
.L743:
	.align	2
.L742:
	.word	1073872912
	.word	1073872936
	.word	-65536
	.cfi_endproc
.LFE396:
	.size	I2C_ITSlaveCplt, .-I2C_ITSlaveCplt
	.section	.text.I2C_Slave_ISR_IT,"ax",%progbits
	.align	1
	.syntax unified
	.thumb
	.thumb_func
	.type	I2C_Slave_ISR_IT, %function
I2C_Slave_ISR_IT:
.LFB386:
	.loc 1 5221 1
	.cfi_startproc
	@ args = 0, pretend = 0, frame = 0
	@ frame_needed = 0, uses_anonymous_args = 0
.LVL823:
	push	{r4, lr}
	.cfi_def_cfa_offset 8
	.cfi_offset 4, -8
	.cfi_offset 14, -4
	mov	r4, r0
	.loc 1 5222 3
	.loc 1 5222 12 is_stmt 0
	ldr	r0, [r0, #44]
.LVL824:
	.loc 1 5223 3 is_stmt 1
	.loc 1 5226 3
	.loc 1 5226 7
	.loc 1 5226 16 is_stmt 0
	ldrb	r3, [r4, #64]	@ zero_extendqisi2
	.loc 1 5226 9
	cmp	r3, #1
	beq	.L756
	.loc 1 5226 66 is_stmt 1 discriminator 2
	.loc 1 5226 79 is_stmt 0 discriminator 2
	movs	r3, #1
	strb	r3, [r4, #64]
	.loc 1 5226 5 is_stmt 1 discriminator 2
	.loc 1 5229 3 discriminator 2
	.loc 1 5229 6 is_stmt 0 discriminator 2
	tst	r1, #32
	beq	.L746
	.loc 1 5229 128 discriminator 1
	tst	r2, #32
	bne	.L758
.L746:
	.loc 1 5235 8 is_stmt 1
	.loc 1 5235 11 is_stmt 0
	tst	r1, #16
	beq	.L748
	.loc 1 5235 133 discriminator 1
	tst	r2, #16
	beq	.L748
	.loc 1 5242 5 is_stmt 1
	.loc 1 5242 13 is_stmt 0
	ldrh	r3, [r4, #42]
	uxth	r3, r3
	.loc 1 5242 8
	cbnz	r3, .L749
	.loc 1 5244 7 is_stmt 1
	.loc 1 5244 16 is_stmt 0
	ldrb	r3, [r4, #65]	@ zero_extendqisi2
	uxtb	r3, r3
	.loc 1 5244 10
	cmp	r3, #40
	beq	.L759
.L750:
	.loc 1 5251 12 is_stmt 1
	.loc 1 5251 21 is_stmt 0
	ldrb	r3, [r4, #65]	@ zero_extendqisi2
	uxtb	r3, r3
	.loc 1 5251 15
	cmp	r3, #41
	beq	.L760
.L751:
	.loc 1 5266 9 is_stmt 1
	.loc 1 5266 105 is_stmt 0
	ldr	r3, [r4]
	.loc 1 5266 96
	movs	r2, #16
.LVL825:
	str	r2, [r3, #28]
	b	.L747
.LVL826:
.L758:
	.loc 1 5233 5 is_stmt 1
	mov	r0, r4
.LVL827:
	bl	I2C_ITSlaveCplt
.LVL828:
.L747:
	.loc 1 5343 3
	.loc 1 5346 3
	.loc 1 5346 7
	.loc 1 5346 20 is_stmt 0
	movs	r0, #0
	strb	r0, [r4, #64]
	.loc 1 5346 5 is_stmt 1
	.loc 1 5348 3
.L745:
	.loc 1 5349 1 is_stmt 0
	pop	{r4, pc}
.LVL829:
.L759:
	.loc 1 5244 49 discriminator 1
	cmp	r0, #33554432
	bne	.L750
	.loc 1 5249 9 is_stmt 1
	mov	r0, r4
.LVL830:
	bl	I2C_ITListenCplt
.LVL831:
	b	.L747
.LVL832:
.L760:
	.loc 1 5251 62 is_stmt 0 discriminator 1
	cmn	r0, #65536
	beq	.L751
	.loc 1 5254 9 is_stmt 1
	.loc 1 5254 105 is_stmt 0
	ldr	r3, [r4]
	.loc 1 5254 96
	movs	r2, #16
.LVL833:
	str	r2, [r3, #28]
	.loc 1 5257 9 is_stmt 1
	mov	r0, r4
.LVL834:
	bl	I2C_Flush_TXDR
.LVL835:
	.loc 1 5261 9
	mov	r0, r4
	bl	I2C_ITSlaveSeqCplt
.LVL836:
	b	.L747
.LVL837:
.L749:
	.loc 1 5273 7
	.loc 1 5273 103 is_stmt 0
	ldr	r3, [r4]
	.loc 1 5273 94
	movs	r2, #16
.LVL838:
	str	r2, [r3, #28]
	.loc 1 5276 7 is_stmt 1
	.loc 1 5276 11 is_stmt 0
	ldr	r3, [r4, #68]
	.loc 1 5276 23
	orr	r3, r3, #4
	str	r3, [r4, #68]
	.loc 1 5278 7 is_stmt 1
	.loc 1 5278 10 is_stmt 0
	cmp	r0, #16777216
	it	ne
	cmpne	r0, #0
	bne	.L747
	.loc 1 5281 9 is_stmt 1
	.loc 1 5281 31 is_stmt 0
	ldr	r1, [r4, #68]
.LVL839:
	.loc 1 5281 9
	mov	r0, r4
.LVL840:
	bl	I2C_ITError
.LVL841:
	b	.L747
.LVL842:
.L748:
	.loc 1 5285 8 is_stmt 1
	.loc 1 5285 11 is_stmt 0
	tst	r1, #4
	beq	.L752
	.loc 1 5285 133 discriminator 1
	tst	r2, #4
	beq	.L752
	.loc 1 5288 5 is_stmt 1
	.loc 1 5288 13 is_stmt 0
	ldrh	r3, [r4, #42]
	uxth	r3, r3
	.loc 1 5288 8
	cbz	r3, .L753
	.loc 1 5291 7 is_stmt 1
	.loc 1 5291 38 is_stmt 0
	ldr	r3, [r4]
	.loc 1 5291 48
	ldr	r2, [r3, #36]
.LVL843:
	.loc 1 5291 12
	ldr	r3, [r4, #36]
	.loc 1 5291 23
	strb	r2, [r3]
	.loc 1 5294 7 is_stmt 1
	.loc 1 5294 11 is_stmt 0
	ldr	r3, [r4, #36]
	.loc 1 5294 21
	adds	r3, r3, #1
	str	r3, [r4, #36]
	.loc 1 5296 7 is_stmt 1
	.loc 1 5296 11 is_stmt 0
	ldrh	r3, [r4, #40]
	.loc 1 5296 21
	subs	r3, r3, #1
	strh	r3, [r4, #40]	@ movhi
	.loc 1 5297 7 is_stmt 1
	.loc 1 5297 11 is_stmt 0
	ldrh	r3, [r4, #42]
	uxth	r3, r3
	.loc 1 5297 22
	subs	r3, r3, #1
	uxth	r3, r3
	strh	r3, [r4, #42]	@ movhi
.L753:
	.loc 1 5300 5 is_stmt 1
	.loc 1 5300 14 is_stmt 0
	ldrh	r3, [r4, #42]
	uxth	r3, r3
	.loc 1 5300 8
	cmp	r3, #0
	bne	.L747
	.loc 1 5300 33 discriminator 1
	cmn	r0, #65536
	beq	.L747
	.loc 1 5304 7 is_stmt 1
	mov	r0, r4
.LVL844:
	bl	I2C_ITSlaveSeqCplt
.LVL845:
	b	.L747
.LVL846:
.L752:
	.loc 1 5307 8
	.loc 1 5307 11 is_stmt 0
	tst	r1, #8
	beq	.L754
	.loc 1 5307 133 discriminator 1
	tst	r2, #8
	bne	.L761
.L754:
	.loc 1 5312 8 is_stmt 1
	.loc 1 5312 11 is_stmt 0
	tst	r1, #2
	beq	.L747
	.loc 1 5312 133 discriminator 1
	tst	r2, #2
	beq	.L747
	.loc 1 5319 5 is_stmt 1
	.loc 1 5319 13 is_stmt 0
	ldrh	r3, [r4, #42]
	uxth	r3, r3
	.loc 1 5319 8
	cbz	r3, .L755
	.loc 1 5322 7 is_stmt 1
	.loc 1 5322 35 is_stmt 0
	ldr	r2, [r4, #36]
.LVL847:
	.loc 1 5322 11
	ldr	r3, [r4]
	.loc 1 5322 30
	ldrb	r2, [r2]	@ zero_extendqisi2
	.loc 1 5322 28
	str	r2, [r3, #40]
	.loc 1 5325 7 is_stmt 1
	.loc 1 5325 11 is_stmt 0
	ldr	r3, [r4, #36]
	.loc 1 5325 21
	adds	r3, r3, #1
	str	r3, [r4, #36]
	.loc 1 5327 7 is_stmt 1
	.loc 1 5327 11 is_stmt 0
	ldrh	r3, [r4, #42]
	uxth	r3, r3
	.loc 1 5327 22
	subs	r3, r3, #1
	uxth	r3, r3
	strh	r3, [r4, #42]	@ movhi
	.loc 1 5328 7 is_stmt 1
	.loc 1 5328 11 is_stmt 0
	ldrh	r3, [r4, #40]
	.loc 1 5328 21
	subs	r3, r3, #1
	strh	r3, [r4, #40]	@ movhi
	b	.L747
.LVL848:
.L761:
	.loc 1 5310 5 is_stmt 1
	mov	r0, r4
.LVL849:
	bl	I2C_ITAddrCplt
.LVL850:
	b	.L747
.LVL851:
.L755:
	.loc 1 5332 7
	.loc 1 5332 10 is_stmt 0
	cmp	r0, #0
	it	ne
	cmpne	r0, #16777216
	bne	.L747
	.loc 1 5336 9 is_stmt 1
	mov	r0, r4
.LVL852:
	bl	I2C_ITSlaveSeqCplt
.LVL853:
	b	.L747
.LVL854:
.L756:
	.loc 1 5226 47 is_stmt 0
	movs	r0, #2
.LVL855:
	b	.L745
	.cfi_endproc
.LFE386:
	.size	I2C_Slave_ISR_IT, .-I2C_Slave_ISR_IT
	.section	.text.I2C_ITMasterCplt,"ax",%progbits
	.align	1
	.syntax unified
	.thumb
	.thumb_func
	.type	I2C_ITMasterCplt, %function
I2C_ITMasterCplt:
.LFB395:
	.loc 1 6118 1 is_stmt 1
	.cfi_startproc
	@ args = 0, pretend = 0, frame = 8
	@ frame_needed = 0, uses_anonymous_args = 0
.LVL856:
	push	{r4, r5, lr}
	.cfi_def_cfa_offset 12
	.cfi_offset 4, -12
	.cfi_offset 5, -8
	.cfi_offset 14, -4
	sub	sp, sp, #12
	.cfi_def_cfa_offset 24
	mov	r4, r0
	mov	r5, r1
	.loc 1 6119 3
	.loc 1 6120 3
.LVL857:
	.loc 1 6121 3
	.loc 1 6124 3
	.loc 1 6124 99 is_stmt 0
	ldr	r3, [r0]
	.loc 1 6124 90
	movs	r2, #32
	str	r2, [r3, #28]
	.loc 1 6127 3 is_stmt 1
	.loc 1 6127 11 is_stmt 0
	ldrb	r3, [r0, #65]	@ zero_extendqisi2
	uxtb	r3, r3
	.loc 1 6127 6
	cmp	r3, #33
	beq	.L774
	.loc 1 6132 8 is_stmt 1
	.loc 1 6132 16 is_stmt 0
	ldrb	r3, [r0, #65]	@ zero_extendqisi2
	uxtb	r3, r3
	.loc 1 6132 11
	cmp	r3, #34
	beq	.L775
.LVL858:
.L764:
	.loc 1 6140 3 is_stmt 1
	.loc 1 6143 3
	.loc 1 6143 10 is_stmt 0
	ldr	r2, [r4]
	.loc 1 6143 20
	ldr	r3, [r2, #4]
	.loc 1 6143 26
	bic	r3, r3, #33423360
	bic	r3, r3, #71168
	bic	r3, r3, #510
	bic	r3, r3, #1
	str	r3, [r2, #4]
	.loc 1 6146 3 is_stmt 1
	.loc 1 6146 17 is_stmt 0
	movs	r3, #0
	str	r3, [r4, #52]
	.loc 1 6147 3 is_stmt 1
	.loc 1 6147 21 is_stmt 0
	sub	r3, r3, #65536
	str	r3, [r4, #44]
	.loc 1 6149 3 is_stmt 1
	.loc 1 6149 6 is_stmt 0
	tst	r5, #16
	beq	.L765
	.loc 1 6152 5 is_stmt 1
	.loc 1 6152 101 is_stmt 0
	ldr	r3, [r4]
	.loc 1 6152 92
	movs	r2, #16
	str	r2, [r3, #28]
	.loc 1 6155 5 is_stmt 1
	.loc 1 6155 9 is_stmt 0
	ldr	r3, [r4, #68]
	.loc 1 6155 21
	orr	r3, r3, #4
	str	r3, [r4, #68]
.L765:
	.loc 1 6159 3 is_stmt 1
	.loc 1 6159 12 is_stmt 0
	ldrb	r3, [r4, #65]	@ zero_extendqisi2
	uxtb	r3, r3
	.loc 1 6159 6
	cmp	r3, #96
	beq	.L776
.L766:
	.loc 1 6167 3 is_stmt 1
	mov	r0, r4
	bl	I2C_Flush_TXDR
.LVL859:
	.loc 1 6170 3
	.loc 1 6170 12 is_stmt 0
	ldr	r2, [r4, #68]
.LVL860:
	.loc 1 6173 3 is_stmt 1
	.loc 1 6173 12 is_stmt 0
	ldrb	r3, [r4, #65]	@ zero_extendqisi2
	uxtb	r3, r3
	.loc 1 6173 6
	cmp	r3, #96
	beq	.L767
	.loc 1 6173 44 discriminator 1
	cbz	r2, .L768
.L767:
	.loc 1 6176 5 is_stmt 1
	.loc 1 6176 27 is_stmt 0
	ldr	r1, [r4, #68]
	.loc 1 6176 5
	mov	r0, r4
	bl	I2C_ITError
.LVL861:
.L762:
	.loc 1 6252 1
	add	sp, sp, #12
	.cfi_remember_state
	.cfi_def_cfa_offset 12
	@ sp needed
	pop	{r4, r5, pc}
.LVL862:
.L774:
	.cfi_restore_state
	.loc 1 6129 5 is_stmt 1
	movs	r1, #1
.LVL863:
	bl	I2C_Disable_IRQ
.LVL864:
	.loc 1 6130 5
	.loc 1 6130 25 is_stmt 0
	movs	r3, #17
	str	r3, [r4, #48]
	b	.L764
.LVL865:
.L775:
	.loc 1 6134 5 is_stmt 1
	movs	r1, #2
.LVL866:
	bl	I2C_Disable_IRQ
.LVL867:
	.loc 1 6135 5
	.loc 1 6135 25 is_stmt 0
	movs	r3, #18
	str	r3, [r4, #48]
	b	.L764
.L776:
	.loc 1 6159 44 discriminator 1
	tst	r5, #4
	beq	.L766
	.loc 1 6162 5 is_stmt 1
	.loc 1 6162 27 is_stmt 0
	ldr	r3, [r4]
	.loc 1 6162 37
	ldr	r3, [r3, #36]
	uxtb	r3, r3
	.loc 1 6162 12
	str	r3, [sp, #4]
	.loc 1 6163 5 is_stmt 1
	.loc 1 6163 6 is_stmt 0
	ldr	r3, [sp, #4]
	b	.L766
.LVL868:
.L768:
	.loc 1 6179 8 is_stmt 1
	.loc 1 6179 16 is_stmt 0
	ldrb	r3, [r4, #65]	@ zero_extendqisi2
	uxtb	r3, r3
	.loc 1 6179 11
	cmp	r3, #33
	beq	.L777
	.loc 1 6214 8 is_stmt 1
	.loc 1 6214 16 is_stmt 0
	ldrb	r3, [r4, #65]	@ zero_extendqisi2
	uxtb	r3, r3
	.loc 1 6214 11
	cmp	r3, #34
	bne	.L762
	.loc 1 6216 5 is_stmt 1
	.loc 1 6216 17 is_stmt 0
	movs	r3, #32
	strb	r3, [r4, #65]
	.loc 1 6217 5 is_stmt 1
	.loc 1 6217 25 is_stmt 0
	movs	r3, #0
	str	r3, [r4, #48]
	.loc 1 6219 5 is_stmt 1
	.loc 1 6219 13 is_stmt 0
	ldrb	r3, [r4, #66]	@ zero_extendqisi2
	uxtb	r3, r3
	.loc 1 6219 8
	cmp	r3, #64
	beq	.L778
	.loc 1 6235 7 is_stmt 1
	.loc 1 6235 18 is_stmt 0
	movs	r3, #0
	strb	r3, [r4, #66]
	.loc 1 6238 7 is_stmt 1
	.loc 1 6238 11
	.loc 1 6238 24 is_stmt 0
	strb	r3, [r4, #64]
	.loc 1 6238 9 is_stmt 1
	.loc 1 6244 7
	mov	r0, r4
	bl	HAL_I2C_MasterRxCpltCallback
.LVL869:
	.loc 1 6251 3
	.loc 1 6252 1 is_stmt 0
	b	.L762
.LVL870:
.L777:
	.loc 1 6181 5 is_stmt 1
	.loc 1 6181 17 is_stmt 0
	movs	r3, #32
	strb	r3, [r4, #65]
	.loc 1 6182 5 is_stmt 1
	.loc 1 6182 25 is_stmt 0
	movs	r3, #0
	str	r3, [r4, #48]
	.loc 1 6184 5 is_stmt 1
	.loc 1 6184 13 is_stmt 0
	ldrb	r3, [r4, #66]	@ zero_extendqisi2
	uxtb	r3, r3
	.loc 1 6184 8
	cmp	r3, #64
	beq	.L779
	.loc 1 6200 7 is_stmt 1
	.loc 1 6200 18 is_stmt 0
	movs	r3, #0
	strb	r3, [r4, #66]
	.loc 1 6203 7 is_stmt 1
	.loc 1 6203 11
	.loc 1 6203 24 is_stmt 0
	strb	r3, [r4, #64]
	.loc 1 6203 9 is_stmt 1
	.loc 1 6209 7
	mov	r0, r4
	bl	HAL_I2C_MasterTxCpltCallback
.LVL871:
	b	.L762
.LVL872:
.L779:
	.loc 1 6186 7
	.loc 1 6186 18 is_stmt 0
	movs	r3, #0
	strb	r3, [r4, #66]
	.loc 1 6189 7 is_stmt 1
	.loc 1 6189 11
	.loc 1 6189 24 is_stmt 0
	strb	r3, [r4, #64]
	.loc 1 6189 9 is_stmt 1
	.loc 1 6195 7
	mov	r0, r4
	bl	HAL_I2C_MemTxCpltCallback
.LVL873:
	b	.L762
.LVL874:
.L778:
	.loc 1 6221 7
	.loc 1 6221 18 is_stmt 0
	movs	r3, #0
	strb	r3, [r4, #66]
	.loc 1 6224 7 is_stmt 1
	.loc 1 6224 11
	.loc 1 6224 24 is_stmt 0
	strb	r3, [r4, #64]
	.loc 1 6224 9 is_stmt 1
	.loc 1 6230 7
	mov	r0, r4
	bl	HAL_I2C_MemRxCpltCallback
.LVL875:
	b	.L762
	.cfi_endproc
.LFE395:
	.size	I2C_ITMasterCplt, .-I2C_ITMasterCplt
	.section	.text.I2C_Master_ISR_IT,"ax",%progbits
	.align	1
	.syntax unified
	.thumb
	.thumb_func
	.type	I2C_Master_ISR_IT, %function
I2C_Master_ISR_IT:
.LFB384:
	.loc 1 4927 1
	.cfi_startproc
	@ args = 0, pretend = 0, frame = 0
	@ frame_needed = 0, uses_anonymous_args = 0
.LVL876:
	.loc 1 4928 3
	.loc 1 4929 3
	.loc 1 4932 3
	.loc 1 4932 7
	.loc 1 4932 16 is_stmt 0
	ldrb	r3, [r0, #64]	@ zero_extendqisi2
	.loc 1 4932 9
	cmp	r3, #1
	beq	.L794
	.loc 1 4927 1 discriminator 2
	push	{r4, r5, r6, lr}
	.cfi_def_cfa_offset 16
	.cfi_offset 4, -16
	.cfi_offset 5, -12
	.cfi_offset 6, -8
	.cfi_offset 14, -4
	sub	sp, sp, #8
	.cfi_def_cfa_offset 24
	mov	r4, r0
	mov	r5, r1
	mov	r6, r2
	.loc 1 4932 66 is_stmt 1 discriminator 2
	.loc 1 4932 79 is_stmt 0 discriminator 2
	movs	r3, #1
	strb	r3, [r0, #64]
	.loc 1 4932 5 is_stmt 1 discriminator 2
	.loc 1 4934 3 discriminator 2
	.loc 1 4934 6 is_stmt 0 discriminator 2
	tst	r1, #16
	beq	.L782
	.loc 1 4934 128 discriminator 1
	tst	r2, #16
	bne	.L799
.L782:
	.loc 1 4948 8 is_stmt 1
	.loc 1 4948 11 is_stmt 0
	tst	r5, #4
	beq	.L784
	.loc 1 4948 133 discriminator 1
	tst	r6, #4
	beq	.L784
	.loc 1 4952 5 is_stmt 1
	.loc 1 4952 16 is_stmt 0
	bic	r5, r5, #4
.LVL877:
	.loc 1 4955 5 is_stmt 1
	.loc 1 4955 36 is_stmt 0
	ldr	r3, [r4]
	.loc 1 4955 46
	ldr	r2, [r3, #36]
.LVL878:
	.loc 1 4955 10
	ldr	r3, [r4, #36]
	.loc 1 4955 21
	strb	r2, [r3]
	.loc 1 4958 5 is_stmt 1
	.loc 1 4958 9 is_stmt 0
	ldr	r3, [r4, #36]
	.loc 1 4958 19
	adds	r3, r3, #1
	str	r3, [r4, #36]
	.loc 1 4960 5 is_stmt 1
	.loc 1 4960 9 is_stmt 0
	ldrh	r3, [r4, #40]
	.loc 1 4960 19
	subs	r3, r3, #1
	strh	r3, [r4, #40]	@ movhi
	.loc 1 4961 5 is_stmt 1
	.loc 1 4961 9 is_stmt 0
	ldrh	r3, [r4, #42]
	uxth	r3, r3
	.loc 1 4961 20
	subs	r3, r3, #1
	uxth	r3, r3
	strh	r3, [r4, #42]	@ movhi
.LVL879:
.L783:
	.loc 1 5053 3 is_stmt 1
	.loc 1 5055 3
	.loc 1 5055 6 is_stmt 0
	tst	r5, #32
	beq	.L793
	.loc 1 5055 128 discriminator 1
	tst	r6, #32
	bne	.L800
.L793:
	.loc 1 5063 3 is_stmt 1
	.loc 1 5063 7
	.loc 1 5063 20 is_stmt 0
	movs	r0, #0
	strb	r0, [r4, #64]
	.loc 1 5063 5 is_stmt 1
	.loc 1 5065 3
	.loc 1 5066 1 is_stmt 0
	add	sp, sp, #8
	.cfi_remember_state
	.cfi_def_cfa_offset 16
	@ sp needed
	pop	{r4, r5, r6, pc}
.LVL880:
.L799:
	.cfi_restore_state
	.loc 1 4938 5 is_stmt 1
	.loc 1 4938 101 is_stmt 0
	ldr	r3, [r0]
	.loc 1 4938 92
	movs	r2, #16
.LVL881:
	str	r2, [r3, #28]
	.loc 1 4943 5 is_stmt 1
	.loc 1 4943 9 is_stmt 0
	ldr	r3, [r0, #68]
	.loc 1 4943 21
	orr	r3, r3, #4
	str	r3, [r0, #68]
	.loc 1 4946 5 is_stmt 1
	bl	I2C_Flush_TXDR
.LVL882:
	b	.L783
.LVL883:
.L784:
	.loc 1 4963 8
	.loc 1 4963 11 is_stmt 0
	ands	r3, r5, #64
	bne	.L785
	.loc 1 4963 133 discriminator 1
	tst	r5, #2
	beq	.L785
	.loc 1 4964 134
	tst	r6, #2
	beq	.L785
	.loc 1 4968 5 is_stmt 1
	.loc 1 4968 13 is_stmt 0
	ldrh	r3, [r4, #42]
	uxth	r3, r3
	.loc 1 4968 8
	cmp	r3, #0
	beq	.L783
	.loc 1 4971 7 is_stmt 1
	.loc 1 4971 35 is_stmt 0
	ldr	r2, [r4, #36]
.LVL884:
	.loc 1 4971 11
	ldr	r3, [r4]
	.loc 1 4971 30
	ldrb	r2, [r2]	@ zero_extendqisi2
	.loc 1 4971 28
	str	r2, [r3, #40]
	.loc 1 4974 7 is_stmt 1
	.loc 1 4974 11 is_stmt 0
	ldr	r3, [r4, #36]
	.loc 1 4974 21
	adds	r3, r3, #1
	str	r3, [r4, #36]
	.loc 1 4976 7 is_stmt 1
	.loc 1 4976 11 is_stmt 0
	ldrh	r3, [r4, #40]
	.loc 1 4976 21
	subs	r3, r3, #1
	strh	r3, [r4, #40]	@ movhi
	.loc 1 4977 7 is_stmt 1
	.loc 1 4977 11 is_stmt 0
	ldrh	r3, [r4, #42]
	uxth	r3, r3
	.loc 1 4977 22
	subs	r3, r3, #1
	uxth	r3, r3
	strh	r3, [r4, #42]	@ movhi
	b	.L783
.LVL885:
.L785:
	.loc 1 4980 8 is_stmt 1
	.loc 1 4980 11 is_stmt 0
	tst	r5, #128
	beq	.L786
	.loc 1 4980 133 discriminator 1
	tst	r6, #64
	beq	.L786
	.loc 1 4983 5 is_stmt 1
	.loc 1 4983 14 is_stmt 0
	ldrh	r3, [r4, #42]
	uxth	r3, r3
	.loc 1 4983 8
	cbz	r3, .L787
	.loc 1 4983 41 discriminator 1
	ldrh	r3, [r4, #40]
	.loc 1 4983 33 discriminator 1
	cbnz	r3, .L787
	.loc 1 4985 7 is_stmt 1
	.loc 1 4985 35 is_stmt 0
	ldr	r3, [r4]
	.loc 1 4985 45
	ldr	r1, [r3, #4]
.LVL886:
	.loc 1 4985 18
	ubfx	r1, r1, #0, #10
.LVL887:
	.loc 1 4987 7 is_stmt 1
	.loc 1 4987 15 is_stmt 0
	ldrh	r3, [r4, #42]
	uxth	r3, r3
	.loc 1 4987 10
	cmp	r3, #255
	bhi	.L801
	.loc 1 4994 9 is_stmt 1
	.loc 1 4994 30 is_stmt 0
	ldrh	r2, [r4, #42]
.LVL888:
	uxth	r2, r2
	.loc 1 4994 24
	strh	r2, [r4, #40]	@ movhi
	.loc 1 4995 9 is_stmt 1
	.loc 1 4995 17 is_stmt 0
	ldr	r3, [r4, #44]
	.loc 1 4995 12
	cmn	r3, #65536
	beq	.L789
	.loc 1 4997 11 is_stmt 1
	.loc 1 4998 34 is_stmt 0
	ldr	r3, [r4, #44]
	.loc 1 4997 11
	movs	r0, #0
.LVL889:
	str	r0, [sp]
	uxtb	r2, r2
	mov	r0, r4
	bl	I2C_TransferConfig
.LVL890:
	b	.L783
.LVL891:
.L801:
	.loc 1 4989 9 is_stmt 1
	.loc 1 4989 24 is_stmt 0
	movs	r2, #255
.LVL892:
	strh	r2, [r4, #40]	@ movhi
	.loc 1 4990 9 is_stmt 1
	movs	r3, #0
	str	r3, [sp]
	mov	r3, #16777216
	mov	r0, r4
.LVL893:
	bl	I2C_TransferConfig
.LVL894:
	b	.L783
.LVL895:
.L789:
	.loc 1 5002 11
	movs	r3, #0
	str	r3, [sp]
	mov	r3, #33554432
	uxtb	r2, r2
	mov	r0, r4
.LVL896:
	bl	I2C_TransferConfig
.LVL897:
	b	.L783
.LVL898:
.L787:
	.loc 1 5010 7
	.loc 1 5010 18 is_stmt 0
	ldr	r3, [r4]
	.loc 1 5010 28
	ldr	r3, [r3, #4]
	.loc 1 5010 10
	tst	r3, #33554432
	bne	.L790
	.loc 1 5013 9 is_stmt 1
	mov	r0, r4
.LVL899:
	bl	I2C_ITMasterSeqCplt
.LVL900:
	b	.L783
.LVL901:
.L790:
	.loc 1 5019 9
	movs	r1, #64
.LVL902:
	mov	r0, r4
.LVL903:
	bl	I2C_ITError
.LVL904:
	b	.L783
.LVL905:
.L786:
	.loc 1 5023 8
	.loc 1 5023 11 is_stmt 0
	cmp	r3, #0
	beq	.L783
	.loc 1 5023 133 discriminator 1
	tst	r6, #64
	beq	.L783
	.loc 1 5026 5 is_stmt 1
	.loc 1 5026 13 is_stmt 0
	ldrh	r3, [r4, #42]
	uxth	r3, r3
	.loc 1 5026 8
	cbnz	r3, .L791
	.loc 1 5028 7 is_stmt 1
	.loc 1 5028 18 is_stmt 0
	ldr	r3, [r4]
	.loc 1 5028 28
	ldr	r2, [r3, #4]
.LVL906:
	.loc 1 5028 10
	tst	r2, #33554432
	bne	.L783
	.loc 1 5031 9 is_stmt 1
	.loc 1 5031 17 is_stmt 0
	ldr	r2, [r4, #44]
	.loc 1 5031 12
	cmn	r2, #65536
	bne	.L792
	.loc 1 5034 11 is_stmt 1
	.loc 1 5034 25 is_stmt 0
	ldr	r2, [r3, #4]
	.loc 1 5034 31
	orr	r2, r2, #16384
	str	r2, [r3, #4]
	b	.L783
.L792:
	.loc 1 5039 11 is_stmt 1
	mov	r0, r4
.LVL907:
	bl	I2C_ITMasterSeqCplt
.LVL908:
	b	.L783
.LVL909:
.L791:
	.loc 1 5047 7
	movs	r1, #64
.LVL910:
	mov	r0, r4
.LVL911:
	bl	I2C_ITError
.LVL912:
	b	.L783
.LVL913:
.L800:
	.loc 1 5059 5
	mov	r1, r5
	mov	r0, r4
	bl	I2C_ITMasterCplt
.LVL914:
	b	.L793
.LVL915:
.L794:
	.cfi_def_cfa_offset 0
	.cfi_restore 4
	.cfi_restore 5
	.cfi_restore 6
	.cfi_restore 14
	.loc 1 4932 47 is_stmt 0
	movs	r0, #2
.LVL916:
	.loc 1 5066 1
	bx	lr
	.cfi_endproc
.LFE384:
	.size	I2C_Master_ISR_IT, .-I2C_Master_ISR_IT
	.section	.text.I2C_Mem_ISR_DMA,"ax",%progbits
	.align	1
	.syntax unified
	.thumb
	.thumb_func
	.type	I2C_Mem_ISR_DMA, %function
I2C_Mem_ISR_DMA:
.LFB388:
	.loc 1 5501 1 is_stmt 1
	.cfi_startproc
	@ args = 0, pretend = 0, frame = 0
	@ frame_needed = 0, uses_anonymous_args = 0
.LVL917:
	.loc 1 5502 3
	.loc 1 5505 3
	.loc 1 5505 7
	.loc 1 5505 16 is_stmt 0
	ldrb	r3, [r0, #64]	@ zero_extendqisi2
	.loc 1 5505 9
	cmp	r3, #1
	beq	.L817
	.loc 1 5501 1 discriminator 2
	push	{r4, lr}
	.cfi_def_cfa_offset 8
	.cfi_offset 4, -8
	.cfi_offset 14, -4
	sub	sp, sp, #8
	.cfi_def_cfa_offset 16
	mov	r4, r0
	.loc 1 5505 66 is_stmt 1 discriminator 2
	.loc 1 5505 79 is_stmt 0 discriminator 2
	movs	r3, #1
	strb	r3, [r0, #64]
	.loc 1 5505 5 is_stmt 1 discriminator 2
	.loc 1 5507 3 discriminator 2
	.loc 1 5507 6 is_stmt 0 discriminator 2
	tst	r1, #16
	beq	.L804
	.loc 1 5507 125 discriminator 1
	tst	r2, #16
	bne	.L823
.L804:
	.loc 1 5524 8 is_stmt 1
	.loc 1 5524 11 is_stmt 0
	tst	r1, #2
	beq	.L806
	.loc 1 5524 130 discriminator 1
	tst	r2, #2
	beq	.L806
	.loc 1 5528 5 is_stmt 1
	.loc 1 5528 9 is_stmt 0
	ldr	r3, [r4]
	.loc 1 5528 32
	ldr	r2, [r4, #80]
.LVL918:
	.loc 1 5528 26
	str	r2, [r3, #40]
	.loc 1 5531 5 is_stmt 1
	.loc 1 5531 22 is_stmt 0
	mov	r3, #-1
	str	r3, [r4, #80]
.LVL919:
.L805:
	.loc 1 5631 3 is_stmt 1
	.loc 1 5634 3
	.loc 1 5634 7
	.loc 1 5634 20 is_stmt 0
	movs	r0, #0
	strb	r0, [r4, #64]
	.loc 1 5634 5 is_stmt 1
	.loc 1 5636 3
	.loc 1 5637 1 is_stmt 0
	add	sp, sp, #8
	.cfi_remember_state
	.cfi_def_cfa_offset 8
	@ sp needed
	pop	{r4, pc}
.LVL920:
.L823:
	.cfi_restore_state
	.loc 1 5511 5 is_stmt 1
	.loc 1 5511 101 is_stmt 0
	ldr	r3, [r0]
	.loc 1 5511 92
	movs	r2, #16
.LVL921:
	str	r2, [r3, #28]
	.loc 1 5514 5 is_stmt 1
	.loc 1 5514 9 is_stmt 0
	ldr	r3, [r0, #68]
	.loc 1 5514 21
	orr	r3, r3, #4
	str	r3, [r0, #68]
	.loc 1 5519 5 is_stmt 1
	movs	r1, #32
.LVL922:
	bl	I2C_Enable_IRQ
.LVL923:
	.loc 1 5522 5
	mov	r0, r4
	bl	I2C_Flush_TXDR
.LVL924:
	b	.L805
.LVL925:
.L806:
	.loc 1 5533 8
	.loc 1 5533 11 is_stmt 0
	tst	r1, #128
	beq	.L807
	.loc 1 5533 130 discriminator 1
	tst	r2, #64
	bne	.L824
.L807:
	.loc 1 5578 8 is_stmt 1
	.loc 1 5578 11 is_stmt 0
	tst	r1, #64
	beq	.L812
	.loc 1 5578 130 discriminator 1
	tst	r2, #64
	bne	.L825
.L812:
	.loc 1 5622 8 is_stmt 1
	.loc 1 5622 11 is_stmt 0
	tst	r1, #32
	beq	.L805
	.loc 1 5622 130 discriminator 1
	tst	r2, #32
	beq	.L805
	.loc 1 5626 5 is_stmt 1
	mov	r0, r4
.LVL926:
	bl	I2C_ITMasterCplt
.LVL927:
	b	.L805
.LVL928:
.L824:
	.loc 1 5537 5
	movs	r1, #1
.LVL929:
	mov	r0, r4
.LVL930:
	bl	I2C_Disable_IRQ
.LVL931:
	.loc 1 5540 5
	movs	r1, #16
	mov	r0, r4
	bl	I2C_Enable_IRQ
.LVL932:
	.loc 1 5542 5
	.loc 1 5542 13 is_stmt 0
	ldrh	r3, [r4, #42]
	uxth	r3, r3
	.loc 1 5542 8
	cmp	r3, #0
	beq	.L808
	.loc 1 5545 7 is_stmt 1
	.loc 1 5545 15 is_stmt 0
	ldrh	r3, [r4, #42]
	uxth	r3, r3
	.loc 1 5545 10
	cmp	r3, #255
	bls	.L809
	.loc 1 5547 9 is_stmt 1
	.loc 1 5547 24 is_stmt 0
	movs	r2, #255
	strh	r2, [r4, #40]	@ movhi
	.loc 1 5548 9 is_stmt 1
	.loc 1 5548 48 is_stmt 0
	ldr	r1, [r4, #76]
	.loc 1 5548 9
	movs	r3, #0
	str	r3, [sp]
	mov	r3, #16777216
	uxth	r1, r1
	mov	r0, r4
	bl	I2C_TransferConfig
.LVL933:
.L810:
	.loc 1 5559 7 is_stmt 1
	.loc 1 5559 11 is_stmt 0
	ldrh	r3, [r4, #42]
	uxth	r3, r3
	.loc 1 5559 30
	ldrh	r2, [r4, #40]
	.loc 1 5559 23
	subs	r3, r3, r2
	uxth	r3, r3
	strh	r3, [r4, #42]	@ movhi
	.loc 1 5562 7 is_stmt 1
	.loc 1 5562 15 is_stmt 0
	ldrb	r3, [r4, #65]	@ zero_extendqisi2
	uxtb	r3, r3
	.loc 1 5562 10
	cmp	r3, #34
	beq	.L826
	.loc 1 5568 9 is_stmt 1
	.loc 1 5568 13 is_stmt 0
	ldr	r2, [r4]
	.loc 1 5568 23
	ldr	r3, [r2]
	.loc 1 5568 29
	orr	r3, r3, #16384
	str	r3, [r2]
	b	.L805
.L809:
	.loc 1 5553 9 is_stmt 1
	.loc 1 5553 30 is_stmt 0
	ldrh	r2, [r4, #42]
	uxth	r2, r2
	.loc 1 5553 24
	strh	r2, [r4, #40]	@ movhi
	.loc 1 5554 9 is_stmt 1
	.loc 1 5554 48 is_stmt 0
	ldr	r1, [r4, #76]
	.loc 1 5554 9
	movs	r3, #0
	str	r3, [sp]
	mov	r3, #33554432
	uxtb	r2, r2
	uxth	r1, r1
	mov	r0, r4
	bl	I2C_TransferConfig
.LVL934:
	b	.L810
.L826:
	.loc 1 5564 9 is_stmt 1
	.loc 1 5564 13 is_stmt 0
	ldr	r2, [r4]
	.loc 1 5564 23
	ldr	r3, [r2]
	.loc 1 5564 29
	orr	r3, r3, #32768
	str	r3, [r2]
	b	.L805
.L808:
	.loc 1 5575 7 is_stmt 1
	movs	r1, #64
	mov	r0, r4
	bl	I2C_ITError
.LVL935:
	b	.L805
.LVL936:
.L825:
	.loc 1 5582 5
	movs	r1, #1
.LVL937:
	mov	r0, r4
.LVL938:
	bl	I2C_Disable_IRQ
.LVL939:
	.loc 1 5585 5
	movs	r1, #16
	mov	r0, r4
	bl	I2C_Enable_IRQ
.LVL940:
	.loc 1 5587 5
	.loc 1 5587 13 is_stmt 0
	ldrb	r3, [r4, #65]	@ zero_extendqisi2
	uxtb	r3, r3
	.loc 1 5587 8
	cmp	r3, #34
	beq	.L818
	.loc 1 5502 12
	ldr	r0, .L828
.L813:
.LVL941:
	.loc 1 5592 5 is_stmt 1
	.loc 1 5592 13 is_stmt 0
	ldrh	r3, [r4, #42]
	uxth	r3, r3
	.loc 1 5592 8
	cmp	r3, #255
	bls	.L814
	.loc 1 5594 7 is_stmt 1
	.loc 1 5594 22 is_stmt 0
	movs	r2, #255
	strh	r2, [r4, #40]	@ movhi
	.loc 1 5597 7 is_stmt 1
	.loc 1 5597 46 is_stmt 0
	ldr	r1, [r4, #76]
	.loc 1 5597 7
	str	r0, [sp]
	mov	r3, #16777216
	uxth	r1, r1
	mov	r0, r4
.LVL942:
	bl	I2C_TransferConfig
.LVL943:
.L815:
	.loc 1 5610 5 is_stmt 1
	.loc 1 5610 9 is_stmt 0
	ldrh	r3, [r4, #42]
	uxth	r3, r3
	.loc 1 5610 28
	ldrh	r2, [r4, #40]
	.loc 1 5610 21
	subs	r3, r3, r2
	uxth	r3, r3
	strh	r3, [r4, #42]	@ movhi
	.loc 1 5613 5 is_stmt 1
	.loc 1 5613 13 is_stmt 0
	ldrb	r3, [r4, #65]	@ zero_extendqisi2
	uxtb	r3, r3
	.loc 1 5613 8
	cmp	r3, #34
	beq	.L827
	.loc 1 5619 7 is_stmt 1
	.loc 1 5619 11 is_stmt 0
	ldr	r2, [r4]
	.loc 1 5619 21
	ldr	r3, [r2]
	.loc 1 5619 27
	orr	r3, r3, #16384
	str	r3, [r2]
	b	.L805
.LVL944:
.L818:
	.loc 1 5589 17
	ldr	r0, .L828+4
	b	.L813
.LVL945:
.L814:
	.loc 1 5602 7 is_stmt 1
	.loc 1 5602 28 is_stmt 0
	ldrh	r2, [r4, #42]
	uxth	r2, r2
	.loc 1 5602 22
	strh	r2, [r4, #40]	@ movhi
	.loc 1 5605 7 is_stmt 1
	.loc 1 5605 46 is_stmt 0
	ldr	r1, [r4, #76]
	.loc 1 5605 7
	str	r0, [sp]
	mov	r3, #33554432
	uxtb	r2, r2
	uxth	r1, r1
	mov	r0, r4
.LVL946:
	bl	I2C_TransferConfig
.LVL947:
	b	.L815
.L827:
	.loc 1 5615 7 is_stmt 1
	.loc 1 5615 11 is_stmt 0
	ldr	r2, [r4]
	.loc 1 5615 21
	ldr	r3, [r2]
	.loc 1 5615 27
	orr	r3, r3, #32768
	str	r3, [r2]
	b	.L805
.LVL948:
.L817:
	.cfi_def_cfa_offset 0
	.cfi_restore 4
	.cfi_restore 14
	.loc 1 5505 47
	movs	r0, #2
.LVL949:
	.loc 1 5637 1
	bx	lr
.L829:
	.align	2
.L828:
	.word	-2147475456
	.word	-2147474432
	.cfi_endproc
.LFE388:
	.size	I2C_Mem_ISR_DMA, .-I2C_Mem_ISR_DMA
	.section	.text.I2C_Slave_ISR_DMA,"ax",%progbits
	.align	1
	.syntax unified
	.thumb
	.thumb_func
	.type	I2C_Slave_ISR_DMA, %function
I2C_Slave_ISR_DMA:
.LFB389:
	.loc 1 5649 1 is_stmt 1
	.cfi_startproc
