	.cpu cortex-m7
	.arch armv7e-m
	.fpu fpv5-d16
	.eabi_attribute 28, 1
	.eabi_attribute 20, 1
	.eabi_attribute 21, 1
	.eabi_attribute 23, 3
	.eabi_attribute 24, 1
	.eabi_attribute 25, 1
	.eabi_attribute 26, 1
	.eabi_attribute 30, 1
	.eabi_attribute 34, 1
	.eabi_attribute 18, 4
	.file	"stm32h7xx_hal_ltdc.c"
	.text
.Ltext0:
	.cfi_sections	.debug_frame
	.file 1 "D:/RTOS/Board/YD-STM32H7xxVx_ClassicV19/cmake-build-debug/_deps/stm32h7xx_hal_driver-src/Src/stm32h7xx_hal_ltdc.c"
	.section	.text.LTDC_SetConfig,"ax",%progbits
	.align	1
	.syntax unified
	.thumb
	.thumb_func
	.type	LTDC_SetConfig, %function
LTDC_SetConfig:
.LFB374:
	.loc 1 2133 1
	.cfi_startproc
	@ args = 0, pretend = 0, frame = 0
	@ frame_needed = 0, uses_anonymous_args = 0
.LVL0:
	push	{r4, r5, r6, lr}
	.cfi_def_cfa_offset 16
	.cfi_offset 4, -16
	.cfi_offset 5, -12
	.cfi_offset 6, -8
	.cfi_offset 14, -4
	.loc 1 2134 3
	.loc 1 2135 3
	.loc 1 2136 3
	.loc 1 2139 3
	.loc 1 2139 20 is_stmt 0
	ldr	r5, [r1, #4]
	.loc 1 2139 40
	ldr	r3, [r0]
	.loc 1 2139 50
	ldr	r4, [r3, #12]
	.loc 1 2139 79
	ubfx	r4, r4, #16, #12
	.loc 1 2139 31
	add	r5, r5, r4
.LVL1:
	.loc 1 2140 3 is_stmt 1
	.loc 1 2140 102 is_stmt 0
	lsl	ip, r2, #7
	add	r3, r3, r2, lsl #7
	ldr	r4, [r3, #136]
	.loc 1 2140 110
	and	r4, r4, #61440
	str	r4, [r3, #136]
	.loc 1 2141 3 is_stmt 1
	.loc 1 2141 123 is_stmt 0
	ldr	r3, [r1]
	.loc 1 2142 49
	ldr	r4, [r0]
	.loc 1 2142 59
	ldr	r6, [r4, #12]
	.loc 1 2142 88
	ubfx	r6, r6, #16, #12
	.loc 1 2141 134
	add	r3, r3, r6
	.loc 1 2142 96
	adds	r3, r3, #1
	.loc 1 2141 27
	add	r4, r4, r2, lsl #7
	.loc 1 2142 102
	orr	r3, r3, r5, lsl #16
	.loc 1 2141 110
	str	r3, [r4, #136]
	.loc 1 2145 3 is_stmt 1
	.loc 1 2145 20 is_stmt 0
	ldr	r5, [r1, #12]
.LVL2:
	.loc 1 2145 39
	ldr	r3, [r0]
	.loc 1 2145 49
	ldr	r4, [r3, #12]
	.loc 1 2145 56
	ubfx	r4, r4, #0, #11
	.loc 1 2145 31
	add	r5, r5, r4
.LVL3:
	.loc 1 2146 3 is_stmt 1
	.loc 1 2146 102 is_stmt 0
	add	r3, r3, r2, lsl #7
	ldr	r4, [r3, #140]
	.loc 1 2146 110
	and	r4, r4, #61440
	str	r4, [r3, #140]
	.loc 1 2147 3 is_stmt 1
	.loc 1 2147 123 is_stmt 0
	ldr	r3, [r1, #8]
	.loc 1 2147 142
	ldr	r4, [r0]
	.loc 1 2147 152
	ldr	r6, [r4, #12]
	.loc 1 2147 159
	ubfx	lr, r6, #0, #11
	.loc 1 2147 134
	add	r3, r3, lr
	.loc 1 2147 180
	adds	r3, r3, #1
	.loc 1 2147 27
	add	r4, r4, r2, lsl #7
	.loc 1 2147 186
	orr	r3, r3, r5, lsl #16
	.loc 1 2147 110
	str	r3, [r4, #140]
	.loc 1 2150 3 is_stmt 1
	.loc 1 2150 58 is_stmt 0
	ldr	r3, [r0]
	.loc 1 2150 102
	add	r3, r3, r2, lsl #7
	ldr	r4, [r3, #148]
	.loc 1 2150 109
	bic	r4, r4, #7
	str	r4, [r3, #148]
	.loc 1 2151 3 is_stmt 1
	.loc 1 2151 58 is_stmt 0
	ldr	r3, [r0]
	.loc 1 2151 27
	add	r3, r3, r2, lsl #7
	.loc 1 2151 121
	ldr	r4, [r1, #16]
	.loc 1 2151 109
	str	r4, [r3, #148]
	.loc 1 2154 3 is_stmt 1
	.loc 1 2154 41 is_stmt 0
	ldrb	lr, [r1, #49]	@ zero_extendqisi2
.LVL4:
	.loc 1 2155 3 is_stmt 1
	.loc 1 2155 42 is_stmt 0
	ldrb	r6, [r1, #50]	@ zero_extendqisi2
.LVL5:
	.loc 1 2156 3 is_stmt 1
	.loc 1 2156 20 is_stmt 0
	ldr	r5, [r1, #24]
.LVL6:
	.loc 1 2157 3 is_stmt 1
	.loc 1 2157 58 is_stmt 0
	ldr	r3, [r0]
	.loc 1 2157 102
	add	r3, r3, r2, lsl #7
	ldr	r4, [r3, #156]
	.loc 1 2157 109
	movs	r4, #0
	str	r4, [r3, #156]
	.loc 1 2159 3 is_stmt 1
	.loc 1 2159 132 is_stmt 0
	ldrb	r3, [r1, #48]	@ zero_extendqisi2
	.loc 1 2159 138
	orr	r3, r3, lr, lsl #8
	.loc 1 2159 144
	orr	r3, r3, r6, lsl #16
	.loc 1 2159 27
	ldr	r6, [r0]
.LVL7:
	add	lr, r6, r2, lsl #7
.LVL8:
	.loc 1 2159 151
	orr	r3, r3, r5, lsl #24
	.loc 1 2159 109
	str	r3, [lr, #156]
	.loc 1 2159 27
	add	lr, lr, #132
	.loc 1 2162 3 is_stmt 1
	.loc 1 2162 58 is_stmt 0
	ldr	r3, [r0]
	.loc 1 2162 102
	add	r3, r3, r2, lsl #7
	ldr	r5, [r3, #152]
.LVL9:
	.loc 1 2162 109
	bic	r5, r5, #255
	str	r5, [r3, #152]
	.loc 1 2163 3 is_stmt 1
	.loc 1 2163 58 is_stmt 0
	ldr	r3, [r0]
	.loc 1 2163 27
	add	r3, r3, r2, lsl #7
	.loc 1 2163 121
	ldr	r5, [r1, #20]
	.loc 1 2163 109
	str	r5, [r3, #152]
	.loc 1 2166 3 is_stmt 1
	.loc 1 2166 58 is_stmt 0
	ldr	r3, [r0]
	.loc 1 2166 102
	add	r3, r3, r2, lsl #7
	ldr	r6, [r3, #160]
	.loc 1 2166 109
	ldr	r5, .L11
	ands	r5, r5, r6
	str	r5, [r3, #160]
	.loc 1 2167 3 is_stmt 1
	.loc 1 2167 150 is_stmt 0
	ldr	r5, [r1, #32]
	.loc 1 2167 58
	ldr	r3, [r0]
	.loc 1 2167 27
	add	r3, r3, r2, lsl #7
	.loc 1 2167 139
	ldr	r6, [r1, #28]
	orrs	r5, r5, r6
	.loc 1 2167 109
	str	r5, [r3, #160]
	.loc 1 2170 3 is_stmt 1
	.loc 1 2170 58 is_stmt 0
	ldr	r3, [r0]
	.loc 1 2170 102
	add	r3, r3, r2, lsl #7
	ldr	r5, [r3, #172]
	.loc 1 2170 110
	str	r4, [r3, #172]
	.loc 1 2171 3 is_stmt 1
	.loc 1 2171 58 is_stmt 0
	ldr	r3, [r0]
	.loc 1 2171 27
	add	r3, r3, r2, lsl #7
	.loc 1 2171 122
	ldr	r2, [r1, #36]
.LVL10:
	.loc 1 2171 110
	str	r2, [r3, #172]
	.loc 1 2173 3 is_stmt 1
	.loc 1 2173 16 is_stmt 0
	ldr	r3, [r1, #16]
	.loc 1 2173 6
	cbz	r3, .L8
	.loc 1 2177 8 is_stmt 1
	subs	r3, r3, #1
	cmp	r3, #6
	bhi	.L3
	tbb	[pc, r3]
.L5:
	.byte	(.L9-.L5)/2
	.byte	(.L6-.L5)/2
	.byte	(.L7-.L5)/2
	.byte	(.L6-.L5)/2
	.byte	(.L3-.L5)/2
	.byte	(.L3-.L5)/2
	.byte	(.L4-.L5)/2
	.p2align 1
.L3:
	.loc 1 2173 6 is_stmt 0
	movs	r5, #1
	b	.L2
.L6:
	movs	r5, #2
	b	.L2
.L7:
	movs	r5, #2
	b	.L2
.L4:
	movs	r5, #2
	b	.L2
.L8:
	.loc 1 2175 9
	movs	r5, #4
.L2:
.LVL11:
	.loc 1 2194 3 is_stmt 1
	.loc 1 2194 58 is_stmt 0
	ldr	r3, [r0]
	.loc 1 2194 102
	add	r3, r3, ip
	ldr	r2, [r3, #176]
	.loc 1 2194 110
	and	r2, r2, #-536813568
	str	r2, [r3, #176]
	.loc 1 2195 3 is_stmt 1
	.loc 1 2195 124 is_stmt 0
	ldr	r3, [r1, #40]
	.loc 1 2195 137
	mul	r4, r5, r3
	.loc 1 2196 54
	ldr	r3, [r1, #4]
	.loc 1 2196 76
	ldr	r2, [r1]
	.loc 1 2196 65
	subs	r3, r3, r2
	.loc 1 2196 88
	mul	r3, r5, r3
	.loc 1 2196 95
	adds	r3, r3, #7
	.loc 1 2195 58
	ldr	r2, [r0]
	.loc 1 2195 27
	add	r2, r2, ip
	.loc 1 2195 152
	orr	r3, r3, r4, lsl #16
	.loc 1 2195 110
	str	r3, [r2, #176]
	.loc 1 2198 3 is_stmt 1
	.loc 1 2198 58 is_stmt 0
	ldr	r3, [r0]
	.loc 1 2198 102
	add	r3, r3, ip
	ldr	r4, [r3, #180]
	.loc 1 2198 111
	ldr	r2, .L11+4
	ands	r2, r2, r4
	str	r2, [r3, #180]
	.loc 1 2199 3 is_stmt 1
	.loc 1 2199 58 is_stmt 0
	ldr	r3, [r0]
	.loc 1 2199 27
	add	r3, r3, ip
	.loc 1 2199 123
	ldr	r2, [r1, #44]
	.loc 1 2199 111
	str	r2, [r3, #180]
	.loc 1 2202 3 is_stmt 1
	.loc 1 2202 58 is_stmt 0
	ldr	r3, [r0]
	.loc 1 2202 102
	add	r3, r3, ip
	ldr	r2, [r3, #132]
	.loc 1 2202 107
	orr	r2, r2, #1
	str	r2, [r3, #132]
	.loc 1 2203 1
	pop	{r4, r5, r6, pc}
.LVL12:
.L9:
	.loc 1 2173 6
	movs	r5, #3
	b	.L2
.L12:
	.align	2
.L11:
	.word	-1800
	.word	-2048
	.cfi_endproc
.LFE374:
	.size	LTDC_SetConfig, .-LTDC_SetConfig
	.section	.text.HAL_LTDC_MspInit,"ax",%progbits
	.align	1
	.weak	HAL_LTDC_MspInit
	.syntax unified
	.thumb
	.thumb_func
	.type	HAL_LTDC_MspInit, %function
HAL_LTDC_MspInit:
.LFB337:
	.loc 1 400 1 is_stmt 1
	.cfi_startproc
	@ args = 0, pretend = 0, frame = 0
	@ frame_needed = 0, uses_anonymous_args = 0
	@ link register save eliminated.
.LVL13:
	.loc 1 402 3
	.loc 1 407 1 is_stmt 0
	bx	lr
	.cfi_endproc
.LFE337:
	.size	HAL_LTDC_MspInit, .-HAL_LTDC_MspInit
	.section	.text.HAL_LTDC_Init,"ax",%progbits
	.align	1
	.global	HAL_LTDC_Init
	.syntax unified
	.thumb
	.thumb_func
	.type	HAL_LTDC_Init, %function
HAL_LTDC_Init:
.LFB335:
	.loc 1 220 1 is_stmt 1
	.cfi_startproc
	@ args = 0, pretend = 0, frame = 0
	@ frame_needed = 0, uses_anonymous_args = 0
.LVL14:
	.loc 1 221 3
	.loc 1 222 3
	.loc 1 225 3
	.loc 1 225 6 is_stmt 0
	cmp	r0, #0
	beq	.L17
	.loc 1 220 1
	push	{r3, r4, r5, lr}
	.cfi_def_cfa_offset 16
	.cfi_offset 3, -16
	.cfi_offset 4, -12
	.cfi_offset 5, -8
	.cfi_offset 14, -4
	mov	r4, r0
	.loc 1 231 3 is_stmt 1
	.loc 1 232 3
	.loc 1 233 3
	.loc 1 234 3
	.loc 1 235 3
	.loc 1 236 3
	.loc 1 237 3
	.loc 1 238 3
	.loc 1 239 3
	.loc 1 240 3
	.loc 1 241 3
	.loc 1 242 3
	.loc 1 243 3
	.loc 1 264 3
	.loc 1 264 12 is_stmt 0
	ldrb	r3, [r0, #161]	@ zero_extendqisi2
	.loc 1 264 6
	cmp	r3, #0
	beq	.L22
.LVL15:
.L16:
	.loc 1 274 3 is_stmt 1
	.loc 1 274 16 is_stmt 0
	movs	r3, #2
	strb	r3, [r4, #161]
	.loc 1 277 3 is_stmt 1
	.loc 1 277 8 is_stmt 0
	ldr	r2, [r4]
	.loc 1 277 18
	ldr	r3, [r2, #24]
	.loc 1 277 24
	bic	r3, r3, #-268435456
	str	r3, [r2, #24]
	.loc 1 278 3 is_stmt 1
	.loc 1 278 8 is_stmt 0
	ldr	r1, [r4]
	.loc 1 278 18
	ldr	r2, [r1, #24]
	.loc 1 278 49
	ldr	r3, [r4, #4]
	.loc 1 278 74
	ldr	r0, [r4, #8]
	.loc 1 278 61
	orrs	r3, r3, r0
	.loc 1 279 49
	ldr	r0, [r4, #12]
	.loc 1 278 86
	orrs	r3, r3, r0
	.loc 1 279 74
	ldr	r0, [r4, #16]
	.loc 1 279 61
	orrs	r3, r3, r0
	.loc 1 278 24
	orrs	r3, r3, r2
	str	r3, [r1, #24]
	.loc 1 282 3 is_stmt 1
	.loc 1 282 8 is_stmt 0
	ldr	r1, [r4]
	.loc 1 282 18
	ldr	r2, [r1, #8]
	.loc 1 282 25
	ldr	r3, .L23
	ands	r2, r2, r3
	str	r2, [r1, #8]
	.loc 1 283 3 is_stmt 1
.LVL16:
	.loc 1 284 3
	.loc 1 284 8 is_stmt 0
	ldr	r0, [r4]
	.loc 1 284 18
	ldr	r2, [r0, #8]
	.loc 1 284 46
	ldr	r1, [r4, #24]
	.loc 1 284 33
	ldr	r5, [r4, #20]
	orr	r1, r1, r5, lsl #16
	.loc 1 284 25
	orrs	r2, r2, r1
	str	r2, [r0, #8]
.LVL17:
	.loc 1 287 3 is_stmt 1
	.loc 1 287 8 is_stmt 0
	ldr	r1, [r4]
	.loc 1 287 18
	ldr	r2, [r1, #12]
	.loc 1 287 25
	ands	r2, r2, r3
	str	r2, [r1, #12]
	.loc 1 288 3 is_stmt 1
.LVL18:
	.loc 1 289 3
	.loc 1 289 8 is_stmt 0
	ldr	r0, [r4]
	.loc 1 289 18
	ldr	r2, [r0, #12]
	.loc 1 289 46
	ldr	r1, [r4, #32]
	.loc 1 289 33
	ldr	r5, [r4, #28]
	orr	r1, r1, r5, lsl #16
	.loc 1 289 25
	orrs	r2, r2, r1
	str	r2, [r0, #12]
.LVL19:
	.loc 1 292 3 is_stmt 1
	.loc 1 292 8 is_stmt 0
	ldr	r1, [r4]
	.loc 1 292 18
	ldr	r2, [r1, #16]
	.loc 1 292 25
	ands	r2, r2, r3
	str	r2, [r1, #16]
	.loc 1 293 3 is_stmt 1
.LVL20:
	.loc 1 294 3
	.loc 1 294 8 is_stmt 0
	ldr	r0, [r4]
	.loc 1 294 18
	ldr	r2, [r0, #16]
	.loc 1 294 46
	ldr	r1, [r4, #40]
	.loc 1 294 33
	ldr	r5, [r4, #36]
	orr	r1, r1, r5, lsl #16
	.loc 1 294 25
	orrs	r2, r2, r1
	str	r2, [r0, #16]
.LVL21:
	.loc 1 297 3 is_stmt 1
	.loc 1 297 8 is_stmt 0
	ldr	r1, [r4]
	.loc 1 297 18
	ldr	r2, [r1, #20]
	.loc 1 297 25
	ands	r3, r3, r2
	str	r3, [r1, #20]
	.loc 1 298 3 is_stmt 1
	.loc 1 298 21 is_stmt 0
	ldr	r0, [r4, #44]
.LVL22:
	.loc 1 299 3 is_stmt 1
	.loc 1 299 8 is_stmt 0
	ldr	r1, [r4]
	.loc 1 299 18
	ldr	r3, [r1, #20]
	.loc 1 299 46
	ldr	r2, [r4, #48]
	.loc 1 299 33
	orr	r2, r2, r0, lsl #16
	.loc 1 299 25
	orrs	r3, r3, r2
	str	r3, [r1, #20]
	.loc 1 302 3 is_stmt 1
	.loc 1 302 42 is_stmt 0
	ldrb	r0, [r4, #53]	@ zero_extendqisi2
.LVL23:
	.loc 1 303 3 is_stmt 1
	.loc 1 303 43 is_stmt 0
	ldrb	r3, [r4, #54]	@ zero_extendqisi2
	.loc 1 303 8
	lsls	r3, r3, #16
.LVL24:
	.loc 1 304 3 is_stmt 1
	.loc 1 304 8 is_stmt 0
	ldr	r1, [r4]
	.loc 1 304 18
	ldr	r2, [r1, #44]
	.loc 1 304 25
	and	r2, r2, #-16777216
	str	r2, [r1, #44]
	.loc 1 305 3 is_stmt 1
	.loc 1 305 8 is_stmt 0
	ldr	r1, [r4]
	.loc 1 305 18
	ldr	r2, [r1, #44]
	.loc 1 305 34
	orr	r3, r3, r0, lsl #8
.LVL25:
	.loc 1 305 63
	ldrb	r0, [r4, #52]	@ zero_extendqisi2
.LVL26:
	.loc 1 305 40
	orrs	r3, r3, r0
	.loc 1 305 25
	orrs	r3, r3, r2
	str	r3, [r1, #44]
	.loc 1 308 3 is_stmt 1
	.loc 1 308 11 is_stmt 0
	ldr	r2, [r4]
	.loc 1 308 21
	ldr	r3, [r2, #52]
	.loc 1 308 27
	orr	r3, r3, #6
	str	r3, [r2, #52]
	.loc 1 311 3 is_stmt 1
	.loc 1 311 11 is_stmt 0
	ldr	r2, [r4]
	.loc 1 311 21
	ldr	r3, [r2, #24]
	.loc 1 311 27
	orr	r3, r3, #1
	str	r3, [r2, #24]
	.loc 1 314 3 is_stmt 1
	.loc 1 314 20 is_stmt 0
	movs	r0, #0
	str	r0, [r4, #164]
	.loc 1 317 3 is_stmt 1
	.loc 1 317 16 is_stmt 0
	movs	r3, #1
	strb	r3, [r4, #161]
	.loc 1 319 3 is_stmt 1
	.loc 1 320 1 is_stmt 0
	pop	{r3, r4, r5, pc}
.LVL27:
.L22:
	.loc 1 267 5 is_stmt 1
	.loc 1 267 17 is_stmt 0
	strb	r3, [r0, #160]
	.loc 1 269 5 is_stmt 1
	bl	HAL_LTDC_MspInit
.LVL28:
	b	.L16
.LVL29:
.L17:
	.cfi_def_cfa_offset 0
	.cfi_restore 3
	.cfi_restore 4
	.cfi_restore 5
	.cfi_restore 14
	.loc 1 227 12 is_stmt 0
	movs	r0, #1
.LVL30:
	.loc 1 320 1
	bx	lr
.L24:
	.align	2
.L23:
	.word	-268371968
	.cfi_endproc
.LFE335:
	.size	HAL_LTDC_Init, .-HAL_LTDC_Init
	.section	.text.HAL_LTDC_MspDeInit,"ax",%progbits
	.align	1
	.weak	HAL_LTDC_MspDeInit
	.syntax unified
	.thumb
	.thumb_func
	.type	HAL_LTDC_MspDeInit, %function
HAL_LTDC_MspDeInit:
.LFB338:
	.loc 1 416 1 is_stmt 1
	.cfi_startproc
	@ args = 0, pretend = 0, frame = 0
	@ frame_needed = 0, uses_anonymous_args = 0
	@ link register save eliminated.
.LVL31:
	.loc 1 418 3
	.loc 1 423 1 is_stmt 0
	bx	lr
	.cfi_endproc
.LFE338:
	.size	HAL_LTDC_MspDeInit, .-HAL_LTDC_MspDeInit
	.section	.text.HAL_LTDC_DeInit,"ax",%progbits
	.align	1
	.global	HAL_LTDC_DeInit
	.syntax unified
	.thumb
	.thumb_func
	.type	HAL_LTDC_DeInit, %function
HAL_LTDC_DeInit:
.LFB336:
	.loc 1 330 1 is_stmt 1
	.cfi_startproc
	@ args = 0, pretend = 0, frame = 0
	@ frame_needed = 0, uses_anonymous_args = 0
.LVL32:
	.loc 1 331 3
	.loc 1 334 3
	.loc 1 334 6 is_stmt 0
	cbz	r0, .L31
	.loc 1 330 1
	push	{r3, r4, r5, lr}
	.cfi_def_cfa_offset 16
	.cfi_offset 3, -16
	.cfi_offset 4, -12
	.cfi_offset 5, -8
	.cfi_offset 14, -4
	mov	r4, r0
	.loc 1 340 3 is_stmt 1
	.loc 1 343 3
	.loc 1 343 62 is_stmt 0
	ldr	r2, [r0]
	.loc 1 343 112
	ldr	r3, [r2, #132]
	.loc 1 343 117
	bic	r3, r3, #1
	str	r3, [r2, #132]
	.loc 1 347 3 is_stmt 1
	.loc 1 347 62 is_stmt 0
	ldr	r2, [r0]
	.loc 1 347 112
	ldr	r3, [r2, #260]
	.loc 1 347 117
	bic	r3, r3, #1
	str	r3, [r2, #260]
	.loc 1 351 3 is_stmt 1
	.loc 1 351 11 is_stmt 0
	ldr	r2, [r0]
	.loc 1 351 21
	ldr	r3, [r2, #36]
	.loc 1 351 28
	orr	r3, r3, #2
	str	r3, [r2, #36]
	.loc 1 354 3 is_stmt 1
	.loc 1 354 15 is_stmt 0
	bl	HAL_GetTick
.LVL33:
	mov	r5, r0
.LVL34:
	.loc 1 357 3 is_stmt 1
.L28:
	.loc 1 357 56
	.loc 1 357 17 is_stmt 0
	ldr	r3, [r4]
	.loc 1 357 27
	ldr	r3, [r3, #72]
	.loc 1 357 56
	tst	r3, #4
	bne	.L29
	.loc 1 360 5 is_stmt 1
	.loc 1 360 10 is_stmt 0
	bl	HAL_GetTick
.LVL35:
	.loc 1 360 24
	subs	r0, r0, r5
	.loc 1 360 8
	cmp	r0, #100
	bls	.L28
.L29:
	.loc 1 367 3 is_stmt 1
	.loc 1 367 11 is_stmt 0
	ldr	r2, [r4]
	.loc 1 367 21
	ldr	r3, [r2, #24]
	.loc 1 367 27
	bic	r3, r3, #1
	str	r3, [r2, #24]
	.loc 1 378 3 is_stmt 1
	mov	r0, r4
	bl	HAL_LTDC_MspDeInit
.LVL36:
	.loc 1 382 3
	.loc 1 382 20 is_stmt 0
	movs	r0, #0
	str	r0, [r4, #164]
	.loc 1 385 3 is_stmt 1
	.loc 1 385 16 is_stmt 0
	strb	r0, [r4, #161]
	.loc 1 388 3 is_stmt 1
	.loc 1 388 7
	.loc 1 388 21 is_stmt 0
	strb	r0, [r4, #160]
	.loc 1 388 5 is_stmt 1
	.loc 1 390 3
	.loc 1 391 1 is_stmt 0
	pop	{r3, r4, r5, pc}
.LVL37:
.L31:
	.cfi_def_cfa_offset 0
	.cfi_restore 3
	.cfi_restore 4
	.cfi_restore 5
	.cfi_restore 14
	.loc 1 336 12
	movs	r0, #1
.LVL38:
	.loc 1 391 1
	bx	lr
	.cfi_endproc
.LFE336:
	.size	HAL_LTDC_DeInit, .-HAL_LTDC_DeInit
	.section	.text.HAL_LTDC_ErrorCallback,"ax",%progbits
	.align	1
	.weak	HAL_LTDC_ErrorCallback
	.syntax unified
	.thumb
	.thumb_func
	.type	HAL_LTDC_ErrorCallback, %function
HAL_LTDC_ErrorCallback:
.LFB340:
	.loc 1 750 1 is_stmt 1
	.cfi_startproc
	@ args = 0, pretend = 0, frame = 0
	@ frame_needed = 0, uses_anonymous_args = 0
	@ link register save eliminated.
.LVL39:
	.loc 1 752 3
	.loc 1 757 1 is_stmt 0
	bx	lr
	.cfi_endproc
.LFE340:
	.size	HAL_LTDC_ErrorCallback, .-HAL_LTDC_ErrorCallback
	.section	.text.HAL_LTDC_LineEventCallback,"ax",%progbits
	.align	1
	.weak	HAL_LTDC_LineEventCallback
	.syntax unified
	.thumb
	.thumb_func
	.type	HAL_LTDC_LineEventCallback, %function
HAL_LTDC_LineEventCallback:
.LFB341:
	.loc 1 766 1 is_stmt 1
	.cfi_startproc
	@ args = 0, pretend = 0, frame = 0
	@ frame_needed = 0, uses_anonymous_args = 0
	@ link register save eliminated.
.LVL40:
	.loc 1 768 3
	.loc 1 773 1 is_stmt 0
	bx	lr
	.cfi_endproc
.LFE341:
	.size	HAL_LTDC_LineEventCallback, .-HAL_LTDC_LineEventCallback
	.section	.text.HAL_LTDC_ReloadEventCallback,"ax",%progbits
	.align	1
	.weak	HAL_LTDC_ReloadEventCallback
	.syntax unified
	.thumb
	.thumb_func
	.type	HAL_LTDC_ReloadEventCallback, %function
HAL_LTDC_ReloadEventCallback:
.LFB342:
	.loc 1 782 1 is_stmt 1
	.cfi_startproc
	@ args = 0, pretend = 0, frame = 0
	@ frame_needed = 0, uses_anonymous_args = 0
	@ link register save eliminated.
.LVL41:
	.loc 1 784 3
	.loc 1 789 1 is_stmt 0
	bx	lr
	.cfi_endproc
.LFE342:
	.size	HAL_LTDC_ReloadEventCallback, .-HAL_LTDC_ReloadEventCallback
	.section	.text.HAL_LTDC_IRQHandler,"ax",%progbits
	.align	1
	.global	HAL_LTDC_IRQHandler
	.syntax unified
	.thumb
	.thumb_func
	.type	HAL_LTDC_IRQHandler, %function
HAL_LTDC_IRQHandler:
.LFB339:
	.loc 1 632 1 is_stmt 1
	.cfi_startproc
	@ args = 0, pretend = 0, frame = 0
	@ frame_needed = 0, uses_anonymous_args = 0
.LVL42:
	push	{r4, r5, r6, lr}
	.cfi_def_cfa_offset 16
	.cfi_offset 4, -16
	.cfi_offset 5, -12
	.cfi_offset 6, -8
	.cfi_offset 14, -4
	mov	r4, r0
	.loc 1 633 3
	.loc 1 633 30 is_stmt 0
	ldr	r3, [r0]
	.loc 1 633 12
	ldr	r5, [r3, #56]
.LVL43:
	.loc 1 634 3 is_stmt 1
	.loc 1 634 12 is_stmt 0
	ldr	r6, [r3, #52]
.LVL44:
	.loc 1 637 3 is_stmt 1
	.loc 1 637 6 is_stmt 0
	tst	r5, #4
	beq	.L40
	.loc 1 637 44 discriminator 1
	tst	r6, #4
	bne	.L45
.LVL45:
.L40:
	.loc 1 665 3 is_stmt 1
	.loc 1 665 6 is_stmt 0
	tst	r5, #2
	beq	.L41
	.loc 1 665 44 discriminator 1
	tst	r6, #2
	bne	.L46
.L41:
	.loc 1 693 3 is_stmt 1
	.loc 1 693 6 is_stmt 0
	tst	r5, #1
	beq	.L42
	.loc 1 693 44 discriminator 1
	tst	r6, #1
	bne	.L47
.L42:
	.loc 1 718 3 is_stmt 1
	.loc 1 718 6 is_stmt 0
	tst	r5, #8
	beq	.L39
	.loc 1 718 44 discriminator 1
	tst	r6, #8
	bne	.L48
.L39:
	.loc 1 741 1
	pop	{r4, r5, r6, pc}
.LVL46:
.L45:
	.loc 1 640 5 is_stmt 1
	.loc 1 640 23 is_stmt 0
	ldr	r2, [r3, #52]
	.loc 1 640 29
	bic	r2, r2, #4
	str	r2, [r3, #52]
	.loc 1 643 5 is_stmt 1
	.loc 1 643 13 is_stmt 0
	ldr	r3, [r0]
	.loc 1 643 29
	movs	r2, #4
	str	r2, [r3, #60]
	.loc 1 646 5 is_stmt 1
	.loc 1 646 10 is_stmt 0
	ldr	r3, [r0, #164]
	.loc 1 646 22
	orr	r3, r3, #1
	str	r3, [r0, #164]
	.loc 1 649 5 is_stmt 1
	.loc 1 649 18 is_stmt 0
	strb	r2, [r0, #161]
	.loc 1 652 5 is_stmt 1
	.loc 1 652 9
	.loc 1 652 23 is_stmt 0
	movs	r3, #0
	strb	r3, [r0, #160]
	.loc 1 652 7 is_stmt 1
	.loc 1 660 5
	bl	HAL_LTDC_ErrorCallback
.LVL47:
	b	.L40
.L46:
	.loc 1 668 5
	.loc 1 668 13 is_stmt 0
	ldr	r2, [r4]
	.loc 1 668 23
	ldr	r3, [r2, #52]
	.loc 1 668 29
	bic	r3, r3, #2
	str	r3, [r2, #52]
	.loc 1 671 5 is_stmt 1
	.loc 1 671 13 is_stmt 0
	ldr	r3, [r4]
	.loc 1 671 29
	movs	r2, #2
	str	r2, [r3, #60]
	.loc 1 674 5 is_stmt 1
	.loc 1 674 10 is_stmt 0
	ldr	r3, [r4, #164]
	.loc 1 674 22
	orrs	r3, r3, r2
	str	r3, [r4, #164]
	.loc 1 677 5 is_stmt 1
	.loc 1 677 18 is_stmt 0
	movs	r3, #4
	strb	r3, [r4, #161]
	.loc 1 680 5 is_stmt 1
	.loc 1 680 9
	.loc 1 680 23 is_stmt 0
	movs	r3, #0
	strb	r3, [r4, #160]
	.loc 1 680 7 is_stmt 1
	.loc 1 688 5
	mov	r0, r4
	bl	HAL_LTDC_ErrorCallback
.LVL48:
	b	.L41
.L47:
	.loc 1 696 5
	.loc 1 696 13 is_stmt 0
	ldr	r2, [r4]
	.loc 1 696 23
	ldr	r3, [r2, #52]
	.loc 1 696 29
	bic	r3, r3, #1
	str	r3, [r2, #52]
	.loc 1 699 5 is_stmt 1
	.loc 1 699 13 is_stmt 0
	ldr	r2, [r4]
	.loc 1 699 29
	movs	r3, #1
	str	r3, [r2, #60]
	.loc 1 702 5 is_stmt 1
	.loc 1 702 18 is_stmt 0
	strb	r3, [r4, #161]
	.loc 1 705 5 is_stmt 1
	.loc 1 705 9
	.loc 1 705 23 is_stmt 0
	movs	r3, #0
	strb	r3, [r4, #160]
	.loc 1 705 7 is_stmt 1
	.loc 1 713 5
	mov	r0, r4
	bl	HAL_LTDC_LineEventCallback
.LVL49:
	b	.L42
.L48:
	.loc 1 721 5
	.loc 1 721 13 is_stmt 0
	ldr	r2, [r4]
	.loc 1 721 23
	ldr	r3, [r2, #52]
	.loc 1 721 29
	bic	r3, r3, #8
	str	r3, [r2, #52]
	.loc 1 724 5 is_stmt 1
	.loc 1 724 13 is_stmt 0
	ldr	r3, [r4]
	.loc 1 724 29
	movs	r2, #8
	str	r2, [r3, #60]
	.loc 1 727 5 is_stmt 1
	.loc 1 727 18 is_stmt 0
	movs	r3, #1
	strb	r3, [r4, #161]
	.loc 1 730 5 is_stmt 1
	.loc 1 730 9
	.loc 1 730 23 is_stmt 0
	movs	r3, #0
	strb	r3, [r4, #160]
	.loc 1 730 7 is_stmt 1
	.loc 1 738 5
	mov	r0, r4
	bl	HAL_LTDC_ReloadEventCallback
.LVL50:
	.loc 1 741 1 is_stmt 0
	b	.L39
	.cfi_endproc
.LFE339:
	.size	HAL_LTDC_IRQHandler, .-HAL_LTDC_IRQHandler
	.section	.text.HAL_LTDC_ConfigLayer,"ax",%progbits
	.align	1
	.global	HAL_LTDC_ConfigLayer
	.syntax unified
	.thumb
	.thumb_func
	.type	HAL_LTDC_ConfigLayer, %function
HAL_LTDC_ConfigLayer:
.LFB343:
	.loc 1 832 1 is_stmt 1
	.cfi_startproc
	@ args = 0, pretend = 0, frame = 0
	@ frame_needed = 0, uses_anonymous_args = 0
.LVL51:
	push	{r3, r4, r5, r6, r7, lr}
	.cfi_def_cfa_offset 24
	.cfi_offset 3, -24
	.cfi_offset 4, -20
	.cfi_offset 5, -16
	.cfi_offset 6, -12
	.cfi_offset 7, -8
	.cfi_offset 14, -4
	.loc 1 834 3
	.loc 1 835 3
	.loc 1 836 3
	.loc 1 837 3
	.loc 1 838 3
	.loc 1 839 3
	.loc 1 840 3
	.loc 1 841 3
	.loc 1 842 3
	.loc 1 843 3
	.loc 1 844 3
	.loc 1 845 3
	.loc 1 848 3
	.loc 1 848 7
	.loc 1 848 17 is_stmt 0
	ldrb	r3, [r0, #160]	@ zero_extendqisi2
	.loc 1 848 9
	cmp	r3, #1
	beq	.L51
	mov	r4, r0
	mov	r5, r1
	mov	r6, r2
	.loc 1 848 67 is_stmt 1 discriminator 2
	.loc 1 848 81 is_stmt 0 discriminator 2
	movs	r7, #1
	strb	r7, [r0, #160]
	.loc 1 848 5 is_stmt 1 discriminator 2
	.loc 1 851 3 discriminator 2
	.loc 1 851 16 is_stmt 0 discriminator 2
	movs	r3, #2
	strb	r3, [r0, #161]
	.loc 1 854 3 is_stmt 1 discriminator 2
	.loc 1 854 29 is_stmt 0 discriminator 2
	mov	ip, #52
	mla	ip, ip, r2, r0
	add	ip, ip, #56
	mov	lr, r1
	ldmia	lr!, {r0, r1, r2, r3}
.LVL52:
	stmia	ip!, {r0, r1, r2, r3}
	ldmia	lr!, {r0, r1, r2, r3}
	stmia	ip!, {r0, r1, r2, r3}
	ldmia	lr!, {r0, r1, r2, r3}
	stmia	ip!, {r0, r1, r2, r3}
	ldr	r3, [lr]
	str	r3, [ip]
	.loc 1 857 3 is_stmt 1 discriminator 2
	mov	r2, r6
	mov	r1, r5
	mov	r0, r4
	bl	LTDC_SetConfig
.LVL53:
	.loc 1 860 3 discriminator 2
	.loc 1 860 8 is_stmt 0 discriminator 2
	ldr	r3, [r4]
	.loc 1 860 25 discriminator 2
	str	r7, [r3, #36]
	.loc 1 863 3 is_stmt 1 discriminator 2
	.loc 1 863 16 is_stmt 0 discriminator 2
	strb	r7, [r4, #161]
	.loc 1 866 3 is_stmt 1 discriminator 2
	.loc 1 866 7 discriminator 2
	.loc 1 866 21 is_stmt 0 discriminator 2
	movs	r0, #0
	strb	r0, [r4, #160]
	.loc 1 866 5 is_stmt 1 discriminator 2
	.loc 1 868 3 discriminator 2
.LVL54:
.L50:
	.loc 1 869 1 is_stmt 0
	pop	{r3, r4, r5, r6, r7, pc}
.LVL55:
.L51:
	.loc 1 848 48
	movs	r0, #2
.LVL56:
	b	.L50
	.cfi_endproc
.LFE343:
	.size	HAL_LTDC_ConfigLayer, .-HAL_LTDC_ConfigLayer
	.section	.text.HAL_LTDC_ConfigColorKeying,"ax",%progbits
	.align	1
	.global	HAL_LTDC_ConfigColorKeying
	.syntax unified
	.thumb
	.thumb_func
	.type	HAL_LTDC_ConfigColorKeying, %function
HAL_LTDC_ConfigColorKeying:
.LFB344:
	.loc 1 882 1 is_stmt 1
	.cfi_startproc
	@ args = 0, pretend = 0, frame = 0
	@ frame_needed = 0, uses_anonymous_args = 0
	@ link register save eliminated.
.LVL57:
	mov	r3, r0
	.loc 1 884 3
	.loc 1 887 3
	.loc 1 887 7
	.loc 1 887 17 is_stmt 0
	ldrb	r0, [r0, #160]	@ zero_extendqisi2
.LVL58:
	.loc 1 887 9
	cmp	r0, #1
	beq	.L55
	.loc 1 882 1 discriminator 2
	push	{r4, r5}
	.cfi_def_cfa_offset 8
	.cfi_offset 4, -8
	.cfi_offset 5, -4
	.loc 1 887 67 is_stmt 1 discriminator 2
	.loc 1 887 81 is_stmt 0 discriminator 2
	movs	r4, #1
	strb	r4, [r3, #160]
	.loc 1 887 5 is_stmt 1 discriminator 2
	.loc 1 890 3 discriminator 2
	.loc 1 890 16 is_stmt 0 discriminator 2
	movs	r0, #2
	strb	r0, [r3, #161]
	.loc 1 893 3 is_stmt 1 discriminator 2
	.loc 1 893 58 is_stmt 0 discriminator 2
	ldr	r0, [r3]
	.loc 1 893 102 discriminator 2
	add	r0, r0, r2, lsl #7
	ldr	r5, [r0, #144]
	.loc 1 893 109 discriminator 2
	and	r5, r5, #-16777216
	str	r5, [r0, #144]
	.loc 1 894 3 is_stmt 1 discriminator 2
	.loc 1 894 58 is_stmt 0 discriminator 2
	ldr	r0, [r3]
	.loc 1 894 27 discriminator 2
	add	r0, r0, r2, lsl #7
	.loc 1 894 109 discriminator 2
	str	r1, [r0, #144]
	.loc 1 897 3 is_stmt 1 discriminator 2
	.loc 1 897 8 is_stmt 0 discriminator 2
	ldr	r2, [r3]
.LVL59:
	.loc 1 897 25 discriminator 2
	str	r4, [r2, #36]
	.loc 1 900 3 is_stmt 1 discriminator 2
	.loc 1 900 16 is_stmt 0 discriminator 2
	strb	r4, [r3, #161]
	.loc 1 903 3 is_stmt 1 discriminator 2
	.loc 1 903 7 discriminator 2
	.loc 1 903 21 is_stmt 0 discriminator 2
	movs	r0, #0
	strb	r0, [r3, #160]
	.loc 1 903 5 is_stmt 1 discriminator 2
	.loc 1 905 3 discriminator 2
	.loc 1 906 1 is_stmt 0 discriminator 2
	pop	{r4, r5}
	.cfi_restore 5
	.cfi_restore 4
	.cfi_def_cfa_offset 0
	bx	lr
.LVL60:
.L55:
	.loc 1 887 48
	movs	r0, #2
	.loc 1 906 1
	bx	lr
	.cfi_endproc
.LFE344:
	.size	HAL_LTDC_ConfigColorKeying, .-HAL_LTDC_ConfigColorKeying
	.section	.text.HAL_LTDC_ConfigCLUT,"ax",%progbits
	.align	1
	.global	HAL_LTDC_ConfigCLUT
	.syntax unified
	.thumb
	.thumb_func
	.type	HAL_LTDC_ConfigCLUT, %function
HAL_LTDC_ConfigCLUT:
.LFB345:
	.loc 1 920 1 is_stmt 1
	.cfi_startproc
	@ args = 0, pretend = 0, frame = 0
	@ frame_needed = 0, uses_anonymous_args = 0
.LVL61:
	push	{r4, r5, lr}
	.cfi_def_cfa_offset 12
	.cfi_offset 4, -12
	.cfi_offset 5, -8
	.cfi_offset 14, -4
	mov	r5, r0
	.loc 1 921 3
	.loc 1 922 3
	.loc 1 923 3
.LVL62:
	.loc 1 925 3
	.loc 1 928 3
	.loc 1 928 7
	.loc 1 928 17 is_stmt 0
	ldrb	r0, [r0, #160]	@ zero_extendqisi2
.LVL63:
	.loc 1 928 9
	cmp	r0, #1
	beq	.L66
	.loc 1 928 67 is_stmt 1 discriminator 2
	.loc 1 928 81 is_stmt 0 discriminator 2
	movs	r0, #1
	strb	r0, [r5, #160]
	.loc 1 928 5 is_stmt 1 discriminator 2
	.loc 1 931 3 discriminator 2
	.loc 1 931 16 is_stmt 0 discriminator 2
	movs	r0, #2
	strb	r0, [r5, #161]
	.loc 1 933 3 is_stmt 1 discriminator 2
.LVL64:
	.loc 1 933 16 is_stmt 0 discriminator 2
	mov	lr, #0
	.loc 1 933 3 discriminator 2
	b	.L62
.LVL65:
.L63:
	.loc 1 942 7 is_stmt 1
	.loc 1 942 34 is_stmt 0
	ldr	r0, [r1]
	.loc 1 942 57
	uxtb	r4, r0
	.loc 1 942 31
	orr	r4, r4, lr, lsl #24
	.loc 1 943 39
	and	ip, r0, #65280
	.loc 1 942 66
	orr	r4, r4, ip
	.loc 1 943 76
	and	r0, r0, #16711680
	.loc 1 942 11
	orrs	r4, r4, r0
.LVL66:
.L64:
	.loc 1 946 5 is_stmt 1 discriminator 2
	.loc 1 946 14 is_stmt 0 discriminator 2
	adds	r1, r1, #4
.LVL67:
	.loc 1 949 5 is_stmt 1 discriminator 2
	.loc 1 949 29 is_stmt 0 discriminator 2
	ldr	r0, [r5]
	add	ip, r0, r3, lsl #7
	.loc 1 949 113 discriminator 2
	str	r4, [ip, #196]
	.loc 1 933 51 is_stmt 1 discriminator 2
	add	lr, lr, #1
.LVL68:
.L62:
	.loc 1 933 31 discriminator 1
	cmp	lr, r2
	bcs	.L68
	.loc 1 935 5
	.loc 1 935 34 is_stmt 0
	movs	r0, #52
	mla	r0, r0, r3, r5
	ldr	r0, [r0, #72]
	.loc 1 935 8
	cmp	r0, #6
	bne	.L63
	.loc 1 937 7 is_stmt 1
	.loc 1 937 24 is_stmt 0
	add	ip, lr, lr, lsl #4
	.loc 1 937 54
	ldr	r0, [r1]
	.loc 1 937 77
	uxtb	r4, r0
	.loc 1 937 51
	orr	r4, r4, ip, lsl #24
	.loc 1 938 39
	and	ip, r0, #65280
	.loc 1 937 86
	orr	r4, r4, ip
	.loc 1 938 76
	and	r0, r0, #16711680
	.loc 1 937 11
	orrs	r4, r4, r0
.LVL69:
	b	.L64
.LVL70:
.L68:
	.loc 1 953 3 is_stmt 1
	.loc 1 953 16 is_stmt 0
	movs	r3, #1
.LVL71:
	strb	r3, [r5, #161]
	.loc 1 956 3 is_stmt 1
	.loc 1 956 7
	.loc 1 956 21 is_stmt 0
	movs	r0, #0
	strb	r0, [r5, #160]
	.loc 1 956 5 is_stmt 1
	.loc 1 958 3
.LVL72:
.L61:
	.loc 1 959 1 is_stmt 0
	pop	{r4, r5, pc}
.LVL73:
.L66:
	.loc 1 928 48
	movs	r0, #2
	b	.L61
	.cfi_endproc
.LFE345:
	.size	HAL_LTDC_ConfigCLUT, .-HAL_LTDC_ConfigCLUT
	.section	.text.HAL_LTDC_EnableColorKeying,"ax",%progbits
	.align	1
	.global	HAL_LTDC_EnableColorKeying
	.syntax unified
	.thumb
	.thumb_func
	.type	HAL_LTDC_EnableColorKeying, %function
HAL_LTDC_EnableColorKeying:
.LFB346:
	.loc 1 971 1 is_stmt 1
	.cfi_startproc
	@ args = 0, pretend = 0, frame = 0
	@ frame_needed = 0, uses_anonymous_args = 0
	@ link register save eliminated.
.LVL74:
	.loc 1 973 3
	.loc 1 976 3
	.loc 1 976 7
	.loc 1 976 17 is_stmt 0
	ldrb	r3, [r0, #160]	@ zero_extendqisi2
	.loc 1 976 9
	cmp	r3, #1
	beq	.L71
	.loc 1 976 67 is_stmt 1 discriminator 2
	.loc 1 976 81 is_stmt 0 discriminator 2
	movs	r2, #1
	strb	r2, [r0, #160]
	.loc 1 976 5 is_stmt 1 discriminator 2
	.loc 1 979 3 discriminator 2
	.loc 1 979 16 is_stmt 0 discriminator 2
	movs	r3, #2
	strb	r3, [r0, #161]
	.loc 1 982 3 is_stmt 1 discriminator 2
	.loc 1 982 58 is_stmt 0 discriminator 2
	ldr	r3, [r0]
	.loc 1 982 102 discriminator 2
	add	r1, r3, r1, lsl #7
.LVL75:
	ldr	r3, [r1, #132]
	.loc 1 982 107 discriminator 2
	orr	r3, r3, #2
	str	r3, [r1, #132]
	.loc 1 985 3 is_stmt 1 discriminator 2
	.loc 1 985 8 is_stmt 0 discriminator 2
	ldr	r3, [r0]
	.loc 1 985 25 discriminator 2
	str	r2, [r3, #36]
	.loc 1 988 3 is_stmt 1 discriminator 2
	.loc 1 988 16 is_stmt 0 discriminator 2
	strb	r2, [r0, #161]
	.loc 1 991 3 is_stmt 1 discriminator 2
	.loc 1 991 7 discriminator 2
	.loc 1 991 21 is_stmt 0 discriminator 2
	movs	r3, #0
	strb	r3, [r0, #160]
	.loc 1 991 5 is_stmt 1 discriminator 2
	.loc 1 993 3 discriminator 2
	.loc 1 993 10 is_stmt 0 discriminator 2
	mov	r0, r3
.LVL76:
	bx	lr
.LVL77:
.L71:
	.loc 1 976 48
	movs	r0, #2
.LVL78:
	.loc 1 994 1
	bx	lr
	.cfi_endproc
.LFE346:
	.size	HAL_LTDC_EnableColorKeying, .-HAL_LTDC_EnableColorKeying
	.section	.text.HAL_LTDC_DisableColorKeying,"ax",%progbits
	.align	1
	.global	HAL_LTDC_DisableColorKeying
	.syntax unified
	.thumb
	.thumb_func
	.type	HAL_LTDC_DisableColorKeying, %function
HAL_LTDC_DisableColorKeying:
.LFB347:
	.loc 1 1006 1 is_stmt 1
	.cfi_startproc
	@ args = 0, pretend = 0, frame = 0
	@ frame_needed = 0, uses_anonymous_args = 0
	@ link register save eliminated.
.LVL79:
	.loc 1 1008 3
	.loc 1 1011 3
	.loc 1 1011 7
	.loc 1 1011 17 is_stmt 0
	ldrb	r3, [r0, #160]	@ zero_extendqisi2
	.loc 1 1011 9
	cmp	r3, #1
	beq	.L74
	.loc 1 1011 67 is_stmt 1 discriminator 2
	.loc 1 1011 81 is_stmt 0 discriminator 2
	movs	r2, #1
	strb	r2, [r0, #160]
	.loc 1 1011 5 is_stmt 1 discriminator 2
	.loc 1 1014 3 discriminator 2
	.loc 1 1014 16 is_stmt 0 discriminator 2
	movs	r3, #2
	strb	r3, [r0, #161]
	.loc 1 1017 3 is_stmt 1 discriminator 2
	.loc 1 1017 58 is_stmt 0 discriminator 2
	ldr	r3, [r0]
	.loc 1 1017 102 discriminator 2
	add	r1, r3, r1, lsl #7
.LVL80:
	ldr	r3, [r1, #132]
	.loc 1 1017 107 discriminator 2
	bic	r3, r3, #2
	str	r3, [r1, #132]
	.loc 1 1020 3 is_stmt 1 discriminator 2
	.loc 1 1020 8 is_stmt 0 discriminator 2
	ldr	r3, [r0]
	.loc 1 1020 25 discriminator 2
	str	r2, [r3, #36]
	.loc 1 1023 3 is_stmt 1 discriminator 2
	.loc 1 1023 16 is_stmt 0 discriminator 2
	strb	r2, [r0, #161]
	.loc 1 1026 3 is_stmt 1 discriminator 2
	.loc 1 1026 7 discriminator 2
	.loc 1 1026 21 is_stmt 0 discriminator 2
	movs	r3, #0
	strb	r3, [r0, #160]
	.loc 1 1026 5 is_stmt 1 discriminator 2
	.loc 1 1028 3 discriminator 2
	.loc 1 1028 10 is_stmt 0 discriminator 2
	mov	r0, r3
.LVL81:
	bx	lr
.LVL82:
.L74:
	.loc 1 1011 48
	movs	r0, #2
.LVL83:
	.loc 1 1029 1
	bx	lr
	.cfi_endproc
.LFE347:
	.size	HAL_LTDC_DisableColorKeying, .-HAL_LTDC_DisableColorKeying
	.section	.text.HAL_LTDC_EnableCLUT,"ax",%progbits
	.align	1
	.global	HAL_LTDC_EnableCLUT
	.syntax unified
	.thumb
	.thumb_func
	.type	HAL_LTDC_EnableCLUT, %function
HAL_LTDC_EnableCLUT:
.LFB348:
	.loc 1 1041 1 is_stmt 1
	.cfi_startproc
	@ args = 0, pretend = 0, frame = 0
	@ frame_needed = 0, uses_anonymous_args = 0
	@ link register save eliminated.
.LVL84:
	.loc 1 1043 3
	.loc 1 1046 3
	.loc 1 1046 7
	.loc 1 1046 17 is_stmt 0
	ldrb	r3, [r0, #160]	@ zero_extendqisi2
	.loc 1 1046 9
	cmp	r3, #1
	beq	.L77
	.loc 1 1046 67 is_stmt 1 discriminator 2
	.loc 1 1046 81 is_stmt 0 discriminator 2
	movs	r2, #1
	strb	r2, [r0, #160]
	.loc 1 1046 5 is_stmt 1 discriminator 2
	.loc 1 1049 3 discriminator 2
	.loc 1 1049 16 is_stmt 0 discriminator 2
	movs	r3, #2
	strb	r3, [r0, #161]
	.loc 1 1052 3 is_stmt 1 discriminator 2
	.loc 1 1052 58 is_stmt 0 discriminator 2
	ldr	r3, [r0]
	.loc 1 1052 102 discriminator 2
	add	r1, r3, r1, lsl #7
.LVL85:
	ldr	r3, [r1, #132]
	.loc 1 1052 107 discriminator 2
	orr	r3, r3, #16
	str	r3, [r1, #132]
	.loc 1 1055 3 is_stmt 1 discriminator 2
	.loc 1 1055 8 is_stmt 0 discriminator 2
	ldr	r3, [r0]
	.loc 1 1055 25 discriminator 2
	str	r2, [r3, #36]
	.loc 1 1058 3 is_stmt 1 discriminator 2
	.loc 1 1058 16 is_stmt 0 discriminator 2
	strb	r2, [r0, #161]
	.loc 1 1061 3 is_stmt 1 discriminator 2
	.loc 1 1061 7 discriminator 2
	.loc 1 1061 21 is_stmt 0 discriminator 2
	movs	r3, #0
	strb	r3, [r0, #160]
	.loc 1 1061 5 is_stmt 1 discriminator 2
	.loc 1 1063 3 discriminator 2
	.loc 1 1063 10 is_stmt 0 discriminator 2
	mov	r0, r3
.LVL86:
	bx	lr
.LVL87:
.L77:
	.loc 1 1046 48
	movs	r0, #2
.LVL88:
	.loc 1 1064 1
	bx	lr
	.cfi_endproc
.LFE348:
	.size	HAL_LTDC_EnableCLUT, .-HAL_LTDC_EnableCLUT
	.section	.text.HAL_LTDC_DisableCLUT,"ax",%progbits
	.align	1
	.global	HAL_LTDC_DisableCLUT
	.syntax unified
	.thumb
	.thumb_func
	.type	HAL_LTDC_DisableCLUT, %function
HAL_LTDC_DisableCLUT:
.LFB349:
	.loc 1 1076 1 is_stmt 1
	.cfi_startproc
	@ args = 0, pretend = 0, frame = 0
	@ frame_needed = 0, uses_anonymous_args = 0
	@ link register save eliminated.
.LVL89:
	.loc 1 1078 3
	.loc 1 1081 3
	.loc 1 1081 7
	.loc 1 1081 17 is_stmt 0
	ldrb	r3, [r0, #160]	@ zero_extendqisi2
	.loc 1 1081 9
	cmp	r3, #1
	beq	.L80
	.loc 1 1081 67 is_stmt 1 discriminator 2
	.loc 1 1081 81 is_stmt 0 discriminator 2
	movs	r2, #1
	strb	r2, [r0, #160]
	.loc 1 1081 5 is_stmt 1 discriminator 2
	.loc 1 1084 3 discriminator 2
	.loc 1 1084 16 is_stmt 0 discriminator 2
	movs	r3, #2
	strb	r3, [r0, #161]
	.loc 1 1087 3 is_stmt 1 discriminator 2
	.loc 1 1087 58 is_stmt 0 discriminator 2
	ldr	r3, [r0]
	.loc 1 1087 102 discriminator 2
	add	r1, r3, r1, lsl #7
.LVL90:
	ldr	r3, [r1, #132]
	.loc 1 1087 107 discriminator 2
	bic	r3, r3, #16
	str	r3, [r1, #132]
	.loc 1 1090 3 is_stmt 1 discriminator 2
	.loc 1 1090 8 is_stmt 0 discriminator 2
	ldr	r3, [r0]
	.loc 1 1090 25 discriminator 2
	str	r2, [r3, #36]
	.loc 1 1093 3 is_stmt 1 discriminator 2
	.loc 1 1093 16 is_stmt 0 discriminator 2
	strb	r2, [r0, #161]
	.loc 1 1096 3 is_stmt 1 discriminator 2
	.loc 1 1096 7 discriminator 2
	.loc 1 1096 21 is_stmt 0 discriminator 2
	movs	r3, #0
	strb	r3, [r0, #160]
	.loc 1 1096 5 is_stmt 1 discriminator 2
	.loc 1 1098 3 discriminator 2
	.loc 1 1098 10 is_stmt 0 discriminator 2
	mov	r0, r3
.LVL91:
	bx	lr
.LVL92:
.L80:
	.loc 1 1081 48
	movs	r0, #2
.LVL93:
	.loc 1 1099 1
	bx	lr
	.cfi_endproc
.LFE349:
	.size	HAL_LTDC_DisableCLUT, .-HAL_LTDC_DisableCLUT
	.section	.text.HAL_LTDC_EnableDither,"ax",%progbits
	.align	1
	.global	HAL_LTDC_EnableDither
	.syntax unified
	.thumb
	.thumb_func
	.type	HAL_LTDC_EnableDither, %function
HAL_LTDC_EnableDither:
.LFB350:
	.loc 1 1109 1 is_stmt 1
	.cfi_startproc
	@ args = 0, pretend = 0, frame = 0
	@ frame_needed = 0, uses_anonymous_args = 0
	@ link register save eliminated.
.LVL94:
	.loc 1 1111 3
	.loc 1 1111 7
	.loc 1 1111 17 is_stmt 0
	ldrb	r3, [r0, #160]	@ zero_extendqisi2
	.loc 1 1111 9
	cmp	r3, #1
	beq	.L83
	.loc 1 1111 67 is_stmt 1 discriminator 2
	.loc 1 1111 81 is_stmt 0 discriminator 2
	movs	r2, #1
	strb	r2, [r0, #160]
	.loc 1 1111 5 is_stmt 1 discriminator 2
	.loc 1 1114 3 discriminator 2
	.loc 1 1114 16 is_stmt 0 discriminator 2
	movs	r3, #2
	strb	r3, [r0, #161]
	.loc 1 1117 3 is_stmt 1 discriminator 2
	.loc 1 1117 65 is_stmt 0 discriminator 2
	ldr	r1, .L84
	ldr	r3, [r1, #24]
	.loc 1 1117 71 discriminator 2
	orr	r3, r3, #65536
	str	r3, [r1, #24]
	.loc 1 1120 3 is_stmt 1 discriminator 2
	.loc 1 1120 16 is_stmt 0 discriminator 2
	strb	r2, [r0, #161]
	.loc 1 1123 3 is_stmt 1 discriminator 2
	.loc 1 1123 7 discriminator 2
	.loc 1 1123 21 is_stmt 0 discriminator 2
	movs	r3, #0
	strb	r3, [r0, #160]
	.loc 1 1123 5 is_stmt 1 discriminator 2
	.loc 1 1125 3 discriminator 2
	.loc 1 1125 10 is_stmt 0 discriminator 2
	mov	r0, r3
.LVL95:
	bx	lr
.LVL96:
.L83:
	.loc 1 1111 48
	movs	r0, #2
.LVL97:
	.loc 1 1126 1
	bx	lr
.L85:
	.align	2
.L84:
	.word	1342181376
	.cfi_endproc
.LFE350:
	.size	HAL_LTDC_EnableDither, .-HAL_LTDC_EnableDither
	.section	.text.HAL_LTDC_DisableDither,"ax",%progbits
	.align	1
	.global	HAL_LTDC_DisableDither
	.syntax unified
	.thumb
	.thumb_func
	.type	HAL_LTDC_DisableDither, %function
HAL_LTDC_DisableDither:
.LFB351:
	.loc 1 1136 1 is_stmt 1
	.cfi_startproc
	@ args = 0, pretend = 0, frame = 0
	@ frame_needed = 0, uses_anonymous_args = 0
	@ link register save eliminated.
.LVL98:
	.loc 1 1138 3
	.loc 1 1138 7
	.loc 1 1138 17 is_stmt 0
	ldrb	r3, [r0, #160]	@ zero_extendqisi2
	.loc 1 1138 9
	cmp	r3, #1
	beq	.L88
	.loc 1 1138 67 is_stmt 1 discriminator 2
	.loc 1 1138 81 is_stmt 0 discriminator 2
	movs	r2, #1
	strb	r2, [r0, #160]
	.loc 1 1138 5 is_stmt 1 discriminator 2
	.loc 1 1141 3 discriminator 2
	.loc 1 1141 16 is_stmt 0 discriminator 2
	movs	r3, #2
	strb	r3, [r0, #161]
	.loc 1 1144 3 is_stmt 1 discriminator 2
	.loc 1 1144 65 is_stmt 0 discriminator 2
	ldr	r1, .L89
	ldr	r3, [r1, #24]
	.loc 1 1144 71 discriminator 2
	bic	r3, r3, #65536
	str	r3, [r1, #24]
	.loc 1 1147 3 is_stmt 1 discriminator 2
	.loc 1 1147 16 is_stmt 0 discriminator 2
	strb	r2, [r0, #161]
	.loc 1 1150 3 is_stmt 1 discriminator 2
	.loc 1 1150 7 discriminator 2
	.loc 1 1150 21 is_stmt 0 discriminator 2
	movs	r3, #0
	strb	r3, [r0, #160]
	.loc 1 1150 5 is_stmt 1 discriminator 2
	.loc 1 1152 3 discriminator 2
	.loc 1 1152 10 is_stmt 0 discriminator 2
	mov	r0, r3
.LVL99:
	bx	lr
.LVL100:
.L88:
	.loc 1 1138 48
	movs	r0, #2
.LVL101:
	.loc 1 1153 1
	bx	lr
.L90:
	.align	2
.L89:
	.word	1342181376
	.cfi_endproc
.LFE351:
	.size	HAL_LTDC_DisableDither, .-HAL_LTDC_DisableDither
	.section	.text.HAL_LTDC_SetWindowSize,"ax",%progbits
	.align	1
	.global	HAL_LTDC_SetWindowSize
	.syntax unified
	.thumb
	.thumb_func
	.type	HAL_LTDC_SetWindowSize, %function
HAL_LTDC_SetWindowSize:
.LFB352:
	.loc 1 1167 1 is_stmt 1
	.cfi_startproc
	@ args = 0, pretend = 0, frame = 0
	@ frame_needed = 0, uses_anonymous_args = 0
.LVL102:
	push	{r4, r5, r6, lr}
	.cfi_def_cfa_offset 16
	.cfi_offset 4, -16
	.cfi_offset 5, -12
	.cfi_offset 6, -8
	.cfi_offset 14, -4
	mov	r5, r2
	mov	r2, r3
.LVL103:
	.loc 1 1168 3
	.loc 1 1171 3
	.loc 1 1172 3
	.loc 1 1173 3
	.loc 1 1176 3
	.loc 1 1176 7
	.loc 1 1176 17 is_stmt 0
	ldrb	r3, [r0, #160]	@ zero_extendqisi2
.LVL104:
	.loc 1 1176 9
	cmp	r3, #1
	beq	.L93
	mov	r4, r0
	.loc 1 1176 67 is_stmt 1 discriminator 2
	.loc 1 1176 81 is_stmt 0 discriminator 2
	movs	r6, #1
	strb	r6, [r0, #160]
	.loc 1 1176 5 is_stmt 1 discriminator 2
	.loc 1 1179 3 discriminator 2
	.loc 1 1179 16 is_stmt 0 discriminator 2
	movs	r3, #2
	strb	r3, [r0, #161]
	.loc 1 1182 3 is_stmt 1 discriminator 2
	.loc 1 1182 13 is_stmt 0 discriminator 2
	movs	r0, #52
.LVL105:
	mul	r0, r2, r0
	add	ip, r0, #56
.LVL106:
	.loc 1 1185 3 is_stmt 1 discriminator 2
	.loc 1 1185 42 is_stmt 0 discriminator 2
	add	r0, r0, r4
	ldr	r3, [r0, #56]
	.loc 1 1185 31 discriminator 2
	add	r3, r3, r1
	.loc 1 1185 23 discriminator 2
	str	r3, [r0, #60]
	.loc 1 1188 3 is_stmt 1 discriminator 2
	.loc 1 1188 42 is_stmt 0 discriminator 2
	ldr	r3, [r0, #64]
	.loc 1 1188 31 discriminator 2
	add	r3, r3, r5
	.loc 1 1188 23 discriminator 2
	str	r3, [r0, #68]
	.loc 1 1191 3 is_stmt 1 discriminator 2
	.loc 1 1191 25 is_stmt 0 discriminator 2
	str	r1, [r0, #96]
	.loc 1 1194 3 is_stmt 1 discriminator 2
	.loc 1 1194 26 is_stmt 0 discriminator 2
	str	r5, [r0, #100]
	.loc 1 1197 3 is_stmt 1 discriminator 2
	add	r1, r4, ip
.LVL107:
	mov	r0, r4
.LVL108:
	bl	LTDC_SetConfig
.LVL109:
	.loc 1 1200 3 discriminator 2
	.loc 1 1200 8 is_stmt 0 discriminator 2
	ldr	r3, [r4]
	.loc 1 1200 25 discriminator 2
	str	r6, [r3, #36]
	.loc 1 1203 3 is_stmt 1 discriminator 2
	.loc 1 1203 16 is_stmt 0 discriminator 2
	strb	r6, [r4, #161]
	.loc 1 1206 3 is_stmt 1 discriminator 2
	.loc 1 1206 7 discriminator 2
	.loc 1 1206 21 is_stmt 0 discriminator 2
	movs	r0, #0
	strb	r0, [r4, #160]
	.loc 1 1206 5 is_stmt 1 discriminator 2
	.loc 1 1208 3 discriminator 2
.LVL110:
.L92:
	.loc 1 1209 1 is_stmt 0
	pop	{r4, r5, r6, pc}
.LVL111:
.L93:
	.loc 1 1176 48
	movs	r0, #2
.LVL112:
	b	.L92
	.cfi_endproc
.LFE352:
	.size	HAL_LTDC_SetWindowSize, .-HAL_LTDC_SetWindowSize
	.section	.text.HAL_LTDC_SetWindowPosition,"ax",%progbits
	.align	1
	.global	HAL_LTDC_SetWindowPosition
	.syntax unified
	.thumb
	.thumb_func
	.type	HAL_LTDC_SetWindowPosition, %function
HAL_LTDC_SetWindowPosition:
.LFB353:
	.loc 1 1223 1 is_stmt 1
	.cfi_startproc
	@ args = 0, pretend = 0, frame = 0
	@ frame_needed = 0, uses_anonymous_args = 0
.LVL113:
	push	{r4, r5, r6, lr}
	.cfi_def_cfa_offset 16
	.cfi_offset 4, -16
	.cfi_offset 5, -12
	.cfi_offset 6, -8
	.cfi_offset 14, -4
	mov	r6, r2
	mov	r2, r3
.LVL114:
	.loc 1 1224 3
	.loc 1 1227 3
	.loc 1 1228 3
	.loc 1 1229 3
	.loc 1 1232 3
	.loc 1 1232 7
	.loc 1 1232 17 is_stmt 0
	ldrb	r3, [r0, #160]	@ zero_extendqisi2
.LVL115:
	.loc 1 1232 9
	cmp	r3, #1
	beq	.L97
	mov	r4, r0
	.loc 1 1232 67 is_stmt 1 discriminator 2
	.loc 1 1232 81 is_stmt 0 discriminator 2
	movs	r5, #1
	strb	r5, [r0, #160]
	.loc 1 1232 5 is_stmt 1 discriminator 2
	.loc 1 1235 3 discriminator 2
	.loc 1 1235 16 is_stmt 0 discriminator 2
	movs	r3, #2
	strb	r3, [r0, #161]
	.loc 1 1238 3 is_stmt 1 discriminator 2
	.loc 1 1238 13 is_stmt 0 discriminator 2
	movs	r0, #52
.LVL116:
	mul	r0, r2, r0
	add	ip, r0, #56
.LVL117:
	.loc 1 1241 3 is_stmt 1 discriminator 2
	.loc 1 1241 23 is_stmt 0 discriminator 2
	add	r0, r0, r4
	str	r1, [r0, #56]
	.loc 1 1242 3 is_stmt 1 discriminator 2
	.loc 1 1242 39 is_stmt 0 discriminator 2
	ldr	r3, [r0, #96]
	.loc 1 1242 28 discriminator 2
	add	r3, r3, r1
	.loc 1 1242 23 discriminator 2
	str	r3, [r0, #60]
	.loc 1 1245 3 is_stmt 1 discriminator 2
	.loc 1 1245 23 is_stmt 0 discriminator 2
	str	r6, [r0, #64]
	.loc 1 1246 3 is_stmt 1 discriminator 2
	.loc 1 1246 39 is_stmt 0 discriminator 2
	ldr	r3, [r0, #100]
	.loc 1 1246 28 discriminator 2
	add	r3, r3, r6
	.loc 1 1246 23 discriminator 2
	str	r3, [r0, #68]
	.loc 1 1249 3 is_stmt 1 discriminator 2
	add	r1, r4, ip
.LVL118:
	mov	r0, r4
.LVL119:
	bl	LTDC_SetConfig
.LVL120:
	.loc 1 1252 3 discriminator 2
	.loc 1 1252 8 is_stmt 0 discriminator 2
	ldr	r3, [r4]
	.loc 1 1252 25 discriminator 2
	str	r5, [r3, #36]
	.loc 1 1255 3 is_stmt 1 discriminator 2
	.loc 1 1255 16 is_stmt 0 discriminator 2
	strb	r5, [r4, #161]
	.loc 1 1258 3 is_stmt 1 discriminator 2
	.loc 1 1258 7 discriminator 2
	.loc 1 1258 21 is_stmt 0 discriminator 2
	movs	r0, #0
	strb	r0, [r4, #160]
	.loc 1 1258 5 is_stmt 1 discriminator 2
	.loc 1 1260 3 discriminator 2
.LVL121:
.L96:
	.loc 1 1261 1 is_stmt 0
	pop	{r4, r5, r6, pc}
.LVL122:
.L97:
	.loc 1 1232 48
	movs	r0, #2
.LVL123:
	b	.L96
	.cfi_endproc
.LFE353:
	.size	HAL_LTDC_SetWindowPosition, .-HAL_LTDC_SetWindowPosition
	.section	.text.HAL_LTDC_SetPixelFormat,"ax",%progbits
	.align	1
	.global	HAL_LTDC_SetPixelFormat
	.syntax unified
	.thumb
	.thumb_func
	.type	HAL_LTDC_SetPixelFormat, %function
HAL_LTDC_SetPixelFormat:
.LFB354:
	.loc 1 1274 1 is_stmt 1
	.cfi_startproc
	@ args = 0, pretend = 0, frame = 0
	@ frame_needed = 0, uses_anonymous_args = 0
.LVL124:
	push	{r3, r4, r5, lr}
	.cfi_def_cfa_offset 16
	.cfi_offset 3, -16
	.cfi_offset 4, -12
	.cfi_offset 5, -8
	.cfi_offset 14, -4
	.loc 1 1275 3
	.loc 1 1278 3
	.loc 1 1279 3
	.loc 1 1282 3
	.loc 1 1282 7
	.loc 1 1282 17 is_stmt 0
	ldrb	r3, [r0, #160]	@ zero_extendqisi2
	.loc 1 1282 9
	cmp	r3, #1
	beq	.L101
	mov	r4, r0
	.loc 1 1282 67 is_stmt 1 discriminator 2
	.loc 1 1282 81 is_stmt 0 discriminator 2
	movs	r5, #1
	strb	r5, [r0, #160]
	.loc 1 1282 5 is_stmt 1 discriminator 2
	.loc 1 1285 3 discriminator 2
	.loc 1 1285 16 is_stmt 0 discriminator 2
	movs	r3, #2
	strb	r3, [r0, #161]
	.loc 1 1288 3 is_stmt 1 discriminator 2
	.loc 1 1288 13 is_stmt 0 discriminator 2
	movs	r3, #52
	mul	r3, r2, r3
	add	r0, r3, #56
.LVL125:
	.loc 1 1291 3 is_stmt 1 discriminator 2
	.loc 1 1291 26 is_stmt 0 discriminator 2
	add	r3, r3, r4
	str	r1, [r3, #72]
	.loc 1 1294 3 is_stmt 1 discriminator 2
	adds	r1, r4, r0
.LVL126:
	mov	r0, r4
	bl	LTDC_SetConfig
.LVL127:
	.loc 1 1297 3 discriminator 2
	.loc 1 1297 8 is_stmt 0 discriminator 2
	ldr	r3, [r4]
	.loc 1 1297 25 discriminator 2
	str	r5, [r3, #36]
	.loc 1 1300 3 is_stmt 1 discriminator 2
	.loc 1 1300 16 is_stmt 0 discriminator 2
	strb	r5, [r4, #161]
	.loc 1 1303 3 is_stmt 1 discriminator 2
	.loc 1 1303 7 discriminator 2
	.loc 1 1303 21 is_stmt 0 discriminator 2
	movs	r0, #0
	strb	r0, [r4, #160]
	.loc 1 1303 5 is_stmt 1 discriminator 2
	.loc 1 1305 3 discriminator 2
.LVL128:
.L100:
	.loc 1 1306 1 is_stmt 0
	pop	{r3, r4, r5, pc}
.LVL129:
.L101:
	.loc 1 1282 48
	movs	r0, #2
.LVL130:
	b	.L100
	.cfi_endproc
.LFE354:
	.size	HAL_LTDC_SetPixelFormat, .-HAL_LTDC_SetPixelFormat
	.section	.text.HAL_LTDC_SetAlpha,"ax",%progbits
	.align	1
	.global	HAL_LTDC_SetAlpha
	.syntax unified
	.thumb
	.thumb_func
	.type	HAL_LTDC_SetAlpha, %function
HAL_LTDC_SetAlpha:
.LFB355:
	.loc 1 1319 1 is_stmt 1
	.cfi_startproc
	@ args = 0, pretend = 0, frame = 0
	@ frame_needed = 0, uses_anonymous_args = 0
.LVL131:
	push	{r3, r4, r5, lr}
	.cfi_def_cfa_offset 16
	.cfi_offset 3, -16
	.cfi_offset 4, -12
	.cfi_offset 5, -8
	.cfi_offset 14, -4
	.loc 1 1320 3
	.loc 1 1323 3
	.loc 1 1324 3
	.loc 1 1327 3
	.loc 1 1327 7
	.loc 1 1327 17 is_stmt 0
	ldrb	r3, [r0, #160]	@ zero_extendqisi2
	.loc 1 1327 9
	cmp	r3, #1
	beq	.L105
	mov	r4, r0
	.loc 1 1327 67 is_stmt 1 discriminator 2
	.loc 1 1327 81 is_stmt 0 discriminator 2
	movs	r5, #1
	strb	r5, [r0, #160]
	.loc 1 1327 5 is_stmt 1 discriminator 2
	.loc 1 1330 3 discriminator 2
	.loc 1 1330 16 is_stmt 0 discriminator 2
	movs	r3, #2
	strb	r3, [r0, #161]
	.loc 1 1333 3 is_stmt 1 discriminator 2
	.loc 1 1333 13 is_stmt 0 discriminator 2
	movs	r3, #52
	mul	r3, r2, r3
	add	r0, r3, #56
.LVL132:
	.loc 1 1336 3 is_stmt 1 discriminator 2
	.loc 1 1336 20 is_stmt 0 discriminator 2
	add	r3, r3, r4
	str	r1, [r3, #76]
	.loc 1 1339 3 is_stmt 1 discriminator 2
	adds	r1, r4, r0
.LVL133:
	mov	r0, r4
	bl	LTDC_SetConfig
.LVL134:
	.loc 1 1342 3 discriminator 2
	.loc 1 1342 8 is_stmt 0 discriminator 2
	ldr	r3, [r4]
	.loc 1 1342 25 discriminator 2
	str	r5, [r3, #36]
	.loc 1 1345 3 is_stmt 1 discriminator 2
	.loc 1 1345 16 is_stmt 0 discriminator 2
	strb	r5, [r4, #161]
	.loc 1 1348 3 is_stmt 1 discriminator 2
	.loc 1 1348 7 discriminator 2
	.loc 1 1348 21 is_stmt 0 discriminator 2
	movs	r0, #0
	strb	r0, [r4, #160]
	.loc 1 1348 5 is_stmt 1 discriminator 2
	.loc 1 1350 3 discriminator 2
.LVL135:
.L104:
	.loc 1 1351 1 is_stmt 0
	pop	{r3, r4, r5, pc}
.LVL136:
.L105:
	.loc 1 1327 48
	movs	r0, #2
.LVL137:
	b	.L104
	.cfi_endproc
.LFE355:
	.size	HAL_LTDC_SetAlpha, .-HAL_LTDC_SetAlpha
	.section	.text.HAL_LTDC_SetAddress,"ax",%progbits
	.align	1
	.global	HAL_LTDC_SetAddress
	.syntax unified
	.thumb
	.thumb_func
	.type	HAL_LTDC_SetAddress, %function
HAL_LTDC_SetAddress:
.LFB356:
	.loc 1 1363 1 is_stmt 1
	.cfi_startproc
	@ args = 0, pretend = 0, frame = 0
	@ frame_needed = 0, uses_anonymous_args = 0
.LVL138:
	push	{r3, r4, r5, lr}
	.cfi_def_cfa_offset 16
	.cfi_offset 3, -16
	.cfi_offset 4, -12
	.cfi_offset 5, -8
	.cfi_offset 14, -4
	.loc 1 1364 3
	.loc 1 1367 3
	.loc 1 1370 3
	.loc 1 1370 7
	.loc 1 1370 17 is_stmt 0
	ldrb	r3, [r0, #160]	@ zero_extendqisi2
	.loc 1 1370 9
	cmp	r3, #1
	beq	.L109
	mov	r4, r0
	.loc 1 1370 67 is_stmt 1 discriminator 2
	.loc 1 1370 81 is_stmt 0 discriminator 2
	movs	r5, #1
	strb	r5, [r0, #160]
	.loc 1 1370 5 is_stmt 1 discriminator 2
	.loc 1 1373 3 discriminator 2
	.loc 1 1373 16 is_stmt 0 discriminator 2
	movs	r3, #2
	strb	r3, [r0, #161]
	.loc 1 1376 3 is_stmt 1 discriminator 2
	.loc 1 1376 13 is_stmt 0 discriminator 2
	movs	r3, #52
	mul	r3, r2, r3
	add	r0, r3, #56
.LVL139:
	.loc 1 1379 3 is_stmt 1 discriminator 2
	.loc 1 1379 28 is_stmt 0 discriminator 2
	add	r3, r3, r4
	str	r1, [r3, #92]
	.loc 1 1382 3 is_stmt 1 discriminator 2
	adds	r1, r4, r0
.LVL140:
	mov	r0, r4
	bl	LTDC_SetConfig
.LVL141:
	.loc 1 1385 3 discriminator 2
	.loc 1 1385 8 is_stmt 0 discriminator 2
	ldr	r3, [r4]
	.loc 1 1385 25 discriminator 2
	str	r5, [r3, #36]
	.loc 1 1388 3 is_stmt 1 discriminator 2
	.loc 1 1388 16 is_stmt 0 discriminator 2
	strb	r5, [r4, #161]
	.loc 1 1391 3 is_stmt 1 discriminator 2
	.loc 1 1391 7 discriminator 2
	.loc 1 1391 21 is_stmt 0 discriminator 2
	movs	r0, #0
	strb	r0, [r4, #160]
	.loc 1 1391 5 is_stmt 1 discriminator 2
	.loc 1 1393 3 discriminator 2
.LVL142:
.L108:
	.loc 1 1394 1 is_stmt 0
	pop	{r3, r4, r5, pc}
.LVL143:
.L109:
	.loc 1 1370 48
	movs	r0, #2
.LVL144:
	b	.L108
	.cfi_endproc
.LFE356:
	.size	HAL_LTDC_SetAddress, .-HAL_LTDC_SetAddress
	.section	.text.HAL_LTDC_SetPitch,"ax",%progbits
	.align	1
	.global	HAL_LTDC_SetPitch
	.syntax unified
	.thumb
	.thumb_func
	.type	HAL_LTDC_SetPitch, %function
HAL_LTDC_SetPitch:
.LFB357:
	.loc 1 1412 1 is_stmt 1
	.cfi_startproc
	@ args = 0, pretend = 0, frame = 0
	@ frame_needed = 0, uses_anonymous_args = 0
	@ link register save eliminated.
.LVL145:
	mov	r3, r0
	.loc 1 1413 3
	.loc 1 1414 3
	.loc 1 1415 3
	.loc 1 1418 3
	.loc 1 1421 3
	.loc 1 1421 7
	.loc 1 1421 17 is_stmt 0
	ldrb	r0, [r0, #160]	@ zero_extendqisi2
.LVL146:
	.loc 1 1421 9
	cmp	r0, #1
	beq	.L118
	.loc 1 1412 1 discriminator 2
	push	{r4}
	.cfi_def_cfa_offset 4
	.cfi_offset 4, -4
	.loc 1 1421 67 is_stmt 1 discriminator 2
	.loc 1 1421 81 is_stmt 0 discriminator 2
	movs	r0, #1
	strb	r0, [r3, #160]
	.loc 1 1421 5 is_stmt 1 discriminator 2
	.loc 1 1424 3 discriminator 2
	.loc 1 1424 16 is_stmt 0 discriminator 2
	movs	r0, #2
	strb	r0, [r3, #161]
	.loc 1 1427 3 is_stmt 1 discriminator 2
	.loc 1 1427 15 is_stmt 0 discriminator 2
	movs	r0, #52
	mla	r0, r0, r2, r3
	ldr	r0, [r0, #72]
.LVL147:
	.loc 1 1429 3 is_stmt 1 discriminator 2
	.loc 1 1429 6 is_stmt 0 discriminator 2
	cbz	r0, .L119
	.loc 1 1433 8 is_stmt 1
	subs	r0, r0, #1
.LVL148:
	cmp	r0, #6
	bhi	.L114
	tbb	[pc, r0]
.L116:
	.byte	(.L120-.L116)/2
	.byte	(.L117-.L116)/2
	.byte	(.L115-.L116)/2
	.byte	(.L117-.L116)/2
	.byte	(.L114-.L116)/2
	.byte	(.L114-.L116)/2
	.byte	(.L115-.L116)/2
	.p2align 1
.L114:
	.loc 1 1429 6 is_stmt 0
	mov	ip, #1
	b	.L113
.L117:
	mov	ip, #2
	b	.L113
.L115:
	mov	ip, #2
	b	.L113
.LVL149:
.L119:
	.loc 1 1431 9
	mov	ip, #4
.LVL150:
.L113:
	.loc 1 1449 3 is_stmt 1
	.loc 1 1449 37 is_stmt 0
	mul	ip, r1, ip
.LVL151:
	.loc 1 1452 3 is_stmt 1
	.loc 1 1452 58 is_stmt 0
	ldr	r0, [r3]
	.loc 1 1452 102
	add	r0, r0, r2, lsl #7
	ldr	r4, [r0, #176]
	.loc 1 1452 110
	ldr	r1, .L125
.LVL152:
	ands	r1, r1, r4
	str	r1, [r0, #176]
.LVL153:
	.loc 1 1455 3 is_stmt 1
	.loc 1 1455 65 is_stmt 0
	ldr	r4, .L125+4
	ldr	r1, [r4, #36]
	.loc 1 1455 72
	orr	r1, r1, #1
	str	r1, [r4, #36]
	.loc 1 1458 3 is_stmt 1
	.loc 1 1458 58 is_stmt 0
	ldr	r0, [r3]
	.loc 1 1458 102
	add	r2, r0, r2, lsl #7
.LVL154:
	ldr	r1, [r2, #176]
	.loc 1 1458 110
	orr	r1, r1, ip, lsl #16
	str	r1, [r2, #176]
	.loc 1 1461 3 is_stmt 1
	.loc 1 1461 65 is_stmt 0
	ldr	r2, [r4, #36]
	.loc 1 1461 72
	orr	r2, r2, #1
	str	r2, [r4, #36]
	.loc 1 1464 3 is_stmt 1
	.loc 1 1464 16 is_stmt 0
	movs	r2, #1
	strb	r2, [r3, #161]
	.loc 1 1467 3 is_stmt 1
	.loc 1 1467 7
	.loc 1 1467 21 is_stmt 0
	movs	r0, #0
	strb	r0, [r3, #160]
	.loc 1 1467 5 is_stmt 1
	.loc 1 1469 3
	.loc 1 1470 1 is_stmt 0
	ldr	r4, [sp], #4
	.cfi_remember_state
	.cfi_restore 4
	.cfi_def_cfa_offset 0
	bx	lr
.LVL155:
.L120:
	.cfi_restore_state
	.loc 1 1429 6
	mov	ip, #3
	b	.L113
.LVL156:
.L118:
	.cfi_def_cfa_offset 0
	.cfi_restore 4
	.loc 1 1421 48
	movs	r0, #2
	.loc 1 1470 1
	bx	lr
.L126:
	.align	2
.L125:
	.word	-536805377
	.word	1342181376
	.cfi_endproc
.LFE357:
	.size	HAL_LTDC_SetPitch, .-HAL_LTDC_SetPitch
	.section	.text.HAL_LTDC_ProgramLineEvent,"ax",%progbits
	.align	1
	.global	HAL_LTDC_ProgramLineEvent
	.syntax unified
	.thumb
	.thumb_func
	.type	HAL_LTDC_ProgramLineEvent, %function
HAL_LTDC_ProgramLineEvent:
.LFB358:
	.loc 1 1481 1 is_stmt 1
	.cfi_startproc
	@ args = 0, pretend = 0, frame = 0
	@ frame_needed = 0, uses_anonymous_args = 0
	@ link register save eliminated.
.LVL157:
	.loc 1 1483 3
	.loc 1 1486 3
	.loc 1 1486 7
	.loc 1 1486 17 is_stmt 0
	ldrb	r2, [r0, #160]	@ zero_extendqisi2
	.loc 1 1486 9
	cmp	r2, #1
	beq	.L129
	.loc 1 1481 1 discriminator 2
	push	{r4}
	.cfi_def_cfa_offset 4
	.cfi_offset 4, -4
	mov	r3, r0
	.loc 1 1486 67 is_stmt 1 discriminator 2
	.loc 1 1486 81 is_stmt 0 discriminator 2
	movs	r0, #1
.LVL158:
	strb	r0, [r3, #160]
	.loc 1 1486 5 is_stmt 1 discriminator 2
	.loc 1 1489 3 discriminator 2
	.loc 1 1489 16 is_stmt 0 discriminator 2
	movs	r2, #2
	strb	r2, [r3, #161]
	.loc 1 1492 3 is_stmt 1 discriminator 2
	.loc 1 1492 11 is_stmt 0 discriminator 2
	ldr	r4, [r3]
	.loc 1 1492 21 discriminator 2
	ldr	r2, [r4, #52]
	.loc 1 1492 27 discriminator 2
	bic	r2, r2, #1
	str	r2, [r4, #52]
	.loc 1 1495 3 is_stmt 1 discriminator 2
	.loc 1 1495 73 is_stmt 0 discriminator 2
	ldr	r2, .L134
	str	r1, [r2, #64]
	.loc 1 1498 3 is_stmt 1 discriminator 2
	.loc 1 1498 11 is_stmt 0 discriminator 2
	ldr	r1, [r3]
.LVL159:
	.loc 1 1498 21 discriminator 2
	ldr	r2, [r1, #52]
.LVL160:
	.loc 1 1498 27 discriminator 2
	orrs	r2, r2, r0
	str	r2, [r1, #52]
.LVL161:
	.loc 1 1501 3 is_stmt 1 discriminator 2
	.loc 1 1501 16 is_stmt 0 discriminator 2
	strb	r0, [r3, #161]
	.loc 1 1504 3 is_stmt 1 discriminator 2
	.loc 1 1504 7 discriminator 2
	.loc 1 1504 21 is_stmt 0 discriminator 2
	movs	r0, #0
	strb	r0, [r3, #160]
	.loc 1 1504 5 is_stmt 1 discriminator 2
	.loc 1 1506 3 discriminator 2
	.loc 1 1507 1 is_stmt 0 discriminator 2
	ldr	r4, [sp], #4
	.cfi_restore 4
	.cfi_def_cfa_offset 0
	bx	lr
.LVL162:
.L129:
	.loc 1 1486 48
	movs	r0, #2
.LVL163:
	.loc 1 1507 1
	bx	lr
.L135:
	.align	2
.L134:
	.word	1342181376
	.cfi_endproc
.LFE358:
	.size	HAL_LTDC_ProgramLineEvent, .-HAL_LTDC_ProgramLineEvent
	.section	.text.HAL_LTDC_Reload,"ax",%progbits
	.align	1
	.global	HAL_LTDC_Reload
	.syntax unified
	.thumb
	.thumb_func
	.type	HAL_LTDC_Reload, %function
HAL_LTDC_Reload:
.LFB359:
	.loc 1 1520 1 is_stmt 1
	.cfi_startproc
	@ args = 0, pretend = 0, frame = 0
	@ frame_needed = 0, uses_anonymous_args = 0
	@ link register save eliminated.
.LVL164:
	.loc 1 1522 3
	.loc 1 1525 3
	.loc 1 1525 7
	.loc 1 1525 17 is_stmt 0
	ldrb	r3, [r0, #160]	@ zero_extendqisi2
	.loc 1 1525 9
	cmp	r3, #1
	beq	.L138
	.loc 1 1520 1 discriminator 2
	push	{r4}
	.cfi_def_cfa_offset 4
	.cfi_offset 4, -4
	.loc 1 1525 67 is_stmt 1 discriminator 2
	.loc 1 1525 81 is_stmt 0 discriminator 2
	movs	r2, #1
	strb	r2, [r0, #160]
	.loc 1 1525 5 is_stmt 1 discriminator 2
	.loc 1 1528 3 discriminator 2
	.loc 1 1528 16 is_stmt 0 discriminator 2
	movs	r3, #2
	strb	r3, [r0, #161]
	.loc 1 1531 3 is_stmt 1 discriminator 2
	.loc 1 1531 11 is_stmt 0 discriminator 2
	ldr	r4, [r0]
	.loc 1 1531 21 discriminator 2
	ldr	r3, [r4, #52]
	.loc 1 1531 27 discriminator 2
	orr	r3, r3, #8
	str	r3, [r4, #52]
	.loc 1 1534 3 is_stmt 1 discriminator 2
	.loc 1 1534 8 is_stmt 0 discriminator 2
	ldr	r3, [r0]
	.loc 1 1534 25 discriminator 2
	str	r1, [r3, #36]
	.loc 1 1537 3 is_stmt 1 discriminator 2
	.loc 1 1537 16 is_stmt 0 discriminator 2
	strb	r2, [r0, #161]
	.loc 1 1540 3 is_stmt 1 discriminator 2
	.loc 1 1540 7 discriminator 2
	.loc 1 1540 21 is_stmt 0 discriminator 2
	movs	r3, #0
	strb	r3, [r0, #160]
	.loc 1 1540 5 is_stmt 1 discriminator 2
	.loc 1 1542 3 discriminator 2
	.loc 1 1542 10 is_stmt 0 discriminator 2
	mov	r0, r3
.LVL165:
	.loc 1 1543 1 discriminator 2
	ldr	r4, [sp], #4
	.cfi_restore 4
	.cfi_def_cfa_offset 0
	bx	lr
.LVL166:
.L138:
	.loc 1 1525 48
	movs	r0, #2
.LVL167:
	.loc 1 1543 1
	bx	lr
	.cfi_endproc
.LFE359:
	.size	HAL_LTDC_Reload, .-HAL_LTDC_Reload
	.section	.text.HAL_LTDC_ConfigLayer_NoReload,"ax",%progbits
	.align	1
	.global	HAL_LTDC_ConfigLayer_NoReload
	.syntax unified
	.thumb
	.thumb_func
	.type	HAL_LTDC_ConfigLayer_NoReload, %function
HAL_LTDC_ConfigLayer_NoReload:
.LFB360:
	.loc 1 1560 1 is_stmt 1
	.cfi_startproc
	@ args = 0, pretend = 0, frame = 0
	@ frame_needed = 0, uses_anonymous_args = 0
.LVL168:
	push	{r3, r4, r5, r6, r7, lr}
	.cfi_def_cfa_offset 24
	.cfi_offset 3, -24
	.cfi_offset 4, -20
	.cfi_offset 5, -16
	.cfi_offset 6, -12
	.cfi_offset 7, -8
	.cfi_offset 14, -4
	.loc 1 1562 3
	.loc 1 1563 3
	.loc 1 1564 3
	.loc 1 1565 3
	.loc 1 1566 3
	.loc 1 1567 3
	.loc 1 1568 3
	.loc 1 1569 3
	.loc 1 1570 3
	.loc 1 1571 3
	.loc 1 1572 3
	.loc 1 1573 3
	.loc 1 1576 3
	.loc 1 1576 7
	.loc 1 1576 17 is_stmt 0
	ldrb	r3, [r0, #160]	@ zero_extendqisi2
	.loc 1 1576 9
	cmp	r3, #1
	beq	.L145
	mov	r4, r0
	mov	r5, r1
	mov	r6, r2
	.loc 1 1576 67 is_stmt 1 discriminator 2
	.loc 1 1576 81 is_stmt 0 discriminator 2
	movs	r7, #1
	strb	r7, [r0, #160]
	.loc 1 1576 5 is_stmt 1 discriminator 2
	.loc 1 1579 3 discriminator 2
	.loc 1 1579 16 is_stmt 0 discriminator 2
	movs	r3, #2
	strb	r3, [r0, #161]
	.loc 1 1582 3 is_stmt 1 discriminator 2
	.loc 1 1582 29 is_stmt 0 discriminator 2
	mov	ip, #52
	mla	ip, ip, r2, r0
	add	ip, ip, #56
	mov	lr, r1
	ldmia	lr!, {r0, r1, r2, r3}
.LVL169:
	stmia	ip!, {r0, r1, r2, r3}
	ldmia	lr!, {r0, r1, r2, r3}
	stmia	ip!, {r0, r1, r2, r3}
	ldmia	lr!, {r0, r1, r2, r3}
	stmia	ip!, {r0, r1, r2, r3}
	ldr	r3, [lr]
	str	r3, [ip]
	.loc 1 1585 3 is_stmt 1 discriminator 2
	mov	r2, r6
	mov	r1, r5
	mov	r0, r4
	bl	LTDC_SetConfig
.LVL170:
	.loc 1 1588 3 discriminator 2
	.loc 1 1588 16 is_stmt 0 discriminator 2
	strb	r7, [r4, #161]
	.loc 1 1591 3 is_stmt 1 discriminator 2
	.loc 1 1591 7 discriminator 2
	.loc 1 1591 21 is_stmt 0 discriminator 2
	movs	r0, #0
	strb	r0, [r4, #160]
	.loc 1 1591 5 is_stmt 1 discriminator 2
	.loc 1 1593 3 discriminator 2
.LVL171:
.L144:
	.loc 1 1594 1 is_stmt 0
	pop	{r3, r4, r5, r6, r7, pc}
.LVL172:
.L145:
	.loc 1 1576 48
	movs	r0, #2
.LVL173:
	b	.L144
	.cfi_endproc
.LFE360:
	.size	HAL_LTDC_ConfigLayer_NoReload, .-HAL_LTDC_ConfigLayer_NoReload
	.section	.text.HAL_LTDC_SetWindowSize_NoReload,"ax",%progbits
	.align	1
	.global	HAL_LTDC_SetWindowSize_NoReload
	.syntax unified
	.thumb
	.thumb_func
	.type	HAL_LTDC_SetWindowSize_NoReload, %function
HAL_LTDC_SetWindowSize_NoReload:
.LFB361:
	.loc 1 1610 1 is_stmt 1
	.cfi_startproc
	@ args = 0, pretend = 0, frame = 0
	@ frame_needed = 0, uses_anonymous_args = 0
.LVL174:
	push	{r4, r5, r6, lr}
	.cfi_def_cfa_offset 16
	.cfi_offset 4, -16
	.cfi_offset 5, -12
	.cfi_offset 6, -8
	.cfi_offset 14, -4
	mov	r5, r2
	mov	r2, r3
.LVL175:
	.loc 1 1611 3
	.loc 1 1614 3
	.loc 1 1615 3
	.loc 1 1616 3
	.loc 1 1619 3
	.loc 1 1619 7
	.loc 1 1619 17 is_stmt 0
	ldrb	r3, [r0, #160]	@ zero_extendqisi2
.LVL176:
	.loc 1 1619 9
	cmp	r3, #1
	beq	.L149
	mov	r4, r0
	.loc 1 1619 67 is_stmt 1 discriminator 2
	.loc 1 1619 81 is_stmt 0 discriminator 2
	movs	r6, #1
	strb	r6, [r0, #160]
	.loc 1 1619 5 is_stmt 1 discriminator 2
	.loc 1 1622 3 discriminator 2
	.loc 1 1622 16 is_stmt 0 discriminator 2
	movs	r3, #2
	strb	r3, [r0, #161]
	.loc 1 1625 3 is_stmt 1 discriminator 2
	.loc 1 1625 13 is_stmt 0 discriminator 2
	movs	r0, #52
.LVL177:
	mul	r0, r2, r0
	add	ip, r0, #56
.LVL178:
	.loc 1 1628 3 is_stmt 1 discriminator 2
	.loc 1 1628 42 is_stmt 0 discriminator 2
	add	r0, r0, r4
	ldr	r3, [r0, #56]
	.loc 1 1628 31 discriminator 2
	add	r3, r3, r1
	.loc 1 1628 23 discriminator 2
	str	r3, [r0, #60]
	.loc 1 1631 3 is_stmt 1 discriminator 2
	.loc 1 1631 42 is_stmt 0 discriminator 2
	ldr	r3, [r0, #64]
	.loc 1 1631 31 discriminator 2
	add	r3, r3, r5
	.loc 1 1631 23 discriminator 2
	str	r3, [r0, #68]
	.loc 1 1634 3 is_stmt 1 discriminator 2
	.loc 1 1634 25 is_stmt 0 discriminator 2
	str	r1, [r0, #96]
	.loc 1 1637 3 is_stmt 1 discriminator 2
	.loc 1 1637 26 is_stmt 0 discriminator 2
	str	r5, [r0, #100]
	.loc 1 1640 3 is_stmt 1 discriminator 2
	add	r1, r4, ip
.LVL179:
	mov	r0, r4
.LVL180:
	bl	LTDC_SetConfig
.LVL181:
	.loc 1 1643 3 discriminator 2
	.loc 1 1643 16 is_stmt 0 discriminator 2
	strb	r6, [r4, #161]
	.loc 1 1646 3 is_stmt 1 discriminator 2
	.loc 1 1646 7 discriminator 2
	.loc 1 1646 21 is_stmt 0 discriminator 2
	movs	r0, #0
	strb	r0, [r4, #160]
	.loc 1 1646 5 is_stmt 1 discriminator 2
	.loc 1 1648 3 discriminator 2
.LVL182:
.L148:
	.loc 1 1649 1 is_stmt 0
	pop	{r4, r5, r6, pc}
.LVL183:
.L149:
	.loc 1 1619 48
	movs	r0, #2
.LVL184:
	b	.L148
	.cfi_endproc
.LFE361:
	.size	HAL_LTDC_SetWindowSize_NoReload, .-HAL_LTDC_SetWindowSize_NoReload
	.section	.text.HAL_LTDC_SetWindowPosition_NoReload,"ax",%progbits
	.align	1
	.global	HAL_LTDC_SetWindowPosition_NoReload
	.syntax unified
	.thumb
	.thumb_func
	.type	HAL_LTDC_SetWindowPosition_NoReload, %function
HAL_LTDC_SetWindowPosition_NoReload:
.LFB362:
	.loc 1 1665 1 is_stmt 1
	.cfi_startproc
	@ args = 0, pretend = 0, frame = 0
	@ frame_needed = 0, uses_anonymous_args = 0
.LVL185:
	push	{r4, r5, r6, lr}
	.cfi_def_cfa_offset 16
	.cfi_offset 4, -16
	.cfi_offset 5, -12
	.cfi_offset 6, -8
	.cfi_offset 14, -4
	mov	r6, r2
	mov	r2, r3
.LVL186:
	.loc 1 1666 3
	.loc 1 1669 3
	.loc 1 1670 3
	.loc 1 1671 3
	.loc 1 1674 3
	.loc 1 1674 7
	.loc 1 1674 17 is_stmt 0
	ldrb	r3, [r0, #160]	@ zero_extendqisi2
.LVL187:
	.loc 1 1674 9
	cmp	r3, #1
	beq	.L153
	mov	r4, r0
	.loc 1 1674 67 is_stmt 1 discriminator 2
	.loc 1 1674 81 is_stmt 0 discriminator 2
	movs	r5, #1
	strb	r5, [r0, #160]
	.loc 1 1674 5 is_stmt 1 discriminator 2
	.loc 1 1677 3 discriminator 2
	.loc 1 1677 16 is_stmt 0 discriminator 2
	movs	r3, #2
	strb	r3, [r0, #161]
	.loc 1 1680 3 is_stmt 1 discriminator 2
	.loc 1 1680 13 is_stmt 0 discriminator 2
	movs	r0, #52
.LVL188:
	mul	r0, r2, r0
	add	ip, r0, #56
.LVL189:
	.loc 1 1683 3 is_stmt 1 discriminator 2
	.loc 1 1683 23 is_stmt 0 discriminator 2
	add	r0, r0, r4
	str	r1, [r0, #56]
	.loc 1 1684 3 is_stmt 1 discriminator 2
	.loc 1 1684 39 is_stmt 0 discriminator 2
	ldr	r3, [r0, #96]
	.loc 1 1684 28 discriminator 2
	add	r3, r3, r1
	.loc 1 1684 23 discriminator 2
	str	r3, [r0, #60]
	.loc 1 1687 3 is_stmt 1 discriminator 2
	.loc 1 1687 23 is_stmt 0 discriminator 2
	str	r6, [r0, #64]
	.loc 1 1688 3 is_stmt 1 discriminator 2
	.loc 1 1688 39 is_stmt 0 discriminator 2
	ldr	r3, [r0, #100]
	.loc 1 1688 28 discriminator 2
	add	r3, r3, r6
	.loc 1 1688 23 discriminator 2
	str	r3, [r0, #68]
	.loc 1 1691 3 is_stmt 1 discriminator 2
	add	r1, r4, ip
.LVL190:
	mov	r0, r4
.LVL191:
	bl	LTDC_SetConfig
.LVL192:
	.loc 1 1694 3 discriminator 2
	.loc 1 1694 16 is_stmt 0 discriminator 2
	strb	r5, [r4, #161]
	.loc 1 1697 3 is_stmt 1 discriminator 2
	.loc 1 1697 7 discriminator 2
	.loc 1 1697 21 is_stmt 0 discriminator 2
	movs	r0, #0
	strb	r0, [r4, #160]
	.loc 1 1697 5 is_stmt 1 discriminator 2
	.loc 1 1699 3 discriminator 2
.LVL193:
.L152:
	.loc 1 1700 1 is_stmt 0
	pop	{r4, r5, r6, pc}
.LVL194:
.L153:
	.loc 1 1674 48
	movs	r0, #2
.LVL195:
	b	.L152
	.cfi_endproc
.LFE362:
	.size	HAL_LTDC_SetWindowPosition_NoReload, .-HAL_LTDC_SetWindowPosition_NoReload
	.section	.text.HAL_LTDC_SetPixelFormat_NoReload,"ax",%progbits
	.align	1
	.global	HAL_LTDC_SetPixelFormat_NoReload
	.syntax unified
	.thumb
	.thumb_func
	.type	HAL_LTDC_SetPixelFormat_NoReload, %function
HAL_LTDC_SetPixelFormat_NoReload:
.LFB363:
	.loc 1 1714 1 is_stmt 1
	.cfi_startproc
	@ args = 0, pretend = 0, frame = 0
	@ frame_needed = 0, uses_anonymous_args = 0
.LVL196:
	push	{r3, r4, r5, lr}
	.cfi_def_cfa_offset 16
	.cfi_offset 3, -16
	.cfi_offset 4, -12
	.cfi_offset 5, -8
	.cfi_offset 14, -4
	.loc 1 1715 3
	.loc 1 1718 3
	.loc 1 1719 3
	.loc 1 1722 3
	.loc 1 1722 7
	.loc 1 1722 17 is_stmt 0
	ldrb	r3, [r0, #160]	@ zero_extendqisi2
	.loc 1 1722 9
	cmp	r3, #1
	beq	.L157
	mov	r4, r0
	.loc 1 1722 67 is_stmt 1 discriminator 2
	.loc 1 1722 81 is_stmt 0 discriminator 2
	movs	r5, #1
	strb	r5, [r0, #160]
	.loc 1 1722 5 is_stmt 1 discriminator 2
	.loc 1 1725 3 discriminator 2
	.loc 1 1725 16 is_stmt 0 discriminator 2
	movs	r3, #2
	strb	r3, [r0, #161]
	.loc 1 1728 3 is_stmt 1 discriminator 2
	.loc 1 1728 13 is_stmt 0 discriminator 2
	movs	r3, #52
	mul	r3, r2, r3
	add	r0, r3, #56
.LVL197:
	.loc 1 1731 3 is_stmt 1 discriminator 2
	.loc 1 1731 26 is_stmt 0 discriminator 2
	add	r3, r3, r4
	str	r1, [r3, #72]
	.loc 1 1734 3 is_stmt 1 discriminator 2
	adds	r1, r4, r0
.LVL198:
	mov	r0, r4
	bl	LTDC_SetConfig
.LVL199:
	.loc 1 1737 3 discriminator 2
	.loc 1 1737 16 is_stmt 0 discriminator 2
	strb	r5, [r4, #161]
	.loc 1 1740 3 is_stmt 1 discriminator 2
	.loc 1 1740 7 discriminator 2
	.loc 1 1740 21 is_stmt 0 discriminator 2
	movs	r0, #0
	strb	r0, [r4, #160]
	.loc 1 1740 5 is_stmt 1 discriminator 2
	.loc 1 1742 3 discriminator 2
.LVL200:
.L156:
	.loc 1 1743 1 is_stmt 0
	pop	{r3, r4, r5, pc}
.LVL201:
.L157:
	.loc 1 1722 48
	movs	r0, #2
.LVL202:
	b	.L156
	.cfi_endproc
.LFE363:
	.size	HAL_LTDC_SetPixelFormat_NoReload, .-HAL_LTDC_SetPixelFormat_NoReload
	.section	.text.HAL_LTDC_SetAlpha_NoReload,"ax",%progbits
	.align	1
	.global	HAL_LTDC_SetAlpha_NoReload
	.syntax unified
	.thumb
	.thumb_func
	.type	HAL_LTDC_SetAlpha_NoReload, %function
HAL_LTDC_SetAlpha_NoReload:
.LFB364:
	.loc 1 1757 1 is_stmt 1
	.cfi_startproc
	@ args = 0, pretend = 0, frame = 0
	@ frame_needed = 0, uses_anonymous_args = 0
.LVL203:
	push	{r3, r4, r5, lr}
	.cfi_def_cfa_offset 16
	.cfi_offset 3, -16
	.cfi_offset 4, -12
	.cfi_offset 5, -8
	.cfi_offset 14, -4
	.loc 1 1758 3
	.loc 1 1761 3
	.loc 1 1762 3
	.loc 1 1765 3
	.loc 1 1765 7
	.loc 1 1765 17 is_stmt 0
	ldrb	r3, [r0, #160]	@ zero_extendqisi2
	.loc 1 1765 9
	cmp	r3, #1
	beq	.L161
	mov	r4, r0
	.loc 1 1765 67 is_stmt 1 discriminator 2
	.loc 1 1765 81 is_stmt 0 discriminator 2
	movs	r5, #1
	strb	r5, [r0, #160]
	.loc 1 1765 5 is_stmt 1 discriminator 2
	.loc 1 1768 3 discriminator 2
	.loc 1 1768 16 is_stmt 0 discriminator 2
	movs	r3, #2
	strb	r3, [r0, #161]
	.loc 1 1771 3 is_stmt 1 discriminator 2
	.loc 1 1771 13 is_stmt 0 discriminator 2
	movs	r3, #52
	mul	r3, r2, r3
	add	r0, r3, #56
.LVL204:
	.loc 1 1774 3 is_stmt 1 discriminator 2
	.loc 1 1774 20 is_stmt 0 discriminator 2
	add	r3, r3, r4
	str	r1, [r3, #76]
	.loc 1 1777 3 is_stmt 1 discriminator 2
	adds	r1, r4, r0
.LVL205:
	mov	r0, r4
	bl	LTDC_SetConfig
.LVL206:
	.loc 1 1780 3 discriminator 2
	.loc 1 1780 16 is_stmt 0 discriminator 2
	strb	r5, [r4, #161]
	.loc 1 1783 3 is_stmt 1 discriminator 2
	.loc 1 1783 7 discriminator 2
	.loc 1 1783 21 is_stmt 0 discriminator 2
	movs	r0, #0
	strb	r0, [r4, #160]
	.loc 1 1783 5 is_stmt 1 discriminator 2
	.loc 1 1785 3 discriminator 2
.LVL207:
.L160:
	.loc 1 1786 1 is_stmt 0
	pop	{r3, r4, r5, pc}
.LVL208:
.L161:
	.loc 1 1765 48
	movs	r0, #2
.LVL209:
	b	.L160
	.cfi_endproc
.LFE364:
	.size	HAL_LTDC_SetAlpha_NoReload, .-HAL_LTDC_SetAlpha_NoReload
	.section	.text.HAL_LTDC_SetAddress_NoReload,"ax",%progbits
	.align	1
	.global	HAL_LTDC_SetAddress_NoReload
	.syntax unified
	.thumb
	.thumb_func
	.type	HAL_LTDC_SetAddress_NoReload, %function
HAL_LTDC_SetAddress_NoReload:
.LFB365:
	.loc 1 1800 1 is_stmt 1
	.cfi_startproc
	@ args = 0, pretend = 0, frame = 0
	@ frame_needed = 0, uses_anonymous_args = 0
.LVL210:
	push	{r3, r4, r5, lr}
	.cfi_def_cfa_offset 16
	.cfi_offset 3, -16
	.cfi_offset 4, -12
	.cfi_offset 5, -8
	.cfi_offset 14, -4
	.loc 1 1801 3
	.loc 1 1804 3
	.loc 1 1807 3
	.loc 1 1807 7
	.loc 1 1807 17 is_stmt 0
	ldrb	r3, [r0, #160]	@ zero_extendqisi2
	.loc 1 1807 9
	cmp	r3, #1
	beq	.L165
	mov	r4, r0
	.loc 1 1807 67 is_stmt 1 discriminator 2
	.loc 1 1807 81 is_stmt 0 discriminator 2
	movs	r5, #1
	strb	r5, [r0, #160]
	.loc 1 1807 5 is_stmt 1 discriminator 2
	.loc 1 1810 3 discriminator 2
	.loc 1 1810 16 is_stmt 0 discriminator 2
	movs	r3, #2
	strb	r3, [r0, #161]
	.loc 1 1813 3 is_stmt 1 discriminator 2
	.loc 1 1813 13 is_stmt 0 discriminator 2
	movs	r3, #52
	mul	r3, r2, r3
	add	r0, r3, #56
.LVL211:
	.loc 1 1816 3 is_stmt 1 discriminator 2
	.loc 1 1816 28 is_stmt 0 discriminator 2
	add	r3, r3, r4
	str	r1, [r3, #92]
	.loc 1 1819 3 is_stmt 1 discriminator 2
	adds	r1, r4, r0
.LVL212:
	mov	r0, r4
	bl	LTDC_SetConfig
.LVL213:
	.loc 1 1822 3 discriminator 2
	.loc 1 1822 16 is_stmt 0 discriminator 2
	strb	r5, [r4, #161]
	.loc 1 1825 3 is_stmt 1 discriminator 2
	.loc 1 1825 7 discriminator 2
	.loc 1 1825 21 is_stmt 0 discriminator 2
	movs	r0, #0
	strb	r0, [r4, #160]
	.loc 1 1825 5 is_stmt 1 discriminator 2
	.loc 1 1827 3 discriminator 2
.LVL214:
.L164:
	.loc 1 1828 1 is_stmt 0
	pop	{r3, r4, r5, pc}
.LVL215:
.L165:
	.loc 1 1807 48
	movs	r0, #2
.LVL216:
	b	.L164
	.cfi_endproc
.LFE365:
	.size	HAL_LTDC_SetAddress_NoReload, .-HAL_LTDC_SetAddress_NoReload
	.section	.text.HAL_LTDC_SetPitch_NoReload,"ax",%progbits
	.align	1
	.global	HAL_LTDC_SetPitch_NoReload
	.syntax unified
	.thumb
	.thumb_func
	.type	HAL_LTDC_SetPitch_NoReload, %function
HAL_LTDC_SetPitch_NoReload:
.LFB366:
	.loc 1 1847 1 is_stmt 1
	.cfi_startproc
	@ args = 0, pretend = 0, frame = 0
	@ frame_needed = 0, uses_anonymous_args = 0
	@ link register save eliminated.
.LVL217:
	mov	r3, r0
	.loc 1 1848 3
	.loc 1 1849 3
	.loc 1 1850 3
	.loc 1 1853 3
	.loc 1 1856 3
	.loc 1 1856 7
	.loc 1 1856 17 is_stmt 0
	ldrb	r0, [r0, #160]	@ zero_extendqisi2
.LVL218:
	.loc 1 1856 9
	cmp	r0, #1
	beq	.L174
	.loc 1 1847 1 discriminator 2
	push	{r4}
	.cfi_def_cfa_offset 4
	.cfi_offset 4, -4
	.loc 1 1856 67 is_stmt 1 discriminator 2
	.loc 1 1856 81 is_stmt 0 discriminator 2
	movs	r0, #1
	strb	r0, [r3, #160]
	.loc 1 1856 5 is_stmt 1 discriminator 2
	.loc 1 1859 3 discriminator 2
	.loc 1 1859 16 is_stmt 0 discriminator 2
	movs	r0, #2
	strb	r0, [r3, #161]
	.loc 1 1862 3 is_stmt 1 discriminator 2
	.loc 1 1862 15 is_stmt 0 discriminator 2
	movs	r0, #52
	mla	r0, r0, r2, r3
	ldr	r0, [r0, #72]
.LVL219:
	.loc 1 1864 3 is_stmt 1 discriminator 2
	.loc 1 1864 6 is_stmt 0 discriminator 2
	cbz	r0, .L175
	.loc 1 1868 8 is_stmt 1
	subs	r0, r0, #1
.LVL220:
	cmp	r0, #6
	bhi	.L170
	tbb	[pc, r0]
.L172:
	.byte	(.L176-.L172)/2
	.byte	(.L173-.L172)/2
	.byte	(.L171-.L172)/2
	.byte	(.L173-.L172)/2
	.byte	(.L170-.L172)/2
	.byte	(.L170-.L172)/2
	.byte	(.L171-.L172)/2
	.p2align 1
.L170:
	.loc 1 1864 6 is_stmt 0
	mov	ip, #1
	b	.L169
.L173:
	mov	ip, #2
	b	.L169
.L171:
	mov	ip, #2
	b	.L169
.LVL221:
.L175:
	.loc 1 1866 9
	mov	ip, #4
.LVL222:
.L169:
	.loc 1 1884 3 is_stmt 1
	.loc 1 1884 37 is_stmt 0
	mul	ip, r1, ip
.LVL223:
	.loc 1 1887 3 is_stmt 1
	.loc 1 1887 58 is_stmt 0
	ldr	r0, [r3]
	.loc 1 1887 102
	add	r0, r0, r2, lsl #7
	ldr	r4, [r0, #176]
	.loc 1 1887 110
	ldr	r1, .L181
.LVL224:
	ands	r1, r1, r4
	str	r1, [r0, #176]
.LVL225:
	.loc 1 1890 3 is_stmt 1
	.loc 1 1890 58 is_stmt 0
	ldr	r0, [r3]
	.loc 1 1890 102
	add	r2, r0, r2, lsl #7
.LVL226:
	ldr	r1, [r2, #176]
	.loc 1 1890 110
	orr	r1, r1, ip, lsl #16
	str	r1, [r2, #176]
	.loc 1 1893 3 is_stmt 1
	.loc 1 1893 16 is_stmt 0
	movs	r2, #1
	strb	r2, [r3, #161]
	.loc 1 1896 3 is_stmt 1
	.loc 1 1896 7
	.loc 1 1896 21 is_stmt 0
	movs	r0, #0
	strb	r0, [r3, #160]
	.loc 1 1896 5 is_stmt 1
	.loc 1 1898 3
	.loc 1 1899 1 is_stmt 0
	ldr	r4, [sp], #4
	.cfi_remember_state
	.cfi_restore 4
	.cfi_def_cfa_offset 0
	bx	lr
.LVL227:
.L176:
	.cfi_restore_state
	.loc 1 1864 6
	mov	ip, #3
	b	.L169
.LVL228:
.L174:
	.cfi_def_cfa_offset 0
	.cfi_restore 4
	.loc 1 1856 48
	movs	r0, #2
	.loc 1 1899 1
	bx	lr
.L182:
	.align	2
.L181:
	.word	-536805377
	.cfi_endproc
.LFE366:
	.size	HAL_LTDC_SetPitch_NoReload, .-HAL_LTDC_SetPitch_NoReload
	.section	.text.HAL_LTDC_ConfigColorKeying_NoReload,"ax",%progbits
	.align	1
	.global	HAL_LTDC_ConfigColorKeying_NoReload
	.syntax unified
	.thumb
	.thumb_func
	.type	HAL_LTDC_ConfigColorKeying_NoReload, %function
HAL_LTDC_ConfigColorKeying_NoReload:
.LFB367:
	.loc 1 1914 1 is_stmt 1
	.cfi_startproc
	@ args = 0, pretend = 0, frame = 0
	@ frame_needed = 0, uses_anonymous_args = 0
	@ link register save eliminated.
.LVL229:
	mov	r3, r0
	.loc 1 1916 3
	.loc 1 1919 3
	.loc 1 1919 7
	.loc 1 1919 17 is_stmt 0
	ldrb	r0, [r0, #160]	@ zero_extendqisi2
.LVL230:
	.loc 1 1919 9
	cmp	r0, #1
	beq	.L185
	.loc 1 1914 1 discriminator 2
	push	{r4}
	.cfi_def_cfa_offset 4
	.cfi_offset 4, -4
	.loc 1 1919 67 is_stmt 1 discriminator 2
	.loc 1 1919 81 is_stmt 0 discriminator 2
	mov	ip, #1
	strb	ip, [r3, #160]
	.loc 1 1919 5 is_stmt 1 discriminator 2
	.loc 1 1922 3 discriminator 2
	.loc 1 1922 16 is_stmt 0 discriminator 2
	movs	r0, #2
	strb	r0, [r3, #161]
	.loc 1 1925 3 is_stmt 1 discriminator 2
	.loc 1 1925 58 is_stmt 0 discriminator 2
	ldr	r0, [r3]
	.loc 1 1925 102 discriminator 2
	add	r0, r0, r2, lsl #7
	ldr	r4, [r0, #144]
	.loc 1 1925 109 discriminator 2
	and	r4, r4, #-16777216
	str	r4, [r0, #144]
	.loc 1 1926 3 is_stmt 1 discriminator 2
	.loc 1 1926 58 is_stmt 0 discriminator 2
	ldr	r0, [r3]
	.loc 1 1926 27 discriminator 2
	add	r0, r0, r2, lsl #7
	.loc 1 1926 109 discriminator 2
	str	r1, [r0, #144]
	.loc 1 1929 3 is_stmt 1 discriminator 2
	.loc 1 1929 16 is_stmt 0 discriminator 2
	strb	ip, [r3, #161]
	.loc 1 1932 3 is_stmt 1 discriminator 2
	.loc 1 1932 7 discriminator 2
	.loc 1 1932 21 is_stmt 0 discriminator 2
	movs	r0, #0
	strb	r0, [r3, #160]
	.loc 1 1932 5 is_stmt 1 discriminator 2
	.loc 1 1934 3 discriminator 2
	.loc 1 1935 1 is_stmt 0 discriminator 2
	ldr	r4, [sp], #4
	.cfi_restore 4
	.cfi_def_cfa_offset 0
	bx	lr
.L185:
	.loc 1 1919 48
	movs	r0, #2
	.loc 1 1935 1
	bx	lr
	.cfi_endproc
.LFE367:
	.size	HAL_LTDC_ConfigColorKeying_NoReload, .-HAL_LTDC_ConfigColorKeying_NoReload
	.section	.text.HAL_LTDC_EnableColorKeying_NoReload,"ax",%progbits
	.align	1
	.global	HAL_LTDC_EnableColorKeying_NoReload
	.syntax unified
	.thumb
	.thumb_func
	.type	HAL_LTDC_EnableColorKeying_NoReload, %function
HAL_LTDC_EnableColorKeying_NoReload:
.LFB368:
	.loc 1 1948 1 is_stmt 1
	.cfi_startproc
	@ args = 0, pretend = 0, frame = 0
	@ frame_needed = 0, uses_anonymous_args = 0
	@ link register save eliminated.
.LVL231:
	.loc 1 1950 3
	.loc 1 1953 3
	.loc 1 1953 7
	.loc 1 1953 17 is_stmt 0
	ldrb	r3, [r0, #160]	@ zero_extendqisi2
	.loc 1 1953 9
	cmp	r3, #1
	beq	.L192
	.loc 1 1953 67 is_stmt 1 discriminator 2
	.loc 1 1953 81 is_stmt 0 discriminator 2
	movs	r2, #1
	strb	r2, [r0, #160]
	.loc 1 1953 5 is_stmt 1 discriminator 2
	.loc 1 1956 3 discriminator 2
	.loc 1 1956 16 is_stmt 0 discriminator 2
	movs	r3, #2
	strb	r3, [r0, #161]
	.loc 1 1959 3 is_stmt 1 discriminator 2
	.loc 1 1959 58 is_stmt 0 discriminator 2
	ldr	r3, [r0]
	.loc 1 1959 102 discriminator 2
	add	r1, r3, r1, lsl #7
.LVL232:
	ldr	r3, [r1, #132]
	.loc 1 1959 107 discriminator 2
	orr	r3, r3, #2
	str	r3, [r1, #132]
	.loc 1 1962 3 is_stmt 1 discriminator 2
	.loc 1 1962 16 is_stmt 0 discriminator 2
	strb	r2, [r0, #161]
	.loc 1 1965 3 is_stmt 1 discriminator 2
	.loc 1 1965 7 discriminator 2
	.loc 1 1965 21 is_stmt 0 discriminator 2
	movs	r3, #0
	strb	r3, [r0, #160]
	.loc 1 1965 5 is_stmt 1 discriminator 2
	.loc 1 1967 3 discriminator 2
	.loc 1 1967 10 is_stmt 0 discriminator 2
	mov	r0, r3
.LVL233:
	bx	lr
.LVL234:
.L192:
	.loc 1 1953 48
	movs	r0, #2
.LVL235:
	.loc 1 1968 1
	bx	lr
	.cfi_endproc
.LFE368:
	.size	HAL_LTDC_EnableColorKeying_NoReload, .-HAL_LTDC_EnableColorKeying_NoReload
	.section	.text.HAL_LTDC_DisableColorKeying_NoReload,"ax",%progbits
	.align	1
	.global	HAL_LTDC_DisableColorKeying_NoReload
	.syntax unified
	.thumb
	.thumb_func
	.type	HAL_LTDC_DisableColorKeying_NoReload, %function
HAL_LTDC_DisableColorKeying_NoReload:
.LFB369:
	.loc 1 1981 1 is_stmt 1
	.cfi_startproc
	@ args = 0, pretend = 0, frame = 0
	@ frame_needed = 0, uses_anonymous_args = 0
	@ link register save eliminated.
.LVL236:
	.loc 1 1983 3
	.loc 1 1986 3
	.loc 1 1986 7
	.loc 1 1986 17 is_stmt 0
	ldrb	r3, [r0, #160]	@ zero_extendqisi2
	.loc 1 1986 9
	cmp	r3, #1
	beq	.L195
	.loc 1 1986 67 is_stmt 1 discriminator 2
	.loc 1 1986 81 is_stmt 0 discriminator 2
	movs	r2, #1
	strb	r2, [r0, #160]
	.loc 1 1986 5 is_stmt 1 discriminator 2
	.loc 1 1989 3 discriminator 2
	.loc 1 1989 16 is_stmt 0 discriminator 2
	movs	r3, #2
	strb	r3, [r0, #161]
	.loc 1 1992 3 is_stmt 1 discriminator 2
	.loc 1 1992 58 is_stmt 0 discriminator 2
	ldr	r3, [r0]
	.loc 1 1992 102 discriminator 2
	add	r1, r3, r1, lsl #7
.LVL237:
	ldr	r3, [r1, #132]
	.loc 1 1992 107 discriminator 2
	bic	r3, r3, #2
	str	r3, [r1, #132]
	.loc 1 1995 3 is_stmt 1 discriminator 2
	.loc 1 1995 16 is_stmt 0 discriminator 2
	strb	r2, [r0, #161]
	.loc 1 1998 3 is_stmt 1 discriminator 2
	.loc 1 1998 7 discriminator 2
	.loc 1 1998 21 is_stmt 0 discriminator 2
	movs	r3, #0
	strb	r3, [r0, #160]
	.loc 1 1998 5 is_stmt 1 discriminator 2
	.loc 1 2000 3 discriminator 2
	.loc 1 2000 10 is_stmt 0 discriminator 2
	mov	r0, r3
.LVL238:
	bx	lr
.LVL239:
.L195:
	.loc 1 1986 48
	movs	r0, #2
.LVL240:
	.loc 1 2001 1
	bx	lr
	.cfi_endproc
.LFE369:
	.size	HAL_LTDC_DisableColorKeying_NoReload, .-HAL_LTDC_DisableColorKeying_NoReload
	.section	.text.HAL_LTDC_EnableCLUT_NoReload,"ax",%progbits
	.align	1
	.global	HAL_LTDC_EnableCLUT_NoReload
	.syntax unified
	.thumb
	.thumb_func
	.type	HAL_LTDC_EnableCLUT_NoReload, %function
HAL_LTDC_EnableCLUT_NoReload:
.LFB370:
	.loc 1 2014 1 is_stmt 1
	.cfi_startproc
	@ args = 0, pretend = 0, frame = 0
	@ frame_needed = 0, uses_anonymous_args = 0
	@ link register save eliminated.
.LVL241:
	.loc 1 2016 3
	.loc 1 2019 3
	.loc 1 2019 7
	.loc 1 2019 17 is_stmt 0
	ldrb	r3, [r0, #160]	@ zero_extendqisi2
	.loc 1 2019 9
	cmp	r3, #1
	beq	.L198
	.loc 1 2019 67 is_stmt 1 discriminator 2
	.loc 1 2019 81 is_stmt 0 discriminator 2
	movs	r2, #1
	strb	r2, [r0, #160]
	.loc 1 2019 5 is_stmt 1 discriminator 2
	.loc 1 2022 3 discriminator 2
	.loc 1 2022 16 is_stmt 0 discriminator 2
	movs	r3, #2
	strb	r3, [r0, #161]
	.loc 1 2025 3 is_stmt 1 discriminator 2
	.loc 1 2025 58 is_stmt 0 discriminator 2
	ldr	r3, [r0]
	.loc 1 2025 102 discriminator 2
	add	r1, r3, r1, lsl #7
.LVL242:
	ldr	r3, [r1, #132]
	.loc 1 2025 107 discriminator 2
	orr	r3, r3, #16
	str	r3, [r1, #132]
	.loc 1 2028 3 is_stmt 1 discriminator 2
	.loc 1 2028 16 is_stmt 0 discriminator 2
	strb	r2, [r0, #161]
	.loc 1 2031 3 is_stmt 1 discriminator 2
	.loc 1 2031 7 discriminator 2
	.loc 1 2031 21 is_stmt 0 discriminator 2
	movs	r3, #0
	strb	r3, [r0, #160]
	.loc 1 2031 5 is_stmt 1 discriminator 2
	.loc 1 2033 3 discriminator 2
	.loc 1 2033 10 is_stmt 0 discriminator 2
	mov	r0, r3
.LVL243:
	bx	lr
.LVL244:
.L198:
	.loc 1 2019 48
	movs	r0, #2
.LVL245:
	.loc 1 2034 1
	bx	lr
	.cfi_endproc
.LFE370:
	.size	HAL_LTDC_EnableCLUT_NoReload, .-HAL_LTDC_EnableCLUT_NoReload
	.section	.text.HAL_LTDC_DisableCLUT_NoReload,"ax",%progbits
	.align	1
	.global	HAL_LTDC_DisableCLUT_NoReload
	.syntax unified
	.thumb
	.thumb_func
	.type	HAL_LTDC_DisableCLUT_NoReload, %function
HAL_LTDC_DisableCLUT_NoReload:
.LFB371:
	.loc 1 2047 1 is_stmt 1
	.cfi_startproc
	@ args = 0, pretend = 0, frame = 0
	@ frame_needed = 0, uses_anonymous_args = 0
	@ link register save eliminated.
.LVL246:
	.loc 1 2049 3
	.loc 1 2052 3
	.loc 1 2052 7
	.loc 1 2052 17 is_stmt 0
	ldrb	r3, [r0, #160]	@ zero_extendqisi2
	.loc 1 2052 9
	cmp	r3, #1
	beq	.L201
	.loc 1 2052 67 is_stmt 1 discriminator 2
	.loc 1 2052 81 is_stmt 0 discriminator 2
	movs	r2, #1
	strb	r2, [r0, #160]
	.loc 1 2052 5 is_stmt 1 discriminator 2
	.loc 1 2055 3 discriminator 2
	.loc 1 2055 16 is_stmt 0 discriminator 2
	movs	r3, #2
	strb	r3, [r0, #161]
	.loc 1 2058 3 is_stmt 1 discriminator 2
	.loc 1 2058 58 is_stmt 0 discriminator 2
	ldr	r3, [r0]
	.loc 1 2058 102 discriminator 2
	add	r1, r3, r1, lsl #7
.LVL247:
	ldr	r3, [r1, #132]
	.loc 1 2058 107 discriminator 2
	bic	r3, r3, #16
	str	r3, [r1, #132]
	.loc 1 2061 3 is_stmt 1 discriminator 2
	.loc 1 2061 16 is_stmt 0 discriminator 2
	strb	r2, [r0, #161]
	.loc 1 2064 3 is_stmt 1 discriminator 2
	.loc 1 2064 7 discriminator 2
	.loc 1 2064 21 is_stmt 0 discriminator 2
	movs	r3, #0
	strb	r3, [r0, #160]
	.loc 1 2064 5 is_stmt 1 discriminator 2
	.loc 1 2066 3 discriminator 2
	.loc 1 2066 10 is_stmt 0 discriminator 2
	mov	r0, r3
.LVL248:
	bx	lr
.LVL249:
.L201:
	.loc 1 2052 48
	movs	r0, #2
.LVL250:
	.loc 1 2067 1
	bx	lr
	.cfi_endproc
.LFE371:
	.size	HAL_LTDC_DisableCLUT_NoReload, .-HAL_LTDC_DisableCLUT_NoReload
	.section	.text.HAL_LTDC_GetState,"ax",%progbits
	.align	1
	.global	HAL_LTDC_GetState
	.syntax unified
	.thumb
	.thumb_func
	.type	HAL_LTDC_GetState, %function
HAL_LTDC_GetState:
.LFB372:
	.loc 1 2096 1 is_stmt 1
	.cfi_startproc
	@ args = 0, pretend = 0, frame = 0
	@ frame_needed = 0, uses_anonymous_args = 0
	@ link register save eliminated.
.LVL251:
	.loc 1 2097 3
	.loc 1 2097 15 is_stmt 0
	ldrb	r0, [r0, #161]	@ zero_extendqisi2
.LVL252:
	.loc 1 2098 1
	bx	lr
	.cfi_endproc
.LFE372:
	.size	HAL_LTDC_GetState, .-HAL_LTDC_GetState
	.section	.text.HAL_LTDC_GetError,"ax",%progbits
	.align	1
	.global	HAL_LTDC_GetError
	.syntax unified
	.thumb
	.thumb_func
	.type	HAL_LTDC_GetError, %function
HAL_LTDC_GetError:
.LFB373:
	.loc 1 2107 1 is_stmt 1
	.cfi_startproc
	@ args = 0, pretend = 0, frame = 0
	@ frame_needed = 0, uses_anonymous_args = 0
	@ link register save eliminated.
.LVL253:
	.loc 1 2108 3
	.loc 1 2108 15 is_stmt 0
	ldr	r0, [r0, #164]
.LVL254:
	.loc 1 2109 1
	bx	lr
	.cfi_endproc
.LFE373:
	.size	HAL_LTDC_GetError, .-HAL_LTDC_GetError
	.text
.Letext0:
	.file 2 "m:\\noinstall\\arm-gnu-toolchain-12.2.rel1-mingw-w64-i686-arm-none-eabi\\arm-none-eabi\\include\\machine\\_default_types.h"
	.file 3 "m:\\noinstall\\arm-gnu-toolchain-12.2.rel1-mingw-w64-i686-arm-none-eabi\\arm-none-eabi\\include\\sys\\_stdint.h"
	.file 4 "D:/RTOS/Board/YD-STM32H7xxVx_ClassicV19/cmake-build-debug/_deps/stm32h7xx_cmsis_device-src/Include/stm32h743xx.h"
	.file 5 "D:/RTOS/Board/YD-STM32H7xxVx_ClassicV19/cmake-build-debug/_deps/stm32h7xx_hal_driver-src/Inc/stm32h7xx_hal_def.h"
	.file 6 "D:/RTOS/Board/YD-STM32H7xxVx_ClassicV19/cmake-build-debug/_deps/stm32h7xx_hal_driver-src/Inc/stm32h7xx_hal_ltdc.h"
	.file 7 "D:/RTOS/Board/YD-STM32H7xxVx_ClassicV19/cmake-build-debug/_deps/stm32h7xx_hal_driver-src/Inc/stm32h7xx_hal.h"