	.cpu cortex-m7
	.arch armv7e-m
	.fpu fpv5-d16
	.eabi_attribute 28, 1
	.eabi_attribute 20, 1
	.eabi_attribute 21, 1
	.eabi_attribute 23, 3
	.eabi_attribute 24, 1
	.eabi_attribute 25, 1
	.eabi_attribute 26, 1
	.eabi_attribute 30, 1
	.eabi_attribute 34, 1
	.eabi_attribute 18, 4
	.file	"stm32h7xx_hal_qspi.c"
	.text
.Ltext0:
	.cfi_sections	.debug_frame
	.file 1 "D:/RTOS/Board/YD-STM32H7xxVx_ClassicV19/cmake-build-debug/_deps/stm32h7xx_hal_driver-src/Src/stm32h7xx_hal_qspi.c"
	.section	.text.QSPI_DMARxCplt,"ax",%progbits
	.align	1
	.syntax unified
	.thumb
	.thumb_func
	.type	QSPI_DMARxCplt, %function
QSPI_DMARxCplt:
.LFB367:
	.loc 1 2386 1
	.cfi_startproc
	@ args = 0, pretend = 0, frame = 0
	@ frame_needed = 0, uses_anonymous_args = 0
	@ link register save eliminated.
.LVL0:
	.loc 1 2387 3
	.loc 1 2387 23 is_stmt 0
	ldr	r3, [r0, #64]
.LVL1:
	.loc 1 2388 3 is_stmt 1
	.loc 1 2388 22 is_stmt 0
	movs	r2, #0
	str	r2, [r3, #56]
	.loc 1 2391 3 is_stmt 1
	.loc 1 2391 12 is_stmt 0
	ldr	r2, [r3]
	.loc 1 2391 22
	ldr	r3, [r2]
.LVL2:
	.loc 1 2391 28
	orr	r3, r3, #131072
	str	r3, [r2]
	.loc 1 2392 1
	bx	lr
	.cfi_endproc
.LFE367:
	.size	QSPI_DMARxCplt, .-QSPI_DMARxCplt
	.section	.text.QSPI_DMATxCplt,"ax",%progbits
	.align	1
	.syntax unified
	.thumb
	.thumb_func
	.type	QSPI_DMATxCplt, %function
QSPI_DMATxCplt:
.LFB368:
	.loc 1 2400 1 is_stmt 1
	.cfi_startproc
	@ args = 0, pretend = 0, frame = 0
	@ frame_needed = 0, uses_anonymous_args = 0
	@ link register save eliminated.
.LVL3:
	.loc 1 2401 3
	.loc 1 2401 23 is_stmt 0
	ldr	r3, [r0, #64]
.LVL4:
	.loc 1 2402 3 is_stmt 1
	.loc 1 2402 22 is_stmt 0
	movs	r2, #0
	str	r2, [r3, #44]
	.loc 1 2405 3 is_stmt 1
	.loc 1 2405 12 is_stmt 0
	ldr	r2, [r3]
	.loc 1 2405 22
	ldr	r3, [r2]
.LVL5:
	.loc 1 2405 28
	orr	r3, r3, #131072
	str	r3, [r2]
	.loc 1 2406 1
	bx	lr
	.cfi_endproc
.LFE368:
	.size	QSPI_DMATxCplt, .-QSPI_DMATxCplt
	.section	.text.QSPI_Config,"ax",%progbits
	.align	1
	.syntax unified
	.thumb
	.thumb_func
	.type	QSPI_Config, %function
QSPI_Config:
.LFB372:
	.loc 1 2512 1 is_stmt 1
	.cfi_startproc
	@ args = 0, pretend = 0, frame = 0
	@ frame_needed = 0, uses_anonymous_args = 0
	@ link register save eliminated.
.LVL6:
	push	{r4, r5, r6, r7}
	.cfi_def_cfa_offset 16
	.cfi_offset 4, -16
	.cfi_offset 5, -12
	.cfi_offset 6, -8
	.cfi_offset 7, -4
	.loc 1 2513 3
	.loc 1 2515 3
	.loc 1 2515 11 is_stmt 0
	ldr	r3, [r1, #36]
	.loc 1 2515 6
	cbz	r3, .L4
	.loc 1 2515 38 discriminator 1
	cmp	r2, #201326592
	beq	.L4
	.loc 1 2518 5 is_stmt 1
	.loc 1 2518 36 is_stmt 0
	ldr	r3, [r1, #40]
	.loc 1 2518 12
	ldr	r4, [r0]
	.loc 1 2518 45
	subs	r3, r3, #1
	.loc 1 2518 29
	str	r3, [r4, #16]
.L4:
	.loc 1 2521 3 is_stmt 1
	.loc 1 2521 10 is_stmt 0
	ldr	r4, [r1, #24]
	.loc 1 2521 6
	cmp	r4, #0
	beq	.L5
	.loc 1 2523 5 is_stmt 1
	.loc 1 2523 12 is_stmt 0
	ldr	r6, [r1, #32]
	.loc 1 2523 8
	cmp	r6, #0
	beq	.L6
	.loc 1 2526 7 is_stmt 1
	.loc 1 2526 14 is_stmt 0
	ldr	r3, [r0]
	.loc 1 2526 37
	ldr	r4, [r1, #8]
	.loc 1 2526 31
	str	r4, [r3, #28]
	.loc 1 2528 7 is_stmt 1
	.loc 1 2528 14 is_stmt 0
	ldr	r4, [r1, #28]
	.loc 1 2528 10
	cbz	r4, .L7
	.loc 1 2532 9 is_stmt 1
	.loc 1 2532 40 is_stmt 0
	ldr	r3, [r1, #44]
	.loc 1 2532 55
	ldr	r5, [r1, #48]
	.loc 1 2532 50
	orrs	r3, r3, r5
	.loc 1 2532 79
	ldr	r5, [r1, #52]
	.loc 1 2532 74
	orrs	r3, r3, r5
	.loc 1 2532 95
	ldr	r5, [r1, #36]
	.loc 1 2532 90
	orrs	r3, r3, r5
	.loc 1 2532 112
	ldr	r5, [r1, #20]
	.loc 1 2532 106
	orr	r3, r3, r5, lsl #18
	.loc 1 2532 141
	ldr	r5, [r1, #16]
	.loc 1 2532 136
	orrs	r3, r3, r5
	.loc 1 2532 167
	ldr	r5, [r1, #32]
	.loc 1 2532 162
	orrs	r3, r3, r5
	.loc 1 2532 192
	ldr	r5, [r1, #12]
	.loc 1 2532 187
	orrs	r3, r3, r5
	.loc 1 2532 206
	orrs	r3, r3, r4
	.loc 1 2532 230
	ldr	r4, [r1, #24]
	.loc 1 2532 225
	orrs	r3, r3, r4
	.loc 1 2532 253
	ldr	r4, [r1]
	.loc 1 2532 248
	orrs	r3, r3, r4
	.loc 1 2532 16
	ldr	r4, [r0]
	.loc 1 2532 267
	orrs	r3, r3, r2
	.loc 1 2532 33
	str	r3, [r4, #20]
	.loc 1 2538 9 is_stmt 1
	.loc 1 2538 12 is_stmt 0
	cmp	r2, #201326592
	beq	.L3
	.loc 1 2541 11 is_stmt 1
	.loc 1 2541 18 is_stmt 0
	ldr	r3, [r0]
	.loc 1 2541 40
	ldr	r2, [r1, #4]
.LVL7:
	.loc 1 2541 34
	str	r2, [r3, #24]
	b	.L3
.LVL8:
.L7:
	.loc 1 2548 9 is_stmt 1
	.loc 1 2548 40 is_stmt 0
	ldr	r3, [r1, #44]
	.loc 1 2548 55
	ldr	r5, [r1, #48]
	.loc 1 2548 50
	orrs	r3, r3, r5
	.loc 1 2548 79
	ldr	r5, [r1, #52]
	.loc 1 2548 74
	orrs	r3, r3, r5
	.loc 1 2548 95
	ldr	r5, [r1, #36]
	.loc 1 2548 90
	orrs	r3, r3, r5
	.loc 1 2548 112
	ldr	r5, [r1, #20]
	.loc 1 2548 106
	orr	r3, r3, r5, lsl #18
	.loc 1 2548 141
	ldr	r5, [r1, #16]
	.loc 1 2548 136
	orrs	r3, r3, r5
	.loc 1 2548 167
	ldr	r5, [r1, #32]
	.loc 1 2548 162
	orrs	r3, r3, r5
	.loc 1 2548 187
	orrs	r3, r3, r4
	.loc 1 2548 211
	ldr	r4, [r1, #24]
	.loc 1 2548 206
	orrs	r3, r3, r4
	.loc 1 2548 234
	ldr	r1, [r1]
.LVL9:
	.loc 1 2548 229
	orrs	r3, r3, r1
	.loc 1 2548 16
	ldr	r1, [r0]
	.loc 1 2548 248
	orrs	r3, r3, r2
	.loc 1 2548 33
	str	r3, [r1, #20]
.LVL10:
.L3:
	.loc 1 2647 1
	pop	{r4, r5, r6, r7}
	.cfi_remember_state
	.cfi_restore 7
	.cfi_restore 6
	.cfi_restore 5
	.cfi_restore 4
	.cfi_def_cfa_offset 0
	bx	lr
.LVL11:
.L6:
	.cfi_restore_state
	.loc 1 2557 7 is_stmt 1
	.loc 1 2557 14 is_stmt 0
	ldr	r5, [r1, #28]
	.loc 1 2557 10
	cbz	r5, .L9
	.loc 1 2561 9 is_stmt 1
	.loc 1 2561 40 is_stmt 0
	ldr	r3, [r1, #44]
	.loc 1 2561 55
	ldr	r7, [r1, #48]
	.loc 1 2561 50
	orrs	r3, r3, r7
	.loc 1 2561 79
	ldr	r7, [r1, #52]
	.loc 1 2561 74
	orrs	r3, r3, r7
	.loc 1 2561 95
	ldr	r7, [r1, #36]
	.loc 1 2561 90
	orrs	r3, r3, r7
	.loc 1 2561 112
	ldr	r7, [r1, #20]
	.loc 1 2561 106
	orr	r3, r3, r7, lsl #18
	.loc 1 2561 136
	orrs	r3, r3, r6
	.loc 1 2561 166
	ldr	r6, [r1, #12]
	.loc 1 2561 161
	orrs	r3, r3, r6
	.loc 1 2561 180
	orrs	r3, r3, r5
	.loc 1 2561 199
	orrs	r3, r3, r4
	.loc 1 2561 227
	ldr	r4, [r1]
	.loc 1 2561 222
	orrs	r3, r3, r4
	.loc 1 2561 16
	ldr	r4, [r0]
	.loc 1 2561 241
	orrs	r3, r3, r2
	.loc 1 2561 33
	str	r3, [r4, #20]
	.loc 1 2566 9 is_stmt 1
	.loc 1 2566 12 is_stmt 0
	cmp	r2, #201326592
	beq	.L3
	.loc 1 2569 11 is_stmt 1
	.loc 1 2569 18 is_stmt 0
	ldr	r3, [r0]
	.loc 1 2569 40
	ldr	r2, [r1, #4]
.LVL12:
	.loc 1 2569 34
	str	r2, [r3, #24]
	b	.L3
.LVL13:
.L9:
	.loc 1 2576 9 is_stmt 1
	.loc 1 2576 40 is_stmt 0
	ldr	r3, [r1, #44]
	.loc 1 2576 55
	ldr	r7, [r1, #48]
	.loc 1 2576 50
	orrs	r3, r3, r7
	.loc 1 2576 79
	ldr	r7, [r1, #52]
	.loc 1 2576 74
	orrs	r3, r3, r7
	.loc 1 2576 95
	ldr	r7, [r1, #36]
	.loc 1 2576 90
	orrs	r3, r3, r7
	.loc 1 2576 112
	ldr	r7, [r1, #20]
	.loc 1 2576 106
	orr	r3, r3, r7, lsl #18
	.loc 1 2576 136
	orrs	r6, r6, r3
	.loc 1 2576 161
	orr	r3, r5, r6
	.loc 1 2576 180
	orrs	r3, r3, r4
	.loc 1 2576 208
	ldr	r1, [r1]
.LVL14:
	.loc 1 2576 203
	orrs	r3, r3, r1
	.loc 1 2576 16
	ldr	r1, [r0]
	.loc 1 2576 222
	orrs	r3, r3, r2
	.loc 1 2576 33
	str	r3, [r1, #20]
	b	.L3
.LVL15:
.L5:
	.loc 1 2585 5 is_stmt 1
	.loc 1 2585 12 is_stmt 0
	ldr	r5, [r1, #32]
	.loc 1 2585 8
	cmp	r5, #0
	beq	.L10
	.loc 1 2588 7 is_stmt 1
	.loc 1 2588 14 is_stmt 0
	ldr	r3, [r0]
	.loc 1 2588 37
	ldr	r4, [r1, #8]
	.loc 1 2588 31
	str	r4, [r3, #28]
	.loc 1 2590 7 is_stmt 1
	.loc 1 2590 14 is_stmt 0
	ldr	r4, [r1, #28]
	.loc 1 2590 10
	cbz	r4, .L11
	.loc 1 2594 9 is_stmt 1
	.loc 1 2594 40 is_stmt 0
	ldr	r3, [r1, #44]
	.loc 1 2594 55
	ldr	r5, [r1, #48]
	.loc 1 2594 50
	orrs	r3, r3, r5
	.loc 1 2594 79
	ldr	r5, [r1, #52]
	.loc 1 2594 74
	orrs	r3, r3, r5
	.loc 1 2594 95
	ldr	r5, [r1, #36]
	.loc 1 2594 90
	orrs	r3, r3, r5
	.loc 1 2594 112
	ldr	r5, [r1, #20]
	.loc 1 2594 106
	orr	r3, r3, r5, lsl #18
	.loc 1 2594 141
	ldr	r5, [r1, #16]
	.loc 1 2594 136
	orrs	r3, r3, r5
	.loc 1 2594 167
	ldr	r5, [r1, #32]
	.loc 1 2594 162
	orrs	r3, r3, r5
	.loc 1 2594 192
	ldr	r5, [r1, #12]
	.loc 1 2594 187
	orrs	r3, r3, r5
	.loc 1 2594 206
	orrs	r3, r3, r4
	.loc 1 2594 230
	ldr	r4, [r1, #24]
	.loc 1 2594 225
	orrs	r3, r3, r4
	.loc 1 2594 16
	ldr	r4, [r0]
	.loc 1 2594 248
	orrs	r3, r3, r2
	.loc 1 2594 33
	str	r3, [r4, #20]
	.loc 1 2600 9 is_stmt 1
	.loc 1 2600 12 is_stmt 0
	cmp	r2, #201326592
	beq	.L3
	.loc 1 2603 11 is_stmt 1
	.loc 1 2603 18 is_stmt 0
	ldr	r3, [r0]
	.loc 1 2603 40
	ldr	r2, [r1, #4]
.LVL16:
	.loc 1 2603 34
	str	r2, [r3, #24]
	b	.L3
.LVL17:
.L11:
	.loc 1 2610 9 is_stmt 1
	.loc 1 2610 40 is_stmt 0
	ldr	r3, [r1, #44]
	.loc 1 2610 55
	ldr	r5, [r1, #48]
	.loc 1 2610 50
	orrs	r3, r3, r5
	.loc 1 2610 79
	ldr	r5, [r1, #52]
	.loc 1 2610 74
	orrs	r3, r3, r5
	.loc 1 2610 95
	ldr	r5, [r1, #36]
	.loc 1 2610 90
	orrs	r3, r3, r5
	.loc 1 2610 112
	ldr	r5, [r1, #20]
	.loc 1 2610 106
	orr	r3, r3, r5, lsl #18
	.loc 1 2610 141
	ldr	r5, [r1, #16]
	.loc 1 2610 136
	orrs	r3, r3, r5
	.loc 1 2610 167
	ldr	r5, [r1, #32]
	.loc 1 2610 162
	orrs	r3, r3, r5
	.loc 1 2610 187
	orrs	r4, r4, r3
	.loc 1 2610 211
	ldr	r3, [r1, #24]
	.loc 1 2610 206
	orrs	r4, r4, r3
	.loc 1 2610 16
	ldr	r3, [r0]
	.loc 1 2610 229
	orrs	r4, r4, r2
	.loc 1 2610 33
	str	r4, [r3, #20]
	b	.L3
.L10:
	.loc 1 2618 7 is_stmt 1
	.loc 1 2618 14 is_stmt 0
	ldr	r6, [r1, #28]
	.loc 1 2618 10
	cbz	r6, .L12
	.loc 1 2622 9 is_stmt 1
	.loc 1 2622 40 is_stmt 0
	ldr	r3, [r1, #44]
	.loc 1 2622 55
	ldr	r7, [r1, #48]
	.loc 1 2622 50
	orrs	r3, r3, r7
	.loc 1 2622 79
	ldr	r7, [r1, #52]
	.loc 1 2622 74
	orrs	r3, r3, r7
	.loc 1 2622 95
	ldr	r7, [r1, #36]
	.loc 1 2622 90
	orrs	r3, r3, r7
	.loc 1 2622 112
	ldr	r7, [r1, #20]
	.loc 1 2622 106
	orr	r3, r3, r7, lsl #18
	.loc 1 2622 136
	orrs	r3, r3, r5
	.loc 1 2622 166
	ldr	r5, [r1, #12]
	.loc 1 2622 161
	orrs	r3, r3, r5
	.loc 1 2622 180
	orrs	r3, r3, r6
	.loc 1 2622 199
	orrs	r3, r3, r4
	.loc 1 2622 16
	ldr	r4, [r0]
	.loc 1 2622 222
	orrs	r3, r3, r2
	.loc 1 2622 33
	str	r3, [r4, #20]
	.loc 1 2627 9 is_stmt 1
	.loc 1 2627 12 is_stmt 0
	cmp	r2, #201326592
	beq	.L3
	.loc 1 2630 11 is_stmt 1
	.loc 1 2630 18 is_stmt 0
	ldr	r3, [r0]
	.loc 1 2630 40
	ldr	r2, [r1, #4]
.LVL18:
	.loc 1 2630 34
	str	r2, [r3, #24]
	b	.L3
.LVL19:
.L12:
	.loc 1 2636 9 is_stmt 1
	.loc 1 2636 16 is_stmt 0
	ldr	ip, [r1, #36]
	.loc 1 2636 12
	cmp	ip, #0
	beq	.L3
	.loc 1 2639 11 is_stmt 1
	.loc 1 2639 42 is_stmt 0
	ldr	r3, [r1, #44]
	.loc 1 2639 52
	ldr	r7, [r1, #48]
	orrs	r3, r3, r7
	.loc 1 2639 76
	ldr	r7, [r1, #52]
	orrs	r3, r3, r7
	.loc 1 2639 92
	orr	r7, ip, r3
	.loc 1 2639 114
	ldr	r3, [r1, #20]
	.loc 1 2639 108
	orr	r7, r7, r3, lsl #18
	.loc 1 2639 138
	orrs	r5, r5, r7
	.loc 1 2639 163
	orrs	r6, r6, r5
	.loc 1 2639 182
	orrs	r4, r4, r6
	.loc 1 2639 18
	ldr	r3, [r0]
	.loc 1 2639 205
	orrs	r4, r4, r2
	.loc 1 2639 35
	str	r4, [r3, #20]
	.loc 1 2647 1
	b	.L3
	.cfi_endproc
.LFE372:
	.size	QSPI_Config, .-QSPI_Config
	.section	.text.QSPI_WaitFlagStateUntilTimeout,"ax",%progbits
	.align	1
	.syntax unified
	.thumb
	.thumb_func
	.type	QSPI_WaitFlagStateUntilTimeout, %function
QSPI_WaitFlagStateUntilTimeout:
.LFB371:
	.loc 1 2480 1 is_stmt 1
	.cfi_startproc
	@ args = 4, pretend = 0, frame = 0
	@ frame_needed = 0, uses_anonymous_args = 0
.LVL20:
	push	{r3, r4, r5, r6, r7, r8, r9, lr}
	.cfi_def_cfa_offset 32
	.cfi_offset 3, -32
	.cfi_offset 4, -28
	.cfi_offset 5, -24
	.cfi_offset 6, -20
	.cfi_offset 7, -16
	.cfi_offset 8, -12
	.cfi_offset 9, -8
	.cfi_offset 14, -4
	mov	r5, r0
	mov	r7, r1
	mov	r6, r2
	mov	r9, r3
	ldr	r8, [sp, #32]
	.loc 1 2482 3
.LVL21:
.L16:
	.loc 1 2482 72
	.loc 1 2482 21 is_stmt 0
	ldr	r4, [r5]
	.loc 1 2482 31
	ldr	r4, [r4, #8]
	.loc 1 2482 62
	tst	r4, r7
	ite	ne
	movne	ip, #1
	moveq	ip, #0
	.loc 1 2482 72
	cmp	ip, r6
	beq	.L21
	.loc 1 2485 5 is_stmt 1
	.loc 1 2485 8 is_stmt 0
	cmp	r8, #-1
	beq	.L16
	.loc 1 2487 7 is_stmt 1
	.loc 1 2487 12 is_stmt 0
	bl	HAL_GetTick
.LVL22:
	.loc 1 2487 26
	sub	r0, r0, r9
	.loc 1 2487 9
	cmp	r0, r8
	bhi	.L17
	.loc 1 2487 50 discriminator 1
	cmp	r8, #0
	bne	.L16
.L17:
	.loc 1 2489 9 is_stmt 1
	.loc 1 2489 22 is_stmt 0
	movs	r3, #4
	strb	r3, [r5, #65]
	.loc 1 2490 9 is_stmt 1
	.loc 1 2490 14 is_stmt 0
	ldr	r3, [r5, #68]
	.loc 1 2490 26
	orr	r3, r3, #1
	str	r3, [r5, #68]
	.loc 1 2492 9 is_stmt 1
	.loc 1 2492 16 is_stmt 0
	movs	r0, #1
	b	.L18
.L21:
	.loc 1 2496 10
	movs	r0, #0
.L18:
	.loc 1 2497 1
	pop	{r3, r4, r5, r6, r7, r8, r9, pc}
	.cfi_endproc
.LFE371:
	.size	QSPI_WaitFlagStateUntilTimeout, .-QSPI_WaitFlagStateUntilTimeout
	.section	.text.HAL_QSPI_MspInit,"ax",%progbits
	.align	1
	.weak	HAL_QSPI_MspInit
	.syntax unified
	.thumb
	.thumb_func
	.type	HAL_QSPI_MspInit, %function
HAL_QSPI_MspInit:
.LFB337:
	.loc 1 439 1 is_stmt 1
	.cfi_startproc
	@ args = 0, pretend = 0, frame = 0
	@ frame_needed = 0, uses_anonymous_args = 0
	@ link register save eliminated.
.LVL23:
	.loc 1 441 3
	.loc 1 446 1 is_stmt 0
	bx	lr
	.cfi_endproc
.LFE337:
	.size	HAL_QSPI_MspInit, .-HAL_QSPI_MspInit
	.section	.text.HAL_QSPI_MspDeInit,"ax",%progbits
	.align	1
	.weak	HAL_QSPI_MspDeInit
	.syntax unified
	.thumb
	.thumb_func
	.type	HAL_QSPI_MspDeInit, %function
HAL_QSPI_MspDeInit:
.LFB338:
	.loc 1 454 1 is_stmt 1
	.cfi_startproc
	@ args = 0, pretend = 0, frame = 0
	@ frame_needed = 0, uses_anonymous_args = 0
	@ link register save eliminated.
.LVL24:
	.loc 1 456 3
	.loc 1 461 1 is_stmt 0
	bx	lr
	.cfi_endproc
.LFE338:
	.size	HAL_QSPI_MspDeInit, .-HAL_QSPI_MspDeInit
	.section	.text.HAL_QSPI_DeInit,"ax",%progbits
	.align	1
	.global	HAL_QSPI_DeInit
	.syntax unified
	.thumb
	.thumb_func
	.type	HAL_QSPI_DeInit, %function
HAL_QSPI_DeInit:
.LFB336:
	.loc 1 401 1 is_stmt 1
	.cfi_startproc
	@ args = 0, pretend = 0, frame = 0
	@ frame_needed = 0, uses_anonymous_args = 0
.LVL25:
	.loc 1 403 3
	.loc 1 403 5 is_stmt 0
	cbz	r0, .L26
	.loc 1 401 1
	push	{r4, lr}
	.cfi_def_cfa_offset 8
	.cfi_offset 4, -8
	.cfi_offset 14, -4
	mov	r4, r0
	.loc 1 409 3 is_stmt 1
	.loc 1 409 12 is_stmt 0
	ldr	r2, [r0]
	.loc 1 409 22
	ldr	r3, [r2]
	.loc 1 409 28
	bic	r3, r3, #1
	str	r3, [r2]
	.loc 1 421 3 is_stmt 1
	bl	HAL_QSPI_MspDeInit
.LVL26:
	.loc 1 425 3
	.loc 1 425 20 is_stmt 0
	movs	r0, #0
	str	r0, [r4, #68]
	.loc 1 428 3 is_stmt 1
	.loc 1 428 16 is_stmt 0
	strb	r0, [r4, #65]
	.loc 1 430 3 is_stmt 1
	.loc 1 431 1 is_stmt 0
	pop	{r4, pc}
.LVL27:
.L26:
	.cfi_def_cfa_offset 0
	.cfi_restore 4
	.cfi_restore 14
	.loc 1 405 12
	movs	r0, #1
.LVL28:
	.loc 1 431 1
	bx	lr
	.cfi_endproc
.LFE336:
	.size	HAL_QSPI_DeInit, .-HAL_QSPI_DeInit
	.section	.text.HAL_QSPI_Command,"ax",%progbits
	.align	1
	.global	HAL_QSPI_Command
	.syntax unified
	.thumb
	.thumb_func
	.type	HAL_QSPI_Command, %function
HAL_QSPI_Command:
.LFB340:
	.loc 1 785 1 is_stmt 1
	.cfi_startproc
	@ args = 0, pretend = 0, frame = 0
	@ frame_needed = 0, uses_anonymous_args = 0
.LVL29:
	push	{r4, r5, r6, r7, r8, lr}
	.cfi_def_cfa_offset 24
	.cfi_offset 4, -24
	.cfi_offset 5, -20
	.cfi_offset 6, -16
	.cfi_offset 7, -12
	.cfi_offset 8, -8
	.cfi_offset 14, -4
	sub	sp, sp, #8
	.cfi_def_cfa_offset 32
	mov	r4, r0
	mov	r7, r1
	mov	r6, r2
	.loc 1 786 3
	.loc 1 787 3
	.loc 1 787 24 is_stmt 0
	bl	HAL_GetTick
.LVL30:
	.loc 1 790 3 is_stmt 1
	.loc 1 791 3
	.loc 1 793 5
	.loc 1 796 3
	.loc 1 797 3
	.loc 1 799 5
	.loc 1 802 3
	.loc 1 803 3
	.loc 1 805 5
	.loc 1 808 3
	.loc 1 809 3
	.loc 1 811 3
	.loc 1 812 3
	.loc 1 813 3
	.loc 1 816 3
	.loc 1 816 7
	.loc 1 816 17 is_stmt 0
	ldrb	ip, [r4, #64]	@ zero_extendqisi2
	uxtb	ip, ip
	.loc 1 816 9
	cmp	ip, #1
	beq	.L35
	mov	r5, r0
	.loc 1 816 67 is_stmt 1 discriminator 2
	.loc 1 816 81 is_stmt 0 discriminator 2
	movs	r3, #1
	strb	r3, [r4, #64]
	.loc 1 816 5 is_stmt 1 discriminator 2
	.loc 1 818 3 discriminator 2
	.loc 1 818 11 is_stmt 0 discriminator 2
	ldrb	ip, [r4, #65]	@ zero_extendqisi2
	uxtb	ip, ip
	.loc 1 818 5 discriminator 2
	cmp	ip, r3
	beq	.L38
	.loc 1 856 12
	mov	r8, #2
.LVL31:
.L33:
	.loc 1 860 3 is_stmt 1
	.loc 1 860 7
	.loc 1 860 21 is_stmt 0
	movs	r3, #0
	strb	r3, [r4, #64]
	.loc 1 860 5 is_stmt 1
	.loc 1 863 3
.LVL32:
.L32:
	.loc 1 864 1 is_stmt 0
	mov	r0, r8
	add	sp, sp, #8
	.cfi_remember_state
	.cfi_def_cfa_offset 24
	@ sp needed
	pop	{r4, r5, r6, r7, r8, pc}
.LVL33:
.L38:
	.cfi_restore_state
	.loc 1 820 5 is_stmt 1
	.loc 1 820 22 is_stmt 0
	movs	r2, #0
	str	r2, [r4, #68]
	.loc 1 823 5 is_stmt 1
	.loc 1 823 18 is_stmt 0
	movs	r3, #2
	strb	r3, [r4, #65]
	.loc 1 826 5 is_stmt 1
	.loc 1 826 14 is_stmt 0
	str	r6, [sp]
	mov	r3, r0
	movs	r1, #32
	mov	r0, r4
.LVL34:
	bl	QSPI_WaitFlagStateUntilTimeout
.LVL35:
	.loc 1 828 5 is_stmt 1
	.loc 1 828 8 is_stmt 0
	mov	r8, r0
	cmp	r0, #0
	bne	.L33
	.loc 1 831 7 is_stmt 1
	movs	r2, #0
	mov	r1, r7
	mov	r0, r4
.LVL36:
	bl	QSPI_Config
.LVL37:
	.loc 1 833 7
	.loc 1 833 14 is_stmt 0
	ldr	r3, [r7, #36]
	.loc 1 833 10
	cbz	r3, .L39
	.loc 1 850 9 is_stmt 1
	.loc 1 850 22 is_stmt 0
	movs	r3, #1
	strb	r3, [r4, #65]
	b	.L33
.L39:
	.loc 1 837 9 is_stmt 1
	.loc 1 837 18 is_stmt 0
	str	r6, [sp]
	mov	r3, r5
	movs	r2, #1
	movs	r1, #2
	mov	r0, r4
	bl	QSPI_WaitFlagStateUntilTimeout
.LVL38:
	.loc 1 839 9 is_stmt 1
	.loc 1 839 12 is_stmt 0
	mov	r8, r0
	cmp	r0, #0
	bne	.L33
	.loc 1 841 11 is_stmt 1
	.loc 1 841 20 is_stmt 0
	ldr	r3, [r4]
	.loc 1 841 37
	movs	r2, #2
	str	r2, [r3, #12]
	.loc 1 844 11 is_stmt 1
	.loc 1 844 24 is_stmt 0
	movs	r3, #1
	strb	r3, [r4, #65]
	b	.L33
.LVL39:
.L35:
	.loc 1 816 48
	mov	r8, #2
	b	.L32
	.cfi_endproc
.LFE340:
	.size	HAL_QSPI_Command, .-HAL_QSPI_Command
	.section	.text.HAL_QSPI_Command_IT,"ax",%progbits
	.align	1
	.global	HAL_QSPI_Command_IT
	.syntax unified
	.thumb
	.thumb_func
	.type	HAL_QSPI_Command_IT, %function
HAL_QSPI_Command_IT:
.LFB341:
	.loc 1 874 1 is_stmt 1
	.cfi_startproc
	@ args = 0, pretend = 0, frame = 0
	@ frame_needed = 0, uses_anonymous_args = 0
.LVL40:
	push	{r4, r5, r6, lr}
	.cfi_def_cfa_offset 16
	.cfi_offset 4, -16
	.cfi_offset 5, -12
	.cfi_offset 6, -8
	.cfi_offset 14, -4
	sub	sp, sp, #8
	.cfi_def_cfa_offset 24
	mov	r4, r0
	mov	r5, r1
	.loc 1 875 3
	.loc 1 876 3
	.loc 1 876 24 is_stmt 0
	bl	HAL_GetTick
.LVL41:
	.loc 1 879 3 is_stmt 1
	.loc 1 880 3
	.loc 1 882 5
	.loc 1 885 3
	.loc 1 886 3
	.loc 1 888 5
	.loc 1 891 3
	.loc 1 892 3
	.loc 1 894 5
	.loc 1 897 3
	.loc 1 898 3
	.loc 1 900 3
	.loc 1 901 3
	.loc 1 902 3
	.loc 1 905 3
	.loc 1 905 7
	.loc 1 905 17 is_stmt 0
	ldrb	r2, [r4, #64]	@ zero_extendqisi2
	uxtb	r2, r2
	.loc 1 905 9
	cmp	r2, #1
	beq	.L46
	.loc 1 905 67 is_stmt 1 discriminator 2
	.loc 1 905 81 is_stmt 0 discriminator 2
	movs	r3, #1
	strb	r3, [r4, #64]
	.loc 1 905 5 is_stmt 1 discriminator 2
	.loc 1 907 3 discriminator 2
	.loc 1 907 11 is_stmt 0 discriminator 2
	ldrb	r2, [r4, #65]	@ zero_extendqisi2
	uxtb	r2, r2
	.loc 1 907 5 discriminator 2
	cmp	r2, r3
	beq	.L48
	.loc 1 955 5 is_stmt 1
.LVL42:
	.loc 1 958 5
	.loc 1 958 9
	.loc 1 958 23 is_stmt 0
	movs	r3, #0
	strb	r3, [r4, #64]
	.loc 1 955 12
	movs	r6, #2
.LVL43:
.L41:
	.loc 1 963 1
	mov	r0, r6
	add	sp, sp, #8
	.cfi_remember_state
	.cfi_def_cfa_offset 16
	@ sp needed
	pop	{r4, r5, r6, pc}
.LVL44:
.L48:
	.cfi_restore_state
	.loc 1 909 5 is_stmt 1
	.loc 1 909 22 is_stmt 0
	movs	r2, #0
	str	r2, [r4, #68]
	.loc 1 912 5 is_stmt 1
	.loc 1 912 18 is_stmt 0
	movs	r3, #2
	strb	r3, [r4, #65]
	.loc 1 915 5 is_stmt 1
	.loc 1 915 14 is_stmt 0
	ldr	r3, [r4, #72]
	str	r3, [sp]
	mov	r3, r0
	movs	r1, #32
	mov	r0, r4
.LVL45:
	bl	QSPI_WaitFlagStateUntilTimeout
.LVL46:
	.loc 1 917 5 is_stmt 1
	.loc 1 917 8 is_stmt 0
	mov	r6, r0
	cbnz	r0, .L43
	.loc 1 919 7 is_stmt 1
	.loc 1 919 14 is_stmt 0
	ldr	r3, [r5, #36]
	.loc 1 919 10
	cbnz	r3, .L44
	.loc 1 922 9 is_stmt 1
	.loc 1 922 18 is_stmt 0
	ldr	r3, [r4]
	.loc 1 922 35
	movs	r2, #3
	str	r2, [r3, #12]
.L44:
	.loc 1 926 7 is_stmt 1
	movs	r2, #0
	mov	r1, r5
	mov	r0, r4
.LVL47:
	bl	QSPI_Config
.LVL48:
	.loc 1 928 7
	.loc 1 928 14 is_stmt 0
	ldr	r3, [r5, #36]
	.loc 1 928 10
	cbnz	r3, .L45
	.loc 1 933 9 is_stmt 1
	.loc 1 933 13
	.loc 1 933 27 is_stmt 0
	strb	r3, [r4, #64]
	.loc 1 933 11 is_stmt 1
	.loc 1 936 9
	.loc 1 936 18 is_stmt 0
	ldr	r2, [r4]
	.loc 1 936 28
	ldr	r3, [r2]
	.loc 1 936 34
	orr	r3, r3, #196608
	str	r3, [r2]
	b	.L41
.L45:
	.loc 1 941 9 is_stmt 1
	.loc 1 941 22 is_stmt 0
	movs	r3, #1
	strb	r3, [r4, #65]
	.loc 1 944 9 is_stmt 1
	.loc 1 944 13
	.loc 1 944 27 is_stmt 0
	movs	r3, #0
	strb	r3, [r4, #64]
	b	.L41
.LVL49:
.L43:
	.loc 1 950 7 is_stmt 1 discriminator 1
	.loc 1 950 11 discriminator 1
	.loc 1 950 25 is_stmt 0 discriminator 1
	movs	r3, #0
	strb	r3, [r4, #64]
	b	.L41
.LVL50:
.L46:
	.loc 1 905 48
	movs	r6, #2
	b	.L41
	.cfi_endproc
.LFE341:
	.size	HAL_QSPI_Command_IT, .-HAL_QSPI_Command_IT
	.section	.text.HAL_QSPI_Transmit,"ax",%progbits
	.align	1
	.global	HAL_QSPI_Transmit
	.syntax unified
	.thumb
	.thumb_func
	.type	HAL_QSPI_Transmit, %function
HAL_QSPI_Transmit:
.LFB342:
	.loc 1 974 1 is_stmt 1
	.cfi_startproc
	@ args = 0, pretend = 0, frame = 0
	@ frame_needed = 0, uses_anonymous_args = 0
.LVL51:
	push	{r4, r5, r6, r7, r8, r9, lr}
	.cfi_def_cfa_offset 28
	.cfi_offset 4, -28
	.cfi_offset 5, -24
	.cfi_offset 6, -20
	.cfi_offset 7, -16
	.cfi_offset 8, -12
	.cfi_offset 9, -8
	.cfi_offset 14, -4
	sub	sp, sp, #12
	.cfi_def_cfa_offset 40
	mov	r4, r0
	mov	r9, r1
	mov	r7, r2
	.loc 1 975 3
.LVL52:
	.loc 1 976 3
	.loc 1 976 24 is_stmt 0
	bl	HAL_GetTick
.LVL53:
	.loc 1 977 3 is_stmt 1
	.loc 1 977 39 is_stmt 0
	ldr	r8, [r4]
.LVL54:
	.loc 1 980 3 is_stmt 1
	.loc 1 980 7
	.loc 1 980 17 is_stmt 0
	ldrb	r3, [r4, #64]	@ zero_extendqisi2
	uxtb	r3, r3
	.loc 1 980 9
	cmp	r3, #1
	beq	.L57
	mov	r6, r0
	.loc 1 980 67 is_stmt 1 discriminator 2
	.loc 1 980 81 is_stmt 0 discriminator 2
	movs	r3, #1
	strb	r3, [r4, #64]
	.loc 1 980 5 is_stmt 1 discriminator 2
	.loc 1 982 3 discriminator 2
	.loc 1 982 11 is_stmt 0 discriminator 2
	ldrb	r5, [r4, #65]	@ zero_extendqisi2
	uxtb	r5, r5
	.loc 1 982 5 discriminator 2
	cmp	r5, r3
	beq	.L60
	.loc 1 1038 12
	movs	r5, #2
.LVL55:
.L51:
	.loc 1 1042 3 is_stmt 1
	.loc 1 1042 7
	.loc 1 1042 21 is_stmt 0
	movs	r3, #0
	strb	r3, [r4, #64]
	.loc 1 1042 5 is_stmt 1
	.loc 1 1044 3
.LVL56:
.L50:
	.loc 1 1045 1 is_stmt 0
	mov	r0, r5
	add	sp, sp, #12
	.cfi_remember_state
	.cfi_def_cfa_offset 28
	@ sp needed
	pop	{r4, r5, r6, r7, r8, r9, pc}
.LVL57:
.L60:
	.cfi_restore_state
	.loc 1 984 5 is_stmt 1
	.loc 1 984 22 is_stmt 0
	movs	r3, #0
	str	r3, [r4, #68]
	.loc 1 986 5 is_stmt 1
	.loc 1 986 7 is_stmt 0
	cmp	r9, #0
	beq	.L52
	.loc 1 989 7 is_stmt 1
	.loc 1 989 20 is_stmt 0
	movs	r3, #18
	strb	r3, [r4, #65]
	.loc 1 992 7 is_stmt 1
	.loc 1 992 45 is_stmt 0
	ldr	r3, [r8, #16]
	.loc 1 992 53
	adds	r3, r3, #1
	.loc 1 992 26
	str	r3, [r4, #44]
	.loc 1 993 7 is_stmt 1
	.loc 1 993 44 is_stmt 0
	ldr	r3, [r8, #16]
	.loc 1 993 52
	adds	r3, r3, #1
	.loc 1 993 25
	str	r3, [r4, #40]
	.loc 1 994 7 is_stmt 1
	.loc 1 994 25 is_stmt 0
	str	r9, [r4, #36]
	.loc 1 997 7 is_stmt 1
	.loc 1 997 56 is_stmt 0
	ldr	r3, [r8, #20]
	.loc 1 997 90
	bic	r3, r3, #201326592
	.loc 1 997 33
	str	r3, [r8, #20]
	.loc 1 999 7 is_stmt 1
	.loc 1 975 21 is_stmt 0
	movs	r5, #0
.LVL58:
.L53:
	.loc 1 999 32 is_stmt 1
	.loc 1 999 18 is_stmt 0
	ldr	r3, [r4, #44]
	.loc 1 999 32
	cbz	r3, .L54
	.loc 1 1002 9 is_stmt 1
	.loc 1 1002 18 is_stmt 0
	str	r7, [sp]
	mov	r3, r6
	movs	r2, #1
	movs	r1, #4
	mov	r0, r4
	bl	QSPI_WaitFlagStateUntilTimeout
.LVL59:
	.loc 1 1004 9 is_stmt 1
	.loc 1 1004 12 is_stmt 0
	mov	r5, r0
	cbnz	r0, .L54
	.loc 1 1009 9 is_stmt 1
	.loc 1 1009 49 is_stmt 0
	ldr	r3, [r4, #36]
	.loc 1 1009 43
	ldrb	r3, [r3]	@ zero_extendqisi2
	.loc 1 1009 41
	strb	r3, [r8, #32]
	.loc 1 1010 9 is_stmt 1
	.loc 1 1010 14 is_stmt 0
	ldr	r1, [r4, #36]
	.loc 1 1010 26
	adds	r1, r1, #1
	str	r1, [r4, #36]
	.loc 1 1011 9 is_stmt 1
	.loc 1 1011 14 is_stmt 0
	ldr	r1, [r4, #44]
	.loc 1 1011 27
	subs	r1, r1, #1
	str	r1, [r4, #44]
	b	.L53
.LVL60:
.L54:
	.loc 1 1014 7 is_stmt 1
	.loc 1 1014 10 is_stmt 0
	cbz	r5, .L61
.LVL61:
.L56:
	.loc 1 1028 7 is_stmt 1
	.loc 1 1028 20 is_stmt 0
	movs	r3, #1
	strb	r3, [r4, #65]
	b	.L51
.L61:
	.loc 1 1017 9 is_stmt 1
	.loc 1 1017 18 is_stmt 0
	str	r7, [sp]
	mov	r3, r6
	movs	r2, #1
	movs	r1, #2
	mov	r0, r4
	bl	QSPI_WaitFlagStateUntilTimeout
.LVL62:
	.loc 1 1019 9 is_stmt 1
	.loc 1 1019 12 is_stmt 0
	mov	r5, r0
	cmp	r0, #0
	bne	.L56
	.loc 1 1022 11 is_stmt 1
	.loc 1 1022 20 is_stmt 0
	ldr	r3, [r4]
	.loc 1 1022 37
	movs	r2, #2
	str	r2, [r3, #12]
	b	.L56
.LVL63:
.L52:
	.loc 1 1032 7 is_stmt 1
	.loc 1 1032 12 is_stmt 0
	ldr	r3, [r4, #68]
	.loc 1 1032 24
	orr	r3, r3, #8
	str	r3, [r4, #68]
	.loc 1 1033 7 is_stmt 1
.LVL64:
	b	.L51
.LVL65:
.L57:
	.loc 1 980 48 is_stmt 0
	movs	r5, #2
	b	.L50
	.cfi_endproc
.LFE342:
	.size	HAL_QSPI_Transmit, .-HAL_QSPI_Transmit
	.section	.text.HAL_QSPI_Receive,"ax",%progbits
	.align	1
	.global	HAL_QSPI_Receive
	.syntax unified
	.thumb
	.thumb_func
	.type	HAL_QSPI_Receive, %function
HAL_QSPI_Receive:
.LFB343:
	.loc 1 1057 1 is_stmt 1
	.cfi_startproc
	@ args = 0, pretend = 0, frame = 0
	@ frame_needed = 0, uses_anonymous_args = 0
.LVL66:
	push	{r4, r5, r6, r7, r8, r9, lr}
	.cfi_def_cfa_offset 28
	.cfi_offset 4, -28
	.cfi_offset 5, -24
	.cfi_offset 6, -20
	.cfi_offset 7, -16
	.cfi_offset 8, -12
	.cfi_offset 9, -8
	.cfi_offset 14, -4
	sub	sp, sp, #12
	.cfi_def_cfa_offset 40
	mov	r4, r0
	mov	r9, r1
	mov	r7, r2
	.loc 1 1058 3
.LVL67:
	.loc 1 1059 3
	.loc 1 1059 24 is_stmt 0
	bl	HAL_GetTick
.LVL68:
	.loc 1 1060 3 is_stmt 1
	.loc 1 1060 30 is_stmt 0
	ldr	r8, [r4]
	.loc 1 1060 12
	ldr	r2, [r8, #24]
.LVL69:
	.loc 1 1061 3 is_stmt 1
	.loc 1 1064 3
	.loc 1 1064 7
	.loc 1 1064 17 is_stmt 0
	ldrb	r3, [r4, #64]	@ zero_extendqisi2
	uxtb	r3, r3
	.loc 1 1064 9
	cmp	r3, #1
	beq	.L70
	mov	r6, r0
	.loc 1 1064 67 is_stmt 1 discriminator 2
	.loc 1 1064 81 is_stmt 0 discriminator 2
	movs	r3, #1
	strb	r3, [r4, #64]
	.loc 1 1064 5 is_stmt 1 discriminator 2
	.loc 1 1066 3 discriminator 2
	.loc 1 1066 11 is_stmt 0 discriminator 2
	ldrb	r5, [r4, #65]	@ zero_extendqisi2
	uxtb	r5, r5
	.loc 1 1066 5 discriminator 2
	cmp	r5, r3
	beq	.L73
	.loc 1 1125 12
	movs	r5, #2
.LVL70:
.L64:
	.loc 1 1129 3 is_stmt 1
	.loc 1 1129 7
	.loc 1 1129 21 is_stmt 0
	movs	r3, #0
	strb	r3, [r4, #64]
	.loc 1 1129 5 is_stmt 1
	.loc 1 1131 3
.LVL71:
.L63:
	.loc 1 1132 1 is_stmt 0
	mov	r0, r5
	add	sp, sp, #12
	.cfi_remember_state
	.cfi_def_cfa_offset 28
	@ sp needed
	pop	{r4, r5, r6, r7, r8, r9, pc}
.LVL72:
.L73:
	.cfi_restore_state
	.loc 1 1068 5 is_stmt 1
	.loc 1 1068 22 is_stmt 0
	movs	r3, #0
	str	r3, [r4, #68]
	.loc 1 1070 5 is_stmt 1
	.loc 1 1070 7 is_stmt 0
	cmp	r9, #0
	beq	.L65
	.loc 1 1073 7 is_stmt 1
	.loc 1 1073 20 is_stmt 0
	movs	r3, #34
	strb	r3, [r4, #65]
	.loc 1 1076 7 is_stmt 1
	.loc 1 1076 45 is_stmt 0
	ldr	r3, [r8, #16]
	.loc 1 1076 53
	adds	r3, r3, #1
	.loc 1 1076 26
	str	r3, [r4, #56]
	.loc 1 1077 7 is_stmt 1
	.loc 1 1077 44 is_stmt 0
	ldr	r3, [r8, #16]
	.loc 1 1077 52
	adds	r3, r3, #1
	.loc 1 1077 25
	str	r3, [r4, #52]
	.loc 1 1078 7 is_stmt 1
	.loc 1 1078 25 is_stmt 0
	str	r9, [r4, #48]
	.loc 1 1081 7 is_stmt 1
	.loc 1 1081 56 is_stmt 0
	ldr	r3, [r8, #20]
	.loc 1 1081 65
	bic	r3, r3, #201326592
	.loc 1 1081 90
	orr	r3, r3, #67108864
	.loc 1 1081 33
	str	r3, [r8, #20]
	.loc 1 1084 7 is_stmt 1
	.loc 1 1084 14 is_stmt 0
	ldr	r3, [r4]
	.loc 1 1084 30
	str	r2, [r3, #24]
	.loc 1 1086 7 is_stmt 1
	.loc 1 1058 21 is_stmt 0
	movs	r5, #0
.LVL73:
.L66:
	.loc 1 1086 32 is_stmt 1
	.loc 1 1086 18 is_stmt 0
	ldr	r3, [r4, #56]
	.loc 1 1086 32
	cbz	r3, .L67
	.loc 1 1089 9 is_stmt 1
	.loc 1 1089 18 is_stmt 0
	str	r7, [sp]
	mov	r3, r6
	movs	r2, #1
	movs	r1, #6
	mov	r0, r4
	bl	QSPI_WaitFlagStateUntilTimeout
.LVL74:
	.loc 1 1091 9 is_stmt 1
	.loc 1 1091 12 is_stmt 0
	mov	r5, r0
	cbnz	r0, .L67
	.loc 1 1096 9 is_stmt 1
	.loc 1 1096 15 is_stmt 0
	ldr	r3, [r4, #48]
	.loc 1 1096 30
	ldrb	r2, [r8, #32]	@ zero_extendqisi2
	.loc 1 1096 28
	strb	r2, [r3]
	.loc 1 1097 9 is_stmt 1
	.loc 1 1097 14 is_stmt 0
	ldr	r1, [r4, #48]
	.loc 1 1097 26
	adds	r1, r1, #1
	str	r1, [r4, #48]
	.loc 1 1098 9 is_stmt 1
	.loc 1 1098 14 is_stmt 0
	ldr	r1, [r4, #56]
	.loc 1 1098 27
	subs	r1, r1, #1
	str	r1, [r4, #56]
	b	.L66
.LVL75:
.L67:
	.loc 1 1101 7 is_stmt 1
	.loc 1 1101 10 is_stmt 0
	cbz	r5, .L74
.LVL76:
.L69:
	.loc 1 1115 7 is_stmt 1
	.loc 1 1115 20 is_stmt 0
	movs	r3, #1
	strb	r3, [r4, #65]
	b	.L64
.L74:
	.loc 1 1104 9 is_stmt 1
	.loc 1 1104 18 is_stmt 0
	str	r7, [sp]
	mov	r3, r6
	movs	r2, #1
	movs	r1, #2
	mov	r0, r4
	bl	QSPI_WaitFlagStateUntilTimeout
.LVL77:
	.loc 1 1106 9 is_stmt 1
	.loc 1 1106 12 is_stmt 0
	mov	r5, r0
	cmp	r0, #0
	bne	.L69
	.loc 1 1109 11 is_stmt 1
	.loc 1 1109 20 is_stmt 0
	ldr	r3, [r4]
	.loc 1 1109 37
	movs	r2, #2
	str	r2, [r3, #12]
	b	.L69
.LVL78:
.L65:
	.loc 1 1119 7 is_stmt 1
	.loc 1 1119 12 is_stmt 0
	ldr	r3, [r4, #68]
	.loc 1 1119 24
	orr	r3, r3, #8
	str	r3, [r4, #68]
	.loc 1 1120 7 is_stmt 1
.LVL79:
	b	.L64
.LVL80:
.L70:
	.loc 1 1064 48 is_stmt 0
	movs	r5, #2
	b	.L63
	.cfi_endproc
.LFE343:
	.size	HAL_QSPI_Receive, .-HAL_QSPI_Receive
	.section	.text.HAL_QSPI_Transmit_IT,"ax",%progbits
	.align	1
	.global	HAL_QSPI_Transmit_IT
	.syntax unified
	.thumb
	.thumb_func
	.type	HAL_QSPI_Transmit_IT, %function
HAL_QSPI_Transmit_IT:
.LFB344:
	.loc 1 1142 1 is_stmt 1
	.cfi_startproc
	@ args = 0, pretend = 0, frame = 0
	@ frame_needed = 0, uses_anonymous_args = 0
	@ link register save eliminated.
.LVL81:
	mov	r3, r0
	.loc 1 1143 3
.LVL82:
	.loc 1 1146 3
	.loc 1 1146 7
	.loc 1 1146 17 is_stmt 0
	ldrb	r2, [r0, #64]	@ zero_extendqisi2
	uxtb	r2, r2
	.loc 1 1146 9
	cmp	r2, #1
	beq	.L79
	.loc 1 1146 67 is_stmt 1 discriminator 2
	.loc 1 1146 81 is_stmt 0 discriminator 2
	movs	r2, #1
	strb	r2, [r0, #64]
	.loc 1 1146 5 is_stmt 1 discriminator 2
	.loc 1 1148 3 discriminator 2
	.loc 1 1148 11 is_stmt 0 discriminator 2
	ldrb	r0, [r0, #65]	@ zero_extendqisi2
.LVL83:
	uxtb	r0, r0
	.loc 1 1148 5 discriminator 2
	cmp	r0, r2
	beq	.L80
	.loc 1 1185 5 is_stmt 1
.LVL84:
	.loc 1 1188 5
	.loc 1 1188 9
	.loc 1 1188 23 is_stmt 0
	movs	r2, #0
	strb	r2, [r3, #64]
	.loc 1 1185 12
	movs	r0, #2
	bx	lr
.LVL85:
.L80:
	.loc 1 1150 5 is_stmt 1
	.loc 1 1150 22 is_stmt 0
	movs	r2, #0
	str	r2, [r3, #68]
	.loc 1 1152 5 is_stmt 1
	.loc 1 1152 7 is_stmt 0
	cbz	r1, .L78
	.loc 1 1155 7 is_stmt 1
	.loc 1 1155 20 is_stmt 0
	movs	r2, #18
	strb	r2, [r3, #65]
	.loc 1 1158 7 is_stmt 1
	.loc 1 1158 35 is_stmt 0
	ldr	r2, [r3]
	.loc 1 1158 45
	ldr	r0, [r2, #16]
	.loc 1 1158 53
	adds	r0, r0, #1
	.loc 1 1158 26
	str	r0, [r3, #44]
	.loc 1 1159 7 is_stmt 1
	.loc 1 1159 44 is_stmt 0
	ldr	r0, [r2, #16]
	.loc 1 1159 52
	adds	r0, r0, #1
	.loc 1 1159 25
	str	r0, [r3, #40]
	.loc 1 1160 7 is_stmt 1
	.loc 1 1160 25 is_stmt 0
	str	r1, [r3, #36]
	.loc 1 1163 7 is_stmt 1
	.loc 1 1163 33 is_stmt 0
	movs	r1, #3
.LVL86:
	str	r1, [r2, #12]
.LVL87:
	.loc 1 1166 7 is_stmt 1
	.loc 1 1166 46 is_stmt 0
	ldr	r1, [r3]
	.loc 1 1166 56
	ldr	r2, [r1, #20]
	.loc 1 1166 90
	bic	r2, r2, #201326592
	.loc 1 1166 33
	str	r2, [r1, #20]
	.loc 1 1169 7 is_stmt 1
	.loc 1 1169 11
	.loc 1 1169 25 is_stmt 0
	movs	r0, #0
	strb	r0, [r3, #64]
	.loc 1 1169 9 is_stmt 1
	.loc 1 1172 7
	.loc 1 1172 16 is_stmt 0
	ldr	r2, [r3]
	.loc 1 1172 26
	ldr	r3, [r2]
.LVL88:
	.loc 1 1172 32
	orr	r3, r3, #458752
	str	r3, [r2]
	bx	lr
.LVL89:
.L78:
	.loc 1 1176 7 is_stmt 1
	.loc 1 1176 12 is_stmt 0
	ldr	r2, [r3, #68]
	.loc 1 1176 24
	orr	r2, r2, #8
	str	r2, [r3, #68]
	.loc 1 1177 7 is_stmt 1
.LVL90:
	.loc 1 1180 7
	.loc 1 1180 11
	.loc 1 1180 25 is_stmt 0
	movs	r2, #0
	strb	r2, [r3, #64]
	bx	lr
.LVL91:
.L79:
	.loc 1 1146 48
	movs	r0, #2
.LVL92:
	.loc 1 1192 1
	bx	lr
	.cfi_endproc
.LFE344:
	.size	HAL_QSPI_Transmit_IT, .-HAL_QSPI_Transmit_IT
	.section	.text.HAL_QSPI_Receive_IT,"ax",%progbits
	.align	1
	.global	HAL_QSPI_Receive_IT
	.syntax unified
	.thumb
	.thumb_func
	.type	HAL_QSPI_Receive_IT, %function
HAL_QSPI_Receive_IT:
.LFB345:
	.loc 1 1202 1 is_stmt 1
	.cfi_startproc
	@ args = 0, pretend = 0, frame = 0
	@ frame_needed = 0, uses_anonymous_args = 0
	@ link register save eliminated.
.LVL93:
	push	{r4, r5}
	.cfi_def_cfa_offset 8
	.cfi_offset 4, -8
	.cfi_offset 5, -4
	.loc 1 1203 3
.LVL94:
	.loc 1 1204 3
	.loc 1 1204 30 is_stmt 0
	ldr	r4, [r0]
	.loc 1 1204 12
	ldr	r5, [r4, #24]
.LVL95:
	.loc 1 1207 3 is_stmt 1
	.loc 1 1207 7
	.loc 1 1207 17 is_stmt 0
	ldrb	r2, [r0, #64]	@ zero_extendqisi2
	uxtb	r2, r2
	.loc 1 1207 9
	cmp	r2, #1
	beq	.L85
	mov	r3, r0
	.loc 1 1207 67 is_stmt 1 discriminator 2
	.loc 1 1207 81 is_stmt 0 discriminator 2
	movs	r2, #1
	strb	r2, [r0, #64]
	.loc 1 1207 5 is_stmt 1 discriminator 2
	.loc 1 1209 3 discriminator 2
	.loc 1 1209 11 is_stmt 0 discriminator 2
	ldrb	r0, [r0, #65]	@ zero_extendqisi2
.LVL96:
	uxtb	r0, r0
	.loc 1 1209 5 discriminator 2
	cmp	r0, r2
	beq	.L87
	.loc 1 1249 5 is_stmt 1
.LVL97:
	.loc 1 1252 5
	.loc 1 1252 9
	.loc 1 1252 23 is_stmt 0
	movs	r2, #0
	strb	r2, [r3, #64]
	.loc 1 1249 12
	movs	r0, #2
.LVL98:
.L82:
	.loc 1 1256 1
	pop	{r4, r5}
	.cfi_remember_state
	.cfi_restore 5
	.cfi_restore 4
	.cfi_def_cfa_offset 0
.LVL99:
	bx	lr
.LVL100:
.L87:
	.cfi_restore_state
	.loc 1 1211 5 is_stmt 1
	.loc 1 1211 22 is_stmt 0
	movs	r2, #0
	str	r2, [r3, #68]
	.loc 1 1213 5 is_stmt 1
	.loc 1 1213 7 is_stmt 0
	cbz	r1, .L84
	.loc 1 1216 7 is_stmt 1
	.loc 1 1216 20 is_stmt 0
	movs	r2, #34
	strb	r2, [r3, #65]
	.loc 1 1219 7 is_stmt 1
	.loc 1 1219 45 is_stmt 0
	ldr	r2, [r4, #16]
	.loc 1 1219 53
	adds	r2, r2, #1
	.loc 1 1219 26
	str	r2, [r3, #56]
	.loc 1 1220 7 is_stmt 1
	.loc 1 1220 44 is_stmt 0
	ldr	r2, [r4, #16]
	.loc 1 1220 52
	adds	r2, r2, #1
	.loc 1 1220 25
	str	r2, [r3, #52]
	.loc 1 1221 7 is_stmt 1
	.loc 1 1221 25 is_stmt 0
	str	r1, [r3, #48]
	.loc 1 1224 7 is_stmt 1
	.loc 1 1224 33 is_stmt 0
	movs	r2, #3
	str	r2, [r4, #12]
	.loc 1 1227 7 is_stmt 1
	.loc 1 1227 46 is_stmt 0
	ldr	r1, [r3]
.LVL101:
	.loc 1 1227 56
	ldr	r2, [r1, #20]
	.loc 1 1227 65
	bic	r2, r2, #201326592
	.loc 1 1227 90
	orr	r2, r2, #67108864
	.loc 1 1227 33
	str	r2, [r1, #20]
	.loc 1 1230 7 is_stmt 1
	.loc 1 1230 14 is_stmt 0
	ldr	r2, [r3]
	.loc 1 1230 30
	str	r5, [r2, #24]
	.loc 1 1233 7 is_stmt 1
	.loc 1 1233 11
	.loc 1 1233 25 is_stmt 0
	movs	r0, #0
	strb	r0, [r3, #64]
	.loc 1 1233 9 is_stmt 1
	.loc 1 1236 7
	.loc 1 1236 16 is_stmt 0
	ldr	r2, [r3]
	.loc 1 1236 26
	ldr	r3, [r2]
.LVL102:
	.loc 1 1236 32
	orr	r3, r3, #458752
	str	r3, [r2]
	b	.L82
.LVL103:
.L84:
	.loc 1 1240 7 is_stmt 1
	.loc 1 1240 12 is_stmt 0
	ldr	r2, [r3, #68]
	.loc 1 1240 24
	orr	r2, r2, #8
	str	r2, [r3, #68]
	.loc 1 1241 7 is_stmt 1
.LVL104:
	.loc 1 1244 7
	.loc 1 1244 11
	.loc 1 1244 25 is_stmt 0
	movs	r2, #0
	strb	r2, [r3, #64]
	b	.L82
.LVL105:
.L85:
	.loc 1 1207 48
	movs	r0, #2
.LVL106:
	b	.L82
	.cfi_endproc
.LFE345:
	.size	HAL_QSPI_Receive_IT, .-HAL_QSPI_Receive_IT
	.section	.text.HAL_QSPI_Transmit_DMA,"ax",%progbits
	.align	1
	.global	HAL_QSPI_Transmit_DMA
	.syntax unified
	.thumb
	.thumb_func
	.type	HAL_QSPI_Transmit_DMA, %function
HAL_QSPI_Transmit_DMA:
.LFB346:
	.loc 1 1266 1 is_stmt 1
	.cfi_startproc
	@ args = 0, pretend = 0, frame = 0
	@ frame_needed = 0, uses_anonymous_args = 0
.LVL107:
	push	{r4, r5, r6, lr}
	.cfi_def_cfa_offset 16
	.cfi_offset 4, -16
	.cfi_offset 5, -12
	.cfi_offset 6, -8
	.cfi_offset 14, -4
	sub	sp, sp, #8
	.cfi_def_cfa_offset 24
	mov	r4, r0
	.loc 1 1267 3
.LVL108:
	.loc 1 1268 3
	.loc 1 1268 32 is_stmt 0
	ldr	r0, [r0]
.LVL109:
	.loc 1 1268 42
	ldr	r2, [r0, #16]
.LVL110:
	.loc 1 1271 3 is_stmt 1
	.loc 1 1271 7
	.loc 1 1271 17 is_stmt 0
	ldrb	r3, [r4, #64]	@ zero_extendqisi2
	uxtb	r3, r3
	.loc 1 1271 9
	cmp	r3, #1
	beq	.L97
	adds	r2, r2, #1
.LVL111:
	.loc 1 1271 67 is_stmt 1 discriminator 2
	.loc 1 1271 81 is_stmt 0 discriminator 2
	movs	r3, #1
	strb	r3, [r4, #64]
	.loc 1 1271 5 is_stmt 1 discriminator 2
	.loc 1 1273 3 discriminator 2
	.loc 1 1273 11 is_stmt 0 discriminator 2
	ldrb	r5, [r4, #65]	@ zero_extendqisi2
	uxtb	r5, r5
	.loc 1 1273 5 discriminator 2
	cmp	r5, r3
	beq	.L99
	.loc 1 1362 5 is_stmt 1
.LVL112:
	.loc 1 1365 5
	.loc 1 1365 9
	.loc 1 1365 23 is_stmt 0
	movs	r3, #0
	strb	r3, [r4, #64]
	.loc 1 1362 12
	movs	r5, #2
.LVL113:
.L89:
	.loc 1 1369 1
	mov	r0, r5
	add	sp, sp, #8
	.cfi_remember_state
	.cfi_def_cfa_offset 16
	@ sp needed
	pop	{r4, r5, r6, pc}
.LVL114:
.L99:
	.cfi_restore_state
	.loc 1 1276 5 is_stmt 1
	.loc 1 1276 22 is_stmt 0
	movs	r3, #0
	str	r3, [r4, #68]
	.loc 1 1278 5 is_stmt 1
	.loc 1 1278 7 is_stmt 0
	cmp	r1, #0
	beq	.L91
	.loc 1 1281 7 is_stmt 1
	.loc 1 1281 26 is_stmt 0
	str	r2, [r4, #44]
	.loc 1 1284 9 is_stmt 1
	.loc 1 1284 22 is_stmt 0
	movs	r3, #18
	strb	r3, [r4, #65]
	.loc 1 1287 9 is_stmt 1
	.loc 1 1287 35 is_stmt 0
	movs	r3, #3
	str	r3, [r0, #12]
	.loc 1 1290 9 is_stmt 1
	.loc 1 1290 34 is_stmt 0
	ldr	r3, [r4, #44]
	.loc 1 1290 27
	str	r3, [r4, #40]
	.loc 1 1291 9 is_stmt 1
	.loc 1 1291 27 is_stmt 0
	str	r1, [r4, #36]
	.loc 1 1294 9 is_stmt 1
	.loc 1 1294 48 is_stmt 0
	ldr	r2, [r4]
.LVL115:
	.loc 1 1294 58
	ldr	r3, [r2, #20]
	.loc 1 1294 92
	bic	r3, r3, #201326592
	.loc 1 1294 35
	str	r3, [r2, #20]
	.loc 1 1297 9 is_stmt 1
	.loc 1 1297 14 is_stmt 0
	ldr	r3, [r4, #60]
	.loc 1 1297 40
	ldr	r2, .L102
	str	r2, [r3, #68]
	.loc 1 1300 9 is_stmt 1
	.loc 1 1300 14 is_stmt 0
	ldr	r3, [r4, #60]
	.loc 1 1300 41
	ldr	r2, .L102+4
	str	r2, [r3, #84]
	.loc 1 1303 9 is_stmt 1
	.loc 1 1303 14 is_stmt 0
	ldr	r3, [r4, #60]
	.loc 1 1303 41
	movs	r2, #0
	str	r2, [r3, #88]
	.loc 1 1306 9 is_stmt 1
	.loc 1 1306 56 is_stmt 0
	ldr	r3, [r4, #60]
	.loc 1 1306 63
	ldr	r2, [r3]
	.loc 1 1306 73
	ldr	r0, [r2, #16]
	.loc 1 1306 128
	ldr	r3, .L102+8
	ands	r3, r3, r0
	.loc 1 1306 43
	str	r3, [r2, #16]
	.loc 1 1309 9 is_stmt 1
	.loc 1 1309 18 is_stmt 0
	ldr	r2, [r4, #60]
	.loc 1 1309 31
	ldr	r3, [r2, #28]
	.loc 1 1309 12
	cbnz	r3, .L92
	.loc 1 1311 11 is_stmt 1
	.loc 1 1311 65 is_stmt 0
	ldr	r2, [r2]
	.loc 1 1311 75
	ldr	r0, [r2, #16]
	.loc 1 1311 85
	sub	r3, r3, #772
	ands	r3, r3, r0
	.loc 1 1311 129
	orr	r3, r3, #2
	.loc 1 1311 45
	str	r3, [r2, #16]
	.loc 1 1267 21
	movs	r6, #0
.LVL116:
.L93:
	.loc 1 1329 9 is_stmt 1
	.loc 1 1329 78 is_stmt 0
	ldr	r2, [r4]
	.loc 1 1329 99
	ldr	r3, [r4, #40]
	.loc 1 1329 13
	movs	r0, #1
	str	r0, [sp]
	adds	r2, r2, #32
	ldr	r0, [r4, #60]
	bl	HAL_MDMA_Start_IT
.LVL117:
	.loc 1 1329 12
	cbnz	r0, .L96
	.loc 1 1332 11 is_stmt 1
	.loc 1 1332 15
	.loc 1 1332 29 is_stmt 0
	movs	r3, #0
	strb	r3, [r4, #64]
	.loc 1 1332 13 is_stmt 1
	.loc 1 1335 11
	.loc 1 1335 20 is_stmt 0
	ldr	r2, [r4]
	.loc 1 1335 30
	ldr	r3, [r2]
	.loc 1 1335 36
	orr	r3, r3, #65536
	str	r3, [r2]
	.loc 1 1339 11 is_stmt 1
	.loc 1 1339 18 is_stmt 0
	ldr	r2, [r4]
	.loc 1 1339 28
	ldr	r3, [r2]
	.loc 1 1339 34
	orr	r3, r3, #4
	str	r3, [r2]
	mov	r5, r6
	b	.L89
.LVL118:
.L92:
	.loc 1 1313 14 is_stmt 1
	.loc 1 1313 17 is_stmt 0
	cmp	r3, #16
	beq	.L100
	.loc 1 1317 14 is_stmt 1
	.loc 1 1317 17 is_stmt 0
	cmp	r3, #32
	beq	.L101
	.loc 1 1324 11 is_stmt 1
	.loc 1 1324 16 is_stmt 0
	ldr	r3, [r4, #68]
	.loc 1 1324 28
	orr	r3, r3, #4
	str	r3, [r4, #68]
	.loc 1 1325 11 is_stmt 1
.LVL119:
	.loc 1 1325 18 is_stmt 0
	mov	r6, r5
	b	.L93
.LVL120:
.L100:
	.loc 1 1315 11 is_stmt 1
	.loc 1 1315 65 is_stmt 0
	ldr	r2, [r2]
	.loc 1 1315 75
	ldr	r0, [r2, #16]
	.loc 1 1315 85
	sub	r3, r3, #788
	ands	r3, r3, r0
	.loc 1 1315 129
	orr	r3, r3, #258
	.loc 1 1315 45
	str	r3, [r2, #16]
	.loc 1 1267 21
	movs	r6, #0
	b	.L93
.L101:
	.loc 1 1319 11 is_stmt 1
	.loc 1 1319 65 is_stmt 0
	ldr	r0, [r2]
	.loc 1 1319 75
	ldr	r3, [r0, #16]
	.loc 1 1319 85
	ldr	r2, .L102+12
	ands	r2, r2, r3
	.loc 1 1319 129
	movw	r3, #514
	orrs	r3, r3, r2
	.loc 1 1319 45
	str	r3, [r0, #16]
	.loc 1 1267 21
	movs	r6, #0
	b	.L93
.LVL121:
.L96:
	.loc 1 1343 11 is_stmt 1
	.loc 1 1344 11
	.loc 1 1344 16 is_stmt 0
	ldr	r3, [r4, #68]
	.loc 1 1344 28
	orr	r3, r3, #4
	str	r3, [r4, #68]
	.loc 1 1345 11 is_stmt 1
	.loc 1 1345 24 is_stmt 0
	movs	r3, #1
	strb	r3, [r4, #65]
	.loc 1 1348 11 is_stmt 1
	.loc 1 1348 15
	.loc 1 1348 29 is_stmt 0
	movs	r3, #0
	strb	r3, [r4, #64]
	b	.L89
.LVL122:
.L91:
	.loc 1 1353 7 is_stmt 1 discriminator 1
	.loc 1 1353 12 is_stmt 0 discriminator 1
	ldr	r3, [r4, #68]
	.loc 1 1353 24 discriminator 1
	orr	r3, r3, #8
	str	r3, [r4, #68]
	.loc 1 1354 7 is_stmt 1 discriminator 1
.LVL123:
	.loc 1 1357 7 discriminator 1
	.loc 1 1357 11 discriminator 1
	.loc 1 1357 25 is_stmt 0 discriminator 1
	movs	r3, #0
	strb	r3, [r4, #64]
	b	.L89
.LVL124:
.L97:
	.loc 1 1271 48
	movs	r5, #2
	b	.L89
.L103:
	.align	2
.L102:
	.word	QSPI_DMATxCplt
	.word	QSPI_DMAError
	.word	-3085
	.word	-772
	.cfi_endproc
.LFE346:
	.size	HAL_QSPI_Transmit_DMA, .-HAL_QSPI_Transmit_DMA
	.section	.text.HAL_QSPI_Receive_DMA,"ax",%progbits
	.align	1
	.global	HAL_QSPI_Receive_DMA
	.syntax unified
	.thumb
	.thumb_func
	.type	HAL_QSPI_Receive_DMA, %function
HAL_QSPI_Receive_DMA:
.LFB347:
	.loc 1 1379 1 is_stmt 1
	.cfi_startproc
	@ args = 0, pretend = 0, frame = 0
	@ frame_needed = 0, uses_anonymous_args = 0
.LVL125:
	push	{r4, r5, r6, lr}
	.cfi_def_cfa_offset 16
	.cfi_offset 4, -16
	.cfi_offset 5, -12
	.cfi_offset 6, -8
	.cfi_offset 14, -4
	sub	sp, sp, #8
	.cfi_def_cfa_offset 24
	mov	r4, r0
	.loc 1 1380 3
.LVL126:
	.loc 1 1381 3
	.loc 1 1381 30 is_stmt 0
	ldr	r0, [r0]
.LVL127:
	.loc 1 1381 12
	ldr	r2, [r0, #24]
.LVL128:
	.loc 1 1382 3 is_stmt 1
	.loc 1 1382 42 is_stmt 0
	ldr	r6, [r0, #16]
.LVL129:
	.loc 1 1385 3 is_stmt 1
	.loc 1 1385 7
	.loc 1 1385 17 is_stmt 0
	ldrb	r3, [r4, #64]	@ zero_extendqisi2
	uxtb	r3, r3
	.loc 1 1385 9
	cmp	r3, #1
	beq	.L113
	adds	r6, r6, #1
.LVL130:
	.loc 1 1385 67 is_stmt 1 discriminator 2
	.loc 1 1385 81 is_stmt 0 discriminator 2
	movs	r3, #1
	strb	r3, [r4, #64]
	.loc 1 1385 5 is_stmt 1 discriminator 2
	.loc 1 1387 3 discriminator 2
	.loc 1 1387 11 is_stmt 0 discriminator 2
	ldrb	r5, [r4, #65]	@ zero_extendqisi2
	uxtb	r5, r5
	.loc 1 1387 5 discriminator 2
	cmp	r5, r3
	beq	.L115
	.loc 1 1477 5 is_stmt 1
.LVL131:
	.loc 1 1480 5
	.loc 1 1480 9
	.loc 1 1480 23 is_stmt 0
	movs	r3, #0
	strb	r3, [r4, #64]
	.loc 1 1477 12
	movs	r5, #2
.LVL132:
.L105:
	.loc 1 1484 1
	mov	r0, r5
	add	sp, sp, #8
	.cfi_remember_state
	.cfi_def_cfa_offset 16
	@ sp needed
	pop	{r4, r5, r6, pc}
.LVL133:
.L115:
	.cfi_restore_state
	.loc 1 1390 5 is_stmt 1
	.loc 1 1390 22 is_stmt 0
	movs	r3, #0
	str	r3, [r4, #68]
	.loc 1 1392 5 is_stmt 1
	.loc 1 1392 7 is_stmt 0
	cmp	r1, #0
	beq	.L107
	.loc 1 1395 7 is_stmt 1
	.loc 1 1395 26 is_stmt 0
	str	r6, [r4, #56]
	.loc 1 1397 9 is_stmt 1
	.loc 1 1397 22 is_stmt 0
	movs	r3, #34
	strb	r3, [r4, #65]
	.loc 1 1400 9 is_stmt 1
	.loc 1 1400 35 is_stmt 0
	movs	r3, #3
	str	r3, [r0, #12]
	.loc 1 1403 9 is_stmt 1
	.loc 1 1403 34 is_stmt 0
	ldr	r3, [r4, #56]
	.loc 1 1403 27
	str	r3, [r4, #52]
	.loc 1 1404 9 is_stmt 1
	.loc 1 1404 27 is_stmt 0
	str	r1, [r4, #48]
	.loc 1 1407 9 is_stmt 1
	.loc 1 1407 14 is_stmt 0
	ldr	r3, [r4, #60]
	.loc 1 1407 40
	ldr	r0, .L118
	str	r0, [r3, #68]
	.loc 1 1410 9 is_stmt 1
	.loc 1 1410 14 is_stmt 0
	ldr	r3, [r4, #60]
	.loc 1 1410 41
	ldr	r0, .L118+4
	str	r0, [r3, #84]
	.loc 1 1413 9 is_stmt 1
	.loc 1 1413 14 is_stmt 0
	ldr	r3, [r4, #60]
	.loc 1 1413 41
	movs	r0, #0
	str	r0, [r3, #88]
	.loc 1 1416 7 is_stmt 1
	.loc 1 1416 54 is_stmt 0
	ldr	r3, [r4, #60]
	.loc 1 1416 61
	ldr	r0, [r3]
	.loc 1 1416 71
	ldr	r6, [r0, #16]
.LVL134:
	.loc 1 1416 125
	ldr	r3, .L118+8
	ands	r3, r3, r6
	.loc 1 1416 41
	str	r3, [r0, #16]
	.loc 1 1419 7 is_stmt 1
	.loc 1 1419 16 is_stmt 0
	ldr	r0, [r4, #60]
	.loc 1 1419 29
	ldr	r3, [r0, #32]
	.loc 1 1419 10
	cbnz	r3, .L108
	.loc 1 1421 9 is_stmt 1
	.loc 1 1421 63 is_stmt 0
	ldr	r0, [r0]
	.loc 1 1421 73
	ldr	r6, [r0, #16]
	.loc 1 1421 83
	subw	r3, r3, #3085
	ands	r3, r3, r6
	.loc 1 1421 128
	orr	r3, r3, #8
	.loc 1 1421 43
	str	r3, [r0, #16]
	.loc 1 1380 21
	movs	r6, #0
.LVL135:
.L109:
	.loc 1 1438 11 is_stmt 1
	.loc 1 1438 50 is_stmt 0
	ldr	r0, [r4]
	.loc 1 1438 60
	ldr	r3, [r0, #20]
	.loc 1 1438 69
	bic	r3, r3, #201326592
	.loc 1 1438 94
	orr	r3, r3, #67108864
	.loc 1 1438 37
	str	r3, [r0, #20]
	.loc 1 1441 11 is_stmt 1
	.loc 1 1441 18 is_stmt 0
	ldr	r3, [r4]
	.loc 1 1441 34
	str	r2, [r3, #24]
	.loc 1 1444 9 is_stmt 1
	.loc 1 1444 61 is_stmt 0
	ldr	r0, [r4]
	.loc 1 1444 99
	ldr	r3, [r4, #52]
	.loc 1 1444 13
	movs	r2, #1
.LVL136:
	str	r2, [sp]
	mov	r2, r1
	add	r1, r0, #32
.LVL137:
	ldr	r0, [r4, #60]
	bl	HAL_MDMA_Start_IT
.LVL138:
	.loc 1 1444 12
	cbnz	r0, .L112
	.loc 1 1447 11 is_stmt 1
	.loc 1 1447 15
	.loc 1 1447 29 is_stmt 0
	movs	r3, #0
	strb	r3, [r4, #64]
	.loc 1 1447 13 is_stmt 1
	.loc 1 1450 11
	.loc 1 1450 20 is_stmt 0
	ldr	r2, [r4]
	.loc 1 1450 30
	ldr	r3, [r2]
	.loc 1 1450 36
	orr	r3, r3, #65536
	str	r3, [r2]
	.loc 1 1454 11 is_stmt 1
	.loc 1 1454 18 is_stmt 0
	ldr	r2, [r4]
	.loc 1 1454 28
	ldr	r3, [r2]
	.loc 1 1454 34
	orr	r3, r3, #4
	str	r3, [r2]
	mov	r5, r6
	b	.L105
.LVL139:
.L108:
	.loc 1 1423 12 is_stmt 1
	.loc 1 1423 15 is_stmt 0
	cmp	r3, #64
	beq	.L116
	.loc 1 1427 12 is_stmt 1
	.loc 1 1427 15 is_stmt 0
	cmp	r3, #128
	beq	.L117
	.loc 1 1434 9 is_stmt 1
	.loc 1 1434 14 is_stmt 0
	ldr	r3, [r4, #68]
	.loc 1 1434 26
	orr	r3, r3, #4
	str	r3, [r4, #68]
	.loc 1 1435 9 is_stmt 1
.LVL140:
	.loc 1 1435 16 is_stmt 0
	mov	r6, r5
	b	.L109
.LVL141:
.L116:
	.loc 1 1425 9 is_stmt 1
	.loc 1 1425 63 is_stmt 0
	ldr	r0, [r0]
	.loc 1 1425 73
	ldr	r6, [r0, #16]
	.loc 1 1425 83
	subw	r3, r3, #3149
	ands	r3, r3, r6
	.loc 1 1425 128
	orr	r3, r3, #1032
	.loc 1 1425 43
	str	r3, [r0, #16]
	.loc 1 1380 21
	movs	r6, #0
	b	.L109
.L117:
	.loc 1 1429 9 is_stmt 1
	.loc 1 1429 63 is_stmt 0
	ldr	r6, [r0]
	.loc 1 1429 73
	ldr	r3, [r6, #16]
	.loc 1 1429 83
	ldr	r0, .L118+12
	ands	r0, r0, r3
	.loc 1 1429 128
	movw	r3, #2056
	orrs	r3, r3, r0
	.loc 1 1429 43
	str	r3, [r6, #16]
	.loc 1 1380 21
	movs	r6, #0
	b	.L109
.LVL142:
.L112:
	.loc 1 1458 11 is_stmt 1
	.loc 1 1459 11
	.loc 1 1459 16 is_stmt 0
	ldr	r3, [r4, #68]
	.loc 1 1459 28
	orr	r3, r3, #4
	str	r3, [r4, #68]
	.loc 1 1460 11 is_stmt 1
	.loc 1 1460 24 is_stmt 0
	movs	r3, #1
	strb	r3, [r4, #65]
	.loc 1 1463 11 is_stmt 1
	.loc 1 1463 15
	.loc 1 1463 29 is_stmt 0
	movs	r3, #0
	strb	r3, [r4, #64]
	b	.L105
.LVL143:
.L107:
	.loc 1 1468 7 is_stmt 1 discriminator 1
	.loc 1 1468 12 is_stmt 0 discriminator 1
	ldr	r3, [r4, #68]
	.loc 1 1468 24 discriminator 1
	orr	r3, r3, #8
	str	r3, [r4, #68]
	.loc 1 1469 7 is_stmt 1 discriminator 1
.LVL144:
	.loc 1 1472 7 discriminator 1
	.loc 1 1472 11 discriminator 1
	.loc 1 1472 25 is_stmt 0 discriminator 1
	movs	r3, #0
	strb	r3, [r4, #64]
	b	.L105
.LVL145:
.L113:
	.loc 1 1385 48
	movs	r5, #2
	b	.L105
.L119:
	.align	2
.L118:
	.word	QSPI_DMARxCplt
	.word	QSPI_DMAError
	.word	-772
	.word	-3085
	.cfi_endproc
.LFE347:
	.size	HAL_QSPI_Receive_DMA, .-HAL_QSPI_Receive_DMA
	.section	.text.HAL_QSPI_AutoPolling,"ax",%progbits
	.align	1
	.global	HAL_QSPI_AutoPolling
	.syntax unified
	.thumb
	.thumb_func
	.type	HAL_QSPI_AutoPolling, %function
HAL_QSPI_AutoPolling:
.LFB348:
	.loc 1 1496 1 is_stmt 1
	.cfi_startproc
	@ args = 0, pretend = 0, frame = 0
	@ frame_needed = 0, uses_anonymous_args = 0
.LVL146:
	push	{r4, r5, r6, r7, r8, lr}
	.cfi_def_cfa_offset 24
	.cfi_offset 4, -24
	.cfi_offset 5, -20
	.cfi_offset 6, -16
	.cfi_offset 7, -12
	.cfi_offset 8, -8
	.cfi_offset 14, -4
	sub	sp, sp, #8
	.cfi_def_cfa_offset 32
	mov	r4, r0
	mov	r8, r1
	mov	r5, r2
	mov	r7, r3
	.loc 1 1497 3
	.loc 1 1498 3
	.loc 1 1498 24 is_stmt 0
	bl	HAL_GetTick
.LVL147:
	.loc 1 1501 3 is_stmt 1
	.loc 1 1502 3
	.loc 1 1504 5
	.loc 1 1507 3
	.loc 1 1508 3
	.loc 1 1510 5
	.loc 1 1513 3
	.loc 1 1514 3
	.loc 1 1516 5
	.loc 1 1519 3
	.loc 1 1520 3
	.loc 1 1522 3
	.loc 1 1523 3
	.loc 1 1524 3
	.loc 1 1526 3
	.loc 1 1527 3
	.loc 1 1528 3
	.loc 1 1531 3
	.loc 1 1531 7
	.loc 1 1531 17 is_stmt 0
	ldrb	ip, [r4, #64]	@ zero_extendqisi2
	uxtb	ip, ip
	.loc 1 1531 9
	cmp	ip, #1
	beq	.L123
	mov	r6, r0
	.loc 1 1531 67 is_stmt 1 discriminator 2
	.loc 1 1531 81 is_stmt 0 discriminator 2
	movs	r3, #1
	strb	r3, [r4, #64]
	.loc 1 1531 5 is_stmt 1 discriminator 2
	.loc 1 1533 3 discriminator 2
	.loc 1 1533 11 is_stmt 0 discriminator 2
	ldrb	ip, [r4, #65]	@ zero_extendqisi2
	uxtb	ip, ip
	.loc 1 1533 5 discriminator 2
	cmp	ip, r3
	beq	.L126
	.loc 1 1577 12
	movs	r0, #2
.LVL148:
.L122:
	.loc 1 1581 3 is_stmt 1
	.loc 1 1581 7
	.loc 1 1581 21 is_stmt 0
	movs	r3, #0
	strb	r3, [r4, #64]
	.loc 1 1581 5 is_stmt 1
	.loc 1 1584 3
.LVL149:
.L121:
	.loc 1 1585 1 is_stmt 0
	add	sp, sp, #8
	.cfi_remember_state
	.cfi_def_cfa_offset 24
	@ sp needed
	pop	{r4, r5, r6, r7, r8, pc}
.LVL150:
.L126:
	.cfi_restore_state
	.loc 1 1535 5 is_stmt 1
	.loc 1 1535 22 is_stmt 0
	movs	r2, #0
	str	r2, [r4, #68]
	.loc 1 1538 5 is_stmt 1
	.loc 1 1538 18 is_stmt 0
	movs	r3, #66
	strb	r3, [r4, #65]
	.loc 1 1541 5 is_stmt 1
	.loc 1 1541 14 is_stmt 0
	str	r7, [sp]
	mov	r3, r0
	movs	r1, #32
	mov	r0, r4
.LVL151:
	bl	QSPI_WaitFlagStateUntilTimeout
.LVL152:
	.loc 1 1543 5 is_stmt 1
	.loc 1 1543 8 is_stmt 0
	cmp	r0, #0
	bne	.L122
	.loc 1 1546 7 is_stmt 1
	.loc 1 1546 14 is_stmt 0
	ldr	r3, [r4]
	.loc 1 1546 39
	ldr	r2, [r5]
	.loc 1 1546 33
	str	r2, [r3, #40]
	.loc 1 1549 7 is_stmt 1
	.loc 1 1549 14 is_stmt 0
	ldr	r3, [r4]
	.loc 1 1549 39
	ldr	r2, [r5, #4]
	.loc 1 1549 33
	str	r2, [r3, #36]
	.loc 1 1552 7 is_stmt 1
	.loc 1 1552 14 is_stmt 0
	ldr	r3, [r4]
	.loc 1 1552 37
	ldr	r2, [r5, #8]
	.loc 1 1552 31
	str	r2, [r3, #44]
	.loc 1 1556 7 is_stmt 1
	.loc 1 1556 45 is_stmt 0
	ldr	r2, [r4]
	.loc 1 1556 55
	ldr	r3, [r2]
	.loc 1 1556 63
	bic	r3, r3, #12582912
	.loc 1 1556 116
	ldr	r1, [r5, #16]
	.loc 1 1556 109
	orrs	r3, r3, r1
	orr	r3, r3, #4194304
	.loc 1 1556 32
	str	r3, [r2]
	.loc 1 1560 7 is_stmt 1
	.loc 1 1560 24 is_stmt 0
	ldr	r3, [r5, #12]
	.loc 1 1560 19
	str	r3, [r8, #40]
	.loc 1 1561 7 is_stmt 1
	mov	r2, #134217728
	mov	r1, r8
	mov	r0, r4
.LVL153:
	bl	QSPI_Config
.LVL154:
	.loc 1 1564 7
	.loc 1 1564 16 is_stmt 0
	str	r7, [sp]
	mov	r3, r6
	movs	r2, #1
	movs	r1, #8
	mov	r0, r4
	bl	QSPI_WaitFlagStateUntilTimeout
.LVL155:
	.loc 1 1566 7 is_stmt 1
	.loc 1 1566 10 is_stmt 0
	cmp	r0, #0
	bne	.L122
	.loc 1 1568 9 is_stmt 1
	.loc 1 1568 18 is_stmt 0
	ldr	r3, [r4]
	.loc 1 1568 35
	movs	r2, #8
	str	r2, [r3, #12]
	.loc 1 1571 9 is_stmt 1
	.loc 1 1571 22 is_stmt 0
	movs	r3, #1
	strb	r3, [r4, #65]
	b	.L122
.LVL156:
.L123:
	.loc 1 1531 48
	movs	r0, #2
.LVL157:
	b	.L121
	.cfi_endproc
.LFE348:
	.size	HAL_QSPI_AutoPolling, .-HAL_QSPI_AutoPolling
	.section	.text.HAL_QSPI_AutoPolling_IT,"ax",%progbits
	.align	1
	.global	HAL_QSPI_AutoPolling_IT
	.syntax unified
	.thumb
	.thumb_func
	.type	HAL_QSPI_AutoPolling_IT, %function
HAL_QSPI_AutoPolling_IT:
.LFB349:
	.loc 1 1596 1 is_stmt 1
	.cfi_startproc
	@ args = 0, pretend = 0, frame = 0
	@ frame_needed = 0, uses_anonymous_args = 0
.LVL158:
	push	{r4, r5, r6, r7, lr}
	.cfi_def_cfa_offset 20
	.cfi_offset 4, -20
	.cfi_offset 5, -16
	.cfi_offset 6, -12
	.cfi_offset 7, -8
	.cfi_offset 14, -4
	sub	sp, sp, #12
	.cfi_def_cfa_offset 32
	mov	r4, r0
	mov	r6, r1
	mov	r5, r2
	.loc 1 1597 3
	.loc 1 1598 3
	.loc 1 1598 24 is_stmt 0
	bl	HAL_GetTick
.LVL159:
	.loc 1 1601 3 is_stmt 1
	.loc 1 1602 3
	.loc 1 1604 5
	.loc 1 1607 3
	.loc 1 1608 3
	.loc 1 1610 5
	.loc 1 1613 3
	.loc 1 1614 3
	.loc 1 1616 5
	.loc 1 1619 3
	.loc 1 1620 3
	.loc 1 1622 3
	.loc 1 1623 3
	.loc 1 1624 3
	.loc 1 1626 3
	.loc 1 1627 3
	.loc 1 1628 3
	.loc 1 1629 3
	.loc 1 1632 3
	.loc 1 1632 7
	.loc 1 1632 17 is_stmt 0
	ldrb	ip, [r4, #64]	@ zero_extendqisi2
	uxtb	ip, ip
	.loc 1 1632 9
	cmp	ip, #1
	beq	.L131
	.loc 1 1632 67 is_stmt 1 discriminator 2
	.loc 1 1632 81 is_stmt 0 discriminator 2
	movs	r3, #1
	strb	r3, [r4, #64]
	.loc 1 1632 5 is_stmt 1 discriminator 2
	.loc 1 1634 3 discriminator 2
	.loc 1 1634 11 is_stmt 0 discriminator 2
	ldrb	r2, [r4, #65]	@ zero_extendqisi2
	uxtb	r2, r2
	.loc 1 1634 5 discriminator 2
	cmp	r2, r3
	beq	.L133
	.loc 1 1681 5 is_stmt 1
.LVL160:
	.loc 1 1684 5
	.loc 1 1684 9
	.loc 1 1684 23 is_stmt 0
	movs	r3, #0
	strb	r3, [r4, #64]
	.loc 1 1681 12
	movs	r7, #2
.LVL161:
.L128:
	.loc 1 1689 1
	mov	r0, r7
	add	sp, sp, #12
	.cfi_remember_state
	.cfi_def_cfa_offset 20
	@ sp needed
	pop	{r4, r5, r6, r7, pc}
.LVL162:
.L133:
	.cfi_restore_state
	.loc 1 1636 5 is_stmt 1
	.loc 1 1636 22 is_stmt 0
	movs	r2, #0
	str	r2, [r4, #68]
	.loc 1 1639 5 is_stmt 1
	.loc 1 1639 18 is_stmt 0
	movs	r3, #66
	strb	r3, [r4, #65]
	.loc 1 1642 5 is_stmt 1
	.loc 1 1642 14 is_stmt 0
	ldr	r3, [r4, #72]
	str	r3, [sp]
	mov	r3, r0
	movs	r1, #32
	mov	r0, r4
.LVL163:
	bl	QSPI_WaitFlagStateUntilTimeout
.LVL164:
	.loc 1 1644 5 is_stmt 1
	.loc 1 1644 8 is_stmt 0
	mov	r7, r0
	cbz	r0, .L134
	.loc 1 1676 7 is_stmt 1
	.loc 1 1676 11
	.loc 1 1676 25 is_stmt 0
	movs	r3, #0
	strb	r3, [r4, #64]
	b	.L128
.L134:
	.loc 1 1647 7 is_stmt 1
	.loc 1 1647 14 is_stmt 0
	ldr	r3, [r4]
	.loc 1 1647 39
	ldr	r2, [r5]
	.loc 1 1647 33
	str	r2, [r3, #40]
	.loc 1 1650 7 is_stmt 1
	.loc 1 1650 14 is_stmt 0
	ldr	r3, [r4]
	.loc 1 1650 39
	ldr	r2, [r5, #4]
	.loc 1 1650 33
	str	r2, [r3, #36]
	.loc 1 1653 7 is_stmt 1
	.loc 1 1653 14 is_stmt 0
	ldr	r3, [r4]
	.loc 1 1653 37
	ldr	r2, [r5, #8]
	.loc 1 1653 31
	str	r2, [r3, #44]
	.loc 1 1656 7 is_stmt 1
	.loc 1 1656 45 is_stmt 0
	ldr	r1, [r4]
	.loc 1 1656 55
	ldr	r3, [r1]
	.loc 1 1656 63
	bic	r3, r3, #12582912
	.loc 1 1656 116
	ldr	r2, [r5, #16]
	.loc 1 1656 133
	ldr	r0, [r5, #20]
.LVL165:
	.loc 1 1656 128
	orrs	r2, r2, r0
	.loc 1 1656 109
	orrs	r3, r3, r2
	.loc 1 1656 32
	str	r3, [r1]
	.loc 1 1660 7 is_stmt 1
	.loc 1 1660 16 is_stmt 0
	ldr	r3, [r4]
	.loc 1 1660 33
	movs	r2, #9
	str	r2, [r3, #12]
	.loc 1 1663 7 is_stmt 1
	.loc 1 1663 24 is_stmt 0
	ldr	r3, [r5, #12]
	.loc 1 1663 19
	str	r3, [r6, #40]
	.loc 1 1664 7 is_stmt 1
	mov	r2, #134217728
	mov	r1, r6
	mov	r0, r4
	bl	QSPI_Config
.LVL166:
	.loc 1 1667 7
	.loc 1 1667 11
	.loc 1 1667 25 is_stmt 0
	movs	r3, #0
	strb	r3, [r4, #64]
	.loc 1 1667 9 is_stmt 1
	.loc 1 1670 7
	.loc 1 1670 16 is_stmt 0
	ldr	r2, [r4]
	.loc 1 1670 26
	ldr	r3, [r2]
	.loc 1 1670 32
	orr	r3, r3, #589824
	str	r3, [r2]
	b	.L128
.LVL167:
.L131:
	.loc 1 1632 48
	movs	r7, #2
	b	.L128
	.cfi_endproc
.LFE349:
	.size	HAL_QSPI_AutoPolling_IT, .-HAL_QSPI_AutoPolling_IT
	.section	.text.HAL_QSPI_MemoryMapped,"ax",%progbits
	.align	1
	.global	HAL_QSPI_MemoryMapped
	.syntax unified
	.thumb
	.thumb_func
	.type	HAL_QSPI_MemoryMapped, %function
HAL_QSPI_MemoryMapped:
.LFB350:
	.loc 1 1700 1 is_stmt 1
	.cfi_startproc
	@ args = 0, pretend = 0, frame = 0
	@ frame_needed = 0, uses_anonymous_args = 0
.LVL168:
	push	{r4, r5, r6, r7, lr}
	.cfi_def_cfa_offset 20
	.cfi_offset 4, -20
	.cfi_offset 5, -16
	.cfi_offset 6, -12
	.cfi_offset 7, -8
	.cfi_offset 14, -4
	sub	sp, sp, #12
	.cfi_def_cfa_offset 32
	mov	r4, r0
	mov	r6, r1
	mov	r5, r2
	.loc 1 1701 3
	.loc 1 1702 3
	.loc 1 1702 24 is_stmt 0
	bl	HAL_GetTick
.LVL169:
	.loc 1 1705 3 is_stmt 1
	.loc 1 1706 3
	.loc 1 1708 3
	.loc 1 1711 3
	.loc 1 1712 3
	.loc 1 1714 5
	.loc 1 1717 3
	.loc 1 1718 3
	.loc 1 1720 5
	.loc 1 1723 3
	.loc 1 1724 3
	.loc 1 1726 3
	.loc 1 1727 3
	.loc 1 1728 3
	.loc 1 1730 3
	.loc 1 1733 3
	.loc 1 1733 7
	.loc 1 1733 17 is_stmt 0
	ldrb	ip, [r4, #64]	@ zero_extendqisi2
	uxtb	ip, ip
	.loc 1 1733 9
	cmp	ip, #1
	beq	.L139
	.loc 1 1733 67 is_stmt 1 discriminator 2
	.loc 1 1733 81 is_stmt 0 discriminator 2
	movs	r3, #1
	strb	r3, [r4, #64]
	.loc 1 1733 5 is_stmt 1 discriminator 2
	.loc 1 1735 3 discriminator 2
	.loc 1 1735 11 is_stmt 0 discriminator 2
	ldrb	ip, [r4, #65]	@ zero_extendqisi2
	uxtb	ip, ip
	.loc 1 1735 5 discriminator 2
	cmp	ip, r3
	beq	.L142
	.loc 1 1770 12
	movs	r7, #2
.LVL170:
.L137:
	.loc 1 1774 3 is_stmt 1
	.loc 1 1774 7
	.loc 1 1774 21 is_stmt 0
	movs	r3, #0
	strb	r3, [r4, #64]
	.loc 1 1774 5 is_stmt 1
	.loc 1 1777 3
.LVL171:
.L136:
	.loc 1 1778 1 is_stmt 0
	mov	r0, r7
	add	sp, sp, #12
	.cfi_remember_state
	.cfi_def_cfa_offset 20
	@ sp needed
	pop	{r4, r5, r6, r7, pc}
.LVL172:
.L142:
	.cfi_restore_state
	.loc 1 1737 5 is_stmt 1
	.loc 1 1737 22 is_stmt 0
	movs	r2, #0
	str	r2, [r4, #68]
	.loc 1 1740 5 is_stmt 1
	.loc 1 1740 18 is_stmt 0
	movs	r3, #130
	strb	r3, [r4, #65]
	.loc 1 1743 5 is_stmt 1
	.loc 1 1743 14 is_stmt 0
	ldr	r3, [r4, #72]
	str	r3, [sp]
	mov	r3, r0
	movs	r1, #32
	mov	r0, r4
.LVL173:
	bl	QSPI_WaitFlagStateUntilTimeout
.LVL174:
	.loc 1 1745 5 is_stmt 1
	.loc 1 1745 8 is_stmt 0
	mov	r7, r0
	cmp	r0, #0
	bne	.L137
	.loc 1 1748 5 is_stmt 1
	.loc 1 1748 43 is_stmt 0
	ldr	r2, [r4]
	.loc 1 1748 53
	ldr	r3, [r2]
	.loc 1 1748 61
	bic	r3, r3, #8
	.loc 1 1748 91
	ldr	r1, [r5, #4]
	.loc 1 1748 85
	orrs	r3, r3, r1
	.loc 1 1748 30
	str	r3, [r2]
	.loc 1 1750 5 is_stmt 1
	.loc 1 1750 12 is_stmt 0
	ldr	r3, [r5, #4]
	.loc 1 1750 8
	cmp	r3, #8
	beq	.L143
.L138:
	.loc 1 1765 7 is_stmt 1
	mov	r2, #201326592
	mov	r1, r6
	mov	r0, r4
.LVL175:
	bl	QSPI_Config
.LVL176:
	b	.L137
.LVL177:
.L143:
	.loc 1 1752 9
	.loc 1 1755 9
	.loc 1 1755 16 is_stmt 0
	ldr	r3, [r4]
	.loc 1 1755 40
	ldr	r2, [r5]
	.loc 1 1755 34
	str	r2, [r3, #48]
	.loc 1 1758 9 is_stmt 1
	.loc 1 1758 18 is_stmt 0
	ldr	r3, [r4]
	.loc 1 1758 35
	movs	r2, #16
	str	r2, [r3, #12]
	.loc 1 1761 9 is_stmt 1
	.loc 1 1761 18 is_stmt 0
	ldr	r2, [r4]
	.loc 1 1761 28
	ldr	r3, [r2]
	.loc 1 1761 34
	orr	r3, r3, #1048576
	str	r3, [r2]
	b	.L138
.LVL178:
.L139:
	.loc 1 1733 48
	movs	r7, #2
	b	.L136
	.cfi_endproc
.LFE350:
	.size	HAL_QSPI_MemoryMapped, .-HAL_QSPI_MemoryMapped
	.section	.text.HAL_QSPI_ErrorCallback,"ax",%progbits
	.align	1
	.weak	HAL_QSPI_ErrorCallback
	.syntax unified
	.thumb
	.thumb_func
	.type	HAL_QSPI_ErrorCallback, %function
HAL_QSPI_ErrorCallback:
.LFB351:
	.loc 1 1786 1 is_stmt 1
	.cfi_startproc
	@ args = 0, pretend = 0, frame = 0
	@ frame_needed = 0, uses_anonymous_args = 0
	@ link register save eliminated.
.LVL179:
	.loc 1 1788 3
	.loc 1 1793 1 is_stmt 0
	bx	lr
	.cfi_endproc
.LFE351:
	.size	HAL_QSPI_ErrorCallback, .-HAL_QSPI_ErrorCallback
	.section	.text.QSPI_DMAAbortCplt,"ax",%progbits
	.align	1
	.syntax unified
	.thumb
	.thumb_func
	.type	QSPI_DMAAbortCplt, %function
QSPI_DMAAbortCplt:
.LFB370:
	.loc 1 2436 1 is_stmt 1
	.cfi_startproc
	@ args = 0, pretend = 0, frame = 0
	@ frame_needed = 0, uses_anonymous_args = 0
.LVL180:
	push	{r3, lr}
	.cfi_def_cfa_offset 8
	.cfi_offset 3, -8
	.cfi_offset 14, -4
	.loc 1 2437 3
	.loc 1 2437 23 is_stmt 0
	ldr	r0, [r0, #64]
.LVL181:
	.loc 1 2439 3 is_stmt 1
	.loc 1 2439 22 is_stmt 0
	movs	r3, #0
	str	r3, [r0, #56]
	.loc 1 2440 3 is_stmt 1
	.loc 1 2440 22 is_stmt 0
	str	r3, [r0, #44]
	.loc 1 2442 3 is_stmt 1
	.loc 1 2442 11 is_stmt 0
	ldrb	r3, [r0, #65]	@ zero_extendqisi2
	uxtb	r3, r3
	.loc 1 2442 5
	cmp	r3, #8
	bne	.L146
	.loc 1 2446 5 is_stmt 1
	.loc 1 2446 14 is_stmt 0
	ldr	r3, [r0]
	.loc 1 2446 31
	movs	r2, #2
	str	r2, [r3, #12]
	.loc 1 2449 5 is_stmt 1
	.loc 1 2449 14 is_stmt 0
	ldr	r2, [r0]
	.loc 1 2449 24
	ldr	r3, [r2]
	.loc 1 2449 30
	orr	r3, r3, #131072
	str	r3, [r2]
	.loc 1 2452 5 is_stmt 1
	.loc 1 2452 12 is_stmt 0
	ldr	r2, [r0]
	.loc 1 2452 22
	ldr	r3, [r2]
	.loc 1 2452 28
	orr	r3, r3, #2
	str	r3, [r2]
.LVL182:
.L145:
	.loc 1 2467 1
	pop	{r3, pc}
.LVL183:
.L146:
	.loc 1 2458 5 is_stmt 1
	.loc 1 2458 18 is_stmt 0
	movs	r3, #1
	strb	r3, [r0, #65]
	.loc 1 2464 5 is_stmt 1
	bl	HAL_QSPI_ErrorCallback
.LVL184:
	.loc 1 2467 1 is_stmt 0
	b	.L145
	.cfi_endproc
.LFE370:
	.size	QSPI_DMAAbortCplt, .-QSPI_DMAAbortCplt
	.section	.text.HAL_QSPI_AbortCpltCallback,"ax",%progbits
	.align	1
	.weak	HAL_QSPI_AbortCpltCallback
	.syntax unified
	.thumb
	.thumb_func
	.type	HAL_QSPI_AbortCpltCallback, %function
HAL_QSPI_AbortCpltCallback:
.LFB352:
	.loc 1 1801 1 is_stmt 1
	.cfi_startproc
	@ args = 0, pretend = 0, frame = 0
	@ frame_needed = 0, uses_anonymous_args = 0
	@ link register save eliminated.
.LVL185:
	.loc 1 1803 3
	.loc 1 1808 1 is_stmt 0
	bx	lr
	.cfi_endproc
.LFE352:
	.size	HAL_QSPI_AbortCpltCallback, .-HAL_QSPI_AbortCpltCallback
	.section	.text.HAL_QSPI_CmdCpltCallback,"ax",%progbits
	.align	1
	.weak	HAL_QSPI_CmdCpltCallback
	.syntax unified
	.thumb
	.thumb_func
	.type	HAL_QSPI_CmdCpltCallback, %function
HAL_QSPI_CmdCpltCallback:
.LFB353:
	.loc 1 1816 1 is_stmt 1
	.cfi_startproc
	@ args = 0, pretend = 0, frame = 0
	@ frame_needed = 0, uses_anonymous_args = 0
	@ link register save eliminated.
.LVL186:
	.loc 1 1818 3
	.loc 1 1823 1 is_stmt 0
	bx	lr
	.cfi_endproc
.LFE353:
	.size	HAL_QSPI_CmdCpltCallback, .-HAL_QSPI_CmdCpltCallback
	.section	.text.HAL_QSPI_RxCpltCallback,"ax",%progbits
	.align	1
	.weak	HAL_QSPI_RxCpltCallback
	.syntax unified
	.thumb
	.thumb_func
	.type	HAL_QSPI_RxCpltCallback, %function
HAL_QSPI_RxCpltCallback:
.LFB354:
	.loc 1 1831 1 is_stmt 1
	.cfi_startproc
	@ args = 0, pretend = 0, frame = 0
	@ frame_needed = 0, uses_anonymous_args = 0
	@ link register save eliminated.
.LVL187:
	.loc 1 1833 3
	.loc 1 1838 1 is_stmt 0
	bx	lr
	.cfi_endproc
.LFE354:
	.size	HAL_QSPI_RxCpltCallback, .-HAL_QSPI_RxCpltCallback
	.section	.text.HAL_QSPI_TxCpltCallback,"ax",%progbits
	.align	1
	.weak	HAL_QSPI_TxCpltCallback
	.syntax unified
	.thumb
	.thumb_func
	.type	HAL_QSPI_TxCpltCallback, %function
HAL_QSPI_TxCpltCallback:
.LFB355:
	.loc 1 1846 1 is_stmt 1
	.cfi_startproc
	@ args = 0, pretend = 0, frame = 0
	@ frame_needed = 0, uses_anonymous_args = 0
	@ link register save eliminated.
.LVL188:
	.loc 1 1848 3
	.loc 1 1853 1 is_stmt 0
	bx	lr
	.cfi_endproc
.LFE355:
	.size	HAL_QSPI_TxCpltCallback, .-HAL_QSPI_TxCpltCallback
	.section	.text.HAL_QSPI_FifoThresholdCallback,"ax",%progbits
	.align	1
	.weak	HAL_QSPI_FifoThresholdCallback
	.syntax unified
	.thumb
	.thumb_func
	.type	HAL_QSPI_FifoThresholdCallback, %function
HAL_QSPI_FifoThresholdCallback:
.LFB356:
	.loc 1 1862 1 is_stmt 1
	.cfi_startproc
	@ args = 0, pretend = 0, frame = 0
	@ frame_needed = 0, uses_anonymous_args = 0
	@ link register save eliminated.
.LVL189:
	.loc 1 1864 3
	.loc 1 1869 1 is_stmt 0
	bx	lr
	.cfi_endproc
.LFE356:
	.size	HAL_QSPI_FifoThresholdCallback, .-HAL_QSPI_FifoThresholdCallback
	.section	.text.HAL_QSPI_StatusMatchCallback,"ax",%progbits
	.align	1
	.weak	HAL_QSPI_StatusMatchCallback
	.syntax unified
	.thumb
	.thumb_func
	.type	HAL_QSPI_StatusMatchCallback, %function
HAL_QSPI_StatusMatchCallback:
.LFB357:
	.loc 1 1877 1 is_stmt 1
	.cfi_startproc
	@ args = 0, pretend = 0, frame = 0
	@ frame_needed = 0, uses_anonymous_args = 0
	@ link register save eliminated.
.LVL190:
	.loc 1 1879 3
	.loc 1 1884 1 is_stmt 0
	bx	lr
	.cfi_endproc
.LFE357:
	.size	HAL_QSPI_StatusMatchCallback, .-HAL_QSPI_StatusMatchCallback
	.section	.text.HAL_QSPI_TimeOutCallback,"ax",%progbits
	.align	1
	.weak	HAL_QSPI_TimeOutCallback
	.syntax unified
	.thumb
	.thumb_func
	.type	HAL_QSPI_TimeOutCallback, %function
HAL_QSPI_TimeOutCallback:
.LFB358:
	.loc 1 1892 1 is_stmt 1
	.cfi_startproc
	@ args = 0, pretend = 0, frame = 0
	@ frame_needed = 0, uses_anonymous_args = 0
	@ link register save eliminated.
.LVL191:
	.loc 1 1894 3
	.loc 1 1899 1 is_stmt 0
	bx	lr
	.cfi_endproc
.LFE358:
	.size	HAL_QSPI_TimeOutCallback, .-HAL_QSPI_TimeOutCallback
	.section	.text.HAL_QSPI_IRQHandler,"ax",%progbits
	.align	1
	.global	HAL_QSPI_IRQHandler
	.syntax unified
	.thumb
	.thumb_func
	.type	HAL_QSPI_IRQHandler, %function
HAL_QSPI_IRQHandler:
.LFB339:
	.loc 1 493 1 is_stmt 1
	.cfi_startproc
	@ args = 0, pretend = 0, frame = 0
	@ frame_needed = 0, uses_anonymous_args = 0
.LVL192:
	push	{r4, lr}
	.cfi_def_cfa_offset 8
	.cfi_offset 4, -8
	.cfi_offset 14, -4
	mov	r4, r0
	.loc 1 494 3
	.loc 1 495 3
	.loc 1 495 26 is_stmt 0
	ldr	r3, [r0]
	.loc 1 495 12
	ldr	r2, [r3, #8]
.LVL193:
	.loc 1 496 3 is_stmt 1
	.loc 1 496 12 is_stmt 0
	ldr	r1, [r3]
.LVL194:
	.loc 1 499 3 is_stmt 1
	.loc 1 499 5 is_stmt 0
	tst	r2, #4
	beq	.L157
	.loc 1 499 39 discriminator 1
	tst	r1, #262144
	beq	.L157
	.loc 1 501 5 is_stmt 1
.LVL195:
	.loc 1 503 5
	.loc 1 503 13 is_stmt 0
	ldrb	r2, [r0, #65]	@ zero_extendqisi2
.LVL196:
	uxtb	r2, r2
	.loc 1 503 7
	cmp	r2, #18
	beq	.L158
	.loc 1 524 10 is_stmt 1
	.loc 1 524 18 is_stmt 0
	ldrb	r2, [r0, #65]	@ zero_extendqisi2
	uxtb	r2, r2
	.loc 1 524 12
	cmp	r2, #34
	beq	.L163
.LVL197:
.L161:
	.loc 1 548 5 is_stmt 1
	.loc 1 554 5
	mov	r0, r4
.LVL198:
	bl	HAL_QSPI_FifoThresholdCallback
.LVL199:
.L156:
	.loc 1 774 1 is_stmt 0
	pop	{r4, pc}
.LVL200:
.L182:
	.loc 1 511 11 is_stmt 1
	.loc 1 511 51 is_stmt 0
	ldr	r2, [r4, #36]
	.loc 1 511 45
	ldrb	r2, [r2]	@ zero_extendqisi2
	.loc 1 511 43
	strb	r2, [r3, #32]
	.loc 1 512 11 is_stmt 1
	.loc 1 512 16 is_stmt 0
	ldr	r2, [r4, #36]
	.loc 1 512 28
	adds	r2, r2, #1
	str	r2, [r4, #36]
	.loc 1 513 11 is_stmt 1
	.loc 1 513 16 is_stmt 0
	ldr	r2, [r4, #44]
	.loc 1 513 29
	subs	r2, r2, #1
	str	r2, [r4, #44]
.L158:
	.loc 1 506 85 is_stmt 1
	.loc 1 506 24 is_stmt 0
	ldr	r2, [r4]
	.loc 1 506 34
	ldr	r1, [r2, #8]
	.loc 1 506 85
	tst	r1, #4
	beq	.L161
	.loc 1 508 9 is_stmt 1
	.loc 1 508 18 is_stmt 0
	ldr	r1, [r4, #44]
	.loc 1 508 12
	cmp	r1, #0
	bne	.L182
	.loc 1 519 11 is_stmt 1
	.loc 1 519 30 is_stmt 0
	ldr	r3, [r2]
.LVL201:
	.loc 1 519 36
	bic	r3, r3, #262144
	str	r3, [r2]
	.loc 1 520 11 is_stmt 1
	b	.L161
.LVL202:
.L164:
	.loc 1 540 11
	.loc 1 540 30 is_stmt 0
	ldr	r3, [r2]
.LVL203:
	.loc 1 540 36
	bic	r3, r3, #262144
	str	r3, [r2]
	.loc 1 541 11 is_stmt 1
	b	.L161
.LVL204:
.L163:
	.loc 1 527 85
	.loc 1 527 24 is_stmt 0
	ldr	r2, [r4]
	.loc 1 527 34
	ldr	r1, [r2, #8]
	.loc 1 527 85
	tst	r1, #4
	beq	.L161
	.loc 1 529 9 is_stmt 1
	.loc 1 529 18 is_stmt 0
	ldr	r1, [r4, #56]
	.loc 1 529 12
	cmp	r1, #0
	beq	.L164
	.loc 1 532 11 is_stmt 1
	.loc 1 532 17 is_stmt 0
	ldr	r2, [r4, #48]
	.loc 1 532 32
	ldrb	r1, [r3, #32]	@ zero_extendqisi2
	.loc 1 532 30
	strb	r1, [r2]
	.loc 1 533 11 is_stmt 1
	.loc 1 533 16 is_stmt 0
	ldr	r2, [r4, #48]
	.loc 1 533 28
	adds	r2, r2, #1
	str	r2, [r4, #48]
	.loc 1 534 11 is_stmt 1
	.loc 1 534 16 is_stmt 0
	ldr	r2, [r4, #56]
	.loc 1 534 29
	subs	r2, r2, #1
	str	r2, [r4, #56]
	b	.L163
.LVL205:
.L157:
	.loc 1 559 8 is_stmt 1
	.loc 1 559 10 is_stmt 0
	tst	r2, #2
	beq	.L167
	.loc 1 559 44 discriminator 1
	tst	r1, #131072
	beq	.L167
	.loc 1 562 5 is_stmt 1
	.loc 1 562 29 is_stmt 0
	movs	r2, #2
.LVL206:
	str	r2, [r3, #12]
	.loc 1 565 5 is_stmt 1
	.loc 1 565 14 is_stmt 0
	ldr	r2, [r4]
	.loc 1 565 24
	ldr	r3, [r2]
	.loc 1 565 30
	bic	r3, r3, #458752
	str	r3, [r2]
	.loc 1 568 5 is_stmt 1
	.loc 1 568 13 is_stmt 0
	ldrb	r3, [r4, #65]	@ zero_extendqisi2
	uxtb	r3, r3
	.loc 1 568 7
	cmp	r3, #18
	beq	.L183
	.loc 1 591 10 is_stmt 1
	.loc 1 591 18 is_stmt 0
	ldrb	r3, [r4, #65]	@ zero_extendqisi2
	uxtb	r3, r3
	.loc 1 591 12
	cmp	r3, #34
	beq	.L184
	.loc 1 633 10 is_stmt 1
	.loc 1 633 18 is_stmt 0
	ldrb	r3, [r4, #65]	@ zero_extendqisi2
	uxtb	r3, r3
	.loc 1 633 12
	cmp	r3, #2
	beq	.L185
	.loc 1 645 10 is_stmt 1
	.loc 1 645 18 is_stmt 0
	ldrb	r3, [r4, #65]	@ zero_extendqisi2
	uxtb	r3, r3
	.loc 1 645 12
	cmp	r3, #8
	bne	.L156
	.loc 1 648 7 is_stmt 1
	.loc 1 648 14 is_stmt 0
	ldr	r2, [r4]
	.loc 1 648 24
	ldr	r3, [r2, #20]
	.loc 1 648 31
	bic	r3, r3, #201326592
	str	r3, [r2, #20]
	.loc 1 651 7 is_stmt 1
	.loc 1 651 20 is_stmt 0
	movs	r3, #1
	strb	r3, [r4, #65]
	.loc 1 653 7 is_stmt 1
	.loc 1 653 16 is_stmt 0
	ldr	r3, [r4, #68]
	.loc 1 653 10
	cmp	r3, #0
	bne	.L175
	.loc 1 661 9 is_stmt 1
	mov	r0, r4
.LVL207:
	bl	HAL_QSPI_AbortCpltCallback
.LVL208:
	b	.L156
.LVL209:
.L183:
	.loc 1 570 7
	.loc 1 570 17 is_stmt 0
	ldr	r3, [r4]
	.loc 1 570 27
	ldr	r2, [r3]
	.loc 1 570 10
	tst	r2, #4
	beq	.L169
	.loc 1 574 9 is_stmt 1
	.loc 1 574 26 is_stmt 0
	ldr	r2, [r3]
	.loc 1 574 32
	bic	r2, r2, #4
	str	r2, [r3]
	.loc 1 577 9 is_stmt 1
	.loc 1 577 16 is_stmt 0
	ldr	r3, [r4, #60]
	.loc 1 577 24
	ldr	r2, [r3]
	.loc 1 577 34
	ldr	r3, [r2, #12]
	.loc 1 577 40
	bic	r3, r3, #1
	str	r3, [r2, #12]
.L169:
	.loc 1 582 7 is_stmt 1
	.loc 1 582 20 is_stmt 0
	movs	r3, #1
	strb	r3, [r4, #65]
	.loc 1 588 7 is_stmt 1
	mov	r0, r4
.LVL210:
	bl	HAL_QSPI_TxCpltCallback
.LVL211:
	b	.L156
.LVL212:
.L184:
	.loc 1 593 7
	.loc 1 593 17 is_stmt 0
	ldr	r1, [r4]
.LVL213:
	.loc 1 593 27
	ldr	r3, [r1]
	.loc 1 593 10
	tst	r3, #4
	beq	.L171
	.loc 1 597 9 is_stmt 1
	.loc 1 597 26 is_stmt 0
	ldr	r3, [r1]
	.loc 1 597 32
	bic	r3, r3, #4
	str	r3, [r1]
	.loc 1 600 9 is_stmt 1
	.loc 1 600 16 is_stmt 0
	ldr	r3, [r4, #60]
	.loc 1 600 24
	ldr	r2, [r3]
	.loc 1 600 34
	ldr	r3, [r2, #12]
	.loc 1 600 40
	bic	r3, r3, #1
	str	r3, [r2, #12]
.L172:
	.loc 1 624 7 is_stmt 1
	.loc 1 624 20 is_stmt 0
	movs	r3, #1
	strb	r3, [r4, #65]
	.loc 1 630 7 is_stmt 1
	mov	r0, r4
.LVL214:
	bl	HAL_QSPI_RxCpltCallback
.LVL215:
	b	.L156
.LVL216:
.L171:
	.loc 1 605 60
	.loc 1 605 22 is_stmt 0
	ldr	r3, [r4]
	.loc 1 605 32
	ldr	r3, [r3, #8]
	.loc 1 605 60
	tst	r3, #16128
	beq	.L172
	.loc 1 607 11 is_stmt 1
	.loc 1 607 20 is_stmt 0
	ldr	r3, [r4, #56]
	.loc 1 607 14
	cmp	r3, #0
	beq	.L172
	.loc 1 610 13 is_stmt 1
	.loc 1 610 19 is_stmt 0
	ldr	r3, [r4, #48]
	.loc 1 610 34
	ldrb	r2, [r1, #32]	@ zero_extendqisi2
	.loc 1 610 32
	strb	r2, [r3]
	.loc 1 611 13 is_stmt 1
	.loc 1 611 18 is_stmt 0
	ldr	r3, [r4, #48]
	.loc 1 611 30
	adds	r3, r3, #1
	str	r3, [r4, #48]
	.loc 1 612 13 is_stmt 1
	.loc 1 612 18 is_stmt 0
	ldr	r3, [r4, #56]
	.loc 1 612 31
	subs	r3, r3, #1
	str	r3, [r4, #56]
	b	.L171
.LVL217:
.L185:
	.loc 1 636 7 is_stmt 1
	.loc 1 636 20 is_stmt 0
	movs	r3, #1
	strb	r3, [r4, #65]
	.loc 1 642 7 is_stmt 1
	mov	r0, r4
.LVL218:
	bl	HAL_QSPI_CmdCpltCallback
.LVL219:
	b	.L156
.LVL220:
.L175:
	.loc 1 672 9
	mov	r0, r4
.LVL221:
	bl	HAL_QSPI_ErrorCallback
.LVL222:
	b	.L156
.LVL223:
.L167:
	.loc 1 683 8
	.loc 1 683 10 is_stmt 0
	tst	r2, #8
	beq	.L176
	.loc 1 683 44 discriminator 1
	tst	r1, #524288
	beq	.L176
	.loc 1 686 5 is_stmt 1
	.loc 1 686 29 is_stmt 0
	movs	r2, #8
.LVL224:
	str	r2, [r3, #12]
	.loc 1 689 5 is_stmt 1
	.loc 1 689 15 is_stmt 0
	ldr	r3, [r4]
	.loc 1 689 25
	ldr	r2, [r3]
	.loc 1 689 7
	tst	r2, #4194304
	beq	.L177
	.loc 1 692 7 is_stmt 1
	.loc 1 692 26 is_stmt 0
	ldr	r2, [r3]
	.loc 1 692 32
	bic	r2, r2, #589824
	str	r2, [r3]
	.loc 1 695 7 is_stmt 1
	.loc 1 695 20 is_stmt 0
	movs	r3, #1
	strb	r3, [r4, #65]
.L177:
	.loc 1 702 5 is_stmt 1
	mov	r0, r4
.LVL225:
	bl	HAL_QSPI_StatusMatchCallback
.LVL226:
	b	.L156
.LVL227:
.L176:
	.loc 1 707 8
	.loc 1 707 10 is_stmt 0
	tst	r2, #1
	beq	.L178
	.loc 1 707 44 discriminator 1
	tst	r1, #65536
	beq	.L178
	.loc 1 710 5 is_stmt 1
	.loc 1 710 29 is_stmt 0
	movs	r2, #1
.LVL228:
	str	r2, [r3, #12]
	.loc 1 713 5 is_stmt 1
	.loc 1 713 14 is_stmt 0
	ldr	r2, [r4]
	.loc 1 713 24
	ldr	r3, [r2]
	.loc 1 713 30
	bic	r3, r3, #983040
	str	r3, [r2]
	.loc 1 716 5 is_stmt 1
	.loc 1 716 10 is_stmt 0
	ldr	r3, [r4, #68]
	.loc 1 716 22
	orr	r3, r3, #2
	str	r3, [r4, #68]
	.loc 1 718 5 is_stmt 1
	.loc 1 718 15 is_stmt 0
	ldr	r3, [r4]
	.loc 1 718 25
	ldr	r2, [r3]
	.loc 1 718 8
	tst	r2, #4
	beq	.L179
	.loc 1 722 7 is_stmt 1
	.loc 1 722 24 is_stmt 0
	ldr	r2, [r3]
	.loc 1 722 30
	bic	r2, r2, #4
	str	r2, [r3]
	.loc 1 725 7 is_stmt 1
	.loc 1 725 12 is_stmt 0
	ldr	r3, [r4, #60]
	.loc 1 725 39
	ldr	r2, .L186
	str	r2, [r3, #88]
	.loc 1 726 7 is_stmt 1
	.loc 1 726 11 is_stmt 0
	ldr	r0, [r4, #60]
.LVL229:
	bl	HAL_MDMA_Abort_IT
.LVL230:
	.loc 1 726 10
	cmp	r0, #0
	beq	.L156
	.loc 1 729 9 is_stmt 1
	.loc 1 729 14 is_stmt 0
	ldr	r3, [r4, #68]
	.loc 1 729 26
	orr	r3, r3, #4
	str	r3, [r4, #68]
	.loc 1 732 9 is_stmt 1
	.loc 1 732 22 is_stmt 0
	movs	r3, #1
	strb	r3, [r4, #65]
	.loc 1 738 9 is_stmt 1
	mov	r0, r4
	bl	HAL_QSPI_ErrorCallback
.LVL231:
	b	.L156
.LVL232:
.L179:
	.loc 1 745 7
	.loc 1 745 20 is_stmt 0
	movs	r3, #1
	strb	r3, [r4, #65]
	.loc 1 751 7 is_stmt 1
	mov	r0, r4
.LVL233:
	bl	HAL_QSPI_ErrorCallback
.LVL234:
	b	.L156
.LVL235:
.L178:
	.loc 1 757 8
	.loc 1 757 10 is_stmt 0
	tst	r2, #16
	beq	.L156
	.loc 1 757 44 discriminator 1
	tst	r1, #1048576
	beq	.L156
	.loc 1 760 5 is_stmt 1
	.loc 1 760 29 is_stmt 0
	movs	r2, #16
.LVL236:
	str	r2, [r3, #12]
	.loc 1 766 5 is_stmt 1
	mov	r0, r4
.LVL237:
	bl	HAL_QSPI_TimeOutCallback
.LVL238:
	.loc 1 773 3
	.loc 1 774 1 is_stmt 0
	b	.L156
.L187:
	.align	2
.L186:
	.word	QSPI_DMAAbortCplt
	.cfi_endproc
.LFE339:
	.size	HAL_QSPI_IRQHandler, .-HAL_QSPI_IRQHandler
	.section	.text.HAL_QSPI_GetState,"ax",%progbits
	.align	1
	.global	HAL_QSPI_GetState
	.syntax unified
	.thumb
	.thumb_func
	.type	HAL_QSPI_GetState, %function
HAL_QSPI_GetState:
.LFB359:
	.loc 1 2134 1 is_stmt 1
	.cfi_startproc
	@ args = 0, pretend = 0, frame = 0
	@ frame_needed = 0, uses_anonymous_args = 0
	@ link register save eliminated.
.LVL239:
	.loc 1 2136 3
	.loc 1 2136 15 is_stmt 0
	ldrb	r0, [r0, #65]	@ zero_extendqisi2
.LVL240:
	.loc 1 2137 1
	bx	lr
	.cfi_endproc
.LFE359:
	.size	HAL_QSPI_GetState, .-HAL_QSPI_GetState
	.section	.text.HAL_QSPI_GetError,"ax",%progbits
	.align	1
	.global	HAL_QSPI_GetError
	.syntax unified
	.thumb
	.thumb_func
	.type	HAL_QSPI_GetError, %function
HAL_QSPI_GetError:
.LFB360:
	.loc 1 2145 1 is_stmt 1
	.cfi_startproc
	@ args = 0, pretend = 0, frame = 0
	@ frame_needed = 0, uses_anonymous_args = 0
	@ link register save eliminated.
.LVL241:
	.loc 1 2146 3
	.loc 1 2146 15 is_stmt 0
	ldr	r0, [r0, #68]
.LVL242:
	.loc 1 2147 1
	bx	lr
	.cfi_endproc
.LFE360:
	.size	HAL_QSPI_GetError, .-HAL_QSPI_GetError
	.section	.text.HAL_QSPI_Abort,"ax",%progbits
	.align	1
	.global	HAL_QSPI_Abort
	.syntax unified
	.thumb
	.thumb_func
	.type	HAL_QSPI_Abort, %function
HAL_QSPI_Abort:
.LFB361:
	.loc 1 2155 1 is_stmt 1
	.cfi_startproc
	@ args = 0, pretend = 0, frame = 0
	@ frame_needed = 0, uses_anonymous_args = 0
.LVL243:
	push	{r4, r5, lr}
	.cfi_def_cfa_offset 12
	.cfi_offset 4, -12
	.cfi_offset 5, -8
	.cfi_offset 14, -4
	sub	sp, sp, #12
	.cfi_def_cfa_offset 24
	mov	r4, r0
	.loc 1 2156 3
.LVL244:
	.loc 1 2157 3
	.loc 1 2157 24 is_stmt 0
	bl	HAL_GetTick
.LVL245:
	mov	r5, r0
.LVL246:
	.loc 1 2160 3 is_stmt 1
	.loc 1 2160 23 is_stmt 0
	ldrb	r2, [r4, #65]	@ zero_extendqisi2
	.loc 1 2160 6
	ands	r0, r2, #2
.LVL247:
	beq	.L191
	.loc 1 2163 5 is_stmt 1
	.loc 1 2163 9
	.loc 1 2163 23 is_stmt 0
	movs	r3, #0
	strb	r3, [r4, #64]
	.loc 1 2163 7 is_stmt 1
	.loc 1 2165 5
	.loc 1 2165 15 is_stmt 0
	ldr	r3, [r4]
	.loc 1 2165 25
	ldr	r2, [r3]
	.loc 1 2165 8
	tst	r2, #4
	bne	.L196
	.loc 1 2156 21
	movs	r0, #0
.LVL248:
.L192:
	.loc 1 2179 5 is_stmt 1
	.loc 1 2179 20 is_stmt 0
	ldr	r3, [r4]
	.loc 1 2179 30
	ldr	r2, [r3, #8]
	.loc 1 2179 8
	tst	r2, #32
	bne	.L197
	.loc 1 2207 7 is_stmt 1
	.loc 1 2207 20 is_stmt 0
	movs	r3, #1
	strb	r3, [r4, #65]
.LVL249:
.L191:
	.loc 1 2211 3 is_stmt 1
	.loc 1 2212 1 is_stmt 0
	add	sp, sp, #12
	.cfi_remember_state
	.cfi_def_cfa_offset 12
	@ sp needed
	pop	{r4, r5, pc}
.LVL250:
.L196:
	.cfi_restore_state
	.loc 1 2169 7 is_stmt 1
	.loc 1 2169 24 is_stmt 0
	ldr	r2, [r3]
	.loc 1 2169 30
	bic	r2, r2, #4
	str	r2, [r3]
	.loc 1 2172 7 is_stmt 1
	.loc 1 2172 16 is_stmt 0
	ldr	r0, [r4, #60]
	bl	HAL_MDMA_Abort
.LVL251:
	.loc 1 2173 7 is_stmt 1
	.loc 1 2173 9 is_stmt 0
	cmp	r0, #0
	beq	.L192
	.loc 1 2175 9 is_stmt 1
	.loc 1 2175 14 is_stmt 0
	ldr	r3, [r4, #68]
	.loc 1 2175 26
	orr	r3, r3, #4
	str	r3, [r4, #68]
	b	.L192
.L197:
	.loc 1 2182 7 is_stmt 1
	.loc 1 2182 24 is_stmt 0
	ldr	r2, [r3]
	.loc 1 2182 30
	orr	r2, r2, #2
	str	r2, [r3]
	.loc 1 2185 7 is_stmt 1
	.loc 1 2185 16 is_stmt 0
	ldr	r3, [r4, #72]
	str	r3, [sp]
	mov	r3, r5
	movs	r2, #1
	movs	r1, #2
	mov	r0, r4
.LVL252:
	bl	QSPI_WaitFlagStateUntilTimeout
.LVL253:
	.loc 1 2187 7 is_stmt 1
	.loc 1 2187 10 is_stmt 0
	cmp	r0, #0
	bne	.L191
	.loc 1 2189 9 is_stmt 1
	.loc 1 2189 18 is_stmt 0
	ldr	r3, [r4]
	.loc 1 2189 35
	movs	r2, #2
	str	r2, [r3, #12]
	.loc 1 2192 9 is_stmt 1
	.loc 1 2192 18 is_stmt 0
	ldr	r3, [r4, #72]
	str	r3, [sp]
	mov	r3, r5
	movs	r2, #0
	movs	r1, #32
	mov	r0, r4
.LVL254:
	bl	QSPI_WaitFlagStateUntilTimeout
.LVL255:
	.loc 1 2195 7 is_stmt 1
	.loc 1 2195 10 is_stmt 0
	cmp	r0, #0
	bne	.L191
	.loc 1 2198 9 is_stmt 1
	.loc 1 2198 16 is_stmt 0
	ldr	r2, [r4]
	.loc 1 2198 26
	ldr	r3, [r2, #20]
	.loc 1 2198 33
	bic	r3, r3, #201326592
	str	r3, [r2, #20]
	.loc 1 2201 9 is_stmt 1
	.loc 1 2201 22 is_stmt 0
	movs	r3, #1
	strb	r3, [r4, #65]
	b	.L191
	.cfi_endproc
.LFE361:
	.size	HAL_QSPI_Abort, .-HAL_QSPI_Abort
	.section	.text.HAL_QSPI_Abort_IT,"ax",%progbits
	.align	1
	.global	HAL_QSPI_Abort_IT
	.syntax unified
	.thumb
	.thumb_func
	.type	HAL_QSPI_Abort_IT, %function
HAL_QSPI_Abort_IT:
.LFB362:
	.loc 1 2220 1 is_stmt 1
	.cfi_startproc
	@ args = 0, pretend = 0, frame = 0
	@ frame_needed = 0, uses_anonymous_args = 0
.LVL256:
	.loc 1 2221 3
	.loc 1 2224 3
	.loc 1 2224 23 is_stmt 0
	ldrb	r3, [r0, #65]	@ zero_extendqisi2
	.loc 1 2224 6
	tst	r3, #2
	beq	.L203
	.loc 1 2220 1
	push	{r4, lr}
	.cfi_def_cfa_offset 8
	.cfi_offset 4, -8
	.cfi_offset 14, -4
	mov	r4, r0
	.loc 1 2227 5 is_stmt 1
	.loc 1 2227 9
	.loc 1 2227 23 is_stmt 0
	movs	r3, #0
	strb	r3, [r0, #64]
	.loc 1 2227 7 is_stmt 1
	.loc 1 2230 5
	.loc 1 2230 18 is_stmt 0
	movs	r3, #8
	strb	r3, [r0, #65]
	.loc 1 2233 5 is_stmt 1
	.loc 1 2233 14 is_stmt 0
	ldr	r2, [r0]
	.loc 1 2233 24
	ldr	r3, [r2]
	.loc 1 2233 30
	bic	r3, r3, #2031616
	str	r3, [r2]
	.loc 1 2235 5 is_stmt 1
	.loc 1 2235 15 is_stmt 0
	ldr	r3, [r0]
	.loc 1 2235 25
	ldr	r2, [r3]
	.loc 1 2235 8
	tst	r2, #4
	bne	.L206
	.loc 1 2258 7 is_stmt 1
	.loc 1 2258 32 is_stmt 0
	ldr	r2, [r3, #8]
	.loc 1 2258 10
	tst	r2, #32
	beq	.L201
	.loc 1 2261 9 is_stmt 1
	.loc 1 2261 35 is_stmt 0
	movs	r2, #2
	str	r2, [r3, #12]
	.loc 1 2264 9 is_stmt 1
	.loc 1 2264 18 is_stmt 0
	ldr	r2, [r0]
	.loc 1 2264 28
	ldr	r3, [r2]
	.loc 1 2264 34
	orr	r3, r3, #131072
	str	r3, [r2]
	.loc 1 2267 9 is_stmt 1
	.loc 1 2267 16 is_stmt 0
	ldr	r2, [r0]
	.loc 1 2267 26
	ldr	r3, [r2]
	.loc 1 2267 32
	orr	r3, r3, #2
	str	r3, [r2]
.LVL257:
.L199:
	.loc 1 2276 3 is_stmt 1
	.loc 1 2277 1 is_stmt 0
	movs	r0, #0
	pop	{r4, pc}
.LVL258:
.L206:
	.loc 1 2239 7 is_stmt 1
	.loc 1 2239 24 is_stmt 0
	ldr	r2, [r3]
	.loc 1 2239 30
	bic	r2, r2, #4
	str	r2, [r3]
	.loc 1 2242 7 is_stmt 1
	.loc 1 2242 12 is_stmt 0
	ldr	r3, [r0, #60]
	.loc 1 2242 39
	ldr	r2, .L207
	str	r2, [r3, #88]
	.loc 1 2243 7 is_stmt 1
	.loc 1 2243 11 is_stmt 0
	ldr	r0, [r0, #60]
.LVL259:
	bl	HAL_MDMA_Abort_IT
.LVL260:
	.loc 1 2243 10
	cmp	r0, #0
	beq	.L199
	.loc 1 2246 9 is_stmt 1
	.loc 1 2246 22 is_stmt 0
	movs	r3, #1
	strb	r3, [r4, #65]
	.loc 1 2252 9 is_stmt 1
	mov	r0, r4
	bl	HAL_QSPI_AbortCpltCallback
.LVL261:
	b	.L199
.LVL262:
.L201:
	.loc 1 2272 9
	.loc 1 2272 22 is_stmt 0
	movs	r3, #1
	strb	r3, [r0, #65]
	b	.L199
.L203:
	.cfi_def_cfa_offset 0
	.cfi_restore 4
	.cfi_restore 14
	.loc 1 2276 3 is_stmt 1
	.loc 1 2277 1 is_stmt 0
	movs	r0, #0
.LVL263:
	bx	lr
.L208:
	.align	2
.L207:
	.word	QSPI_DMAAbortCplt
	.cfi_endproc
.LFE362:
	.size	HAL_QSPI_Abort_IT, .-HAL_QSPI_Abort_IT
	.section	.text.QSPI_DMAError,"ax",%progbits
	.align	1
	.syntax unified
	.thumb
	.thumb_func
	.type	QSPI_DMAError, %function
QSPI_DMAError:
.LFB369:
	.loc 1 2414 1 is_stmt 1
	.cfi_startproc
	@ args = 0, pretend = 0, frame = 0
	@ frame_needed = 0, uses_anonymous_args = 0
.LVL264:
	push	{r3, lr}
	.cfi_def_cfa_offset 8
	.cfi_offset 3, -8
	.cfi_offset 14, -4
	.loc 1 2415 3
	.loc 1 2415 23 is_stmt 0
	ldr	r0, [r0, #64]
.LVL265:
	.loc 1 2417 3 is_stmt 1
	.loc 1 2417 22 is_stmt 0
	movs	r3, #0
	str	r3, [r0, #56]
	.loc 1 2418 3 is_stmt 1
	.loc 1 2418 22 is_stmt 0
	str	r3, [r0, #44]
	.loc 1 2419 3 is_stmt 1
	.loc 1 2419 8 is_stmt 0
	ldr	r3, [r0, #68]
	.loc 1 2419 20
	orr	r3, r3, #4
	str	r3, [r0, #68]
	.loc 1 2423 3 is_stmt 1
	.loc 1 2423 10 is_stmt 0
	ldr	r2, [r0]
	.loc 1 2423 20
	ldr	r3, [r2]
	.loc 1 2423 26
	bic	r3, r3, #4
	str	r3, [r2]
	.loc 1 2426 3 is_stmt 1
	.loc 1 2426 9 is_stmt 0
	bl	HAL_QSPI_Abort_IT
.LVL266:
	.loc 1 2428 1
	pop	{r3, pc}
	.cfi_endproc
.LFE369:
	.size	QSPI_DMAError, .-QSPI_DMAError
	.section	.text.HAL_QSPI_SetTimeout,"ax",%progbits
	.align	1
	.global	HAL_QSPI_SetTimeout
	.syntax unified
	.thumb
	.thumb_func
	.type	HAL_QSPI_SetTimeout, %function
HAL_QSPI_SetTimeout:
.LFB363:
	.loc 1 2285 1 is_stmt 1
	.cfi_startproc
	@ args = 0, pretend = 0, frame = 0
	@ frame_needed = 0, uses_anonymous_args = 0
	@ link register save eliminated.
.LVL267:
	.loc 1 2286 3
	.loc 1 2286 18 is_stmt 0
	str	r1, [r0, #72]
	.loc 1 2287 1
	bx	lr
	.cfi_endproc
.LFE363:
	.size	HAL_QSPI_SetTimeout, .-HAL_QSPI_SetTimeout
	.section	.text.HAL_QSPI_Init,"ax",%progbits
	.align	1
	.global	HAL_QSPI_Init
	.syntax unified
	.thumb
	.thumb_func
	.type	HAL_QSPI_Init, %function
HAL_QSPI_Init:
.LFB335:
	.loc 1 307 1 is_stmt 1
	.cfi_startproc
	@ args = 0, pretend = 0, frame = 0
	@ frame_needed = 0, uses_anonymous_args = 0
.LVL268:
	push	{r4, r5, r6, lr}
	.cfi_def_cfa_offset 16
	.cfi_offset 4, -16
	.cfi_offset 5, -12
	.cfi_offset 6, -8
	.cfi_offset 14, -4
	sub	sp, sp, #8
	.cfi_def_cfa_offset 24
	mov	r4, r0
	.loc 1 308 3
	.loc 1 309 3
	.loc 1 309 24 is_stmt 0
	bl	HAL_GetTick
.LVL269:
	.loc 1 312 3 is_stmt 1
	.loc 1 312 5 is_stmt 0
	cmp	r4, #0
	beq	.L215
	mov	r6, r0
	.loc 1 318 3 is_stmt 1
	.loc 1 319 3
	.loc 1 320 3
	.loc 1 321 3
	.loc 1 322 3
	.loc 1 323 3
	.loc 1 324 3
	.loc 1 325 3
	.loc 1 327 3
	.loc 1 329 5
	.loc 1 332 3
	.loc 1 332 11 is_stmt 0
	ldrb	r3, [r4, #65]	@ zero_extendqisi2
	.loc 1 332 5
	cmp	r3, #0
	beq	.L217
.LVL270:
.L214:
	.loc 1 363 3 is_stmt 1
	.loc 1 363 41 is_stmt 0
	ldr	r5, [r4]
	.loc 1 363 51
	ldr	r2, [r5]
	.loc 1 363 59
	bic	r2, r2, #7936
	.loc 1 363 100
	ldr	r1, [r4, #8]
	.loc 1 363 115
	subs	r1, r1, #1
	.loc 1 363 84
	orr	r2, r2, r1, lsl #8
	.loc 1 363 28
	str	r2, [r5]
	.loc 1 367 3 is_stmt 1
	.loc 1 367 12 is_stmt 0
	ldr	r3, [r4, #72]
	str	r3, [sp]
	mov	r3, r6
	movs	r2, #0
	movs	r1, #32
	mov	r0, r4
	bl	QSPI_WaitFlagStateUntilTimeout
.LVL271:
	.loc 1 369 3 is_stmt 1
	.loc 1 369 5 is_stmt 0
	cbnz	r0, .L213
	.loc 1 372 5 is_stmt 1
	.loc 1 372 43 is_stmt 0
	ldr	r1, [r4]
	.loc 1 372 53
	ldr	r3, [r1]
	.loc 1 372 61
	ldr	r2, .L218
	ands	r2, r2, r3
	.loc 1 372 159
	ldr	r5, [r4, #4]
	.loc 1 372 198
	ldr	r3, [r4, #12]
	.loc 1 372 185
	orr	r3, r3, r5, lsl #24
	.loc 1 372 227
	ldr	r5, [r4, #28]
	.loc 1 372 214
	orrs	r3, r3, r5
	.loc 1 372 249
	ldr	r5, [r4, #32]
	.loc 1 372 236
	orrs	r3, r3, r5
	.loc 1 372 143
	orrs	r2, r2, r3
	.loc 1 372 30
	str	r2, [r1]
	.loc 1 377 5 is_stmt 1
	.loc 1 377 44 is_stmt 0
	ldr	r1, [r4]
	.loc 1 377 54
	ldr	r2, [r1, #4]
	.loc 1 377 63
	ldr	r3, .L218+4
	ands	r3, r3, r2
	.loc 1 377 143
	ldr	r5, [r4, #16]
	.loc 1 377 177
	ldr	r2, [r4, #20]
	.loc 1 377 164
	orr	r2, r2, r5, lsl #16
	.loc 1 377 210
	ldr	r5, [r4, #24]
	.loc 1 377 197
	orrs	r2, r2, r5
	.loc 1 377 127
	orrs	r3, r3, r2
	.loc 1 377 31
	str	r3, [r1, #4]
	.loc 1 382 5 is_stmt 1
	.loc 1 382 14 is_stmt 0
	ldr	r2, [r4]
	.loc 1 382 24
	ldr	r3, [r2]
	.loc 1 382 30
	orr	r3, r3, #1
	str	r3, [r2]
	.loc 1 385 5 is_stmt 1
	.loc 1 385 22 is_stmt 0
	movs	r3, #0
	str	r3, [r4, #68]
	.loc 1 388 5 is_stmt 1
	.loc 1 388 18 is_stmt 0
	movs	r3, #1
	strb	r3, [r4, #65]
.LVL272:
.L213:
	.loc 1 393 1
	add	sp, sp, #8
	.cfi_remember_state
	.cfi_def_cfa_offset 16
	@ sp needed
	pop	{r4, r5, r6, pc}
.LVL273:
.L217:
	.cfi_restore_state
	.loc 1 355 5 is_stmt 1
	mov	r0, r4
.LVL274:
	bl	HAL_QSPI_MspInit
.LVL275:
	.loc 1 359 5
	movw	r1, #5000
	mov	r0, r4
	bl	HAL_QSPI_SetTimeout
.LVL276:
	b	.L214
.LVL277:
.L215:
	.loc 1 314 12 is_stmt 0
	movs	r0, #1
.LVL278:
	b	.L213
.L219:
	.align	2
.L218:
	.word	16777007
	.word	-2033410
	.cfi_endproc
.LFE335:
	.size	HAL_QSPI_Init, .-HAL_QSPI_Init
	.section	.text.HAL_QSPI_SetFifoThreshold,"ax",%progbits
	.align	1
	.global	HAL_QSPI_SetFifoThreshold
	.syntax unified
	.thumb
	.thumb_func
	.type	HAL_QSPI_SetFifoThreshold, %function
HAL_QSPI_SetFifoThreshold:
.LFB364:
	.loc 1 2295 1 is_stmt 1
	.cfi_startproc
	@ args = 0, pretend = 0, frame = 0
	@ frame_needed = 0, uses_anonymous_args = 0
	@ link register save eliminated.
.LVL279:
	mov	r3, r0
	.loc 1 2296 3
.LVL280:
	.loc 1 2299 3
	.loc 1 2299 7
	.loc 1 2299 17 is_stmt 0
	ldrb	r2, [r0, #64]	@ zero_extendqisi2
	uxtb	r2, r2
	.loc 1 2299 9
	cmp	r2, #1
	beq	.L223
	.loc 1 2299 67 is_stmt 1 discriminator 2
	.loc 1 2299 81 is_stmt 0 discriminator 2
	movs	r2, #1
	strb	r2, [r0, #64]
	.loc 1 2299 5 is_stmt 1 discriminator 2
	.loc 1 2301 3 discriminator 2
	.loc 1 2301 11 is_stmt 0 discriminator 2
	ldrb	r2, [r0, #65]	@ zero_extendqisi2
	uxtb	r2, r2
	.loc 1 2301 5 discriminator 2
	cmp	r2, #1
	beq	.L225
	.loc 1 2312 12
	movs	r0, #2
.LVL281:
.L222:
	.loc 1 2316 3 is_stmt 1
	.loc 1 2316 7
	.loc 1 2316 21 is_stmt 0
	movs	r2, #0
	strb	r2, [r3, #64]
	.loc 1 2316 5 is_stmt 1
	.loc 1 2319 3
	.loc 1 2319 10 is_stmt 0
	bx	lr
.LVL282:
.L225:
	.loc 1 2304 5 is_stmt 1
	.loc 1 2304 31 is_stmt 0
	str	r1, [r0, #8]
	.loc 1 2307 5 is_stmt 1
	.loc 1 2307 43 is_stmt 0
	ldr	r0, [r0]
.LVL283:
	.loc 1 2307 53
	ldr	r2, [r0]
	.loc 1 2307 61
	bic	r2, r2, #7936
	.loc 1 2307 117
	subs	r1, r1, #1
.LVL284:
	.loc 1 2307 86
	orr	r2, r2, r1, lsl #8
	.loc 1 2307 30
	str	r2, [r0]
.LVL285:
	.loc 1 2296 21
	movs	r0, #0
	b	.L222
.LVL286:
.L223:
	.loc 1 2299 48
	movs	r0, #2
.LVL287:
	.loc 1 2320 1
	bx	lr
	.cfi_endproc
.LFE364:
	.size	HAL_QSPI_SetFifoThreshold, .-HAL_QSPI_SetFifoThreshold
	.section	.text.HAL_QSPI_GetFifoThreshold,"ax",%progbits
	.align	1
	.global	HAL_QSPI_GetFifoThreshold
	.syntax unified
	.thumb
	.thumb_func
	.type	HAL_QSPI_GetFifoThreshold, %function
HAL_QSPI_GetFifoThreshold:
.LFB365:
	.loc 1 2327 1 is_stmt 1
	.cfi_startproc
	@ args = 0, pretend = 0, frame = 0
	@ frame_needed = 0, uses_anonymous_args = 0
	@ link register save eliminated.
.LVL288:
	.loc 1 2328 3
	.loc 1 2328 19 is_stmt 0
	ldr	r3, [r0]
	.loc 1 2328 29
	ldr	r0, [r3]
.LVL289:
	.loc 1 2328 57
	ubfx	r0, r0, #8, #5
	.loc 1 2329 1
	adds	r0, r0, #1
	bx	lr
	.cfi_endproc
.LFE365:
	.size	HAL_QSPI_GetFifoThreshold, .-HAL_QSPI_GetFifoThreshold
	.section	.text.HAL_QSPI_SetFlashID,"ax",%progbits
	.align	1
	.global	HAL_QSPI_SetFlashID
	.syntax unified
	.thumb
	.thumb_func
	.type	HAL_QSPI_SetFlashID, %function
HAL_QSPI_SetFlashID:
.LFB366:
	.loc 1 2339 1 is_stmt 1
	.cfi_startproc
	@ args = 0, pretend = 0, frame = 0
	@ frame_needed = 0, uses_anonymous_args = 0
	@ link register save eliminated.
.LVL290:
	mov	r3, r0
	.loc 1 2340 3
.LVL291:
	.loc 1 2343 3
	.loc 1 2346 3
	.loc 1 2346 7
	.loc 1 2346 17 is_stmt 0
	ldrb	r2, [r0, #64]	@ zero_extendqisi2
	uxtb	r2, r2
	.loc 1 2346 9
	cmp	r2, #1
	beq	.L230
	.loc 1 2346 67 is_stmt 1 discriminator 2
	.loc 1 2346 81 is_stmt 0 discriminator 2
	movs	r2, #1
	strb	r2, [r0, #64]
	.loc 1 2346 5 is_stmt 1 discriminator 2
	.loc 1 2348 3 discriminator 2
	.loc 1 2348 11 is_stmt 0 discriminator 2
	ldrb	r2, [r0, #65]	@ zero_extendqisi2
	uxtb	r2, r2
	.loc 1 2348 5 discriminator 2
	cmp	r2, #1
	beq	.L232
	.loc 1 2358 12
	movs	r0, #2
.LVL292:
.L229:
	.loc 1 2362 3 is_stmt 1
	.loc 1 2362 7
	.loc 1 2362 21 is_stmt 0
	movs	r2, #0
	strb	r2, [r3, #64]
	.loc 1 2362 5 is_stmt 1
	.loc 1 2365 3
	.loc 1 2365 10 is_stmt 0
	bx	lr
.LVL293:
.L232:
	.loc 1 2351 5 is_stmt 1
	.loc 1 2351 25 is_stmt 0
	str	r1, [r0, #28]
	.loc 1 2354 5 is_stmt 1
	.loc 1 2354 43 is_stmt 0
	ldr	r0, [r0]
.LVL294:
	.loc 1 2354 53
	ldr	r2, [r0]
	.loc 1 2354 61
	bic	r2, r2, #128
	.loc 1 2354 85
	orrs	r2, r2, r1
	.loc 1 2354 30
	str	r2, [r0]
	.loc 1 2340 21
	movs	r0, #0
	b	.L229
.LVL295:
.L230:
	.loc 1 2346 48
	movs	r0, #2
.LVL296:
	.loc 1 2366 1
	bx	lr
	.cfi_endproc
.LFE366:
	.size	HAL_QSPI_SetFlashID, .-HAL_QSPI_SetFlashID
	.text
.Letext0:
	.file 2 "m:\\noinstall\\arm-gnu-toolchain-12.2.rel1-mingw-w64-i686-arm-none-eabi\\arm-none-eabi\\include\\machine\\_default_types.h"
	.file 3 "m:\\noinstall\\arm-gnu-toolchain-12.2.rel1-mingw-w64-i686-arm-none-eabi\\arm-none-eabi\\include\\sys\\_stdint.h"
	.file 4 "D:/RTOS/Board/YD-STM32H7xxVx_ClassicV19/cmake-build-debug/_deps/stm32h7xx_cmsis_device-src/Include/stm32h743xx.h"
	.file 5 "D:/RTOS/Board/YD-STM32H7xxVx_ClassicV19/cmake-build-debug/_deps/stm32h7xx_cmsis_device-src/Include/stm32h7xx.h"
	.file 6 "D:/RTOS/Board/YD-STM32H7xxVx_ClassicV19/cmake-build-debug/_deps/stm32h7xx_hal_driver-src/Inc/stm32h7xx_hal_def.h"
	.file 7 "D:/RTOS/Board/YD-STM32H7xxVx_ClassicV19/cmake-build-debug/_deps/stm32h7xx_hal_driver-src/Inc/stm32h7xx_hal_mdma.h"
	.file 8 "D:/RTOS/Board/YD-STM32H7xxVx_ClassicV19/cmake-build-debug/_deps/stm32h7xx_hal_driver-src/Inc/stm32h7xx_hal_qspi.h"
	.file 9 "D:/RTOS/Board/YD-STM32H7xxVx_ClassicV19/cmake-build-debug/_deps/stm32h7xx_hal_driver-src/Inc/stm32h7xx_hal.h"