	.cpu cortex-m7
	.arch armv7e-m
	.fpu fpv5-d16
	.eabi_attribute 28, 1
	.eabi_attribute 20, 1
	.eabi_attribute 21, 1
	.eabi_attribute 23, 3
	.eabi_attribute 24, 1
	.eabi_attribute 25, 1
	.eabi_attribute 26, 1
	.eabi_attribute 30, 1
	.eabi_attribute 34, 1
	.eabi_attribute 18, 4
	.file	"stm32h7xx_hal_adc_ex.c"
	.text
.Ltext0:
	.cfi_sections	.debug_frame
	.file 1 "D:/RTOS/Board/YD-STM32H7xxVx_ClassicV19/cmake-build-debug/_deps/stm32h7xx_hal_driver-src/Src/stm32h7xx_hal_adc_ex.c"
	.section	.text.LL_ADC_SetCalibrationOffsetFactor,"ax",%progbits
	.align	1
	.syntax unified
	.thumb
	.thumb_func
	.type	LL_ADC_SetCalibrationOffsetFactor, %function
LL_ADC_SetCalibrationOffsetFactor:
.LFB151:
	.file 2 "D:/RTOS/Board/YD-STM32H7xxVx_ClassicV19/cmake-build-debug/_deps/stm32h7xx_hal_driver-src/Inc/stm32h7xx_ll_adc.h"
	.loc 2 2860 1
	.cfi_startproc
	@ args = 0, pretend = 0, frame = 0
	@ frame_needed = 0, uses_anonymous_args = 0
	@ link register save eliminated.
.LVL0:
	.loc 2 2866 3
	.loc 2 2866 34 is_stmt 0
	ldr	r3, [r0, #196]
	.loc 2 2866 63
	bic	ip, r1, #-134154240
	.loc 2 2866 47
	bic	ip, r3, ip
	.loc 2 2866 199
	ubfx	r3, r1, #0, #11
	.loc 2 2866 186
	mvns	r3, r3
	.loc 2 2866 184
	and	r3, r3, r1, lsr #12
	and	r3, r3, #16
	.loc 2 2866 130
	lsls	r2, r2, r3
.LVL1:
	.loc 2 2866 109
	orr	r2, ip, r2
	.loc 2 2866 22
	str	r2, [r0, #196]
	.loc 2 2870 1
	bx	lr
	.cfi_endproc
.LFE151:
	.size	LL_ADC_SetCalibrationOffsetFactor, .-LL_ADC_SetCalibrationOffsetFactor
	.section	.text.LL_ADC_SetCalibrationLinearFactor,"ax",%progbits
	.align	1
	.syntax unified
	.thumb
	.thumb_func
	.type	LL_ADC_SetCalibrationLinearFactor, %function
LL_ADC_SetCalibrationLinearFactor:
.LFB153:
	.loc 2 2926 1 is_stmt 1
	.cfi_startproc
	@ args = 0, pretend = 0, frame = 0
	@ frame_needed = 0, uses_anonymous_args = 0
	@ link register save eliminated.
.LVL2:
	.loc 2 2939 3
	.loc 2 2940 3
	.loc 2 2940 35 is_stmt 0
	ldr	r3, [r0, #200]
	.loc 2 2940 49
	and	r3, r3, #-1073741824
	.loc 2 2940 80
	orrs	r3, r3, r2
	.loc 2 2940 23
	str	r3, [r0, #200]
	.loc 2 2941 3 is_stmt 1
	.loc 2 2941 29 is_stmt 0
	ldr	r3, [r0, #8]
	.loc 2 2941 37
	bic	r3, r3, #65536
	.loc 2 2941 62
	orrs	r3, r3, r1
	.loc 2 2941 17
	str	r3, [r0, #8]
	.loc 2 2942 3 is_stmt 1
	.loc 2 2939 12 is_stmt 0
	ldr	r3, .L6
.LVL3:
.L3:
	.loc 2 2942 50 is_stmt 1
	.loc 2 2942 17 is_stmt 0
	ldr	r2, [r0, #8]
	.loc 2 2942 50
	tst	r2, r1
	bne	.L2
	.loc 2 2942 50 discriminator 1
	cbz	r3, .L2
	.loc 2 2944 5 is_stmt 1
	.loc 2 2944 23 is_stmt 0
	subs	r3, r3, #1
.LVL4:
	b	.L3
.L2:
	.loc 2 2947 1
	bx	lr
.L7:
	.align	2
.L6:
	.word	524400
	.cfi_endproc
.LFE153:
	.size	LL_ADC_SetCalibrationLinearFactor, .-LL_ADC_SetCalibrationLinearFactor
	.section	.text.LL_ADC_GetCalibrationLinearFactor,"ax",%progbits
	.align	1
	.syntax unified
	.thumb
	.thumb_func
	.type	LL_ADC_GetCalibrationLinearFactor, %function
LL_ADC_GetCalibrationLinearFactor:
.LFB154:
	.loc 2 2966 1 is_stmt 1
	.cfi_startproc
	@ args = 0, pretend = 0, frame = 0
	@ frame_needed = 0, uses_anonymous_args = 0
	@ link register save eliminated.
.LVL5:
	.loc 2 2967 3
	.loc 2 2968 3
	.loc 2 2968 9 is_stmt 0
	ldr	r3, [r0, #8]
	.loc 2 2968 15
	bic	r3, r3, r1
	str	r3, [r0, #8]
	.loc 2 2969 3 is_stmt 1
	.loc 2 2967 12 is_stmt 0
	ldr	r3, .L12
.LVL6:
.L9:
	.loc 2 2969 50 is_stmt 1
	.loc 2 2969 17 is_stmt 0
	ldr	r2, [r0, #8]
	.loc 2 2969 50
	tst	r2, r1
	beq	.L10
	.loc 2 2969 50 discriminator 1
	cbz	r3, .L10
	.loc 2 2971 5 is_stmt 1
	.loc 2 2971 23 is_stmt 0
	subs	r3, r3, #1
.LVL7:
	b	.L9
.L10:
	.loc 2 2976 3 is_stmt 1
	.loc 2 2976 27 is_stmt 0
	ldr	r0, [r0, #200]
.LVL8:
	.loc 2 2978 1
	bic	r0, r0, #-1073741824
	bx	lr
.L13:
	.align	2
.L12:
	.word	524400
	.cfi_endproc
.LFE154:
	.size	LL_ADC_GetCalibrationLinearFactor, .-LL_ADC_GetCalibrationLinearFactor
	.section	.text.LL_ADC_SetChannelSamplingTime,"ax",%progbits
	.align	1
	.syntax unified
	.thumb
	.thumb_func
	.type	LL_ADC_SetChannelSamplingTime, %function
LL_ADC_SetChannelSamplingTime:
.LFB201:
	.loc 2 5410 1 is_stmt 1
	.cfi_startproc
	@ args = 0, pretend = 0, frame = 0
	@ frame_needed = 0, uses_anonymous_args = 0
	@ link register save eliminated.
.LVL9:
	push	{r4}
	.cfi_def_cfa_offset 4
	.cfi_offset 4, -4
	.loc 2 5415 3
	.loc 2 5415 75 is_stmt 0
	adds	r0, r0, #20
.LVL10:
	.loc 2 5415 142
	lsrs	r3, r1, #25
	.loc 2 5415 154
	lsls	r3, r3, #2
	and	r3, r3, #4
.LVL11:
	.loc 2 5417 3 is_stmt 1
	.loc 2 5417 22 is_stmt 0
	ldr	r4, [r0, r3]
	.loc 2 5417 83
	ubfx	r1, r1, #20, #5
.LVL12:
	.loc 2 5417 52
	mov	ip, #7
	lsl	ip, ip, r1
	.loc 2 5417 31
	bic	ip, r4, ip
	.loc 2 5417 113
	lsls	r2, r2, r1
.LVL13:
	.loc 2 5417 97
	orr	r2, ip, r2
	.loc 2 5417 14
	str	r2, [r0, r3]
	.loc 2 5420 1
	ldr	r4, [sp], #4
	.cfi_restore 4
	.cfi_def_cfa_offset 0
	bx	lr
	.cfi_endproc
.LFE201:
	.size	LL_ADC_SetChannelSamplingTime, .-LL_ADC_SetChannelSamplingTime
	.section	.text.HAL_ADCEx_Calibration_Start,"ax",%progbits
	.align	1
	.global	HAL_ADCEx_Calibration_Start
	.syntax unified
	.thumb
	.thumb_func
	.type	HAL_ADCEx_Calibration_Start, %function
HAL_ADCEx_Calibration_Start:
.LFB335:
	.loc 1 127 1 is_stmt 1
	.cfi_startproc
	@ args = 0, pretend = 0, frame = 8
	@ frame_needed = 0, uses_anonymous_args = 0
.LVL14:
	push	{r4, r5, r6, lr}
	.cfi_def_cfa_offset 16
	.cfi_offset 4, -16
	.cfi_offset 5, -12
	.cfi_offset 6, -8
	.cfi_offset 14, -4
	sub	sp, sp, #8
	.cfi_def_cfa_offset 24
	.loc 1 128 3
	.loc 1 129 3
	.loc 1 129 21 is_stmt 0
	movs	r3, #0
	str	r3, [sp, #4]
	.loc 1 132 3 is_stmt 1
	.loc 1 133 3
	.loc 1 136 3
	.loc 1 136 7
	.loc 1 136 16 is_stmt 0
	ldrb	r3, [r0, #80]	@ zero_extendqisi2
	.loc 1 136 9
	cmp	r3, #1
	beq	.L23
	mov	r4, r0
	mov	r5, r1
	mov	r6, r2
	.loc 1 136 66 is_stmt 1 discriminator 2
	.loc 1 136 79 is_stmt 0 discriminator 2
	movs	r3, #1
	strb	r3, [r0, #80]
	.loc 1 136 5 is_stmt 1 discriminator 2
	.loc 1 141 3 discriminator 2
	.loc 1 141 20 is_stmt 0 discriminator 2
	bl	ADC_Disable
.LVL15:
	.loc 1 144 3 is_stmt 1 discriminator 2
	.loc 1 144 6 is_stmt 0 discriminator 2
	cmp	r0, #0
	bne	.L18
	.loc 1 147 5 is_stmt 1
	.loc 1 147 34 is_stmt 0
	ldr	r2, [r4, #84]
	.loc 1 147 85
	ldr	r3, .L26
	ands	r3, r3, r2
	orr	r3, r3, #2
	.loc 1 147 22
	str	r3, [r4, #84]
	.loc 1 152 5 is_stmt 1
	ldr	r1, [r4]
.LVL16:
.LBB313:
.LBB314:
	.loc 2 6995 3
	.loc 2 6995 29 is_stmt 0
	ldr	r2, [r1, #8]
	.loc 2 6995 37
	ldr	r3, .L26+4
	ands	r3, r3, r2
	.loc 2 6995 249
	and	r5, r5, #65536
.LVL17:
	.loc 2 6995 285
	and	r6, r6, #1073741824
.LVL18:
	.loc 2 6995 271
	orr	r2, r5, r6
	.loc 2 6995 210
	orrs	r3, r3, r2
	orr	r3, r3, #-2147483648
	.loc 2 6995 17
	str	r3, [r1, #8]
.LVL19:
.L19:
.LBE314:
.LBE313:
	.loc 1 155 56 is_stmt 1
	.loc 1 155 12 is_stmt 0
	ldr	r3, [r4]
.LVL20:
.LBB315:
.LBB316:
	.loc 2 7008 3 is_stmt 1
	.loc 2 7008 18 is_stmt 0
	ldr	r3, [r3, #8]
.LVL21:
	.loc 2 7008 75
	cmp	r3, #0
	blt	.L25
.LVL22:
.LBE316:
.LBE315:
	.loc 1 173 5 is_stmt 1
	.loc 1 173 34 is_stmt 0
	ldr	r3, [r4, #84]
	.loc 1 173 68
	bic	r3, r3, #3
	orr	r3, r3, #1
	.loc 1 173 22
	str	r3, [r4, #84]
	b	.L22
.LVL23:
.L25:
	.loc 1 157 7 is_stmt 1
	.loc 1 157 22 is_stmt 0
	ldr	r3, [sp, #4]
	adds	r3, r3, #1
	str	r3, [sp, #4]
	.loc 1 158 7 is_stmt 1
	.loc 1 158 27 is_stmt 0
	ldr	r2, [sp, #4]
	.loc 1 158 10
	ldr	r3, .L26+8
	cmp	r2, r3
	bcc	.L19
	.loc 1 161 9 is_stmt 1
	.loc 1 161 38 is_stmt 0
	ldr	r3, [r4, #84]
	.loc 1 161 72
	bic	r3, r3, #18
	orr	r3, r3, #16
	.loc 1 161 26
	str	r3, [r4, #84]
	.loc 1 166 9 is_stmt 1
	.loc 1 166 13
	.loc 1 166 26 is_stmt 0
	movs	r3, #0
	strb	r3, [r4, #80]
	.loc 1 166 11 is_stmt 1
	.loc 1 168 9
	.loc 1 168 16 is_stmt 0
	movs	r0, #1
.LVL24:
	b	.L17
.LVL25:
.L18:
	.loc 1 179 5 is_stmt 1
	.loc 1 179 11 is_stmt 0
	ldr	r3, [r4, #84]
	.loc 1 179 20
	orr	r3, r3, #16
	str	r3, [r4, #84]
.LVL26:
.L22:
	.loc 1 186 3 is_stmt 1
	.loc 1 186 7
	.loc 1 186 20 is_stmt 0
	movs	r3, #0
	strb	r3, [r4, #80]
	.loc 1 186 5 is_stmt 1
	.loc 1 189 3
.LVL27:
.L17:
	.loc 1 190 1 is_stmt 0
	add	sp, sp, #8
	.cfi_remember_state
	.cfi_def_cfa_offset 16
	@ sp needed
	pop	{r4, r5, r6, pc}
.LVL28:
.L23:
	.cfi_restore_state
	.loc 1 136 47
	movs	r0, #2
.LVL29:
	b	.L17
.L27:
	.align	2
.L26:
	.word	-4355
	.word	1073676224
	.word	633600000
	.cfi_endproc
.LFE335:
	.size	HAL_ADCEx_Calibration_Start, .-HAL_ADCEx_Calibration_Start
	.section	.text.HAL_ADCEx_Calibration_GetValue,"ax",%progbits
	.align	1
	.global	HAL_ADCEx_Calibration_GetValue
	.syntax unified
	.thumb
	.thumb_func
	.type	HAL_ADCEx_Calibration_GetValue, %function
HAL_ADCEx_Calibration_GetValue:
.LFB336:
	.loc 1 201 1 is_stmt 1
	.cfi_startproc
	@ args = 0, pretend = 0, frame = 0
	@ frame_needed = 0, uses_anonymous_args = 0
	@ link register save eliminated.
.LVL30:
	.loc 1 203 3
	.loc 1 204 3
	.loc 1 207 3
	.loc 1 207 10 is_stmt 0
	ldr	r3, [r0]
.LVL31:
.LBB317:
.LBB318:
	.loc 2 2899 3 is_stmt 1
	.loc 2 2899 27 is_stmt 0
	ldr	r0, [r3, #196]
.LVL32:
	.loc 2 2899 38
	ands	r0, r0, r1
	bic	r0, r0, #-134154240
	.loc 2 2899 133
	lsrs	r1, r1, #12
.LVL33:
	and	r1, r1, #16
.LVL34:
.LBE318:
.LBE317:
	.loc 1 208 1
	lsrs	r0, r0, r1
	bx	lr
	.cfi_endproc
.LFE336:
	.size	HAL_ADCEx_Calibration_GetValue, .-HAL_ADCEx_Calibration_GetValue
	.section	.text.HAL_ADCEx_LinearCalibration_GetValue,"ax",%progbits
	.align	1
	.global	HAL_ADCEx_LinearCalibration_GetValue
	.syntax unified
	.thumb
	.thumb_func
	.type	HAL_ADCEx_LinearCalibration_GetValue, %function
HAL_ADCEx_LinearCalibration_GetValue:
.LFB337:
	.loc 1 217 1 is_stmt 1
	.cfi_startproc
	@ args = 0, pretend = 0, frame = 0
	@ frame_needed = 0, uses_anonymous_args = 0
.LVL35:
	push	{r3, r4, r5, r6, r7, r8, r9, lr}
	.cfi_def_cfa_offset 32
	.cfi_offset 3, -32
	.cfi_offset 4, -28
	.cfi_offset 5, -24
	.cfi_offset 6, -20
	.cfi_offset 7, -16
	.cfi_offset 8, -12
	.cfi_offset 9, -8
	.cfi_offset 14, -4
	mov	r6, r0
	mov	r7, r1
	.loc 1 218 3
	.loc 1 219 3
.LVL36:
	.loc 1 220 3
	.loc 1 223 3
	.loc 1 226 3
	.loc 1 226 7 is_stmt 0
	ldr	r3, [r0]
.LVL37:
.LBB319:
.LBB320:
	.loc 2 6943 3 is_stmt 1
	.loc 2 6943 18 is_stmt 0
	ldr	r3, [r3, #8]
.LVL38:
	.loc 2 6943 73
	tst	r3, #1
	bne	.L35
.LVL39:
.LBE320:
.LBE319:
	.loc 1 228 5 is_stmt 1
	.loc 1 228 22 is_stmt 0
	bl	ADC_Enable
.LVL40:
	mov	r8, r0
.LVL41:
.L30:
	.loc 1 231 3 is_stmt 1
	.loc 1 231 6 is_stmt 0
	cmp	r8, #0
	bne	.L31
	.loc 1 233 5 is_stmt 1
	.loc 1 233 9 is_stmt 0
	ldr	r3, [r6]
.LVL42:
.LBB321:
.LBB322:
	.loc 2 7075 3 is_stmt 1
	.loc 2 7075 18 is_stmt 0
	ldr	r2, [r3, #8]
	.loc 2 7075 73
	ands	r9, r2, #4
	beq	.L32
.LVL43:
.LBE322:
.LBE321:
	.loc 1 235 7 is_stmt 1
.LBB323:
.LBB324:
	.loc 2 7062 3
	.loc 2 7062 29 is_stmt 0
	ldr	r1, [r3, #8]
	.loc 2 7062 37
	ldr	r2, .L37
	ands	r2, r2, r1
	.loc 2 7062 172
	orr	r2, r2, #16
	.loc 2 7062 17
	str	r2, [r3, #8]
.LVL44:
.LBE324:
.LBE323:
	.loc 1 236 7 is_stmt 1
	.loc 1 236 36 is_stmt 0
	mov	r9, #1
.LVL45:
.L32:
	.loc 1 238 5 is_stmt 1
	.loc 1 238 14 is_stmt 0
	movs	r4, #6
	.loc 1 238 5
	b	.L33
.LVL46:
.L35:
	.loc 1 219 21
	mov	r8, #0
	b	.L30
.LVL47:
.L34:
	.loc 1 240 7 is_stmt 1 discriminator 3
	.loc 1 240 115 is_stmt 0 discriminator 3
	rsb	r3, r4, #6
	.loc 1 240 25 discriminator 3
	mvn	r5, #-1073741824
	add	r5, r5, r4
	.loc 1 240 38 discriminator 3
	mov	r1, #134217728
	lsrs	r1, r1, r3
	ldr	r0, [r6]
	bl	LL_ADC_GetCalibrationLinearFactor
.LVL48:
	.loc 1 240 36 discriminator 3
	str	r0, [r7, r5, lsl #2]
	.loc 1 238 37 is_stmt 1 discriminator 3
	subs	r4, r4, #1
.LVL49:
.L33:
	.loc 1 238 27 discriminator 1
	cmp	r4, #0
	bne	.L34
	.loc 1 242 5
	.loc 1 242 8 is_stmt 0
	cmp	r9, #0
	beq	.L31
	.loc 1 244 7 is_stmt 1
	ldr	r2, [r6]
.LVL50:
.LBB325:
.LBB326:
	.loc 2 7042 3
	.loc 2 7042 29 is_stmt 0
	ldr	r1, [r2, #8]
	.loc 2 7042 37
	ldr	r3, .L37
	ands	r3, r3, r1
	.loc 2 7042 172
	orr	r3, r3, #4
	.loc 2 7042 17
	str	r3, [r2, #8]
.LVL51:
.L31:
.LBE326:
.LBE325:
	.loc 1 248 3 is_stmt 1
	.loc 1 249 1 is_stmt 0
	mov	r0, r8
	pop	{r3, r4, r5, r6, r7, r8, r9, pc}
.LVL52:
.L38:
	.align	2
.L37:
	.word	2147483584
	.cfi_endproc
.LFE337:
	.size	HAL_ADCEx_LinearCalibration_GetValue, .-HAL_ADCEx_LinearCalibration_GetValue
	.section	.text.HAL_ADCEx_Calibration_SetValue,"ax",%progbits
	.align	1
	.global	HAL_ADCEx_Calibration_SetValue
	.syntax unified
	.thumb
	.thumb_func
	.type	HAL_ADCEx_Calibration_SetValue, %function
HAL_ADCEx_Calibration_SetValue:
.LFB338:
	.loc 1 264 1 is_stmt 1
	.cfi_startproc
	@ args = 0, pretend = 0, frame = 0
	@ frame_needed = 0, uses_anonymous_args = 0
.LVL53:
	push	{r3, r4, r5, lr}
	.cfi_def_cfa_offset 16
	.cfi_offset 3, -16
	.cfi_offset 4, -12
	.cfi_offset 5, -8
	.cfi_offset 14, -4
	.loc 1 265 3
.LVL54:
	.loc 1 266 3
	.loc 1 267 3
	.loc 1 270 3
	.loc 1 271 3
	.loc 1 283 3
	.loc 1 287 3
	.loc 1 287 7
	.loc 1 287 16 is_stmt 0
	ldrb	r3, [r0, #80]	@ zero_extendqisi2
	.loc 1 287 9
	cmp	r3, #1
	beq	.L45
	mov	r4, r0
	.loc 1 287 66 is_stmt 1 discriminator 2
	.loc 1 287 79 is_stmt 0 discriminator 2
	movs	r3, #1
	strb	r3, [r0, #80]
	.loc 1 287 5 is_stmt 1 discriminator 2
	.loc 1 291 3 discriminator 2
	.loc 1 291 44 is_stmt 0 discriminator 2
	ldr	r0, [r0]
.LVL55:
.LBB327:
.LBB328:
	.loc 2 7075 3 is_stmt 1 discriminator 2
	.loc 2 7075 18 is_stmt 0 discriminator 2
	ldr	r3, [r0, #8]
	.loc 2 7075 73 discriminator 2
	ands	ip, r3, #4
	beq	.L41
	.loc 2 7075 73
	mov	ip, #1
.L41:
.LVL56:
.LBE328:
.LBE327:
	.loc 1 292 3 is_stmt 1
.LBB329:
.LBB330:
	.loc 2 7270 3
	.loc 2 7270 18 is_stmt 0
	ldr	r3, [r0, #8]
	.loc 2 7270 73
	ands	r3, r3, #8
	beq	.L42
	movs	r3, #1
.L42:
.LVL57:
.LBE330:
.LBE329:
	.loc 1 294 3 is_stmt 1
.LBB331:
.LBB332:
	.loc 2 6943 3
	.loc 2 6943 18 is_stmt 0
	ldr	r5, [r0, #8]
	.loc 2 6943 73
	tst	r5, #1
	beq	.L43
.LVL58:
.LBE332:
.LBE331:
	.loc 1 296 7
	orrs	r3, r3, ip
.LVL59:
	beq	.L47
.L43:
	.loc 1 305 5 is_stmt 1
	.loc 1 305 11 is_stmt 0
	ldr	r3, [r4, #84]
	.loc 1 305 20
	orr	r3, r3, #32
	str	r3, [r4, #84]
	.loc 1 307 5 is_stmt 1
	.loc 1 307 11 is_stmt 0
	ldr	r3, [r4, #88]
	.loc 1 307 24
	orr	r3, r3, #1
	str	r3, [r4, #88]
	.loc 1 310 5 is_stmt 1
.LVL60:
	.loc 1 310 20 is_stmt 0
	movs	r0, #1
.LVL61:
.L44:
	.loc 1 314 3 is_stmt 1
	.loc 1 314 7
	.loc 1 314 20 is_stmt 0
	movs	r3, #0
	strb	r3, [r4, #80]
	.loc 1 314 5 is_stmt 1
	.loc 1 317 3
.LVL62:
.L40:
	.loc 1 318 1 is_stmt 0
	pop	{r3, r4, r5, pc}
.LVL63:
.L47:
	.loc 1 300 5 is_stmt 1
	bl	LL_ADC_SetCalibrationOffsetFactor
.LVL64:
	.loc 1 265 21 is_stmt 0
	movs	r0, #0
	.loc 1 300 5
	b	.L44
.LVL65:
.L45:
	.loc 1 287 47
	movs	r0, #2
.LVL66:
	b	.L40
	.cfi_endproc
.LFE338:
	.size	HAL_ADCEx_Calibration_SetValue, .-HAL_ADCEx_Calibration_SetValue
	.section	.text.HAL_ADCEx_LinearCalibration_SetValue,"ax",%progbits
	.align	1
	.global	HAL_ADCEx_LinearCalibration_SetValue
	.syntax unified
	.thumb
	.thumb_func
	.type	HAL_ADCEx_LinearCalibration_SetValue, %function
HAL_ADCEx_LinearCalibration_SetValue:
.LFB339:
	.loc 1 327 1 is_stmt 1
	.cfi_startproc
	@ args = 0, pretend = 0, frame = 8
	@ frame_needed = 0, uses_anonymous_args = 0
.LVL67:
	push	{r4, r5, r6, r7, lr}
	.cfi_def_cfa_offset 20
	.cfi_offset 4, -20
	.cfi_offset 5, -16
	.cfi_offset 6, -12
	.cfi_offset 7, -8
	.cfi_offset 14, -4
	sub	sp, sp, #12
	.cfi_def_cfa_offset 32
	mov	r4, r0
	mov	r6, r1
	.loc 1 328 3
	.loc 1 329 3
	.loc 1 329 21 is_stmt 0
	movs	r3, #0
	str	r3, [sp, #4]
	.loc 1 330 3 is_stmt 1
.LVL68:
	.loc 1 333 3
	.loc 1 337 3
	.loc 1 337 14 is_stmt 0
	ldr	r3, [r0]
	.loc 1 337 24
	ldr	r2, [r3, #8]
	.loc 1 337 6
	tst	r2, #536870912
	beq	.L49
	.loc 1 340 5 is_stmt 1
	.loc 1 340 21 is_stmt 0
	ldr	r2, [r3, #8]
	.loc 1 340 27
	bic	r2, r2, #536870912
	str	r2, [r3, #8]
.L49:
	.loc 1 348 3 is_stmt 1
	.loc 1 348 14 is_stmt 0
	ldr	r3, [r4]
	.loc 1 348 24
	ldr	r2, [r3, #8]
	.loc 1 348 6
	tst	r2, #268435456
	bne	.L50
	.loc 1 351 5 is_stmt 1
	.loc 1 351 21 is_stmt 0
	ldr	r2, [r3, #8]
	.loc 1 351 27
	orr	r2, r2, #268435456
	str	r2, [r3, #8]
	.loc 1 356 5 is_stmt 1
	.loc 1 356 60 is_stmt 0
	ldr	r3, .L66
	ldr	r3, [r3]
	lsrs	r3, r3, #6
	ldr	r2, .L66+4
	umull	r2, r3, r2, r3
	lsrs	r3, r3, #6
	.loc 1 356 40
	adds	r3, r3, #1
	.loc 1 356 21
	str	r3, [sp, #4]
	.loc 1 357 5 is_stmt 1
	.loc 1 357 11 is_stmt 0
	b	.L51
.L52:
	.loc 1 359 7 is_stmt 1
	.loc 1 359 22 is_stmt 0
	ldr	r3, [sp, #4]
	subs	r3, r3, #1
	str	r3, [sp, #4]
.L51:
	.loc 1 357 28 is_stmt 1
	ldr	r3, [sp, #4]
	cmp	r3, #0
	bne	.L52
.L50:
	.loc 1 367 3
	.loc 1 367 14 is_stmt 0
	ldr	r3, [r4]
	.loc 1 367 24
	ldr	r2, [r3, #8]
	.loc 1 367 6
	tst	r2, #268435456
	beq	.L65
	.loc 1 378 3 is_stmt 1
.LVL69:
.LBB333:
.LBB334:
	.loc 2 6943 3
	.loc 2 6943 18 is_stmt 0
	ldr	r2, [r3, #8]
	.loc 2 6943 73
	tst	r2, #1
	beq	.L55
.LVL70:
.LBE334:
.LBE333:
	.loc 1 395 5 is_stmt 1
.LBB335:
.LBB336:
	.loc 2 7075 3
	.loc 2 7075 18 is_stmt 0
	ldr	r7, [r3, #8]
	.loc 2 7075 73
	ands	r7, r7, #4
	bne	.L56
.LVL71:
.L57:
.LBE336:
.LBE335:
	.loc 1 400 5 is_stmt 1
	.loc 1 400 14 is_stmt 0
	movs	r5, #6
	.loc 1 400 5
	b	.L60
.LVL72:
.L65:
	.loc 1 370 5 is_stmt 1
	.loc 1 370 11 is_stmt 0
	ldr	r3, [r4, #84]
	.loc 1 370 20
	orr	r3, r3, #16
	str	r3, [r4, #84]
	.loc 1 373 5 is_stmt 1
	.loc 1 373 11 is_stmt 0
	ldr	r3, [r4, #88]
	.loc 1 373 24
	orr	r3, r3, #1
	str	r3, [r4, #88]
	.loc 1 375 5 is_stmt 1
	.loc 1 375 12 is_stmt 0
	movs	r7, #1
.LVL73:
.L54:
	.loc 1 410 1
	mov	r0, r7
	add	sp, sp, #12
	.cfi_remember_state
	.cfi_def_cfa_offset 20
	@ sp needed
	pop	{r4, r5, r6, r7, pc}
.LVL74:
.L55:
	.cfi_restore_state
	.loc 1 380 5 is_stmt 1
	.loc 1 380 9 is_stmt 0
	mov	r0, r4
.LVL75:
	bl	ADC_Enable
.LVL76:
	.loc 1 380 8
	mov	r7, r0
	cmp	r0, #0
	bne	.L62
	.loc 1 386 16
	movs	r5, #6
	b	.L58
.LVL77:
.L59:
	.loc 1 388 9 is_stmt 1 discriminator 3
	.loc 1 388 86 is_stmt 0 discriminator 3
	rsb	r1, r5, #6
	.loc 1 388 112 discriminator 3
	mvn	r3, #-1073741824
	add	r3, r3, r5
	.loc 1 388 9 discriminator 3
	ldr	r2, [r6, r3, lsl #2]
	mov	r3, #134217728
	lsr	r1, r3, r1
	ldr	r0, [r4]
	bl	LL_ADC_SetCalibrationLinearFactor
.LVL78:
	.loc 1 386 40 is_stmt 1 discriminator 3
	subs	r5, r5, #1
.LVL79:
.L58:
	.loc 1 386 29 discriminator 1
	cmp	r5, #0
	bne	.L59
	.loc 1 390 7
	.loc 1 390 13 is_stmt 0
	mov	r0, r4
	bl	ADC_Disable
.LVL80:
	b	.L54
.LVL81:
.L56:
	.loc 1 397 7 is_stmt 1
.LBB337:
.LBB338:
	.loc 2 7062 3
	.loc 2 7062 29 is_stmt 0
	ldr	r1, [r3, #8]
.LVL82:
	.loc 2 7062 37
	ldr	r2, .L66+8
	ands	r2, r2, r1
	.loc 2 7062 172
	orr	r2, r2, #16
	.loc 2 7062 17
	str	r2, [r3, #8]
.LVL83:
.LBE338:
.LBE337:
	.loc 1 398 7 is_stmt 1
	.loc 1 398 36 is_stmt 0
	movs	r7, #1
	b	.L57
.LVL84:
.L61:
	.loc 1 402 7 is_stmt 1 discriminator 3
	.loc 1 402 84 is_stmt 0 discriminator 3
	rsb	r1, r5, #6
	.loc 1 402 110 discriminator 3
	mvn	r3, #-1073741824
	add	r3, r3, r5
	.loc 1 402 7 discriminator 3
	ldr	r2, [r6, r3, lsl #2]
	mov	r3, #134217728
	lsr	r1, r3, r1
	ldr	r0, [r4]
	bl	LL_ADC_SetCalibrationLinearFactor
.LVL85:
	.loc 1 400 38 is_stmt 1 discriminator 3
	subs	r5, r5, #1
.LVL86:
.L60:
	.loc 1 400 27 discriminator 1
	cmp	r5, #0
	bne	.L61
	.loc 1 404 5
	.loc 1 404 8 is_stmt 0
	cbz	r7, .L63
	.loc 1 406 7 is_stmt 1
	ldr	r2, [r4]
.LVL87:
.LBB339:
.LBB340:
	.loc 2 7042 3
	.loc 2 7042 29 is_stmt 0
	ldr	r1, [r2, #8]
	.loc 2 7042 37
	ldr	r3, .L66+8
	ands	r3, r3, r1
	.loc 2 7042 172
	orr	r3, r3, #4
	.loc 2 7042 17
	str	r3, [r2, #8]
.LBE340:
.LBE339:
	.loc 1 409 10
	movs	r7, #0
.LVL88:
.LBB342:
.LBB341:
	.loc 2 7045 1
	b	.L54
.LVL89:
.L62:
.LBE341:
.LBE342:
	.loc 1 382 14
	movs	r7, #1
	b	.L54
.LVL90:
.L63:
	.loc 1 409 10
	movs	r7, #0
.LVL91:
	b	.L54
.L67:
	.align	2
.L66:
	.word	SystemCoreClock
	.word	87960931
	.word	2147483584
	.cfi_endproc
.LFE339:
	.size	HAL_ADCEx_LinearCalibration_SetValue, .-HAL_ADCEx_LinearCalibration_SetValue
	.section	.text.HAL_ADCEx_LinearCalibration_FactorLoad,"ax",%progbits
	.align	1
	.global	HAL_ADCEx_LinearCalibration_FactorLoad
	.syntax unified
	.thumb
	.thumb_func
	.type	HAL_ADCEx_LinearCalibration_FactorLoad, %function
HAL_ADCEx_LinearCalibration_FactorLoad:
.LFB340:
	.loc 1 418 1 is_stmt 1
	.cfi_startproc
	@ args = 0, pretend = 0, frame = 24
	@ frame_needed = 0, uses_anonymous_args = 0
.LVL92:
	push	{lr}
	.cfi_def_cfa_offset 4
	.cfi_offset 14, -4
	sub	sp, sp, #28
	.cfi_def_cfa_offset 32
	.loc 1 419 3
.LVL93:
	.loc 1 420 3
	.loc 1 421 3
	.loc 1 427 3
	.loc 1 427 11 is_stmt 0
	ldr	r3, [r0]
	.loc 1 427 6
	ldr	r2, .L78
	cmp	r3, r2
	beq	.L73
	.loc 1 431 8 is_stmt 1
	.loc 1 431 11 is_stmt 0
	add	r2, r2, #256
	cmp	r3, r2
	beq	.L77
	.loc 1 437 18
	mov	ip, #16
.L69:
.LVL94:
	.loc 1 440 3 is_stmt 1
	.loc 1 440 12 is_stmt 0
	movs	r3, #0
	.loc 1 440 3
	b	.L70
.LVL95:
.L77:
	.loc 1 433 18
	mov	ip, #8
	b	.L69
.L73:
	.loc 1 429 18
	mov	ip, #0
	b	.L69
.LVL96:
.L71:
	.loc 1 442 5 is_stmt 1 discriminator 3
	.loc 1 442 89 is_stmt 0 discriminator 3
	add	r1, r3, ip
	.loc 1 442 32 discriminator 3
	ldr	r2, .L78+4
	.loc 1 442 31 discriminator 3
	ldr	r1, [r2, r1, lsl #2]
	.loc 1 442 29 discriminator 3
	add	r2, sp, #24
	add	r2, r2, r3, lsl #2
	str	r1, [r2, #-24]
	.loc 1 440 35 is_stmt 1 discriminator 3
	adds	r3, r3, #1
.LVL97:
.L70:
	.loc 1 440 23 discriminator 1
	cmp	r3, #5
	bls	.L71
	.loc 1 444 3
	.loc 1 444 7 is_stmt 0
	mov	r1, sp
	bl	HAL_ADCEx_LinearCalibration_SetValue
.LVL98:
	.loc 1 444 6
	cbz	r0, .L72
	.loc 1 446 20
	movs	r0, #1
.L72:
.LVL99:
	.loc 1 449 3 is_stmt 1
	.loc 1 450 1 is_stmt 0
	add	sp, sp, #28
	.cfi_def_cfa_offset 4
	@ sp needed
	ldr	pc, [sp], #4
.L79:
	.align	2
.L78:
	.word	1073881088
	.word	535948288
	.cfi_endproc
.LFE340:
	.size	HAL_ADCEx_LinearCalibration_FactorLoad, .-HAL_ADCEx_LinearCalibration_FactorLoad
	.section	.text.HAL_ADCEx_InjectedStart,"ax",%progbits
	.align	1
	.global	HAL_ADCEx_InjectedStart
	.syntax unified
	.thumb
	.thumb_func
	.type	HAL_ADCEx_InjectedStart, %function
HAL_ADCEx_InjectedStart:
.LFB341:
	.loc 1 464 1 is_stmt 1
	.cfi_startproc
	@ args = 0, pretend = 0, frame = 0
	@ frame_needed = 0, uses_anonymous_args = 0
.LVL100:
	push	{r3, r4, r5, lr}
	.cfi_def_cfa_offset 16
	.cfi_offset 3, -16
	.cfi_offset 4, -12
	.cfi_offset 5, -8
	.cfi_offset 14, -4
	mov	r4, r0
	.loc 1 465 3
	.loc 1 466 3
	.loc 1 467 3
	.loc 1 467 63 is_stmt 0
	ldr	r3, [r0]
	.loc 1 467 35
	ldr	r1, .L103
	ldr	r2, .L103+4
	cmp	r3, r2
	it	ne
	cmpne	r3, r1
	bne	.L94
	add	r2, r2, #512
.L81:
.LVL101:
.LBB343:
.LBB344:
	.loc 2 6603 3 is_stmt 1 discriminator 4
	.loc 2 6603 35 is_stmt 0 discriminator 4
	ldr	r5, [r2, #8]
	.loc 2 6603 10 discriminator 4
	and	r5, r5, #31
.LVL102:
.LBE344:
.LBE343:
	.loc 1 470 3 is_stmt 1 discriminator 4
	.loc 1 472 3 discriminator 4
.LBB345:
.LBB346:
	.loc 2 7270 3 discriminator 4
	.loc 2 7270 18 is_stmt 0 discriminator 4
	ldr	r2, [r3, #8]
	.loc 2 7270 73 discriminator 4
	tst	r2, #8
	bne	.L95
.LVL103:
.LBE346:
.LBE345:
	.loc 1 485 5 is_stmt 1
	.loc 1 485 49 is_stmt 0
	ldr	r2, [r3, #12]
.LVL104:
	.loc 1 487 5 is_stmt 1
	.loc 1 487 26 is_stmt 0
	ldr	r3, [r3, #76]
	.loc 1 487 8
	tst	r3, #384
	bne	.L83
	.loc 1 488 9
	cmp	r2, #0
	bge	.L100
.L83:
	.loc 1 496 5 is_stmt 1
	.loc 1 496 9
	.loc 1 496 18 is_stmt 0
	ldrb	r3, [r4, #80]	@ zero_extendqisi2
	.loc 1 496 11
	cmp	r3, #1
	beq	.L96
	.loc 1 496 68 is_stmt 1 discriminator 2
	.loc 1 496 81 is_stmt 0 discriminator 2
	movs	r3, #1
	strb	r3, [r4, #80]
	.loc 1 496 7 is_stmt 1 discriminator 2
	.loc 1 499 5 discriminator 2
	.loc 1 499 22 is_stmt 0 discriminator 2
	mov	r0, r4
.LVL105:
	bl	ADC_Enable
.LVL106:
	.loc 1 502 5 is_stmt 1 discriminator 2
	.loc 1 502 8 is_stmt 0 discriminator 2
	cmp	r0, #0
	bne	.L84
	.loc 1 505 7 is_stmt 1
	.loc 1 505 16 is_stmt 0
	ldr	r3, [r4, #84]
	.loc 1 505 10
	tst	r3, #256
	beq	.L85
	.loc 1 508 9 is_stmt 1
	.loc 1 508 15 is_stmt 0
	ldr	r3, [r4, #88]
	.loc 1 508 28
	bic	r3, r3, #8
	str	r3, [r4, #88]
.L86:
	.loc 1 519 7 is_stmt 1
	.loc 1 519 36 is_stmt 0
	ldr	r2, [r4, #84]
	.loc 1 519 87
	ldr	r3, .L103+8
	ands	r3, r3, r2
	orr	r3, r3, #4096
	.loc 1 519 24
	str	r3, [r4, #84]
	.loc 1 526 7 is_stmt 1
	.loc 1 526 22 is_stmt 0
	ldr	r3, [r4]
	.loc 1 526 169
	ldr	r2, .L103+4
	cmp	r3, r2
	beq	.L101
	mov	r2, r3
.L87:
	.loc 1 526 10 discriminator 4
	cmp	r3, r2
	beq	.L88
	.loc 1 527 11
	cbnz	r5, .L89
.L88:
	.loc 1 530 9 is_stmt 1
	.loc 1 530 15 is_stmt 0
	ldr	r2, [r4, #84]
	.loc 1 530 24
	bic	r2, r2, #1048576
	str	r2, [r4, #84]
.L89:
	.loc 1 535 7 is_stmt 1
	.loc 1 535 32 is_stmt 0
	movs	r2, #96
	str	r2, [r3]
	.loc 1 540 7 is_stmt 1
	.loc 1 540 11
	.loc 1 540 24 is_stmt 0
	movs	r3, #0
	strb	r3, [r4, #80]
	.loc 1 540 9 is_stmt 1
	.loc 1 554 7
	.loc 1 554 22 is_stmt 0
	ldr	r3, [r4]
	.loc 1 554 169
	ldr	r2, .L103+4
	cmp	r3, r2
	beq	.L102
	mov	r2, r3
.L90:
	.loc 1 554 10 discriminator 4
	cmp	r3, r2
	beq	.L91
	.loc 1 556 36
	cmp	r5, #6
	ite	ne
	movne	r2, #0
	moveq	r2, #1
	.loc 1 556 11
	cbz	r5, .L91
	cbnz	r2, .L91
	.loc 1 557 11
	cmp	r5, #7
	beq	.L91
	.loc 1 569 9 is_stmt 1
	.loc 1 569 15 is_stmt 0
	ldr	r3, [r4, #84]
	.loc 1 569 24
	orr	r3, r3, #1048576
	str	r3, [r4, #84]
	b	.L82
.LVL107:
.L94:
	.loc 1 467 35
	ldr	r2, .L103+12
	b	.L81
.LVL108:
.L100:
	.loc 1 491 7 is_stmt 1
	.loc 1 491 13 is_stmt 0
	ldr	r3, [r4, #84]
	.loc 1 491 22
	orr	r3, r3, #32
	str	r3, [r4, #84]
	.loc 1 492 7 is_stmt 1
	.loc 1 492 14 is_stmt 0
	movs	r0, #1
.LVL109:
	b	.L82
.LVL110:
.L85:
	.loc 1 513 9 is_stmt 1
	.loc 1 513 28 is_stmt 0
	movs	r3, #0
	str	r3, [r4, #88]
	b	.L86
.L101:
	.loc 1 526 169
	sub	r2, r2, #256
	b	.L87
.L102:
	.loc 1 554 169
	sub	r2, r2, #256
	b	.L90
.L91:
	.loc 1 561 9 is_stmt 1
.LVL111:
.LBB347:
.LBB348:
	.loc 2 5019 3
	.loc 2 5019 27 is_stmt 0
	ldr	r2, [r3, #12]
.LVL112:
.LBE348:
.LBE347:
	.loc 1 561 12
	tst	r2, #33554432
	bne	.L82
	.loc 1 563 11 is_stmt 1
.LVL113:
.LBB349:
.LBB350:
	.loc 2 7237 3
	.loc 2 7237 29 is_stmt 0
	ldr	r1, [r3, #8]
	.loc 2 7237 37
	ldr	r2, .L103+16
	ands	r2, r2, r1
	.loc 2 7237 172
	orr	r2, r2, #8
	.loc 2 7237 17
	str	r2, [r3, #8]
	.loc 2 7240 1
	b	.L82
.LVL114:
.L84:
.LBE350:
.LBE349:
	.loc 1 576 7 is_stmt 1
	.loc 1 576 11
	.loc 1 576 24 is_stmt 0
	movs	r3, #0
	strb	r3, [r4, #80]
	.loc 1 576 9 is_stmt 1
	.loc 1 580 5
	.loc 1 580 12 is_stmt 0
	b	.L82
.LVL115:
.L95:
	.loc 1 474 12
	movs	r0, #2
.LVL116:
.L82:
	.loc 1 582 1
	pop	{r3, r4, r5, pc}
.LVL117:
.L96:
	.loc 1 496 49
	movs	r0, #2
.LVL118:
	b	.L82
.L104:
	.align	2
.L103:
	.word	1073881088
	.word	1073881344
	.word	-12290
	.word	1476551424
	.word	2147483584
	.cfi_endproc
.LFE341:
	.size	HAL_ADCEx_InjectedStart, .-HAL_ADCEx_InjectedStart
	.section	.text.HAL_ADCEx_InjectedStop,"ax",%progbits
	.align	1
	.global	HAL_ADCEx_InjectedStop
	.syntax unified
	.thumb
	.thumb_func
	.type	HAL_ADCEx_InjectedStop, %function
HAL_ADCEx_InjectedStop:
.LFB342:
	.loc 1 601 1 is_stmt 1
	.cfi_startproc
	@ args = 0, pretend = 0, frame = 0
	@ frame_needed = 0, uses_anonymous_args = 0
.LVL119:
	.loc 1 602 3
	.loc 1 605 3
	.loc 1 608 3
	.loc 1 608 7
	.loc 1 608 16 is_stmt 0
	ldrb	r3, [r0, #80]	@ zero_extendqisi2
	.loc 1 608 9
	cmp	r3, #1
	beq	.L109
	.loc 1 601 1 discriminator 2
	push	{r4, lr}
	.cfi_def_cfa_offset 8
	.cfi_offset 4, -8
	.cfi_offset 14, -4
	mov	r4, r0
	.loc 1 608 66 is_stmt 1 discriminator 2
	.loc 1 608 79 is_stmt 0 discriminator 2
	movs	r3, #1
	strb	r3, [r0, #80]
	.loc 1 608 5 is_stmt 1 discriminator 2
	.loc 1 611 3 discriminator 2
	.loc 1 611 20 is_stmt 0 discriminator 2
	movs	r1, #2
	bl	ADC_ConversionStop
.LVL120:
	.loc 1 615 3 is_stmt 1 discriminator 2
	.loc 1 615 6 is_stmt 0 discriminator 2
	cbnz	r0, .L107
	.loc 1 617 5 is_stmt 1
	.loc 1 617 9 is_stmt 0
	ldr	r3, [r4]
.LVL121:
.LBB351:
.LBB352:
	.loc 2 7075 3 is_stmt 1
	.loc 2 7075 18 is_stmt 0
	ldr	r3, [r3, #8]
.LVL122:
	.loc 2 7075 73
	tst	r3, #4
	beq	.L108
.LVL123:
.LBE352:
.LBE351:
	.loc 1 636 7 is_stmt 1
	.loc 1 636 13 is_stmt 0
	ldr	r3, [r4, #84]
	.loc 1 636 22
	bic	r3, r3, #4096
	str	r3, [r4, #84]
.L107:
	.loc 1 641 3 is_stmt 1
	.loc 1 641 7
	.loc 1 641 20 is_stmt 0
	movs	r3, #0
	strb	r3, [r4, #80]
	.loc 1 641 5 is_stmt 1
	.loc 1 644 3
	.loc 1 645 1 is_stmt 0
	pop	{r4, pc}
.LVL124:
.L108:
	.loc 1 620 7 is_stmt 1
	.loc 1 620 24 is_stmt 0
	mov	r0, r4
.LVL125:
	bl	ADC_Disable
.LVL126:
	.loc 1 623 7 is_stmt 1
	.loc 1 623 10 is_stmt 0
	cmp	r0, #0
	bne	.L107
	.loc 1 626 9 is_stmt 1
	.loc 1 626 38 is_stmt 0
	ldr	r2, [r4, #84]
	.loc 1 626 89
	ldr	r3, .L114
	ands	r3, r3, r2
	orr	r3, r3, #1
	.loc 1 626 26
	str	r3, [r4, #84]
	b	.L107
.LVL127:
.L109:
	.cfi_def_cfa_offset 0
	.cfi_restore 4
	.cfi_restore 14
	.loc 1 608 47
	movs	r0, #2
.LVL128:
	.loc 1 645 1
	bx	lr
.L115:
	.align	2
.L114:
	.word	-4354
	.cfi_endproc
.LFE342:
	.size	HAL_ADCEx_InjectedStop, .-HAL_ADCEx_InjectedStop
	.section	.text.HAL_ADCEx_InjectedPollForConversion,"ax",%progbits
	.align	1
	.global	HAL_ADCEx_InjectedPollForConversion
	.syntax unified
	.thumb
	.thumb_func
	.type	HAL_ADCEx_InjectedPollForConversion, %function
HAL_ADCEx_InjectedPollForConversion:
.LFB343:
	.loc 1 656 1 is_stmt 1
	.cfi_startproc
	@ args = 0, pretend = 0, frame = 0
	@ frame_needed = 0, uses_anonymous_args = 0
.LVL129:
	push	{r4, r5, r6, r7, r8, lr}
	.cfi_def_cfa_offset 24
	.cfi_offset 4, -24
	.cfi_offset 5, -20
	.cfi_offset 6, -16
	.cfi_offset 7, -12
	.cfi_offset 8, -8
	.cfi_offset 14, -4
	mov	r4, r0
	mov	r5, r1
	.loc 1 657 3
	.loc 1 658 3
	.loc 1 659 3
	.loc 1 660 3
	.loc 1 661 3
	.loc 1 662 3
	.loc 1 663 3
	.loc 1 663 63 is_stmt 0
	ldr	r3, [r0]
	.loc 1 663 35
	ldr	r1, .L144
.LVL130:
	ldr	r2, .L144+4
	cmp	r3, r2
	it	ne
	cmpne	r3, r1
	bne	.L133
	ldr	r3, .L144+8
.L117:
.LVL131:
.LBB353:
.LBB354:
	.loc 2 6603 3 is_stmt 1 discriminator 4
	.loc 2 6603 35 is_stmt 0 discriminator 4
	ldr	r7, [r3, #8]
	.loc 2 6603 10 discriminator 4
	and	r7, r7, #31
.LVL132:
.LBE354:
.LBE353:
	.loc 1 666 3 is_stmt 1 discriminator 4
	.loc 1 669 3 discriminator 4
	.loc 1 669 17 is_stmt 0 discriminator 4
	ldr	r3, [r4, #16]
	.loc 1 669 6 discriminator 4
	cmp	r3, #8
	beq	.L140
	.loc 1 675 18
	movs	r6, #32
.L118:
.LVL133:
	.loc 1 679 3 is_stmt 1
	.loc 1 679 15 is_stmt 0
	bl	HAL_GetTick
.LVL134:
	mov	r8, r0
.LVL135:
	.loc 1 682 3 is_stmt 1
.L120:
	.loc 1 682 47
	.loc 1 682 15 is_stmt 0
	ldr	r3, [r4]
	.loc 1 682 25
	ldr	r2, [r3]
	.loc 1 682 47
	tst	r2, r6
	bne	.L141
	.loc 1 685 5 is_stmt 1
	.loc 1 685 8 is_stmt 0
	cmp	r5, #-1
	beq	.L120
	.loc 1 687 7 is_stmt 1
	.loc 1 687 13 is_stmt 0
	bl	HAL_GetTick
.LVL136:
	.loc 1 687 27
	sub	r0, r0, r8
	.loc 1 687 10
	cmp	r0, r5
	bhi	.L121
	.loc 1 687 51 discriminator 1
	cmp	r5, #0
	bne	.L120
.L121:
	.loc 1 689 9 is_stmt 1
	.loc 1 689 17 is_stmt 0
	ldr	r3, [r4]
	.loc 1 689 27
	ldr	r3, [r3]
	.loc 1 689 11
	tst	r3, r6
	bne	.L120
	.loc 1 692 11 is_stmt 1
	.loc 1 692 17 is_stmt 0
	ldr	r3, [r4, #84]
	.loc 1 692 26
	orr	r3, r3, #4
	str	r3, [r4, #84]
	.loc 1 695 11 is_stmt 1
	.loc 1 695 15
	.loc 1 695 28 is_stmt 0
	movs	r3, #0
	strb	r3, [r4, #80]
	.loc 1 695 13 is_stmt 1
	.loc 1 697 11
	.loc 1 697 18 is_stmt 0
	movs	r0, #3
	b	.L122
.LVL137:
.L133:
	.loc 1 663 35
	ldr	r3, .L144+12
	b	.L117
.LVL138:
.L140:
	.loc 1 671 18
	movs	r6, #64
	b	.L118
.LVL139:
.L141:
	.loc 1 704 3 is_stmt 1
.LBB355:
.LBB356:
	.loc 2 4717 3
	.loc 2 4717 18 is_stmt 0
	ldr	r2, [r3, #76]
	.loc 2 4717 92
	tst	r2, #384
	bne	.L135
	movs	r0, #1
.L124:
.LVL140:
.LBE356:
.LBE355:
	.loc 1 705 3 is_stmt 1
.LBB358:
.LBB359:
	.loc 2 3930 3
	.loc 2 3930 18 is_stmt 0
	ldr	r2, [r3, #12]
	.loc 2 3930 94
	tst	r2, #3072
	bne	.L136
	movs	r5, #1
.LVL141:
.L125:
.LBE359:
.LBE358:
	.loc 1 709 3 is_stmt 1
	.loc 1 709 165 is_stmt 0
	ldr	r2, .L144+4
	cmp	r3, r2
	beq	.L142
	mov	r2, r3
.L126:
	.loc 1 709 6 discriminator 4
	cmp	r3, r2
	beq	.L127
	.loc 1 711 32
	cmp	r7, #6
	ite	ne
	movne	r1, #0
	moveq	r1, #1
	.loc 1 711 7
	cbz	r7, .L127
	cbnz	r1, .L127
	.loc 1 712 7
	cmp	r7, #7
	beq	.L127
	.loc 1 719 5 is_stmt 1 discriminator 4
.LVL142:
	.loc 1 720 5 discriminator 4
	.loc 1 720 14 is_stmt 0 discriminator 4
	ldr	r1, [r2, #12]
.LVL143:
	b	.L129
.LVL144:
.L135:
.LBB361:
.LBB357:
	.loc 2 4717 92
	movs	r0, #0
	b	.L124
.LVL145:
.L136:
.LBE357:
.LBE361:
.LBB362:
.LBB360:
	.loc 2 3930 94
	movs	r5, #0
.LVL146:
	b	.L125
.LVL147:
.L142:
.LBE360:
.LBE362:
	.loc 1 709 165
	sub	r2, r2, #256
	b	.L126
.L127:
	.loc 1 715 5 is_stmt 1
	.loc 1 715 14 is_stmt 0
	ldr	r1, [r3, #12]
.LVL148:
.L129:
	.loc 1 724 3 is_stmt 1
	.loc 1 724 9 is_stmt 0
	ldr	r2, [r4, #84]
	.loc 1 724 18
	orr	r2, r2, #8192
	str	r2, [r4, #84]
	.loc 1 729 3 is_stmt 1
	.loc 1 729 6 is_stmt 0
	cbnz	r0, .L130
	.loc 1 729 55 discriminator 1
	tst	r1, #33554432
	bne	.L131
	.loc 1 730 51
	cbz	r5, .L131
	.loc 1 731 57
	tst	r1, #8192
	bne	.L131
.L130:
	.loc 1 735 5 is_stmt 1
	.loc 1 735 28 is_stmt 0
	ldr	r2, [r3]
	.loc 1 735 8
	tst	r2, #64
	beq	.L131
	.loc 1 743 7 is_stmt 1
	.loc 1 743 10 is_stmt 0
	tst	r1, #2097152
	bne	.L131
	.loc 1 746 9 is_stmt 1
	.loc 1 746 15 is_stmt 0
	ldr	r2, [r4, #84]
	.loc 1 746 24
	bic	r2, r2, #4096
	str	r2, [r4, #84]
	.loc 1 748 9 is_stmt 1
	.loc 1 748 18 is_stmt 0
	ldr	r2, [r4, #84]
	.loc 1 748 12
	tst	r2, #256
	bne	.L131
	.loc 1 750 11 is_stmt 1
	.loc 1 750 17 is_stmt 0
	ldr	r2, [r4, #84]
	.loc 1 750 26
	orr	r2, r2, #1
	str	r2, [r4, #84]
.L131:
	.loc 1 757 3 is_stmt 1
	.loc 1 757 6 is_stmt 0
	cmp	r6, #64
	beq	.L143
	.loc 1 770 5 is_stmt 1
	.loc 1 770 30 is_stmt 0
	movs	r2, #32
	str	r2, [r3]
	.loc 1 774 10
	movs	r0, #0
.LVL149:
.L122:
	.loc 1 775 1
	pop	{r4, r5, r6, r7, r8, pc}
.LVL150:
.L143:
	.loc 1 763 5 is_stmt 1
	.loc 1 763 8 is_stmt 0
	tst	r1, #16384
	bne	.L138
	.loc 1 765 7 is_stmt 1
	.loc 1 765 32 is_stmt 0
	movs	r2, #96
	str	r2, [r3]
	.loc 1 774 10
	movs	r0, #0
.LVL151:
	b	.L122
.LVL152:
.L138:
	movs	r0, #0
.LVL153:
	b	.L122
.L145:
	.align	2
.L144:
	.word	1073881088
	.word	1073881344
	.word	1073881856
	.word	1476551424
	.cfi_endproc
.LFE343:
	.size	HAL_ADCEx_InjectedPollForConversion, .-HAL_ADCEx_InjectedPollForConversion
	.section	.text.HAL_ADCEx_InjectedStart_IT,"ax",%progbits
	.align	1
	.global	HAL_ADCEx_InjectedStart_IT
	.syntax unified
	.thumb
	.thumb_func
	.type	HAL_ADCEx_InjectedStart_IT, %function
HAL_ADCEx_InjectedStart_IT:
.LFB344:
	.loc 1 790 1 is_stmt 1
	.cfi_startproc
	@ args = 0, pretend = 0, frame = 0
	@ frame_needed = 0, uses_anonymous_args = 0
.LVL154:
	push	{r3, r4, r5, lr}
	.cfi_def_cfa_offset 16
	.cfi_offset 3, -16
	.cfi_offset 4, -12
	.cfi_offset 5, -8
	.cfi_offset 14, -4
	mov	r4, r0
	.loc 1 791 3
	.loc 1 792 3
	.loc 1 793 3
	.loc 1 793 63 is_stmt 0
	ldr	r3, [r0]
	.loc 1 793 35
	ldr	r1, .L173
	ldr	r2, .L173+4
	cmp	r3, r2
	it	ne
	cmpne	r3, r1
	bne	.L163
	add	r2, r2, #512
.L147:
.LVL155:
.LBB363:
.LBB364:
	.loc 2 6603 3 is_stmt 1 discriminator 4
	.loc 2 6603 35 is_stmt 0 discriminator 4
	ldr	r5, [r2, #8]
	.loc 2 6603 10 discriminator 4
	and	r5, r5, #31
.LVL156:
.LBE364:
.LBE363:
	.loc 1 796 3 is_stmt 1 discriminator 4
	.loc 1 798 3 discriminator 4
.LBB365:
.LBB366:
	.loc 2 7270 3 discriminator 4
	.loc 2 7270 18 is_stmt 0 discriminator 4
	ldr	r2, [r3, #8]
	.loc 2 7270 73 discriminator 4
	tst	r2, #8
	bne	.L164
.LVL157:
.LBE366:
.LBE365:
	.loc 1 811 5 is_stmt 1
	.loc 1 811 49 is_stmt 0
	ldr	r2, [r3, #12]
.LVL158:
	.loc 1 813 5 is_stmt 1
	.loc 1 813 26 is_stmt 0
	ldr	r3, [r3, #76]
	.loc 1 813 8
	tst	r3, #384
	bne	.L149
	.loc 1 814 9
	cmp	r2, #0
	bge	.L169
.L149:
	.loc 1 822 5 is_stmt 1
	.loc 1 822 9
	.loc 1 822 18 is_stmt 0
	ldrb	r3, [r4, #80]	@ zero_extendqisi2
	.loc 1 822 11
	cmp	r3, #1
	beq	.L165
	.loc 1 822 68 is_stmt 1 discriminator 2
	.loc 1 822 81 is_stmt 0 discriminator 2
	movs	r3, #1
	strb	r3, [r4, #80]
	.loc 1 822 7 is_stmt 1 discriminator 2
	.loc 1 825 5 discriminator 2
	.loc 1 825 22 is_stmt 0 discriminator 2
	mov	r0, r4
.LVL159:
	bl	ADC_Enable
.LVL160:
	.loc 1 828 5 is_stmt 1 discriminator 2
	.loc 1 828 8 is_stmt 0 discriminator 2
	cmp	r0, #0
	bne	.L150
	.loc 1 831 7 is_stmt 1
	.loc 1 831 16 is_stmt 0
	ldr	r3, [r4, #84]
	.loc 1 831 10
	tst	r3, #256
	beq	.L151
	.loc 1 834 9 is_stmt 1
	.loc 1 834 15 is_stmt 0
	ldr	r3, [r4, #88]
	.loc 1 834 28
	bic	r3, r3, #8
	str	r3, [r4, #88]
.L152:
	.loc 1 845 7 is_stmt 1
	.loc 1 845 36 is_stmt 0
	ldr	r2, [r4, #84]
	.loc 1 845 87
	ldr	r3, .L173+8
	ands	r3, r3, r2
	orr	r3, r3, #4096
	.loc 1 845 24
	str	r3, [r4, #84]
	.loc 1 852 7 is_stmt 1
	.loc 1 852 22 is_stmt 0
	ldr	r3, [r4]
	.loc 1 852 169
	ldr	r2, .L173+4
	cmp	r3, r2
	beq	.L170
	mov	r2, r3
.L153:
	.loc 1 852 10 discriminator 4
	cmp	r3, r2
	beq	.L154
	.loc 1 853 11
	cbnz	r5, .L155
.L154:
	.loc 1 856 9 is_stmt 1
	.loc 1 856 15 is_stmt 0
	ldr	r2, [r4, #84]
	.loc 1 856 24
	bic	r2, r2, #1048576
	str	r2, [r4, #84]
.L155:
	.loc 1 861 7 is_stmt 1
	.loc 1 861 32 is_stmt 0
	movs	r2, #96
	str	r2, [r3]
	.loc 1 866 7 is_stmt 1
	.loc 1 866 11
	.loc 1 866 24 is_stmt 0
	movs	r3, #0
	strb	r3, [r4, #80]
	.loc 1 866 9 is_stmt 1
	.loc 1 870 7
	.loc 1 870 16 is_stmt 0
	ldr	r3, [r4]
	.loc 1 870 26
	ldr	r2, [r3, #12]
	.loc 1 870 10
	tst	r2, #2097152
	beq	.L156
	.loc 1 872 9 is_stmt 1
	.loc 1 872 27 is_stmt 0
	ldr	r2, [r3, #4]
	.loc 1 872 34
	orr	r2, r2, #1024
	str	r2, [r3, #4]
.L156:
	.loc 1 876 7 is_stmt 1
	.loc 1 876 25 is_stmt 0
	ldr	r3, [r4, #16]
	.loc 1 876 7
	cmp	r3, #8
	beq	.L171
	.loc 1 884 11 is_stmt 1
	.loc 1 884 19 is_stmt 0
	ldr	r2, [r4]
	.loc 1 884 29
	ldr	r3, [r2, #4]
	.loc 1 884 36
	bic	r3, r3, #64
	str	r3, [r2, #4]
	.loc 1 885 11 is_stmt 1
	.loc 1 885 19 is_stmt 0
	ldr	r2, [r4]
	.loc 1 885 29
	ldr	r3, [r2, #4]
	.loc 1 885 36
	orr	r3, r3, #32
	str	r3, [r2, #4]
	.loc 1 886 11 is_stmt 1
.L158:
	.loc 1 901 7
	.loc 1 901 22 is_stmt 0
	ldr	r3, [r4]
	.loc 1 901 169
	ldr	r2, .L173+4
	cmp	r3, r2
	beq	.L172
	mov	r2, r3
.L159:
	.loc 1 901 10 discriminator 4
	cmp	r3, r2
	beq	.L160
	.loc 1 903 36
	cmp	r5, #6
	ite	ne
	movne	r2, #0
	moveq	r2, #1
	.loc 1 903 11
	cbz	r5, .L160
	cbnz	r2, .L160
	.loc 1 904 11
	cmp	r5, #7
	beq	.L160
	.loc 1 916 9 is_stmt 1
	.loc 1 916 15 is_stmt 0
	ldr	r3, [r4, #84]
	.loc 1 916 24
	orr	r3, r3, #1048576
	str	r3, [r4, #84]
	b	.L148
.LVL161:
.L163:
	.loc 1 793 35
	ldr	r2, .L173+12
	b	.L147
.LVL162:
.L169:
	.loc 1 817 7 is_stmt 1
	.loc 1 817 13 is_stmt 0
	ldr	r3, [r4, #84]
	.loc 1 817 22
	orr	r3, r3, #32
	str	r3, [r4, #84]
	.loc 1 818 7 is_stmt 1
	.loc 1 818 14 is_stmt 0
	movs	r0, #1
.LVL163:
	b	.L148
.LVL164:
.L151:
	.loc 1 839 9 is_stmt 1
	.loc 1 839 28 is_stmt 0
	movs	r3, #0
	str	r3, [r4, #88]
	b	.L152
.L170:
	.loc 1 852 169
	sub	r2, r2, #256
	b	.L153
.L171:
	.loc 1 879 11 is_stmt 1
	.loc 1 879 19 is_stmt 0
	ldr	r2, [r4]
	.loc 1 879 29
	ldr	r3, [r2, #4]
	.loc 1 879 36
	bic	r3, r3, #32
	str	r3, [r2, #4]
	.loc 1 880 11 is_stmt 1
	.loc 1 880 19 is_stmt 0
	ldr	r2, [r4]
	.loc 1 880 29
	ldr	r3, [r2, #4]
	.loc 1 880 36
	orr	r3, r3, #64
	str	r3, [r2, #4]
	.loc 1 881 11 is_stmt 1
	b	.L158
.L172:
	.loc 1 901 169 is_stmt 0
	sub	r2, r2, #256
	b	.L159
.L160:
	.loc 1 908 9 is_stmt 1
.LVL165:
.LBB367:
.LBB368:
	.loc 2 5019 3
	.loc 2 5019 27 is_stmt 0
	ldr	r2, [r3, #12]
.LVL166:
.LBE368:
.LBE367:
	.loc 1 908 12
	tst	r2, #33554432
	bne	.L148
	.loc 1 910 11 is_stmt 1
.LVL167:
.LBB369:
.LBB370:
	.loc 2 7237 3
	.loc 2 7237 29 is_stmt 0
	ldr	r1, [r3, #8]
	.loc 2 7237 37
	ldr	r2, .L173+16
	ands	r2, r2, r1
	.loc 2 7237 172
	orr	r2, r2, #8
	.loc 2 7237 17
	str	r2, [r3, #8]
	.loc 2 7240 1
	b	.L148
.LVL168:
.L150:
.LBE370:
.LBE369:
	.loc 1 923 7 is_stmt 1
	.loc 1 923 11
	.loc 1 923 24 is_stmt 0
	movs	r3, #0
	strb	r3, [r4, #80]
	.loc 1 923 9 is_stmt 1
	.loc 1 927 5
	.loc 1 927 12 is_stmt 0
	b	.L148
.LVL169:
.L164:
	.loc 1 800 12
	movs	r0, #2
.LVL170:
.L148:
	.loc 1 929 1
	pop	{r3, r4, r5, pc}
.LVL171:
.L165:
	.loc 1 822 49
	movs	r0, #2
.LVL172:
	b	.L148
.L174:
	.align	2
.L173:
	.word	1073881088
	.word	1073881344
	.word	-12290
	.word	1476551424
	.word	2147483584
	.cfi_endproc
.LFE344:
	.size	HAL_ADCEx_InjectedStart_IT, .-HAL_ADCEx_InjectedStart_IT
	.section	.text.HAL_ADCEx_InjectedStop_IT,"ax",%progbits
	.align	1
	.global	HAL_ADCEx_InjectedStop_IT
	.syntax unified
	.thumb
	.thumb_func
	.type	HAL_ADCEx_InjectedStop_IT, %function
HAL_ADCEx_InjectedStop_IT:
.LFB345:
	.loc 1 951 1 is_stmt 1
	.cfi_startproc
	@ args = 0, pretend = 0, frame = 0
	@ frame_needed = 0, uses_anonymous_args = 0
.LVL173:
	.loc 1 952 3
	.loc 1 955 3
	.loc 1 958 3
	.loc 1 958 7
	.loc 1 958 16 is_stmt 0
	ldrb	r3, [r0, #80]	@ zero_extendqisi2
	.loc 1 958 9
	cmp	r3, #1
	beq	.L179
	.loc 1 951 1 discriminator 2
	push	{r4, lr}
	.cfi_def_cfa_offset 8
	.cfi_offset 4, -8
	.cfi_offset 14, -4
	mov	r4, r0
	.loc 1 958 66 is_stmt 1 discriminator 2
	.loc 1 958 79 is_stmt 0 discriminator 2
	movs	r3, #1
	strb	r3, [r0, #80]
	.loc 1 958 5 is_stmt 1 discriminator 2
	.loc 1 961 3 discriminator 2
	.loc 1 961 20 is_stmt 0 discriminator 2
	movs	r1, #2
	bl	ADC_ConversionStop
.LVL174:
	.loc 1 966 3 is_stmt 1 discriminator 2
	.loc 1 966 6 is_stmt 0 discriminator 2
	cbnz	r0, .L177
	.loc 1 969 5 is_stmt 1
	.loc 1 969 13 is_stmt 0
	ldr	r2, [r4]
	.loc 1 969 23
	ldr	r3, [r2, #4]
	.loc 1 969 30
	bic	r3, r3, #1120
	str	r3, [r2, #4]
	.loc 1 971 5 is_stmt 1
	.loc 1 971 9 is_stmt 0
	ldr	r3, [r4]
.LVL175:
.LBB371:
.LBB372:
	.loc 2 7075 3 is_stmt 1
	.loc 2 7075 18 is_stmt 0
	ldr	r3, [r3, #8]
.LVL176:
	.loc 2 7075 73
	tst	r3, #4
	beq	.L178
.LVL177:
.LBE372:
.LBE371:
	.loc 1 990 7 is_stmt 1
	.loc 1 990 13 is_stmt 0
	ldr	r3, [r4, #84]
	.loc 1 990 22
	bic	r3, r3, #4096
	str	r3, [r4, #84]
.L177:
	.loc 1 995 3 is_stmt 1
	.loc 1 995 7
	.loc 1 995 20 is_stmt 0
	movs	r3, #0
	strb	r3, [r4, #80]
	.loc 1 995 5 is_stmt 1
	.loc 1 998 3
	.loc 1 999 1 is_stmt 0
	pop	{r4, pc}
.LVL178:
.L178:
	.loc 1 974 7 is_stmt 1
	.loc 1 974 24 is_stmt 0
	mov	r0, r4
.LVL179:
	bl	ADC_Disable
.LVL180:
	.loc 1 977 7 is_stmt 1
	.loc 1 977 10 is_stmt 0
	cmp	r0, #0
	bne	.L177
	.loc 1 980 9 is_stmt 1
	.loc 1 980 38 is_stmt 0
	ldr	r2, [r4, #84]
	.loc 1 980 89
	ldr	r3, .L184
	ands	r3, r3, r2
	orr	r3, r3, #1
	.loc 1 980 26
	str	r3, [r4, #84]
	b	.L177
.LVL181:
.L179:
	.cfi_def_cfa_offset 0
	.cfi_restore 4
	.cfi_restore 14
	.loc 1 958 47
	movs	r0, #2
.LVL182:
	.loc 1 999 1
	bx	lr
.L185:
	.align	2
.L184:
	.word	-4354
	.cfi_endproc
.LFE345:
	.size	HAL_ADCEx_InjectedStop_IT, .-HAL_ADCEx_InjectedStop_IT
	.section	.text.HAL_ADCEx_MultiModeStart_DMA,"ax",%progbits
	.align	1
	.global	HAL_ADCEx_MultiModeStart_DMA
	.syntax unified
	.thumb
	.thumb_func
	.type	HAL_ADCEx_MultiModeStart_DMA, %function
HAL_ADCEx_MultiModeStart_DMA:
.LFB346:
	.loc 1 1020 1 is_stmt 1
	.cfi_startproc
	@ args = 0, pretend = 0, frame = 104
	@ frame_needed = 0, uses_anonymous_args = 0
.LVL183:
	push	{r4, r5, r6, lr}
	.cfi_def_cfa_offset 16
	.cfi_offset 4, -16
	.cfi_offset 5, -12
	.cfi_offset 6, -8
	.cfi_offset 14, -4
	sub	sp, sp, #104
	.cfi_def_cfa_offset 120
	mov	r4, r0
	mov	r5, r1
	.loc 1 1021 3
	.loc 1 1022 3
	.loc 1 1023 3
	.loc 1 1026 3
	.loc 1 1027 3
	.loc 1 1028 3
	.loc 1 1030 3
	.loc 1 1030 7 is_stmt 0
	ldr	r0, [r0]
.LVL184:
.LBB373:
.LBB374:
	.loc 2 7075 3 is_stmt 1
	.loc 2 7075 18 is_stmt 0
	ldr	r1, [r0, #8]
.LVL185:
	.loc 2 7075 73
	tst	r1, #4
	bne	.L199
	mov	r6, r2
.LVL186:
.LBE374:
.LBE373:
	.loc 1 1037 5 is_stmt 1
	.loc 1 1037 9
	.loc 1 1037 18 is_stmt 0
	ldrb	r3, [r4, #80]	@ zero_extendqisi2
	.loc 1 1037 11
	cmp	r3, #1
	beq	.L200
	.loc 1 1037 68 is_stmt 1 discriminator 2
	.loc 1 1037 81 is_stmt 0 discriminator 2
	movs	r3, #1
	strb	r3, [r4, #80]
	.loc 1 1037 7 is_stmt 1 discriminator 2
	.loc 1 1041 5 discriminator 2
	.loc 1 1041 166 is_stmt 0 discriminator 2
	ldr	r3, .L211
	cmp	r0, r3
	beq	.L205
	.loc 1 1041 166
	mov	r3, r0
.L188:
	.loc 1 1041 8 discriminator 4
	cmp	r0, r3
	bne	.L206
	.loc 1 1048 7 is_stmt 1
	.loc 1 1048 26 is_stmt 0
	movs	r3, #0
	str	r3, [sp, #88]
	.loc 1 1049 7 is_stmt 1
	.loc 1 1049 30 is_stmt 0
	str	r3, [sp, #92]
	.loc 1 1051 7 is_stmt 1
	.loc 1 1051 17 is_stmt 0
	ldr	r2, [r4]
.LVL187:
	.loc 1 1051 191
	ldr	r3, .L211+4
	cmp	r2, r3
	beq	.L207
	.loc 1 1051 220 discriminator 2
	movs	r3, #0
	str	r3, [sp, #4]
.L192:
	.loc 1 1053 7 is_stmt 1
	.loc 1 1053 23 is_stmt 0
	ldr	r3, [sp, #4]
	.loc 1 1053 10
	cmp	r3, #0
	beq	.L208
	.loc 1 1066 7 is_stmt 1
	.loc 1 1066 24 is_stmt 0
	mov	r0, r4
	bl	ADC_Enable
.LVL188:
	.loc 1 1067 7 is_stmt 1
	.loc 1 1067 10 is_stmt 0
	cmp	r0, #0
	beq	.L209
.L194:
.LVL189:
	.loc 1 1135 7 is_stmt 1
	.loc 1 1135 11
	.loc 1 1135 24 is_stmt 0
	movs	r3, #0
	strb	r3, [r4, #80]
.LVL190:
	.loc 1 1135 9 is_stmt 1
	.loc 1 1139 5
	.loc 1 1139 12 is_stmt 0
	b	.L187
.LVL191:
.L205:
	.loc 1 1041 166
	sub	r3, r3, #256
	b	.L188
.L206:
	.loc 1 1044 7 is_stmt 1
	.loc 1 1044 24 is_stmt 0
	mov	r0, r4
	bl	ADC_Enable
.LVL192:
.L190:
	.loc 1 1074 5 is_stmt 1
	.loc 1 1074 8 is_stmt 0
	cmp	r0, #0
	bne	.L194
	.loc 1 1077 7 is_stmt 1
	.loc 1 1077 36 is_stmt 0
	ldr	r2, [r4, #84]
	.loc 1 1077 123
	ldr	r3, .L211+8
	ands	r3, r3, r2
	orr	r3, r3, #256
	.loc 1 1077 24
	str	r3, [r4, #84]
	.loc 1 1082 7 is_stmt 1
	.loc 1 1082 26 is_stmt 0
	movs	r3, #0
	str	r3, [r4, #88]
	.loc 1 1085 7 is_stmt 1
	.loc 1 1085 11 is_stmt 0
	ldr	r2, [r4, #76]
	.loc 1 1085 42
	ldr	r1, .L211+12
	str	r1, [r2, #60]
	.loc 1 1088 7 is_stmt 1
	.loc 1 1088 11 is_stmt 0
	ldr	r2, [r4, #76]
	.loc 1 1088 46
	ldr	r1, .L211+16
	str	r1, [r2, #64]
	.loc 1 1091 7 is_stmt 1
	.loc 1 1091 11 is_stmt 0
	ldr	r2, [r4, #76]
	.loc 1 1091 43
	ldr	r1, .L211+20
	str	r1, [r2, #76]
	.loc 1 1098 7 is_stmt 1
	.loc 1 1098 15 is_stmt 0
	ldr	r2, [r4]
	.loc 1 1098 32
	movs	r1, #28
	str	r1, [r2]
	.loc 1 1103 7 is_stmt 1
	.loc 1 1103 11
	.loc 1 1103 24 is_stmt 0
	strb	r3, [r4, #80]
	.loc 1 1103 9 is_stmt 1
	.loc 1 1106 7
	.loc 1 1106 15 is_stmt 0
	ldr	r2, [r4]
	.loc 1 1106 25
	ldr	r3, [r2, #4]
	.loc 1 1106 32
	orr	r3, r3, #16
	str	r3, [r2, #4]
	.loc 1 1110 7 is_stmt 1
	.loc 1 1110 21 is_stmt 0
	ldr	r1, [r4]
	.loc 1 1110 168
	ldr	r3, .L211
	cmp	r1, r3
	beq	.L210
	mov	r3, r1
.L195:
	.loc 1 1110 10 discriminator 4
	cmp	r1, r3
	beq	.L196
	.loc 1 1114 9 is_stmt 1
	.loc 1 1114 26 is_stmt 0
	mov	r3, r6
	mov	r2, r5
	adds	r1, r1, #64
	ldr	r0, [r4, #76]
.LVL193:
	bl	HAL_DMA_Start_IT
.LVL194:
	b	.L187
.LVL195:
.L207:
	.loc 1 1051 125 discriminator 1
	add	r3, r3, #256
	str	r3, [sp, #4]
	b	.L192
.L208:
	.loc 1 1056 9 is_stmt 1
	.loc 1 1056 15 is_stmt 0
	ldr	r3, [r4, #84]
	.loc 1 1056 24
	orr	r3, r3, #32
	str	r3, [r4, #84]
	.loc 1 1059 9 is_stmt 1
	.loc 1 1059 13
	.loc 1 1059 26 is_stmt 0
	movs	r3, #0
	strb	r3, [r4, #80]
	.loc 1 1059 11 is_stmt 1
	.loc 1 1061 9
	.loc 1 1061 16 is_stmt 0
	movs	r0, #1
	b	.L187
.LVL196:
.L209:
	.loc 1 1069 9 is_stmt 1
	.loc 1 1069 26 is_stmt 0
	add	r0, sp, #4
.LVL197:
	bl	ADC_Enable
.LVL198:
	b	.L190
.L210:
	.loc 1 1110 168
	sub	r3, r3, #256
	b	.L195
.L196:
	.loc 1 1119 9 is_stmt 1
	.loc 1 1119 279 is_stmt 0
	ldr	r2, .L211+4
	ldr	r3, .L211
	cmp	r1, r3
	it	ne
	cmpne	r1, r2
	bne	.L203
	ldr	r1, .L211+24
.L198:
.LVL199:
	.loc 1 1122 9 is_stmt 1 discriminator 4
	.loc 1 1122 26 is_stmt 0 discriminator 4
	mov	r3, r6
	mov	r2, r5
	adds	r1, r1, #12
.LVL200:
	ldr	r0, [r4, #76]
.LVL201:
	bl	HAL_DMA_Start_IT
.LVL202:
	.loc 1 1129 9 is_stmt 1 discriminator 4
	ldr	r2, [r4]
.LVL203:
.LBB375:
.LBB376:
	.loc 2 7042 3 discriminator 4
	.loc 2 7042 29 is_stmt 0 discriminator 4
	ldr	r1, [r2, #8]
	.loc 2 7042 37 discriminator 4
	ldr	r3, .L211+28
	ands	r3, r3, r1
	.loc 2 7042 172 discriminator 4
	orr	r3, r3, #4
	.loc 2 7042 17 discriminator 4
	str	r3, [r2, #8]
	.loc 2 7045 1 discriminator 4
	b	.L187
.LVL204:
.L203:
.LBE376:
.LBE375:
	.loc 1 1119 279
	ldr	r1, .L211+32
	b	.L198
.LVL205:
.L199:
	.loc 1 1032 12
	movs	r0, #2
.LVL206:
.L187:
	.loc 1 1141 1
	add	sp, sp, #104
	.cfi_remember_state
	.cfi_def_cfa_offset 16
	@ sp needed
	pop	{r4, r5, r6, pc}
.LVL207:
.L200:
	.cfi_restore_state
	.loc 1 1037 49
	movs	r0, #2
	b	.L187
.L212:
	.align	2
.L211:
	.word	1073881344
	.word	1073881088
	.word	-3842
	.word	ADC_DMAConvCplt
	.word	ADC_DMAHalfConvCplt
	.word	ADC_DMAError
	.word	1073881856
	.word	2147483584
	.word	1476551424
	.cfi_endproc
.LFE346:
	.size	HAL_ADCEx_MultiModeStart_DMA, .-HAL_ADCEx_MultiModeStart_DMA
	.section	.text.HAL_ADCEx_MultiModeStop_DMA,"ax",%progbits
	.align	1
	.global	HAL_ADCEx_MultiModeStop_DMA
	.syntax unified
	.thumb
	.thumb_func
	.type	HAL_ADCEx_MultiModeStop_DMA, %function
HAL_ADCEx_MultiModeStop_DMA:
.LFB347:
	.loc 1 1157 1 is_stmt 1
	.cfi_startproc
	@ args = 0, pretend = 0, frame = 104
	@ frame_needed = 0, uses_anonymous_args = 0
.LVL208:
	push	{r4, r5, r6, lr}
	.cfi_def_cfa_offset 16
	.cfi_offset 4, -16
	.cfi_offset 5, -12
	.cfi_offset 6, -8
	.cfi_offset 14, -4
	sub	sp, sp, #104
	.cfi_def_cfa_offset 120
	.loc 1 1158 3
	.loc 1 1159 3
	.loc 1 1160 3
	.loc 1 1161 3
	.loc 1 1162 3
	.loc 1 1165 3
	.loc 1 1168 3
	.loc 1 1168 7
	.loc 1 1168 16 is_stmt 0
	ldrb	r3, [r0, #80]	@ zero_extendqisi2
	.loc 1 1168 9
	cmp	r3, #1
	beq	.L231
	mov	r4, r0
	.loc 1 1168 66 is_stmt 1 discriminator 2
	.loc 1 1168 79 is_stmt 0 discriminator 2
	movs	r3, #1
	strb	r3, [r0, #80]
	.loc 1 1168 5 is_stmt 1 discriminator 2
	.loc 1 1172 3 discriminator 2
	.loc 1 1172 20 is_stmt 0 discriminator 2
	movs	r1, #3
	bl	ADC_ConversionStop
.LVL209:
	.loc 1 1175 3 is_stmt 1 discriminator 2
	.loc 1 1175 6 is_stmt 0 discriminator 2
	mov	r5, r0
	cmp	r0, #0
	bne	.L215
	.loc 1 1177 5 is_stmt 1
	.loc 1 1177 24 is_stmt 0
	movs	r3, #0
	str	r3, [sp, #88]
	.loc 1 1178 5 is_stmt 1
	.loc 1 1178 28 is_stmt 0
	str	r3, [sp, #92]
	.loc 1 1181 5 is_stmt 1
	.loc 1 1181 15 is_stmt 0
	ldr	r2, [r4]
	.loc 1 1181 189
	ldr	r3, .L238
	cmp	r2, r3
	beq	.L234
	.loc 1 1181 218 discriminator 2
	movs	r3, #0
	str	r3, [sp, #4]
.L217:
	.loc 1 1183 5 is_stmt 1
	.loc 1 1183 21 is_stmt 0
	ldr	r3, [sp, #4]
	.loc 1 1183 8
	cbz	r3, .L235
	.loc 1 1198 5 is_stmt 1
	.loc 1 1198 17 is_stmt 0
	bl	HAL_GetTick
.LVL210:
	mov	r5, r0
.LVL211:
	.loc 1 1200 5 is_stmt 1
	.loc 1 1200 40 is_stmt 0
	ldr	r3, [sp, #4]
.LVL212:
.LBB377:
.LBB378:
	.loc 2 7075 3 is_stmt 1
	.loc 2 7075 18 is_stmt 0
	ldr	r3, [r3, #8]
.LVL213:
	.loc 2 7075 73
	ands	r3, r3, #4
	beq	.L226
	movs	r3, #1
	b	.L226
.LVL214:
.L234:
.LBE378:
.LBE377:
	.loc 1 1181 123 discriminator 1
	add	r3, r3, #256
	str	r3, [sp, #4]
	b	.L217
.L235:
	.loc 1 1186 7 is_stmt 1
	.loc 1 1186 13 is_stmt 0
	ldr	r3, [r4, #84]
	.loc 1 1186 22
	orr	r3, r3, #32
	str	r3, [r4, #84]
	.loc 1 1189 7 is_stmt 1
	.loc 1 1189 11
	.loc 1 1189 24 is_stmt 0
	movs	r3, #0
	strb	r3, [r4, #80]
	.loc 1 1189 9 is_stmt 1
	.loc 1 1191 7
	.loc 1 1191 14 is_stmt 0
	movs	r5, #1
	b	.L214
.LVL215:
.L221:
	.loc 1 1224 7 is_stmt 1
	.loc 1 1224 42 is_stmt 0
	ldr	r3, [sp, #4]
.LVL216:
.LBB379:
.LBB380:
	.loc 2 7075 3 is_stmt 1
	.loc 2 7075 18 is_stmt 0
	ldr	r3, [r3, #8]
.LVL217:
	.loc 2 7075 73
	ands	r3, r3, #4
	bne	.L224
.LVL218:
.L226:
.LBE380:
.LBE379:
	.loc 1 1202 12 is_stmt 1
	.loc 1 1201 13 is_stmt 0
	ldr	r2, [r4]
.LVL219:
.LBB382:
.LBB383:
	.loc 2 7075 3 is_stmt 1
	.loc 2 7075 18 is_stmt 0
	ldr	r2, [r2, #8]
.LVL220:
	.loc 2 7075 73
	tst	r2, #4
	bne	.L227
.LVL221:
.LBE383:
.LBE382:
	.loc 1 1202 12
	cmp	r3, #1
	bne	.L236
.L227:
	.loc 1 1205 7 is_stmt 1
	.loc 1 1205 12 is_stmt 0
	bl	HAL_GetTick
.LVL222:
	.loc 1 1205 26
	subs	r3, r0, r5
	.loc 1 1205 10
	cmp	r3, #5
	bls	.L221
	.loc 1 1208 9 is_stmt 1
	.loc 1 1208 44 is_stmt 0
	ldr	r3, [sp, #4]
.LVL223:
.LBB384:
.LBB385:
	.loc 2 7075 3 is_stmt 1
	.loc 2 7075 18 is_stmt 0
	ldr	r3, [r3, #8]
.LVL224:
	.loc 2 7075 73
	ands	r3, r3, #4
	beq	.L222
	movs	r3, #1
.L222:
.LVL225:
.LBE385:
.LBE384:
	.loc 1 1210 9 is_stmt 1
	.loc 1 1210 13 is_stmt 0
	ldr	r2, [r4]
.LVL226:
.LBB386:
.LBB387:
	.loc 2 7075 3 is_stmt 1
	.loc 2 7075 18 is_stmt 0
	ldr	r2, [r2, #8]
.LVL227:
	.loc 2 7075 73
	tst	r2, #4
	bne	.L223
.LVL228:
.LBE387:
.LBE386:
	.loc 1 1211 12
	cmp	r3, #1
	bne	.L221
.L223:
	.loc 1 1215 11 is_stmt 1
	.loc 1 1215 17 is_stmt 0
	ldr	r3, [r4, #84]
.LVL229:
	.loc 1 1215 26
	orr	r3, r3, #16
	str	r3, [r4, #84]
	.loc 1 1218 11 is_stmt 1
	.loc 1 1218 15
	.loc 1 1218 28 is_stmt 0
	movs	r3, #0
	strb	r3, [r4, #80]
	.loc 1 1218 13 is_stmt 1
	.loc 1 1220 11
	.loc 1 1220 18 is_stmt 0
	movs	r5, #1
.LVL230:
	b	.L214
.LVL231:
.L224:
.LBB388:
.LBB381:
	.loc 2 7075 73
	movs	r3, #1
	b	.L226
.LVL232:
.L236:
.LBE381:
.LBE388:
	.loc 1 1231 5 is_stmt 1
	.loc 1 1231 22 is_stmt 0
	ldr	r0, [r4, #76]
	bl	HAL_DMA_Abort
.LVL233:
	mov	r5, r0
.LVL234:
	.loc 1 1234 5 is_stmt 1
	.loc 1 1234 8 is_stmt 0
	cmp	r0, #1
	beq	.L237
.L228:
	.loc 1 1241 5 is_stmt 1
	.loc 1 1241 13 is_stmt 0
	ldr	r2, [r4]
	.loc 1 1241 23
	ldr	r3, [r2, #4]
	.loc 1 1241 30
	bic	r3, r3, #16
	str	r3, [r2, #4]
	.loc 1 1246 5 is_stmt 1
	.loc 1 1246 8 is_stmt 0
	cbnz	r5, .L229
	.loc 1 1248 7 is_stmt 1
	.loc 1 1248 37 is_stmt 0
	add	r0, sp, #4
.LVL235:
	bl	ADC_Disable
.LVL236:
	mov	r6, r0
.LVL237:
	.loc 1 1249 7 is_stmt 1
	.loc 1 1249 12 is_stmt 0
	mov	r0, r4
	bl	ADC_Disable
.LVL238:
	.loc 1 1249 10
	cbnz	r0, .L230
	.loc 1 1249 41 discriminator 1
	cbnz	r6, .L230
	.loc 1 1252 24
	mov	r5, r6
	b	.L230
.LVL239:
.L237:
	.loc 1 1237 7 is_stmt 1
	.loc 1 1237 13 is_stmt 0
	ldr	r3, [r4, #84]
	.loc 1 1237 22
	orr	r3, r3, #64
	str	r3, [r4, #84]
	b	.L228
.L229:
	.loc 1 1258 7 is_stmt 1
	.loc 1 1258 14 is_stmt 0
	mov	r0, r4
.LVL240:
	bl	ADC_Disable
.LVL241:
	.loc 1 1259 7 is_stmt 1
	.loc 1 1259 14 is_stmt 0
	add	r0, sp, #4
	bl	ADC_Disable
.LVL242:
.L230:
	.loc 1 1263 5 is_stmt 1
	.loc 1 1263 34 is_stmt 0
	ldr	r2, [r4, #84]
	.loc 1 1263 85
	ldr	r3, .L238+4
	ands	r3, r3, r2
	orr	r3, r3, #1
	.loc 1 1263 22
	str	r3, [r4, #84]
.LVL243:
.L215:
	.loc 1 1269 3 is_stmt 1
	.loc 1 1269 7
	.loc 1 1269 20 is_stmt 0
	movs	r3, #0
	strb	r3, [r4, #80]
	.loc 1 1269 5 is_stmt 1
	.loc 1 1272 3
.LVL244:
.L214:
	.loc 1 1273 1 is_stmt 0
	mov	r0, r5
	add	sp, sp, #104
	.cfi_remember_state
	.cfi_def_cfa_offset 16
	@ sp needed
	pop	{r4, r5, r6, pc}
.LVL245:
.L231:
	.cfi_restore_state
	.loc 1 1168 47
	movs	r5, #2
	b	.L214
.L239:
	.align	2
.L238:
	.word	1073881088
	.word	-4354
	.cfi_endproc
.LFE347:
	.size	HAL_ADCEx_MultiModeStop_DMA, .-HAL_ADCEx_MultiModeStop_DMA
	.section	.text.HAL_ADCEx_MultiModeGetValue,"ax",%progbits
	.align	1
	.global	HAL_ADCEx_MultiModeGetValue
	.syntax unified
	.thumb
	.thumb_func
	.type	HAL_ADCEx_MultiModeGetValue, %function
HAL_ADCEx_MultiModeGetValue:
.LFB348:
	.loc 1 1281 1 is_stmt 1
	.cfi_startproc
	@ args = 0, pretend = 0, frame = 0
	@ frame_needed = 0, uses_anonymous_args = 0
	@ link register save eliminated.
.LVL246:
	.loc 1 1282 3
	.loc 1 1285 3
	.loc 1 1289 3
	.loc 1 1292 3
	.loc 1 1292 27 is_stmt 0
	ldr	r3, [r0]
	.loc 1 1292 273
	ldr	r1, .L243
	ldr	r2, .L243+4
	cmp	r3, r2
	it	ne
	cmpne	r3, r1
	bne	.L242
	ldr	r3, .L243+8
.L241:
.LVL247:
	.loc 1 1295 3 is_stmt 1 discriminator 4
	.loc 1 1295 23 is_stmt 0 discriminator 4
	ldr	r0, [r3, #12]
.LVL248:
	.loc 1 1296 1 discriminator 4
	bx	lr
.LVL249:
.L242:
	.loc 1 1292 273
	ldr	r3, .L243+12
	b	.L241
.L244:
	.align	2
.L243:
	.word	1073881088
	.word	1073881344
	.word	1073881856
	.word	1476551424
	.cfi_endproc
.LFE348:
	.size	HAL_ADCEx_MultiModeGetValue, .-HAL_ADCEx_MultiModeGetValue
	.section	.text.HAL_ADCEx_InjectedGetValue,"ax",%progbits
	.align	1
	.global	HAL_ADCEx_InjectedGetValue
	.syntax unified
	.thumb
	.thumb_func
	.type	HAL_ADCEx_InjectedGetValue, %function
HAL_ADCEx_InjectedGetValue:
.LFB349:
	.loc 1 1327 1 is_stmt 1
	.cfi_startproc
	@ args = 0, pretend = 0, frame = 0
	@ frame_needed = 0, uses_anonymous_args = 0
	@ link register save eliminated.
.LVL250:
	.loc 1 1328 3
	.loc 1 1331 3
	.loc 1 1332 3
	.loc 1 1335 3
	movw	r3, #533
	cmp	r1, r3
	beq	.L246
	movw	r3, #795
	cmp	r1, r3
	beq	.L247
	movw	r3, #271
	cmp	r1, r3
	beq	.L252
	.loc 1 1348 7
	.loc 1 1348 21 is_stmt 0
	ldr	r3, [r0]
	.loc 1 1348 15
	ldr	r0, [r3, #128]
.LVL251:
	.loc 1 1349 7 is_stmt 1
	.loc 1 1353 3
	.loc 1 1354 1 is_stmt 0
	bx	lr
.LVL252:
.L247:
	.loc 1 1338 7 is_stmt 1
	.loc 1 1338 21 is_stmt 0
	ldr	r3, [r0]
	.loc 1 1338 15
	ldr	r0, [r3, #140]
.LVL253:
	.loc 1 1339 7 is_stmt 1
	bx	lr
.LVL254:
.L246:
	.loc 1 1341 7
	.loc 1 1341 21 is_stmt 0
	ldr	r3, [r0]
	.loc 1 1341 15
	ldr	r0, [r3, #136]
.LVL255:
	.loc 1 1342 7 is_stmt 1
	bx	lr
.LVL256:
.L252:
	.loc 1 1344 7
	.loc 1 1344 21 is_stmt 0
	ldr	r3, [r0]
	.loc 1 1344 15
	ldr	r0, [r3, #132]
.LVL257:
	.loc 1 1345 7 is_stmt 1
	bx	lr
	.cfi_endproc
.LFE349:
	.size	HAL_ADCEx_InjectedGetValue, .-HAL_ADCEx_InjectedGetValue
	.section	.text.HAL_ADCEx_InjectedConvCpltCallback,"ax",%progbits
	.align	1
	.weak	HAL_ADCEx_InjectedConvCpltCallback
	.syntax unified
	.thumb
	.thumb_func
	.type	HAL_ADCEx_InjectedConvCpltCallback, %function
HAL_ADCEx_InjectedConvCpltCallback:
.LFB350:
	.loc 1 1362 1
	.cfi_startproc
	@ args = 0, pretend = 0, frame = 0
	@ frame_needed = 0, uses_anonymous_args = 0
	@ link register save eliminated.
.LVL258:
	.loc 1 1364 3
	.loc 1 1369 1 is_stmt 0
	bx	lr
	.cfi_endproc
.LFE350:
	.size	HAL_ADCEx_InjectedConvCpltCallback, .-HAL_ADCEx_InjectedConvCpltCallback
	.section	.text.HAL_ADCEx_InjectedQueueOverflowCallback,"ax",%progbits
	.align	1
	.weak	HAL_ADCEx_InjectedQueueOverflowCallback
	.syntax unified
	.thumb
	.thumb_func
	.type	HAL_ADCEx_InjectedQueueOverflowCallback, %function
HAL_ADCEx_InjectedQueueOverflowCallback:
.LFB351:
	.loc 1 1381 1 is_stmt 1
	.cfi_startproc
	@ args = 0, pretend = 0, frame = 0
	@ frame_needed = 0, uses_anonymous_args = 0
	@ link register save eliminated.
.LVL259:
	.loc 1 1383 3
	.loc 1 1388 1 is_stmt 0
	bx	lr
	.cfi_endproc
.LFE351:
	.size	HAL_ADCEx_InjectedQueueOverflowCallback, .-HAL_ADCEx_InjectedQueueOverflowCallback
	.section	.text.HAL_ADCEx_LevelOutOfWindow2Callback,"ax",%progbits
	.align	1
	.weak	HAL_ADCEx_LevelOutOfWindow2Callback
	.syntax unified
	.thumb
	.thumb_func
	.type	HAL_ADCEx_LevelOutOfWindow2Callback, %function
HAL_ADCEx_LevelOutOfWindow2Callback:
.LFB352:
	.loc 1 1396 1 is_stmt 1
	.cfi_startproc
	@ args = 0, pretend = 0, frame = 0
	@ frame_needed = 0, uses_anonymous_args = 0
	@ link register save eliminated.
.LVL260:
	.loc 1 1398 3
	.loc 1 1403 1 is_stmt 0
	bx	lr
	.cfi_endproc
.LFE352:
	.size	HAL_ADCEx_LevelOutOfWindow2Callback, .-HAL_ADCEx_LevelOutOfWindow2Callback
	.section	.text.HAL_ADCEx_LevelOutOfWindow3Callback,"ax",%progbits
	.align	1
	.weak	HAL_ADCEx_LevelOutOfWindow3Callback
	.syntax unified
	.thumb
	.thumb_func
	.type	HAL_ADCEx_LevelOutOfWindow3Callback, %function
HAL_ADCEx_LevelOutOfWindow3Callback:
.LFB353:
	.loc 1 1411 1 is_stmt 1
	.cfi_startproc
	@ args = 0, pretend = 0, frame = 0
	@ frame_needed = 0, uses_anonymous_args = 0
	@ link register save eliminated.
.LVL261:
	.loc 1 1413 3
	.loc 1 1418 1 is_stmt 0
	bx	lr
	.cfi_endproc
.LFE353:
	.size	HAL_ADCEx_LevelOutOfWindow3Callback, .-HAL_ADCEx_LevelOutOfWindow3Callback
	.section	.text.HAL_ADCEx_EndOfSamplingCallback,"ax",%progbits
	.align	1
	.weak	HAL_ADCEx_EndOfSamplingCallback
	.syntax unified
	.thumb
	.thumb_func
	.type	HAL_ADCEx_EndOfSamplingCallback, %function
HAL_ADCEx_EndOfSamplingCallback:
.LFB354:
	.loc 1 1427 1 is_stmt 1
	.cfi_startproc
	@ args = 0, pretend = 0, frame = 0
	@ frame_needed = 0, uses_anonymous_args = 0
	@ link register save eliminated.
.LVL262:
	.loc 1 1429 3
	.loc 1 1434 1 is_stmt 0
	bx	lr
	.cfi_endproc
.LFE354:
	.size	HAL_ADCEx_EndOfSamplingCallback, .-HAL_ADCEx_EndOfSamplingCallback
	.section	.text.HAL_ADCEx_RegularStop,"ax",%progbits
	.align	1
	.global	HAL_ADCEx_RegularStop
	.syntax unified
	.thumb
	.thumb_func
	.type	HAL_ADCEx_RegularStop, %function
HAL_ADCEx_RegularStop:
.LFB355:
	.loc 1 1444 1 is_stmt 1
	.cfi_startproc
	@ args = 0, pretend = 0, frame = 0
	@ frame_needed = 0, uses_anonymous_args = 0
.LVL263:
	.loc 1 1445 3
	.loc 1 1448 3
	.loc 1 1451 3
	.loc 1 1451 7
	.loc 1 1451 16 is_stmt 0
	ldrb	r3, [r0, #80]	@ zero_extendqisi2
	.loc 1 1451 9
	cmp	r3, #1
	beq	.L262
	.loc 1 1444 1 discriminator 2
	push	{r4, lr}
	.cfi_def_cfa_offset 8
	.cfi_offset 4, -8
	.cfi_offset 14, -4
	mov	r4, r0
	.loc 1 1451 66 is_stmt 1 discriminator 2
	.loc 1 1451 79 is_stmt 0 discriminator 2
	movs	r1, #1
	strb	r1, [r0, #80]
	.loc 1 1451 5 is_stmt 1 discriminator 2
	.loc 1 1454 3 discriminator 2
	.loc 1 1454 20 is_stmt 0 discriminator 2
	bl	ADC_ConversionStop
.LVL264:
	.loc 1 1458 3 is_stmt 1 discriminator 2
	.loc 1 1458 6 is_stmt 0 discriminator 2
	cbnz	r0, .L260
	.loc 1 1461 5 is_stmt 1
	.loc 1 1461 11 is_stmt 0
	ldr	r3, [r4, #84]
	.loc 1 1461 20
	bic	r3, r3, #256
	str	r3, [r4, #84]
	.loc 1 1463 5 is_stmt 1
	.loc 1 1463 9 is_stmt 0
	ldr	r3, [r4]
.LVL265:
.LBB389:
.LBB390:
	.loc 2 7270 3 is_stmt 1
	.loc 2 7270 18 is_stmt 0
	ldr	r3, [r3, #8]
.LVL266:
	.loc 2 7270 73
	tst	r3, #8
	beq	.L261
.LVL267:
.LBE390:
.LBE389:
	.loc 1 1481 7 is_stmt 1
	.loc 1 1481 13 is_stmt 0
	ldr	r3, [r4, #84]
	.loc 1 1481 22
	orr	r3, r3, #4096
	str	r3, [r4, #84]
.L260:
	.loc 1 1486 3 is_stmt 1
	.loc 1 1486 7
	.loc 1 1486 20 is_stmt 0
	movs	r3, #0
	strb	r3, [r4, #80]
	.loc 1 1486 5 is_stmt 1
	.loc 1 1489 3
	.loc 1 1490 1 is_stmt 0
	pop	{r4, pc}
.LVL268:
.L261:
	.loc 1 1466 7 is_stmt 1
	.loc 1 1466 24 is_stmt 0
	mov	r0, r4
.LVL269:
	bl	ADC_Disable
.LVL270:
	.loc 1 1469 7 is_stmt 1
	.loc 1 1469 10 is_stmt 0
	cmp	r0, #0
	bne	.L260
	.loc 1 1472 9 is_stmt 1
	.loc 1 1472 38 is_stmt 0
	ldr	r2, [r4, #84]
	.loc 1 1472 72
	ldr	r3, .L267
	ands	r3, r3, r2
	orr	r3, r3, #1
	.loc 1 1472 26
	str	r3, [r4, #84]
	b	.L260
.LVL271:
.L262:
	.cfi_def_cfa_offset 0
	.cfi_restore 4
	.cfi_restore 14
	.loc 1 1451 47
	movs	r0, #2
.LVL272:
	.loc 1 1490 1
	bx	lr
.L268:
	.align	2
.L267:
	.word	-4098
	.cfi_endproc
.LFE355:
	.size	HAL_ADCEx_RegularStop, .-HAL_ADCEx_RegularStop
	.section	.text.HAL_ADCEx_RegularStop_IT,"ax",%progbits
	.align	1
	.global	HAL_ADCEx_RegularStop_IT
	.syntax unified
	.thumb
	.thumb_func
	.type	HAL_ADCEx_RegularStop_IT, %function
HAL_ADCEx_RegularStop_IT:
.LFB356:
	.loc 1 1502 1 is_stmt 1
	.cfi_startproc
	@ args = 0, pretend = 0, frame = 0
	@ frame_needed = 0, uses_anonymous_args = 0
.LVL273:
	.loc 1 1503 3
	.loc 1 1506 3
	.loc 1 1509 3
	.loc 1 1509 7
	.loc 1 1509 16 is_stmt 0
	ldrb	r3, [r0, #80]	@ zero_extendqisi2
	.loc 1 1509 9
	cmp	r3, #1
	beq	.L273
	.loc 1 1502 1 discriminator 2
	push	{r4, lr}
	.cfi_def_cfa_offset 8
	.cfi_offset 4, -8
	.cfi_offset 14, -4
	mov	r4, r0
	.loc 1 1509 66 is_stmt 1 discriminator 2
	.loc 1 1509 79 is_stmt 0 discriminator 2
	movs	r1, #1
	strb	r1, [r0, #80]
	.loc 1 1509 5 is_stmt 1 discriminator 2
	.loc 1 1512 3 discriminator 2
	.loc 1 1512 20 is_stmt 0 discriminator 2
	bl	ADC_ConversionStop
.LVL274:
	.loc 1 1516 3 is_stmt 1 discriminator 2
	.loc 1 1516 6 is_stmt 0 discriminator 2
	cbnz	r0, .L271
	.loc 1 1519 5 is_stmt 1
	.loc 1 1519 11 is_stmt 0
	ldr	r3, [r4, #84]
	.loc 1 1519 20
	bic	r3, r3, #256
	str	r3, [r4, #84]
	.loc 1 1522 5 is_stmt 1
	.loc 1 1522 13 is_stmt 0
	ldr	r2, [r4]
	.loc 1 1522 23
	ldr	r3, [r2, #4]
	.loc 1 1522 30
	bic	r3, r3, #28
	str	r3, [r2, #4]
	.loc 1 1525 5 is_stmt 1
	.loc 1 1525 9 is_stmt 0
	ldr	r3, [r4]
.LVL275:
.LBB391:
.LBB392:
	.loc 2 7270 3 is_stmt 1
	.loc 2 7270 18 is_stmt 0
	ldr	r3, [r3, #8]
.LVL276:
	.loc 2 7270 73
	tst	r3, #8
	beq	.L272
.LVL277:
.LBE392:
.LBE391:
	.loc 1 1539 7 is_stmt 1
	.loc 1 1539 13 is_stmt 0
	ldr	r3, [r4, #84]
	.loc 1 1539 22
	orr	r3, r3, #4096
	str	r3, [r4, #84]
.L271:
	.loc 1 1544 3 is_stmt 1
	.loc 1 1544 7
	.loc 1 1544 20 is_stmt 0
	movs	r3, #0
	strb	r3, [r4, #80]
	.loc 1 1544 5 is_stmt 1
	.loc 1 1547 3
	.loc 1 1548 1 is_stmt 0
	pop	{r4, pc}
.LVL278:
.L272:
	.loc 1 1527 7 is_stmt 1
	.loc 1 1527 24 is_stmt 0
	mov	r0, r4
.LVL279:
	bl	ADC_Disable
.LVL280:
	.loc 1 1529 7 is_stmt 1
	.loc 1 1529 10 is_stmt 0
	cmp	r0, #0
	bne	.L271
	.loc 1 1532 9 is_stmt 1
	.loc 1 1532 38 is_stmt 0
	ldr	r2, [r4, #84]
	.loc 1 1532 72
	ldr	r3, .L278
	ands	r3, r3, r2
	orr	r3, r3, #1
	.loc 1 1532 26
	str	r3, [r4, #84]
	b	.L271
.LVL281:
.L273:
	.cfi_def_cfa_offset 0
	.cfi_restore 4
	.cfi_restore 14
	.loc 1 1509 47
	movs	r0, #2
.LVL282:
	.loc 1 1548 1
	bx	lr
.L279:
	.align	2
.L278:
	.word	-4098
	.cfi_endproc
.LFE356:
	.size	HAL_ADCEx_RegularStop_IT, .-HAL_ADCEx_RegularStop_IT
	.section	.text.HAL_ADCEx_RegularStop_DMA,"ax",%progbits
	.align	1
	.global	HAL_ADCEx_RegularStop_DMA
	.syntax unified
	.thumb
	.thumb_func
	.type	HAL_ADCEx_RegularStop_DMA, %function
HAL_ADCEx_RegularStop_DMA:
.LFB357:
	.loc 1 1562 1 is_stmt 1
	.cfi_startproc
	@ args = 0, pretend = 0, frame = 0
	@ frame_needed = 0, uses_anonymous_args = 0
.LVL283:
	push	{r3, r4, r5, lr}
	.cfi_def_cfa_offset 16
	.cfi_offset 3, -16
	.cfi_offset 4, -12
	.cfi_offset 5, -8
	.cfi_offset 14, -4
	.loc 1 1563 3
	.loc 1 1566 3
	.loc 1 1569 3
	.loc 1 1569 7
	.loc 1 1569 16 is_stmt 0
	ldrb	r3, [r0, #80]	@ zero_extendqisi2
	.loc 1 1569 9
	cmp	r3, #1
	beq	.L287
	mov	r4, r0
	.loc 1 1569 66 is_stmt 1 discriminator 2
	.loc 1 1569 79 is_stmt 0 discriminator 2
	movs	r1, #1
	strb	r1, [r0, #80]
	.loc 1 1569 5 is_stmt 1 discriminator 2
	.loc 1 1572 3 discriminator 2
	.loc 1 1572 20 is_stmt 0 discriminator 2
	bl	ADC_ConversionStop
.LVL284:
	.loc 1 1576 3 is_stmt 1 discriminator 2
	.loc 1 1576 6 is_stmt 0 discriminator 2
	mov	r5, r0
	cbz	r0, .L289
.LVL285:
.L282:
	.loc 1 1628 3 is_stmt 1
	.loc 1 1628 7
	.loc 1 1628 20 is_stmt 0
	movs	r3, #0
	strb	r3, [r4, #80]
	.loc 1 1628 5 is_stmt 1
	.loc 1 1631 3
.LVL286:
.L281:
	.loc 1 1632 1 is_stmt 0
	mov	r0, r5
	pop	{r3, r4, r5, pc}
.LVL287:
.L289:
	.loc 1 1579 5 is_stmt 1
	.loc 1 1579 11 is_stmt 0
	ldr	r3, [r4, #84]
	.loc 1 1579 20
	bic	r3, r3, #256
	str	r3, [r4, #84]
	.loc 1 1582 5 is_stmt 1
	.loc 1 1582 43 is_stmt 0
	ldr	r2, [r4]
	.loc 1 1582 53
	ldr	r3, [r2, #12]
	.loc 1 1582 105
	bic	r3, r3, #3
	.loc 1 1582 31
	str	r3, [r2, #12]
	.loc 1 1586 5 is_stmt 1
	.loc 1 1586 22 is_stmt 0
	ldr	r0, [r4, #76]
.LVL288:
	bl	HAL_DMA_Abort
.LVL289:
	.loc 1 1589 5 is_stmt 1
	.loc 1 1589 8 is_stmt 0
	mov	r5, r0
	cbz	r0, .L283
	.loc 1 1592 7 is_stmt 1
	.loc 1 1592 13 is_stmt 0
	ldr	r3, [r4, #84]
	.loc 1 1592 22
	orr	r3, r3, #64
	str	r3, [r4, #84]
.L283:
	.loc 1 1596 5 is_stmt 1
	.loc 1 1596 13 is_stmt 0
	ldr	r2, [r4]
	.loc 1 1596 23
	ldr	r3, [r2, #4]
	.loc 1 1596 30
	bic	r3, r3, #16
	str	r3, [r2, #4]
	.loc 1 1601 5 is_stmt 1
	.loc 1 1601 9 is_stmt 0
	ldr	r3, [r4]
.LVL290:
.LBB393:
.LBB394:
	.loc 2 7270 3 is_stmt 1
	.loc 2 7270 18 is_stmt 0
	ldr	r3, [r3, #8]
.LVL291:
	.loc 2 7270 73
	tst	r3, #8
	beq	.L284
.LVL292:
.LBE394:
.LBE393:
	.loc 1 1623 7 is_stmt 1
	.loc 1 1623 13 is_stmt 0
	ldr	r3, [r4, #84]
	.loc 1 1623 22
	orr	r3, r3, #4096
	str	r3, [r4, #84]
	b	.L282
.LVL293:
.L284:
	.loc 1 1603 7 is_stmt 1
	.loc 1 1603 10 is_stmt 0
	cbnz	r5, .L285
	.loc 1 1605 9 is_stmt 1
	.loc 1 1605 26 is_stmt 0
	mov	r0, r4
.LVL294:
	bl	ADC_Disable
.LVL295:
	mov	r5, r0
.LVL296:
.L286:
	.loc 1 1613 7 is_stmt 1
	.loc 1 1613 10 is_stmt 0
	cmp	r5, #0
	bne	.L282
	.loc 1 1616 9 is_stmt 1
	.loc 1 1616 38 is_stmt 0
	ldr	r2, [r4, #84]
	.loc 1 1616 72
	ldr	r3, .L290
	ands	r3, r3, r2
	orr	r3, r3, #1
	.loc 1 1616 26
	str	r3, [r4, #84]
	b	.L282
.LVL297:
.L285:
	.loc 1 1609 9 is_stmt 1
	.loc 1 1609 15 is_stmt 0
	mov	r0, r4
.LVL298:
	bl	ADC_Disable
.LVL299:
	b	.L286
.LVL300:
.L287:
	.loc 1 1569 47
	movs	r5, #2
	b	.L281
.L291:
	.align	2
.L290:
	.word	-4098
	.cfi_endproc
.LFE357:
	.size	HAL_ADCEx_RegularStop_DMA, .-HAL_ADCEx_RegularStop_DMA
	.section	.text.HAL_ADCEx_RegularMultiModeStop_DMA,"ax",%progbits
	.align	1
	.global	HAL_ADCEx_RegularMultiModeStop_DMA
	.syntax unified
	.thumb
	.thumb_func
	.type	HAL_ADCEx_RegularMultiModeStop_DMA, %function
HAL_ADCEx_RegularMultiModeStop_DMA:
.LFB358:
	.loc 1 1648 1 is_stmt 1
	.cfi_startproc
	@ args = 0, pretend = 0, frame = 104
	@ frame_needed = 0, uses_anonymous_args = 0
.LVL301:
	.loc 1 1649 3
	.loc 1 1650 3
	.loc 1 1651 3
	.loc 1 1652 3
	.loc 1 1655 3
	.loc 1 1658 3
	.loc 1 1658 7
	.loc 1 1658 16 is_stmt 0
	ldrb	r3, [r0, #80]	@ zero_extendqisi2
	.loc 1 1658 9
	cmp	r3, #1
	beq	.L309
	.loc 1 1648 1 discriminator 2
	push	{r4, r5, lr}
	.cfi_def_cfa_offset 12
	.cfi_offset 4, -12
	.cfi_offset 5, -8
	.cfi_offset 14, -4
	sub	sp, sp, #108
	.cfi_def_cfa_offset 120
	mov	r4, r0
	.loc 1 1658 66 is_stmt 1 discriminator 2
	.loc 1 1658 79 is_stmt 0 discriminator 2
	movs	r1, #1
	strb	r1, [r0, #80]
	.loc 1 1658 5 is_stmt 1 discriminator 2
	.loc 1 1662 3 discriminator 2
	.loc 1 1662 20 is_stmt 0 discriminator 2
	bl	ADC_ConversionStop
.LVL302:
	.loc 1 1665 3 is_stmt 1 discriminator 2
	.loc 1 1665 6 is_stmt 0 discriminator 2
	cmp	r0, #0
	bne	.L294
	.loc 1 1668 5 is_stmt 1
	.loc 1 1668 11 is_stmt 0
	ldr	r3, [r4, #84]
	.loc 1 1668 20
	bic	r3, r3, #256
	str	r3, [r4, #84]
	.loc 1 1670 5 is_stmt 1
	.loc 1 1670 24 is_stmt 0
	movs	r3, #0
	str	r3, [sp, #88]
	.loc 1 1671 5 is_stmt 1
	.loc 1 1671 28 is_stmt 0
	str	r3, [sp, #92]
	.loc 1 1674 5 is_stmt 1
	.loc 1 1674 15 is_stmt 0
	ldr	r2, [r4]
	.loc 1 1674 189
	ldr	r3, .L317
	cmp	r2, r3
	beq	.L314
	.loc 1 1674 218 discriminator 2
	movs	r3, #0
	str	r3, [sp, #4]
.L296:
	.loc 1 1676 5 is_stmt 1
	.loc 1 1676 21 is_stmt 0
	ldr	r3, [sp, #4]
	.loc 1 1676 8
	cbz	r3, .L315
	.loc 1 1691 5 is_stmt 1
	.loc 1 1691 17 is_stmt 0
	bl	HAL_GetTick
.LVL303:
	mov	r5, r0
.LVL304:
	.loc 1 1693 5 is_stmt 1
	.loc 1 1693 40 is_stmt 0
	ldr	r3, [sp, #4]
.LVL305:
.LBB395:
.LBB396:
	.loc 2 7075 3 is_stmt 1
	.loc 2 7075 18 is_stmt 0
	ldr	r3, [r3, #8]
.LVL306:
	.loc 2 7075 73
	ands	r3, r3, #4
	beq	.L305
	movs	r3, #1
	b	.L305
.LVL307:
.L314:
.LBE396:
.LBE395:
	.loc 1 1674 123 discriminator 1
	add	r3, r3, #256
	str	r3, [sp, #4]
	b	.L296
.L315:
	.loc 1 1679 7 is_stmt 1
	.loc 1 1679 13 is_stmt 0
	ldr	r3, [r4, #84]
	.loc 1 1679 22
	orr	r3, r3, #32
	str	r3, [r4, #84]
	.loc 1 1682 7 is_stmt 1
	.loc 1 1682 11
	.loc 1 1682 24 is_stmt 0
	movs	r3, #0
	strb	r3, [r4, #80]
	.loc 1 1682 9 is_stmt 1
	.loc 1 1684 7
	.loc 1 1684 14 is_stmt 0
	movs	r0, #1
.LVL308:
	b	.L293
.LVL309:
.L300:
	.loc 1 1717 7 is_stmt 1
	.loc 1 1717 42 is_stmt 0
	ldr	r3, [sp, #4]
.LVL310:
.LBB397:
.LBB398:
	.loc 2 7075 3 is_stmt 1
	.loc 2 7075 18 is_stmt 0
	ldr	r3, [r3, #8]
.LVL311:
	.loc 2 7075 73
	ands	r3, r3, #4
	bne	.L303
.LVL312:
.L305:
.LBE398:
.LBE397:
	.loc 1 1695 12 is_stmt 1
	.loc 1 1694 13 is_stmt 0
	ldr	r2, [r4]
.LVL313:
.LBB400:
.LBB401:
	.loc 2 7075 3 is_stmt 1
	.loc 2 7075 18 is_stmt 0
	ldr	r2, [r2, #8]
.LVL314:
	.loc 2 7075 73
	tst	r2, #4
	bne	.L306
.LVL315:
.LBE401:
.LBE400:
	.loc 1 1695 12
	cmp	r3, #1
	bne	.L316
.L306:
	.loc 1 1698 7 is_stmt 1
	.loc 1 1698 12 is_stmt 0
	bl	HAL_GetTick
.LVL316:
	.loc 1 1698 26
	subs	r3, r0, r5
	.loc 1 1698 10
	cmp	r3, #5
	bls	.L300
	.loc 1 1701 9 is_stmt 1
	.loc 1 1701 44 is_stmt 0
	ldr	r3, [sp, #4]
.LVL317:
.LBB402:
.LBB403:
	.loc 2 7075 3 is_stmt 1
	.loc 2 7075 18 is_stmt 0
	ldr	r3, [r3, #8]
.LVL318:
	.loc 2 7075 73
	ands	r3, r3, #4
	beq	.L301
	movs	r3, #1
.L301:
.LVL319:
.LBE403:
.LBE402:
	.loc 1 1703 9 is_stmt 1
	.loc 1 1703 13 is_stmt 0
	ldr	r2, [r4]
.LVL320:
.LBB404:
.LBB405:
	.loc 2 7075 3 is_stmt 1
	.loc 2 7075 18 is_stmt 0
	ldr	r2, [r2, #8]
.LVL321:
	.loc 2 7075 73
	tst	r2, #4
	bne	.L302
.LVL322:
.LBE405:
.LBE404:
	.loc 1 1704 12
	cmp	r3, #1
	bne	.L300
.L302:
	.loc 1 1708 11 is_stmt 1
	.loc 1 1708 17 is_stmt 0
	ldr	r3, [r4, #84]
.LVL323:
	.loc 1 1708 26
	orr	r3, r3, #16
	str	r3, [r4, #84]
	.loc 1 1711 11 is_stmt 1
	.loc 1 1711 15
	.loc 1 1711 28 is_stmt 0
	movs	r3, #0
	strb	r3, [r4, #80]
	.loc 1 1711 13 is_stmt 1
	.loc 1 1713 11
	.loc 1 1713 18 is_stmt 0
	movs	r0, #1
	b	.L293
.LVL324:
.L303:
.LBB406:
.LBB399:
	.loc 2 7075 73
	movs	r3, #1
	b	.L305
.LVL325:
.L316:
.LBE399:
.LBE406:
	.loc 1 1724 5 is_stmt 1
	.loc 1 1724 22 is_stmt 0
	ldr	r0, [r4, #76]
	bl	HAL_DMA_Abort
.LVL326:
	.loc 1 1727 5 is_stmt 1
	.loc 1 1727 8 is_stmt 0
	cbz	r0, .L307
	.loc 1 1730 7 is_stmt 1
	.loc 1 1730 13 is_stmt 0
	ldr	r3, [r4, #84]
	.loc 1 1730 22
	orr	r3, r3, #64
	str	r3, [r4, #84]
.L307:
	.loc 1 1734 5 is_stmt 1
	.loc 1 1734 13 is_stmt 0
	ldr	r2, [r4]
	.loc 1 1734 23
	ldr	r3, [r2, #4]
	.loc 1 1734 30
	bic	r3, r3, #16
	str	r3, [r2, #4]
	.loc 1 1740 5 is_stmt 1
	.loc 1 1740 8 is_stmt 0
	cbnz	r0, .L294
	.loc 1 1742 7 is_stmt 1
	.loc 1 1742 11 is_stmt 0
	ldr	r3, [r4]
.LVL327:
.LBB407:
.LBB408:
	.loc 2 7270 3 is_stmt 1
	.loc 2 7270 18 is_stmt 0
	ldr	r3, [r3, #8]
.LVL328:
	.loc 2 7270 73
	tst	r3, #8
	bne	.L308
.LVL329:
.LBE408:
.LBE407:
	.loc 1 1744 9 is_stmt 1
	.loc 1 1744 26 is_stmt 0
	mov	r0, r4
.LVL330:
	bl	ADC_Disable
.LVL331:
	.loc 1 1745 9 is_stmt 1
	.loc 1 1745 12 is_stmt 0
	cbnz	r0, .L294
	.loc 1 1747 11 is_stmt 1
	.loc 1 1747 15 is_stmt 0
	ldr	r3, [sp, #4]
.LVL332:
.LBB409:
.LBB410:
	.loc 2 7270 3 is_stmt 1
	.loc 2 7270 18 is_stmt 0
	ldr	r3, [r3, #8]
.LVL333:
	.loc 2 7270 73
	tst	r3, #8
	bne	.L308
.LVL334:
.LBE410:
.LBE409:
	.loc 1 1749 13 is_stmt 1
	.loc 1 1749 30 is_stmt 0
	add	r0, sp, #4
.LVL335:
	bl	ADC_Disable
.LVL336:
.L308:
	.loc 1 1754 7 is_stmt 1
	.loc 1 1754 10 is_stmt 0
	cbnz	r0, .L294
	.loc 1 1758 9 is_stmt 1
	.loc 1 1758 38 is_stmt 0
	ldr	r2, [r4, #84]
	.loc 1 1758 72
	ldr	r3, .L317+4
	ands	r3, r3, r2
	orr	r3, r3, #1
	.loc 1 1758 26
	str	r3, [r4, #84]
.LVL337:
.L294:
	.loc 1 1764 7 is_stmt 1
	.loc 1 1769 3
	.loc 1 1769 7
	.loc 1 1769 20 is_stmt 0
	movs	r3, #0
	strb	r3, [r4, #80]
	.loc 1 1769 5 is_stmt 1
	.loc 1 1772 3
.LVL338:
.L293:
	.loc 1 1773 1 is_stmt 0
	add	sp, sp, #108
	.cfi_def_cfa_offset 12
	@ sp needed
	pop	{r4, r5, pc}
.LVL339:
.L309:
	.cfi_def_cfa_offset 0
	.cfi_restore 4
	.cfi_restore 5
	.cfi_restore 14
	.loc 1 1658 47
	movs	r0, #2
.LVL340:
	.loc 1 1773 1
	bx	lr
.L318:
	.align	2
.L317:
	.word	1073881088
	.word	-4098
	.cfi_endproc
.LFE358:
	.size	HAL_ADCEx_RegularMultiModeStop_DMA, .-HAL_ADCEx_RegularMultiModeStop_DMA
	.section	.text.HAL_ADCEx_InjectedConfigChannel,"ax",%progbits
	.align	1
	.global	HAL_ADCEx_InjectedConfigChannel
	.syntax unified
	.thumb
	.thumb_func
	.type	HAL_ADCEx_InjectedConfigChannel, %function
HAL_ADCEx_InjectedConfigChannel:
.LFB359:
	.loc 1 1832 1 is_stmt 1
	.cfi_startproc
	@ args = 0, pretend = 0, frame = 8
	@ frame_needed = 0, uses_anonymous_args = 0
.LVL341:
	push	{r4, r5, r6, r7, lr}
	.cfi_def_cfa_offset 20
	.cfi_offset 4, -20
	.cfi_offset 5, -16
	.cfi_offset 6, -12
	.cfi_offset 7, -8
	.cfi_offset 14, -4
	sub	sp, sp, #12
	.cfi_def_cfa_offset 32
	.loc 1 1833 3
.LVL342:
	.loc 1 1834 3
	.loc 1 1835 3
	.loc 1 1836 3
	.loc 1 1837 3
	.loc 1 1838 3
	.loc 1 1838 21 is_stmt 0
	movs	r3, #0
	str	r3, [sp, #4]
	.loc 1 1840 3 is_stmt 1
.LVL343:
	.loc 1 1843 3
	.loc 1 1844 3
	.loc 1 1845 3
	.loc 1 1846 3
	.loc 1 1847 3
	.loc 1 1848 3
	.loc 1 1849 3
	.loc 1 1850 3
	.loc 1 1851 3
	.loc 1 1862 5
	.loc 1 1865 3
	.loc 1 1865 17 is_stmt 0
	ldr	r2, [r0, #12]
	.loc 1 1867 5 is_stmt 1
	.loc 1 1868 5
	.loc 1 1869 5
	.loc 1 1873 3
	.loc 1 1879 5
	.loc 1 1890 3
	.loc 1 1893 3
	.loc 1 1896 3
	.loc 1 1913 7
	.loc 1 1919 3
	.loc 1 1919 7
	.loc 1 1919 16 is_stmt 0
	ldrb	r3, [r0, #80]	@ zero_extendqisi2
	.loc 1 1919 9
	cmp	r3, #1
	beq	.L399
	mov	r4, r0
	mov	r5, r1
	.loc 1 1919 66 is_stmt 1 discriminator 2
	.loc 1 1919 79 is_stmt 0 discriminator 2
	movs	r3, #1
	strb	r3, [r0, #80]
	.loc 1 1919 5 is_stmt 1 discriminator 2
	.loc 1 1942 3 discriminator 2
	.loc 1 1942 6 is_stmt 0 discriminator 2
	cbz	r2, .L321
	.loc 1 1943 23 discriminator 1
	ldr	r3, [r1, #32]
	.loc 1 1942 51 discriminator 1
	cmp	r3, #1
	beq	.L321
	.loc 1 1989 5 is_stmt 1
	.loc 1 1989 30 is_stmt 0
	ldr	r2, [r0, #96]
	.loc 1 1989 8
	cmp	r2, #0
	bne	.L400
	.loc 1 1993 7 is_stmt 1
	.loc 1 1993 42 is_stmt 0
	str	r3, [r0, #96]
	.loc 1 1997 7 is_stmt 1
	.loc 1 1997 42 is_stmt 0
	movs	r3, #0
	str	r3, [r0, #92]
	.loc 1 2009 7 is_stmt 1
	.loc 1 2009 26 is_stmt 0
	ldr	r3, [r1, #40]
	.loc 1 2009 10
	cmp	r3, #0
	beq	.L327
	.loc 1 2011 9 is_stmt 1
	.loc 1 2011 60 is_stmt 0
	ldr	r2, [r1, #32]
	.loc 1 2011 86
	subs	r2, r2, #1
	.loc 1 2012 86
	and	r3, r3, #124
	.loc 1 2012 44
	orrs	r2, r2, r3
	.loc 1 2013 61
	ldr	r3, [r1, #44]
	.loc 1 2011 41
	orrs	r2, r2, r3
.LVL344:
	b	.L326
.LVL345:
.L321:
	.loc 1 1952 5 is_stmt 1
	.loc 1 1952 24 is_stmt 0
	ldr	r3, [r5, #4]
	.loc 1 1952 8
	cmp	r3, #9
	beq	.L416
.LVL346:
.L323:
	.loc 1 2054 3 is_stmt 1
	.loc 1 2054 7 is_stmt 0
	ldr	r2, [r4]
.LVL347:
.LBB411:
.LBB412:
	.loc 2 7270 3 is_stmt 1
	.loc 2 7270 18 is_stmt 0
	ldr	r3, [r2, #8]
	.loc 2 7270 73
	tst	r3, #8
	bne	.L328
.LVL348:
.LBE412:
.LBE411:
	.loc 1 2056 5 is_stmt 1
	.loc 1 2056 29 is_stmt 0
	ldr	r3, [r5]
	.loc 1 2056 8
	cmp	r3, #0
	blt	.L329
	.loc 1 2066 7 is_stmt 1
	.loc 1 2066 79 is_stmt 0
	ubfx	r1, r3, #0, #20
	.loc 1 2066 37
	cmp	r1, #0
	bne	.L330
	.loc 1 2066 175 discriminator 1
	ubfx	r3, r3, #26, #5
	.loc 1 2066 37 discriminator 1
	movs	r1, #1
	lsls	r1, r1, r3
.L331:
	.loc 1 2066 21 discriminator 4
	ldr	r3, [r2, #28]
	.loc 1 2066 29 discriminator 4
	orrs	r3, r3, r1
	str	r3, [r2, #28]
.L329:
	.loc 1 2071 5 is_stmt 1
	.loc 1 2071 24 is_stmt 0
	ldrb	r3, [r5, #37]	@ zero_extendqisi2
	.loc 1 2071 8
	cmp	r3, #0
	bne	.L333
	.loc 1 2073 7 is_stmt 1
	.loc 1 2073 45 is_stmt 0
	ldr	r1, [r4]
	.loc 1 2073 55
	ldr	r3, [r1, #12]
	.loc 1 2073 65
	bic	r3, r3, #3145728
	.loc 1 2073 139
	ldrb	r0, [r5, #38]	@ zero_extendqisi2
.LVL349:
	.loc 1 2073 202
	ldrb	r2, [r5, #36]	@ zero_extendqisi2
	.loc 1 2073 235
	lsls	r2, r2, #20
	.loc 1 2073 173
	orr	r2, r2, r0, lsl #21
	.loc 1 2073 109
	orrs	r3, r3, r2
	.loc 1 2073 33
	str	r3, [r1, #12]
.L328:
	.loc 1 2096 3 is_stmt 1
	.loc 1 2096 44 is_stmt 0
	ldr	r1, [r4]
.LVL350:
.LBB413:
.LBB414:
	.loc 2 7075 3 is_stmt 1
	.loc 2 7075 18 is_stmt 0
	ldr	r3, [r1, #8]
	.loc 2 7075 73
	ands	r3, r3, #4
	beq	.L334
	movs	r3, #1
.L334:
.LVL351:
.LBE414:
.LBE413:
	.loc 1 2097 3 is_stmt 1
.LBB415:
.LBB416:
	.loc 2 7270 3
	.loc 2 7270 18 is_stmt 0
	ldr	r2, [r1, #8]
	.loc 2 7270 73
	ands	r2, r2, #8
	beq	.L335
	movs	r2, #1
.L335:
.LVL352:
.LBE416:
.LBE415:
	.loc 1 2099 3 is_stmt 1
	.loc 1 2099 6 is_stmt 0
	orrs	r6, r2, r3
	bne	.L402
	.loc 1 2105 5 is_stmt 1
	.loc 1 2105 25 is_stmt 0
	ldr	r3, [r5, #40]
.LVL353:
	.loc 1 2105 8
	cbz	r3, .L337
	.loc 1 2106 28
	ldr	r3, [r5, #44]
	.loc 1 2106 9
	cmp	r3, #0
	bne	.L338
.L337:
	.loc 1 2108 7 is_stmt 1
	.loc 1 2108 26 is_stmt 0
	ldrb	r3, [r5, #37]	@ zero_extendqisi2
	.loc 1 2108 10
	cmp	r3, #1
	beq	.L417
	.loc 1 2114 9 is_stmt 1
	.loc 1 2114 25 is_stmt 0
	ldr	r3, [r1, #12]
	.loc 1 2114 33
	bic	r3, r3, #33554432
	str	r3, [r1, #12]
	.loc 1 1833 21
	movs	r7, #0
.LVL354:
.L340:
	.loc 1 2134 5 is_stmt 1
	.loc 1 2134 24 is_stmt 0
	ldrb	r3, [r5, #48]	@ zero_extendqisi2
	.loc 1 2134 8
	cmp	r3, #1
	beq	.L418
	.loc 1 2195 7 is_stmt 1
	.loc 1 2195 13 is_stmt 0
	ldr	r2, [r4]
.LVL355:
	.loc 1 2195 23
	ldr	r3, [r2, #16]
	.loc 1 2195 32
	bic	r3, r3, #2
	str	r3, [r2, #16]
.L343:
	.loc 1 2199 5 is_stmt 1
	ldr	r2, [r5, #8]
	ldr	r1, [r5]
	ldr	r0, [r4]
	bl	LL_ADC_SetChannelSamplingTime
.LVL356:
	.loc 1 2213 7
	.loc 1 2213 64 is_stmt 0
	ldr	r3, .L429
	ldr	r3, [r3]
	.loc 1 2213 73
	and	r3, r3, #-268435456
	.loc 1 2213 204
	cmp	r3, #268435456
	beq	.L419
	.loc 1 2213 215 discriminator 2
	ldr	r2, [r4]
	.loc 1 2213 225 discriminator 2
	ldr	r3, [r2, #12]
	.loc 1 2213 358 discriminator 2
	tst	r3, #16
	bne	.L346
	.loc 1 2213 279 discriminator 4
	ldr	r3, [r5, #20]
	.loc 1 2213 318 discriminator 4
	ldr	r2, [r2, #12]
	.loc 1 2213 344 discriminator 4
	ubfx	r2, r2, #2, #3
	.loc 1 2213 351 discriminator 4
	lsls	r2, r2, #1
	.loc 1 2213 358 discriminator 4
	lsls	r3, r3, r2
	b	.L345
.LVL357:
.L416:
	.loc 1 1959 7 is_stmt 1
	.loc 1 1959 26 is_stmt 0
	ldr	r2, [r5, #40]
	.loc 1 1959 10
	cbz	r2, .L324
	.loc 1 1961 9 is_stmt 1
	.loc 1 1961 63 is_stmt 0
	ldr	r3, [r5]
	.loc 1 1961 105
	lsrs	r3, r3, #26
	.loc 1 1961 116
	lsls	r3, r3, #9
	and	r3, r3, #15872
	.loc 1 1962 86
	and	r2, r2, #124
	.loc 1 1962 44
	orrs	r3, r3, r2
	.loc 1 1963 61
	ldr	r2, [r5, #44]
	.loc 1 1961 41
	orrs	r3, r3, r2
.LVL358:
.L325:
	.loc 1 1971 7 is_stmt 1
	.loc 1 1971 45 is_stmt 0
	ldr	r1, [r4]
.LVL359:
	.loc 1 1971 55
	ldr	r2, [r1, #76]
	.loc 1 1971 65
	bic	r2, r2, #-83886080
	bic	r2, r2, #15663104
	bic	r2, r2, #48896
	bic	r2, r2, #255
	.loc 1 1971 210
	orrs	r2, r2, r3
	.loc 1 1971 33
	str	r2, [r1, #76]
	.loc 1 1973 7 is_stmt 1
	.loc 1 1973 42 is_stmt 0
	str	r3, [r4, #92]
	b	.L323
.LVL360:
.L324:
	.loc 1 1968 9 is_stmt 1
	.loc 1 1968 63 is_stmt 0
	ldr	r3, [r5]
	.loc 1 1968 105
	lsrs	r3, r3, #26
	.loc 1 1968 116
	lsls	r3, r3, #9
	.loc 1 1968 41
	and	r3, r3, #15872
.LVL361:
	b	.L325
.LVL362:
.L327:
	.loc 1 2018 9 is_stmt 1
	.loc 1 2018 60 is_stmt 0
	ldr	r2, [r1, #32]
	.loc 1 2018 41
	subs	r2, r2, #1
.LVL363:
	b	.L326
.LVL364:
.L400:
	.loc 1 1840 12
	movs	r2, #0
.LVL365:
.L326:
	.loc 1 2026 5 is_stmt 1
	.loc 1 2029 5
	.loc 1 2029 59 is_stmt 0
	ldr	r3, [r5]
	.loc 1 2029 101
	ubfx	r3, r3, #26, #5
	.loc 1 2029 132
	ldr	r1, [r5, #4]
.LVL366:
	.loc 1 2029 148
	and	r1, r1, #31
	.loc 1 2029 112
	lsls	r3, r3, r1
	.loc 1 2029 37
	orrs	r3, r3, r2
.LVL367:
	.loc 1 2032 5 is_stmt 1
	.loc 1 2032 26 is_stmt 0
	ldr	r1, [r4, #96]
	.loc 1 2032 39
	subs	r1, r1, #1
	str	r1, [r4, #96]
	.loc 1 2037 5 is_stmt 1
	.loc 1 2037 26 is_stmt 0
	ldr	r2, [r4, #92]
	.loc 1 2037 40
	orrs	r3, r3, r2
.LVL368:
	str	r3, [r4, #92]
	.loc 1 2041 5 is_stmt 1
	.loc 1 2041 8 is_stmt 0
	cmp	r1, #0
	bne	.L323
	.loc 1 2043 7 is_stmt 1
	.loc 1 2043 45 is_stmt 0
	ldr	r1, [r4]
	.loc 1 2043 55
	ldr	r2, [r1, #76]
	.loc 1 2043 65
	bic	r2, r2, #-83886080
	bic	r2, r2, #15663104
	bic	r2, r2, #48896
	bic	r2, r2, #255
	.loc 1 2043 210
	orrs	r3, r3, r2
	.loc 1 2043 33
	str	r3, [r1, #76]
	b	.L323
.LVL369:
.L330:
.LBB417:
.LBB418:
	.file 3 "d:\\rtos\\board\\yd-stm32h7xxvx_classicv19\\cmake-build-debug\\_deps\\stm32h7xx_cmsis_include\\drivers\\cmsis\\include\\cmsis_gcc.h"
	.loc 3 1050 3 is_stmt 1 discriminator 2
	.loc 3 1055 4 discriminator 2
	.syntax unified
@ 1055 "d:\rtos\board\yd-stm32h7xxvx_classicv19\cmake-build-debug\_deps\stm32h7xx_cmsis_include\drivers\cmsis\include\cmsis_gcc.h" 1
	rbit r3, r3
@ 0 "" 2
.LVL370:
	.loc 3 1068 3 discriminator 2
	.thumb
	.syntax unified
.LBE418:
.LBE417:
.LBB419:
.LBB420:
	.loc 3 1089 3 discriminator 2
	.loc 3 1089 6 is_stmt 0 discriminator 2
	cbz	r3, .L401
	.loc 3 1093 3 is_stmt 1
	.loc 3 1093 10 is_stmt 0
	clz	r3, r3
.LVL371:
.L332:
.LBE420:
.LBE419:
	.loc 1 2066 257
	and	r3, r3, #31
	.loc 1 2066 37
	movs	r1, #1
	lsls	r1, r1, r3
	b	.L331
.LVL372:
.L401:
.LBB422:
.LBB421:
	.loc 3 1091 12
	movs	r3, #32
.LVL373:
	b	.L332
.LVL374:
.L333:
.LBE421:
.LBE422:
	.loc 1 2082 7 is_stmt 1
	.loc 1 2082 45 is_stmt 0
	ldr	r2, [r4]
	.loc 1 2082 55
	ldr	r3, [r2, #12]
	.loc 1 2082 65
	bic	r3, r3, #3145728
	.loc 1 2082 139
	ldrb	r1, [r5, #38]	@ zero_extendqisi2
	.loc 1 2082 109
	orr	r3, r3, r1, lsl #21
	.loc 1 2082 33
	str	r3, [r2, #12]
	b	.L328
.LVL375:
.L417:
	.loc 1 2110 9 is_stmt 1
	.loc 1 2110 25 is_stmt 0
	ldr	r3, [r1, #12]
	.loc 1 2110 33
	orr	r3, r3, #33554432
	str	r3, [r1, #12]
	.loc 1 1833 21
	movs	r7, #0
	b	.L340
.L338:
	.loc 1 2121 7 is_stmt 1
	.loc 1 2121 26 is_stmt 0
	ldrb	r7, [r5, #37]	@ zero_extendqisi2
	.loc 1 2121 10
	cmp	r7, #1
	beq	.L420
	.loc 1 2130 9 is_stmt 1
	.loc 1 2130 25 is_stmt 0
	ldr	r3, [r1, #12]
	.loc 1 2130 33
	bic	r3, r3, #33554432
	str	r3, [r1, #12]
	.loc 1 1833 21
	movs	r7, #0
	b	.L340
.L420:
	.loc 1 2124 9 is_stmt 1
	.loc 1 2124 15 is_stmt 0
	ldr	r3, [r4, #84]
	.loc 1 2124 24
	orr	r3, r3, #32
	str	r3, [r4, #84]
	.loc 1 2126 9 is_stmt 1
.LVL376:
	b	.L340
.LVL377:
.L418:
	.loc 1 2146 7
	.loc 1 2148 7
	.loc 1 2151 7
	.loc 1 2182 7
	.loc 1 2182 46 is_stmt 0
	ldr	r0, [r4]
	.loc 1 2182 56
	ldr	r2, [r0, #16]
.LVL378:
	.loc 1 2182 67
	ldr	r3, .L429+4
	ands	r3, r3, r2
	.loc 1 2182 187
	ldr	r2, [r5, #52]
	.loc 1 2182 194
	subs	r1, r2, #1
	.loc 1 2182 247
	ldr	r2, [r5, #56]
	.loc 1 2182 211
	orr	r2, r2, r1, lsl #16
	.loc 1 2182 130
	orrs	r3, r3, r2
	orr	r3, r3, #2
	.loc 1 2182 34
	str	r3, [r0, #16]
	b	.L343
.L419:
	.loc 1 2213 125 discriminator 1
	ldr	r3, [r5, #20]
	.loc 1 2213 154 discriminator 1
	ldr	r2, [r4]
	.loc 1 2213 164 discriminator 1
	ldr	r2, [r2, #12]
	.loc 1 2213 190 discriminator 1
	ubfx	r2, r2, #2, #3
	.loc 1 2213 197 discriminator 1
	lsls	r2, r2, #1
	.loc 1 2213 204 discriminator 1
	lsls	r3, r3, r2
.L345:
.LVL379:
	.loc 1 2216 5 is_stmt 1 discriminator 8
	.loc 1 2216 24 is_stmt 0 discriminator 8
	ldr	r0, [r5, #16]
	.loc 1 2216 8 discriminator 8
	cmp	r0, #4
	beq	.L347
	.loc 1 2219 7 is_stmt 1
	ldr	r2, [r4]
	ldr	r1, [r5]
.LVL380:
.LBB423:
.LBB424:
	.loc 2 3381 3
	.loc 2 3381 75 is_stmt 0
	add	ip, r2, #96
.LVL381:
	.loc 2 3392 5 is_stmt 1
	.loc 2 3392 24 is_stmt 0
	ldr	r2, [ip, r0, lsl #2]
.LVL382:
	.loc 2 3392 33
	and	r2, r2, #-2147483648
	.loc 2 3392 95
	and	r1, r1, #2080374784
.LVL383:
	.loc 2 3392 118
	orrs	r3, r3, r1
.LVL384:
	.loc 2 3392 83
	orrs	r3, r3, r2
	.loc 2 3392 16
	str	r3, [ip, r0, lsl #2]
.LVL385:
.LBE424:
.LBE423:
	.loc 1 2232 9 is_stmt 1
	ldr	r3, [r4]
	ldr	r1, [r5, #16]
	.loc 1 2232 113 is_stmt 0
	ldrb	r2, [r5, #28]	@ zero_extendqisi2
	.loc 1 2232 9
	cmp	r2, #1
	beq	.L421
.L348:
.LVL386:
.LBB425:
.LBB426:
.LBB427:
	.loc 2 3562 5 is_stmt 1 discriminator 4
	.loc 2 3562 77 is_stmt 0 discriminator 4
	adds	r3, r3, #96
.LVL387:
	.loc 2 3563 5 is_stmt 1 discriminator 4
	.loc 2 3563 24 is_stmt 0 discriminator 4
	ldr	r2, [r3, r1, lsl #2]
	.loc 2 3563 33 discriminator 4
	bic	r2, r2, #-2147483648
	.loc 2 3563 58 discriminator 4
	orrs	r2, r2, r6
	.loc 2 3563 16 discriminator 4
	str	r2, [r3, r1, lsl #2]
.LVL388:
.LBE427:
	.loc 2 3565 1 discriminator 4
	b	.L336
.LVL389:
.L346:
.LBE426:
.LBE425:
	.loc 1 2213 377 discriminator 5
	ldr	r3, [r5, #20]
	.loc 1 2213 416 discriminator 5
	ldr	r2, [r2, #12]
	.loc 1 2213 459 discriminator 5
	lsrs	r2, r2, #2
	and	r2, r2, #4
	.loc 1 2213 467 discriminator 5
	lsls	r2, r2, #1
	.loc 1 2213 358 discriminator 5
	lsls	r3, r3, r2
	b	.L345
.LVL390:
.L421:
	.loc 1 2232 9
	mov	r6, #-2147483648
	b	.L348
.LVL391:
.L347:
	.loc 1 2265 9 is_stmt 1
	.loc 1 2265 17 is_stmt 0
	ldr	r0, [r4]
.LVL392:
.LBB428:
.LBB429:
	.loc 2 3463 3 is_stmt 1
	.loc 2 3465 3
	.loc 2 3465 10 is_stmt 0
	ldr	r3, [r0, #96]
.LVL393:
.LBE429:
.LBE428:
.LBB430:
.LBB431:
	.loc 2 3463 3 is_stmt 1
	.loc 2 3465 3
	.loc 2 3465 10 is_stmt 0
	ldr	r1, [r0, #96]
.LVL394:
.LBE431:
.LBE430:
	.loc 1 2265 193
	ubfx	r1, r1, #26, #5
	.loc 1 2265 320
	ldr	r2, [r5]
	.loc 1 2265 339
	ubfx	r3, r2, #0, #20
	.loc 1 2265 447
	cmp	r3, #0
	bne	.L349
	.loc 1 2265 447 discriminator 5
	ubfx	r3, r2, #26, #5
.L350:
	.loc 1 2265 12 discriminator 8
	cmp	r1, r3
	beq	.L422
.L352:
	.loc 1 2269 9 is_stmt 1
	.loc 1 2269 17 is_stmt 0
	ldr	r0, [r4]
.LVL395:
.LBB432:
.LBB433:
	.loc 2 3463 3 is_stmt 1
	.loc 2 3465 3
	.loc 2 3465 10 is_stmt 0
	ldr	r3, [r0, #100]
.LVL396:
.LBE433:
.LBE432:
.LBB434:
.LBB435:
	.loc 2 3463 3 is_stmt 1
	.loc 2 3465 3
	.loc 2 3465 10 is_stmt 0
	ldr	r1, [r0, #100]
.LVL397:
.LBE435:
.LBE434:
	.loc 1 2269 193
	ubfx	r1, r1, #26, #5
	.loc 1 2269 320
	ldr	r2, [r5]
	.loc 1 2269 339
	ubfx	r3, r2, #0, #20
	.loc 1 2269 447
	cmp	r3, #0
	bne	.L353
	.loc 1 2269 447 discriminator 5
	ubfx	r3, r2, #26, #5
.L354:
	.loc 1 2269 12 discriminator 8
	cmp	r1, r3
	beq	.L423
.L356:
	.loc 1 2273 9 is_stmt 1
	.loc 1 2273 17 is_stmt 0
	ldr	r3, [r4]
.LVL398:
.LBB436:
.LBB437:
	.loc 2 3463 3 is_stmt 1
	.loc 2 3463 81 is_stmt 0
	add	r0, r3, #96
.LVL399:
	.loc 2 3465 3 is_stmt 1
	.loc 2 3465 10 is_stmt 0
	ldr	r2, [r3, #104]
.LVL400:
.LBE437:
.LBE436:
.LBB438:
.LBB439:
	.loc 2 3463 3 is_stmt 1
	.loc 2 3465 3
	.loc 2 3465 10 is_stmt 0
	ldr	r1, [r3, #104]
.LVL401:
.LBE439:
.LBE438:
	.loc 1 2273 193
	ubfx	r1, r1, #26, #5
	.loc 1 2273 320
	ldr	r2, [r5]
	.loc 1 2273 339
	ubfx	r3, r2, #0, #20
	.loc 1 2273 447
	cmp	r3, #0
	bne	.L357
	.loc 1 2273 447 discriminator 5
	ubfx	r3, r2, #26, #5
.L358:
	.loc 1 2273 12 discriminator 8
	cmp	r1, r3
	beq	.L424
.L360:
	.loc 1 2277 9 is_stmt 1
	.loc 1 2277 17 is_stmt 0
	ldr	r0, [r4]
.LVL402:
.LBB440:
.LBB441:
	.loc 2 3463 3 is_stmt 1
	.loc 2 3465 3
	.loc 2 3465 10 is_stmt 0
	ldr	r3, [r0, #108]
.LVL403:
.LBE441:
.LBE440:
.LBB442:
.LBB443:
	.loc 2 3463 3 is_stmt 1
	.loc 2 3465 3
	.loc 2 3465 10 is_stmt 0
	ldr	r1, [r0, #108]
.LVL404:
.LBE443:
.LBE442:
	.loc 1 2277 193
	ubfx	r1, r1, #26, #5
	.loc 1 2277 320
	ldr	r2, [r5]
	.loc 1 2277 339
	ubfx	r3, r2, #0, #20
	.loc 1 2277 447
	cmp	r3, #0
	bne	.L361
	.loc 1 2277 447 discriminator 5
	ubfx	r3, r2, #26, #5
.L362:
	.loc 1 2277 12 discriminator 8
	cmp	r1, r3
	bne	.L336
	.loc 1 2279 11 is_stmt 1
.LVL405:
.LBB444:
.LBB445:
	.loc 2 3381 3
	.loc 2 3392 5
	.loc 2 3392 24 is_stmt 0
	ldr	r3, [r0, #108]
	.loc 2 3392 33
	and	r3, r3, #-2147483648
	.loc 2 3392 95
	and	r2, r2, #2080374784
.LVL406:
	.loc 2 3392 83
	orrs	r3, r3, r2
	.loc 2 3392 16
	str	r3, [r0, #108]
.LVL407:
	.loc 2 3396 1
	b	.L336
.LVL408:
.L349:
.LBE445:
.LBE444:
.LBB446:
.LBB447:
	.loc 3 1050 3 is_stmt 1 discriminator 6
	.loc 3 1055 4 discriminator 6
	.syntax unified
@ 1055 "d:\rtos\board\yd-stm32h7xxvx_classicv19\cmake-build-debug\_deps\stm32h7xx_cmsis_include\drivers\cmsis\include\cmsis_gcc.h" 1
	rbit r3, r2
@ 0 "" 2
.LVL409:
	.loc 3 1068 3 discriminator 6
	.thumb
	.syntax unified
.LBE447:
.LBE446:
.LBB448:
.LBB449:
	.loc 3 1089 3 discriminator 6
	.loc 3 1089 6 is_stmt 0 discriminator 6
	cbz	r3, .L403
	.loc 3 1093 3 is_stmt 1
	.loc 3 1093 10 is_stmt 0
	clz	r3, r3
.LVL410:
	b	.L350
.LVL411:
.L403:
	.loc 3 1091 12
	movs	r3, #32
.LVL412:
	b	.L350
.L422:
.LBE449:
.LBE448:
	.loc 1 2267 11 is_stmt 1
.LVL413:
.LBB450:
.LBB451:
	.loc 2 3381 3
	.loc 2 3392 5
	.loc 2 3392 24 is_stmt 0
	ldr	r3, [r0, #96]
	.loc 2 3392 33
	and	r3, r3, #-2147483648
	.loc 2 3392 95
	and	r2, r2, #2080374784
.LVL414:
	.loc 2 3392 83
	orrs	r3, r3, r2
	.loc 2 3392 16
	str	r3, [r0, #96]
.LVL415:
	.loc 2 3396 1
	b	.L352
.LVL416:
.L353:
.LBE451:
.LBE450:
.LBB452:
.LBB453:
	.loc 3 1050 3 is_stmt 1 discriminator 6
	.loc 3 1055 4 discriminator 6
	.syntax unified
@ 1055 "d:\rtos\board\yd-stm32h7xxvx_classicv19\cmake-build-debug\_deps\stm32h7xx_cmsis_include\drivers\cmsis\include\cmsis_gcc.h" 1
	rbit r3, r2
@ 0 "" 2
.LVL417:
	.loc 3 1068 3 discriminator 6
	.thumb
	.syntax unified
.LBE453:
.LBE452:
.LBB454:
.LBB455:
	.loc 3 1089 3 discriminator 6
	.loc 3 1089 6 is_stmt 0 discriminator 6
	cbz	r3, .L404
	.loc 3 1093 3 is_stmt 1
	.loc 3 1093 10 is_stmt 0
	clz	r3, r3
.LVL418:
	b	.L354
.LVL419:
.L404:
	.loc 3 1091 12
	movs	r3, #32
.LVL420:
	b	.L354
.L423:
.LBE455:
.LBE454:
	.loc 1 2271 11 is_stmt 1
.LVL421:
.LBB456:
.LBB457:
	.loc 2 3381 3
	.loc 2 3392 5
	.loc 2 3392 24 is_stmt 0
	ldr	r3, [r0, #100]
	.loc 2 3392 33
	and	r3, r3, #-2147483648
	.loc 2 3392 95
	and	r2, r2, #2080374784
.LVL422:
	.loc 2 3392 83
	orrs	r3, r3, r2
	.loc 2 3392 16
	str	r3, [r0, #100]
.LVL423:
	.loc 2 3396 1
	b	.L356
.LVL424:
.L357:
.LBE457:
.LBE456:
.LBB458:
.LBB459:
	.loc 3 1050 3 is_stmt 1 discriminator 6
	.loc 3 1055 4 discriminator 6
	.syntax unified
@ 1055 "d:\rtos\board\yd-stm32h7xxvx_classicv19\cmake-build-debug\_deps\stm32h7xx_cmsis_include\drivers\cmsis\include\cmsis_gcc.h" 1
	rbit r3, r2
@ 0 "" 2
.LVL425:
	.loc 3 1068 3 discriminator 6
	.thumb
	.syntax unified
.LBE459:
.LBE458:
.LBB460:
.LBB461:
	.loc 3 1089 3 discriminator 6
	.loc 3 1089 6 is_stmt 0 discriminator 6
	cbz	r3, .L405
	.loc 3 1093 3 is_stmt 1
	.loc 3 1093 10 is_stmt 0
	clz	r3, r3
.LVL426:
	b	.L358
.LVL427:
.L405:
	.loc 3 1091 12
	movs	r3, #32
.LVL428:
	b	.L358
.L424:
.LBE461:
.LBE460:
	.loc 1 2275 11 is_stmt 1
.LVL429:
.LBB462:
.LBB463:
	.loc 2 3381 3
	.loc 2 3392 5
	.loc 2 3392 24 is_stmt 0
	ldr	r3, [r0, #12]
	.loc 2 3392 33
	and	r3, r3, #-2147483648
	.loc 2 3392 95
	and	r2, r2, #2080374784
.LVL430:
	.loc 2 3392 83
	orrs	r3, r3, r2
	.loc 2 3392 16
	str	r3, [r0, #12]
.LVL431:
	.loc 2 3396 1
	b	.L360
.LVL432:
.L361:
.LBE463:
.LBE462:
.LBB464:
.LBB465:
	.loc 3 1050 3 is_stmt 1 discriminator 6
	.loc 3 1055 4 discriminator 6
	.syntax unified
@ 1055 "d:\rtos\board\yd-stm32h7xxvx_classicv19\cmake-build-debug\_deps\stm32h7xx_cmsis_include\drivers\cmsis\include\cmsis_gcc.h" 1
	rbit r3, r2
@ 0 "" 2
.LVL433:
	.loc 3 1068 3 discriminator 6
	.thumb
	.syntax unified
.LBE465:
.LBE464:
.LBB466:
.LBB467:
	.loc 3 1089 3 discriminator 6
	.loc 3 1089 6 is_stmt 0 discriminator 6
	cbz	r3, .L406
	.loc 3 1093 3 is_stmt 1
	.loc 3 1093 10 is_stmt 0
	clz	r3, r3
.LVL434:
	b	.L362
.LVL435:
.L406:
	.loc 3 1091 12
	movs	r3, #32
.LVL436:
	b	.L362
.L430:
	.align	2
.L429:
	.word	1543507968
	.word	-67043811
.LVL437:
.L402:
.LBE467:
.LBE466:
	.loc 1 1833 21
	movs	r7, #0
.LVL438:
.L336:
	.loc 1 2290 3 is_stmt 1
	.loc 1 2290 7 is_stmt 0
	ldr	r1, [r4]
.LVL439:
.LBB468:
.LBB469:
	.loc 2 6943 3 is_stmt 1
	.loc 2 6943 18 is_stmt 0
	ldr	r3, [r1, #8]
	.loc 2 6943 73
	tst	r3, #1
	bne	.L364
.LVL440:
.LBE469:
.LBE468:
	.loc 1 2293 5 is_stmt 1
	ldr	r3, [r5]
	ldr	r0, [r5, #12]
.LVL441:
.LBB470:
.LBB471:
	.loc 2 5577 3
	.loc 2 5577 33 is_stmt 0
	ldr	r2, [r1, #192]
	.loc 2 5577 58
	ubfx	r6, r3, #0, #20
	.loc 2 5577 45
	bic	r2, r2, r6
	.loc 2 5577 164
	and	r6, r0, #24
	.loc 2 5577 149
	ldr	r0, .L431
.LVL442:
	lsrs	r0, r0, r6
	.loc 2 5577 126
	ands	r3, r3, r0
.LVL443:
	ubfx	r3, r3, #0, #20
	.loc 2 5577 87
	orrs	r3, r3, r2
	.loc 2 5577 21
	str	r3, [r1, #192]
.LVL444:
.LBE471:
.LBE470:
	.loc 1 2297 5 is_stmt 1
	.loc 1 2297 24 is_stmt 0
	ldr	r2, [r5, #12]
	.loc 1 2297 8
	ldr	r3, .L431+4
	cmp	r2, r3
	beq	.L425
.L365:
	.loc 1 2309 5 is_stmt 1
	.loc 1 2309 27 is_stmt 0
	ldr	r3, [r5]
	.loc 1 2309 8
	cmp	r3, #0
	blt	.L426
.LVL445:
.L364:
	.loc 1 2372 3 is_stmt 1
	.loc 1 2372 7
	.loc 1 2372 20 is_stmt 0
	movs	r3, #0
	strb	r3, [r4, #80]
	.loc 1 2372 5 is_stmt 1
	.loc 1 2375 3
.LVL446:
.L320:
	.loc 1 2376 1 is_stmt 0
	mov	r0, r7
	add	sp, sp, #12
	.cfi_remember_state
	.cfi_def_cfa_offset 20
	@ sp needed
	pop	{r4, r5, r6, r7, pc}
.LVL447:
.L425:
	.cfi_restore_state
	.loc 1 2300 7 is_stmt 1
	ldr	r0, [r4]
	.loc 1 2300 97 is_stmt 0
	ldr	r3, [r5]
	.loc 1 2300 116
	ubfx	r6, r3, #0, #20
	.loc 1 2300 331
	cbnz	r6, .L366
	.loc 1 2300 222 discriminator 1
	lsrs	r2, r3, #26
	.loc 1 2300 321 discriminator 1
	adds	r2, r2, #1
	and	r2, r2, #31
	.loc 1 2300 331 discriminator 1
	cmp	r2, #9
	ite	hi
	movhi	r2, #0
	movls	r2, #1
.L367:
	.loc 1 2300 7 discriminator 4
	cmp	r2, #0
	beq	.L369
	.loc 1 2300 609 discriminator 5
	cbnz	r6, .L370
	.loc 1 2300 500 discriminator 7
	lsrs	r1, r3, #26
	.loc 1 2300 599 discriminator 7
	adds	r1, r1, #1
	.loc 1 2300 609 discriminator 7
	lsls	r1, r1, #26
	and	r1, r1, #2080374784
.L371:
	.loc 1 2300 643 discriminator 10
	cbnz	r6, .L373
	.loc 1 2300 802 discriminator 11
	lsr	ip, r3, #26
	.loc 1 2300 901 discriminator 11
	add	ip, ip, #1
	and	ip, ip, #31
	.loc 1 2300 643 discriminator 11
	movs	r2, #1
	lsl	r2, r2, ip
.L374:
	.loc 1 2300 620 discriminator 14
	orrs	r1, r1, r2
	.loc 1 2300 930 discriminator 14
	cbnz	r6, .L376
	.loc 1 2300 1097 discriminator 15
	lsrs	r3, r3, #26
	.loc 1 2300 1196 discriminator 15
	adds	r3, r3, #1
	and	r3, r3, #31
	.loc 1 2300 939 discriminator 15
	add	r3, r3, r3, lsl #1
	.loc 1 2300 930 discriminator 15
	lsls	r3, r3, #20
.L377:
	.loc 1 2300 7 discriminator 18
	orrs	r1, r1, r3
.L379:
	.loc 1 2300 7 discriminator 32
	ldr	r2, [r5, #8]
	bl	LL_ADC_SetChannelSamplingTime
.LVL448:
	b	.L365
.L366:
.LVL449:
.LBB472:
.LBB473:
	.loc 3 1050 3 is_stmt 1 discriminator 2
	.loc 3 1055 4 discriminator 2
	.syntax unified
@ 1055 "d:\rtos\board\yd-stm32h7xxvx_classicv19\cmake-build-debug\_deps\stm32h7xx_cmsis_include\drivers\cmsis\include\cmsis_gcc.h" 1
	rbit r2, r3
@ 0 "" 2
.LVL450:
	.loc 3 1068 3 discriminator 2
	.thumb
	.syntax unified
.LBE473:
.LBE472:
.LBB474:
.LBB475:
	.loc 3 1089 3 discriminator 2
	.loc 3 1089 6 is_stmt 0 discriminator 2
	cbz	r2, .L407
	.loc 3 1093 3 is_stmt 1
	.loc 3 1093 10 is_stmt 0
	clz	r2, r2
.LVL451:
.L368:
.LBE475:
.LBE474:
	.loc 1 2300 314
	adds	r2, r2, #1
	.loc 1 2300 321
	and	r2, r2, #31
	.loc 1 2300 331
	cmp	r2, #9
	ite	hi
	movhi	r2, #0
	movls	r2, #1
	b	.L367
.LVL452:
.L407:
.LBB477:
.LBB476:
	.loc 3 1091 12
	movs	r2, #32
.LVL453:
	b	.L368
.LVL454:
.L370:
.LBE476:
.LBE477:
.LBB478:
.LBB479:
	.loc 3 1050 3 is_stmt 1 discriminator 8
	.loc 3 1055 4 discriminator 8
	.syntax unified
@ 1055 "d:\rtos\board\yd-stm32h7xxvx_classicv19\cmake-build-debug\_deps\stm32h7xx_cmsis_include\drivers\cmsis\include\cmsis_gcc.h" 1
	rbit r1, r3
@ 0 "" 2
.LVL455:
	.loc 3 1068 3 discriminator 8
	.thumb
	.syntax unified
.LBE479:
.LBE478:
.LBB480:
.LBB481:
	.loc 3 1089 3 discriminator 8
	.loc 3 1089 6 is_stmt 0 discriminator 8
	cbz	r1, .L408
	.loc 3 1093 3 is_stmt 1
	.loc 3 1093 10 is_stmt 0
	clz	r1, r1
.LVL456:
.L372:
.LBE481:
.LBE480:
	.loc 1 2300 592
	adds	r1, r1, #1
	.loc 1 2300 609
	lsls	r1, r1, #26
	and	r1, r1, #2080374784
	b	.L371
.LVL457:
.L408:
.LBB483:
.LBB482:
	.loc 3 1091 12
	movs	r1, #32
.LVL458:
	b	.L372
.LVL459:
.L373:
.LBE482:
.LBE483:
.LBB484:
.LBB485:
	.loc 3 1050 3 is_stmt 1 discriminator 12
	.loc 3 1055 4 discriminator 12
	.syntax unified
@ 1055 "d:\rtos\board\yd-stm32h7xxvx_classicv19\cmake-build-debug\_deps\stm32h7xx_cmsis_include\drivers\cmsis\include\cmsis_gcc.h" 1
	rbit r2, r3
@ 0 "" 2
.LVL460:
	.loc 3 1068 3 discriminator 12
	.thumb
	.syntax unified
.LBE485:
.LBE484:
.LBB486:
.LBB487:
	.loc 3 1089 3 discriminator 12
	.loc 3 1089 6 is_stmt 0 discriminator 12
	cbz	r2, .L409
	.loc 3 1093 3 is_stmt 1
	.loc 3 1093 10 is_stmt 0
	clz	r2, r2
.LVL461:
.L375:
.LBE487:
.LBE486:
	.loc 1 2300 894
	adds	r2, r2, #1
	.loc 1 2300 901
	and	r2, r2, #31
	.loc 1 2300 643
	mov	ip, #1
	lsl	r2, ip, r2
	b	.L374
.LVL462:
.L409:
.LBB489:
.LBB488:
	.loc 3 1091 12
	movs	r2, #32
.LVL463:
	b	.L375
.LVL464:
.L376:
.LBE488:
.LBE489:
.LBB490:
.LBB491:
	.loc 3 1050 3 is_stmt 1 discriminator 16
	.loc 3 1055 4 discriminator 16
	.syntax unified
@ 1055 "d:\rtos\board\yd-stm32h7xxvx_classicv19\cmake-build-debug\_deps\stm32h7xx_cmsis_include\drivers\cmsis\include\cmsis_gcc.h" 1
	rbit r3, r3
@ 0 "" 2
.LVL465:
	.loc 3 1068 3 discriminator 16
	.thumb
	.syntax unified
.LBE491:
.LBE490:
.LBB492:
.LBB493:
	.loc 3 1089 3 discriminator 16
	.loc 3 1089 6 is_stmt 0 discriminator 16
	cbz	r3, .L410
	.loc 3 1093 3 is_stmt 1
	.loc 3 1093 10 is_stmt 0
	clz	r3, r3
.LVL466:
.L378:
.LBE493:
.LBE492:
	.loc 1 2300 1189
	adds	r3, r3, #1
	.loc 1 2300 1196
	and	r3, r3, #31
	.loc 1 2300 939
	add	r3, r3, r3, lsl #1
	.loc 1 2300 930
	lsls	r3, r3, #20
	b	.L377
.LVL467:
.L410:
.LBB495:
.LBB494:
	.loc 3 1091 12
	movs	r3, #32
.LVL468:
	b	.L378
.LVL469:
.L369:
.LBE494:
.LBE495:
	.loc 1 2300 1492 discriminator 6
	cbnz	r6, .L380
	.loc 1 2300 1383 discriminator 20
	lsrs	r1, r3, #26
	.loc 1 2300 1482 discriminator 20
	adds	r1, r1, #1
	.loc 1 2300 1492 discriminator 20
	lsls	r1, r1, #26
	and	r1, r1, #2080374784
.L381:
	.loc 1 2300 1526 discriminator 23
	cbnz	r6, .L383
	.loc 1 2300 1685 discriminator 24
	lsr	ip, r3, #26
	.loc 1 2300 1784 discriminator 24
	add	ip, ip, #1
	and	ip, ip, #31
	.loc 1 2300 1526 discriminator 24
	movs	r2, #1
	lsl	r2, r2, ip
.L384:
	.loc 1 2300 1503 discriminator 27
	orrs	r1, r1, r2
	.loc 1 2300 1813 discriminator 27
	cbnz	r6, .L386
	.loc 1 2300 1981 discriminator 28
	lsrs	r3, r3, #26
	.loc 1 2300 2080 discriminator 28
	adds	r3, r3, #1
	and	r3, r3, #31
	.loc 1 2300 2100 discriminator 28
	add	r3, r3, r3, lsl #1
	subs	r3, r3, #30
	lsls	r3, r3, #20
	.loc 1 2300 1813 discriminator 28
	orr	r3, r3, #33554432
.L387:
	.loc 1 2300 7 discriminator 31
	orrs	r1, r1, r3
	b	.L379
.L380:
.LVL470:
.LBB496:
.LBB497:
	.loc 3 1050 3 is_stmt 1 discriminator 21
	.loc 3 1055 4 discriminator 21
	.syntax unified
@ 1055 "d:\rtos\board\yd-stm32h7xxvx_classicv19\cmake-build-debug\_deps\stm32h7xx_cmsis_include\drivers\cmsis\include\cmsis_gcc.h" 1
	rbit r1, r3
@ 0 "" 2
.LVL471:
	.loc 3 1068 3 discriminator 21
	.thumb
	.syntax unified
.LBE497:
.LBE496:
.LBB498:
.LBB499:
	.loc 3 1089 3 discriminator 21
	.loc 3 1089 6 is_stmt 0 discriminator 21
	cbz	r1, .L411
	.loc 3 1093 3 is_stmt 1
	.loc 3 1093 10 is_stmt 0
	clz	r1, r1
.LVL472:
.L382:
.LBE499:
.LBE498:
	.loc 1 2300 1475
	adds	r1, r1, #1
	.loc 1 2300 1492
	lsls	r1, r1, #26
	and	r1, r1, #2080374784
	b	.L381
.LVL473:
.L411:
.LBB501:
.LBB500:
	.loc 3 1091 12
	movs	r1, #32
.LVL474:
	b	.L382
.LVL475:
.L383:
.LBE500:
.LBE501:
.LBB502:
.LBB503:
	.loc 3 1050 3 is_stmt 1 discriminator 25
	.loc 3 1055 4 discriminator 25
	.syntax unified
@ 1055 "d:\rtos\board\yd-stm32h7xxvx_classicv19\cmake-build-debug\_deps\stm32h7xx_cmsis_include\drivers\cmsis\include\cmsis_gcc.h" 1
	rbit r2, r3
@ 0 "" 2
.LVL476:
	.loc 3 1068 3 discriminator 25
	.thumb
	.syntax unified
.LBE503:
.LBE502:
.LBB504:
.LBB505:
	.loc 3 1089 3 discriminator 25
	.loc 3 1089 6 is_stmt 0 discriminator 25
	cbz	r2, .L412
	.loc 3 1093 3 is_stmt 1
	.loc 3 1093 10 is_stmt 0
	clz	r2, r2
.LVL477:
.L385:
.LBE505:
.LBE504:
	.loc 1 2300 1777
	adds	r2, r2, #1
	.loc 1 2300 1784
	and	r2, r2, #31
	.loc 1 2300 1526
	mov	ip, #1
	lsl	r2, ip, r2
	b	.L384
.LVL478:
.L412:
.LBB507:
.LBB506:
	.loc 3 1091 12
	movs	r2, #32
.LVL479:
	b	.L385
.LVL480:
.L386:
.LBE506:
.LBE507:
.LBB508:
.LBB509:
	.loc 3 1050 3 is_stmt 1 discriminator 29
	.loc 3 1055 4 discriminator 29
	.syntax unified
@ 1055 "d:\rtos\board\yd-stm32h7xxvx_classicv19\cmake-build-debug\_deps\stm32h7xx_cmsis_include\drivers\cmsis\include\cmsis_gcc.h" 1
	rbit r3, r3
@ 0 "" 2
.LVL481:
	.loc 3 1068 3 discriminator 29
	.thumb
	.syntax unified
.LBE509:
.LBE508:
.LBB510:
.LBB511:
	.loc 3 1089 3 discriminator 29
	.loc 3 1089 6 is_stmt 0 discriminator 29
	cbz	r3, .L413
	.loc 3 1093 3 is_stmt 1
	.loc 3 1093 10 is_stmt 0
	clz	r3, r3
.LVL482:
.L388:
.LBE511:
.LBE510:
	.loc 1 2300 2073
	adds	r3, r3, #1
	.loc 1 2300 2080
	and	r3, r3, #31
	.loc 1 2300 2100
	add	r3, r3, r3, lsl #1
	subs	r3, r3, #30
	lsls	r3, r3, #20
	.loc 1 2300 1813
	orr	r3, r3, #33554432
	b	.L387
.LVL483:
.L413:
.LBB513:
.LBB512:
	.loc 3 1091 12
	movs	r3, #32
.LVL484:
	b	.L388
.LVL485:
.L426:
.LBE512:
.LBE513:
	.loc 1 2314 7 is_stmt 1
	.loc 1 2314 22 is_stmt 0
	ldr	r2, [r4]
	.loc 1 2314 101
	ldr	r1, .L431+8
	ldr	r0, .L431+12
	.loc 1 2314 687
	cmp	r2, r0
	it	ne
	cmpne	r2, r1
	ite	eq
	moveq	r1, #1
	movne	r1, #0
	bne	.L389
.LVL486:
.LBB514:
.LBB515:
	.loc 2 6943 3 is_stmt 1
	.loc 2 6943 18 is_stmt 0
	sub	r0, r0, #256
	ldr	r5, [r0, #8]
.LVL487:
	.loc 2 6943 73
	ands	r5, r5, #1
	beq	.L390
	movs	r5, #1
.L390:
.LVL488:
.LBE515:
.LBE514:
.LBB516:
.LBB517:
	.loc 2 6943 3 is_stmt 1
	.loc 2 6943 18 is_stmt 0
	ldr	r0, .L431+12
	ldr	r0, [r0, #8]
	.loc 2 6943 73
	ands	r0, r0, #1
	beq	.L391
	movs	r0, #1
.L391:
.LVL489:
.LBE517:
.LBE516:
	.loc 1 2314 10
	orrs	r0, r0, r5
	beq	.L392
.L393:
	.loc 1 2363 9 is_stmt 1
	.loc 1 2363 15 is_stmt 0
	ldr	r3, [r4, #84]
	.loc 1 2363 24
	orr	r3, r3, #32
	str	r3, [r4, #84]
	.loc 1 2365 9 is_stmt 1
.LVL490:
	.loc 1 2365 24 is_stmt 0
	movs	r7, #1
	b	.L364
.LVL491:
.L389:
.LBB518:
.LBB519:
	.loc 2 6943 3 is_stmt 1
	.loc 2 6943 18 is_stmt 0
	ldr	r0, .L431+16
	ldr	r0, [r0, #8]
	.loc 2 6943 73
	tst	r0, #1
	bne	.L393
.LVL492:
.L392:
.LBE519:
.LBE518:
	.loc 1 2316 9 is_stmt 1
	.loc 1 2316 39 is_stmt 0
	cbz	r1, .L414
	ldr	r0, .L431+20
.L394:
.LVL493:
.LBB520:
.LBB521:
	.loc 2 2755 3 is_stmt 1 discriminator 4
	.loc 2 2755 35 is_stmt 0 discriminator 4
	ldr	r1, [r0, #8]
	.loc 2 2755 10 discriminator 4
	and	r6, r1, #29360128
.LVL494:
.LBE521:
.LBE520:
	.loc 1 2320 9 is_stmt 1 discriminator 4
	.loc 1 2320 12 is_stmt 0 discriminator 4
	ldr	r5, .L431+24
	cmp	r3, r5
	beq	.L427
.L395:
	.loc 1 2338 14 is_stmt 1
	.loc 1 2338 17 is_stmt 0
	ldr	r5, .L431+28
	cmp	r3, r5
	beq	.L428
.L398:
	.loc 1 2345 14 is_stmt 1
	.loc 1 2345 17 is_stmt 0
	ldr	r5, .L431+32
	cmp	r3, r5
	bne	.L364
	.loc 1 2345 203 discriminator 1
	tst	r1, #4194304
	bne	.L364
	.loc 1 2347 11 is_stmt 1
	.loc 1 2347 14 is_stmt 0
	ldr	r3, .L431+16
	cmp	r2, r3
	bne	.L364
	.loc 1 2349 13 is_stmt 1 discriminator 4
	orr	r3, r6, #4194304
.LVL495:
.LBB522:
.LBB523:
	.loc 2 2733 3 discriminator 4
	.loc 2 2733 46 is_stmt 0 discriminator 4
	ldr	r2, [r0, #8]
	.loc 2 2733 55 discriminator 4
	bic	r2, r2, #29360128
	.loc 2 2733 118 discriminator 4
	orrs	r3, r3, r2
.LVL496:
	.loc 2 2733 26 discriminator 4
	str	r3, [r0, #8]
	.loc 2 2734 1 discriminator 4
	b	.L364
.LVL497:
.L414:
.LBE523:
.LBE522:
	.loc 1 2316 39
	ldr	r0, .L431+36
	b	.L394
.LVL498:
.L427:
	.loc 1 2320 179 discriminator 1
	tst	r1, #8388608
	bne	.L395
	.loc 1 2322 11 is_stmt 1
	.loc 1 2322 14 is_stmt 0
	ldr	r3, .L431+16
	cmp	r2, r3
	bne	.L364
	.loc 1 2324 13 is_stmt 1 discriminator 4
	orr	r3, r6, #8388608
.LVL499:
.LBB524:
.LBB525:
	.loc 2 2733 3 discriminator 4
	.loc 2 2733 46 is_stmt 0 discriminator 4
	ldr	r2, [r0, #8]
	.loc 2 2733 55 discriminator 4
	bic	r2, r2, #29360128
	.loc 2 2733 118 discriminator 4
	orrs	r3, r3, r2
.LVL500:
	.loc 2 2733 26 discriminator 4
	str	r3, [r0, #8]
.LVL501:
.LBE525:
.LBE524:
	.loc 1 2331 13 is_stmt 1 discriminator 4
	.loc 1 2331 69 is_stmt 0 discriminator 4
	ldr	r3, .L431+40
	ldr	r3, [r3]
	lsrs	r3, r3, #6
	ldr	r2, .L431+44
	umull	r2, r3, r2, r3
	lsrs	r3, r3, #6
	.loc 1 2331 89 discriminator 4
	adds	r3, r3, #1
	.loc 1 2331 49 discriminator 4
	lsls	r3, r3, #1
	.loc 1 2331 29 discriminator 4
	str	r3, [sp, #4]
	.loc 1 2332 13 is_stmt 1 discriminator 4
	.loc 1 2332 19 is_stmt 0 discriminator 4
	b	.L396
.L397:
	.loc 1 2334 15 is_stmt 1
	.loc 1 2334 30 is_stmt 0
	ldr	r3, [sp, #4]
	subs	r3, r3, #1
	str	r3, [sp, #4]
.L396:
	.loc 1 2332 36 is_stmt 1
	ldr	r3, [sp, #4]
	cmp	r3, #0
	bne	.L397
	b	.L364
.L428:
	.loc 1 2338 183 is_stmt 0 discriminator 1
	tst	r1, #16777216
	bne	.L398
	.loc 1 2340 11 is_stmt 1
	.loc 1 2340 14 is_stmt 0
	ldr	r3, .L431+16
	cmp	r2, r3
	bne	.L364
	.loc 1 2342 13 is_stmt 1 discriminator 4
	orr	r3, r6, #16777216
.LVL502:
.LBB526:
.LBB527:
	.loc 2 2733 3 discriminator 4
	.loc 2 2733 46 is_stmt 0 discriminator 4
	ldr	r2, [r0, #8]
	.loc 2 2733 55 discriminator 4
	bic	r2, r2, #29360128
	.loc 2 2733 118 discriminator 4
	orrs	r3, r3, r2
.LVL503:
	.loc 2 2733 26 discriminator 4
	str	r3, [r0, #8]
	.loc 2 2734 1 discriminator 4
	b	.L364
.LVL504:
.L399:
.LBE527:
.LBE526:
	.loc 1 1919 47
	movs	r7, #2
	b	.L320
.L432:
	.align	2
.L431:
	.word	1048575
	.word	1207894016
	.word	1073881088
	.word	1073881344
	.word	1476550656
	.word	1073881856
	.word	-880541696
	.word	-950927360
	.word	-810024960
	.word	1476551424
	.word	SystemCoreClock
	.word	87960931
	.cfi_endproc
.LFE359:
	.size	HAL_ADCEx_InjectedConfigChannel, .-HAL_ADCEx_InjectedConfigChannel
	.section	.text.HAL_ADCEx_MultiModeConfigChannel,"ax",%progbits
	.align	1
	.global	HAL_ADCEx_MultiModeConfigChannel
	.syntax unified
	.thumb
	.thumb_func
	.type	HAL_ADCEx_MultiModeConfigChannel, %function
HAL_ADCEx_MultiModeConfigChannel:
.LFB360:
	.loc 1 2395 1 is_stmt 1
	.cfi_startproc
	@ args = 0, pretend = 0, frame = 104
	@ frame_needed = 0, uses_anonymous_args = 0
	@ link register save eliminated.
.LVL505:
	.loc 1 2396 3
	.loc 1 2397 3
	.loc 1 2398 3
	.loc 1 2399 3
	.loc 1 2402 3
	.loc 1 2403 3
	.loc 1 2404 3
	.loc 1 2406 5
	.loc 1 2407 5
	.loc 1 2411 3
	.loc 1 2411 7
	.loc 1 2411 16 is_stmt 0
	ldrb	r2, [r0, #80]	@ zero_extendqisi2
	.loc 1 2411 9
	cmp	r2, #1
	beq	.L451
	.loc 1 2395 1 discriminator 2
	push	{r4, r5}
	.cfi_def_cfa_offset 8
	.cfi_offset 4, -8
	.cfi_offset 5, -4
	sub	sp, sp, #104
	.cfi_def_cfa_offset 112
	mov	r3, r0
	.loc 1 2411 66 is_stmt 1 discriminator 2
	.loc 1 2411 79 is_stmt 0 discriminator 2
	movs	r2, #1
	strb	r2, [r0, #80]
	.loc 1 2411 5 is_stmt 1 discriminator 2
	.loc 1 2413 3 discriminator 2
	.loc 1 2413 22 is_stmt 0 discriminator 2
	movs	r2, #0
	str	r2, [sp, #88]
	.loc 1 2414 3 is_stmt 1 discriminator 2
	.loc 1 2414 26 is_stmt 0 discriminator 2
	str	r2, [sp, #92]
	.loc 1 2416 3 is_stmt 1 discriminator 2
	.loc 1 2416 13 is_stmt 0 discriminator 2
	ldr	r0, [r0]
.LVL506:
	.loc 1 2416 187 discriminator 2
	ldr	r2, .L461
	cmp	r0, r2
	beq	.L459
	.loc 1 2416 216 discriminator 2
	movs	r2, #0
	str	r2, [sp, #4]
.L436:
	.loc 1 2418 3 is_stmt 1
	.loc 1 2418 19 is_stmt 0
	ldr	r2, [sp, #4]
	.loc 1 2418 6
	cmp	r2, #0
	beq	.L460
	.loc 1 2433 3 is_stmt 1
.LVL507:
.LBB528:
.LBB529:
	.loc 2 7075 3
	.loc 2 7075 18 is_stmt 0
	ldr	r2, [r2, #8]
.LVL508:
	.loc 2 7075 73
	ands	r2, r2, #4
	beq	.L438
	movs	r2, #1
.L438:
.LVL509:
.LBE529:
.LBE528:
	.loc 1 2434 3 is_stmt 1
.LBB530:
.LBB531:
	.loc 2 7075 3
	.loc 2 7075 18 is_stmt 0
	ldr	r4, [r0, #8]
	.loc 2 7075 73
	tst	r4, #4
	bne	.L439
.LVL510:
.LBE531:
.LBE530:
	.loc 1 2435 7
	cmp	r2, #0
	bne	.L439
	.loc 1 2438 5 is_stmt 1
	.loc 1 2438 275 is_stmt 0
	ldr	r4, .L461
	ldr	r2, .L461+4
.LVL511:
	cmp	r0, r2
	it	ne
	cmpne	r0, r4
	bne	.L452
	add	r2, r2, #512
.L440:
.LVL512:
	.loc 1 2443 5 is_stmt 1 discriminator 4
	.loc 1 2443 18 is_stmt 0 discriminator 4
	ldr	r0, [r1]
	.loc 1 2443 8 discriminator 4
	cmp	r0, #0
	beq	.L441
	.loc 1 2445 7 is_stmt 1
	.loc 1 2445 52 is_stmt 0
	ldr	r0, [r2, #8]
	.loc 1 2445 61
	bic	r0, r0, #49152
	.loc 1 2445 98
	ldr	r4, [r1, #4]
	.loc 1 2445 86
	orrs	r0, r0, r4
	.loc 1 2445 31
	str	r0, [r2, #8]
	.loc 1 2458 7 is_stmt 1
	.loc 1 2458 22 is_stmt 0
	ldr	r0, [r3]
	.loc 1 2458 687
	ldr	r5, .L461
	ldr	r4, .L461+4
	cmp	r0, r4
	it	ne
	cmpne	r0, r5
	bne	.L442
.LVL513:
.LBB532:
.LBB533:
	.loc 2 6943 3 is_stmt 1
	.loc 2 6943 18 is_stmt 0
	ldr	r4, [r5, #8]
	.loc 2 6943 73
	ands	r4, r4, #1
	beq	.L443
	movs	r4, #1
.L443:
.LVL514:
.LBE533:
.LBE532:
.LBB534:
.LBB535:
	.loc 2 6943 3 is_stmt 1
	.loc 2 6943 18 is_stmt 0
	ldr	r0, .L461+4
	ldr	r0, [r0, #8]
	.loc 2 6943 73
	ands	r0, r0, #1
	beq	.L444
	movs	r0, #1
.L444:
.LVL515:
.LBE535:
.LBE534:
	.loc 1 2458 10
	orrs	r0, r0, r4
	beq	.L445
	.loc 1 2396 21
	movs	r0, #0
	b	.L446
.LVL516:
.L459:
	.loc 1 2416 121 discriminator 1
	add	r2, r2, #256
	str	r2, [sp, #4]
	b	.L436
.L460:
	.loc 1 2421 5 is_stmt 1
	.loc 1 2421 11 is_stmt 0
	ldr	r2, [r3, #84]
	.loc 1 2421 20
	orr	r2, r2, #32
	str	r2, [r3, #84]
	.loc 1 2424 5 is_stmt 1
	.loc 1 2424 9
	.loc 1 2424 22 is_stmt 0
	movs	r2, #0
	strb	r2, [r3, #80]
	.loc 1 2424 7 is_stmt 1
	.loc 1 2426 5
	.loc 1 2426 12 is_stmt 0
	movs	r0, #1
	b	.L434
.LVL517:
.L452:
	.loc 1 2438 275
	ldr	r2, .L461+8
	b	.L440
.LVL518:
.L442:
.LBB536:
.LBB537:
	.loc 2 6943 3 is_stmt 1
	.loc 2 6943 18 is_stmt 0
	ldr	r0, .L461+12
	ldr	r0, [r0, #8]
	.loc 2 6943 73
	tst	r0, #1
	bne	.L453
.LVL519:
.L445:
.LBE537:
.LBE536:
	.loc 1 2460 9 is_stmt 1
	.loc 1 2460 54 is_stmt 0
	ldr	r4, [r2, #8]
	.loc 1 2460 63
	ldr	r0, .L461+16
	ands	r0, r0, r4
	.loc 1 2460 118
	ldr	r4, [r1]
	.loc 1 2460 136
	ldr	r1, [r1, #8]
.LVL520:
	.loc 1 2460 125
	orrs	r1, r1, r4
	.loc 1 2460 106
	orrs	r0, r0, r1
	.loc 1 2460 33
	str	r0, [r2, #8]
	.loc 1 2396 21
	movs	r0, #0
	b	.L446
.LVL521:
.L441:
	.loc 1 2470 7 is_stmt 1
	.loc 1 2470 22 is_stmt 0
	ldr	r1, [r2, #8]
.LVL522:
	.loc 1 2470 29
	bic	r1, r1, #49152
	str	r1, [r2, #8]
	.loc 1 2475 7 is_stmt 1
	.loc 1 2475 22 is_stmt 0
	ldr	r1, [r3]
	.loc 1 2475 687
	ldr	r4, .L461
	ldr	r0, .L461+4
	cmp	r1, r0
	it	ne
	cmpne	r1, r4
	bne	.L447
.LVL523:
.LBB538:
.LBB539:
	.loc 2 6943 3 is_stmt 1
	.loc 2 6943 18 is_stmt 0
	ldr	r0, [r4, #8]
	.loc 2 6943 73
	ands	r0, r0, #1
	beq	.L448
	movs	r0, #1
.L448:
.LVL524:
.LBE539:
.LBE538:
.LBB540:
.LBB541:
	.loc 2 6943 3 is_stmt 1
	.loc 2 6943 18 is_stmt 0
	ldr	r1, .L461+4
	ldr	r1, [r1, #8]
	.loc 2 6943 73
	ands	r1, r1, #1
	beq	.L449
	movs	r1, #1
.L449:
.LVL525:
.LBE541:
.LBE540:
	.loc 1 2475 10
	orrs	r1, r1, r0
	beq	.L450
	.loc 1 2396 21
	movs	r0, #0
	b	.L446
.L447:
.LVL526:
.LBB542:
.LBB543:
	.loc 2 6943 3 is_stmt 1
	.loc 2 6943 18 is_stmt 0
	ldr	r1, .L461+12
	ldr	r1, [r1, #8]
	.loc 2 6943 73
	tst	r1, #1
	bne	.L454
.LVL527:
.L450:
.LBE543:
.LBE542:
	.loc 1 2477 9 is_stmt 1
	.loc 1 2477 24 is_stmt 0
	ldr	r0, [r2, #8]
	.loc 1 2477 31
	ldr	r1, .L461+16
	ands	r1, r1, r0
	str	r1, [r2, #8]
	.loc 1 2396 21
	movs	r0, #0
	b	.L446
.LVL528:
.L439:
	.loc 1 2486 5 is_stmt 1
	.loc 1 2486 11 is_stmt 0
	ldr	r2, [r3, #84]
.LVL529:
	.loc 1 2486 20
	orr	r2, r2, #32
	str	r2, [r3, #84]
	.loc 1 2488 5 is_stmt 1
.LVL530:
	.loc 1 2488 20 is_stmt 0
	movs	r0, #1
.LVL531:
.L446:
	.loc 1 2492 3 is_stmt 1
	.loc 1 2492 7
	.loc 1 2492 20 is_stmt 0
	movs	r2, #0
	strb	r2, [r3, #80]
	.loc 1 2492 5 is_stmt 1
	.loc 1 2495 3
.LVL532:
.L434:
	.loc 1 2496 1 is_stmt 0
	add	sp, sp, #104
	.cfi_remember_state
	.cfi_def_cfa_offset 8
	@ sp needed
	pop	{r4, r5}
	.cfi_restore 5
	.cfi_restore 4
	.cfi_def_cfa_offset 0
	bx	lr
.LVL533:
.L453:
	.cfi_restore_state
	.loc 1 2396 21
	movs	r0, #0
	b	.L446
.LVL534:
.L454:
	movs	r0, #0
	b	.L446
.LVL535:
.L451:
	.cfi_def_cfa_offset 0
	.cfi_restore 4
	.cfi_restore 5
	.loc 1 2411 47
	movs	r0, #2
.LVL536:
	.loc 1 2496 1
	bx	lr
.L462:
	.align	2
.L461:
	.word	1073881088
	.word	1073881344
	.word	1476551424
	.word	1476550656
	.word	-3872
	.cfi_endproc
.LFE360:
	.size	HAL_ADCEx_MultiModeConfigChannel, .-HAL_ADCEx_MultiModeConfigChannel
	.section	.text.HAL_ADCEx_EnableInjectedQueue,"ax",%progbits
	.align	1
	.global	HAL_ADCEx_EnableInjectedQueue
	.syntax unified
	.thumb
	.thumb_func
	.type	HAL_ADCEx_EnableInjectedQueue, %function
HAL_ADCEx_EnableInjectedQueue:
.LFB361:
	.loc 1 2508 1 is_stmt 1
	.cfi_startproc
	@ args = 0, pretend = 0, frame = 0
	@ frame_needed = 0, uses_anonymous_args = 0
	@ link register save eliminated.
.LVL537:
	.loc 1 2509 3
	.loc 1 2510 3
	.loc 1 2511 3
	.loc 1 2514 3
	.loc 1 2516 3
	.loc 1 2516 44 is_stmt 0
	ldr	r1, [r0]
.LVL538:
.LBB544:
.LBB545:
	.loc 2 7075 3 is_stmt 1
	.loc 2 7075 18 is_stmt 0
	ldr	r2, [r1, #8]
	.loc 2 7075 73
	ands	r2, r2, #4
	beq	.L464
	movs	r2, #1
.L464:
.LVL539:
.LBE545:
.LBE544:
	.loc 1 2517 3 is_stmt 1
.LBB546:
.LBB547:
	.loc 2 7270 3
	.loc 2 7270 18 is_stmt 0
	ldr	r3, [r1, #8]
	.loc 2 7270 73
	ands	r3, r3, #8
	beq	.L465
	movs	r3, #1
.L465:
.LVL540:
.LBE547:
.LBE546:
	.loc 1 2520 3 is_stmt 1
	.loc 1 2520 6 is_stmt 0
	orrs	r3, r3, r2
.LVL541:
	bne	.L467
	.loc 1 2524 5 is_stmt 1
	.loc 1 2524 21 is_stmt 0
	ldr	r3, [r1, #12]
	.loc 1 2524 29
	bic	r3, r3, #-2147483648
	str	r3, [r1, #12]
	.loc 1 2527 5 is_stmt 1
	.loc 1 2527 11 is_stmt 0
	ldr	r3, [r0, #84]
	.loc 1 2527 20
	bic	r3, r3, #16384
	str	r3, [r0, #84]
	.loc 1 2529 5 is_stmt 1
.LVL542:
	.loc 1 2529 20 is_stmt 0
	movs	r0, #0
.LVL543:
	bx	lr
.LVL544:
.L467:
	.loc 1 2533 20
	movs	r0, #1
.LVL545:
	.loc 1 2536 3 is_stmt 1
	.loc 1 2537 1 is_stmt 0
	bx	lr
	.cfi_endproc
.LFE361:
	.size	HAL_ADCEx_EnableInjectedQueue, .-HAL_ADCEx_EnableInjectedQueue
	.section	.text.HAL_ADCEx_DisableInjectedQueue,"ax",%progbits
	.align	1
	.global	HAL_ADCEx_DisableInjectedQueue
	.syntax unified
	.thumb
	.thumb_func
	.type	HAL_ADCEx_DisableInjectedQueue, %function
HAL_ADCEx_DisableInjectedQueue:
.LFB362:
	.loc 1 2549 1 is_stmt 1
	.cfi_startproc
	@ args = 0, pretend = 0, frame = 0
	@ frame_needed = 0, uses_anonymous_args = 0
	@ link register save eliminated.
.LVL546:
	.loc 1 2550 3
	.loc 1 2551 3
	.loc 1 2552 3
	.loc 1 2555 3
	.loc 1 2557 3
	.loc 1 2557 44 is_stmt 0
	ldr	r1, [r0]
.LVL547:
.LBB548:
.LBB549:
	.loc 2 7075 3 is_stmt 1
	.loc 2 7075 18 is_stmt 0
	ldr	r2, [r1, #8]
	.loc 2 7075 73
	ands	r2, r2, #4
	beq	.L469
	movs	r2, #1
.L469:
.LVL548:
.LBE549:
.LBE548:
	.loc 1 2558 3 is_stmt 1
.LBB550:
.LBB551:
	.loc 2 7270 3
	.loc 2 7270 18 is_stmt 0
	ldr	r3, [r1, #8]
	.loc 2 7270 73
	ands	r3, r3, #8
	beq	.L470
	movs	r3, #1
.L470:
.LVL549:
.LBE551:
.LBE550:
	.loc 1 2561 3 is_stmt 1
	.loc 1 2561 6 is_stmt 0
	orrs	r3, r3, r2
.LVL550:
	bne	.L472
	.loc 1 2565 5 is_stmt 1
.LVL551:
.LBB552:
.LBB553:
	.loc 2 5065 3
	.loc 2 5065 31 is_stmt 0
	ldr	r2, [r1, #12]
.LVL552:
	.loc 2 5065 41
	ldr	r3, .L473
	ands	r3, r3, r2
	.loc 2 5065 85
	orr	r3, r3, #-2147483648
	.loc 2 5065 19
	str	r3, [r1, #12]
.LVL553:
.LBE553:
.LBE552:
	.loc 1 2566 5 is_stmt 1
	.loc 1 2566 20 is_stmt 0
	movs	r0, #0
.LVL554:
	bx	lr
.LVL555:
.L472:
	.loc 1 2570 20
	movs	r0, #1
.LVL556:
	.loc 1 2573 3 is_stmt 1
	.loc 1 2574 1 is_stmt 0
	bx	lr
.L474:
	.align	2
.L473:
	.word	2145386495
	.cfi_endproc
.LFE362:
	.size	HAL_ADCEx_DisableInjectedQueue, .-HAL_ADCEx_DisableInjectedQueue
	.section	.text.HAL_ADCEx_DisableVoltageRegulator,"ax",%progbits
	.align	1
	.global	HAL_ADCEx_DisableVoltageRegulator
	.syntax unified
	.thumb
	.thumb_func
	.type	HAL_ADCEx_DisableVoltageRegulator, %function
HAL_ADCEx_DisableVoltageRegulator:
.LFB363:
	.loc 1 2586 1 is_stmt 1
	.cfi_startproc
	@ args = 0, pretend = 0, frame = 0
	@ frame_needed = 0, uses_anonymous_args = 0
	@ link register save eliminated.
.LVL557:
	.loc 1 2587 3
	.loc 1 2590 3
	.loc 1 2593 3
	.loc 1 2593 7 is_stmt 0
	ldr	r3, [r0]
.LVL558:
.LBB554:
.LBB555:
	.loc 2 6943 3 is_stmt 1
	.loc 2 6943 18 is_stmt 0
	ldr	r2, [r3, #8]
	.loc 2 6943 73
	tst	r2, #1
	bne	.L477
.LVL559:
.LBE555:
.LBE554:
	.loc 1 2595 5 is_stmt 1
.LBB556:
.LBB557:
	.loc 2 6872 3
	.loc 2 6872 9 is_stmt 0
	ldr	r1, [r3, #8]
	.loc 2 6872 15
	ldr	r2, .L478
	ands	r2, r2, r1
	str	r2, [r3, #8]
.LVL560:
.LBE557:
.LBE556:
	.loc 1 2596 5 is_stmt 1
	.loc 1 2596 20 is_stmt 0
	movs	r0, #0
.LVL561:
	bx	lr
.LVL562:
.L477:
	.loc 1 2600 20
	movs	r0, #1
.LVL563:
	.loc 1 2603 3 is_stmt 1
	.loc 1 2604 1 is_stmt 0
	bx	lr
.L479:
	.align	2
.L478:
	.word	1879048128
	.cfi_endproc
.LFE363:
	.size	HAL_ADCEx_DisableVoltageRegulator, .-HAL_ADCEx_DisableVoltageRegulator
	.section	.text.HAL_ADCEx_EnterADCDeepPowerDownMode,"ax",%progbits
	.align	1
	.global	HAL_ADCEx_EnterADCDeepPowerDownMode
	.syntax unified
	.thumb
	.thumb_func
	.type	HAL_ADCEx_EnterADCDeepPowerDownMode, %function
HAL_ADCEx_EnterADCDeepPowerDownMode:
.LFB364:
	.loc 1 2623 1 is_stmt 1
	.cfi_startproc
	@ args = 0, pretend = 0, frame = 0
	@ frame_needed = 0, uses_anonymous_args = 0
	@ link register save eliminated.
.LVL564:
	.loc 1 2624 3
	.loc 1 2627 3
	.loc 1 2630 3
	.loc 1 2630 7 is_stmt 0
	ldr	r3, [r0]
.LVL565:
.LBB558:
.LBB559:
	.loc 2 6943 3 is_stmt 1
	.loc 2 6943 18 is_stmt 0
	ldr	r2, [r3, #8]
	.loc 2 6943 73
	tst	r2, #1
	bne	.L482
.LVL566:
.LBE559:
.LBE558:
	.loc 1 2632 5 is_stmt 1
.LBB560:
.LBB561:
	.loc 2 6800 3
	.loc 2 6800 29 is_stmt 0
	ldr	r1, [r3, #8]
	.loc 2 6800 172
	ldr	r2, .L483
	ands	r2, r2, r1
	orr	r2, r2, #536870912
	.loc 2 6800 17
	str	r2, [r3, #8]
.LVL567:
.LBE561:
.LBE560:
	.loc 1 2633 5 is_stmt 1
	.loc 1 2633 20 is_stmt 0
	movs	r0, #0
.LVL568:
	bx	lr
.LVL569:
.L482:
	.loc 1 2637 20
	movs	r0, #1
.LVL570:
	.loc 1 2640 3 is_stmt 1
	.loc 1 2641 1 is_stmt 0
	bx	lr
.L484:
	.align	2
.L483:
	.word	1610612672
	.cfi_endproc
.LFE364:
	.size	HAL_ADCEx_EnterADCDeepPowerDownMode, .-HAL_ADCEx_EnterADCDeepPowerDownMode
	.text
.Letext0:
	.file 4 "m:\\noinstall\\arm-gnu-toolchain-12.2.rel1-mingw-w64-i686-arm-none-eabi\\arm-none-eabi\\include\\machine\\_default_types.h"
	.file 5 "m:\\noinstall\\arm-gnu-toolchain-12.2.rel1-mingw-w64-i686-arm-none-eabi\\arm-none-eabi\\include\\sys\\_stdint.h"
	.file 6 "D:/RTOS/Board/YD-STM32H7xxVx_ClassicV19/cmake-build-debug/_deps/stm32h7xx_cmsis_device-src/Include/stm32h743xx.h"
	.file 7 "D:/RTOS/Board/YD-STM32H7xxVx_ClassicV19/cmake-build-debug/_deps/stm32h7xx_cmsis_device-src/Include/stm32h7xx.h"
	.file 8 "D:/RTOS/Board/YD-STM32H7xxVx_ClassicV19/cmake-build-debug/_deps/stm32h7xx_hal_driver-src/Inc/stm32h7xx_hal_def.h"
	.file 9 "D:/RTOS/Board/YD-STM32H7xxVx_ClassicV19/cmake-build-debug/_deps/stm32h7xx_hal_driver-src/Inc/stm32h7xx_hal_dma.h"
	.file 10 "D:/RTOS/Board/YD-STM32H7xxVx_ClassicV19/cmake-build-debug/_deps/stm32h7xx_hal_driver-src/Inc/stm32h7xx_hal_adc.h"
	.file 11 "D:/RTOS/Board/YD-STM32H7xxVx_ClassicV19/cmake-build-debug/_deps/stm32h7xx_hal_driver-src/Inc/stm32h7xx_hal_adc_ex.h"
	.file 12 "D:/RTOS/Board/YD-STM32H7xxVx_ClassicV19/cmake-build-debug/_deps/stm32h7xx_cmsis_device-src/Include/system_stm32h7xx.h"
	.file 13 "D:/RTOS/Board/YD-STM32H7xxVx_ClassicV19/cmake-build-debug/_deps/stm32h7xx_hal_driver-src/Inc/stm32h7xx_hal.h"