	.cpu cortex-m7
	.arch armv7e-m
	.fpu fpv5-d16
	.eabi_attribute 28, 1
	.eabi_attribute 20, 1
	.eabi_attribute 21, 1
	.eabi_attribute 23, 3
	.eabi_attribute 24, 1
	.eabi_attribute 25, 1
	.eabi_attribute 26, 1
	.eabi_attribute 30, 1
	.eabi_attribute 34, 1
	.eabi_attribute 18, 4
	.file	"stm32h7xx_hal_crc_ex.c"
	.text
.Ltext0:
	.cfi_sections	.debug_frame
	.file 1 "D:/RTOS/Board/YD-STM32H7xxVx_ClassicV19/cmake-build-debug/_deps/stm32h7xx_hal_driver-src/Src/stm32h7xx_hal_crc_ex.c"
	.section	.text.HAL_CRCEx_Polynomial_Set,"ax",%progbits
	.align	1
	.global	HAL_CRCEx_Polynomial_Set
	.syntax unified
	.thumb
	.thumb_func
	.type	HAL_CRCEx_Polynomial_Set, %function
HAL_CRCEx_Polynomial_Set:
.LFB335:
	.loc 1 90 1
	.cfi_startproc
	@ args = 0, pretend = 0, frame = 0
	@ frame_needed = 0, uses_anonymous_args = 0
	@ link register save eliminated.
.LVL0:
	.loc 1 91 3
	.loc 1 92 3
	.loc 1 95 3
	.loc 1 98 3
	.loc 1 98 6 is_stmt 0
	tst	r1, #1
	beq	.L10
	.loc 1 90 1
	push	{r4}
	.cfi_def_cfa_offset 4
	.cfi_offset 4, -4
	.loc 1 92 12
	movs	r3, #31
.LVL1:
.L4:
	.loc 1 113 5 is_stmt 1 discriminator 2
	.loc 1 111 25 discriminator 2
	mov	r4, r3
	.loc 1 111 16 is_stmt 0 discriminator 2
	subs	r3, r3, #1
.LVL2:
	.loc 1 111 25 discriminator 2
	cbz	r4, .L3
	.loc 1 111 62 discriminator 1
	and	ip, r3, #31
	.loc 1 111 73 discriminator 1
	lsr	ip, r1, ip
	.loc 1 111 25 discriminator 1
	tst	ip, #1
	beq	.L4
.L3:
	.loc 1 115 5 is_stmt 1
	cmp	r2, #24
	bhi	.L11
	tbb	[pc, r2]
.L6:
	.byte	(.L9-.L6)/2
	.byte	(.L11-.L6)/2
	.byte	(.L11-.L6)/2
	.byte	(.L11-.L6)/2
	.byte	(.L11-.L6)/2
	.byte	(.L11-.L6)/2
	.byte	(.L11-.L6)/2
	.byte	(.L11-.L6)/2
	.byte	(.L8-.L6)/2
	.byte	(.L11-.L6)/2
	.byte	(.L11-.L6)/2
	.byte	(.L11-.L6)/2
	.byte	(.L11-.L6)/2
	.byte	(.L11-.L6)/2
	.byte	(.L11-.L6)/2
	.byte	(.L11-.L6)/2
	.byte	(.L7-.L6)/2
	.byte	(.L11-.L6)/2
	.byte	(.L11-.L6)/2
	.byte	(.L11-.L6)/2
	.byte	(.L11-.L6)/2
	.byte	(.L11-.L6)/2
	.byte	(.L11-.L6)/2
	.byte	(.L11-.L6)/2
	.byte	(.L5-.L6)/2
	.p2align 1
.L5:
	.loc 1 119 9
	.loc 1 119 12 is_stmt 0
	cmp	r3, #6
	bhi	.L12
.L9:
.LVL3:
	.loc 1 148 5 is_stmt 1
	.loc 1 148 11 is_stmt 0
	ldr	r3, [r0]
.LVL4:
	.loc 1 148 28
	str	r1, [r3, #20]
	.loc 1 151 5 is_stmt 1
	.loc 1 151 41 is_stmt 0
	ldr	r1, [r0]
.LVL5:
	.loc 1 151 51
	ldr	r3, [r1, #8]
.LVL6:
	.loc 1 151 59
	bic	r3, r3, #24
	.loc 1 151 83
	orrs	r3, r3, r2
	.loc 1 151 29
	str	r3, [r1, #8]
	movs	r0, #0
.LVL7:
	b	.L2
.LVL8:
.L7:
	.loc 1 125 9 is_stmt 1
	.loc 1 125 12 is_stmt 0
	cmp	r3, #7
	bls	.L9
	.loc 1 127 18
	movs	r0, #1
.LVL9:
	b	.L2
.LVL10:
.L8:
	.loc 1 131 9 is_stmt 1
	.loc 1 131 12 is_stmt 0
	cmp	r3, #15
	bls	.L9
	.loc 1 133 18
	movs	r0, #1
.LVL11:
	b	.L2
.LVL12:
.L10:
	.cfi_def_cfa_offset 0
	.cfi_restore 4
	.loc 1 100 12
	movs	r0, #1
.LVL13:
	.loc 1 154 3 is_stmt 1
	.loc 1 155 1 is_stmt 0
	bx	lr
.LVL14:
.L11:
	.cfi_def_cfa_offset 4
	.cfi_offset 4, -4
	.loc 1 115 5
	movs	r0, #1
.LVL15:
.L2:
	.loc 1 154 3 is_stmt 1
	.loc 1 155 1 is_stmt 0
	ldr	r4, [sp], #4
	.cfi_remember_state
	.cfi_restore 4
	.cfi_def_cfa_offset 0
	bx	lr
.LVL16:
.L12:
	.cfi_restore_state
	.loc 1 121 18
	movs	r0, #1
.LVL17:
	b	.L2
	.cfi_endproc
.LFE335:
	.size	HAL_CRCEx_Polynomial_Set, .-HAL_CRCEx_Polynomial_Set
	.section	.text.HAL_CRCEx_Input_Data_Reverse,"ax",%progbits
	.align	1
	.global	HAL_CRCEx_Input_Data_Reverse
	.syntax unified
	.thumb
	.thumb_func
	.type	HAL_CRCEx_Input_Data_Reverse, %function
HAL_CRCEx_Input_Data_Reverse:
.LFB336:
	.loc 1 169 1 is_stmt 1
	.cfi_startproc
	@ args = 0, pretend = 0, frame = 0
	@ frame_needed = 0, uses_anonymous_args = 0
	@ link register save eliminated.
.LVL18:
	.loc 1 171 3
	.loc 1 174 3
	.loc 1 174 15 is_stmt 0
	movs	r3, #2
	strb	r3, [r0, #29]
	.loc 1 177 3 is_stmt 1
	.loc 1 177 39 is_stmt 0
	ldr	r2, [r0]
	.loc 1 177 49
	ldr	r3, [r2, #8]
	.loc 1 177 57
	bic	r3, r3, #96
	.loc 1 177 81
	orrs	r3, r3, r1
	.loc 1 177 27
	str	r3, [r2, #8]
	.loc 1 179 3 is_stmt 1
	.loc 1 179 15 is_stmt 0
	movs	r3, #1
	strb	r3, [r0, #29]
	.loc 1 182 3 is_stmt 1
	.loc 1 183 1 is_stmt 0
	movs	r0, #0
.LVL19:
	bx	lr
	.cfi_endproc
.LFE336:
	.size	HAL_CRCEx_Input_Data_Reverse, .-HAL_CRCEx_Input_Data_Reverse
	.section	.text.HAL_CRCEx_Output_Data_Reverse,"ax",%progbits
	.align	1
	.global	HAL_CRCEx_Output_Data_Reverse
	.syntax unified
	.thumb
	.thumb_func
	.type	HAL_CRCEx_Output_Data_Reverse, %function
HAL_CRCEx_Output_Data_Reverse:
.LFB337:
	.loc 1 195 1 is_stmt 1
	.cfi_startproc
	@ args = 0, pretend = 0, frame = 0
	@ frame_needed = 0, uses_anonymous_args = 0
	@ link register save eliminated.
.LVL20:
	.loc 1 197 3
	.loc 1 200 3
	.loc 1 200 15 is_stmt 0
	movs	r3, #2
	strb	r3, [r0, #29]
	.loc 1 203 3 is_stmt 1
	.loc 1 203 39 is_stmt 0
	ldr	r2, [r0]
	.loc 1 203 49
	ldr	r3, [r2, #8]
	.loc 1 203 57
	bic	r3, r3, #128
	.loc 1 203 81
	orrs	r3, r3, r1
	.loc 1 203 27
	str	r3, [r2, #8]
	.loc 1 206 3 is_stmt 1
	.loc 1 206 15 is_stmt 0
	movs	r3, #1
	strb	r3, [r0, #29]
	.loc 1 209 3 is_stmt 1
	.loc 1 210 1 is_stmt 0
	movs	r0, #0
.LVL21:
	bx	lr
	.cfi_endproc
.LFE337:
	.size	HAL_CRCEx_Output_Data_Reverse, .-HAL_CRCEx_Output_Data_Reverse
	.text
.Letext0:
	.file 2 "m:\\noinstall\\arm-gnu-toolchain-12.2.rel1-mingw-w64-i686-arm-none-eabi\\arm-none-eabi\\include\\machine\\_default_types.h"
	.file 3 "m:\\noinstall\\arm-gnu-toolchain-12.2.rel1-mingw-w64-i686-arm-none-eabi\\arm-none-eabi\\include\\sys\\_stdint.h"
	.file 4 "D:/RTOS/Board/YD-STM32H7xxVx_ClassicV19/cmake-build-debug/_deps/stm32h7xx_cmsis_device-src/Include/stm32h743xx.h"
	.file 5 "D:/RTOS/Board/YD-STM32H7xxVx_ClassicV19/cmake-build-debug/_deps/stm32h7xx_hal_driver-src/Inc/stm32h7xx_hal_def.h"
	.file 6 "D:/RTOS/Board/YD-STM32H7xxVx_ClassicV19/cmake-build-debug/_deps/stm32h7xx_hal_driver-src/Inc/stm32h7xx_hal_crc.h"