	.cpu cortex-m7
	.arch armv7e-m
	.fpu fpv5-d16
	.eabi_attribute 28, 1
	.eabi_attribute 20, 1
	.eabi_attribute 21, 1
	.eabi_attribute 23, 3
	.eabi_attribute 24, 1
	.eabi_attribute 25, 1
	.eabi_attribute 26, 1
	.eabi_attribute 30, 1
	.eabi_attribute 34, 1
	.eabi_attribute 18, 4
	.file	"stm32h7xx_hal_jpeg.c"
	.text
.Ltext0:
	.cfi_sections	.debug_frame
	.file 1 "D:/RTOS/Board/YD-STM32H7xxVx_ClassicV19/cmake-build-debug/_deps/stm32h7xx_hal_driver-src/Src/stm32h7xx_hal_jpeg.c"
	.section	.text.JPEG_Bits_To_SizeCodes,"ax",%progbits
	.align	1
	.syntax unified
	.thumb
	.thumb_func
	.type	JPEG_Bits_To_SizeCodes, %function
JPEG_Bits_To_SizeCodes:
.LFB364:
	.loc 1 2531 1
	.cfi_startproc
	@ args = 0, pretend = 0, frame = 0
	@ frame_needed = 0, uses_anonymous_args = 0
.LVL0:
	push	{r4, r5, r6, lr}
	.cfi_def_cfa_offset 16
	.cfi_offset 4, -16
	.cfi_offset 5, -12
	.cfi_offset 6, -8
	.cfi_offset 14, -4
	mov	r5, r0
	mov	lr, r1
	mov	r4, r2
	mov	r6, r3
	.loc 1 2532 3
	.loc 1 2533 3
	.loc 1 2534 3
	.loc 1 2535 3
	.loc 1 2536 3
	.loc 1 2539 3
.LVL1:
	.loc 1 2540 3
	.loc 1 2540 10 is_stmt 0
	movs	r0, #0
.LVL2:
	.loc 1 2539 5
	mov	r1, r0
.LVL3:
	.loc 1 2540 3
	b	.L2
.LVL4:
.L5:
	.loc 1 2550 7 is_stmt 1
	.loc 1 2550 21 is_stmt 0
	uxtb	ip, r0
	.loc 1 2550 33
	add	ip, ip, #1
	.loc 1 2550 19
	strb	ip, [lr, r1]
	.loc 1 2551 7 is_stmt 1
	.loc 1 2551 8 is_stmt 0
	adds	r1, r1, #1
.LVL5:
	.loc 1 2552 7 is_stmt 1
	.loc 1 2552 8 is_stmt 0
	subs	r2, r2, #1
.LVL6:
.L4:
	.loc 1 2548 14 is_stmt 1
	cmp	r2, #0
	bne	.L5
	.loc 1 2540 26 discriminator 2
	adds	r0, r0, #1
.LVL7:
.L2:
	.loc 1 2540 17 discriminator 1
	cmp	r0, #15
	bhi	.L14
	.loc 1 2542 5
	.loc 1 2542 23 is_stmt 0
	ldrb	r2, [r5, r0]	@ zero_extendqisi2
.LVL8:
	.loc 1 2543 5 is_stmt 1
	.loc 1 2543 12 is_stmt 0
	add	ip, r1, r2
	.loc 1 2543 8
	cmp	ip, #256
	bls	.L4
	.loc 1 2546 14
	movs	r0, #1
.LVL9:
.L3:
	.loc 1 2584 1
	pop	{r4, r5, r6, pc}
.LVL10:
.L14:
	.loc 1 2555 3 is_stmt 1
	.loc 1 2555 15 is_stmt 0
	movs	r3, #0
.LVL11:
	strb	r3, [lr, r1]
	.loc 1 2556 3 is_stmt 1
	.loc 1 2556 10 is_stmt 0
	str	r1, [r6]
	.loc 1 2559 3 is_stmt 1
.LVL12:
	.loc 1 2560 3
	.loc 1 2560 16 is_stmt 0
	ldrb	ip, [lr]	@ zero_extendqisi2
.LVL13:
	.loc 1 2561 3 is_stmt 1
	.loc 1 2562 3
	.loc 1 2559 8 is_stmt 0
	mov	r2, r3
	.loc 1 2562 9
	b	.L7
.LVL14:
.L8:
	.loc 1 2566 7 is_stmt 1
	.loc 1 2566 19 is_stmt 0
	str	r2, [r4, r3, lsl #2]
	.loc 1 2567 7 is_stmt 1
	.loc 1 2567 8 is_stmt 0
	adds	r3, r3, #1
.LVL15:
	.loc 1 2568 7 is_stmt 1
	.loc 1 2568 11 is_stmt 0
	adds	r2, r2, #1
.LVL16:
.L9:
	.loc 1 2564 37 is_stmt 1
	.loc 1 2564 32 is_stmt 0
	ldrb	r1, [lr, r3]	@ zero_extendqisi2
	.loc 1 2564 37
	cmp	r1, ip
	beq	.L8
	.loc 1 2571 5 is_stmt 1
	.loc 1 2571 7 is_stmt 0
	cmp	ip, #31
	bhi	.L11
	.loc 1 2575 5 is_stmt 1
	.loc 1 2575 46 is_stmt 0
	movs	r1, #1
	lsl	r1, r1, ip
	.loc 1 2575 8
	cmp	r1, r2
	bls	.L12
	.loc 1 2579 5 is_stmt 1
	.loc 1 2579 10 is_stmt 0
	lsls	r2, r2, #1
.LVL17:
	.loc 1 2580 5 is_stmt 1
	.loc 1 2580 7 is_stmt 0
	add	ip, ip, #1
.LVL18:
.L7:
	.loc 1 2562 22 is_stmt 1
	.loc 1 2562 18 is_stmt 0
	ldrb	r0, [lr, r3]	@ zero_extendqisi2
	.loc 1 2562 22
	cmp	r0, #0
	bne	.L9
	b	.L3
.L11:
	.loc 1 2573 14
	movs	r0, #1
	b	.L3
.L12:
	.loc 1 2577 14
	movs	r0, #1
	b	.L3
	.cfi_endproc
.LFE364:
	.size	JPEG_Bits_To_SizeCodes, .-JPEG_Bits_To_SizeCodes
	.section	.text.JPEG_ACHuff_BitsVals_To_SizeCodes,"ax",%progbits
	.align	1
	.syntax unified
	.thumb
	.thumb_func
	.type	JPEG_ACHuff_BitsVals_To_SizeCodes, %function
JPEG_ACHuff_BitsVals_To_SizeCodes:
.LFB365:
	.loc 1 2595 1 is_stmt 1
	.cfi_startproc
	@ args = 0, pretend = 0, frame = 1296
	@ frame_needed = 0, uses_anonymous_args = 0
.LVL19:
	push	{r4, r5, r6, lr}
	.cfi_def_cfa_offset 16
	.cfi_offset 4, -16
	.cfi_offset 5, -12
	.cfi_offset 6, -8
	.cfi_offset 14, -4
	sub	sp, sp, #1296
	.cfi_def_cfa_offset 1312
	mov	r5, r0
	mov	r4, r1
	.loc 1 2595 1 is_stmt 0
	ldr	r3, .L26
	ldr	r3, [r3]
	str	r3, [sp, #1292]
	mov	r3, #0
	.loc 1 2596 3 is_stmt 1
	.loc 1 2597 3
	.loc 1 2598 3
	.loc 1 2599 3
	.loc 1 2600 3
	.loc 1 2601 3
	.loc 1 2603 3
	.loc 1 2603 11 is_stmt 0
	mov	r3, sp
	add	r2, sp, #4
	add	r1, sp, #1032
.LVL20:
	bl	JPEG_Bits_To_SizeCodes
.LVL21:
	.loc 1 2604 3 is_stmt 1
	.loc 1 2604 6 is_stmt 0
	cbnz	r0, .L16
	mov	r3, r0
	b	.L17
.LVL22:
.L21:
	.loc 1 2617 9
	movs	r2, #160
.LVL23:
.L18:
	.loc 1 2635 7 is_stmt 1
	.loc 1 2635 51 is_stmt 0
	add	r1, sp, #4
	ldr	r6, [r1, r3, lsl #2]
	.loc 1 2635 41
	add	r1, r2, #40
	add	r1, r4, r1, lsl #2
	str	r6, [r1, #4]
	.loc 1 2636 7 is_stmt 1
	.loc 1 2636 50 is_stmt 0
	add	r1, sp, #1032
	ldrb	r1, [r1, r3]	@ zero_extendqisi2
	.loc 1 2636 54
	subs	r1, r1, #1
	.loc 1 2636 40
	strb	r1, [r4, r2]
	.loc 1 2637 7 is_stmt 1
	.loc 1 2637 8 is_stmt 0
	adds	r3, r3, #1
.LVL24:
.L17:
	.loc 1 2612 12 is_stmt 1
	ldr	r2, [sp]
	cmp	r2, r3
	bls	.L16
	.loc 1 2614 5
	.loc 1 2614 34 is_stmt 0
	adds	r2, r5, r3
	ldrb	r2, [r2, #16]	@ zero_extendqisi2
.LVL25:
	.loc 1 2615 5 is_stmt 1
	.loc 1 2615 8 is_stmt 0
	cmp	r2, #0
	beq	.L21
	.loc 1 2619 10 is_stmt 1
	.loc 1 2619 13 is_stmt 0
	cmp	r2, #240
	beq	.L22
	.loc 1 2625 7 is_stmt 1
.LVL26:
	.loc 1 2626 7
	.loc 1 2626 11 is_stmt 0
	and	r1, r2, #15
.LVL27:
	.loc 1 2627 7 is_stmt 1
	.loc 1 2627 16 is_stmt 0
	lsrs	r2, r2, #4
.LVL28:
	add	r2, r2, r2, lsl #2
	.loc 1 2627 24
	add	r2, r1, r2, lsl #1
	.loc 1 2627 9
	subs	r2, r2, #1
.LVL29:
	.loc 1 2629 5 is_stmt 1
	.loc 1 2629 8 is_stmt 0
	cmp	r2, #161
	bls	.L18
	.loc 1 2631 14
	movs	r0, #1
.LVL30:
.L16:
	.loc 1 2643 1
	ldr	r3, .L26
	ldr	r2, [r3]
	ldr	r3, [sp, #1292]
	eors	r2, r3, r2
	mov	r3, #0
	bne	.L25
	add	sp, sp, #1296
	.cfi_remember_state
	.cfi_def_cfa_offset 16
	@ sp needed
	pop	{r4, r5, r6, pc}
.LVL31:
.L22:
	.cfi_restore_state
	.loc 1 2621 9
	movs	r2, #161
.LVL32:
	b	.L18
.LVL33:
.L25:
	.loc 1 2643 1
	bl	__stack_chk_fail
.LVL34:
.L27:
	.align	2
.L26:
	.word	__stack_chk_guard
	.cfi_endproc
.LFE365:
	.size	JPEG_ACHuff_BitsVals_To_SizeCodes, .-JPEG_ACHuff_BitsVals_To_SizeCodes
	.section	.text.JPEG_DCHuff_BitsVals_To_SizeCodes,"ax",%progbits
	.align	1
	.syntax unified
	.thumb
	.thumb_func
	.type	JPEG_DCHuff_BitsVals_To_SizeCodes, %function
JPEG_DCHuff_BitsVals_To_SizeCodes:
.LFB366:
	.loc 1 2654 1 is_stmt 1
	.cfi_startproc
	@ args = 0, pretend = 0, frame = 1296
	@ frame_needed = 0, uses_anonymous_args = 0
.LVL35:
	push	{r4, r5, lr}
	.cfi_def_cfa_offset 12
	.cfi_offset 4, -12
	.cfi_offset 5, -8
	.cfi_offset 14, -4
	subw	sp, sp, #1300
	.cfi_def_cfa_offset 1312
	mov	r5, r0
	mov	r4, r1
	.loc 1 2654 1 is_stmt 0
	ldr	r3, .L36
	ldr	r3, [r3]
	str	r3, [sp, #1292]
	mov	r3, #0
	.loc 1 2655 3 is_stmt 1
	.loc 1 2657 3
	.loc 1 2658 3
	.loc 1 2659 3
	.loc 1 2660 3
	.loc 1 2661 3
	.loc 1 2662 3
	.loc 1 2662 11 is_stmt 0
	mov	r3, sp
	add	r2, sp, #4
	add	r1, sp, #1032
.LVL36:
	bl	JPEG_Bits_To_SizeCodes
.LVL37:
	.loc 1 2663 3 is_stmt 1
	.loc 1 2663 6 is_stmt 0
	cbnz	r0, .L29
	mov	r3, r0
.L30:
.LVL38:
	.loc 1 2670 12 is_stmt 1
	ldr	r2, [sp]
	cmp	r2, r3
	bls	.L29
	.loc 1 2672 5
	.loc 1 2672 34 is_stmt 0
	adds	r2, r5, r3
	ldrb	r2, [r2, #16]	@ zero_extendqisi2
.LVL39:
	.loc 1 2673 5 is_stmt 1
	.loc 1 2673 8 is_stmt 0
	cmp	r2, #11
	bhi	.L33
	.loc 1 2679 7 is_stmt 1
	.loc 1 2679 51 is_stmt 0
	add	r1, sp, #4
	ldr	r1, [r1, r3, lsl #2]
	.loc 1 2679 41
	add	ip, r2, #2
	add	ip, r4, ip, lsl #2
	str	r1, [ip, #4]
	.loc 1 2680 7 is_stmt 1
	.loc 1 2680 50 is_stmt 0
	add	r1, sp, #1032
	ldrb	ip, [r1, r3]	@ zero_extendqisi2
	.loc 1 2680 54
	add	ip, ip, #-1
	.loc 1 2680 40
	strb	ip, [r4, r2]
	.loc 1 2681 7 is_stmt 1
	.loc 1 2681 8 is_stmt 0
	adds	r3, r3, #1
.LVL40:
	b	.L30
.L33:
	.loc 1 2675 14
	movs	r0, #1
.LVL41:
.L29:
	.loc 1 2687 1
	ldr	r3, .L36
	ldr	r2, [r3]
	ldr	r3, [sp, #1292]
	eors	r2, r3, r2
	mov	r3, #0
	bne	.L35
	addw	sp, sp, #1300
	.cfi_remember_state
	.cfi_def_cfa_offset 12
	@ sp needed
	pop	{r4, r5, pc}
.LVL42:
.L35:
	.cfi_restore_state
	bl	__stack_chk_fail
.LVL43:
.L37:
	.align	2
.L36:
	.word	__stack_chk_guard
	.cfi_endproc
.LFE366:
	.size	JPEG_DCHuff_BitsVals_To_SizeCodes, .-JPEG_DCHuff_BitsVals_To_SizeCodes
	.section	.text.JPEG_Set_HuffDC_Mem,"ax",%progbits
	.align	1
	.syntax unified
	.thumb
	.thumb_func
	.type	JPEG_Set_HuffDC_Mem, %function
JPEG_Set_HuffDC_Mem:
.LFB367:
	.loc 1 2699 1 is_stmt 1
	.cfi_startproc
	@ args = 0, pretend = 0, frame = 64
	@ frame_needed = 0, uses_anonymous_args = 0
.LVL44:
	push	{r4, lr}
	.cfi_def_cfa_offset 8
	.cfi_offset 4, -8
	.cfi_offset 14, -4
	sub	sp, sp, #64
	.cfi_def_cfa_offset 72
	mov	r3, r1
	.loc 1 2699 1 is_stmt 0
	ldr	r1, .L51
.LVL45:
	ldr	r1, [r1]
	str	r1, [sp, #60]
	mov	r1, #0
	.loc 1 2700 3 is_stmt 1
	.loc 1 2701 3
	.loc 1 2702 3
	.loc 1 2703 3
	.loc 1 2704 3
	.loc 1 2705 3
	.loc 1 2707 3
	.loc 1 2707 31 is_stmt 0
	ldr	r4, [r0]
	.loc 1 2707 22
	add	r1, r4, #1984
	.loc 1 2707 6
	cmp	r1, r2
	beq	.L48
	.loc 1 2711 8 is_stmt 1
	.loc 1 2711 27 is_stmt 0
	add	r1, r4, #2016
	.loc 1 2711 11
	cmp	r1, r2
	beq	.L49
	.loc 1 2717 12
	movs	r0, #1
.LVL46:
.L41:
	.loc 1 2749 1
	ldr	r3, .L51
	ldr	r2, [r3]
	ldr	r3, [sp, #60]
	eors	r2, r3, r2
	mov	r3, #0
	bne	.L50
	add	sp, sp, #64
	.cfi_remember_state
	.cfi_def_cfa_offset 8
	@ sp needed
	pop	{r4, pc}
.LVL47:
.L48:
	.cfi_restore_state
	.loc 1 2709 5 is_stmt 1
	.loc 1 2709 13 is_stmt 0
	add	r4, r4, #2008
.LVL48:
	b	.L40
.LVL49:
.L49:
	.loc 1 2713 5 is_stmt 1
	.loc 1 2713 13 is_stmt 0
	add	r4, r4, #2040
.LVL50:
.L40:
	.loc 1 2720 3 is_stmt 1
	.loc 1 2720 6 is_stmt 0
	cbz	r3, .L46
	.loc 1 2722 5 is_stmt 1
	.loc 1 2722 13 is_stmt 0
	mov	r1, sp
	mov	r0, r3
.LVL51:
	bl	JPEG_DCHuff_BitsVals_To_SizeCodes
.LVL52:
	.loc 1 2723 5 is_stmt 1
	.loc 1 2723 8 is_stmt 0
	cmp	r0, #0
	bne	.L41
	.loc 1 2727 5 is_stmt 1
.LVL53:
	.loc 1 2728 5
	.loc 1 2728 17 is_stmt 0
	mvn	r3, #-268374016
	str	r3, [r4]
	.loc 1 2729 5 is_stmt 1
.LVL54:
	.loc 1 2730 5
	.loc 1 2730 17 is_stmt 0
	str	r3, [r4, #4]
	.loc 1 2732 5 is_stmt 1
.LVL55:
	.loc 1 2733 5
	.loc 1 2732 7 is_stmt 0
	movs	r1, #12
	.loc 1 2733 11
	b	.L42
.LVL56:
.L43:
	.loc 1 2735 7 is_stmt 1
	.loc 1 2736 7
	.loc 1 2737 7
	.loc 1 2737 63 is_stmt 0
	add	r3, r1, #63
	add	r3, sp, r3
	ldrb	r2, [r3, #-64]	@ zero_extendqisi2
	.loc 1 2737 14
	lsls	r2, r2, #8
	and	r2, r2, #3840
	.loc 1 2737 123
	adds	r3, r1, #1
	add	ip, sp, #64
	add	r3, ip, r3, lsl #2
	.loc 1 2737 127
	ldrb	r3, [r3, #-60]	@ zero_extendqisi2
	.loc 1 2737 11
	orrs	r2, r2, r3
.LVL57:
	.loc 1 2739 7 is_stmt 1
	.loc 1 2739 8 is_stmt 0
	subs	r1, r1, #2
.LVL58:
	.loc 1 2740 7 is_stmt 1
	.loc 1 2740 63 is_stmt 0
	add	r3, r1, #64
	add	r3, sp, r3
	ldrb	r3, [r3, #-64]	@ zero_extendqisi2
	.loc 1 2740 14
	lsls	r3, r3, #8
	and	r3, r3, #3840
	.loc 1 2740 123
	add	ip, r1, #2
	add	lr, sp, #64
	add	ip, lr, ip, lsl #2
	.loc 1 2740 127
	ldrb	ip, [ip, #-60]	@ zero_extendqisi2
	.loc 1 2740 11
	orr	r3, r3, ip
.LVL59:
	.loc 1 2743 7 is_stmt 1
	.loc 1 2743 22 is_stmt 0
	orr	r3, r3, r2, lsl #16
.LVL60:
	.loc 1 2743 16
	str	r3, [r4, #-4]!
.LVL61:
.L42:
	.loc 1 2733 14 is_stmt 1
	cmp	r1, #1
	bhi	.L43
	b	.L41
.LVL62:
.L46:
	.loc 1 2748 10 is_stmt 0
	movs	r0, #0
.LVL63:
	b	.L41
.LVL64:
.L50:
	.loc 1 2749 1
	bl	__stack_chk_fail
.LVL65:
.L52:
	.align	2
.L51:
	.word	__stack_chk_guard
	.cfi_endproc
.LFE367:
	.size	JPEG_Set_HuffDC_Mem, .-JPEG_Set_HuffDC_Mem
	.section	.text.JPEG_Set_HuffAC_Mem,"ax",%progbits
	.align	1
	.syntax unified
	.thumb
	.thumb_func
	.type	JPEG_Set_HuffAC_Mem, %function
JPEG_Set_HuffAC_Mem:
.LFB368:
	.loc 1 2761 1 is_stmt 1
	.cfi_startproc
	@ args = 0, pretend = 0, frame = 816
	@ frame_needed = 0, uses_anonymous_args = 0
.LVL66:
	push	{r4, lr}
	.cfi_def_cfa_offset 8
	.cfi_offset 4, -8
	.cfi_offset 14, -4
	sub	sp, sp, #816
	.cfi_def_cfa_offset 824
	mov	r3, r1
	.loc 1 2761 1 is_stmt 0
	ldr	r1, .L68
.LVL67:
	ldr	r1, [r1]
	str	r1, [sp, #812]
	mov	r1, #0
	.loc 1 2762 3 is_stmt 1
	.loc 1 2763 3
	.loc 1 2764 3
	.loc 1 2765 3
	.loc 1 2767 3
	.loc 1 2767 31 is_stmt 0
	ldr	r4, [r0]
	.loc 1 2767 22
	add	r1, r4, #1280
	.loc 1 2767 6
	cmp	r1, r2
	beq	.L65
	.loc 1 2771 8 is_stmt 1
	.loc 1 2771 27 is_stmt 0
	add	r1, r4, #1632
	.loc 1 2771 11
	cmp	r1, r2
	beq	.L66
	.loc 1 2777 12
	movs	r0, #1
.LVL68:
.L56:
	.loc 1 2823 1
	ldr	r3, .L68
	ldr	r2, [r3]
	ldr	r3, [sp, #812]
	eors	r2, r3, r2
	mov	r3, #0
	bne	.L67
	add	sp, sp, #816
	.cfi_remember_state
	.cfi_def_cfa_offset 8
	@ sp needed
	pop	{r4, pc}
.LVL69:
.L65:
	.cfi_restore_state
	.loc 1 2769 5 is_stmt 1
	.loc 1 2769 13 is_stmt 0
	addw	r4, r4, #1604
.LVL70:
	b	.L55
.LVL71:
.L66:
	.loc 1 2773 5 is_stmt 1
	.loc 1 2773 13 is_stmt 0
	addw	r4, r4, #1956
.LVL72:
.L55:
	.loc 1 2780 3 is_stmt 1
	.loc 1 2780 6 is_stmt 0
	cmp	r3, #0
	beq	.L63
	.loc 1 2782 5 is_stmt 1
	.loc 1 2782 13 is_stmt 0
	mov	r1, sp
	mov	r0, r3
.LVL73:
	bl	JPEG_ACHuff_BitsVals_To_SizeCodes
.LVL74:
	.loc 1 2783 5 is_stmt 1
	.loc 1 2783 8 is_stmt 0
	cmp	r0, #0
	bne	.L56
	.loc 1 2790 16
	mov	r3, r4
	.loc 1 2791 12
	movs	r2, #0
	b	.L57
.LVL75:
.L58:
	.loc 1 2793 7 is_stmt 1 discriminator 3
	.loc 1 2793 19 is_stmt 0 discriminator 3
	mvn	r1, #-268374016
	str	r1, [r3], #4
.LVL76:
	.loc 1 2794 7 is_stmt 1 discriminator 3
	.loc 1 2791 27 discriminator 3
	adds	r2, r2, #1
.LVL77:
.L57:
	.loc 1 2791 19 discriminator 1
	cmp	r2, #2
	bls	.L58
	.loc 1 2796 5
	.loc 1 2796 17 is_stmt 0
	ldr	r2, .L68+4
.LVL78:
	str	r2, [r3]
	.loc 1 2797 5 is_stmt 1
.LVL79:
	.loc 1 2798 5
	.loc 1 2798 17 is_stmt 0
	add	r2, r2, #131074
	str	r2, [r3, #4]
	.loc 1 2799 5 is_stmt 1
.LVL80:
	.loc 1 2800 5
	.loc 1 2800 17 is_stmt 0
	add	r2, r2, #131074
	str	r2, [r3, #8]
	.loc 1 2801 5 is_stmt 1
.LVL81:
	.loc 1 2802 5
	.loc 1 2802 17 is_stmt 0
	add	r2, r2, #131074
	str	r2, [r3, #12]
	.loc 1 2806 5 is_stmt 1
.LVL82:
	.loc 1 2807 5
	.loc 1 2806 7 is_stmt 0
	movs	r1, #162
	.loc 1 2807 11
	b	.L59
.LVL83:
.L60:
	.loc 1 2809 7 is_stmt 1
	.loc 1 2809 8 is_stmt 0
	subs	r3, r1, #1
.LVL84:
	.loc 1 2810 7 is_stmt 1
	.loc 1 2811 7
	.loc 1 2811 63 is_stmt 0
	ldrb	r2, [sp, r3]	@ zero_extendqisi2
	.loc 1 2811 14
	lsls	r2, r2, #8
	and	r2, r2, #3840
	.loc 1 2811 123
	add	r3, r1, #39
.LVL85:
	add	r3, sp, r3, lsl #2
	.loc 1 2811 127
	ldrb	r3, [r3, #4]	@ zero_extendqisi2
	.loc 1 2811 11
	orrs	r2, r2, r3
.LVL86:
	.loc 1 2813 7 is_stmt 1
	.loc 1 2813 8 is_stmt 0
	subs	r1, r1, #2
.LVL87:
	.loc 1 2814 7 is_stmt 1
	.loc 1 2814 63 is_stmt 0
	ldrb	r3, [sp, r1]	@ zero_extendqisi2
	.loc 1 2814 14
	lsls	r3, r3, #8
	and	r3, r3, #3840
	.loc 1 2814 123
	add	ip, r1, #40
	add	ip, sp, ip, lsl #2
	.loc 1 2814 127
	ldrb	ip, [ip, #4]	@ zero_extendqisi2
	.loc 1 2814 11
	orr	r3, r3, ip
.LVL88:
	.loc 1 2817 7 is_stmt 1
	.loc 1 2817 22 is_stmt 0
	orr	r3, r3, r2, lsl #16
.LVL89:
	.loc 1 2817 16
	str	r3, [r4, #-4]!
.LVL90:
.L59:
	.loc 1 2807 14 is_stmt 1
	cmp	r1, #1
	bhi	.L60
	b	.L56
.LVL91:
.L63:
	.loc 1 2822 10 is_stmt 0
	movs	r0, #0
.LVL92:
	b	.L56
.LVL93:
.L67:
	.loc 1 2823 1
	bl	__stack_chk_fail
.LVL94:
.L69:
	.align	2
.L68:
	.word	__stack_chk_guard
	.word	265359312
	.cfi_endproc
.LFE368:
	.size	JPEG_Set_HuffAC_Mem, .-JPEG_Set_HuffAC_Mem
	.section	.text.JPEG_Set_Huff_DHTMem,"ax",%progbits
	.align	1
	.syntax unified
	.thumb
	.thumb_func
	.type	JPEG_Set_Huff_DHTMem, %function
JPEG_Set_Huff_DHTMem:
.LFB370:
	.loc 1 2876 1 is_stmt 1
	.cfi_startproc
	@ args = 0, pretend = 0, frame = 0
	@ frame_needed = 0, uses_anonymous_args = 0
.LVL95:
	push	{lr}
	.cfi_def_cfa_offset 4
	.cfi_offset 14, -4
	.loc 1 2877 3
.LVL96:
	.loc 1 2878 3
	.loc 1 2879 3
	.loc 1 2880 3
	.loc 1 2881 3
	.loc 1 2882 3
	.loc 1 2886 3
	.loc 1 2886 19 is_stmt 0
	ldr	r3, [r0]
	.loc 1 2886 11
	add	ip, r3, #876
.LVL97:
	.loc 1 2887 3 is_stmt 1
	.loc 1 2888 3
	.loc 1 2887 9 is_stmt 0
	movs	r2, #16
	.loc 1 2888 9
	b	.L71
.LVL98:
.L72:
	.loc 1 2891 5 is_stmt 1
	.loc 1 2891 53 is_stmt 0
	subs	r3, r2, #1
	.loc 1 2891 46
	ldr	r1, .L88
	ldrb	lr, [r1, r3]	@ zero_extendqisi2
	.loc 1 2892 53
	subs	r3, r2, #2
	.loc 1 2892 46
	ldrb	r3, [r1, r3]	@ zero_extendqisi2
	.loc 1 2892 70
	lsls	r3, r3, #16
	.loc 1 2891 77
	orr	r3, r3, lr, lsl #24
	.loc 1 2893 53
	sub	lr, r2, #3
	.loc 1 2893 46
	ldrb	lr, [r1, lr]	@ zero_extendqisi2
	.loc 1 2892 77
	orr	r3, r3, lr, lsl #8
	.loc 1 2894 52
	subs	r2, r2, #4
.LVL99:
	.loc 1 2894 45
	ldrb	r1, [r1, r2]	@ zero_extendqisi2
	.loc 1 2893 76
	orrs	r3, r3, r1
	.loc 1 2891 14
	str	r3, [ip], #-4
.LVL100:
	.loc 1 2895 5 is_stmt 1
	.loc 1 2896 5
.L71:
	.loc 1 2888 16
	cmp	r2, #3
	bhi	.L72
	.loc 1 2901 3
	.loc 1 2901 19 is_stmt 0
	ldr	r3, [r0]
	.loc 1 2901 11
	add	lr, r3, #888
.LVL101:
	.loc 1 2902 3 is_stmt 1
	.loc 1 2903 3
	.loc 1 2902 9 is_stmt 0
	movs	r2, #12
	.loc 1 2903 9
	b	.L73
.LVL102:
.L74:
	.loc 1 2905 5 is_stmt 1
	.loc 1 2905 56 is_stmt 0
	subs	r3, r2, #1
	.loc 1 2905 49
	ldr	r1, .L88
	add	r3, r3, r1
	ldrb	ip, [r3, #16]	@ zero_extendqisi2
	.loc 1 2906 56
	subs	r3, r2, #2
	.loc 1 2906 49
	add	r3, r3, r1
	ldrb	r3, [r3, #16]	@ zero_extendqisi2
	.loc 1 2906 73
	lsls	r3, r3, #16
	.loc 1 2905 80
	orr	r3, r3, ip, lsl #24
	.loc 1 2907 56
	sub	ip, r2, #3
	.loc 1 2907 49
	add	ip, ip, r1
	ldrb	ip, [ip, #16]	@ zero_extendqisi2
	.loc 1 2906 80
	orr	r3, r3, ip, lsl #8
	.loc 1 2908 55
	subs	r2, r2, #4
.LVL103:
	.loc 1 2908 48
	add	r1, r1, r2
	ldrb	r1, [r1, #16]	@ zero_extendqisi2
	.loc 1 2907 79
	orrs	r3, r3, r1
	.loc 1 2905 14
	str	r3, [lr], #-4
.LVL104:
	.loc 1 2909 5 is_stmt 1
	.loc 1 2910 5
.L73:
	.loc 1 2903 16
	cmp	r2, #3
	bhi	.L74
	.loc 1 2915 3
	.loc 1 2915 19 is_stmt 0
	ldr	r3, [r0]
	.loc 1 2915 11
	add	ip, r3, #904
.LVL105:
	.loc 1 2916 3 is_stmt 1
	.loc 1 2917 3
	.loc 1 2916 9 is_stmt 0
	movs	r2, #16
	.loc 1 2917 9
	b	.L75
.LVL106:
.L76:
	.loc 1 2920 5 is_stmt 1
	.loc 1 2920 53 is_stmt 0
	subs	r3, r2, #1
	.loc 1 2920 46
	ldr	r1, .L88+4
	ldrb	lr, [r1, r3]	@ zero_extendqisi2
	.loc 1 2921 53
	subs	r3, r2, #2
	.loc 1 2921 46
	ldrb	r3, [r1, r3]	@ zero_extendqisi2
	.loc 1 2921 70
	lsls	r3, r3, #16
	.loc 1 2920 77
	orr	r3, r3, lr, lsl #24
	.loc 1 2922 53
	sub	lr, r2, #3
	.loc 1 2922 46
	ldrb	lr, [r1, lr]	@ zero_extendqisi2
	.loc 1 2921 77
	orr	r3, r3, lr, lsl #8
	.loc 1 2923 52
	subs	r2, r2, #4
.LVL107:
	.loc 1 2923 45
	ldrb	r1, [r1, r2]	@ zero_extendqisi2
	.loc 1 2922 76
	orrs	r3, r3, r1
	.loc 1 2920 14
	str	r3, [ip], #-4
.LVL108:
	.loc 1 2924 5 is_stmt 1
	.loc 1 2925 5
.L75:
	.loc 1 2917 16
	cmp	r2, #3
	bhi	.L76
	.loc 1 2931 3
	.loc 1 2931 19 is_stmt 0
	ldr	r3, [r0]
.LVL109:
	.loc 1 2932 3 is_stmt 1
	.loc 1 2932 11 is_stmt 0
	ldr	r2, [r3, #1068]
.LVL110:
	.loc 1 2932 9
	ldr	r1, .L88+8
	ands	r1, r1, r2
.LVL111:
	.loc 1 2933 3 is_stmt 1
	.loc 1 2933 9 is_stmt 0
	movw	r2, #64249
	orrs	r2, r2, r1
.LVL112:
	.loc 1 2934 3 is_stmt 1
	.loc 1 2934 12 is_stmt 0
	str	r2, [r3, #1068]
	.loc 1 2937 3 is_stmt 1
	.loc 1 2937 10 is_stmt 0
	add	lr, r3, #1064
.LVL113:
	.loc 1 2938 3 is_stmt 1
	.loc 1 2939 3
	.loc 1 2938 9 is_stmt 0
	movs	r2, #160
.LVL114:
	.loc 1 2939 9
	b	.L77
.LVL115:
.L78:
	.loc 1 2941 5 is_stmt 1
	.loc 1 2941 56 is_stmt 0
	subs	r3, r2, #1
	.loc 1 2941 49
	ldr	r1, .L88+4
	add	r3, r3, r1
	ldrb	ip, [r3, #16]	@ zero_extendqisi2
	.loc 1 2942 56
	subs	r3, r2, #2
	.loc 1 2942 49
	add	r3, r3, r1
	ldrb	r3, [r3, #16]	@ zero_extendqisi2
	.loc 1 2942 73
	lsls	r3, r3, #16
	.loc 1 2941 80
	orr	r3, r3, ip, lsl #24
	.loc 1 2943 56
	sub	ip, r2, #3
	.loc 1 2943 49
	add	ip, ip, r1
	ldrb	ip, [ip, #16]	@ zero_extendqisi2
	.loc 1 2942 80
	orr	r3, r3, ip, lsl #8
	.loc 1 2944 55
	subs	r2, r2, #4
.LVL116:
	.loc 1 2944 48
	add	r1, r1, r2
	ldrb	r1, [r1, #16]	@ zero_extendqisi2
	.loc 1 2943 79
	orrs	r3, r3, r1
	.loc 1 2941 14
	str	r3, [lr], #-4
.LVL117:
	.loc 1 2945 5 is_stmt 1
	.loc 1 2946 5
.L77:
	.loc 1 2939 16
	cmp	r2, #3
	bhi	.L78
	.loc 1 2952 3
	.loc 1 2952 19 is_stmt 0
	ldr	r2, [r0]
.LVL118:
	.loc 1 2953 3 is_stmt 1
	.loc 1 2953 11 is_stmt 0
	ldr	r3, [r2, #1068]
	.loc 1 2953 9
	uxth	r3, r3
.LVL119:
	.loc 1 2954 3 is_stmt 1
	.loc 1 2954 17 is_stmt 0
	orr	r3, r3, #50331648
.LVL120:
	.loc 1 2955 3 is_stmt 1
	.loc 1 2955 12 is_stmt 0
	str	r3, [r2, #1068]
	.loc 1 2958 3 is_stmt 1
	.loc 1 2958 19 is_stmt 0
	ldr	r3, [r0]
.LVL121:
	.loc 1 2959 3 is_stmt 1
	.loc 1 2959 11 is_stmt 0
	ldr	r1, [r3, #1084]
	.loc 1 2959 9
	ldr	r2, .L88+8
.LVL122:
	ands	r2, r2, r1
.LVL123:
	.loc 1 2960 3 is_stmt 1
	.loc 1 2961 3
	.loc 1 2961 12 is_stmt 0
	str	r2, [r3, #1084]
	.loc 1 2964 3 is_stmt 1
	.loc 1 2964 10 is_stmt 0
	add	ip, r3, #1080
.LVL124:
	.loc 1 2965 3 is_stmt 1
	.loc 1 2966 3
	.loc 1 2965 9 is_stmt 0
	movs	r2, #12
.LVL125:
	.loc 1 2966 9
	b	.L79
.LVL126:
.L80:
	.loc 1 2969 5 is_stmt 1
	.loc 1 2969 53 is_stmt 0
	adds	r3, r2, #1
	.loc 1 2969 46
	ldr	r1, .L88+12
	ldrb	lr, [r1, r3]	@ zero_extendqisi2
	.loc 1 2970 46
	ldrb	r3, [r1, r2]	@ zero_extendqisi2
	.loc 1 2970 64
	lsls	r3, r3, #16
	.loc 1 2969 77
	orr	r3, r3, lr, lsl #24
	.loc 1 2971 53
	add	lr, r2, #-1
	.loc 1 2971 46
	ldrb	lr, [r1, lr]	@ zero_extendqisi2
	.loc 1 2970 71
	orr	r3, r3, lr, lsl #8
	.loc 1 2972 52
	sub	lr, r2, #2
	.loc 1 2972 45
	ldrb	r1, [r1, lr]	@ zero_extendqisi2
	.loc 1 2971 76
	orrs	r3, r3, r1
	.loc 1 2969 14
	str	r3, [ip], #-4
.LVL127:
	.loc 1 2973 5 is_stmt 1
	.loc 1 2974 5
	.loc 1 2974 11 is_stmt 0
	subs	r2, r2, #4
.LVL128:
.L79:
	.loc 1 2966 16 is_stmt 1
	cmp	r2, #3
	bhi	.L80
	.loc 1 2980 3
	.loc 1 2980 19 is_stmt 0
	ldr	r2, [r0]
.LVL129:
	.loc 1 2981 3 is_stmt 1
	.loc 1 2981 11 is_stmt 0
	ldr	r3, [r2, #1084]
	.loc 1 2981 9
	uxth	r3, r3
.LVL130:
	.loc 1 2982 3 is_stmt 1
	.loc 1 2982 17 is_stmt 0
	orr	r3, r3, #16777216
.LVL131:
	.loc 1 2984 3 is_stmt 1
	.loc 1 2984 12 is_stmt 0
	str	r3, [r2, #1084]
	.loc 1 2987 3 is_stmt 1
	.loc 1 2987 19 is_stmt 0
	ldr	r3, [r0]
.LVL132:
	.loc 1 2988 3 is_stmt 1
	.loc 1 2988 11 is_stmt 0
	ldr	r2, [r3, #1096]
.LVL133:
	.loc 1 2988 9
	ldr	r1, .L88+8
	ands	r1, r1, r2
.LVL134:
	.loc 1 2989 3 is_stmt 1
	.loc 1 2989 9 is_stmt 0
	movw	r2, #2826
	orrs	r2, r2, r1
.LVL135:
	.loc 1 2990 3 is_stmt 1
	.loc 1 2990 12 is_stmt 0
	str	r2, [r3, #1096]
	.loc 1 2993 3 is_stmt 1
	.loc 1 2993 10 is_stmt 0
	addw	ip, r3, #1092
.LVL136:
	.loc 1 2994 3 is_stmt 1
	.loc 1 2995 3
	.loc 1 2994 9 is_stmt 0
	movs	r2, #8
.LVL137:
	.loc 1 2995 9
	b	.L81
.LVL138:
.L82:
	.loc 1 2997 5 is_stmt 1
	.loc 1 2997 56 is_stmt 0
	adds	r3, r2, #1
	.loc 1 2997 49
	ldr	r1, .L88+12
	add	r3, r3, r1
	ldrb	lr, [r3, #16]	@ zero_extendqisi2
	.loc 1 2998 49
	adds	r3, r1, r2
	ldrb	r3, [r3, #16]	@ zero_extendqisi2
	.loc 1 2998 67
	lsls	r3, r3, #16
	.loc 1 2997 80
	orr	r3, r3, lr, lsl #24
	.loc 1 2999 56
	add	lr, r2, #-1
	.loc 1 2999 49
	add	lr, lr, r1
	ldrb	lr, [lr, #16]	@ zero_extendqisi2
	.loc 1 2998 74
	orr	r3, r3, lr, lsl #8
	.loc 1 3000 55
	sub	lr, r2, #2
	.loc 1 3000 48
	add	r1, r1, lr
	ldrb	r1, [r1, #16]	@ zero_extendqisi2
	.loc 1 2999 79
	orrs	r3, r3, r1
	.loc 1 2997 14
	str	r3, [ip], #-4
.LVL139:
	.loc 1 3001 5 is_stmt 1
	.loc 1 3002 5
	.loc 1 3002 11 is_stmt 0
	subs	r2, r2, #4
.LVL140:
.L81:
	.loc 1 2995 16 is_stmt 1
	cmp	r2, #3
	bhi	.L82
	.loc 1 3008 3
	.loc 1 3008 19 is_stmt 0
	ldr	r2, [r0]
.LVL141:
	.loc 1 3009 3 is_stmt 1
	.loc 1 3009 11 is_stmt 0
	ldr	r3, [r2, #1096]
	.loc 1 3009 9
	uxth	r3, r3
.LVL142:
	.loc 1 3010 3 is_stmt 1
	.loc 1 3010 17 is_stmt 0
	orr	r3, r3, #33554432
.LVL143:
	.loc 1 3011 3 is_stmt 1
	.loc 1 3011 12 is_stmt 0
	str	r3, [r2, #1096]
	.loc 1 3014 3 is_stmt 1
	.loc 1 3014 19 is_stmt 0
	ldr	r3, [r0]
.LVL144:
	.loc 1 3015 3 is_stmt 1
	.loc 1 3015 11 is_stmt 0
	ldr	r2, [r3, #1112]
.LVL145:
	.loc 1 3015 9
	ldr	r1, .L88+8
	ands	r1, r1, r2
.LVL146:
	.loc 1 3016 3 is_stmt 1
	.loc 1 3016 9 is_stmt 0
	movw	r2, #30466
	orrs	r2, r2, r1
.LVL147:
	.loc 1 3017 3 is_stmt 1
	.loc 1 3017 12 is_stmt 0
	str	r2, [r3, #1112]
	.loc 1 3020 3 is_stmt 1
	.loc 1 3020 10 is_stmt 0
	addw	ip, r3, #1108
.LVL148:
	.loc 1 3021 3 is_stmt 1
	.loc 1 3022 3
	.loc 1 3021 9 is_stmt 0
	movs	r2, #12
.LVL149:
	.loc 1 3022 9
	b	.L83
.LVL150:
.L84:
	.loc 1 3025 5 is_stmt 1
	.loc 1 3025 53 is_stmt 0
	adds	r3, r2, #1
	.loc 1 3025 46
	ldr	r1, .L88+16
	ldrb	lr, [r1, r3]	@ zero_extendqisi2
	.loc 1 3026 46
	ldrb	r3, [r1, r2]	@ zero_extendqisi2
	.loc 1 3026 64
	lsls	r3, r3, #16
	.loc 1 3025 77
	orr	r3, r3, lr, lsl #24
	.loc 1 3027 53
	add	lr, r2, #-1
	.loc 1 3027 46
	ldrb	lr, [r1, lr]	@ zero_extendqisi2
	.loc 1 3026 71
	orr	r3, r3, lr, lsl #8
	.loc 1 3028 52
	sub	lr, r2, #2
	.loc 1 3028 45
	ldrb	r1, [r1, lr]	@ zero_extendqisi2
	.loc 1 3027 76
	orrs	r3, r3, r1
	.loc 1 3025 14
	str	r3, [ip], #-4
.LVL151:
	.loc 1 3029 5 is_stmt 1
	.loc 1 3030 5
	.loc 1 3030 11 is_stmt 0
	subs	r2, r2, #4
.LVL152:
.L83:
	.loc 1 3022 16 is_stmt 1
	cmp	r2, #3
	bhi	.L84
	.loc 1 3036 3
	.loc 1 3036 19 is_stmt 0
	ldr	r2, [r0]
.LVL153:
	.loc 1 3037 3 is_stmt 1
	.loc 1 3037 11 is_stmt 0
	ldr	r3, [r2, #1112]
	.loc 1 3037 9
	uxth	r3, r3
.LVL154:
	.loc 1 3038 3 is_stmt 1
	.loc 1 3038 17 is_stmt 0
	orr	r3, r3, #16777216
.LVL155:
	.loc 1 3040 3 is_stmt 1
	.loc 1 3040 12 is_stmt 0
	str	r3, [r2, #1112]
	.loc 1 3043 3 is_stmt 1
	.loc 1 3043 19 is_stmt 0
	ldr	r3, [r0]
.LVL156:
	.loc 1 3043 11
	add	ip, r3, #1272
.LVL157:
	.loc 1 3044 3 is_stmt 1
	.loc 1 3045 3
	.loc 1 3044 9 is_stmt 0
	movs	r2, #160
.LVL158:
	.loc 1 3045 9
	b	.L85
.LVL159:
.L86:
	.loc 1 3047 5 is_stmt 1
	.loc 1 3047 56 is_stmt 0
	adds	r3, r2, #1
	.loc 1 3047 49
	ldr	r1, .L88+16
	add	r3, r3, r1
	ldrb	r0, [r3, #16]	@ zero_extendqisi2
	.loc 1 3048 49
	adds	r3, r1, r2
	ldrb	r3, [r3, #16]	@ zero_extendqisi2
	.loc 1 3048 67
	lsls	r3, r3, #16
	.loc 1 3047 80
	orr	r3, r3, r0, lsl #24
	.loc 1 3049 56
	subs	r0, r2, #1
	.loc 1 3049 49
	add	r0, r0, r1
	ldrb	r0, [r0, #16]	@ zero_extendqisi2
	.loc 1 3048 74
	orr	r3, r3, r0, lsl #8
	.loc 1 3050 55
	subs	r0, r2, #2
	.loc 1 3050 48
	add	r1, r1, r0
	ldrb	r1, [r1, #16]	@ zero_extendqisi2
	.loc 1 3049 79
	orrs	r3, r3, r1
	.loc 1 3047 14
	str	r3, [ip], #-4
.LVL160:
	.loc 1 3051 5 is_stmt 1
	.loc 1 3052 5
	.loc 1 3052 11 is_stmt 0
	subs	r2, r2, #4
.LVL161:
.L85:
	.loc 1 3045 16 is_stmt 1
	cmp	r2, #3
	bhi	.L86
	.loc 1 3055 1 is_stmt 0
	ldr	pc, [sp], #4
.L89:
	.align	2
.L88:
	.word	JPEG_DCLUM_HuffTable
	.word	JPEG_ACLUM_HuffTable
	.word	-65536
	.word	JPEG_DCCHROM_HuffTable
	.word	JPEG_ACCHROM_HuffTable
	.cfi_endproc
.LFE370:
	.size	JPEG_Set_Huff_DHTMem, .-JPEG_Set_Huff_DHTMem
	.section	.text.JPEG_Set_HuffEnc_Mem,"ax",%progbits
	.align	1
	.syntax unified
	.thumb
	.thumb_func
	.type	JPEG_Set_HuffEnc_Mem, %function
JPEG_Set_HuffEnc_Mem:
.LFB369:
	.loc 1 2833 1 is_stmt 1
	.cfi_startproc
	@ args = 0, pretend = 0, frame = 0
	@ frame_needed = 0, uses_anonymous_args = 0
.LVL162:
	push	{r4, lr}
	.cfi_def_cfa_offset 8
	.cfi_offset 4, -8
	.cfi_offset 14, -4
	mov	r4, r0
	.loc 1 2834 3
	.loc 1 2836 3
	bl	JPEG_Set_Huff_DHTMem
.LVL163:
	.loc 1 2837 3
	.loc 1 2838 37 is_stmt 0
	ldr	r2, [r4]
	.loc 1 2837 11
	add	r2, r2, #1280
	ldr	r1, .L94
	mov	r0, r4
	bl	JPEG_Set_HuffAC_Mem
.LVL164:
	.loc 1 2839 3 is_stmt 1
	.loc 1 2839 6 is_stmt 0
	mov	r3, r0
	cbz	r0, .L93
.LVL165:
.L91:
	.loc 1 2866 1
	mov	r0, r3
	pop	{r4, pc}
.LVL166:
.L93:
	.loc 1 2844 3 is_stmt 1
	.loc 1 2845 37 is_stmt 0
	ldr	r2, [r4]
	.loc 1 2844 11
	add	r2, r2, #1632
	ldr	r1, .L94+4
	mov	r0, r4
.LVL167:
	bl	JPEG_Set_HuffAC_Mem
.LVL168:
	.loc 1 2846 3 is_stmt 1
	.loc 1 2846 6 is_stmt 0
	mov	r3, r0
	cmp	r0, #0
	bne	.L91
	.loc 1 2851 3 is_stmt 1
	.loc 1 2852 36 is_stmt 0
	ldr	r2, [r4]
	.loc 1 2851 11
	add	r2, r2, #1984
	ldr	r1, .L94+8
	mov	r0, r4
.LVL169:
	bl	JPEG_Set_HuffDC_Mem
.LVL170:
	.loc 1 2853 3 is_stmt 1
	.loc 1 2853 6 is_stmt 0
	mov	r3, r0
	cmp	r0, #0
	bne	.L91
	.loc 1 2858 3 is_stmt 1
	.loc 1 2859 36 is_stmt 0
	ldr	r2, [r4]
	.loc 1 2858 11
	add	r2, r2, #2016
	ldr	r1, .L94+12
	mov	r0, r4
.LVL171:
	bl	JPEG_Set_HuffDC_Mem
.LVL172:
	mov	r3, r0
.LVL173:
	.loc 1 2860 3 is_stmt 1
	b	.L91
.L95:
	.align	2
.L94:
	.word	JPEG_ACLUM_HuffTable
	.word	JPEG_ACCHROM_HuffTable
	.word	JPEG_DCLUM_HuffTable
	.word	JPEG_DCCHROM_HuffTable
	.cfi_endproc
.LFE369:
	.size	JPEG_Set_HuffEnc_Mem, .-JPEG_Set_HuffEnc_Mem
	.section	.text.JPEG_Set_Quantization_Mem,"ax",%progbits
	.align	1
	.syntax unified
	.thumb
	.thumb_func
	.type	JPEG_Set_Quantization_Mem, %function
JPEG_Set_Quantization_Mem:
.LFB371:
	.loc 1 3068 1
	.cfi_startproc
	@ args = 0, pretend = 0, frame = 0
	@ frame_needed = 0, uses_anonymous_args = 0
.LVL174:
	push	{r4, r5, r6, lr}
	.cfi_def_cfa_offset 16
	.cfi_offset 4, -16
	.cfi_offset 5, -12
	.cfi_offset 6, -8
	.cfi_offset 14, -4
	mov	r5, r2
	.loc 1 3069 3
	.loc 1 3070 3
	.loc 1 3071 3
	.loc 1 3072 3
	.loc 1 3073 3
	.loc 1 3074 3
	.loc 1 3076 3
.LVL175:
	.loc 1 3078 3
	.loc 1 3078 19 is_stmt 0
	ldr	r3, [r0, #20]
	.loc 1 3078 42
	sub	r2, r3, #50
.LVL176:
	.loc 1 3078 6
	cmp	r2, #50
	bhi	.L97
	.loc 1 3080 5 is_stmt 1
	.loc 1 3080 25 is_stmt 0
	rsb	r3, r3, #100
	.loc 1 3080 17
	lsls	r4, r3, #1
.LVL177:
.L98:
	.loc 1 3092 3 is_stmt 1
	.loc 1 3093 3
	.loc 1 3092 5 is_stmt 0
	mov	lr, #0
	.loc 1 3093 9
	b	.L100
.LVL178:
.L97:
	.loc 1 3082 8 is_stmt 1
	.loc 1 3082 11 is_stmt 0
	cbz	r3, .L104
	.loc 1 3084 5 is_stmt 1
	.loc 1 3084 17 is_stmt 0
	movw	r4, #5000
	udiv	r4, r4, r3
.LVL179:
	b	.L98
.LVL180:
.L105:
	.loc 1 3103 18
	movs	r3, #1
.LVL181:
.L101:
	.loc 1 3112 7 is_stmt 1 discriminator 2
	.loc 1 3114 7 discriminator 2
	.loc 1 3114 30 is_stmt 0 discriminator 2
	uxtb	r3, r3
.LVL182:
	.loc 1 3114 48 discriminator 2
	lsl	r0, ip, #3
	.loc 1 3114 40 discriminator 2
	lsls	r3, r3, r0
	.loc 1 3114 16 discriminator 2
	orrs	r2, r2, r3
.LVL183:
	.loc 1 3096 27 is_stmt 1 discriminator 2
	add	ip, ip, #1
.LVL184:
.L103:
	.loc 1 3096 19 discriminator 1
	cmp	ip, #3
	bhi	.L109
	.loc 1 3099 7
	.loc 1 3099 59 is_stmt 0
	add	r3, lr, ip
	.loc 1 3099 56
	ldr	r0, .L111
	ldrb	r3, [r0, r3]	@ zero_extendqisi2
	.loc 1 3099 38
	ldrb	r0, [r1, r3]	@ zero_extendqisi2
	.loc 1 3099 66
	mul	r0, r4, r0
	.loc 1 3099 81
	adds	r0, r0, #50
	.loc 1 3099 16
	ldr	r3, .L111+4
	umull	r6, r3, r3, r0
	lsrs	r3, r3, #5
.LVL185:
	.loc 1 3101 7 is_stmt 1
	.loc 1 3101 10 is_stmt 0
	cmp	r0, #99
	bls	.L105
	.loc 1 3105 12 is_stmt 1
	.loc 1 3105 15 is_stmt 0
	cmp	r0, #25600
	bcc	.L101
	.loc 1 3107 18
	movs	r3, #255
.LVL186:
	b	.L101
.LVL187:
.L109:
	.loc 1 3117 5 is_stmt 1
	.loc 1 3117 7 is_stmt 0
	add	lr, lr, #4
.LVL188:
	.loc 1 3118 5 is_stmt 1
	.loc 1 3118 19 is_stmt 0
	str	r2, [r5], #4
.LVL189:
	.loc 1 3119 5 is_stmt 1
.L100:
	.loc 1 3093 12
	cmp	lr, #60
	bhi	.L110
	.loc 1 3095 14 is_stmt 0
	movs	r2, #0
	.loc 1 3096 12
	mov	ip, r2
	b	.L103
.L110:
	.loc 1 3123 10
	movs	r0, #0
.LVL190:
.L96:
	.loc 1 3124 1
	pop	{r4, r5, r6, pc}
.LVL191:
.L104:
	.loc 1 3088 12
	movs	r0, #1
.LVL192:
	b	.L96
.L112:
	.align	2
.L111:
	.word	JPEG_ZIGZAG_ORDER
	.word	1374389535
	.cfi_endproc
.LFE371:
	.size	JPEG_Set_Quantization_Mem, .-JPEG_Set_Quantization_Mem
	.section	.text.JPEG_SetColorYCBCR,"ax",%progbits
	.align	1
	.syntax unified
	.thumb
	.thumb_func
	.type	JPEG_SetColorYCBCR, %function
JPEG_SetColorYCBCR:
.LFB372:
	.loc 1 3133 1 is_stmt 1
	.cfi_startproc
	@ args = 0, pretend = 0, frame = 0
	@ frame_needed = 0, uses_anonymous_args = 0
.LVL193:
	push	{r4, lr}
	.cfi_def_cfa_offset 8
	.cfi_offset 4, -8
	.cfi_offset 14, -4
	.loc 1 3134 3
	.loc 1 3135 3
	.loc 1 3136 3
	.loc 1 3139 3
	.loc 1 3139 8 is_stmt 0
	ldr	r2, [r0]
	.loc 1 3139 18
	ldr	r3, [r2, #4]
	.loc 1 3139 27
	bic	r3, r3, #3
	str	r3, [r2, #4]
	.loc 1 3140 3 is_stmt 1
	.loc 1 3140 8 is_stmt 0
	ldr	r2, [r0]
	.loc 1 3140 18
	ldr	r3, [r2, #4]
	.loc 1 3140 27
	orr	r3, r3, #2
	str	r3, [r2, #4]
	.loc 1 3143 3 is_stmt 1
	.loc 1 3143 18 is_stmt 0
	ldr	r3, [r0, #8]
	.loc 1 3143 6
	cmp	r3, #1
	beq	.L115
	.loc 1 3150 8 is_stmt 1
	.loc 1 3150 11 is_stmt 0
	cmp	r3, #2
	beq	.L118
	.loc 1 3162 14
	movs	r1, #0
	.loc 1 3160 16
	mov	lr, #256
	.loc 1 3159 16
	mov	ip, #4096
.L114:
.LVL194:
	.loc 1 3165 3 is_stmt 1
	.loc 1 3165 8 is_stmt 0
	ldr	r2, [r0]
	.loc 1 3165 18
	ldr	r3, [r2, #4]
	.loc 1 3165 27
	bic	r3, r3, #195
	str	r3, [r2, #4]
	.loc 1 3166 3 is_stmt 1
	.loc 1 3166 8 is_stmt 0
	ldr	r2, [r0]
	.loc 1 3166 18
	ldr	r3, [r2, #4]
	.loc 1 3166 27
	orr	r3, r3, #130
	str	r3, [r2, #4]
	.loc 1 3169 3 is_stmt 1
	.loc 1 3169 8 is_stmt 0
	ldr	r2, [r0]
	.loc 1 3169 27
	movs	r3, #0
	str	r3, [r2, #16]
	.loc 1 3171 3 is_stmt 1
	.loc 1 3171 8 is_stmt 0
	ldr	r4, [r0]
	.loc 1 3171 18
	ldr	r2, [r4, #16]
	.loc 1 3171 42
	orr	ip, ip, lr
.LVL195:
	.loc 1 3171 55
	orr	r1, r1, ip
.LVL196:
	.loc 1 3171 27
	orrs	r2, r2, r1
	str	r2, [r4, #16]
	.loc 1 3174 3 is_stmt 1
	.loc 1 3174 8 is_stmt 0
	ldr	r2, [r0]
	.loc 1 3174 27
	str	r3, [r2, #20]
	.loc 1 3176 3 is_stmt 1
	.loc 1 3176 8 is_stmt 0
	ldr	r4, [r0]
	.loc 1 3176 18
	ldr	r2, [r4, #20]
	.loc 1 3176 27
	movw	r1, #4359
	orrs	r2, r2, r1
	str	r2, [r4, #20]
	.loc 1 3179 3 is_stmt 1
	.loc 1 3179 8 is_stmt 0
	ldr	r2, [r0]
	.loc 1 3179 27
	str	r3, [r2, #24]
	.loc 1 3183 3 is_stmt 1
	.loc 1 3183 8 is_stmt 0
	ldr	r2, [r0]
	.loc 1 3183 18
	ldr	r3, [r2, #24]
	.loc 1 3183 27
	orrs	r3, r3, r1
	str	r3, [r2, #24]
	.loc 1 3185 1
	pop	{r4, pc}
.LVL197:
.L118:
	.loc 1 3155 14
	movs	r1, #16
	.loc 1 3153 16
	mov	lr, #256
	.loc 1 3152 16
	mov	ip, #8192
	b	.L114
.L115:
	.loc 1 3148 14
	movs	r1, #48
	.loc 1 3146 16
	mov	lr, #512
	.loc 1 3145 16
	mov	ip, #8192
	b	.L114
	.cfi_endproc
.LFE372:
	.size	JPEG_SetColorYCBCR, .-JPEG_SetColorYCBCR
	.section	.text.JPEG_SetColorGrayScale,"ax",%progbits
	.align	1
	.syntax unified
	.thumb
	.thumb_func
	.type	JPEG_SetColorGrayScale, %function
JPEG_SetColorGrayScale:
.LFB373:
	.loc 1 3194 1 is_stmt 1
	.cfi_startproc
	@ args = 0, pretend = 0, frame = 0
	@ frame_needed = 0, uses_anonymous_args = 0
	@ link register save eliminated.
.LVL198:
	.loc 1 3196 3
	.loc 1 3196 8 is_stmt 0
	ldr	r2, [r0]
	.loc 1 3196 18
	ldr	r3, [r2, #4]
	.loc 1 3196 27
	bic	r3, r3, #195
	str	r3, [r2, #4]
	.loc 1 3202 3 is_stmt 1
	.loc 1 3202 8 is_stmt 0
	ldr	r3, [r0]
	.loc 1 3202 27
	movs	r2, #0
	str	r2, [r3, #16]
	.loc 1 3204 3 is_stmt 1
	.loc 1 3204 8 is_stmt 0
	ldr	r2, [r0]
	.loc 1 3204 18
	ldr	r3, [r2, #16]
	.loc 1 3204 27
	orr	r3, r3, #4352
	str	r3, [r2, #16]
	.loc 1 3205 1
	bx	lr
	.cfi_endproc
.LFE373:
	.size	JPEG_SetColorGrayScale, .-JPEG_SetColorGrayScale
	.section	.text.JPEG_SetColorCMYK,"ax",%progbits
	.align	1
	.syntax unified
	.thumb
	.thumb_func
	.type	JPEG_SetColorCMYK, %function
JPEG_SetColorCMYK:
.LFB374:
	.loc 1 3214 1 is_stmt 1
	.cfi_startproc
	@ args = 0, pretend = 0, frame = 0
	@ frame_needed = 0, uses_anonymous_args = 0
.LVL199:
	push	{r4, lr}
	.cfi_def_cfa_offset 8
	.cfi_offset 4, -8
	.cfi_offset 14, -4
	.loc 1 3215 3
	.loc 1 3216 3
	.loc 1 3217 3
	.loc 1 3220 3
	.loc 1 3220 8 is_stmt 0
	ldr	r2, [r0]
	.loc 1 3220 18
	ldr	r3, [r2, #4]
	.loc 1 3220 27
	orr	r3, r3, #195
	str	r3, [r2, #4]
	.loc 1 3223 3 is_stmt 1
	.loc 1 3223 18 is_stmt 0
	ldr	r3, [r0, #8]
	.loc 1 3223 6
	cmp	r3, #1
	beq	.L122
	.loc 1 3230 8 is_stmt 1
	.loc 1 3230 11 is_stmt 0
	cmp	r3, #2
	beq	.L125
	.loc 1 3242 14
	movs	r1, #0
	.loc 1 3240 16
	mov	lr, #256
	.loc 1 3239 16
	mov	ip, #4096
.L121:
.LVL200:
	.loc 1 3246 3 is_stmt 1
	.loc 1 3246 8 is_stmt 0
	ldr	r2, [r0]
	.loc 1 3246 27
	movs	r3, #0
	str	r3, [r2, #16]
	.loc 1 3248 3 is_stmt 1
	.loc 1 3248 8 is_stmt 0
	ldr	r4, [r0]
	.loc 1 3248 18
	ldr	r2, [r4, #16]
	.loc 1 3248 42
	orr	ip, ip, lr
.LVL201:
	.loc 1 3248 55
	orr	r1, r1, ip
.LVL202:
	.loc 1 3248 27
	orrs	r2, r2, r1
	str	r2, [r4, #16]
	.loc 1 3251 3 is_stmt 1
	.loc 1 3251 8 is_stmt 0
	ldr	r2, [r0]
	.loc 1 3251 27
	str	r3, [r2, #20]
	.loc 1 3253 3 is_stmt 1
	.loc 1 3253 8 is_stmt 0
	ldr	r1, [r0]
	.loc 1 3253 18
	ldr	r2, [r1, #20]
	.loc 1 3253 27
	orr	r2, r2, #4352
	str	r2, [r1, #20]
	.loc 1 3256 3 is_stmt 1
	.loc 1 3256 8 is_stmt 0
	ldr	r2, [r0]
	.loc 1 3256 27
	str	r3, [r2, #24]
	.loc 1 3258 3 is_stmt 1
	.loc 1 3258 8 is_stmt 0
	ldr	r1, [r0]
	.loc 1 3258 18
	ldr	r2, [r1, #24]
	.loc 1 3258 27
	orr	r2, r2, #4352
	str	r2, [r1, #24]
	.loc 1 3261 3 is_stmt 1
	.loc 1 3261 8 is_stmt 0
	ldr	r2, [r0]
	.loc 1 3261 27
	str	r3, [r2, #28]
	.loc 1 3263 3 is_stmt 1
	.loc 1 3263 8 is_stmt 0
	ldr	r2, [r0]
	.loc 1 3263 18
	ldr	r3, [r2, #28]
	.loc 1 3263 27
	orr	r3, r3, #4352
	str	r3, [r2, #28]
	.loc 1 3264 1
	pop	{r4, pc}
.LVL203:
.L125:
	.loc 1 3235 14
	movs	r1, #16
	.loc 1 3233 16
	mov	lr, #256
	.loc 1 3232 16
	mov	ip, #8192
	b	.L121
.L122:
	.loc 1 3228 14
	movs	r1, #48
	.loc 1 3226 16
	mov	lr, #512
	.loc 1 3225 16
	mov	ip, #8192
	b	.L121
	.cfi_endproc
.LFE374:
	.size	JPEG_SetColorCMYK, .-JPEG_SetColorCMYK
	.section	.text.JPEG_Init_Process,"ax",%progbits
	.align	1
	.syntax unified
	.thumb
	.thumb_func
	.type	JPEG_Init_Process, %function
JPEG_Init_Process:
.LFB375:
	.loc 1 3273 1 is_stmt 1
	.cfi_startproc
	@ args = 0, pretend = 0, frame = 0
	@ frame_needed = 0, uses_anonymous_args = 0
	@ link register save eliminated.
.LVL204:
	.loc 1 3275 3
	.loc 1 3275 8 is_stmt 0
	ldr	r3, [r0, #84]
	.loc 1 3275 18
	bic	r3, r3, #12288
	str	r3, [r0, #84]
	.loc 1 3277 3 is_stmt 1
	.loc 1 3277 13 is_stmt 0
	ldr	r3, [r0, #84]
	.loc 1 3277 23
	and	r3, r3, #3
	.loc 1 3277 6
	cmp	r3, #2
	beq	.L131
	.loc 1 3285 5 is_stmt 1
	.loc 1 3285 10 is_stmt 0
	ldr	r2, [r0]
	.loc 1 3285 20
	ldr	r3, [r2, #4]
	.loc 1 3285 29
	bic	r3, r3, #8
	str	r3, [r2, #4]
.L128:
	.loc 1 3289 3 is_stmt 1
	.loc 1 3289 8 is_stmt 0
	ldr	r2, [r0]
	.loc 1 3289 18
	ldr	r3, [r2]
	.loc 1 3289 27
	bic	r3, r3, #1
	str	r3, [r2]
	.loc 1 3292 3 is_stmt 1
	.loc 1 3292 45 is_stmt 0
	ldr	r2, [r0]
	.loc 1 3292 55
	ldr	r3, [r2, #48]
	.loc 1 3292 97
	bic	r3, r3, #126
	.loc 1 3292 30
	str	r3, [r2, #48]
	.loc 1 3295 3 is_stmt 1
	.loc 1 3295 8 is_stmt 0
	ldr	r2, [r0]
	.loc 1 3295 18
	ldr	r3, [r2, #48]
	.loc 1 3295 23
	orr	r3, r3, #8192
	str	r3, [r2, #48]
	.loc 1 3296 3 is_stmt 1
	.loc 1 3296 8 is_stmt 0
	ldr	r2, [r0]
	.loc 1 3296 18
	ldr	r3, [r2, #48]
	.loc 1 3296 23
	orr	r3, r3, #16384
	str	r3, [r2, #48]
	.loc 1 3299 3 is_stmt 1
	.loc 1 3299 12 is_stmt 0
	ldr	r2, [r0]
	.loc 1 3299 22
	ldr	r3, [r2, #56]
	.loc 1 3299 28
	orr	r3, r3, #96
	str	r3, [r2, #56]
	.loc 1 3302 3 is_stmt 1
	.loc 1 3302 8 is_stmt 0
	ldr	r2, [r0]
	.loc 1 3302 18
	ldr	r3, [r2]
	.loc 1 3302 27
	orr	r3, r3, #1
	str	r3, [r2]
	.loc 1 3304 3 is_stmt 1
	.loc 1 3304 13 is_stmt 0
	ldr	r3, [r0, #84]
	.loc 1 3304 23
	and	r3, r3, #12
	.loc 1 3304 6
	cmp	r3, #8
	beq	.L132
	.loc 1 3309 8 is_stmt 1
	.loc 1 3309 18 is_stmt 0
	ldr	r3, [r0, #84]
	.loc 1 3309 28
	and	r3, r3, #12
	.loc 1 3309 11
	cmp	r3, #12
	beq	.L133
.L126:
	.loc 1 3319 1
	bx	lr
.L131:
	.loc 1 3280 5 is_stmt 1
	.loc 1 3280 10 is_stmt 0
	ldr	r2, [r0]
	.loc 1 3280 20
	ldr	r3, [r2, #4]
	.loc 1 3280 29
	orr	r3, r3, #8
	str	r3, [r2, #4]
	b	.L128
.L132:
	.loc 1 3307 5 is_stmt 1
	.loc 1 3307 13 is_stmt 0
	ldr	r2, [r0]
	.loc 1 3307 23
	ldr	r3, [r2, #48]
	.loc 1 3307 28
	orr	r3, r3, #110
	str	r3, [r2, #48]
	bx	lr
.L133:
	.loc 1 3312 5 is_stmt 1
	.loc 1 3312 13 is_stmt 0
	ldr	r2, [r0]
	.loc 1 3312 23
	ldr	r3, [r2, #48]
	.loc 1 3312 28
	orr	r3, r3, #96
	str	r3, [r2, #48]
	.loc 1 3318 3 is_stmt 1
	.loc 1 3319 1 is_stmt 0
	b	.L126
	.cfi_endproc
.LFE375:
	.size	JPEG_Init_Process, .-JPEG_Init_Process
	.section	.text.JPEG_GetQuality,"ax",%progbits
	.align	1
	.syntax unified
	.thumb
	.thumb_func
	.type	JPEG_GetQuality, %function
JPEG_GetQuality:
.LFB387:
	.loc 1 4146 1 is_stmt 1
	.cfi_startproc
	@ args = 0, pretend = 0, frame = 0
	@ frame_needed = 0, uses_anonymous_args = 0
.LVL205:
	push	{r4, r5, r6, lr}
	.cfi_def_cfa_offset 16
	.cfi_offset 4, -16
	.cfi_offset 5, -12
	.cfi_offset 6, -8
	.cfi_offset 14, -4
	mov	r5, r0
	.loc 1 4147 3
.LVL206:
	.loc 1 4148 3
	.loc 1 4149 3
	.loc 1 4149 42 is_stmt 0
	ldr	r4, [r0]
	.loc 1 4149 22
	adds	r4, r4, #80
.LVL207:
	.loc 1 4151 3 is_stmt 1
	.loc 1 4152 3
	.loc 1 4151 5 is_stmt 0
	mov	lr, #0
	.loc 1 4147 12
	mov	ip, lr
	.loc 1 4152 9
	b	.L135
.LVL208:
.L144:
	.loc 1 4161 9 is_stmt 1
	.loc 1 4161 17 is_stmt 0
	add	ip, ip, #100
.LVL209:
.L138:
	.loc 1 4155 27 is_stmt 1 discriminator 2
	adds	r2, r2, #1
.LVL210:
.L136:
	.loc 1 4155 19 discriminator 1
	cmp	r2, #3
	bhi	.L143
	.loc 1 4157 7
	.loc 1 4157 36 is_stmt 0
	lsls	r3, r2, #3
	.loc 1 4157 28
	lsr	r3, r0, r3
	.loc 1 4157 16
	uxtb	r3, r3
.LVL211:
	.loc 1 4158 7 is_stmt 1
	.loc 1 4158 10 is_stmt 0
	cmp	r3, #1
	beq	.L144
	.loc 1 4166 9 is_stmt 1
	.loc 1 4166 27 is_stmt 0
	movs	r1, #100
	mul	r3, r1, r3
.LVL212:
	.loc 1 4166 89
	add	r1, lr, r2
	.loc 1 4166 86
	ldr	r6, .L146
	ldrb	r1, [r6, r1]	@ zero_extendqisi2
	.loc 1 4166 68
	ldr	r6, [r5, #60]
	ldrb	r1, [r6, r1]	@ zero_extendqisi2
	.loc 1 4166 15
	udiv	r3, r3, r1
.LVL213:
	.loc 1 4168 9 is_stmt 1
	.loc 1 4168 12 is_stmt 0
	cmp	r3, #100
	bhi	.L139
	.loc 1 4170 11 is_stmt 1
	.loc 1 4170 29 is_stmt 0
	rsb	r3, r3, #200
.LVL214:
	.loc 1 4170 19
	add	ip, ip, r3, lsr #1
.LVL215:
	b	.L138
.LVL216:
.L139:
	.loc 1 4174 11 is_stmt 1
	.loc 1 4174 29 is_stmt 0
	movw	r1, #5000
	udiv	r3, r1, r3
.LVL217:
	.loc 1 4174 19
	add	ip, ip, r3
.LVL218:
	b	.L138
.LVL219:
.L143:
	.loc 1 4179 5 is_stmt 1
	.loc 1 4179 7 is_stmt 0
	add	lr, lr, #4
.LVL220:
	.loc 1 4180 5 is_stmt 1
	.loc 1 4180 18 is_stmt 0
	adds	r4, r4, #4
.LVL221:
.L135:
	.loc 1 4152 12 is_stmt 1
	cmp	lr, #60
	bhi	.L145
	.loc 1 4154 5
	.loc 1 4154 14 is_stmt 0
	ldr	r0, [r4]
.LVL222:
	.loc 1 4155 5 is_stmt 1
	.loc 1 4155 12 is_stmt 0
	movs	r2, #0
	.loc 1 4155 5
	b	.L136
.LVL223:
.L145:
	.loc 1 4183 3 is_stmt 1
	.loc 1 4184 1 is_stmt 0
	lsr	r0, ip, #6
	pop	{r4, r5, r6, pc}
.LVL224:
.L147:
	.align	2
.L146:
	.word	JPEG_ZIGZAG_ORDER
	.cfi_endproc
.LFE387:
	.size	JPEG_GetQuality, .-JPEG_GetQuality
	.section	.text.JPEG_DMA_StartProcess,"ax",%progbits
	.align	1
	.syntax unified
	.thumb
	.thumb_func
	.type	JPEG_DMA_StartProcess, %function
JPEG_DMA_StartProcess:
.LFB379:
	.loc 1 3657 1 is_stmt 1
	.cfi_startproc
	@ args = 0, pretend = 0, frame = 0
	@ frame_needed = 0, uses_anonymous_args = 0
.LVL225:
	push	{r4, r5, lr}
	.cfi_def_cfa_offset 12
	.cfi_offset 4, -12
	.cfi_offset 5, -8
	.cfi_offset 14, -4
	sub	sp, sp, #12
	.cfi_def_cfa_offset 24
	mov	r4, r0
	.loc 1 3658 3
	.loc 1 3665 3
	.loc 1 3665 20 is_stmt 0
	ldr	r3, [r0, #48]
	.loc 1 3665 13
	ldr	r2, [r3, #40]
.LVL226:
	.loc 1 3672 3 is_stmt 1
	.loc 1 3672 21 is_stmt 0
	ldr	r1, [r0, #52]
	.loc 1 3672 14
	ldr	r1, [r1, #40]
.LVL227:
	.loc 1 3674 3 is_stmt 1
	.loc 1 3674 13 is_stmt 0
	ldr	r0, [r0, #40]
.LVL228:
	.loc 1 3674 6
	cmp	r0, r2
	bcc	.L152
	.loc 1 3674 50 discriminator 1
	ldr	r0, [r4, #44]
	.loc 1 3674 41 discriminator 1
	cmp	r0, r1
	bcc	.L153
	.loc 1 3679 3 is_stmt 1
	.loc 1 3679 35 is_stmt 0
	ldr	r0, .L155
	str	r0, [r3, #68]
	.loc 1 3681 3 is_stmt 1
	.loc 1 3681 8 is_stmt 0
	ldr	r0, [r4, #48]
	.loc 1 3681 36
	ldr	r3, .L155+4
	str	r3, [r0, #84]
	.loc 1 3684 3 is_stmt 1
	.loc 1 3684 8 is_stmt 0
	ldr	r0, [r4, #52]
	.loc 1 3684 36
	ldr	r5, .L155+8
	str	r5, [r0, #68]
	.loc 1 3686 3 is_stmt 1
	.loc 1 3686 8 is_stmt 0
	ldr	r0, [r4, #52]
	.loc 1 3686 37
	str	r3, [r0, #84]
	.loc 1 3688 3 is_stmt 1
	.loc 1 3688 8 is_stmt 0
	ldr	r3, [r4, #52]
	.loc 1 3688 37
	ldr	r0, .L155+12
	str	r0, [r3, #88]
	.loc 1 3690 3 is_stmt 1
	.loc 1 3690 6 is_stmt 0
	cmp	r1, #0
	it	ne
	cmpne	r2, #0
	bne	.L150
	.loc 1 3692 5 is_stmt 1
	.loc 1 3692 10 is_stmt 0
	ldr	r3, [r4, #80]
	.loc 1 3692 22
	orr	r3, r3, #4
	str	r3, [r4, #80]
	.loc 1 3693 5 is_stmt 1
	.loc 1 3693 12 is_stmt 0
	movs	r0, #1
	b	.L149
.L150:
	.loc 1 3696 3 is_stmt 1
	.loc 1 3696 30 is_stmt 0
	ldr	r3, [r4, #40]
	.loc 1 3696 68
	udiv	r0, r3, r2
	mls	r2, r2, r0, r3
.LVL229:
	.loc 1 3696 45
	subs	r3, r3, r2
	.loc 1 3696 23
	str	r3, [r4, #40]
	.loc 1 3699 3 is_stmt 1
	.loc 1 3699 31 is_stmt 0
	ldr	r3, [r4, #44]
	.loc 1 3699 71
	udiv	r2, r3, r1
	mls	r2, r1, r2, r3
	.loc 1 3699 47
	subs	r3, r3, r2
	.loc 1 3699 24
	str	r3, [r4, #44]
	.loc 1 3703 3 is_stmt 1
	.loc 1 3703 57 is_stmt 0
	ldr	r1, [r4]
.LVL230:
	.loc 1 3703 7
	movs	r2, #1
	str	r2, [sp]
	ldr	r2, [r4, #28]
	adds	r1, r1, #68
	ldr	r0, [r4, #52]
	bl	HAL_MDMA_Start_IT
.LVL231:
	.loc 1 3703 6
	cbz	r0, .L151
	.loc 1 3706 5 is_stmt 1
	.loc 1 3706 10 is_stmt 0
	ldr	r3, [r4, #80]
	.loc 1 3706 22
	orr	r3, r3, #4
	str	r3, [r4, #80]
	.loc 1 3707 5 is_stmt 1
	.loc 1 3707 12 is_stmt 0
	movs	r0, #1
	b	.L149
.L151:
	.loc 1 3710 3 is_stmt 1
	.loc 1 3710 89 is_stmt 0
	ldr	r2, [r4]
	.loc 1 3710 7
	movs	r3, #1
	str	r3, [sp]
	ldr	r3, [r4, #40]
	adds	r2, r2, #64
	ldr	r1, [r4, #24]
	ldr	r0, [r4, #48]
	bl	HAL_MDMA_Start_IT
.LVL232:
	.loc 1 3710 6
	cbz	r0, .L149
	.loc 1 3713 5 is_stmt 1
	.loc 1 3713 10 is_stmt 0
	ldr	r3, [r4, #80]
	.loc 1 3713 22
	orr	r3, r3, #4
	str	r3, [r4, #80]
	.loc 1 3714 5 is_stmt 1
	.loc 1 3714 12 is_stmt 0
	movs	r0, #1
	b	.L149
.LVL233:
.L152:
	.loc 1 3676 12
	movs	r0, #1
.LVL234:
.L149:
	.loc 1 3718 1
	add	sp, sp, #12
	.cfi_remember_state
	.cfi_def_cfa_offset 12
	@ sp needed
	pop	{r4, r5, pc}
.LVL235:
.L153:
	.cfi_restore_state
	.loc 1 3676 12
	movs	r0, #1
	b	.L149
.L156:
	.align	2
.L155:
	.word	JPEG_MDMAInCpltCallback
	.word	JPEG_MDMAErrorCallback
	.word	JPEG_MDMAOutCpltCallback
	.word	JPEG_MDMAOutAbortCallback
	.cfi_endproc
.LFE379:
	.size	JPEG_DMA_StartProcess, .-JPEG_DMA_StartProcess
	.section	.text.HAL_JPEG_MspInit,"ax",%progbits
	.align	1
	.weak	HAL_JPEG_MspInit
	.syntax unified
	.thumb
	.thumb_func
	.type	HAL_JPEG_MspInit, %function
HAL_JPEG_MspInit:
.LFB337:
	.loc 1 660 1 is_stmt 1
	.cfi_startproc
	@ args = 0, pretend = 0, frame = 0
	@ frame_needed = 0, uses_anonymous_args = 0
	@ link register save eliminated.
.LVL236:
	.loc 1 662 3
	.loc 1 667 1 is_stmt 0
	bx	lr
	.cfi_endproc
.LFE337:
	.size	HAL_JPEG_MspInit, .-HAL_JPEG_MspInit
	.section	.text.HAL_JPEG_Init,"ax",%progbits
	.align	1
	.global	HAL_JPEG_Init
	.syntax unified
	.thumb
	.thumb_func
	.type	HAL_JPEG_Init, %function
HAL_JPEG_Init:
.LFB335:
	.loc 1 485 1 is_stmt 1
	.cfi_startproc
	@ args = 0, pretend = 0, frame = 0
	@ frame_needed = 0, uses_anonymous_args = 0
.LVL237:
	.loc 1 487 3
	.loc 1 498 3
	.loc 1 511 3
	.loc 1 511 6 is_stmt 0
	cmp	r0, #0
	beq	.L162
	.loc 1 485 1
	push	{r4, lr}
	.cfi_def_cfa_offset 8
	.cfi_offset 4, -8
	.cfi_offset 14, -4
	mov	r4, r0
	.loc 1 538 3 is_stmt 1
	.loc 1 538 12 is_stmt 0
	ldrb	r3, [r0, #77]	@ zero_extendqisi2
	.loc 1 538 6
	cmp	r3, #0
	beq	.L167
.LVL238:
.L160:
	.loc 1 549 3 is_stmt 1
	.loc 1 549 16 is_stmt 0
	movs	r3, #2
	strb	r3, [r4, #77]
	.loc 1 552 3 is_stmt 1
	.loc 1 552 11 is_stmt 0
	ldr	r2, [r4]
	.loc 1 552 21
	ldr	r3, [r2, #48]
	.loc 1 552 26
	orr	r3, r3, #1
	str	r3, [r2, #48]
	.loc 1 555 3 is_stmt 1
	.loc 1 555 8 is_stmt 0
	ldr	r2, [r4]
	.loc 1 555 18
	ldr	r3, [r2]
	.loc 1 555 27
	bic	r3, r3, #1
	str	r3, [r2]
	.loc 1 558 3 is_stmt 1
	.loc 1 558 45 is_stmt 0
	ldr	r2, [r4]
	.loc 1 558 55
	ldr	r3, [r2, #48]
	.loc 1 558 97
	bic	r3, r3, #126
	.loc 1 558 30
	str	r3, [r2, #48]
	.loc 1 562 3 is_stmt 1
	.loc 1 562 8 is_stmt 0
	ldr	r2, [r4]
	.loc 1 562 18
	ldr	r3, [r2, #48]
	.loc 1 562 23
	orr	r3, r3, #8192
	str	r3, [r2, #48]
	.loc 1 563 3 is_stmt 1
	.loc 1 563 8 is_stmt 0
	ldr	r2, [r4]
	.loc 1 563 18
	ldr	r3, [r2, #48]
	.loc 1 563 23
	orr	r3, r3, #16384
	str	r3, [r2, #48]
	.loc 1 566 3 is_stmt 1
	.loc 1 566 12 is_stmt 0
	ldr	r2, [r4]
	.loc 1 566 22
	ldr	r3, [r2, #56]
	.loc 1 566 28
	orr	r3, r3, #96
	str	r3, [r2, #56]
	.loc 1 569 3 is_stmt 1
	.loc 1 569 22 is_stmt 0
	ldr	r3, .L169
	str	r3, [r4, #60]
	.loc 1 570 3 is_stmt 1
	.loc 1 570 22 is_stmt 0
	ldr	r3, .L169+4
	str	r3, [r4, #64]
	.loc 1 571 3 is_stmt 1
	.loc 1 571 22 is_stmt 0
	movs	r3, #0
	str	r3, [r4, #68]
	.loc 1 572 3 is_stmt 1
	.loc 1 572 22 is_stmt 0
	str	r3, [r4, #72]
	.loc 1 575 3 is_stmt 1
	.loc 1 575 7 is_stmt 0
	mov	r0, r4
	bl	JPEG_Set_HuffEnc_Mem
.LVL239:
	.loc 1 575 6
	cbnz	r0, .L168
	.loc 1 583 3 is_stmt 1
	.loc 1 583 8 is_stmt 0
	ldr	r2, [r4]
	.loc 1 583 18
	ldr	r3, [r2, #4]
	.loc 1 583 27
	orr	r3, r3, #256
	str	r3, [r2, #4]
	.loc 1 586 3 is_stmt 1
	.loc 1 586 22 is_stmt 0
	movs	r3, #0
	str	r3, [r4, #32]
	.loc 1 587 3 is_stmt 1
	.loc 1 587 23 is_stmt 0
	str	r3, [r4, #36]
	.loc 1 590 3 is_stmt 1
	.loc 1 590 16 is_stmt 0
	movs	r2, #1
	strb	r2, [r4, #77]
	.loc 1 593 3 is_stmt 1
	.loc 1 593 20 is_stmt 0
	str	r3, [r4, #80]
	.loc 1 596 3 is_stmt 1
	.loc 1 596 18 is_stmt 0
	str	r3, [r4, #84]
	.loc 1 599 3 is_stmt 1
.L159:
	.loc 1 600 1 is_stmt 0
	pop	{r4, pc}
.LVL240:
.L167:
	.loc 1 541 5 is_stmt 1
	.loc 1 541 17 is_stmt 0
	strb	r3, [r0, #76]
	.loc 1 544 5 is_stmt 1
	bl	HAL_JPEG_MspInit
.LVL241:
	b	.L160
.L168:
	.loc 1 577 5
	.loc 1 577 22 is_stmt 0
	movs	r0, #1
	str	r0, [r4, #80]
	.loc 1 579 5 is_stmt 1
	.loc 1 579 12 is_stmt 0
	b	.L159
.LVL242:
.L162:
	.cfi_def_cfa_offset 0
	.cfi_restore 4
	.cfi_restore 14
	.loc 1 513 12
	movs	r0, #1
.LVL243:
	.loc 1 600 1
	bx	lr
.L170:
	.align	2
.L169:
	.word	JPEG_LUM_QuantTable.1
	.word	JPEG_CHROM_QuantTable.0
	.cfi_endproc
.LFE335:
	.size	HAL_JPEG_Init, .-HAL_JPEG_Init
	.section	.text.HAL_JPEG_MspDeInit,"ax",%progbits
	.align	1
	.weak	HAL_JPEG_MspDeInit
	.syntax unified
	.thumb
	.thumb_func
	.type	HAL_JPEG_MspDeInit, %function
HAL_JPEG_MspDeInit:
.LFB338:
	.loc 1 676 1 is_stmt 1
	.cfi_startproc
	@ args = 0, pretend = 0, frame = 0
	@ frame_needed = 0, uses_anonymous_args = 0
	@ link register save eliminated.
.LVL244:
	.loc 1 678 3
	.loc 1 683 1 is_stmt 0
	bx	lr
	.cfi_endproc
.LFE338:
	.size	HAL_JPEG_MspDeInit, .-HAL_JPEG_MspDeInit
	.section	.text.HAL_JPEG_DeInit,"ax",%progbits
	.align	1
	.global	HAL_JPEG_DeInit
	.syntax unified
	.thumb
	.thumb_func
	.type	HAL_JPEG_DeInit, %function
HAL_JPEG_DeInit:
.LFB336:
	.loc 1 609 1 is_stmt 1
	.cfi_startproc
	@ args = 0, pretend = 0, frame = 0
	@ frame_needed = 0, uses_anonymous_args = 0
.LVL245:
	.loc 1 611 3
	.loc 1 611 6 is_stmt 0
	cbz	r0, .L174
	.loc 1 609 1
	push	{r4, lr}
	.cfi_def_cfa_offset 8
	.cfi_offset 4, -8
	.cfi_offset 14, -4
	mov	r4, r0
	.loc 1 627 3 is_stmt 1
	bl	HAL_JPEG_MspDeInit
.LVL246:
	.loc 1 631 3
	.loc 1 631 16 is_stmt 0
	movs	r3, #2
	strb	r3, [r4, #77]
	.loc 1 634 3 is_stmt 1
	.loc 1 634 20 is_stmt 0
	movs	r0, #0
	str	r0, [r4, #80]
	.loc 1 637 3 is_stmt 1
	.loc 1 637 22 is_stmt 0
	str	r0, [r4, #32]
	.loc 1 638 3 is_stmt 1
	.loc 1 638 23 is_stmt 0
	str	r0, [r4, #36]
	.loc 1 641 3 is_stmt 1
	.loc 1 641 16 is_stmt 0
	strb	r0, [r4, #77]
	.loc 1 644 3 is_stmt 1
	.loc 1 644 18 is_stmt 0
	str	r0, [r4, #84]
	.loc 1 647 3 is_stmt 1
	.loc 1 647 7
	.loc 1 647 21 is_stmt 0
	strb	r0, [r4, #76]
	.loc 1 647 5 is_stmt 1
	.loc 1 650 3
	.loc 1 651 1 is_stmt 0
	pop	{r4, pc}
.LVL247:
.L174:
	.cfi_def_cfa_offset 0
	.cfi_restore 4
	.cfi_restore 14
	.loc 1 613 12
	movs	r0, #1
.LVL248:
	.loc 1 651 1
	bx	lr
	.cfi_endproc
.LFE336:
	.size	HAL_JPEG_DeInit, .-HAL_JPEG_DeInit
	.section	.text.HAL_JPEG_ConfigEncoding,"ax",%progbits
	.align	1
	.global	HAL_JPEG_ConfigEncoding
	.syntax unified
	.thumb
	.thumb_func
	.type	HAL_JPEG_ConfigEncoding, %function
HAL_JPEG_ConfigEncoding:
.LFB339:
	.loc 1 1101 1 is_stmt 1
	.cfi_startproc
	@ args = 0, pretend = 0, frame = 0
	@ frame_needed = 0, uses_anonymous_args = 0
.LVL249:
	push	{r4, r5, r6, lr}
	.cfi_def_cfa_offset 16
	.cfi_offset 4, -16
	.cfi_offset 5, -12
	.cfi_offset 6, -8
	.cfi_offset 14, -4
	.loc 1 1102 3
	.loc 1 1103 3
	.loc 1 1104 3
	.loc 1 1105 3
	.loc 1 1106 3
	.loc 1 1107 3
	.loc 1 1110 3
	.loc 1 1110 6 is_stmt 0
	cmp	r1, #0
	it	ne
	cmpne	r0, #0
	beq	.L189
	mov	r4, r0
	.loc 1 1117 5 is_stmt 1
	.loc 1 1118 5
	.loc 1 1119 5
	.loc 1 1122 5
	.loc 1 1122 9
	.loc 1 1122 19 is_stmt 0
	ldrb	r2, [r0, #76]	@ zero_extendqisi2
	.loc 1 1122 11
	cmp	r2, #1
	beq	.L190
	.loc 1 1122 69 is_stmt 1 discriminator 2
	.loc 1 1122 83 is_stmt 0 discriminator 2
	movs	r2, #1
	strb	r2, [r0, #76]
	.loc 1 1122 7 is_stmt 1 discriminator 2
	.loc 1 1124 5 discriminator 2
	.loc 1 1124 14 is_stmt 0 discriminator 2
	ldrb	r5, [r0, #77]	@ zero_extendqisi2
	uxtb	r5, r5
	.loc 1 1124 8 discriminator 2
	cmp	r5, r2
	bne	.L181
	.loc 1 1126 7 is_stmt 1
	.loc 1 1126 20 is_stmt 0
	movs	r2, #2
	strb	r2, [r0, #77]
	.loc 1 1128 7 is_stmt 1
	.loc 1 1128 37 is_stmt 0
	ldr	r2, [r1]
	.loc 1 1128 30
	str	r2, [r0, #4]
	.loc 1 1129 7 is_stmt 1
	.loc 1 1129 44 is_stmt 0
	ldr	r2, [r1, #4]
	.loc 1 1129 37
	str	r2, [r0, #8]
	.loc 1 1130 7 is_stmt 1
	.loc 1 1130 38 is_stmt 0
	ldr	r2, [r1, #8]
	.loc 1 1130 31
	str	r2, [r0, #12]
	.loc 1 1131 7 is_stmt 1
	.loc 1 1131 37 is_stmt 0
	ldr	r2, [r1, #12]
	.loc 1 1131 30
	str	r2, [r0, #16]
	.loc 1 1132 7 is_stmt 1
	.loc 1 1132 39 is_stmt 0
	ldr	r3, [r1, #16]
	.loc 1 1132 32
	str	r3, [r0, #20]
	.loc 1 1135 7 is_stmt 1
	.loc 1 1135 12 is_stmt 0
	ldr	r2, [r0]
	.loc 1 1135 22
	ldr	r3, [r2, #4]
	.loc 1 1135 31
	bic	r3, r3, #48
	str	r3, [r2, #4]
	.loc 1 1138 7 is_stmt 1
	.loc 1 1138 22 is_stmt 0
	ldr	r3, [r0, #4]
	.loc 1 1138 10
	cmp	r3, #0
	beq	.L194
	.loc 1 1147 12 is_stmt 1
	.loc 1 1147 15 is_stmt 0
	cmp	r3, #16
	beq	.L195
	.loc 1 1182 9 is_stmt 1
	bl	JPEG_SetColorCMYK
.LVL250:
	.loc 1 1185 9
	.loc 1 1185 76 is_stmt 0
	ldr	r2, [r4]
	.loc 1 1185 17
	adds	r2, r2, #80
	ldr	r1, [r4, #60]
	mov	r0, r4
	bl	JPEG_Set_Quantization_Mem
.LVL251:
	mov	r6, r0
.LVL252:
	.loc 1 1188 9 is_stmt 1
	.loc 1 1188 19 is_stmt 0
	ldr	r3, [r4, #84]
	.loc 1 1188 12
	tst	r3, #16384
	beq	.L183
	.loc 1 1192 11 is_stmt 1
	.loc 1 1192 16 is_stmt 0
	ldr	r2, [r4]
	.loc 1 1192 26
	ldr	r3, [r2, #4]
	.loc 1 1192 35
	orr	r3, r3, #48
	str	r3, [r2, #4]
	.loc 1 1194 11 is_stmt 1
	.loc 1 1194 79 is_stmt 0
	ldr	r2, [r4]
	.loc 1 1194 20
	adds	r2, r2, #144
	ldr	r1, [r4, #64]
	mov	r0, r4
.LVL253:
	bl	JPEG_Set_Quantization_Mem
.LVL254:
	.loc 1 1194 17
	orrs	r6, r6, r0
.LVL255:
	.loc 1 1195 11 is_stmt 1
	.loc 1 1195 79 is_stmt 0
	ldr	r2, [r4]
	.loc 1 1195 20
	adds	r2, r2, #208
	ldr	r1, [r4, #68]
	mov	r0, r4
	bl	JPEG_Set_Quantization_Mem
.LVL256:
	.loc 1 1195 17
	orrs	r6, r6, r0
.LVL257:
	.loc 1 1196 11 is_stmt 1
	.loc 1 1196 79 is_stmt 0
	ldr	r2, [r4]
	.loc 1 1196 20
	add	r2, r2, #272
	ldr	r1, [r4, #72]
	mov	r0, r4
	bl	JPEG_Set_Quantization_Mem
.LVL258:
	.loc 1 1196 17
	orrs	r6, r6, r0
.LVL259:
	.loc 1 1199 11 is_stmt 1
	.loc 1 1199 16 is_stmt 0
	ldr	r2, [r4]
	.loc 1 1199 26
	ldr	r3, [r2, #20]
	.loc 1 1199 35
	orr	r3, r3, #4
	str	r3, [r2, #20]
	.loc 1 1202 11 is_stmt 1
	.loc 1 1202 16 is_stmt 0
	ldr	r2, [r4]
	.loc 1 1202 26
	ldr	r3, [r2, #24]
	.loc 1 1202 35
	orr	r3, r3, #8
	str	r3, [r2, #24]
	.loc 1 1205 11 is_stmt 1
	.loc 1 1205 16 is_stmt 0
	ldr	r2, [r4]
	.loc 1 1205 26
	ldr	r3, [r2, #28]
	.loc 1 1205 35
	orr	r3, r3, #12
	str	r3, [r2, #28]
	b	.L183
.LVL260:
.L194:
	.loc 1 1141 9 is_stmt 1
	.loc 1 1141 39 is_stmt 0
	str	r3, [r0, #8]
	.loc 1 1143 9 is_stmt 1
	bl	JPEG_SetColorGrayScale
.LVL261:
	.loc 1 1145 9
	.loc 1 1145 76 is_stmt 0
	ldr	r2, [r4]
	.loc 1 1145 17
	adds	r2, r2, #80
	ldr	r1, [r4, #60]
	mov	r0, r4
	bl	JPEG_Set_Quantization_Mem
.LVL262:
	mov	r6, r0
.LVL263:
.L183:
	.loc 1 1209 7 is_stmt 1
	.loc 1 1209 10 is_stmt 0
	cmp	r6, #0
	beq	.L185
	.loc 1 1211 9 is_stmt 1
	.loc 1 1211 26 is_stmt 0
	movs	r3, #2
	str	r3, [r4, #80]
	.loc 1 1214 9 is_stmt 1
	.loc 1 1214 13
	.loc 1 1214 27 is_stmt 0
	movs	r3, #0
	strb	r3, [r4, #76]
	.loc 1 1214 11 is_stmt 1
	.loc 1 1217 9
	.loc 1 1217 22 is_stmt 0
	movs	r3, #1
	strb	r3, [r4, #77]
	.loc 1 1219 9 is_stmt 1
	.loc 1 1219 16 is_stmt 0
	b	.L180
.LVL264:
.L195:
	.loc 1 1153 9 is_stmt 1
	.loc 1 1153 14 is_stmt 0
	ldr	r2, [r0]
	.loc 1 1153 24
	ldr	r3, [r2, #4]
	.loc 1 1153 33
	orr	r3, r3, #16
	str	r3, [r2, #4]
	.loc 1 1155 9 is_stmt 1
	bl	JPEG_SetColorYCBCR
.LVL265:
	.loc 1 1158 9
	.loc 1 1158 76 is_stmt 0
	ldr	r2, [r4]
	.loc 1 1158 17
	adds	r2, r2, #80
	ldr	r1, [r4, #60]
	mov	r0, r4
	bl	JPEG_Set_Quantization_Mem
.LVL266:
	mov	r6, r0
.LVL267:
	.loc 1 1160 9 is_stmt 1
	.loc 1 1160 77 is_stmt 0
	ldr	r2, [r4]
	.loc 1 1160 18
	adds	r2, r2, #144
	ldr	r1, [r4, #64]
	mov	r0, r4
.LVL268:
	bl	JPEG_Set_Quantization_Mem
.LVL269:
	.loc 1 1160 15
	orrs	r6, r6, r0
.LVL270:
	.loc 1 1162 9 is_stmt 1
	.loc 1 1162 19 is_stmt 0
	ldr	r3, [r4, #84]
	.loc 1 1162 12
	tst	r3, #16384
	beq	.L183
	.loc 1 1166 11 is_stmt 1
	.loc 1 1166 16 is_stmt 0
	ldr	r2, [r4]
	.loc 1 1166 26
	ldr	r3, [r2, #4]
	.loc 1 1166 35
	bic	r3, r3, #48
	str	r3, [r2, #4]
	.loc 1 1167 11 is_stmt 1
	.loc 1 1167 16 is_stmt 0
	ldr	r2, [r4]
	.loc 1 1167 26
	ldr	r3, [r2, #4]
	.loc 1 1167 35
	orr	r3, r3, #32
	str	r3, [r2, #4]
	.loc 1 1169 11 is_stmt 1
	.loc 1 1169 79 is_stmt 0
	ldr	r2, [r4]
	.loc 1 1169 20
	adds	r2, r2, #208
	ldr	r1, [r4, #68]
	mov	r0, r4
	bl	JPEG_Set_Quantization_Mem
.LVL271:
	.loc 1 1169 17
	orrs	r6, r6, r0
.LVL272:
	.loc 1 1172 11 is_stmt 1
	.loc 1 1172 16 is_stmt 0
	ldr	r2, [r4]
	.loc 1 1172 26
	ldr	r3, [r2, #20]
	.loc 1 1172 35
	bic	r3, r3, #12
	str	r3, [r2, #20]
	.loc 1 1173 11 is_stmt 1
	.loc 1 1173 16 is_stmt 0
	ldr	r2, [r4]
	.loc 1 1173 26
	ldr	r3, [r2, #20]
	.loc 1 1173 35
	orr	r3, r3, #4
	str	r3, [r2, #20]
	.loc 1 1176 11 is_stmt 1
	.loc 1 1176 16 is_stmt 0
	ldr	r2, [r4]
	.loc 1 1176 26
	ldr	r3, [r2, #24]
	.loc 1 1176 35
	bic	r3, r3, #12
	str	r3, [r2, #24]
	.loc 1 1177 11 is_stmt 1
	.loc 1 1177 16 is_stmt 0
	ldr	r2, [r4]
	.loc 1 1177 26
	ldr	r3, [r2, #24]
	.loc 1 1177 35
	orr	r3, r3, #8
	str	r3, [r2, #24]
	b	.L183
.L185:
	.loc 1 1223 7 is_stmt 1
	.loc 1 1223 49 is_stmt 0
	ldr	r2, [r4]
	.loc 1 1223 59
	ldr	r3, [r2, #4]
	.loc 1 1223 71
	uxth	r3, r3
	.loc 1 1223 115
	ldr	r1, [r4, #12]
	.loc 1 1223 99
	orr	r3, r3, r1, lsl #16
	.loc 1 1223 36
	str	r3, [r2, #4]
	.loc 1 1225 7 is_stmt 1
	.loc 1 1225 49 is_stmt 0
	ldr	r2, [r4]
	.loc 1 1225 59
	ldr	r3, [r2, #12]
	.loc 1 1225 71
	uxth	r3, r3
	.loc 1 1225 115
	ldr	r1, [r4, #16]
	.loc 1 1225 99
	orr	r3, r3, r1, lsl #16
	.loc 1 1225 36
	str	r3, [r2, #12]
	.loc 1 1228 7 is_stmt 1
	.loc 1 1228 22 is_stmt 0
	ldr	r3, [r4, #8]
	.loc 1 1228 10
	cmp	r3, #1
	beq	.L191
	.loc 1 1233 12 is_stmt 1
	.loc 1 1233 15 is_stmt 0
	cmp	r3, #2
	beq	.L196
	.loc 1 1241 17
	movs	r0, #8
	.loc 1 1240 17
	mov	r1, r0
.L186:
.LVL273:
	.loc 1 1244 7 is_stmt 1
	.loc 1 1244 26 is_stmt 0
	ldr	r2, [r4, #16]
	.loc 1 1244 12
	udiv	r3, r2, r1
.LVL274:
	.loc 1 1245 7 is_stmt 1
	.loc 1 1245 35 is_stmt 0
	mls	r2, r1, r3, r2
	.loc 1 1245 10
	cbz	r2, .L187
	.loc 1 1247 9 is_stmt 1
	.loc 1 1247 13 is_stmt 0
	adds	r3, r3, #1
.LVL275:
.L187:
	.loc 1 1250 7 is_stmt 1
	.loc 1 1250 26 is_stmt 0
	ldr	r2, [r4, #12]
	.loc 1 1250 12
	udiv	r1, r2, r0
.LVL276:
	.loc 1 1251 7 is_stmt 1
	.loc 1 1251 36 is_stmt 0
	mls	r2, r0, r1, r2
	.loc 1 1251 10
	cbz	r2, .L188
	.loc 1 1253 9 is_stmt 1
	.loc 1 1253 13 is_stmt 0
	adds	r1, r1, #1
.LVL277:
.L188:
	.loc 1 1256 7 is_stmt 1
	.loc 1 1256 25 is_stmt 0
	mul	r3, r1, r3
.LVL278:
	.loc 1 1256 17
	subs	r3, r3, #1
.LVL279:
	.loc 1 1258 7 is_stmt 1
	.loc 1 1258 12 is_stmt 0
	ldr	r2, [r4]
	.loc 1 1258 44
	bic	r3, r3, #-67108864
.LVL280:
	.loc 1 1258 31
	str	r3, [r2, #8]
	.loc 1 1260 7 is_stmt 1
	.loc 1 1260 12 is_stmt 0
	ldr	r3, [r4, #84]
	.loc 1 1260 22
	orr	r3, r3, #256
	str	r3, [r4, #84]
	.loc 1 1263 7 is_stmt 1
	.loc 1 1263 11
	.loc 1 1263 25 is_stmt 0
	movs	r5, #0
	strb	r5, [r4, #76]
	.loc 1 1263 9 is_stmt 1
	.loc 1 1266 7
	.loc 1 1266 20 is_stmt 0
	movs	r3, #1
	strb	r3, [r4, #77]
	.loc 1 1269 7 is_stmt 1
	.loc 1 1269 14 is_stmt 0
	b	.L180
.LVL281:
.L196:
	.loc 1 1236 17
	movs	r0, #8
	.loc 1 1235 17
	movs	r1, #16
	b	.L186
.L191:
	.loc 1 1231 17
	movs	r0, #16
	.loc 1 1230 17
	mov	r1, r0
	b	.L186
.LVL282:
.L181:
	.loc 1 1274 7 is_stmt 1
	.loc 1 1274 11
	.loc 1 1274 25 is_stmt 0
	movs	r3, #0
	strb	r3, [r0, #76]
	.loc 1 1274 9 is_stmt 1
	.loc 1 1277 7
	.loc 1 1277 14 is_stmt 0
	movs	r5, #2
	b	.L180
.L189:
	.loc 1 1112 12
	movs	r5, #1
.LVL283:
.L180:
	.loc 1 1280 1
	mov	r0, r5
	pop	{r4, r5, r6, pc}
.LVL284:
.L190:
	.loc 1 1122 50
	movs	r5, #2
	b	.L180
	.cfi_endproc
.LFE339:
	.size	HAL_JPEG_ConfigEncoding, .-HAL_JPEG_ConfigEncoding
	.section	.text.HAL_JPEG_GetInfo,"ax",%progbits
	.align	1
	.global	HAL_JPEG_GetInfo
	.syntax unified
	.thumb
	.thumb_func
	.type	HAL_JPEG_GetInfo, %function
HAL_JPEG_GetInfo:
.LFB340:
	.loc 1 1291 1 is_stmt 1
	.cfi_startproc
	@ args = 0, pretend = 0, frame = 0
	@ frame_needed = 0, uses_anonymous_args = 0
.LVL285:
	.loc 1 1292 3
	.loc 1 1293 3
	.loc 1 1294 3
	.loc 1 1297 3
	.loc 1 1297 6 is_stmt 0
	cmp	r1, #0
	it	ne
	cmpne	r0, #0
	beq	.L207
	.loc 1 1291 1
	push	{r3, r4, r5, lr}
	.cfi_def_cfa_offset 16
	.cfi_offset 3, -16
	.cfi_offset 4, -12
	.cfi_offset 5, -8
	.cfi_offset 14, -4
	mov	r3, r0
	mov	r4, r1
	.loc 1 1303 3 is_stmt 1
	.loc 1 1303 13 is_stmt 0
	ldr	r1, [r0]
.LVL286:
	.loc 1 1303 23
	ldr	r2, [r1, #4]
	.loc 1 1303 32
	and	r2, r2, #3
	.loc 1 1303 6
	cmp	r2, #2
	beq	.L213
	.loc 1 1307 8 is_stmt 1
	.loc 1 1307 28 is_stmt 0
	ldr	r2, [r1, #4]
	.loc 1 1307 11
	tst	r2, #3
	bne	.L201
	.loc 1 1309 5 is_stmt 1
	.loc 1 1309 23 is_stmt 0
	movs	r2, #0
	str	r2, [r4]
	b	.L200
.L213:
	.loc 1 1305 5 is_stmt 1
	.loc 1 1305 23 is_stmt 0
	movs	r2, #16
	str	r2, [r4]
.L200:
	.loc 1 1320 3 is_stmt 1
	.loc 1 1320 30 is_stmt 0
	ldr	r2, [r3]
	.loc 1 1320 40
	ldr	r2, [r2, #4]
	.loc 1 1320 65
	lsrs	r2, r2, #16
	.loc 1 1320 22
	str	r2, [r4, #8]
	.loc 1 1321 3 is_stmt 1
	.loc 1 1321 29 is_stmt 0
	ldr	r2, [r3]
	.loc 1 1321 39
	ldr	r2, [r2, #12]
	.loc 1 1321 64
	lsrs	r2, r2, #16
	.loc 1 1321 21
	str	r2, [r4, #12]
	.loc 1 1323 3 is_stmt 1
	.loc 1 1323 13 is_stmt 0
	ldr	r2, [r4]
	.loc 1 1323 6
	cmp	r2, #48
	it	ne
	cmpne	r2, #16
	bne	.L202
	.loc 1 1325 5 is_stmt 1
	.loc 1 1325 22 is_stmt 0
	ldr	r1, [r3]
	.loc 1 1325 32
	ldr	r2, [r1, #16]
	.loc 1 1325 60
	lsr	ip, r2, #4
	.loc 1 1325 14
	ubfx	r2, r2, #4, #4
.LVL287:
	.loc 1 1326 5 is_stmt 1
	.loc 1 1326 33 is_stmt 0
	ldr	r0, [r1, #20]
.LVL288:
	.loc 1 1326 61
	lsr	lr, r0, #4
.LVL289:
	.loc 1 1327 5 is_stmt 1
	.loc 1 1327 33 is_stmt 0
	ldr	r1, [r1, #24]
	.loc 1 1327 15
	ubfx	r1, r1, #4, #4
.LVL290:
	.loc 1 1329 5 is_stmt 1
	.loc 1 1329 41 is_stmt 0
	tst	r0, #240
	ite	eq
	moveq	r0, #1
.LVL291:
	movne	r0, #0
	.loc 1 1329 27
	cmp	r2, #1
	ite	ne
	movne	r5, #0
	andeq	r5, r0, #1
	.loc 1 1329 8
	cbz	r5, .L203
	.loc 1 1329 49 discriminator 1
	cbnz	r1, .L203
	.loc 1 1331 7 is_stmt 1
	.loc 1 1331 32 is_stmt 0
	movs	r2, #2
.LVL292:
	str	r2, [r4, #4]
	b	.L204
.LVL293:
.L201:
	.loc 1 1311 8 is_stmt 1
	.loc 1 1311 28 is_stmt 0
	ldr	r2, [r1, #4]
	.loc 1 1311 37
	and	r2, r2, #3
	.loc 1 1311 11
	cmp	r2, #3
	bne	.L208
	.loc 1 1313 5 is_stmt 1
	.loc 1 1313 23 is_stmt 0
	movs	r2, #48
	str	r2, [r4]
	b	.L200
.LVL294:
.L203:
	.loc 1 1333 10 is_stmt 1
	.loc 1 1333 13 is_stmt 0
	orr	ip, ip, lr
	tst	ip, #15
	bne	.L205
	.loc 1 1333 54 discriminator 1
	cbnz	r1, .L205
	.loc 1 1335 7 is_stmt 1
	.loc 1 1335 32 is_stmt 0
	movs	r2, #0
.LVL295:
	str	r2, [r4, #4]
	b	.L204
.LVL296:
.L205:
	.loc 1 1337 10 is_stmt 1
	.loc 1 1337 32 is_stmt 0
	cmp	r2, #3
	ite	ne
	movne	r0, #0
	andeq	r0, r0, #1
	.loc 1 1337 13
	cbz	r0, .L206
	.loc 1 1337 54 discriminator 1
	cbnz	r1, .L206
	.loc 1 1339 7 is_stmt 1
	.loc 1 1339 32 is_stmt 0
	movs	r2, #1
.LVL297:
	str	r2, [r4, #4]
	b	.L204
.LVL298:
.L206:
	.loc 1 1343 7 is_stmt 1
	.loc 1 1343 32 is_stmt 0
	movs	r2, #0
.LVL299:
	str	r2, [r4, #4]
	b	.L204
.LVL300:
.L202:
	.loc 1 1348 5 is_stmt 1
	.loc 1 1348 30 is_stmt 0
	movs	r2, #0
	str	r2, [r4, #4]
.LVL301:
.L204:
	.loc 1 1351 3 is_stmt 1
	.loc 1 1351 25 is_stmt 0
	mov	r0, r3
	bl	JPEG_GetQuality
.LVL302:
	.loc 1 1351 23
	str	r0, [r4, #16]
	.loc 1 1354 3 is_stmt 1
	.loc 1 1354 10 is_stmt 0
	movs	r0, #0
.L198:
	.loc 1 1355 1
	pop	{r3, r4, r5, pc}
.LVL303:
.L207:
	.cfi_def_cfa_offset 0
	.cfi_restore 3
	.cfi_restore 4
	.cfi_restore 5
	.cfi_restore 14
	.loc 1 1299 12
	movs	r0, #1
.LVL304:
	.loc 1 1355 1
	bx	lr
.LVL305:
.L208:
	.cfi_def_cfa_offset 16
	.cfi_offset 3, -16
	.cfi_offset 4, -12
	.cfi_offset 5, -8
	.cfi_offset 14, -4
	.loc 1 1317 12
	movs	r0, #1
.LVL306:
	b	.L198
	.cfi_endproc
.LFE340:
	.size	HAL_JPEG_GetInfo, .-HAL_JPEG_GetInfo
	.section	.text.HAL_JPEG_EnableHeaderParsing,"ax",%progbits
	.align	1
	.global	HAL_JPEG_EnableHeaderParsing
	.syntax unified
	.thumb
	.thumb_func
	.type	HAL_JPEG_EnableHeaderParsing, %function
HAL_JPEG_EnableHeaderParsing:
.LFB341:
	.loc 1 1364 1 is_stmt 1
	.cfi_startproc
	@ args = 0, pretend = 0, frame = 0
	@ frame_needed = 0, uses_anonymous_args = 0
	@ link register save eliminated.
.LVL307:
	.loc 1 1366 3
	.loc 1 1366 7
	.loc 1 1366 17 is_stmt 0
	ldrb	r3, [r0, #76]	@ zero_extendqisi2
	.loc 1 1366 9
	cmp	r3, #1
	beq	.L217
	.loc 1 1366 67 is_stmt 1 discriminator 2
	.loc 1 1366 81 is_stmt 0 discriminator 2
	movs	r3, #1
	strb	r3, [r0, #76]
	.loc 1 1366 5 is_stmt 1 discriminator 2
	.loc 1 1368 3 discriminator 2
	.loc 1 1368 12 is_stmt 0 discriminator 2
	ldrb	r3, [r0, #77]	@ zero_extendqisi2
	uxtb	r3, r3
	.loc 1 1368 6 discriminator 2
	cmp	r3, #1
	beq	.L218
	.loc 1 1387 5 is_stmt 1
	.loc 1 1387 9
	.loc 1 1387 23 is_stmt 0
	movs	r3, #0
	strb	r3, [r0, #76]
	.loc 1 1387 7 is_stmt 1
	.loc 1 1389 5
	.loc 1 1389 12 is_stmt 0
	movs	r0, #2
.LVL308:
	bx	lr
.LVL309:
.L218:
	.loc 1 1371 5 is_stmt 1
	.loc 1 1371 18 is_stmt 0
	movs	r3, #2
	strb	r3, [r0, #77]
	.loc 1 1374 5 is_stmt 1
	.loc 1 1374 10 is_stmt 0
	ldr	r2, [r0]
	.loc 1 1374 20
	ldr	r3, [r2, #4]
	.loc 1 1374 29
	orr	r3, r3, #256
	str	r3, [r2, #4]
	.loc 1 1377 5 is_stmt 1
	.loc 1 1377 9
	.loc 1 1377 23 is_stmt 0
	movs	r3, #0
	strb	r3, [r0, #76]
	.loc 1 1377 7 is_stmt 1
	.loc 1 1380 5
	.loc 1 1380 18 is_stmt 0
	movs	r2, #1
	strb	r2, [r0, #77]
	.loc 1 1382 5 is_stmt 1
	.loc 1 1382 12 is_stmt 0
	mov	r0, r3
.LVL310:
	bx	lr
.LVL311:
.L217:
	.loc 1 1366 48
	movs	r0, #2
.LVL312:
	.loc 1 1391 1
	bx	lr
	.cfi_endproc
.LFE341:
	.size	HAL_JPEG_EnableHeaderParsing, .-HAL_JPEG_EnableHeaderParsing
	.section	.text.HAL_JPEG_DisableHeaderParsing,"ax",%progbits
	.align	1
	.global	HAL_JPEG_DisableHeaderParsing
	.syntax unified
	.thumb
	.thumb_func
	.type	HAL_JPEG_DisableHeaderParsing, %function
HAL_JPEG_DisableHeaderParsing:
.LFB342:
	.loc 1 1400 1 is_stmt 1
	.cfi_startproc
	@ args = 0, pretend = 0, frame = 0
	@ frame_needed = 0, uses_anonymous_args = 0
	@ link register save eliminated.
.LVL313:
	.loc 1 1402 3
	.loc 1 1402 7
	.loc 1 1402 17 is_stmt 0
	ldrb	r3, [r0, #76]	@ zero_extendqisi2
	.loc 1 1402 9
	cmp	r3, #1
	beq	.L222
	.loc 1 1402 67 is_stmt 1 discriminator 2
	.loc 1 1402 81 is_stmt 0 discriminator 2
	movs	r3, #1
	strb	r3, [r0, #76]
	.loc 1 1402 5 is_stmt 1 discriminator 2
	.loc 1 1404 3 discriminator 2
	.loc 1 1404 12 is_stmt 0 discriminator 2
	ldrb	r3, [r0, #77]	@ zero_extendqisi2
	uxtb	r3, r3
	.loc 1 1404 6 discriminator 2
	cmp	r3, #1
	beq	.L223
	.loc 1 1423 5 is_stmt 1
	.loc 1 1423 9
	.loc 1 1423 23 is_stmt 0
	movs	r3, #0
	strb	r3, [r0, #76]
	.loc 1 1423 7 is_stmt 1
	.loc 1 1425 5
	.loc 1 1425 12 is_stmt 0
	movs	r0, #2
.LVL314:
	bx	lr
.LVL315:
.L223:
	.loc 1 1407 5 is_stmt 1
	.loc 1 1407 18 is_stmt 0
	movs	r3, #2
	strb	r3, [r0, #77]
	.loc 1 1410 5 is_stmt 1
	.loc 1 1410 10 is_stmt 0
	ldr	r2, [r0]
	.loc 1 1410 20
	ldr	r3, [r2, #4]
	.loc 1 1410 29
	bic	r3, r3, #256
	str	r3, [r2, #4]
	.loc 1 1413 5 is_stmt 1
	.loc 1 1413 9
	.loc 1 1413 23 is_stmt 0
	movs	r3, #0
	strb	r3, [r0, #76]
	.loc 1 1413 7 is_stmt 1
	.loc 1 1416 5
	.loc 1 1416 18 is_stmt 0
	movs	r2, #1
	strb	r2, [r0, #77]
	.loc 1 1418 5 is_stmt 1
	.loc 1 1418 12 is_stmt 0
	mov	r0, r3
.LVL316:
	bx	lr
.LVL317:
.L222:
	.loc 1 1402 48
	movs	r0, #2
.LVL318:
	.loc 1 1427 1
	bx	lr
	.cfi_endproc
.LFE342:
	.size	HAL_JPEG_DisableHeaderParsing, .-HAL_JPEG_DisableHeaderParsing
	.section	.text.HAL_JPEG_SetUserQuantTables,"ax",%progbits
	.align	1
	.global	HAL_JPEG_SetUserQuantTables
	.syntax unified
	.thumb
	.thumb_func
	.type	HAL_JPEG_SetUserQuantTables, %function
HAL_JPEG_SetUserQuantTables:
.LFB343:
	.loc 1 1448 1 is_stmt 1
	.cfi_startproc
	@ args = 4, pretend = 0, frame = 0
	@ frame_needed = 0, uses_anonymous_args = 0
	@ link register save eliminated.
.LVL319:
	.loc 1 1450 3
	.loc 1 1450 7
	.loc 1 1450 17 is_stmt 0
	ldrb	ip, [r0, #76]	@ zero_extendqisi2
	.loc 1 1450 9
	cmp	ip, #1
	beq	.L227
	.loc 1 1450 67 is_stmt 1 discriminator 2
	.loc 1 1450 81 is_stmt 0 discriminator 2
	mov	ip, #1
	strb	ip, [r0, #76]
	.loc 1 1450 5 is_stmt 1 discriminator 2
	.loc 1 1452 3 discriminator 2
	.loc 1 1452 12 is_stmt 0 discriminator 2
	ldrb	ip, [r0, #77]	@ zero_extendqisi2
	uxtb	ip, ip
	.loc 1 1452 6 discriminator 2
	cmp	ip, #1
	beq	.L232
	.loc 1 1476 5 is_stmt 1
	.loc 1 1476 9
	.loc 1 1476 23 is_stmt 0
	movs	r3, #0
.LVL320:
	strb	r3, [r0, #76]
	.loc 1 1476 7 is_stmt 1
	.loc 1 1478 5
	.loc 1 1478 12 is_stmt 0
	movs	r0, #2
.LVL321:
	bx	lr
.LVL322:
.L232:
	.loc 1 1448 1
	push	{r4}
	.cfi_def_cfa_offset 4
	.cfi_offset 4, -4
	.loc 1 1455 5 is_stmt 1
	.loc 1 1455 18 is_stmt 0
	movs	r4, #2
	strb	r4, [r0, #77]
	.loc 1 1457 5 is_stmt 1
	.loc 1 1457 10 is_stmt 0
	ldr	r4, [r0, #84]
	.loc 1 1457 20
	orr	r4, r4, #16384
	str	r4, [r0, #84]
	.loc 1 1459 5 is_stmt 1
	.loc 1 1459 24 is_stmt 0
	str	r1, [r0, #60]
	.loc 1 1460 5 is_stmt 1
	.loc 1 1460 24 is_stmt 0
	str	r2, [r0, #64]
	.loc 1 1461 5 is_stmt 1
	.loc 1 1461 24 is_stmt 0
	str	r3, [r0, #68]
	.loc 1 1462 5 is_stmt 1
	.loc 1 1462 24 is_stmt 0
	ldr	r3, [sp, #4]
.LVL323:
	str	r3, [r0, #72]
	.loc 1 1465 5 is_stmt 1
	.loc 1 1465 9
	.loc 1 1465 23 is_stmt 0
	movs	r3, #0
	strb	r3, [r0, #76]
	.loc 1 1465 7 is_stmt 1
	.loc 1 1468 5
	.loc 1 1468 18 is_stmt 0
	movs	r2, #1
.LVL324:
	strb	r2, [r0, #77]
	.loc 1 1471 5 is_stmt 1
	.loc 1 1471 12 is_stmt 0
	mov	r0, r3
.LVL325:
	.loc 1 1480 1
	ldr	r4, [sp], #4
	.cfi_restore 4
	.cfi_def_cfa_offset 0
.LVL326:
	bx	lr
.LVL327:
.L227:
	.loc 1 1450 48
	movs	r0, #2
.LVL328:
	.loc 1 1480 1
	bx	lr
	.cfi_endproc
.LFE343:
	.size	HAL_JPEG_SetUserQuantTables, .-HAL_JPEG_SetUserQuantTables
	.section	.text.HAL_JPEG_Encode_IT,"ax",%progbits
	.align	1
	.global	HAL_JPEG_Encode_IT
	.syntax unified
	.thumb
	.thumb_func
	.type	HAL_JPEG_Encode_IT, %function
HAL_JPEG_Encode_IT:
.LFB346:
	.loc 1 1721 1 is_stmt 1
	.cfi_startproc
	@ args = 4, pretend = 0, frame = 0
	@ frame_needed = 0, uses_anonymous_args = 0
.LVL329:
	.loc 1 1723 3
	.loc 1 1724 3
	.loc 1 1727 3
	.loc 1 1727 6 is_stmt 0
	cmp	r1, #0
	it	ne
	cmpne	r0, #0
	beq	.L237
	.loc 1 1721 1 discriminator 1
	push	{r4, lr}
	.cfi_def_cfa_offset 8
	.cfi_offset 4, -8
	.cfi_offset 14, -4
	mov	ip, r0
	mov	r4, r1
	.loc 1 1727 46 discriminator 1
	cmp	r3, #0
	beq	.L238
	.loc 1 1733 3 is_stmt 1
	.loc 1 1733 7
	.loc 1 1733 17 is_stmt 0
	ldrb	r1, [r0, #76]	@ zero_extendqisi2
.LVL330:
	.loc 1 1733 9
	cmp	r1, #1
	beq	.L239
	.loc 1 1733 67 is_stmt 1 discriminator 2
	.loc 1 1733 81 is_stmt 0 discriminator 2
	movs	r1, #1
	strb	r1, [r0, #76]
	.loc 1 1733 5 is_stmt 1 discriminator 2
	.loc 1 1735 3 discriminator 2
	.loc 1 1735 12 is_stmt 0 discriminator 2
	ldrb	r0, [r0, #77]	@ zero_extendqisi2
.LVL331:
	uxtb	r0, r0
	.loc 1 1735 6 discriminator 2
	cmp	r0, r1
	bne	.L244
	.loc 1 1744 5 is_stmt 1
	.loc 1 1744 15 is_stmt 0
	ldr	r1, [ip, #84]
	.loc 1 1744 8
	tst	r1, #256
	bne	.L245
	.loc 1 1770 7 is_stmt 1
	.loc 1 1770 11
	.loc 1 1770 25 is_stmt 0
	movs	r3, #0
.LVL332:
	strb	r3, [ip, #76]
	.loc 1 1770 9 is_stmt 1
	.loc 1 1772 7
	.loc 1 1772 14 is_stmt 0
	b	.L234
.LVL333:
.L244:
	.loc 1 1738 5 is_stmt 1
	.loc 1 1738 9
	.loc 1 1738 23 is_stmt 0
	movs	r3, #0
.LVL334:
	strb	r3, [ip, #76]
	.loc 1 1738 7 is_stmt 1
	.loc 1 1740 5
	.loc 1 1740 12 is_stmt 0
	movs	r0, #2
.LVL335:
.L234:
	.loc 1 1777 1
	pop	{r4, pc}
.LVL336:
.L245:
	.loc 1 1747 7 is_stmt 1
	.loc 1 1747 20 is_stmt 0
	movs	r1, #3
	strb	r1, [ip, #77]
	.loc 1 1750 7 is_stmt 1
	.loc 1 1750 12 is_stmt 0
	ldr	r1, [ip, #84]
	.loc 1 1750 22
	bic	r1, r1, #15
	str	r1, [ip, #84]
	.loc 1 1751 7 is_stmt 1
	.loc 1 1751 12 is_stmt 0
	ldr	r1, [ip, #84]
	.loc 1 1751 22
	orr	r1, r1, #9
	str	r1, [ip, #84]
	.loc 1 1754 7 is_stmt 1
	.loc 1 1754 29 is_stmt 0
	str	r4, [ip, #24]
	.loc 1 1755 7 is_stmt 1
	.loc 1 1755 30 is_stmt 0
	str	r3, [ip, #28]
	.loc 1 1756 7 is_stmt 1
	.loc 1 1756 42 is_stmt 0
	bic	r2, r2, #3
.LVL337:
	.loc 1 1756 27
	str	r2, [ip, #40]
	.loc 1 1757 7 is_stmt 1
	.loc 1 1757 44 is_stmt 0
	ldr	r3, [sp, #8]
.LVL338:
	bic	r3, r3, #3
	.loc 1 1757 28
	str	r3, [ip, #44]
	.loc 1 1760 7 is_stmt 1
	.loc 1 1760 26 is_stmt 0
	movs	r4, #0
.LVL339:
	str	r4, [ip, #32]
	.loc 1 1761 7 is_stmt 1
	.loc 1 1761 27 is_stmt 0
	str	r4, [ip, #36]
	.loc 1 1764 7 is_stmt 1
	mov	r0, ip
	bl	JPEG_Init_Process
.LVL340:
	.loc 1 1776 3
	.loc 1 1776 10 is_stmt 0
	mov	r0, r4
	b	.L234
.LVL341:
.L237:
	.cfi_def_cfa_offset 0
	.cfi_restore 4
	.cfi_restore 14
	.loc 1 1729 12
	movs	r0, #1
.LVL342:
	.loc 1 1777 1
	bx	lr
.LVL343:
.L238:
	.cfi_def_cfa_offset 8
	.cfi_offset 4, -8
	.cfi_offset 14, -4
	.loc 1 1729 12
	movs	r0, #1
.LVL344:
	b	.L234
.LVL345:
.L239:
	.loc 1 1733 48
	movs	r0, #2
.LVL346:
	b	.L234
	.cfi_endproc
.LFE346:
	.size	HAL_JPEG_Encode_IT, .-HAL_JPEG_Encode_IT
	.section	.text.HAL_JPEG_Decode_IT,"ax",%progbits
	.align	1
	.global	HAL_JPEG_Decode_IT
	.syntax unified
	.thumb
	.thumb_func
	.type	HAL_JPEG_Decode_IT, %function
HAL_JPEG_Decode_IT:
.LFB347:
	.loc 1 1791 1 is_stmt 1
	.cfi_startproc
	@ args = 4, pretend = 0, frame = 0
	@ frame_needed = 0, uses_anonymous_args = 0
.LVL347:
	.loc 1 1793 3
	.loc 1 1794 3
	.loc 1 1797 3
	.loc 1 1797 6 is_stmt 0
	cmp	r1, #0
	it	ne
	cmpne	r0, #0
	beq	.L249
	.loc 1 1791 1 discriminator 1
	push	{r4, lr}
	.cfi_def_cfa_offset 8
	.cfi_offset 4, -8
	.cfi_offset 14, -4
	mov	r4, r1
	.loc 1 1797 43 discriminator 1
	cbz	r3, .L250
	.loc 1 1803 3 is_stmt 1
	.loc 1 1803 7
	.loc 1 1803 17 is_stmt 0
	ldrb	r1, [r0, #76]	@ zero_extendqisi2
.LVL348:
	.loc 1 1803 9
	cmp	r1, #1
	beq	.L251
	.loc 1 1803 67 is_stmt 1 discriminator 2
	.loc 1 1803 81 is_stmt 0 discriminator 2
	movs	r1, #1
	strb	r1, [r0, #76]
	.loc 1 1803 5 is_stmt 1 discriminator 2
	.loc 1 1805 3 discriminator 2
	.loc 1 1805 12 is_stmt 0 discriminator 2
	ldrb	r1, [r0, #77]	@ zero_extendqisi2
	uxtb	r1, r1
	.loc 1 1805 6 discriminator 2
	cmp	r1, #1
	beq	.L256
	.loc 1 1831 5 is_stmt 1
	.loc 1 1831 9
	.loc 1 1831 23 is_stmt 0
	movs	r3, #0
.LVL349:
	strb	r3, [r0, #76]
	.loc 1 1831 7 is_stmt 1
	.loc 1 1833 5
	.loc 1 1833 12 is_stmt 0
	movs	r0, #2
.LVL350:
.L247:
	.loc 1 1837 1
	pop	{r4, pc}
.LVL351:
.L256:
	.loc 1 1808 5 is_stmt 1
	.loc 1 1808 18 is_stmt 0
	movs	r1, #4
	strb	r1, [r0, #77]
	.loc 1 1811 5 is_stmt 1
	.loc 1 1811 10 is_stmt 0
	ldr	r1, [r0, #84]
	.loc 1 1811 20
	bic	r1, r1, #15
	str	r1, [r0, #84]
	.loc 1 1812 5 is_stmt 1
	.loc 1 1812 10 is_stmt 0
	ldr	r1, [r0, #84]
	.loc 1 1812 20
	orr	r1, r1, #10
	str	r1, [r0, #84]
	.loc 1 1815 5 is_stmt 1
	.loc 1 1815 27 is_stmt 0
	str	r4, [r0, #24]
	.loc 1 1816 5 is_stmt 1
	.loc 1 1816 28 is_stmt 0
	str	r3, [r0, #28]
	.loc 1 1817 5 is_stmt 1
	.loc 1 1817 40 is_stmt 0
	bic	r2, r2, #3
.LVL352:
	.loc 1 1817 25
	str	r2, [r0, #40]
	.loc 1 1818 5 is_stmt 1
	.loc 1 1818 42 is_stmt 0
	ldr	r3, [sp, #8]
.LVL353:
	bic	r3, r3, #3
	.loc 1 1818 26
	str	r3, [r0, #44]
	.loc 1 1821 5 is_stmt 1
	.loc 1 1821 24 is_stmt 0
	movs	r4, #0
.LVL354:
	str	r4, [r0, #32]
	.loc 1 1822 5 is_stmt 1
	.loc 1 1822 25 is_stmt 0
	str	r4, [r0, #36]
	.loc 1 1825 5 is_stmt 1
	bl	JPEG_Init_Process
.LVL355:
	.loc 1 1836 3
	.loc 1 1836 10 is_stmt 0
	mov	r0, r4
	b	.L247
.LVL356:
.L249:
	.cfi_def_cfa_offset 0
	.cfi_restore 4
	.cfi_restore 14
	.loc 1 1799 12
	movs	r0, #1
.LVL357:
	.loc 1 1837 1
	bx	lr
.LVL358:
.L250:
	.cfi_def_cfa_offset 8
	.cfi_offset 4, -8
	.cfi_offset 14, -4
	.loc 1 1799 12
	movs	r0, #1
.LVL359:
	b	.L247
.LVL360:
.L251:
	.loc 1 1803 48
	movs	r0, #2
.LVL361:
	b	.L247
	.cfi_endproc
.LFE347:
	.size	HAL_JPEG_Decode_IT, .-HAL_JPEG_Decode_IT
	.section	.text.HAL_JPEG_Encode_DMA,"ax",%progbits
	.align	1
	.global	HAL_JPEG_Encode_DMA
	.syntax unified
	.thumb
	.thumb_func
	.type	HAL_JPEG_Encode_DMA, %function
HAL_JPEG_Encode_DMA:
.LFB348:
	.loc 1 1851 1 is_stmt 1
	.cfi_startproc
	@ args = 4, pretend = 0, frame = 0
	@ frame_needed = 0, uses_anonymous_args = 0
.LVL362:
	push	{r4, r5, r6, lr}
	.cfi_def_cfa_offset 16
	.cfi_offset 4, -16
	.cfi_offset 5, -12
	.cfi_offset 6, -8
	.cfi_offset 14, -4
	.loc 1 1853 3
	.loc 1 1854 3
	.loc 1 1857 3
	.loc 1 1857 6 is_stmt 0
	cmp	r1, #0
	it	ne
	cmpne	r0, #0
	beq	.L261
	mov	r4, r0
	mov	r6, r1
	.loc 1 1857 46 discriminator 1
	cmp	r3, #0
	beq	.L262
	.loc 1 1863 3 is_stmt 1
	.loc 1 1863 7
	.loc 1 1863 17 is_stmt 0
	ldrb	r1, [r0, #76]	@ zero_extendqisi2
.LVL363:
	.loc 1 1863 9
	cmp	r1, #1
	beq	.L263
	.loc 1 1863 67 is_stmt 1 discriminator 2
	.loc 1 1863 81 is_stmt 0 discriminator 2
	movs	r1, #1
	strb	r1, [r0, #76]
	.loc 1 1863 5 is_stmt 1 discriminator 2
	.loc 1 1865 3 discriminator 2
	.loc 1 1865 12 is_stmt 0 discriminator 2
	ldrb	r5, [r0, #77]	@ zero_extendqisi2
	uxtb	r5, r5
	.loc 1 1865 6 discriminator 2
	cmp	r5, r1
	bne	.L266
	.loc 1 1874 5 is_stmt 1
	.loc 1 1874 15 is_stmt 0
	ldr	r1, [r0, #84]
	.loc 1 1874 8
	tst	r1, #256
	bne	.L267
	.loc 1 1911 7 is_stmt 1
	.loc 1 1911 11
	.loc 1 1911 25 is_stmt 0
	movs	r3, #0
.LVL364:
	strb	r3, [r0, #76]
	.loc 1 1911 9 is_stmt 1
	.loc 1 1913 7
	.loc 1 1913 14 is_stmt 0
	b	.L258
.LVL365:
.L266:
	.loc 1 1868 5 is_stmt 1
	.loc 1 1868 9
	.loc 1 1868 23 is_stmt 0
	movs	r3, #0
.LVL366:
	strb	r3, [r0, #76]
	.loc 1 1868 7 is_stmt 1
	.loc 1 1870 5
	.loc 1 1870 12 is_stmt 0
	movs	r5, #2
	b	.L258
.LVL367:
.L267:
	.loc 1 1877 7 is_stmt 1
	.loc 1 1877 20 is_stmt 0
	movs	r1, #3
	strb	r1, [r0, #77]
	.loc 1 1880 7 is_stmt 1
	.loc 1 1880 12 is_stmt 0
	ldr	r1, [r0, #84]
	.loc 1 1880 22
	bic	r1, r1, #15
	str	r1, [r0, #84]
	.loc 1 1881 7 is_stmt 1
	.loc 1 1881 12 is_stmt 0
	ldr	r1, [r0, #84]
	.loc 1 1881 22
	orr	r1, r1, #13
	str	r1, [r0, #84]
	.loc 1 1884 7 is_stmt 1
	.loc 1 1884 29 is_stmt 0
	str	r6, [r0, #24]
	.loc 1 1885 7 is_stmt 1
	.loc 1 1885 30 is_stmt 0
	str	r3, [r0, #28]
	.loc 1 1886 7 is_stmt 1
	.loc 1 1886 27 is_stmt 0
	str	r2, [r0, #40]
	.loc 1 1887 7 is_stmt 1
	.loc 1 1887 28 is_stmt 0
	ldr	r3, [sp, #16]
.LVL368:
	str	r3, [r0, #44]
	.loc 1 1890 7 is_stmt 1
	.loc 1 1890 26 is_stmt 0
	movs	r3, #0
	str	r3, [r0, #32]
	.loc 1 1891 7 is_stmt 1
	.loc 1 1891 27 is_stmt 0
	str	r3, [r0, #36]
	.loc 1 1894 7 is_stmt 1
	bl	JPEG_Init_Process
.LVL369:
	.loc 1 1897 7
	.loc 1 1897 11 is_stmt 0
	mov	r0, r4
	bl	JPEG_DMA_StartProcess
.LVL370:
	.loc 1 1897 10
	cbnz	r0, .L268
	.loc 1 1917 10
	mov	r5, r0
	b	.L258
.L268:
	.loc 1 1900 9 is_stmt 1
	.loc 1 1900 22 is_stmt 0
	movs	r3, #6
	strb	r3, [r4, #77]
	.loc 1 1902 9 is_stmt 1
	.loc 1 1902 13
	.loc 1 1902 27 is_stmt 0
	movs	r3, #0
	strb	r3, [r4, #76]
	.loc 1 1902 11 is_stmt 1
	.loc 1 1904 9
	.loc 1 1904 16 is_stmt 0
	b	.L258
.LVL371:
.L261:
	.loc 1 1859 12
	movs	r5, #1
.LVL372:
.L258:
	.loc 1 1918 1
	mov	r0, r5
	pop	{r4, r5, r6, pc}
.LVL373:
.L262:
	.loc 1 1859 12
	movs	r5, #1
	b	.L258
.LVL374:
.L263:
	.loc 1 1863 48
	movs	r5, #2
	b	.L258
	.cfi_endproc
.LFE348:
	.size	HAL_JPEG_Encode_DMA, .-HAL_JPEG_Encode_DMA
	.section	.text.HAL_JPEG_Decode_DMA,"ax",%progbits
	.align	1
	.global	HAL_JPEG_Decode_DMA
	.syntax unified
	.thumb
	.thumb_func
	.type	HAL_JPEG_Decode_DMA, %function
HAL_JPEG_Decode_DMA:
.LFB349:
	.loc 1 1932 1 is_stmt 1
	.cfi_startproc
	@ args = 4, pretend = 0, frame = 0
	@ frame_needed = 0, uses_anonymous_args = 0
.LVL375:
	.loc 1 1934 3
	.loc 1 1935 3
	.loc 1 1938 3
	.loc 1 1938 6 is_stmt 0
	cmp	r1, #0
	it	ne
	cmpne	r0, #0
	beq	.L272
	.loc 1 1932 1 discriminator 1
	push	{r4, r5, r6, lr}
	.cfi_def_cfa_offset 16
	.cfi_offset 4, -16
	.cfi_offset 5, -12
	.cfi_offset 6, -8
	.cfi_offset 14, -4
	mov	r4, r0
	mov	r6, r1
	.loc 1 1938 43 discriminator 1
	cmp	r3, #0
	beq	.L273
	.loc 1 1944 3 is_stmt 1
	.loc 1 1944 7
	.loc 1 1944 17 is_stmt 0
	ldrb	r1, [r0, #76]	@ zero_extendqisi2
.LVL376:
	.loc 1 1944 9
	cmp	r1, #1
	beq	.L274
	.loc 1 1944 67 is_stmt 1 discriminator 2
	.loc 1 1944 81 is_stmt 0 discriminator 2
	movs	r1, #1
	strb	r1, [r0, #76]
	.loc 1 1944 5 is_stmt 1 discriminator 2
	.loc 1 1946 3 discriminator 2
	.loc 1 1946 12 is_stmt 0 discriminator 2
	ldrb	r5, [r0, #77]	@ zero_extendqisi2
	uxtb	r5, r5
	.loc 1 1946 6 discriminator 2
	cmp	r5, r1
	beq	.L279
	.loc 1 1982 5 is_stmt 1
	.loc 1 1982 9
	.loc 1 1982 23 is_stmt 0
	movs	r3, #0
.LVL377:
	strb	r3, [r0, #76]
	.loc 1 1982 7 is_stmt 1
	.loc 1 1984 5
	.loc 1 1984 12 is_stmt 0
	movs	r0, #2
.LVL378:
.L270:
	.loc 1 1988 1
	pop	{r4, r5, r6, pc}
.LVL379:
.L279:
	.loc 1 1949 5 is_stmt 1
	.loc 1 1949 18 is_stmt 0
	movs	r1, #4
	strb	r1, [r0, #77]
	.loc 1 1952 5 is_stmt 1
	.loc 1 1952 10 is_stmt 0
	ldr	r1, [r0, #84]
	.loc 1 1952 20
	bic	r1, r1, #15
	str	r1, [r0, #84]
	.loc 1 1953 5 is_stmt 1
	.loc 1 1953 10 is_stmt 0
	ldr	r1, [r0, #84]
	.loc 1 1953 20
	orr	r1, r1, #14
	str	r1, [r0, #84]
	.loc 1 1956 5 is_stmt 1
	.loc 1 1956 27 is_stmt 0
	str	r6, [r0, #24]
	.loc 1 1957 5 is_stmt 1
	.loc 1 1957 28 is_stmt 0
	str	r3, [r0, #28]
	.loc 1 1958 5 is_stmt 1
	.loc 1 1958 25 is_stmt 0
	str	r2, [r0, #40]
	.loc 1 1959 5 is_stmt 1
	.loc 1 1959 26 is_stmt 0
	ldr	r3, [sp, #16]
.LVL380:
	str	r3, [r0, #44]
	.loc 1 1962 5 is_stmt 1
	.loc 1 1962 24 is_stmt 0
	movs	r3, #0
	str	r3, [r0, #32]
	.loc 1 1963 5 is_stmt 1
	.loc 1 1963 25 is_stmt 0
	str	r3, [r0, #36]
	.loc 1 1966 5 is_stmt 1
	bl	JPEG_Init_Process
.LVL381:
	.loc 1 1969 5
	.loc 1 1969 9 is_stmt 0
	mov	r0, r4
	bl	JPEG_DMA_StartProcess
.LVL382:
	.loc 1 1969 8
	cmp	r0, #0
	beq	.L270
	.loc 1 1972 7 is_stmt 1
	.loc 1 1972 20 is_stmt 0
	movs	r3, #6
	strb	r3, [r4, #77]
	.loc 1 1974 7 is_stmt 1
	.loc 1 1974 11
	.loc 1 1974 25 is_stmt 0
	movs	r3, #0
	strb	r3, [r4, #76]
	.loc 1 1974 9 is_stmt 1
	.loc 1 1976 7
	.loc 1 1976 14 is_stmt 0
	mov	r0, r5
	b	.L270
.LVL383:
.L272:
	.cfi_def_cfa_offset 0
	.cfi_restore 4
	.cfi_restore 5
	.cfi_restore 6
	.cfi_restore 14
	.loc 1 1940 12
	movs	r0, #1
.LVL384:
	.loc 1 1988 1
	bx	lr
.LVL385:
.L273:
	.cfi_def_cfa_offset 16
	.cfi_offset 4, -16
	.cfi_offset 5, -12
	.cfi_offset 6, -8
	.cfi_offset 14, -4
	.loc 1 1940 12
	movs	r0, #1
.LVL386:
	b	.L270
.LVL387:
.L274:
	.loc 1 1944 48
	movs	r0, #2
.LVL388:
	b	.L270
	.cfi_endproc
.LFE349:
	.size	HAL_JPEG_Decode_DMA, .-HAL_JPEG_Decode_DMA
	.section	.text.HAL_JPEG_Pause,"ax",%progbits
	.align	1
	.global	HAL_JPEG_Pause
	.syntax unified
	.thumb
	.thumb_func
	.type	HAL_JPEG_Pause, %function
HAL_JPEG_Pause:
.LFB350:
	.loc 1 2001 1 is_stmt 1
	.cfi_startproc
	@ args = 0, pretend = 0, frame = 0
	@ frame_needed = 0, uses_anonymous_args = 0
	@ link register save eliminated.
.LVL389:
	.loc 1 2002 3
	.loc 1 2004 3
	.loc 1 2006 3
	.loc 1 2006 13 is_stmt 0
	ldr	r3, [r0, #84]
	.loc 1 2006 23
	and	r3, r3, #12
	.loc 1 2006 6
	cmp	r3, #12
	beq	.L286
	.loc 1 2018 8 is_stmt 1
	.loc 1 2018 18 is_stmt 0
	ldr	r3, [r0, #84]
	.loc 1 2018 28
	and	r3, r3, #12
	.loc 1 2018 11
	cmp	r3, #8
	beq	.L287
.LVL390:
.L283:
	.loc 1 2037 3 is_stmt 1
	.loc 1 2040 3
	.loc 1 2041 1 is_stmt 0
	movs	r0, #0
.LVL391:
	bx	lr
.LVL392:
.L286:
	.loc 1 2008 5 is_stmt 1
	.loc 1 2008 8 is_stmt 0
	tst	r1, #1
	beq	.L282
	.loc 1 2010 7 is_stmt 1
	.loc 1 2010 12 is_stmt 0
	ldr	r3, [r0, #84]
	.loc 1 2010 22
	orr	r3, r3, #4096
	str	r3, [r0, #84]
.L282:
	.loc 1 2012 5 is_stmt 1
	.loc 1 2012 8 is_stmt 0
	tst	r1, #2
	beq	.L283
	.loc 1 2014 7 is_stmt 1
	.loc 1 2014 12 is_stmt 0
	ldr	r3, [r0, #84]
	.loc 1 2014 22
	orr	r3, r3, #8192
	str	r3, [r0, #84]
	b	.L283
.L287:
	.loc 1 2021 5 is_stmt 1
	.loc 1 2021 8 is_stmt 0
	ands	r2, r1, #1
	beq	.L284
	.loc 1 2023 7 is_stmt 1
	.loc 1 2023 12 is_stmt 0
	ldr	r3, [r0, #84]
	.loc 1 2023 22
	orr	r3, r3, #4096
	str	r3, [r0, #84]
	.loc 1 2024 7 is_stmt 1
.LVL393:
	.loc 1 2024 12 is_stmt 0
	movs	r2, #6
.LVL394:
.L284:
	.loc 1 2026 5 is_stmt 1
	.loc 1 2026 8 is_stmt 0
	tst	r1, #2
	beq	.L285
	.loc 1 2028 7 is_stmt 1
	.loc 1 2028 12 is_stmt 0
	ldr	r3, [r0, #84]
	.loc 1 2028 22
	orr	r3, r3, #8192
	str	r3, [r0, #84]
	.loc 1 2029 7 is_stmt 1
	.loc 1 2029 12 is_stmt 0
	orr	r2, r2, #40
.LVL395:
.L285:
	.loc 1 2031 5 is_stmt 1
	.loc 1 2031 47 is_stmt 0
	ldr	r1, [r0]
.LVL396:
	.loc 1 2031 57
	ldr	r3, [r1, #48]
	.loc 1 2031 65
	bic	r3, r3, r2
	.loc 1 2031 32
	str	r3, [r1, #48]
	b	.L283
	.cfi_endproc
.LFE350:
	.size	HAL_JPEG_Pause, .-HAL_JPEG_Pause
	.section	.text.HAL_JPEG_ConfigInputBuffer,"ax",%progbits
	.align	1
	.global	HAL_JPEG_ConfigInputBuffer
	.syntax unified
	.thumb
	.thumb_func
	.type	HAL_JPEG_ConfigInputBuffer, %function
HAL_JPEG_ConfigInputBuffer:
.LFB352:
	.loc 1 2174 1 is_stmt 1
	.cfi_startproc
	@ args = 0, pretend = 0, frame = 0
	@ frame_needed = 0, uses_anonymous_args = 0
	@ link register save eliminated.
.LVL397:
	.loc 1 2175 3
	.loc 1 2175 25 is_stmt 0
	str	r1, [r0, #24]
	.loc 1 2176 3 is_stmt 1
	.loc 1 2176 23 is_stmt 0
	str	r2, [r0, #40]
	.loc 1 2177 1
	bx	lr
	.cfi_endproc
.LFE352:
	.size	HAL_JPEG_ConfigInputBuffer, .-HAL_JPEG_ConfigInputBuffer
	.section	.text.HAL_JPEG_ConfigOutputBuffer,"ax",%progbits
	.align	1
	.global	HAL_JPEG_ConfigOutputBuffer
	.syntax unified
	.thumb
	.thumb_func
	.type	HAL_JPEG_ConfigOutputBuffer, %function
HAL_JPEG_ConfigOutputBuffer:
.LFB353:
	.loc 1 2188 1 is_stmt 1
	.cfi_startproc
	@ args = 0, pretend = 0, frame = 0
	@ frame_needed = 0, uses_anonymous_args = 0
	@ link register save eliminated.
.LVL398:
	.loc 1 2189 3
	.loc 1 2189 26 is_stmt 0
	str	r1, [r0, #28]
	.loc 1 2190 3 is_stmt 1
	.loc 1 2190 24 is_stmt 0
	str	r2, [r0, #44]
	.loc 1 2191 1
	bx	lr
	.cfi_endproc
.LFE353:
	.size	HAL_JPEG_ConfigOutputBuffer, .-HAL_JPEG_ConfigOutputBuffer
	.section	.text.HAL_JPEG_Abort,"ax",%progbits
	.align	1
	.global	HAL_JPEG_Abort
	.syntax unified
	.thumb
	.thumb_func
	.type	HAL_JPEG_Abort, %function
HAL_JPEG_Abort:
.LFB354:
	.loc 1 2200 1 is_stmt 1
	.cfi_startproc
	@ args = 0, pretend = 0, frame = 0
	@ frame_needed = 0, uses_anonymous_args = 0
.LVL399:
	push	{r3, r4, r5, lr}
	.cfi_def_cfa_offset 16
	.cfi_offset 3, -16
	.cfi_offset 4, -12
	.cfi_offset 5, -8
	.cfi_offset 14, -4
	mov	r4, r0
	.loc 1 2201 3
	.loc 1 2202 3
	.loc 1 2203 3
	.loc 1 2203 14 is_stmt 0
	ldr	r3, [r0, #84]
.LVL400:
	.loc 1 2206 3 is_stmt 1
	.loc 1 2206 8 is_stmt 0
	ldr	r1, [r0, #84]
	.loc 1 2206 18
	ldr	r2, .L301
	ands	r2, r2, r1
	str	r2, [r0, #84]
	.loc 1 2208 3 is_stmt 1
	.loc 1 2208 19 is_stmt 0
	and	r3, r3, #12
.LVL401:
	.loc 1 2208 6
	cmp	r3, #12
	beq	.L299
.LVL402:
.L291:
	.loc 1 2229 3 is_stmt 1
	.loc 1 2229 8 is_stmt 0
	ldr	r2, [r4]
	.loc 1 2229 18
	ldr	r3, [r2]
	.loc 1 2229 27
	bic	r3, r3, #1
	str	r3, [r2]
	.loc 1 2232 3 is_stmt 1
	.loc 1 2232 15 is_stmt 0
	bl	HAL_GetTick
.LVL403:
	mov	r5, r0
.LVL404:
	.loc 1 2235 3 is_stmt 1
.L293:
	.loc 1 2235 68
	.loc 1 2235 19 is_stmt 0
	ldr	r3, [r4]
	.loc 1 2235 29
	ldr	r3, [r3, #52]
	.loc 1 2235 68
	tst	r3, #128
	beq	.L294
	.loc 1 2238 5 is_stmt 1
	.loc 1 2238 10 is_stmt 0
	bl	HAL_GetTick
.LVL405:
	.loc 1 2238 24
	subs	r0, r0, r5
	.loc 1 2238 8
	cmp	r0, #1000
	bls	.L293
	.loc 1 2241 7 is_stmt 1
	.loc 1 2241 12 is_stmt 0
	ldr	r3, [r4, #80]
	.loc 1 2241 24
	orr	r3, r3, #8
	str	r3, [r4, #80]
	.loc 1 2244 7 is_stmt 1
	.loc 1 2244 20 is_stmt 0
	movs	r3, #6
	strb	r3, [r4, #77]
	.loc 1 2245 7 is_stmt 1
.L294:
	.loc 1 2250 3
	.loc 1 2250 45 is_stmt 0
	ldr	r2, [r4]
	.loc 1 2250 55
	ldr	r3, [r2, #48]
	.loc 1 2250 97
	bic	r3, r3, #126
	.loc 1 2250 30
	str	r3, [r2, #48]
	.loc 1 2254 3 is_stmt 1
	.loc 1 2254 8 is_stmt 0
	ldr	r2, [r4]
	.loc 1 2254 18
	ldr	r3, [r2, #48]
	.loc 1 2254 23
	orr	r3, r3, #8192
	str	r3, [r2, #48]
	.loc 1 2255 3 is_stmt 1
	.loc 1 2255 8 is_stmt 0
	ldr	r2, [r4]
	.loc 1 2255 18
	ldr	r3, [r2, #48]
	.loc 1 2255 23
	orr	r3, r3, #16384
	str	r3, [r2, #48]
	.loc 1 2258 3 is_stmt 1
	.loc 1 2258 12 is_stmt 0
	ldr	r2, [r4]
	.loc 1 2258 22
	ldr	r3, [r2, #56]
	.loc 1 2258 28
	orr	r3, r3, #96
	str	r3, [r2, #56]
	.loc 1 2261 3 is_stmt 1
	.loc 1 2261 22 is_stmt 0
	movs	r3, #0
	str	r3, [r4, #32]
	.loc 1 2262 3 is_stmt 1
	.loc 1 2262 23 is_stmt 0
	str	r3, [r4, #36]
	.loc 1 2265 3 is_stmt 1
	.loc 1 2265 8 is_stmt 0
	ldr	r3, [r4, #84]
	.loc 1 2265 18
	bic	r3, r3, #12288
	str	r3, [r4, #84]
	.loc 1 2268 3 is_stmt 1
	.loc 1 2268 12 is_stmt 0
	ldr	r3, [r4, #80]
	.loc 1 2268 6
	cbz	r3, .L296
	.loc 1 2270 5 is_stmt 1
	.loc 1 2270 18 is_stmt 0
	movs	r3, #6
	strb	r3, [r4, #77]
	.loc 1 2272 5 is_stmt 1
	.loc 1 2272 9
	.loc 1 2272 23 is_stmt 0
	movs	r3, #0
	strb	r3, [r4, #76]
	.loc 1 2272 7 is_stmt 1
	.loc 1 2274 5
	.loc 1 2274 12 is_stmt 0
	movs	r0, #1
.L297:
	.loc 1 2285 1
	pop	{r3, r4, r5, pc}
.LVL406:
.L299:
	.loc 1 2211 5 is_stmt 1
	.loc 1 2211 9 is_stmt 0
	ldr	r0, [r0, #52]
.LVL407:
	bl	HAL_MDMA_Abort
.LVL408:
	.loc 1 2211 8
	cbz	r0, .L292
	.loc 1 2213 7 is_stmt 1
	.loc 1 2213 16 is_stmt 0
	ldr	r3, [r4, #52]
	.loc 1 2213 25
	ldr	r3, [r3, #104]
	.loc 1 2213 10
	cmp	r3, #64
	beq	.L300
.L292:
	.loc 1 2218 5 is_stmt 1
	.loc 1 2218 9 is_stmt 0
	ldr	r0, [r4, #48]
	bl	HAL_MDMA_Abort
.LVL409:
	.loc 1 2218 8
	cmp	r0, #0
	beq	.L291
	.loc 1 2220 7 is_stmt 1
	.loc 1 2220 16 is_stmt 0
	ldr	r3, [r4, #48]
	.loc 1 2220 24
	ldr	r3, [r3, #104]
	.loc 1 2220 10
	cmp	r3, #64
	bne	.L291
	.loc 1 2222 9 is_stmt 1
	.loc 1 2222 14 is_stmt 0
	ldr	r3, [r4, #80]
	.loc 1 2222 26
	orr	r3, r3, #4
	str	r3, [r4, #80]
	b	.L291
.L300:
	.loc 1 2215 9 is_stmt 1
	.loc 1 2215 14 is_stmt 0
	ldr	r3, [r4, #80]
	.loc 1 2215 26
	orr	r3, r3, #4
	str	r3, [r4, #80]
	b	.L292
.LVL410:
.L296:
	.loc 1 2278 5 is_stmt 1
	.loc 1 2278 18 is_stmt 0
	movs	r3, #1
	strb	r3, [r4, #77]
	.loc 1 2280 5 is_stmt 1
	.loc 1 2280 9
	.loc 1 2280 23 is_stmt 0
	movs	r0, #0
	strb	r0, [r4, #76]
	.loc 1 2280 7 is_stmt 1
	.loc 1 2282 5
	.loc 1 2282 12 is_stmt 0
	b	.L297
.L302:
	.align	2
.L301:
	.word	-32784
	.cfi_endproc
.LFE354:
	.size	HAL_JPEG_Abort, .-HAL_JPEG_Abort
	.section	.text.HAL_JPEG_InfoReadyCallback,"ax",%progbits
	.align	1
	.weak	HAL_JPEG_InfoReadyCallback
	.syntax unified
	.thumb
	.thumb_func
	.type	HAL_JPEG_InfoReadyCallback, %function
HAL_JPEG_InfoReadyCallback:
.LFB355:
	.loc 1 2320 1 is_stmt 1
	.cfi_startproc
	@ args = 0, pretend = 0, frame = 0
	@ frame_needed = 0, uses_anonymous_args = 0
	@ link register save eliminated.
.LVL411:
	.loc 1 2322 3
	.loc 1 2323 3
	.loc 1 2328 1 is_stmt 0
	bx	lr
	.cfi_endproc
.LFE355:
	.size	HAL_JPEG_InfoReadyCallback, .-HAL_JPEG_InfoReadyCallback
	.section	.text.HAL_JPEG_EncodeCpltCallback,"ax",%progbits
	.align	1
	.weak	HAL_JPEG_EncodeCpltCallback
	.syntax unified
	.thumb
	.thumb_func
	.type	HAL_JPEG_EncodeCpltCallback, %function
HAL_JPEG_EncodeCpltCallback:
.LFB356:
	.loc 1 2337 1 is_stmt 1
	.cfi_startproc
	@ args = 0, pretend = 0, frame = 0
	@ frame_needed = 0, uses_anonymous_args = 0
	@ link register save eliminated.
.LVL412:
	.loc 1 2339 3
	.loc 1 2344 1 is_stmt 0
	bx	lr
	.cfi_endproc
.LFE356:
	.size	HAL_JPEG_EncodeCpltCallback, .-HAL_JPEG_EncodeCpltCallback
	.section	.text.HAL_JPEG_DecodeCpltCallback,"ax",%progbits
	.align	1
	.weak	HAL_JPEG_DecodeCpltCallback
	.syntax unified
	.thumb
	.thumb_func
	.type	HAL_JPEG_DecodeCpltCallback, %function
HAL_JPEG_DecodeCpltCallback:
.LFB357:
	.loc 1 2353 1 is_stmt 1
	.cfi_startproc
	@ args = 0, pretend = 0, frame = 0
	@ frame_needed = 0, uses_anonymous_args = 0
	@ link register save eliminated.
.LVL413:
	.loc 1 2355 3
	.loc 1 2360 1 is_stmt 0
	bx	lr
	.cfi_endproc
.LFE357:
	.size	HAL_JPEG_DecodeCpltCallback, .-HAL_JPEG_DecodeCpltCallback
	.section	.text.HAL_JPEG_ErrorCallback,"ax",%progbits
	.align	1
	.weak	HAL_JPEG_ErrorCallback
	.syntax unified
	.thumb
	.thumb_func
	.type	HAL_JPEG_ErrorCallback, %function
HAL_JPEG_ErrorCallback:
.LFB358:
	.loc 1 2369 1 is_stmt 1
	.cfi_startproc
	@ args = 0, pretend = 0, frame = 0
	@ frame_needed = 0, uses_anonymous_args = 0
	@ link register save eliminated.
.LVL414:
	.loc 1 2371 3
	.loc 1 2376 1 is_stmt 0
	bx	lr
	.cfi_endproc
.LFE358:
	.size	HAL_JPEG_ErrorCallback, .-HAL_JPEG_ErrorCallback
	.section	.text.JPEG_MDMAErrorCallback,"ax",%progbits
	.align	1
	.syntax unified
	.thumb
	.thumb_func
	.type	JPEG_MDMAErrorCallback, %function
JPEG_MDMAErrorCallback:
.LFB385:
	.loc 1 4104 1 is_stmt 1
	.cfi_startproc
	@ args = 0, pretend = 0, frame = 0
	@ frame_needed = 0, uses_anonymous_args = 0
.LVL415:
	push	{r3, lr}
	.cfi_def_cfa_offset 8
	.cfi_offset 3, -8
	.cfi_offset 14, -4
	.loc 1 4105 3
	.loc 1 4105 23 is_stmt 0
	ldr	r0, [r0, #64]
.LVL416:
	.loc 1 4108 3 is_stmt 1
	.loc 1 4108 8 is_stmt 0
	ldr	r2, [r0]
	.loc 1 4108 18
	ldr	r3, [r2]
	.loc 1 4108 27
	bic	r3, r3, #1
	str	r3, [r2]
	.loc 1 4111 3 is_stmt 1
	.loc 1 4111 45 is_stmt 0
	ldr	r2, [r0]
	.loc 1 4111 55
	ldr	r3, [r2, #48]
	.loc 1 4111 97
	bic	r3, r3, #126
	.loc 1 4111 30
	str	r3, [r2, #48]
	.loc 1 4113 3 is_stmt 1
	.loc 1 4113 16 is_stmt 0
	movs	r3, #1
	strb	r3, [r0, #77]
	.loc 1 4114 3 is_stmt 1
	.loc 1 4114 8 is_stmt 0
	ldr	r3, [r0, #80]
	.loc 1 4114 20
	orr	r3, r3, #4
	str	r3, [r0, #80]
	.loc 1 4119 3 is_stmt 1
	bl	HAL_JPEG_ErrorCallback
.LVL417:
	.loc 1 4121 1 is_stmt 0
	pop	{r3, pc}
	.cfi_endproc
.LFE385:
	.size	JPEG_MDMAErrorCallback, .-JPEG_MDMAErrorCallback
	.section	.text.HAL_JPEG_GetDataCallback,"ax",%progbits
	.align	1
	.weak	HAL_JPEG_GetDataCallback
	.syntax unified
	.thumb
	.thumb_func
	.type	HAL_JPEG_GetDataCallback, %function
HAL_JPEG_GetDataCallback:
.LFB359:
	.loc 1 2386 1 is_stmt 1
	.cfi_startproc
	@ args = 0, pretend = 0, frame = 0
	@ frame_needed = 0, uses_anonymous_args = 0
	@ link register save eliminated.
.LVL418:
	.loc 1 2388 3
	.loc 1 2389 3
	.loc 1 2394 1 is_stmt 0
	bx	lr
	.cfi_endproc
.LFE359:
	.size	HAL_JPEG_GetDataCallback, .-HAL_JPEG_GetDataCallback
	.section	.text.JPEG_ReadInputData,"ax",%progbits
	.align	1
	.syntax unified
	.thumb
	.thumb_func
	.type	JPEG_ReadInputData, %function
JPEG_ReadInputData:
.LFB378:
	.loc 1 3568 1 is_stmt 1
	.cfi_startproc
	@ args = 0, pretend = 0, frame = 0
	@ frame_needed = 0, uses_anonymous_args = 0
.LVL419:
	push	{r3, r4, r5, lr}
	.cfi_def_cfa_offset 16
	.cfi_offset 3, -16
	.cfi_offset 4, -12
	.cfi_offset 5, -8
	.cfi_offset 14, -4
	mov	r4, r0
	mov	r5, r1
	.loc 1 3569 3
.LVL420:
	.loc 1 3570 3
	.loc 1 3571 3
	.loc 1 3572 3
	.loc 1 3573 3
	.loc 1 3575 3
	.loc 1 3575 13 is_stmt 0
	ldr	r3, [r0, #40]
	.loc 1 3575 6
	cbz	r3, .L311
	.loc 1 3575 36 discriminator 1
	cbnz	r1, .L312
.L311:
	.loc 1 3578 5 is_stmt 1
	.loc 1 3578 12 is_stmt 0
	movs	r1, #1
.LVL421:
	mov	r0, r4
.LVL422:
	bl	HAL_JPEG_Pause
.LVL423:
	.loc 1 3569 12
	movs	r2, #0
.LVL424:
.L313:
	.loc 1 3603 3 is_stmt 1
	.loc 1 3604 3
	.loc 1 3604 14 is_stmt 0
	ldr	r3, [r4, #84]
	.loc 1 3604 6
	ands	r3, r3, #4096
	bne	.L310
	.loc 1 3604 58 discriminator 1
	cmp	r2, #0
	beq	.L310
	.loc 1 3606 5 is_stmt 1
	.loc 1 3606 14 is_stmt 0
	lsr	ip, r2, #2
.LVL425:
	.loc 1 3607 5 is_stmt 1
	.loc 1 3607 8 is_stmt 0
	cmp	r5, r2, lsr #2
	bls	.L317
	.loc 1 3622 7 is_stmt 1
	.loc 1 3622 10 is_stmt 0
	cmp	r2, #3
	bhi	.L320
	.loc 1 3638 18
	mov	r5, r3
.LVL426:
	b	.L321
.LVL427:
.L312:
	.loc 1 3580 8 is_stmt 1
	.loc 1 3580 39 is_stmt 0
	ldr	r2, [r0, #32]
	.loc 1 3580 11
	cmp	r3, r2
	bls	.L314
	.loc 1 3582 5 is_stmt 1
	.loc 1 3582 43 is_stmt 0
	ldr	r2, [r0, #32]
	.loc 1 3582 14
	subs	r2, r3, r2
.LVL428:
	b	.L313
.LVL429:
.L314:
	.loc 1 3584 8 is_stmt 1
	.loc 1 3584 40 is_stmt 0
	ldr	r2, [r0, #32]
	.loc 1 3584 11
	cmp	r3, r2
	beq	.L327
	.loc 1 3569 12
	movs	r2, #0
	b	.L313
.L327:
	.loc 1 3590 5 is_stmt 1
	.loc 1 3590 42 is_stmt 0
	ldr	r1, [r0, #32]
.LVL430:
	.loc 1 3590 5
	bl	HAL_JPEG_GetDataCallback
.LVL431:
	.loc 1 3593 5 is_stmt 1
	.loc 1 3593 14 is_stmt 0
	ldr	r3, [r4, #40]
	.loc 1 3593 8
	cmp	r3, #4
	bls	.L315
	.loc 1 3595 7 is_stmt 1
	.loc 1 3595 49 is_stmt 0
	bic	r3, r3, #3
	.loc 1 3595 27
	str	r3, [r4, #40]
.L315:
	.loc 1 3597 5 is_stmt 1
	.loc 1 3597 24 is_stmt 0
	movs	r3, #0
	str	r3, [r4, #32]
	.loc 1 3598 5 is_stmt 1
	.loc 1 3598 14 is_stmt 0
	ldr	r2, [r4, #40]
.LVL432:
	b	.L313
.LVL433:
.L319:
	.loc 1 3611 9 is_stmt 1 discriminator 3
	.loc 1 3611 21 is_stmt 0 discriminator 3
	ldr	r1, [r4, #32]
.LVL434:
	.loc 1 3612 9 is_stmt 1 discriminator 3
	.loc 1 3612 50 is_stmt 0 discriminator 3
	ldr	r0, [r4, #24]
	.loc 1 3612 66 discriminator 3
	ldrb	r2, [r0, r1]	@ zero_extendqisi2
	.loc 1 3613 67 discriminator 3
	add	r0, r0, r1
	ldrb	r1, [r0, #1]	@ zero_extendqisi2
.LVL435:
	.loc 1 3612 82 discriminator 3
	orr	r2, r2, r1, lsl #8
	.loc 1 3614 67 discriminator 3
	ldrb	r1, [r0, #2]	@ zero_extendqisi2
	.loc 1 3613 95 discriminator 3
	orr	r2, r2, r1, lsl #16
	.loc 1 3615 67 discriminator 3
	ldrb	r0, [r0, #3]	@ zero_extendqisi2
	.loc 1 3612 14 discriminator 3
	ldr	r1, [r4]
	.loc 1 3614 96 discriminator 3
	orr	r2, r2, r0, lsl #24
	.loc 1 3612 30 discriminator 3
	str	r2, [r1, #64]
	.loc 1 3617 9 is_stmt 1 discriminator 3
	.loc 1 3617 14 is_stmt 0 discriminator 3
	ldr	r2, [r4, #32]
	.loc 1 3617 28 discriminator 3
	adds	r2, r2, #4
	str	r2, [r4, #32]
	.loc 1 3609 52 is_stmt 1 discriminator 3
	adds	r3, r3, #1
.LVL436:
.L317:
	.loc 1 3609 29 discriminator 1
	cmp	r3, r5
	bcc	.L319
.LVL437:
.L310:
	.loc 1 3648 1 is_stmt 0
	pop	{r3, r4, r5, pc}
.LVL438:
.L320:
	.loc 1 3624 31 is_stmt 1 discriminator 1
	cmp	r3, ip
	bcs	.L310
	.loc 1 3626 11 discriminator 3
	.loc 1 3626 23 is_stmt 0 discriminator 3
	ldr	r0, [r4, #32]
.LVL439:
	.loc 1 3627 11 is_stmt 1 discriminator 3
	.loc 1 3627 52 is_stmt 0 discriminator 3
	ldr	r1, [r4, #24]
	.loc 1 3627 68 discriminator 3
	ldrb	r2, [r1, r0]	@ zero_extendqisi2
	.loc 1 3628 69 discriminator 3
	add	r1, r1, r0
	ldrb	r0, [r1, #1]	@ zero_extendqisi2
.LVL440:
	.loc 1 3627 84 discriminator 3
	orr	r2, r2, r0, lsl #8
	.loc 1 3629 69 discriminator 3
	ldrb	r0, [r1, #2]	@ zero_extendqisi2
	.loc 1 3628 97 discriminator 3
	orr	r2, r2, r0, lsl #16
	.loc 1 3630 69 discriminator 3
	ldrb	r0, [r1, #3]	@ zero_extendqisi2
	.loc 1 3627 16 discriminator 3
	ldr	r1, [r4]
	.loc 1 3629 98 discriminator 3
	orr	r2, r2, r0, lsl #24
	.loc 1 3627 32 discriminator 3
	str	r2, [r1, #64]
	.loc 1 3632 11 is_stmt 1 discriminator 3
	.loc 1 3632 16 is_stmt 0 discriminator 3
	ldr	r2, [r4, #32]
	.loc 1 3632 30 discriminator 3
	adds	r2, r2, #4
	str	r2, [r4, #32]
	.loc 1 3624 48 is_stmt 1 discriminator 3
	adds	r3, r3, #1
.LVL441:
	b	.L320
.LVL442:
.L323:
	.loc 1 3641 11 discriminator 3
	.loc 1 3641 38 is_stmt 0 discriminator 3
	ldr	r0, [r4, #24]
	.loc 1 3641 60 discriminator 3
	ldr	r1, [r4, #32]
	.loc 1 3641 54 discriminator 3
	ldrb	r1, [r0, r1]	@ zero_extendqisi2
	.loc 1 3641 92 discriminator 3
	and	r0, r3, #3
	.loc 1 3641 83 discriminator 3
	lsls	r0, r0, #3
	.loc 1 3641 75 discriminator 3
	lsls	r1, r1, r0
	.loc 1 3641 20 discriminator 3
	orrs	r5, r5, r1
.LVL443:
	.loc 1 3642 11 is_stmt 1 discriminator 3
	.loc 1 3642 16 is_stmt 0 discriminator 3
	ldr	r1, [r4, #32]
	.loc 1 3642 29 discriminator 3
	adds	r1, r1, #1
	str	r1, [r4, #32]
	.loc 1 3639 48 is_stmt 1 discriminator 3
	adds	r3, r3, #1
.LVL444:
.L321:
	.loc 1 3639 31 discriminator 1
	cmp	r2, r3
	bhi	.L323
	.loc 1 3644 9
	.loc 1 3644 14 is_stmt 0
	ldr	r3, [r4]
.LVL445:
	.loc 1 3644 30
	str	r5, [r3, #64]
	.loc 1 3648 1
	b	.L310
	.cfi_endproc
.LFE378:
	.size	JPEG_ReadInputData, .-JPEG_ReadInputData
	.section	.text.JPEG_MDMAInCpltCallback,"ax",%progbits
	.align	1
	.syntax unified
	.thumb
	.thumb_func
	.type	JPEG_MDMAInCpltCallback, %function
JPEG_MDMAInCpltCallback:
.LFB383:
	.loc 1 3965 1 is_stmt 1
	.cfi_startproc
	@ args = 0, pretend = 0, frame = 0
	@ frame_needed = 0, uses_anonymous_args = 0
.LVL446:
	push	{r4, r5, lr}
	.cfi_def_cfa_offset 12
	.cfi_offset 4, -12
	.cfi_offset 5, -8
	.cfi_offset 14, -4
	sub	sp, sp, #12
	.cfi_def_cfa_offset 24
	.loc 1 3966 3
	.loc 1 3968 3
	.loc 1 3968 23 is_stmt 0
	ldr	r4, [r0, #64]
.LVL447:
	.loc 1 3971 3 is_stmt 1
	.loc 1 3971 45 is_stmt 0
	ldr	r2, [r4]
	.loc 1 3971 55
	ldr	r3, [r2, #48]
	.loc 1 3971 97
	bic	r3, r3, #126
	.loc 1 3971 30
	str	r3, [r2, #48]
	.loc 1 3974 3 is_stmt 1
	.loc 1 3974 13 is_stmt 0
	ldr	r3, [r4, #84]
	.loc 1 3974 23
	bic	r3, r3, #32640
	bic	r3, r3, #115
	lsls	r3, r3, #16
	lsrs	r3, r3, #16
	.loc 1 3974 6
	cmp	r3, #12
	beq	.L335
.LVL448:
.L328:
	.loc 1 4045 1
	add	sp, sp, #12
	.cfi_remember_state
	.cfi_def_cfa_offset 12
	@ sp needed
	pop	{r4, r5, pc}
.LVL449:
.L335:
	.cfi_restore_state
	.loc 1 3982 5 is_stmt 1
	.loc 1 3982 22 is_stmt 0
	ldr	r3, [r4, #48]
	.loc 1 3982 15
	ldr	r5, [r3, #40]
.LVL450:
	.loc 1 3984 5 is_stmt 1
	.loc 1 3984 31 is_stmt 0
	ldr	r3, [r4, #40]
	.loc 1 3984 54
	ldr	r2, [r0]
	.loc 1 3984 64
	ldr	r2, [r2, #20]
	.loc 1 3984 73
	ubfx	r2, r2, #0, #17
	.loc 1 3984 46
	subs	r3, r3, r2
	.loc 1 3984 24
	str	r3, [r4, #32]
	.loc 1 3990 5 is_stmt 1
	.loc 1 3990 42 is_stmt 0
	ldr	r1, [r4, #32]
	.loc 1 3990 5
	mov	r0, r4
.LVL451:
	bl	HAL_JPEG_GetDataCallback
.LVL452:
	.loc 1 3994 5 is_stmt 1
	.loc 1 3994 14 is_stmt 0
	ldr	r3, [r4, #40]
	.loc 1 3994 8
	cmp	r3, r5
	bcc	.L330
	.loc 1 3996 7 is_stmt 1
	.loc 1 3996 10 is_stmt 0
	cbz	r5, .L336
	.loc 1 4009 7 is_stmt 1
	.loc 1 4009 72 is_stmt 0
	udiv	r2, r3, r5
	mls	r2, r5, r2, r3
	.loc 1 4009 49
	subs	r3, r3, r2
	.loc 1 4009 27
	str	r3, [r4, #40]
.L332:
	.loc 1 4023 5 is_stmt 1
	.loc 1 4025 5
	.loc 1 4025 16 is_stmt 0
	ldr	r3, [r4, #84]
	.loc 1 4025 8
	tst	r3, #4096
	bne	.L333
	.loc 1 4025 69 discriminator 1
	ldr	r3, [r4, #40]
	.loc 1 4025 60 discriminator 1
	cbnz	r3, .L337
.LVL453:
.L333:
	.loc 1 4043 5 is_stmt 1
	.loc 1 4043 13 is_stmt 0
	ldr	r2, [r4]
	.loc 1 4043 23
	ldr	r3, [r2, #48]
	.loc 1 4043 28
	orr	r3, r3, #96
	str	r3, [r2, #48]
	b	.L328
.LVL454:
.L336:
	.loc 1 3998 9 is_stmt 1
	.loc 1 3998 14 is_stmt 0
	ldr	r3, [r4, #80]
	.loc 1 3998 26
	orr	r3, r3, #4
	str	r3, [r4, #80]
	.loc 1 3999 9 is_stmt 1
	.loc 1 3999 22 is_stmt 0
	movs	r3, #6
	strb	r3, [r4, #77]
	.loc 1 4003 9 is_stmt 1
	mov	r0, r4
	bl	HAL_JPEG_ErrorCallback
.LVL455:
	.loc 1 4005 9
	b	.L328
.L330:
	.loc 1 4012 10
	.loc 1 4012 13 is_stmt 0
	cmp	r3, #0
	beq	.L332
	.loc 1 4015 7 is_stmt 1
	.loc 1 4015 10 is_stmt 0
	tst	r3, #3
	beq	.L332
	.loc 1 4017 9 is_stmt 1
	.loc 1 4017 53 is_stmt 0
	lsrs	r3, r3, #2
	.loc 1 4017 60
	adds	r3, r3, #1
	.loc 1 4017 67
	lsls	r3, r3, #2
	.loc 1 4017 29
	str	r3, [r4, #40]
	b	.L332
.L337:
	.loc 1 4028 7 is_stmt 1
	.loc 1 4028 59 is_stmt 0
	ldr	r1, [r4, #24]
	.loc 1 4028 93
	ldr	r2, [r4]
	.loc 1 4028 11
	ldr	r0, [r4, #48]
	movs	r5, #1
.LVL456:
	str	r5, [sp]
	adds	r2, r2, #64
	bl	HAL_MDMA_Start_IT
.LVL457:
	.loc 1 4028 10
	cmp	r0, #0
	beq	.L333
	.loc 1 4031 9 is_stmt 1
	.loc 1 4031 14 is_stmt 0
	ldr	r3, [r4, #80]
	.loc 1 4031 26
	orr	r3, r3, #4
	str	r3, [r4, #80]
	.loc 1 4032 9 is_stmt 1
	.loc 1 4032 22 is_stmt 0
	movs	r3, #6
	strb	r3, [r4, #77]
	.loc 1 4036 9 is_stmt 1
	mov	r0, r4
	bl	HAL_JPEG_ErrorCallback
.LVL458:
	.loc 1 4038 9
	b	.L328
	.cfi_endproc
.LFE383:
	.size	JPEG_MDMAInCpltCallback, .-JPEG_MDMAInCpltCallback
	.section	.text.HAL_JPEG_DataReadyCallback,"ax",%progbits
	.align	1
	.weak	HAL_JPEG_DataReadyCallback
	.syntax unified
	.thumb
	.thumb_func
	.type	HAL_JPEG_DataReadyCallback, %function
HAL_JPEG_DataReadyCallback:
.LFB360:
	.loc 1 2405 1
	.cfi_startproc
	@ args = 0, pretend = 0, frame = 0
	@ frame_needed = 0, uses_anonymous_args = 0
	@ link register save eliminated.
.LVL459:
	.loc 1 2407 3
	.loc 1 2408 3
	.loc 1 2409 3
	.loc 1 2414 1 is_stmt 0
	bx	lr
	.cfi_endproc
.LFE360:
	.size	HAL_JPEG_DataReadyCallback, .-HAL_JPEG_DataReadyCallback
	.section	.text.JPEG_StoreOutputData,"ax",%progbits
	.align	1
	.syntax unified
	.thumb
	.thumb_func
	.type	JPEG_StoreOutputData, %function
JPEG_StoreOutputData:
.LFB377:
	.loc 1 3474 1 is_stmt 1
	.cfi_startproc
	@ args = 0, pretend = 0, frame = 0
	@ frame_needed = 0, uses_anonymous_args = 0
.LVL460:
	push	{r3, r4, r5, r6, r7, lr}
	.cfi_def_cfa_offset 24
	.cfi_offset 3, -24
	.cfi_offset 4, -20
	.cfi_offset 5, -16
	.cfi_offset 6, -12
	.cfi_offset 7, -8
	.cfi_offset 14, -4
	mov	r4, r0
	.loc 1 3475 3
	.loc 1 3476 3
	.loc 1 3477 3
	.loc 1 3478 3
	.loc 1 3480 3
	.loc 1 3480 12 is_stmt 0
	ldr	r0, [r0, #44]
.LVL461:
	.loc 1 3480 37
	ldr	r3, [r4, #36]
	.loc 1 3480 52
	add	r3, r3, r1, lsl #2
	.loc 1 3480 6
	cmp	r0, r3
	bcs	.L351
	.loc 1 3503 8 is_stmt 1
	.loc 1 3503 40 is_stmt 0
	ldr	r3, [r4, #36]
	.loc 1 3503 11
	cmp	r0, r3
	bls	.L339
	.loc 1 3505 5 is_stmt 1
	.loc 1 3505 45 is_stmt 0
	ldr	r3, [r4, #36]
	.loc 1 3505 38
	subs	r0, r0, r3
	.loc 1 3505 14
	lsrs	r0, r0, #2
.LVL462:
	.loc 1 3506 5 is_stmt 1
	.loc 1 3506 16 is_stmt 0
	movs	r1, #0
.LVL463:
.L344:
	.loc 1 3506 27 is_stmt 1 discriminator 1
	cmp	r1, r0
	bcs	.L354
	.loc 1 3509 7 discriminator 3
	.loc 1 3509 23 is_stmt 0 discriminator 3
	ldr	r3, [r4]
	.loc 1 3509 16 discriminator 3
	ldr	r3, [r3, #68]
.LVL464:
	.loc 1 3510 7 is_stmt 1 discriminator 3
	.loc 1 3510 12 is_stmt 0 discriminator 3
	ldr	r5, [r4, #28]
	.loc 1 3510 35 discriminator 3
	ldr	r2, [r4, #36]
	.loc 1 3510 51 discriminator 3
	strb	r3, [r5, r2]
	.loc 1 3511 7 is_stmt 1 discriminator 3
	.loc 1 3511 12 is_stmt 0 discriminator 3
	ldr	r5, [r4, #28]
	.loc 1 3511 35 discriminator 3
	ldr	r2, [r4, #36]
	.loc 1 3511 29 discriminator 3
	adds	r2, r2, #1
	.loc 1 3511 59 discriminator 3
	ubfx	r6, r3, #8, #8
	.loc 1 3511 57 discriminator 3
	strb	r6, [r5, r2]
	.loc 1 3512 7 is_stmt 1 discriminator 3
	.loc 1 3512 12 is_stmt 0 discriminator 3
	ldr	r5, [r4, #28]
	.loc 1 3512 35 discriminator 3
	ldr	r2, [r4, #36]
	.loc 1 3512 29 discriminator 3
	adds	r2, r2, #2
	.loc 1 3512 59 discriminator 3
	ubfx	r6, r3, #16, #8
	.loc 1 3512 57 discriminator 3
	strb	r6, [r5, r2]
	.loc 1 3513 7 is_stmt 1 discriminator 3
	.loc 1 3513 12 is_stmt 0 discriminator 3
	ldr	r5, [r4, #28]
	.loc 1 3513 35 discriminator 3
	ldr	r2, [r4, #36]
	.loc 1 3513 29 discriminator 3
	adds	r2, r2, #3
	.loc 1 3513 59 discriminator 3
	lsrs	r3, r3, #24
.LVL465:
	.loc 1 3513 57 discriminator 3
	strb	r3, [r5, r2]
	.loc 1 3514 7 is_stmt 1 discriminator 3
	.loc 1 3514 12 is_stmt 0 discriminator 3
	ldr	r3, [r4, #36]
	.loc 1 3514 27 discriminator 3
	adds	r3, r3, #4
	str	r3, [r4, #36]
	.loc 1 3506 44 is_stmt 1 discriminator 3
	adds	r1, r1, #1
.LVL466:
	b	.L344
.LVL467:
.L342:
	.loc 1 3485 7 discriminator 3
	.loc 1 3485 23 is_stmt 0 discriminator 3
	ldr	r3, [r4]
	.loc 1 3485 16 discriminator 3
	ldr	r3, [r3, #68]
.LVL468:
	.loc 1 3486 7 is_stmt 1 discriminator 3
	.loc 1 3486 35 is_stmt 0 discriminator 3
	ldr	r2, [r4, #36]
	.loc 1 3486 51 discriminator 3
	ldr	r5, [r4, #28]
	strb	r3, [r5, r2]
	.loc 1 3487 7 is_stmt 1 discriminator 3
	.loc 1 3487 35 is_stmt 0 discriminator 3
	ldr	r2, [r4, #36]
	.loc 1 3487 29 discriminator 3
	adds	r2, r2, #1
	.loc 1 3487 59 discriminator 3
	ubfx	ip, r3, #8, #8
	.loc 1 3487 57 discriminator 3
	ldr	r5, [r4, #28]
	strb	ip, [r5, r2]
	.loc 1 3488 7 is_stmt 1 discriminator 3
	.loc 1 3488 35 is_stmt 0 discriminator 3
	ldr	r2, [r4, #36]
	.loc 1 3488 29 discriminator 3
	adds	r2, r2, #2
	.loc 1 3488 59 discriminator 3
	ubfx	ip, r3, #16, #8
	.loc 1 3488 57 discriminator 3
	ldr	r5, [r4, #28]
	strb	ip, [r5, r2]
	.loc 1 3489 7 is_stmt 1 discriminator 3
	.loc 1 3489 35 is_stmt 0 discriminator 3
	ldr	r2, [r4, #36]
	.loc 1 3489 29 discriminator 3
	adds	r2, r2, #3
	.loc 1 3489 59 discriminator 3
	lsrs	r3, r3, #24
.LVL469:
	.loc 1 3489 57 discriminator 3
	ldr	r5, [r4, #28]
	strb	r3, [r5, r2]
	.loc 1 3490 7 is_stmt 1 discriminator 3
	.loc 1 3490 12 is_stmt 0 discriminator 3
	ldr	r3, [r4, #36]
	.loc 1 3490 27 discriminator 3
	adds	r3, r3, #4
	str	r3, [r4, #36]
	.loc 1 3482 49 is_stmt 1 discriminator 3
	adds	r0, r0, #1
.LVL470:
.L340:
	.loc 1 3482 27 discriminator 1
	cmp	r0, r1
	bcc	.L342
	.loc 1 3492 5
	.loc 1 3492 14 is_stmt 0
	ldr	r2, [r4, #44]
	.loc 1 3492 38
	ldr	r3, [r4, #36]
	.loc 1 3492 8
	cmp	r2, r3
	beq	.L355
.LVL471:
.L339:
	.loc 1 3556 1
	pop	{r3, r4, r5, r6, r7, pc}
.LVL472:
.L351:
	.loc 1 3482 16
	movs	r0, #0
	b	.L340
.LVL473:
.L355:
	.loc 1 3498 7 is_stmt 1
	.loc 1 3498 70 is_stmt 0
	ldr	r2, [r4, #36]
	.loc 1 3498 7
	ldr	r1, [r4, #28]
.LVL474:
	mov	r0, r4
.LVL475:
	bl	HAL_JPEG_DataReadyCallback
.LVL476:
	.loc 1 3500 7 is_stmt 1
	.loc 1 3500 27 is_stmt 0
	movs	r3, #0
	str	r3, [r4, #36]
	b	.L339
.LVL477:
.L354:
	.loc 1 3516 5 is_stmt 1
	.loc 1 3516 14 is_stmt 0
	ldr	r7, [r4, #44]
	.loc 1 3516 38
	ldr	r3, [r4, #36]
	.loc 1 3516 8
	cmp	r7, r3
	beq	.L356
	.loc 1 3528 7 is_stmt 1
	.loc 1 3528 46 is_stmt 0
	ldr	r5, [r4, #36]
	.loc 1 3528 16
	sub	ip, r7, r5
.LVL478:
	.loc 1 3529 7 is_stmt 1
	.loc 1 3529 23 is_stmt 0
	ldr	r3, [r4]
	.loc 1 3529 16
	ldr	r6, [r3, #68]
.LVL479:
	.loc 1 3530 7 is_stmt 1
	.loc 1 3530 18 is_stmt 0
	movs	r2, #0
	.loc 1 3530 7
	b	.L347
.LVL480:
.L356:
	.loc 1 3522 7 is_stmt 1
	.loc 1 3522 70 is_stmt 0
	ldr	r2, [r4, #36]
	.loc 1 3522 7
	ldr	r1, [r4, #28]
.LVL481:
	mov	r0, r4
.LVL482:
	bl	HAL_JPEG_DataReadyCallback
.LVL483:
	.loc 1 3524 7 is_stmt 1
	.loc 1 3524 27 is_stmt 0
	movs	r3, #0
	str	r3, [r4, #36]
	b	.L339
.LVL484:
.L348:
	.loc 1 3532 9 is_stmt 1 discriminator 3
	.loc 1 3532 92 is_stmt 0 discriminator 3
	and	r3, r2, #3
	.loc 1 3532 83 discriminator 3
	lsls	r3, r3, #3
	.loc 1 3532 75 discriminator 3
	lsr	r3, r6, r3
	.loc 1 3532 14 discriminator 3
	ldr	r0, [r4, #28]
	.loc 1 3532 37 discriminator 3
	ldr	r1, [r4, #36]
	.loc 1 3532 53 discriminator 3
	strb	r3, [r0, r1]
	.loc 1 3533 9 is_stmt 1 discriminator 3
	.loc 1 3533 14 is_stmt 0 discriminator 3
	ldr	r3, [r4, #36]
	.loc 1 3533 28 discriminator 3
	adds	r3, r3, #1
	str	r3, [r4, #36]
	.loc 1 3530 46 is_stmt 1 discriminator 3
	adds	r2, r2, #1
.LVL485:
.L347:
	.loc 1 3530 29 discriminator 1
	cmp	r2, ip
	bcc	.L348
	.loc 1 3539 7
	.loc 1 3539 70 is_stmt 0
	ldr	r2, [r4, #36]
.LVL486:
	.loc 1 3539 7
	ldr	r1, [r4, #28]
	mov	r0, r4
	bl	HAL_JPEG_DataReadyCallback
.LVL487:
	.loc 1 3542 7 is_stmt 1
	.loc 1 3542 27 is_stmt 0
	movs	r3, #0
	str	r3, [r4, #36]
	.loc 1 3544 7 is_stmt 1
	.loc 1 3544 16 is_stmt 0
	subs	r5, r5, r7
.LVL488:
	adds	r5, r5, #4
.LVL489:
	.loc 1 3545 7 is_stmt 1
	b	.L349
.LVL490:
.L350:
	.loc 1 3547 9 discriminator 3
	.loc 1 3547 83 is_stmt 0 discriminator 3
	lsls	r3, r5, #3
	.loc 1 3547 75 discriminator 3
	lsr	r3, r6, r3
	.loc 1 3547 14 discriminator 3
	ldr	r1, [r4, #28]
	.loc 1 3547 37 discriminator 3
	ldr	r2, [r4, #36]
	.loc 1 3547 53 discriminator 3
	strb	r3, [r1, r2]
	.loc 1 3548 9 is_stmt 1 discriminator 3
	.loc 1 3548 14 is_stmt 0 discriminator 3
	ldr	r3, [r4, #36]
	.loc 1 3548 28 discriminator 3
	adds	r3, r3, #1
	str	r3, [r4, #36]
	.loc 1 3545 48 is_stmt 1 discriminator 3
	adds	r5, r5, #1
.LVL491:
.L349:
	.loc 1 3545 36 discriminator 1
	cmp	r5, #3
	bls	.L350
	b	.L339
	.cfi_endproc
.LFE377:
	.size	JPEG_StoreOutputData, .-JPEG_StoreOutputData
	.section	.text.JPEG_Process,"ax",%progbits
	.align	1
	.syntax unified
	.thumb
	.thumb_func
	.type	JPEG_Process, %function
JPEG_Process:
.LFB376:
	.loc 1 3328 1
	.cfi_startproc
	@ args = 0, pretend = 0, frame = 0
	@ frame_needed = 0, uses_anonymous_args = 0
.LVL492:
	push	{r3, r4, r5, lr}
	.cfi_def_cfa_offset 16
	.cfi_offset 3, -16
	.cfi_offset 4, -12
	.cfi_offset 5, -8
	.cfi_offset 14, -4
	mov	r4, r0
	.loc 1 3329 3
	.loc 1 3332 3
	.loc 1 3332 13 is_stmt 0
	ldr	r3, [r0, #84]
	.loc 1 3332 23
	and	r3, r3, #3
	.loc 1 3332 6
	cmp	r3, #2
	beq	.L370
.LVL493:
.L358:
	.loc 1 3358 3 is_stmt 1
	.loc 1 3358 13 is_stmt 0
	ldr	r3, [r4, #84]
	.loc 1 3358 6
	tst	r3, #4096
	bne	.L359
	.loc 1 3360 5 is_stmt 1
	.loc 1 3360 18 is_stmt 0
	ldr	r3, [r4]
	.loc 1 3360 28
	ldr	r2, [r3, #52]
	.loc 1 3360 8
	tst	r2, #2
	bne	.L371
	.loc 1 3366 10 is_stmt 1
	.loc 1 3366 33 is_stmt 0
	ldr	r3, [r3, #52]
	.loc 1 3366 13
	tst	r3, #4
	bne	.L372
.L359:
	.loc 1 3375 5 is_stmt 1
	.loc 1 3380 3
	.loc 1 3380 13 is_stmt 0
	ldr	r3, [r4, #84]
	.loc 1 3380 6
	tst	r3, #8192
	bne	.L361
	.loc 1 3382 5 is_stmt 1
	.loc 1 3382 18 is_stmt 0
	ldr	r3, [r4]
	.loc 1 3382 28
	ldr	r2, [r3, #52]
	.loc 1 3382 8
	tst	r2, #8
	bne	.L373
	.loc 1 3388 10 is_stmt 1
	.loc 1 3388 33 is_stmt 0
	ldr	r3, [r3, #52]
	.loc 1 3388 13
	tst	r3, #16
	bne	.L374
.L361:
	.loc 1 3397 5 is_stmt 1
	.loc 1 3401 3
	.loc 1 3401 16 is_stmt 0
	ldr	r2, [r4]
	.loc 1 3401 26
	ldr	r3, [r2, #52]
	.loc 1 3401 31
	and	r3, r3, #56
	.loc 1 3401 6
	cmp	r3, #32
	beq	.L375
	.loc 1 3461 10
	movs	r0, #0
.L357:
	.loc 1 3462 1
	pop	{r3, r4, r5, pc}
.LVL494:
.L370:
	.loc 1 3334 5 is_stmt 1
	.loc 1 3334 18 is_stmt 0
	ldr	r3, [r0]
	.loc 1 3334 28
	ldr	r3, [r3, #52]
	.loc 1 3334 8
	tst	r3, #64
	beq	.L358
	.loc 1 3337 7 is_stmt 1
	.loc 1 3337 14 is_stmt 0
	adds	r5, r0, #4
	mov	r1, r5
	bl	HAL_JPEG_GetInfo
.LVL495:
	.loc 1 3339 7 is_stmt 1
	.loc 1 3339 32 is_stmt 0
	movs	r3, #0
	str	r3, [r4, #20]
	.loc 1 3347 7 is_stmt 1
	mov	r1, r5
	mov	r0, r4
	bl	HAL_JPEG_InfoReadyCallback
.LVL496:
	.loc 1 3350 7
	.loc 1 3350 49 is_stmt 0
	ldr	r2, [r4]
	.loc 1 3350 59
	ldr	r3, [r2, #48]
	.loc 1 3350 105
	bic	r3, r3, #64
	.loc 1 3350 34
	str	r3, [r2, #48]
	.loc 1 3353 7 is_stmt 1
	.loc 1 3353 16 is_stmt 0
	ldr	r2, [r4]
	.loc 1 3353 26
	ldr	r3, [r2, #56]
	.loc 1 3353 32
	orr	r3, r3, #64
	str	r3, [r2, #56]
	b	.L358
.L371:
	.loc 1 3364 7 is_stmt 1
	movs	r1, #8
	mov	r0, r4
	bl	JPEG_ReadInputData
.LVL497:
	b	.L359
.L372:
	.loc 1 3370 7
	movs	r1, #1
	mov	r0, r4
	bl	JPEG_ReadInputData
.LVL498:
	b	.L359
.L373:
	.loc 1 3386 7
	movs	r1, #8
	mov	r0, r4
	bl	JPEG_StoreOutputData
.LVL499:
	b	.L361
.L374:
	.loc 1 3392 7
	movs	r1, #1
	mov	r0, r4
	bl	JPEG_StoreOutputData
.LVL500:
	b	.L361
.L375:
	.loc 1 3404 5
	.loc 1 3404 20 is_stmt 0
	ldr	r3, [r2]
	.loc 1 3404 29
	bic	r3, r3, #1
	str	r3, [r2]
	.loc 1 3406 5 is_stmt 1
	.loc 1 3406 15 is_stmt 0
	ldr	r3, [r4, #84]
	.loc 1 3406 25
	and	r3, r3, #12
	.loc 1 3406 8
	cmp	r3, #8
	beq	.L376
.L364:
	.loc 1 3413 5 is_stmt 1
	.loc 1 3413 14 is_stmt 0
	ldr	r2, [r4]
	.loc 1 3413 24
	ldr	r3, [r2, #56]
	.loc 1 3413 30
	orr	r3, r3, #96
	str	r3, [r2, #56]
	.loc 1 3416 5 is_stmt 1
	.loc 1 3416 14 is_stmt 0
	ldr	r3, [r4, #36]
	.loc 1 3416 8
	cbnz	r3, .L377
.L365:
	.loc 1 3429 5 is_stmt 1
	.loc 1 3429 16 is_stmt 0
	ldr	r3, [r4, #84]
.LVL501:
	.loc 1 3431 5 is_stmt 1
	.loc 1 3431 10 is_stmt 0
	ldr	r2, [r4, #84]
	.loc 1 3431 20
	and	r2, r2, #16640
	str	r2, [r4, #84]
	.loc 1 3434 5 is_stmt 1
	.loc 1 3434 9
	.loc 1 3434 23 is_stmt 0
	movs	r2, #0
	strb	r2, [r4, #76]
	.loc 1 3434 7 is_stmt 1
	.loc 1 3437 5
	.loc 1 3437 18 is_stmt 0
	movs	r2, #1
	strb	r2, [r4, #77]
	.loc 1 3440 5 is_stmt 1
	.loc 1 3440 21 is_stmt 0
	and	r3, r3, #3
.LVL502:
	.loc 1 3440 8
	cmp	r3, #2
	beq	.L378
	.loc 1 3453 7 is_stmt 1
	mov	r0, r4
	bl	HAL_JPEG_EncodeCpltCallback
.LVL503:
.L367:
	.loc 1 3457 5
	.loc 1 3457 12 is_stmt 0
	movs	r0, #1
	b	.L357
.LVL504:
.L376:
	.loc 1 3409 7 is_stmt 1
	.loc 1 3409 49 is_stmt 0
	ldr	r2, [r4]
	.loc 1 3409 59
	ldr	r3, [r2, #48]
	.loc 1 3409 101
	bic	r3, r3, #126
	.loc 1 3409 34
	str	r3, [r2, #48]
	b	.L364
.L377:
	.loc 1 3422 7 is_stmt 1
	.loc 1 3422 70 is_stmt 0
	ldr	r2, [r4, #36]
	.loc 1 3422 7
	ldr	r1, [r4, #28]
	mov	r0, r4
	bl	HAL_JPEG_DataReadyCallback
.LVL505:
	.loc 1 3425 7 is_stmt 1
	.loc 1 3425 27 is_stmt 0
	movs	r3, #0
	str	r3, [r4, #36]
	b	.L365
.LVL506:
.L378:
	.loc 1 3445 7 is_stmt 1
	mov	r0, r4
	bl	HAL_JPEG_DecodeCpltCallback
.LVL507:
	b	.L367
	.cfi_endproc
.LFE376:
	.size	JPEG_Process, .-JPEG_Process
	.section	.text.HAL_JPEG_Encode,"ax",%progbits
	.align	1
	.global	HAL_JPEG_Encode
	.syntax unified
	.thumb
	.thumb_func
	.type	HAL_JPEG_Encode, %function
HAL_JPEG_Encode:
.LFB344:
	.loc 1 1523 1
	.cfi_startproc
	@ args = 8, pretend = 0, frame = 0
	@ frame_needed = 0, uses_anonymous_args = 0
.LVL508:
	.loc 1 1524 3
	.loc 1 1527 3
	.loc 1 1528 3
	.loc 1 1531 3
	.loc 1 1531 6 is_stmt 0
	cmp	r1, #0
	it	ne
	cmpne	r0, #0
	beq	.L387
	.loc 1 1523 1 discriminator 1
	push	{r4, r5, r6, r7, r8, lr}
	.cfi_def_cfa_offset 24
	.cfi_offset 4, -24
	.cfi_offset 5, -20
	.cfi_offset 6, -16
	.cfi_offset 7, -12
	.cfi_offset 8, -8
	.cfi_offset 14, -4
	mov	r6, r2
	mov	r5, r3
	mov	r4, r0
	mov	r7, r1
	.loc 1 1531 46 discriminator 1
	cmp	r3, #0
	beq	.L388
	.loc 1 1536 3 is_stmt 1
	.loc 1 1536 7
	.loc 1 1536 17 is_stmt 0
	ldrb	r3, [r0, #76]	@ zero_extendqisi2
.LVL509:
	.loc 1 1536 9
	cmp	r3, #1
	beq	.L389
	.loc 1 1536 67 is_stmt 1 discriminator 2
	.loc 1 1536 81 is_stmt 0 discriminator 2
	movs	r3, #1
	strb	r3, [r0, #76]
	.loc 1 1536 5 is_stmt 1 discriminator 2
	.loc 1 1538 3 discriminator 2
	.loc 1 1538 12 is_stmt 0 discriminator 2
	ldrb	r3, [r0, #77]	@ zero_extendqisi2
	uxtb	r3, r3
	.loc 1 1538 6 discriminator 2
	cmp	r3, #1
	bne	.L395
	.loc 1 1546 3 is_stmt 1
	.loc 1 1546 12 is_stmt 0
	ldrb	r0, [r0, #77]	@ zero_extendqisi2
.LVL510:
	uxtb	r0, r0
	.loc 1 1546 6
	cmp	r0, #1
	beq	.L396
	.loc 1 1611 10
	movs	r0, #0
.LVL511:
.L380:
	.loc 1 1612 1
	pop	{r4, r5, r6, r7, r8, pc}
.LVL512:
.L395:
	.loc 1 1541 5 is_stmt 1
	.loc 1 1541 9
	.loc 1 1541 23 is_stmt 0
	movs	r3, #0
	strb	r3, [r0, #76]
	.loc 1 1541 7 is_stmt 1
	.loc 1 1543 5
	.loc 1 1543 12 is_stmt 0
	movs	r0, #2
.LVL513:
	b	.L380
.L396:
	.loc 1 1548 5 is_stmt 1
	.loc 1 1548 15 is_stmt 0
	ldr	r3, [r4, #84]
	.loc 1 1548 8
	tst	r3, #256
	bne	.L397
	.loc 1 1605 7 is_stmt 1
	.loc 1 1605 11
	.loc 1 1605 25 is_stmt 0
	movs	r3, #0
	strb	r3, [r4, #76]
	.loc 1 1605 9 is_stmt 1
	.loc 1 1607 7
	.loc 1 1607 14 is_stmt 0
	b	.L380
.L397:
	.loc 1 1551 7 is_stmt 1
	.loc 1 1551 20 is_stmt 0
	movs	r3, #3
	strb	r3, [r4, #77]
	.loc 1 1554 7 is_stmt 1
	.loc 1 1554 12 is_stmt 0
	ldr	r3, [r4, #84]
	.loc 1 1554 22
	bic	r3, r3, #15
	str	r3, [r4, #84]
	.loc 1 1555 7 is_stmt 1
	.loc 1 1555 12 is_stmt 0
	ldr	r3, [r4, #84]
	.loc 1 1555 22
	orr	r3, r3, #5
	str	r3, [r4, #84]
	.loc 1 1558 7 is_stmt 1
	.loc 1 1558 19 is_stmt 0
	bl	HAL_GetTick
.LVL514:
	mov	r8, r0
.LVL515:
	.loc 1 1561 7 is_stmt 1
	.loc 1 1561 29 is_stmt 0
	str	r7, [r4, #24]
	.loc 1 1562 7 is_stmt 1
	.loc 1 1562 30 is_stmt 0
	str	r5, [r4, #28]
	.loc 1 1563 7 is_stmt 1
	.loc 1 1563 42 is_stmt 0
	bic	r6, r6, #3
.LVL516:
	.loc 1 1563 27
	str	r6, [r4, #40]
	.loc 1 1564 7 is_stmt 1
	.loc 1 1564 44 is_stmt 0
	ldr	r3, [sp, #24]
	bic	r3, r3, #3
	.loc 1 1564 28
	str	r3, [r4, #44]
	.loc 1 1567 7 is_stmt 1
	.loc 1 1567 26 is_stmt 0
	movs	r3, #0
	str	r3, [r4, #32]
	.loc 1 1568 7 is_stmt 1
	.loc 1 1568 27 is_stmt 0
	str	r3, [r4, #36]
	.loc 1 1571 7 is_stmt 1
	mov	r0, r4
.LVL517:
	bl	JPEG_Init_Process
.LVL518:
	.loc 1 1574 7
.L384:
	.loc 1 1574 35
	.loc 1 1574 15 is_stmt 0
	mov	r0, r4
	bl	JPEG_Process
.LVL519:
	.loc 1 1574 35
	cbnz	r0, .L398
	.loc 1 1576 9 is_stmt 1
	.loc 1 1576 12 is_stmt 0
	ldr	r3, [sp, #28]
	cmp	r3, #-1
	beq	.L384
	.loc 1 1578 11 is_stmt 1
	.loc 1 1578 17 is_stmt 0
	bl	HAL_GetTick
.LVL520:
	.loc 1 1578 31
	sub	r0, r0, r8
	.loc 1 1578 14
	ldr	r3, [sp, #28]
	cmp	r0, r3
	bhi	.L385
	.loc 1 1578 55 discriminator 1
	cmp	r3, #0
	bne	.L384
.L385:
	.loc 1 1582 13 is_stmt 1
	.loc 1 1582 18 is_stmt 0
	ldr	r3, [r4, #80]
	.loc 1 1582 30
	orr	r3, r3, #8
	str	r3, [r4, #80]
	.loc 1 1585 13 is_stmt 1
	.loc 1 1585 17
	.loc 1 1585 31 is_stmt 0
	movs	r3, #0
	strb	r3, [r4, #76]
	.loc 1 1585 15 is_stmt 1
	.loc 1 1588 13
	.loc 1 1588 26 is_stmt 0
	movs	r3, #1
	strb	r3, [r4, #77]
	.loc 1 1590 13 is_stmt 1
	.loc 1 1590 20 is_stmt 0
	movs	r0, #3
	b	.L380
.L398:
	.loc 1 1596 7 is_stmt 1
	.loc 1 1596 11
	.loc 1 1596 25 is_stmt 0
	movs	r0, #0
	strb	r0, [r4, #76]
	.loc 1 1596 9 is_stmt 1
	.loc 1 1599 7
	.loc 1 1599 20 is_stmt 0
	movs	r3, #1
	strb	r3, [r4, #77]
	b	.L380
.LVL521:
.L387:
	.cfi_def_cfa_offset 0
	.cfi_restore 4
	.cfi_restore 5
	.cfi_restore 6
	.cfi_restore 7
	.cfi_restore 8
	.cfi_restore 14
	.loc 1 1533 12
	movs	r0, #1
.LVL522:
	.loc 1 1612 1
	bx	lr
.LVL523:
.L388:
	.cfi_def_cfa_offset 24
	.cfi_offset 4, -24
	.cfi_offset 5, -20
	.cfi_offset 6, -16
	.cfi_offset 7, -12
	.cfi_offset 8, -8
	.cfi_offset 14, -4
	.loc 1 1533 12
	movs	r0, #1
.LVL524:
	b	.L380
.LVL525:
.L389:
	.loc 1 1536 48
	movs	r0, #2
.LVL526:
	b	.L380
	.cfi_endproc
.LFE344:
	.size	HAL_JPEG_Encode, .-HAL_JPEG_Encode
	.section	.text.HAL_JPEG_Decode,"ax",%progbits
	.align	1
	.global	HAL_JPEG_Decode
	.syntax unified
	.thumb
	.thumb_func
	.type	HAL_JPEG_Decode, %function
HAL_JPEG_Decode:
.LFB345:
	.loc 1 1627 1 is_stmt 1
	.cfi_startproc
	@ args = 8, pretend = 0, frame = 0
	@ frame_needed = 0, uses_anonymous_args = 0
.LVL527:
	push	{r3, r4, r5, r6, r7, r8, r9, lr}
	.cfi_def_cfa_offset 32
	.cfi_offset 3, -32
	.cfi_offset 4, -28
	.cfi_offset 5, -24
	.cfi_offset 6, -20
	.cfi_offset 7, -16
	.cfi_offset 8, -12
	.cfi_offset 9, -8
	.cfi_offset 14, -4
	ldr	r5, [sp, #36]
	.loc 1 1628 3
	.loc 1 1631 3
	.loc 1 1632 3
	.loc 1 1635 3
	.loc 1 1635 6 is_stmt 0
	cmp	r1, #0
	it	ne
	cmpne	r0, #0
	beq	.L406
	mov	r7, r2
	mov	r6, r3
	mov	r4, r0
	mov	r8, r1
	.loc 1 1635 43 discriminator 1
	cmp	r3, #0
	beq	.L407
	.loc 1 1641 3 is_stmt 1
	.loc 1 1641 7
	.loc 1 1641 17 is_stmt 0
	ldrb	r3, [r0, #76]	@ zero_extendqisi2
.LVL528:
	.loc 1 1641 9
	cmp	r3, #1
	beq	.L408
	.loc 1 1641 67 is_stmt 1 discriminator 2
	.loc 1 1641 81 is_stmt 0 discriminator 2
	movs	r3, #1
	strb	r3, [r0, #76]
	.loc 1 1641 5 is_stmt 1 discriminator 2
	.loc 1 1644 3 discriminator 2
	.loc 1 1644 15 is_stmt 0 discriminator 2
	bl	HAL_GetTick
.LVL529:
	mov	r9, r0
.LVL530:
	.loc 1 1646 3 is_stmt 1 discriminator 2
	.loc 1 1646 12 is_stmt 0 discriminator 2
	ldrb	r3, [r4, #77]	@ zero_extendqisi2
	uxtb	r3, r3
	.loc 1 1646 6 discriminator 2
	cmp	r3, #1
	beq	.L410
	.loc 1 1701 5 is_stmt 1
	.loc 1 1701 9
	.loc 1 1701 23 is_stmt 0
	movs	r3, #0
	strb	r3, [r4, #76]
	.loc 1 1701 7 is_stmt 1
	.loc 1 1703 5
	.loc 1 1703 12 is_stmt 0
	movs	r0, #2
.LVL531:
	b	.L400
.LVL532:
.L410:
	.loc 1 1649 5 is_stmt 1
	.loc 1 1649 18 is_stmt 0
	movs	r3, #4
	strb	r3, [r4, #77]
	.loc 1 1653 5 is_stmt 1
	.loc 1 1653 10 is_stmt 0
	ldr	r3, [r4, #84]
	.loc 1 1653 20
	bic	r3, r3, #15
	str	r3, [r4, #84]
	.loc 1 1654 5 is_stmt 1
	.loc 1 1654 10 is_stmt 0
	ldr	r3, [r4, #84]
	.loc 1 1654 20
	orr	r3, r3, #6
	str	r3, [r4, #84]
	.loc 1 1657 5 is_stmt 1
	.loc 1 1657 27 is_stmt 0
	str	r8, [r4, #24]
	.loc 1 1658 5 is_stmt 1
	.loc 1 1658 28 is_stmt 0
	str	r6, [r4, #28]
	.loc 1 1659 5 is_stmt 1
	.loc 1 1659 40 is_stmt 0
	bic	r7, r7, #3
.LVL533:
	.loc 1 1659 25
	str	r7, [r4, #40]
	.loc 1 1660 5 is_stmt 1
	.loc 1 1660 42 is_stmt 0
	ldr	r3, [sp, #32]
	bic	r3, r3, #3
	.loc 1 1660 26
	str	r3, [r4, #44]
	.loc 1 1663 5 is_stmt 1
	.loc 1 1663 24 is_stmt 0
	movs	r3, #0
	str	r3, [r4, #32]
	.loc 1 1664 5 is_stmt 1
	.loc 1 1664 25 is_stmt 0
	str	r3, [r4, #36]
	.loc 1 1667 5 is_stmt 1
	mov	r0, r4
.LVL534:
	bl	JPEG_Init_Process
.LVL535:
	.loc 1 1670 5
.L403:
	.loc 1 1670 33
	.loc 1 1670 13 is_stmt 0
	mov	r0, r4
	bl	JPEG_Process
.LVL536:
	.loc 1 1670 33
	cbnz	r0, .L411
	.loc 1 1672 7 is_stmt 1
	.loc 1 1672 10 is_stmt 0
	cmp	r5, #-1
	beq	.L403
	.loc 1 1674 9 is_stmt 1
	.loc 1 1674 15 is_stmt 0
	bl	HAL_GetTick
.LVL537:
	.loc 1 1674 29
	sub	r0, r0, r9
	.loc 1 1674 12
	cmp	r0, r5
	bhi	.L404
	.loc 1 1674 53 discriminator 1
	cmp	r5, #0
	bne	.L403
.L404:
	.loc 1 1678 11 is_stmt 1
	.loc 1 1678 16 is_stmt 0
	ldr	r3, [r4, #80]
	.loc 1 1678 28
	orr	r3, r3, #8
	str	r3, [r4, #80]
	.loc 1 1681 11 is_stmt 1
	.loc 1 1681 15
	.loc 1 1681 29 is_stmt 0
	movs	r3, #0
	strb	r3, [r4, #76]
	.loc 1 1681 13 is_stmt 1
	.loc 1 1684 11
	.loc 1 1684 24 is_stmt 0
	movs	r3, #1
	strb	r3, [r4, #77]
	.loc 1 1686 11 is_stmt 1
	.loc 1 1686 18 is_stmt 0
	movs	r0, #3
	b	.L400
.L411:
	.loc 1 1692 5 is_stmt 1
	.loc 1 1692 9
	.loc 1 1692 23 is_stmt 0
	movs	r0, #0
	strb	r0, [r4, #76]
	.loc 1 1692 7 is_stmt 1
	.loc 1 1695 5
	.loc 1 1695 18 is_stmt 0
	movs	r3, #1
	strb	r3, [r4, #77]
	.loc 1 1706 3 is_stmt 1
	.loc 1 1706 10 is_stmt 0
	b	.L400
.LVL538:
.L406:
	.loc 1 1637 12
	movs	r0, #1
.LVL539:
.L400:
	.loc 1 1707 1
	pop	{r3, r4, r5, r6, r7, r8, r9, pc}
.LVL540:
.L407:
	.loc 1 1637 12
	movs	r0, #1
.LVL541:
	b	.L400
.LVL542:
.L408:
	.loc 1 1641 48
	movs	r0, #2
.LVL543:
	b	.L400
	.cfi_endproc
.LFE345:
	.size	HAL_JPEG_Decode, .-HAL_JPEG_Decode
	.section	.text.JPEG_DMA_PollResidualData,"ax",%progbits
	.align	1
	.syntax unified
	.thumb
	.thumb_func
	.type	JPEG_DMA_PollResidualData, %function
JPEG_DMA_PollResidualData:
.LFB382:
	.loc 1 3876 1 is_stmt 1
	.cfi_startproc
	@ args = 0, pretend = 0, frame = 0
	@ frame_needed = 0, uses_anonymous_args = 0
.LVL544:
	push	{r3, r4, r5, lr}
	.cfi_def_cfa_offset 16
	.cfi_offset 3, -16
	.cfi_offset 4, -12
	.cfi_offset 5, -8
	.cfi_offset 14, -4
	mov	r4, r0
	.loc 1 3877 3
	.loc 1 3878 3
	.loc 1 3879 3
	.loc 1 3881 3
.LVL545:
	.loc 1 3881 14 is_stmt 0
	movs	r5, #16
	.loc 1 3881 3
	b	.L413
.LVL546:
.L414:
	.loc 1 3881 51 is_stmt 1 discriminator 2
	subs	r5, r5, #1
.LVL547:
.L413:
	.loc 1 3881 39 discriminator 1
	cbz	r5, .L421
	.loc 1 3883 5
	.loc 1 3883 15 is_stmt 0
	ldr	r3, [r4, #84]
	.loc 1 3883 8
	tst	r3, #8192
	bne	.L414
	.loc 1 3885 7 is_stmt 1
	.loc 1 3885 20 is_stmt 0
	ldr	r3, [r4]
	.loc 1 3885 30
	ldr	r2, [r3, #52]
	.loc 1 3885 10
	tst	r2, #16
	beq	.L414
	.loc 1 3887 9 is_stmt 1
	.loc 1 3887 17 is_stmt 0
	ldr	r3, [r3, #68]
.LVL548:
	.loc 1 3888 9 is_stmt 1
	.loc 1 3888 14 is_stmt 0
	ldr	r1, [r4, #28]
	.loc 1 3888 37
	ldr	r2, [r4, #36]
	.loc 1 3888 53
	strb	r3, [r1, r2]
	.loc 1 3889 9 is_stmt 1
	.loc 1 3889 14 is_stmt 0
	ldr	r1, [r4, #28]
	.loc 1 3889 37
	ldr	r2, [r4, #36]
	.loc 1 3889 31
	adds	r2, r2, #1
	.loc 1 3889 61
	ubfx	r0, r3, #8, #8
	.loc 1 3889 59
	strb	r0, [r1, r2]
	.loc 1 3890 9 is_stmt 1
	.loc 1 3890 14 is_stmt 0
	ldr	r1, [r4, #28]
	.loc 1 3890 37
	ldr	r2, [r4, #36]
	.loc 1 3890 31
	adds	r2, r2, #2
	.loc 1 3890 61
	ubfx	r0, r3, #16, #8
	.loc 1 3890 59
	strb	r0, [r1, r2]
	.loc 1 3891 9 is_stmt 1
	.loc 1 3891 14 is_stmt 0
	ldr	r1, [r4, #28]
	.loc 1 3891 37
	ldr	r2, [r4, #36]
	.loc 1 3891 31
	adds	r2, r2, #3
	.loc 1 3891 61
	lsrs	r3, r3, #24
.LVL549:
	.loc 1 3891 59
	strb	r3, [r1, r2]
	.loc 1 3892 9 is_stmt 1
	.loc 1 3892 14 is_stmt 0
	ldr	r3, [r4, #36]
	.loc 1 3892 29
	adds	r3, r3, #4
	str	r3, [r4, #36]
	.loc 1 3894 9 is_stmt 1
	.loc 1 3894 18 is_stmt 0
	ldr	r2, [r4, #36]
	.loc 1 3894 41
	ldr	r3, [r4, #44]
	.loc 1 3894 12
	cmp	r2, r3
	bne	.L414
	.loc 1 3900 11 is_stmt 1
	.loc 1 3900 74 is_stmt 0
	ldr	r2, [r4, #36]
	.loc 1 3900 11
	ldr	r1, [r4, #28]
	mov	r0, r4
	bl	HAL_JPEG_DataReadyCallback
.LVL550:
	.loc 1 3903 11 is_stmt 1
	.loc 1 3903 31 is_stmt 0
	movs	r3, #0
	str	r3, [r4, #36]
	b	.L414
.LVL551:
.L421:
	.loc 1 3910 3 is_stmt 1
	.loc 1 3910 14 is_stmt 0
	ldr	r1, [r4, #84]
.LVL552:
	.loc 1 3912 3 is_stmt 1
	.loc 1 3912 17 is_stmt 0
	ldr	r3, [r4]
	.loc 1 3912 27
	ldr	r2, [r3, #52]
	.loc 1 3912 6
	tst	r2, #16
	beq	.L416
	.loc 1 3912 74 discriminator 1
	tst	r1, #8192
	bne	.L412
.L416:
	.loc 1 3915 5 is_stmt 1
	.loc 1 3915 20 is_stmt 0
	ldr	r2, [r3]
	.loc 1 3915 29
	bic	r2, r2, #1
	str	r2, [r3]
	.loc 1 3917 5 is_stmt 1
	.loc 1 3917 14 is_stmt 0
	ldr	r3, [r4, #36]
	.loc 1 3917 8
	cbnz	r3, .L422
.LVL553:
.L418:
	.loc 1 3929 5 is_stmt 1
	.loc 1 3929 16 is_stmt 0
	ldr	r3, [r4, #84]
.LVL554:
	.loc 1 3931 5 is_stmt 1
	.loc 1 3931 10 is_stmt 0
	ldr	r2, [r4, #84]
	.loc 1 3931 20
	and	r2, r2, #16640
	str	r2, [r4, #84]
	.loc 1 3934 5 is_stmt 1
	.loc 1 3934 9
	.loc 1 3934 23 is_stmt 0
	movs	r2, #0
	strb	r2, [r4, #76]
	.loc 1 3934 7 is_stmt 1
	.loc 1 3937 5
	.loc 1 3937 18 is_stmt 0
	movs	r2, #1
	strb	r2, [r4, #77]
	.loc 1 3940 5 is_stmt 1
	.loc 1 3940 21 is_stmt 0
	and	r3, r3, #3
.LVL555:
	.loc 1 3940 8
	cmp	r3, #2
	beq	.L423
	.loc 1 3953 7 is_stmt 1
	mov	r0, r4
	bl	HAL_JPEG_EncodeCpltCallback
.LVL556:
.L412:
	.loc 1 3957 1 is_stmt 0
	pop	{r3, r4, r5, pc}
.LVL557:
.L422:
	.loc 1 3923 7 is_stmt 1
	.loc 1 3923 70 is_stmt 0
	ldr	r2, [r4, #36]
	.loc 1 3923 7
	ldr	r1, [r4, #28]
.LVL558:
	mov	r0, r4
	bl	HAL_JPEG_DataReadyCallback
.LVL559:
	.loc 1 3926 7 is_stmt 1
	.loc 1 3926 27 is_stmt 0
	movs	r3, #0
	str	r3, [r4, #36]
	b	.L418
.L423:
	.loc 1 3945 7 is_stmt 1
	mov	r0, r4
	bl	HAL_JPEG_DecodeCpltCallback
.LVL560:
	b	.L412
	.cfi_endproc
.LFE382:
	.size	JPEG_DMA_PollResidualData, .-JPEG_DMA_PollResidualData
	.section	.text.HAL_JPEG_Resume,"ax",%progbits
	.align	1
	.global	HAL_JPEG_Resume
	.syntax unified
	.thumb
	.thumb_func
	.type	HAL_JPEG_Resume, %function
HAL_JPEG_Resume:
.LFB351:
	.loc 1 2054 1
	.cfi_startproc
	@ args = 0, pretend = 0, frame = 0
	@ frame_needed = 0, uses_anonymous_args = 0
.LVL561:
	.loc 1 2055 3
	.loc 1 2056 3
	.loc 1 2058 3
	.loc 1 2060 3
	.loc 1 2060 13 is_stmt 0
	ldr	r3, [r0, #84]
	.loc 1 2060 6
	tst	r3, #12288
	beq	.L433
	.loc 1 2054 1
	push	{r4, r5, lr}
	.cfi_def_cfa_offset 12
	.cfi_offset 4, -12
	.cfi_offset 5, -8
	.cfi_offset 14, -4
	sub	sp, sp, #12
	.cfi_def_cfa_offset 24
	mov	r4, r0
	mov	r5, r1
	.loc 1 2066 3 is_stmt 1
	.loc 1 2066 13 is_stmt 0
	ldr	r3, [r0, #84]
	.loc 1 2066 23
	and	r3, r3, #12
	.loc 1 2066 6
	cmp	r3, #12
	beq	.L440
	.loc 1 2141 8 is_stmt 1
	.loc 1 2141 18 is_stmt 0
	ldr	r3, [r0, #84]
	.loc 1 2141 28
	and	r3, r3, #12
	.loc 1 2141 11
	cmp	r3, #8
	beq	.L441
	.loc 1 2162 10
	movs	r0, #0
.LVL562:
.L425:
	.loc 1 2163 1
	add	sp, sp, #12
	.cfi_remember_state
	.cfi_def_cfa_offset 12
	@ sp needed
	pop	{r4, r5, pc}
.LVL563:
.L440:
	.cfi_restore_state
	.loc 1 2069 5 is_stmt 1
	.loc 1 2069 8 is_stmt 0
	tst	r1, #1
	beq	.L427
	.loc 1 2071 7 is_stmt 1
	.loc 1 2071 12 is_stmt 0
	ldr	r3, [r0, #84]
	.loc 1 2071 22
	bic	r3, r3, #4096
	str	r3, [r0, #84]
	.loc 1 2078 7 is_stmt 1
	.loc 1 2078 22 is_stmt 0
	ldr	r0, [r0, #48]
.LVL564:
	.loc 1 2078 15
	ldr	r2, [r0, #40]
.LVL565:
	.loc 1 2080 7 is_stmt 1
	.loc 1 2080 10 is_stmt 0
	cbz	r2, .L442
	.loc 1 2087 7 is_stmt 1
	.loc 1 2087 34 is_stmt 0
	ldr	r3, [r4, #40]
	.loc 1 2087 72
	udiv	r1, r3, r2
.LVL566:
	mls	r2, r2, r1, r3
.LVL567:
	.loc 1 2087 49
	subs	r3, r3, r2
	.loc 1 2087 27
	str	r3, [r4, #40]
.LVL568:
	.loc 1 2090 7 is_stmt 1
	.loc 1 2090 10 is_stmt 0
	cbnz	r3, .L443
.LVL569:
.L427:
	.loc 1 2102 5 is_stmt 1
	.loc 1 2102 8 is_stmt 0
	tst	r5, #2
	beq	.L434
	.loc 1 2104 7 is_stmt 1
	.loc 1 2104 12 is_stmt 0
	ldr	r3, [r4, #84]
	.loc 1 2104 22
	bic	r3, r3, #8192
	str	r3, [r4, #84]
	.loc 1 2106 7 is_stmt 1
	.loc 1 2106 17 is_stmt 0
	ldr	r3, [r4, #84]
	.loc 1 2106 10
	tst	r3, #32768
	bne	.L444
	.loc 1 2117 9 is_stmt 1
	.loc 1 2117 24 is_stmt 0
	ldr	r0, [r4, #52]
	.loc 1 2117 17
	ldr	r2, [r0, #40]
.LVL570:
	.loc 1 2119 9 is_stmt 1
	.loc 1 2119 12 is_stmt 0
	cbnz	r2, .L430
	.loc 1 2121 11 is_stmt 1
	.loc 1 2121 16 is_stmt 0
	ldr	r3, [r4, #80]
	.loc 1 2121 28
	orr	r3, r3, #4
	str	r3, [r4, #80]
	.loc 1 2122 11 is_stmt 1
	.loc 1 2122 24 is_stmt 0
	movs	r3, #6
	strb	r3, [r4, #77]
	.loc 1 2123 11 is_stmt 1
	.loc 1 2123 18 is_stmt 0
	movs	r0, #1
	b	.L425
.LVL571:
.L442:
	.loc 1 2082 9 is_stmt 1
	.loc 1 2082 14 is_stmt 0
	ldr	r3, [r4, #80]
	.loc 1 2082 26
	orr	r3, r3, #4
	str	r3, [r4, #80]
	.loc 1 2083 9 is_stmt 1
	.loc 1 2083 22 is_stmt 0
	movs	r3, #6
	strb	r3, [r4, #77]
	.loc 1 2084 9 is_stmt 1
	.loc 1 2084 16 is_stmt 0
	movs	r0, #1
	b	.L425
.LVL572:
.L443:
	.loc 1 2093 9 is_stmt 1
	.loc 1 2093 95 is_stmt 0
	ldr	r2, [r4]
	.loc 1 2093 13
	movs	r1, #1
	str	r1, [sp]
	adds	r2, r2, #64
	ldr	r1, [r4, #24]
	bl	HAL_MDMA_Start_IT
.LVL573:
	.loc 1 2093 12
	cmp	r0, #0
	beq	.L427
	.loc 1 2096 11 is_stmt 1
	.loc 1 2096 16 is_stmt 0
	ldr	r3, [r4, #80]
	.loc 1 2096 28
	orr	r3, r3, #4
	str	r3, [r4, #80]
	.loc 1 2097 11 is_stmt 1
	.loc 1 2097 24 is_stmt 0
	movs	r3, #6
	strb	r3, [r4, #77]
	.loc 1 2098 11 is_stmt 1
	.loc 1 2098 18 is_stmt 0
	movs	r0, #1
	b	.L425
.LVL574:
.L444:
	.loc 1 2108 9 is_stmt 1
	mov	r0, r4
	bl	JPEG_DMA_PollResidualData
.LVL575:
	.loc 1 2162 10 is_stmt 0
	movs	r0, #0
	b	.L425
.LVL576:
.L430:
	.loc 1 2126 9 is_stmt 1
	.loc 1 2126 37 is_stmt 0
	ldr	r3, [r4, #44]
	.loc 1 2126 77
	udiv	r1, r3, r2
	mls	r2, r2, r1, r3
.LVL577:
	.loc 1 2126 53
	subs	r3, r3, r2
	.loc 1 2126 30
	str	r3, [r4, #44]
.LVL578:
	.loc 1 2129 9 is_stmt 1
	.loc 1 2129 63 is_stmt 0
	ldr	r1, [r4]
	.loc 1 2129 13
	movs	r2, #1
	str	r2, [sp]
	ldr	r2, [r4, #28]
	adds	r1, r1, #68
	bl	HAL_MDMA_Start_IT
.LVL579:
	.loc 1 2129 12
	cmp	r0, #0
	beq	.L425
	.loc 1 2132 11 is_stmt 1
	.loc 1 2132 16 is_stmt 0
	ldr	r3, [r4, #80]
	.loc 1 2132 28
	orr	r3, r3, #4
	str	r3, [r4, #80]
	.loc 1 2133 11 is_stmt 1
	.loc 1 2133 24 is_stmt 0
	movs	r3, #6
	strb	r3, [r4, #77]
	.loc 1 2134 11 is_stmt 1
	.loc 1 2134 18 is_stmt 0
	movs	r0, #1
	b	.L425
.LVL580:
.L441:
	.loc 1 2143 5 is_stmt 1
	.loc 1 2143 8 is_stmt 0
	ands	r2, r1, #1
	beq	.L431
	.loc 1 2145 7 is_stmt 1
	.loc 1 2145 12 is_stmt 0
	ldr	r3, [r0, #84]
	.loc 1 2145 22
	bic	r3, r3, #4096
	str	r3, [r0, #84]
	.loc 1 2146 7 is_stmt 1
.LVL581:
	.loc 1 2146 12 is_stmt 0
	movs	r2, #6
.LVL582:
.L431:
	.loc 1 2148 5 is_stmt 1
	.loc 1 2148 8 is_stmt 0
	tst	r5, #2
	beq	.L432
	.loc 1 2150 7 is_stmt 1
	.loc 1 2150 12 is_stmt 0
	ldr	r3, [r4, #84]
	.loc 1 2150 22
	bic	r3, r3, #8192
	str	r3, [r4, #84]
	.loc 1 2151 7 is_stmt 1
	.loc 1 2151 12 is_stmt 0
	orr	r2, r2, #40
.LVL583:
.L432:
	.loc 1 2153 5 is_stmt 1
	.loc 1 2153 13 is_stmt 0
	ldr	r1, [r4]
.LVL584:
	.loc 1 2153 23
	ldr	r3, [r1, #48]
	.loc 1 2153 28
	orrs	r3, r3, r2
	str	r3, [r1, #48]
	.loc 1 2162 10
	movs	r0, #0
.LVL585:
	b	.L425
.LVL586:
.L433:
	.cfi_def_cfa_offset 0
	.cfi_restore 4
	.cfi_restore 5
	.cfi_restore 14
	.loc 1 2063 12
	movs	r0, #1
.LVL587:
	.loc 1 2163 1
	bx	lr
.LVL588:
.L434:
	.cfi_def_cfa_offset 24
	.cfi_offset 4, -12
	.cfi_offset 5, -8
	.cfi_offset 14, -4
	.loc 1 2162 10
	movs	r0, #0
	b	.L425
	.cfi_endproc
.LFE351:
	.size	HAL_JPEG_Resume, .-HAL_JPEG_Resume
	.section	.text.JPEG_DMA_EndProcess,"ax",%progbits
	.align	1
	.syntax unified
	.thumb
	.thumb_func
	.type	JPEG_DMA_EndProcess, %function
JPEG_DMA_EndProcess:
.LFB381:
	.loc 1 3796 1 is_stmt 1
	.cfi_startproc
	@ args = 0, pretend = 0, frame = 0
	@ frame_needed = 0, uses_anonymous_args = 0
.LVL589:
	push	{r4, lr}
	.cfi_def_cfa_offset 8
	.cfi_offset 4, -8
	.cfi_offset 14, -4
	mov	r4, r0
	.loc 1 3797 3
	.loc 1 3798 3
	.loc 1 3798 30 is_stmt 0
	ldr	r2, [r0, #44]
	.loc 1 3798 54
	ldr	r3, [r0, #52]
	.loc 1 3798 63
	ldr	r3, [r3]
	.loc 1 3798 73
	ldr	r3, [r3, #20]
	.loc 1 3798 82
	ubfx	r3, r3, #0, #17
	.loc 1 3798 46
	subs	r3, r2, r3
	.loc 1 3798 23
	str	r3, [r0, #36]
	.loc 1 3801 3 is_stmt 1
	.loc 1 3801 12 is_stmt 0
	ldr	r3, [r0, #36]
	.loc 1 3801 6
	cmp	r2, r3
	beq	.L452
.LVL590:
.L446:
	.loc 1 3813 3 is_stmt 1
	.loc 1 3813 16 is_stmt 0
	ldr	r3, [r4]
	.loc 1 3813 26
	ldr	r3, [r3, #52]
	.loc 1 3813 6
	tst	r3, #16
	bne	.L447
	.loc 1 3815 5 is_stmt 1
	.loc 1 3815 14 is_stmt 0
	ldr	r3, [r4, #36]
	.loc 1 3815 8
	cbnz	r3, .L453
.L448:
	.loc 1 3828 5 is_stmt 1
	.loc 1 3828 10 is_stmt 0
	ldr	r2, [r4]
	.loc 1 3828 20
	ldr	r3, [r2]
	.loc 1 3828 29
	bic	r3, r3, #1
	str	r3, [r2]
	.loc 1 3830 5 is_stmt 1
	.loc 1 3830 16 is_stmt 0
	ldr	r3, [r4, #84]
.LVL591:
	.loc 1 3832 5 is_stmt 1
	.loc 1 3832 10 is_stmt 0
	ldr	r2, [r4, #84]
	.loc 1 3832 20
	and	r2, r2, #16640
	str	r2, [r4, #84]
	.loc 1 3835 5 is_stmt 1
	.loc 1 3835 9
	.loc 1 3835 23 is_stmt 0
	movs	r2, #0
	strb	r2, [r4, #76]
	.loc 1 3835 7 is_stmt 1
	.loc 1 3838 5
	.loc 1 3838 18 is_stmt 0
	movs	r2, #1
	strb	r2, [r4, #77]
	.loc 1 3841 5 is_stmt 1
	.loc 1 3841 21 is_stmt 0
	and	r3, r3, #3
.LVL592:
	.loc 1 3841 8
	cmp	r3, #2
	beq	.L454
	.loc 1 3854 7 is_stmt 1
	mov	r0, r4
	bl	HAL_JPEG_EncodeCpltCallback
.LVL593:
	b	.L445
.LVL594:
.L452:
	.loc 1 3806 5
	.loc 1 3806 68 is_stmt 0
	ldr	r2, [r0, #36]
	.loc 1 3806 5
	ldr	r1, [r0, #28]
	bl	HAL_JPEG_DataReadyCallback
.LVL595:
	.loc 1 3809 5 is_stmt 1
	.loc 1 3809 25 is_stmt 0
	movs	r3, #0
	str	r3, [r4, #36]
	b	.L446
.L453:
	.loc 1 3821 7 is_stmt 1
	.loc 1 3821 70 is_stmt 0
	ldr	r2, [r4, #36]
	.loc 1 3821 7
	ldr	r1, [r4, #28]
	mov	r0, r4
	bl	HAL_JPEG_DataReadyCallback
.LVL596:
	.loc 1 3824 7 is_stmt 1
	.loc 1 3824 27 is_stmt 0
	movs	r3, #0
	str	r3, [r4, #36]
	b	.L448
.LVL597:
.L454:
	.loc 1 3846 7 is_stmt 1
	mov	r0, r4
	bl	HAL_JPEG_DecodeCpltCallback
.LVL598:
	b	.L445
.LVL599:
.L447:
	.loc 1 3858 8
	.loc 1 3858 18 is_stmt 0
	ldr	r3, [r4, #84]
	.loc 1 3858 11
	tst	r3, #8192
	beq	.L455
.L445:
	.loc 1 3867 1
	pop	{r4, pc}
.LVL600:
.L455:
	.loc 1 3860 5 is_stmt 1
	mov	r0, r4
	bl	JPEG_DMA_PollResidualData
.LVL601:
	.loc 1 3865 3
	.loc 1 3867 1 is_stmt 0
	b	.L445
	.cfi_endproc
.LFE381:
	.size	JPEG_DMA_EndProcess, .-JPEG_DMA_EndProcess
	.section	.text.JPEG_MDMAOutAbortCallback,"ax",%progbits
	.align	1
	.syntax unified
	.thumb
	.thumb_func
	.type	JPEG_MDMAOutAbortCallback, %function
JPEG_MDMAOutAbortCallback:
.LFB386:
	.loc 1 4129 1 is_stmt 1
	.cfi_startproc
	@ args = 0, pretend = 0, frame = 0
	@ frame_needed = 0, uses_anonymous_args = 0
.LVL602:
	push	{r3, lr}
	.cfi_def_cfa_offset 8
	.cfi_offset 3, -8
	.cfi_offset 14, -4
	.loc 1 4130 3
	.loc 1 4130 23 is_stmt 0
	ldr	r0, [r0, #64]
.LVL603:
	.loc 1 4132 3 is_stmt 1
	.loc 1 4132 13 is_stmt 0
	ldr	r3, [r0, #84]
	.loc 1 4132 6
	tst	r3, #32768
	bne	.L459
.LVL604:
.L456:
	.loc 1 4136 1
	pop	{r3, pc}
.LVL605:
.L459:
	.loc 1 4134 5 is_stmt 1
	bl	JPEG_DMA_EndProcess
.LVL606:
	.loc 1 4136 1 is_stmt 0
	b	.L456
	.cfi_endproc
.LFE386:
	.size	JPEG_MDMAOutAbortCallback, .-JPEG_MDMAOutAbortCallback
	.section	.text.JPEG_DMA_ContinueProcess,"ax",%progbits
	.align	1
	.syntax unified
	.thumb
	.thumb_func
	.type	JPEG_DMA_ContinueProcess, %function
JPEG_DMA_ContinueProcess:
.LFB380:
	.loc 1 3727 1 is_stmt 1
	.cfi_startproc
	@ args = 0, pretend = 0, frame = 0
	@ frame_needed = 0, uses_anonymous_args = 0
.LVL607:
	push	{r3, r4, r5, lr}
	.cfi_def_cfa_offset 16
	.cfi_offset 3, -16
	.cfi_offset 4, -12
	.cfi_offset 5, -8
	.cfi_offset 14, -4
	mov	r4, r0
	.loc 1 3729 3
	.loc 1 3729 13 is_stmt 0
	ldr	r3, [r0, #84]
	.loc 1 3729 23
	and	r3, r3, #3
	.loc 1 3729 6
	cmp	r3, #2
	beq	.L466
.LVL608:
.L461:
	.loc 1 3756 3 is_stmt 1
	.loc 1 3756 16 is_stmt 0
	ldr	r3, [r4]
	.loc 1 3756 26
	ldr	r2, [r3, #52]
	.loc 1 3756 6
	tst	r2, #32
	beq	.L460
	.loc 1 3759 5 is_stmt 1
	.loc 1 3759 10 is_stmt 0
	ldr	r2, [r4, #84]
	.loc 1 3759 20
	orr	r2, r2, #32768
	str	r2, [r4, #84]
	.loc 1 3762 5 is_stmt 1
	.loc 1 3762 20 is_stmt 0
	ldr	r2, [r3]
	.loc 1 3762 29
	bic	r2, r2, #1
	str	r2, [r3]
	.loc 1 3764 5 is_stmt 1
	.loc 1 3764 47 is_stmt 0
	ldr	r2, [r4]
	.loc 1 3764 57
	ldr	r3, [r2, #48]
	.loc 1 3764 99
	bic	r3, r3, #126
	.loc 1 3764 32
	str	r3, [r2, #48]
	.loc 1 3767 5 is_stmt 1
	.loc 1 3767 14 is_stmt 0
	ldr	r2, [r4]
	.loc 1 3767 24
	ldr	r3, [r2, #56]
	.loc 1 3767 30
	orr	r3, r3, #96
	str	r3, [r2, #56]
	.loc 1 3769 5 is_stmt 1
	.loc 1 3769 14 is_stmt 0
	ldr	r0, [r4, #48]
	.loc 1 3769 22
	ldrb	r3, [r0, #61]	@ zero_extendqisi2
	uxtb	r3, r3
	.loc 1 3769 8
	cmp	r3, #2
	beq	.L467
.L463:
	.loc 1 3775 5 is_stmt 1
	.loc 1 3775 14 is_stmt 0
	ldr	r0, [r4, #52]
	.loc 1 3775 23
	ldrb	r3, [r0, #61]	@ zero_extendqisi2
	uxtb	r3, r3
	.loc 1 3775 8
	cmp	r3, #2
	beq	.L468
	.loc 1 3782 7 is_stmt 1
	mov	r0, r4
	bl	JPEG_DMA_EndProcess
.LVL609:
.L460:
	.loc 1 3787 1 is_stmt 0
	pop	{r3, r4, r5, pc}
.LVL610:
.L466:
	.loc 1 3731 5 is_stmt 1
	.loc 1 3731 18 is_stmt 0
	ldr	r3, [r0]
	.loc 1 3731 28
	ldr	r3, [r3, #52]
	.loc 1 3731 8
	tst	r3, #64
	beq	.L461
	.loc 1 3734 7 is_stmt 1
	.loc 1 3734 14 is_stmt 0
	adds	r5, r0, #4
	mov	r1, r5
	bl	HAL_JPEG_GetInfo
.LVL611:
	.loc 1 3737 7 is_stmt 1
	.loc 1 3737 32 is_stmt 0
	movs	r3, #0
	str	r3, [r4, #20]
	.loc 1 3745 7 is_stmt 1
	mov	r1, r5
	mov	r0, r4
	bl	HAL_JPEG_InfoReadyCallback
.LVL612:
	.loc 1 3748 7
	.loc 1 3748 49 is_stmt 0
	ldr	r2, [r4]
	.loc 1 3748 59
	ldr	r3, [r2, #48]
	.loc 1 3748 105
	bic	r3, r3, #64
	.loc 1 3748 34
	str	r3, [r2, #48]
	.loc 1 3751 7 is_stmt 1
	.loc 1 3751 16 is_stmt 0
	ldr	r2, [r4]
	.loc 1 3751 26
	ldr	r3, [r2, #56]
	.loc 1 3751 32
	orr	r3, r3, #64
	str	r3, [r2, #56]
	b	.L461
.L467:
	.loc 1 3772 7 is_stmt 1
	.loc 1 3772 14 is_stmt 0
	bl	HAL_MDMA_Abort_IT
.LVL613:
	b	.L463
.L468:
	.loc 1 3778 7 is_stmt 1
	.loc 1 3778 14 is_stmt 0
	bl	HAL_MDMA_Abort_IT
.LVL614:
	b	.L460
	.cfi_endproc
.LFE380:
	.size	JPEG_DMA_ContinueProcess, .-JPEG_DMA_ContinueProcess
	.section	.text.JPEG_MDMAOutCpltCallback,"ax",%progbits
	.align	1
	.syntax unified
	.thumb
	.thumb_func
	.type	JPEG_MDMAOutCpltCallback, %function
JPEG_MDMAOutCpltCallback:
.LFB384:
	.loc 1 4053 1 is_stmt 1
	.cfi_startproc
	@ args = 0, pretend = 0, frame = 0
	@ frame_needed = 0, uses_anonymous_args = 0
.LVL615:
	push	{r4, r5, lr}
	.cfi_def_cfa_offset 12
	.cfi_offset 4, -12
	.cfi_offset 5, -8
	.cfi_offset 14, -4
	sub	sp, sp, #12
	.cfi_def_cfa_offset 24
	.loc 1 4054 3
	.loc 1 4054 23 is_stmt 0
	ldr	r4, [r0, #64]
.LVL616:
	.loc 1 4058 3 is_stmt 1
	.loc 1 4058 45 is_stmt 0
	ldr	r2, [r4]
	.loc 1 4058 55
	ldr	r3, [r2, #48]
	.loc 1 4058 97
	bic	r3, r3, #126
	.loc 1 4058 30
	str	r3, [r2, #48]
	.loc 1 4060 3 is_stmt 1
	.loc 1 4060 13 is_stmt 0
	ldr	r3, [r4, #84]
	.loc 1 4060 23
	bic	r3, r3, #32640
	bic	r3, r3, #115
	lsls	r3, r3, #16
	lsrs	r3, r3, #16
	.loc 1 4060 6
	cmp	r3, #12
	beq	.L473
.LVL617:
.L469:
	.loc 1 4096 1
	add	sp, sp, #12
	.cfi_remember_state
	.cfi_def_cfa_offset 12
	@ sp needed
	pop	{r4, r5, pc}
.LVL618:
.L473:
	.cfi_restore_state
	.loc 1 4063 5 is_stmt 1
	.loc 1 4063 18 is_stmt 0
	ldr	r3, [r4]
	.loc 1 4063 28
	ldr	r3, [r3, #52]
	.loc 1 4063 8
	tst	r3, #32
	beq	.L474
.LVL619:
.L471:
	.loc 1 4093 5 is_stmt 1
	.loc 1 4093 13 is_stmt 0
	ldr	r2, [r4]
	.loc 1 4093 23
	ldr	r3, [r2, #48]
	.loc 1 4093 28
	orr	r3, r3, #96
	str	r3, [r2, #48]
	b	.L469
.LVL620:
.L474:
	.loc 1 4065 7 is_stmt 1
	.loc 1 4065 34 is_stmt 0
	ldr	r3, [r4, #44]
	.loc 1 4065 58
	ldr	r2, [r0]
	.loc 1 4065 68
	ldr	r2, [r2, #20]
	.loc 1 4065 77
	ubfx	r2, r2, #0, #17
	.loc 1 4065 50
	subs	r3, r3, r2
	.loc 1 4065 27
	str	r3, [r4, #36]
	.loc 1 4071 7 is_stmt 1
	.loc 1 4071 70 is_stmt 0
	ldr	r2, [r4, #36]
	.loc 1 4071 7
	ldr	r1, [r4, #28]
	mov	r0, r4
.LVL621:
	bl	HAL_JPEG_DataReadyCallback
.LVL622:
	.loc 1 4074 7 is_stmt 1
	.loc 1 4074 17 is_stmt 0
	ldr	r3, [r4, #84]
	.loc 1 4074 10
	tst	r3, #8192
	bne	.L471
	.loc 1 4077 9 is_stmt 1
	.loc 1 4077 63 is_stmt 0
	ldr	r1, [r4]
	.loc 1 4077 95
	ldr	r2, [r4, #28]
	.loc 1 4077 13
	ldr	r3, [r4, #44]
	ldr	r0, [r4, #52]
	movs	r5, #1
	str	r5, [sp]
	adds	r1, r1, #68
	bl	HAL_MDMA_Start_IT
.LVL623:
	.loc 1 4077 12
	cmp	r0, #0
	beq	.L471
	.loc 1 4080 11 is_stmt 1
	.loc 1 4080 16 is_stmt 0
	ldr	r3, [r4, #80]
	.loc 1 4080 28
	orr	r3, r3, #4
	str	r3, [r4, #80]
	.loc 1 4081 11 is_stmt 1
	.loc 1 4081 24 is_stmt 0
	movs	r3, #6
	strb	r3, [r4, #77]
	.loc 1 4085 11 is_stmt 1
	mov	r0, r4
	bl	HAL_JPEG_ErrorCallback
.LVL624:
	.loc 1 4087 11
	b	.L469
	.cfi_endproc
.LFE384:
	.size	JPEG_MDMAOutCpltCallback, .-JPEG_MDMAOutCpltCallback
	.section	.text.HAL_JPEG_IRQHandler,"ax",%progbits
	.align	1
	.global	HAL_JPEG_IRQHandler
	.syntax unified
	.thumb
	.thumb_func
	.type	HAL_JPEG_IRQHandler, %function
HAL_JPEG_IRQHandler:
.LFB361:
	.loc 1 2442 1
	.cfi_startproc
	@ args = 0, pretend = 0, frame = 0
	@ frame_needed = 0, uses_anonymous_args = 0
.LVL625:
	push	{r3, lr}
	.cfi_def_cfa_offset 8
	.cfi_offset 3, -8
	.cfi_offset 14, -4
	.loc 1 2443 3
	.loc 1 2443 16 is_stmt 0
	ldrb	r3, [r0, #77]	@ zero_extendqisi2
	.loc 1 2443 3
	subs	r3, r3, #3
	cmp	r3, #1
	bls	.L479
.LVL626:
.L475:
	.loc 1 2466 1
	pop	{r3, pc}
.LVL627:
.L479:
	.loc 1 2449 7 is_stmt 1
	.loc 1 2449 17 is_stmt 0
	ldr	r3, [r0, #84]
	.loc 1 2449 27
	and	r3, r3, #12
	.loc 1 2449 10
	cmp	r3, #8
	beq	.L480
	.loc 1 2453 12 is_stmt 1
	.loc 1 2453 22 is_stmt 0
	ldr	r3, [r0, #84]
	.loc 1 2453 32
	and	r3, r3, #12
	.loc 1 2453 15
	cmp	r3, #12
	bne	.L475
	.loc 1 2455 9 is_stmt 1
	bl	JPEG_DMA_ContinueProcess
.LVL628:
	.loc 1 2466 1 is_stmt 0
	b	.L475
.LVL629:
.L480:
	.loc 1 2451 9 is_stmt 1
	.loc 1 2451 16 is_stmt 0
	bl	JPEG_Process
.LVL630:
	b	.L475
	.cfi_endproc
.LFE361:
	.size	HAL_JPEG_IRQHandler, .-HAL_JPEG_IRQHandler
	.section	.text.HAL_JPEG_GetState,"ax",%progbits
	.align	1
	.global	HAL_JPEG_GetState
	.syntax unified
	.thumb
	.thumb_func
	.type	HAL_JPEG_GetState, %function
HAL_JPEG_GetState:
.LFB362:
	.loc 1 2494 1 is_stmt 1
	.cfi_startproc
	@ args = 0, pretend = 0, frame = 0
	@ frame_needed = 0, uses_anonymous_args = 0
	@ link register save eliminated.
.LVL631:
	.loc 1 2495 3
	.loc 1 2495 15 is_stmt 0
	ldrb	r0, [r0, #77]	@ zero_extendqisi2
.LVL632:
	.loc 1 2496 1
	bx	lr
	.cfi_endproc
.LFE362:
	.size	HAL_JPEG_GetState, .-HAL_JPEG_GetState
	.section	.text.HAL_JPEG_GetError,"ax",%progbits
	.align	1
	.global	HAL_JPEG_GetError
	.syntax unified
	.thumb
	.thumb_func
	.type	HAL_JPEG_GetError, %function
HAL_JPEG_GetError:
.LFB363:
	.loc 1 2505 1 is_stmt 1
	.cfi_startproc
	@ args = 0, pretend = 0, frame = 0
	@ frame_needed = 0, uses_anonymous_args = 0
	@ link register save eliminated.
.LVL633:
	.loc 1 2506 3
	.loc 1 2506 15 is_stmt 0
	ldr	r0, [r0, #80]
.LVL634:
	.loc 1 2507 1
	bx	lr
	.cfi_endproc
.LFE363:
	.size	HAL_JPEG_GetError, .-HAL_JPEG_GetError
	.section	.rodata.JPEG_CHROM_QuantTable.0,"a"
	.align	2
	.type	JPEG_CHROM_QuantTable.0, %object
	.size	JPEG_CHROM_QuantTable.0, 64
JPEG_CHROM_QuantTable.0:
	.ascii	"\021\022\030/cccc\022\025\032Bcccc\030\0328ccccc/Bc"
	.ascii	"ccccccccccccccccccccccccccccccccccccc"
	.section	.rodata.JPEG_LUM_QuantTable.1,"a"
	.align	2
	.type	JPEG_LUM_QuantTable.1, %object
	.size	JPEG_LUM_QuantTable.1, 64
JPEG_LUM_QuantTable.1:
	.ascii	"\020\013\012\020\030(3=\014\014\016\023\032:<7\016\015"
	.ascii	"\020\030(9E8\016\021\026\0353WP>\022\026%8DmgM\030#"
	.ascii	"7@Qhq\\1@NWgyxeH\\_bpdgc"
	.section	.rodata.JPEG_ZIGZAG_ORDER,"a"
	.align	2
	.type	JPEG_ZIGZAG_ORDER, %object
	.size	JPEG_ZIGZAG_ORDER, 64
JPEG_ZIGZAG_ORDER:
	.ascii	"\000\001\010\020\011\002\003\012\021\030 \031\022\013"
	.ascii	"\004\005\014\023\032!(0)\"\033\024\015\006\007\016\025"
	.ascii	"\034#*1892+$\035\026\017\027\036%,3:;4-&\037'.5<=6/"
	.ascii	"7>?"
	.section	.rodata.JPEG_ACCHROM_HuffTable,"a"
	.align	2
	.type	JPEG_ACCHROM_HuffTable, %object
	.size	JPEG_ACCHROM_HuffTable, 178
JPEG_ACCHROM_HuffTable:
	.ascii	"\000\002\001\002\004\004\003\004\007\005\004\004\000"
	.ascii	"\001\002w"
	.ascii	"\000\001\002\003\021\004\005!1\006\022AQ\007aq\023\""
	.ascii	"2\201\010\024B\221\241\261\301\011#3R\360\025br\321"
	.ascii	"\012\026$4\341%\361\027\030\031\032&'()*56789:CDEFG"
	.ascii	"HIJSTUVWXYZcdefghijstuvwxyz\202\203\204\205\206\207"
	.ascii	"\210\211\212\222\223\224\225\226\227\230\231\232\242"
	.ascii	"\243\244\245\246\247\250\251\252\262\263\264\265\266"
	.ascii	"\267\270\271\272\302\303\304\305\306\307\310\311\312"
	.ascii	"\322\323\324\325\326\327\330\331\332\342\343\344\345"
	.ascii	"\346\347\350\351\352\362\363\364\365\366\367\370\371"
	.ascii	"\372"
	.section	.rodata.JPEG_ACLUM_HuffTable,"a"
	.align	2
	.type	JPEG_ACLUM_HuffTable, %object
	.size	JPEG_ACLUM_HuffTable, 178
JPEG_ACLUM_HuffTable:
	.ascii	"\000\002\001\003\003\002\004\003\005\005\004\004\000"
	.ascii	"\000\001}"
	.ascii	"\001\002\003\000\004\021\005\022!1A\006\023Qa\007\""
	.ascii	"q\0242\201\221\241\010#B\261\301\025R\321\360$3br\202"
	.ascii	"\011\012\026\027\030\031\032%&'()*456789:CDEFGHIJST"
	.ascii	"UVWXYZcdefghijstuvwxyz\203\204\205\206\207\210\211\212"
	.ascii	"\222\223\224\225\226\227\230\231\232\242\243\244\245"
	.ascii	"\246\247\250\251\252\262\263\264\265\266\267\270\271"
	.ascii	"\272\302\303\304\305\306\307\310\311\312\322\323\324"
	.ascii	"\325\326\327\330\331\332\341\342\343\344\345\346\347"
	.ascii	"\350\351\352\361\362\363\364\365\366\367\370\371\372"
	.section	.rodata.JPEG_DCCHROM_HuffTable,"a"
	.align	2
	.type	JPEG_DCCHROM_HuffTable, %object
	.size	JPEG_DCCHROM_HuffTable, 28
JPEG_DCCHROM_HuffTable:
	.ascii	"\000\003\001\001\001\001\001\001\001\001\001\000\000"
	.ascii	"\000\000\000"
	.ascii	"\000\001\002\003\004\005\006\007\010\011\012\013"
	.section	.rodata.JPEG_DCLUM_HuffTable,"a"
	.align	2
	.type	JPEG_DCLUM_HuffTable, %object
	.size	JPEG_DCLUM_HuffTable, 28
JPEG_DCLUM_HuffTable:
	.ascii	"\000\001\005\001\001\001\001\001\001\000\000\000\000"
	.ascii	"\000\000\000"
	.ascii	"\000\001\002\003\004\005\006\007\010\011\012\013"
	.text
.Letext0:
	.file 2 "m:\\noinstall\\arm-gnu-toolchain-12.2.rel1-mingw-w64-i686-arm-none-eabi\\arm-none-eabi\\include\\machine\\_default_types.h"
	.file 3 "m:\\noinstall\\arm-gnu-toolchain-12.2.rel1-mingw-w64-i686-arm-none-eabi\\arm-none-eabi\\include\\sys\\_stdint.h"
	.file 4 "D:/RTOS/Board/YD-STM32H7xxVx_ClassicV19/cmake-build-debug/_deps/stm32h7xx_cmsis_device-src/Include/stm32h743xx.h"
	.file 5 "D:/RTOS/Board/YD-STM32H7xxVx_ClassicV19/cmake-build-debug/_deps/stm32h7xx_hal_driver-src/Inc/stm32h7xx_hal_def.h"
	.file 6 "D:/RTOS/Board/YD-STM32H7xxVx_ClassicV19/cmake-build-debug/_deps/stm32h7xx_hal_driver-src/Inc/stm32h7xx_hal_mdma.h"
	.file 7 "D:/RTOS/Board/YD-STM32H7xxVx_ClassicV19/cmake-build-debug/_deps/stm32h7xx_hal_driver-src/Inc/stm32h7xx_hal_jpeg.h"
	.file 8 "D:/RTOS/Board/YD-STM32H7xxVx_ClassicV19/cmake-build-debug/_deps/stm32h7xx_hal_driver-src/Inc/stm32h7xx_hal.h"