	.cpu cortex-m7
	.arch armv7e-m
	.fpu fpv5-d16
	.eabi_attribute 28, 1
	.eabi_attribute 20, 1
	.eabi_attribute 21, 1
	.eabi_attribute 23, 3
	.eabi_attribute 24, 1
	.eabi_attribute 25, 1
	.eabi_attribute 26, 1
	.eabi_attribute 30, 1
	.eabi_attribute 34, 1
	.eabi_attribute 18, 4
	.file	"stm32h7xx_hal_dma2d.c"
	.text
.Ltext0:
	.cfi_sections	.debug_frame
	.file 1 "D:/RTOS/Board/YD-STM32H7xxVx_ClassicV19/cmake-build-debug/_deps/stm32h7xx_hal_driver-src/Src/stm32h7xx_hal_dma2d.c"
	.section	.text.DMA2D_SetConfig,"ax",%progbits
	.align	1
	.syntax unified
	.thumb
	.thumb_func
	.type	DMA2D_SetConfig, %function
DMA2D_SetConfig:
.LFB366:
	.loc 1 2106 1
	.cfi_startproc
	@ args = 4, pretend = 0, frame = 0
	@ frame_needed = 0, uses_anonymous_args = 0
	@ link register save eliminated.
.LVL0:
	push	{r4, r5}
	.cfi_def_cfa_offset 8
	.cfi_offset 4, -8
	.cfi_offset 5, -4
	.loc 1 2107 3
	.loc 1 2108 3
	.loc 1 2109 3
	.loc 1 2110 3
	.loc 1 2111 3
	.loc 1 2114 3
	.loc 1 2114 44 is_stmt 0
	ldr	r5, [r0]
	.loc 1 2114 54
	ldr	r4, [r5, #68]
	.loc 1 2114 63
	and	ip, r4, #-1073741824
	.loc 1 2114 125
	ldr	r4, [sp, #8]
	orr	r4, r4, r3, lsl #16
	.loc 1 2114 114
	orr	r4, ip, r4
	.loc 1 2114 30
	str	r4, [r5, #68]
	.loc 1 2117 3 is_stmt 1
	.loc 1 2117 11 is_stmt 0
	ldr	r3, [r0]
.LVL1:
	.loc 1 2117 29
	str	r2, [r3, #60]
	.loc 1 2120 3 is_stmt 1
	.loc 1 2120 19 is_stmt 0
	ldr	r3, [r0, #4]
	.loc 1 2120 6
	cmp	r3, #196608
	beq	.L10
	.loc 1 2162 8 is_stmt 1
	.loc 1 2162 11 is_stmt 0
	cmp	r3, #262144
	beq	.L11
	.loc 1 2169 5 is_stmt 1
	.loc 1 2169 13 is_stmt 0
	ldr	r3, [r0]
	.loc 1 2169 32
	str	r1, [r3, #12]
.LVL2:
.L1:
	.loc 1 2171 1
	pop	{r4, r5}
	.cfi_remember_state
	.cfi_restore 5
	.cfi_restore 4
	.cfi_def_cfa_offset 0
.LVL3:
	bx	lr
.LVL4:
.L10:
	.cfi_restore_state
	.loc 1 2122 5 is_stmt 1
	.loc 1 2122 10 is_stmt 0
	and	ip, r1, #-16777216
.LVL5:
	.loc 1 2123 5 is_stmt 1
	.loc 1 2123 10 is_stmt 0
	and	r3, r1, #16711680
.LVL6:
	.loc 1 2124 5 is_stmt 1
	.loc 1 2124 10 is_stmt 0
	and	r5, r1, #65280
.LVL7:
	.loc 1 2125 5 is_stmt 1
	.loc 1 2125 10 is_stmt 0
	uxtb	r2, r1
.LVL8:
	.loc 1 2128 5 is_stmt 1
	.loc 1 2128 21 is_stmt 0
	ldr	r4, [r0, #8]
	.loc 1 2128 8
	cbz	r4, .L3
	.loc 1 2132 10 is_stmt 1
	.loc 1 2132 13 is_stmt 0
	cmp	r4, #1
	beq	.L12
	.loc 1 2136 10 is_stmt 1
	.loc 1 2136 13 is_stmt 0
	cmp	r4, #2
	beq	.L13
	.loc 1 2143 10 is_stmt 1
	.loc 1 2143 13 is_stmt 0
	cmp	r4, #3
	beq	.L14
	.loc 1 2153 7 is_stmt 1
	.loc 1 2153 12 is_stmt 0
	lsr	ip, ip, #28
.LVL9:
	.loc 1 2154 7 is_stmt 1
	.loc 1 2154 12 is_stmt 0
	lsrs	r3, r3, #20
.LVL10:
	.loc 1 2155 7 is_stmt 1
	.loc 1 2155 12 is_stmt 0
	lsrs	r5, r5, #12
.LVL11:
	.loc 1 2156 7 is_stmt 1
	.loc 1 2157 7
	.loc 1 2157 35 is_stmt 0
	lsls	r3, r3, #8
.LVL12:
	.loc 1 2157 27
	orr	r3, r3, r5, lsl #4
	.loc 1 2157 42
	orr	r3, r3, ip, lsl #12
	.loc 1 2157 11
	orr	r1, r3, r2, lsr #4
.LVL13:
	b	.L3
.LVL14:
.L12:
	.loc 1 2134 7 is_stmt 1
	.loc 1 2134 11 is_stmt 0
	bic	r1, r1, #-16777216
.LVL15:
.L3:
	.loc 1 2160 5 is_stmt 1
	.loc 1 2160 13 is_stmt 0
	ldr	r3, [r0]
	.loc 1 2160 32
	str	r1, [r3, #56]
	b	.L1
.LVL16:
.L13:
	.loc 1 2138 7 is_stmt 1
	.loc 1 2138 12 is_stmt 0
	lsrs	r3, r3, #19
.LVL17:
	.loc 1 2139 7 is_stmt 1
	.loc 1 2139 12 is_stmt 0
	lsrs	r5, r5, #10
.LVL18:
	.loc 1 2140 7 is_stmt 1
	.loc 1 2141 7
	.loc 1 2141 35 is_stmt 0
	lsls	r3, r3, #11
.LVL19:
	.loc 1 2141 27
	orr	r3, r3, r5, lsl #5
	.loc 1 2141 11
	orr	r1, r3, r2, lsr #3
.LVL20:
	b	.L3
.LVL21:
.L14:
	.loc 1 2145 7 is_stmt 1
	.loc 1 2145 12 is_stmt 0
	lsr	ip, ip, #31
.LVL22:
	.loc 1 2146 7 is_stmt 1
	.loc 1 2146 12 is_stmt 0
	lsrs	r3, r3, #19
.LVL23:
	.loc 1 2147 7 is_stmt 1
	.loc 1 2147 12 is_stmt 0
	lsrs	r5, r5, #11
.LVL24:
	.loc 1 2148 7 is_stmt 1
	.loc 1 2149 7
	.loc 1 2149 35 is_stmt 0
	lsls	r3, r3, #10
.LVL25:
	.loc 1 2149 27
	orr	r3, r3, r5, lsl #5
	.loc 1 2149 43
	orr	r3, r3, ip, lsl #15
	.loc 1 2149 11
	orr	r1, r3, r2, lsr #3
.LVL26:
	b	.L3
.LVL27:
.L11:
	.loc 1 2164 5 is_stmt 1
	.loc 1 2164 13 is_stmt 0
	ldr	r3, [r0]
	.loc 1 2164 32
	str	r1, [r3, #20]
	b	.L1
	.cfi_endproc
.LFE366:
	.size	DMA2D_SetConfig, .-DMA2D_SetConfig
	.section	.text.HAL_DMA2D_MspInit,"ax",%progbits
	.align	1
	.weak	HAL_DMA2D_MspInit
	.syntax unified
	.thumb
	.thumb_func
	.type	HAL_DMA2D_MspInit, %function
HAL_DMA2D_MspInit:
.LFB337:
	.loc 1 406 1 is_stmt 1
	.cfi_startproc
	@ args = 0, pretend = 0, frame = 0
	@ frame_needed = 0, uses_anonymous_args = 0
	@ link register save eliminated.
.LVL28:
	.loc 1 408 3
	.loc 1 413 1 is_stmt 0
	bx	lr
	.cfi_endproc
.LFE337:
	.size	HAL_DMA2D_MspInit, .-HAL_DMA2D_MspInit
	.section	.text.HAL_DMA2D_Init,"ax",%progbits
	.align	1
	.global	HAL_DMA2D_Init
	.syntax unified
	.thumb
	.thumb_func
	.type	HAL_DMA2D_Init, %function
HAL_DMA2D_Init:
.LFB335:
	.loc 1 239 1 is_stmt 1
	.cfi_startproc
	@ args = 0, pretend = 0, frame = 0
	@ frame_needed = 0, uses_anonymous_args = 0
.LVL29:
	.loc 1 241 3
	.loc 1 241 6 is_stmt 0
	cmp	r0, #0
	beq	.L19
	.loc 1 239 1
	push	{r4, lr}
	.cfi_def_cfa_offset 8
	.cfi_offset 4, -8
	.cfi_offset 14, -4
	mov	r4, r0
	.loc 1 247 3 is_stmt 1
	.loc 1 248 3
	.loc 1 249 3
	.loc 1 250 3
	.loc 1 251 3
	.loc 1 252 3
	.loc 1 253 3
	.loc 1 254 3
	.loc 1 271 3
	.loc 1 271 13 is_stmt 0
	ldrb	r3, [r0, #97]	@ zero_extendqisi2
	.loc 1 271 6
	cmp	r3, #0
	beq	.L24
.LVL30:
.L18:
	.loc 1 281 3 is_stmt 1
	.loc 1 281 17 is_stmt 0
	movs	r3, #2
	strb	r3, [r4, #97]
	.loc 1 284 3 is_stmt 1
	.loc 1 284 43 is_stmt 0
	ldr	r1, [r4]
	.loc 1 284 53
	ldr	r2, [r1]
	.loc 1 284 61
	ldr	r3, .L25
	ands	r3, r3, r2
	.loc 1 284 119
	ldr	r2, [r4, #4]
	.loc 1 284 139
	ldr	r0, [r4, #28]
	.loc 1 284 125
	orrs	r2, r2, r0
	.loc 1 284 104
	orrs	r3, r3, r2
	.loc 1 284 29
	str	r3, [r1]
	.loc 1 287 3 is_stmt 1
	.loc 1 287 47 is_stmt 0
	ldr	r1, [r4]
	.loc 1 287 57
	ldr	r2, [r1, #52]
	.loc 1 287 69
	ldr	r3, .L25+4
	ands	r3, r3, r2
	.loc 1 287 126
	ldr	r2, [r4, #8]
	.loc 1 287 151
	ldr	r0, [r4, #24]
	.loc 1 287 137
	orrs	r2, r2, r0
	.loc 1 287 111
	orrs	r3, r3, r2
	.loc 1 287 33
	str	r3, [r1, #52]
	.loc 1 291 3 is_stmt 1
	.loc 1 291 44 is_stmt 0
	ldr	r2, [r4]
	.loc 1 291 54
	ldr	r1, [r2, #64]
	.loc 1 291 63
	ldr	r3, .L25+8
	ands	r3, r3, r1
	.loc 1 291 105
	ldr	r1, [r4, #12]
	.loc 1 291 90
	orrs	r3, r3, r1
	.loc 1 291 30
	str	r3, [r2, #64]
	.loc 1 293 3 is_stmt 1
	.loc 1 293 47 is_stmt 0
	ldr	r1, [r4]
	.loc 1 293 57
	ldr	r3, [r1, #52]
	.loc 1 293 69
	bic	r3, r3, #3145728
	.loc 1 293 132
	ldr	r0, [r4, #16]
	.loc 1 293 172
	ldr	r2, [r4, #20]
	.loc 1 293 185
	lsls	r2, r2, #21
	.loc 1 293 157
	orr	r2, r2, r0, lsl #20
	.loc 1 293 115
	orrs	r3, r3, r2
	.loc 1 293 33
	str	r3, [r1, #52]
	.loc 1 299 3 is_stmt 1
	.loc 1 299 21 is_stmt 0
	movs	r0, #0
	str	r0, [r4, #100]
	.loc 1 302 3 is_stmt 1
	.loc 1 302 17 is_stmt 0
	movs	r3, #1
	strb	r3, [r4, #97]
	.loc 1 304 3 is_stmt 1
	.loc 1 305 1 is_stmt 0
	pop	{r4, pc}
.LVL31:
.L24:
	.loc 1 274 5 is_stmt 1
	.loc 1 274 18 is_stmt 0
	strb	r3, [r0, #96]
	.loc 1 276 5 is_stmt 1
	bl	HAL_DMA2D_MspInit
.LVL32:
	b	.L18
.LVL33:
.L19:
	.cfi_def_cfa_offset 0
	.cfi_restore 4
	.cfi_restore 14
	.loc 1 243 12 is_stmt 0
	movs	r0, #1
.LVL34:
	.loc 1 305 1
	bx	lr
.L26:
	.align	2
.L25:
	.word	-458817
	.word	-264
	.word	-65536
	.cfi_endproc
.LFE335:
	.size	HAL_DMA2D_Init, .-HAL_DMA2D_Init
	.section	.text.HAL_DMA2D_MspDeInit,"ax",%progbits
	.align	1
	.weak	HAL_DMA2D_MspDeInit
	.syntax unified
	.thumb
	.thumb_func
	.type	HAL_DMA2D_MspDeInit, %function
HAL_DMA2D_MspDeInit:
.LFB338:
	.loc 1 422 1 is_stmt 1
	.cfi_startproc
	@ args = 0, pretend = 0, frame = 0
	@ frame_needed = 0, uses_anonymous_args = 0
	@ link register save eliminated.
.LVL35:
	.loc 1 424 3
	.loc 1 429 1 is_stmt 0
	bx	lr
	.cfi_endproc
.LFE338:
	.size	HAL_DMA2D_MspDeInit, .-HAL_DMA2D_MspDeInit
	.section	.text.HAL_DMA2D_Start,"ax",%progbits
	.align	1
	.global	HAL_DMA2D_Start
	.syntax unified
	.thumb
	.thumb_func
	.type	HAL_DMA2D_Start, %function
HAL_DMA2D_Start:
.LFB339:
	.loc 1 679 1 is_stmt 1
	.cfi_startproc
	@ args = 4, pretend = 0, frame = 0
	@ frame_needed = 0, uses_anonymous_args = 0
.LVL36:
	push	{r4, lr}
	.cfi_def_cfa_offset 8
	.cfi_offset 4, -8
	.cfi_offset 14, -4
	sub	sp, sp, #8
	.cfi_def_cfa_offset 16
	mov	r4, r0
	.loc 1 681 3
	.loc 1 682 3
	.loc 1 685 3
	.loc 1 685 7
	.loc 1 685 18 is_stmt 0
	ldrb	r0, [r0, #96]	@ zero_extendqisi2
.LVL37:
	.loc 1 685 9
	cmp	r0, #1
	beq	.L30
	.loc 1 685 68 is_stmt 1 discriminator 2
	.loc 1 685 83 is_stmt 0 discriminator 2
	movs	r0, #1
	strb	r0, [r4, #96]
	.loc 1 685 5 is_stmt 1 discriminator 2
	.loc 1 688 3 discriminator 2
	.loc 1 688 17 is_stmt 0 discriminator 2
	movs	r0, #2
	strb	r0, [r4, #97]
	.loc 1 691 3 is_stmt 1 discriminator 2
	ldr	r0, [sp, #16]
	str	r0, [sp]
	mov	r0, r4
	bl	DMA2D_SetConfig
.LVL38:
	.loc 1 694 3 discriminator 2
	.loc 1 694 12 is_stmt 0 discriminator 2
	ldr	r2, [r4]
	.loc 1 694 22 discriminator 2
	ldr	r3, [r2]
	.loc 1 694 27 discriminator 2
	orr	r3, r3, #1
	str	r3, [r2]
	.loc 1 696 3 is_stmt 1 discriminator 2
	.loc 1 696 10 is_stmt 0 discriminator 2
	movs	r0, #0
.L29:
	.loc 1 697 1
	add	sp, sp, #8
	.cfi_remember_state
	.cfi_def_cfa_offset 8
	@ sp needed
	pop	{r4, pc}
.LVL39:
.L30:
	.cfi_restore_state
	.loc 1 685 49
	movs	r0, #2
	b	.L29
	.cfi_endproc
.LFE339:
	.size	HAL_DMA2D_Start, .-HAL_DMA2D_Start
	.section	.text.HAL_DMA2D_Start_IT,"ax",%progbits
	.align	1
	.global	HAL_DMA2D_Start_IT
	.syntax unified
	.thumb
	.thumb_func
	.type	HAL_DMA2D_Start_IT, %function
HAL_DMA2D_Start_IT:
.LFB340:
	.loc 1 715 1 is_stmt 1
	.cfi_startproc
	@ args = 4, pretend = 0, frame = 0
	@ frame_needed = 0, uses_anonymous_args = 0
.LVL40:
	push	{r4, lr}
	.cfi_def_cfa_offset 8
	.cfi_offset 4, -8
	.cfi_offset 14, -4
	sub	sp, sp, #8
	.cfi_def_cfa_offset 16
	mov	r4, r0
	.loc 1 717 3
	.loc 1 718 3
	.loc 1 721 3
	.loc 1 721 7
	.loc 1 721 18 is_stmt 0
	ldrb	r0, [r0, #96]	@ zero_extendqisi2
.LVL41:
	.loc 1 721 9
	cmp	r0, #1
	beq	.L34
	.loc 1 721 68 is_stmt 1 discriminator 2
	.loc 1 721 83 is_stmt 0 discriminator 2
	movs	r0, #1
	strb	r0, [r4, #96]
	.loc 1 721 5 is_stmt 1 discriminator 2
	.loc 1 724 3 discriminator 2
	.loc 1 724 17 is_stmt 0 discriminator 2
	movs	r0, #2
	strb	r0, [r4, #97]
	.loc 1 727 3 is_stmt 1 discriminator 2
	ldr	r0, [sp, #16]
	str	r0, [sp]
	mov	r0, r4
	bl	DMA2D_SetConfig
.LVL42:
	.loc 1 730 3 discriminator 2
	.loc 1 730 12 is_stmt 0 discriminator 2
	ldr	r2, [r4]
	.loc 1 730 22 discriminator 2
	ldr	r3, [r2]
	.loc 1 730 27 discriminator 2
	orr	r3, r3, #8960
	str	r3, [r2]
	.loc 1 733 3 is_stmt 1 discriminator 2
	.loc 1 733 12 is_stmt 0 discriminator 2
	ldr	r2, [r4]
	.loc 1 733 22 discriminator 2
	ldr	r3, [r2]
	.loc 1 733 27 discriminator 2
	orr	r3, r3, #1
	str	r3, [r2]
	.loc 1 735 3 is_stmt 1 discriminator 2
	.loc 1 735 10 is_stmt 0 discriminator 2
	movs	r0, #0
.L33:
	.loc 1 736 1
	add	sp, sp, #8
	.cfi_remember_state
	.cfi_def_cfa_offset 8
	@ sp needed
	pop	{r4, pc}
.LVL43:
.L34:
	.cfi_restore_state
	.loc 1 721 49
	movs	r0, #2
	b	.L33
	.cfi_endproc
.LFE340:
	.size	HAL_DMA2D_Start_IT, .-HAL_DMA2D_Start_IT
	.section	.text.HAL_DMA2D_BlendingStart,"ax",%progbits
	.align	1
	.global	HAL_DMA2D_BlendingStart
	.syntax unified
	.thumb
	.thumb_func
	.type	HAL_DMA2D_BlendingStart, %function
HAL_DMA2D_BlendingStart:
.LFB341:
	.loc 1 752 1 is_stmt 1
	.cfi_startproc
	@ args = 8, pretend = 0, frame = 0
	@ frame_needed = 0, uses_anonymous_args = 0
.LVL44:
	push	{r4, lr}
	.cfi_def_cfa_offset 8
	.cfi_offset 4, -8
	.cfi_offset 14, -4
	sub	sp, sp, #8
	.cfi_def_cfa_offset 16
	mov	r4, r0
	mov	r0, r2
.LVL45:
	mov	r2, r3
.LVL46:
	.loc 1 754 3
	.loc 1 755 3
	.loc 1 758 3
	.loc 1 758 7
	.loc 1 758 18 is_stmt 0
	ldrb	r3, [r4, #96]	@ zero_extendqisi2
.LVL47:
	.loc 1 758 9
	cmp	r3, #1
	beq	.L41
	.loc 1 758 68 is_stmt 1 discriminator 2
	.loc 1 758 83 is_stmt 0 discriminator 2
	movs	r3, #1
	strb	r3, [r4, #96]
	.loc 1 758 5 is_stmt 1 discriminator 2
	.loc 1 761 3 discriminator 2
	.loc 1 761 17 is_stmt 0 discriminator 2
	movs	r3, #2
	strb	r3, [r4, #97]
	.loc 1 763 3 is_stmt 1 discriminator 2
	.loc 1 763 19 is_stmt 0 discriminator 2
	ldr	r3, [r4, #4]
	.loc 1 763 6 discriminator 2
	cmp	r3, #262144
	beq	.L43
	.loc 1 770 8 is_stmt 1
	.loc 1 770 11 is_stmt 0
	cmp	r3, #327680
	beq	.L44
	.loc 1 780 5 is_stmt 1
	.loc 1 780 13 is_stmt 0
	ldr	r3, [r4]
	.loc 1 780 32
	str	r0, [r3, #20]
	.loc 1 783 5 is_stmt 1
	ldr	r3, [sp, #20]
	str	r3, [sp]
	ldr	r3, [sp, #16]
	mov	r0, r4
.LVL48:
	bl	DMA2D_SetConfig
.LVL49:
.L39:
	.loc 1 787 3
	.loc 1 787 12 is_stmt 0
	ldr	r2, [r4]
	.loc 1 787 22
	ldr	r3, [r2]
	.loc 1 787 27
	orr	r3, r3, #1
	str	r3, [r2]
	.loc 1 789 3 is_stmt 1
	.loc 1 789 10 is_stmt 0
	movs	r0, #0
.L37:
	.loc 1 790 1
	add	sp, sp, #8
	.cfi_remember_state
	.cfi_def_cfa_offset 8
	@ sp needed
	pop	{r4, pc}
.LVL50:
.L43:
	.cfi_restore_state
	.loc 1 766 5 is_stmt 1
	.loc 1 766 13 is_stmt 0
	ldr	r3, [r4]
	.loc 1 766 33
	str	r1, [r3, #32]
	.loc 1 768 5 is_stmt 1
	ldr	r3, [sp, #20]
	str	r3, [sp]
	ldr	r3, [sp, #16]
	mov	r1, r0
.LVL51:
	mov	r0, r4
.LVL52:
	bl	DMA2D_SetConfig
.LVL53:
	b	.L39
.LVL54:
.L44:
	.loc 1 773 5
	.loc 1 773 13 is_stmt 0
	ldr	r3, [r4]
	.loc 1 773 33
	str	r0, [r3, #40]
	.loc 1 775 5 is_stmt 1
	ldr	r3, [sp, #20]
	str	r3, [sp]
	ldr	r3, [sp, #16]
	mov	r0, r4
.LVL55:
	bl	DMA2D_SetConfig
.LVL56:
	b	.L39
.LVL57:
.L41:
	.loc 1 758 49 is_stmt 0
	movs	r0, #2
.LVL58:
	b	.L37
	.cfi_endproc
.LFE341:
	.size	HAL_DMA2D_BlendingStart, .-HAL_DMA2D_BlendingStart
	.section	.text.HAL_DMA2D_BlendingStart_IT,"ax",%progbits
	.align	1
	.global	HAL_DMA2D_BlendingStart_IT
	.syntax unified
	.thumb
	.thumb_func
	.type	HAL_DMA2D_BlendingStart_IT, %function
HAL_DMA2D_BlendingStart_IT:
.LFB342:
	.loc 1 806 1 is_stmt 1
	.cfi_startproc
	@ args = 8, pretend = 0, frame = 0
	@ frame_needed = 0, uses_anonymous_args = 0
.LVL59:
	push	{r4, lr}
	.cfi_def_cfa_offset 8
	.cfi_offset 4, -8
	.cfi_offset 14, -4
	sub	sp, sp, #8
	.cfi_def_cfa_offset 16
	mov	r4, r0
	mov	r0, r2
.LVL60:
	mov	r2, r3
.LVL61:
	.loc 1 808 3
	.loc 1 809 3
	.loc 1 812 3
	.loc 1 812 7
	.loc 1 812 18 is_stmt 0
	ldrb	r3, [r4, #96]	@ zero_extendqisi2
.LVL62:
	.loc 1 812 9
	cmp	r3, #1
	beq	.L50
	.loc 1 812 68 is_stmt 1 discriminator 2
	.loc 1 812 83 is_stmt 0 discriminator 2
	movs	r3, #1
	strb	r3, [r4, #96]
	.loc 1 812 5 is_stmt 1 discriminator 2
	.loc 1 815 3 discriminator 2
	.loc 1 815 17 is_stmt 0 discriminator 2
	movs	r3, #2
	strb	r3, [r4, #97]
	.loc 1 817 3 is_stmt 1 discriminator 2
	.loc 1 817 19 is_stmt 0 discriminator 2
	ldr	r3, [r4, #4]
	.loc 1 817 6 discriminator 2
	cmp	r3, #262144
	beq	.L52
	.loc 1 824 8 is_stmt 1
	.loc 1 824 11 is_stmt 0
	cmp	r3, #327680
	beq	.L53
	.loc 1 833 5 is_stmt 1
	.loc 1 833 13 is_stmt 0
	ldr	r3, [r4]
	.loc 1 833 32
	str	r0, [r3, #20]
	.loc 1 836 5 is_stmt 1
	ldr	r3, [sp, #20]
	str	r3, [sp]
	ldr	r3, [sp, #16]
	mov	r0, r4
.LVL63:
	bl	DMA2D_SetConfig
.LVL64:
.L48:
	.loc 1 840 3
	.loc 1 840 12 is_stmt 0
	ldr	r2, [r4]
	.loc 1 840 22
	ldr	r3, [r2]
	.loc 1 840 27
	orr	r3, r3, #8960
	str	r3, [r2]
	.loc 1 843 3 is_stmt 1
	.loc 1 843 12 is_stmt 0
	ldr	r2, [r4]
	.loc 1 843 22
	ldr	r3, [r2]
	.loc 1 843 27
	orr	r3, r3, #1
	str	r3, [r2]
	.loc 1 845 3 is_stmt 1
	.loc 1 845 10 is_stmt 0
	movs	r0, #0
.L46:
	.loc 1 846 1
	add	sp, sp, #8
	.cfi_remember_state
	.cfi_def_cfa_offset 8
	@ sp needed
	pop	{r4, pc}
.LVL65:
.L52:
	.cfi_restore_state
	.loc 1 820 5 is_stmt 1
	.loc 1 820 13 is_stmt 0
	ldr	r3, [r4]
	.loc 1 820 33
	str	r1, [r3, #32]
	.loc 1 822 5 is_stmt 1
	ldr	r3, [sp, #20]
	str	r3, [sp]
	ldr	r3, [sp, #16]
	mov	r1, r0
.LVL66:
	mov	r0, r4
.LVL67:
	bl	DMA2D_SetConfig
.LVL68:
	b	.L48
.LVL69:
.L53:
	.loc 1 827 5
	.loc 1 827 13 is_stmt 0
	ldr	r3, [r4]
	.loc 1 827 33
	str	r0, [r3, #40]
	.loc 1 829 5 is_stmt 1
	ldr	r3, [sp, #20]
	str	r3, [sp]
	ldr	r3, [sp, #16]
	mov	r0, r4
.LVL70:
	bl	DMA2D_SetConfig
.LVL71:
	b	.L48
.LVL72:
.L50:
	.loc 1 812 49 is_stmt 0
	movs	r0, #2
.LVL73:
	b	.L46
	.cfi_endproc
.LFE342:
	.size	HAL_DMA2D_BlendingStart_IT, .-HAL_DMA2D_BlendingStart_IT
	.section	.text.HAL_DMA2D_Abort,"ax",%progbits
	.align	1
	.global	HAL_DMA2D_Abort
	.syntax unified
	.thumb
	.thumb_func
	.type	HAL_DMA2D_Abort, %function
HAL_DMA2D_Abort:
.LFB343:
	.loc 1 855 1 is_stmt 1
	.cfi_startproc
	@ args = 0, pretend = 0, frame = 0
	@ frame_needed = 0, uses_anonymous_args = 0
.LVL74:
	push	{r3, r4, r5, lr}
	.cfi_def_cfa_offset 16
	.cfi_offset 3, -16
	.cfi_offset 4, -12
	.cfi_offset 5, -8
	.cfi_offset 14, -4
	mov	r4, r0
	.loc 1 856 3
	.loc 1 862 3
	.loc 1 862 43 is_stmt 0
	ldr	r2, [r0]
	.loc 1 862 53
	ldr	r3, [r2]
	.loc 1 862 61
	bic	r3, r3, #5
	.loc 1 862 103
	orr	r3, r3, #4
	.loc 1 862 29
	str	r3, [r2]
	.loc 1 865 3 is_stmt 1
	.loc 1 865 15 is_stmt 0
	bl	HAL_GetTick
.LVL75:
	mov	r5, r0
.LVL76:
	.loc 1 868 3 is_stmt 1
.L55:
	.loc 1 868 51
	.loc 1 868 17 is_stmt 0
	ldr	r3, [r4]
	.loc 1 868 27
	ldr	r2, [r3]
	.loc 1 868 51
	tst	r2, #1
	beq	.L59
	.loc 1 870 5 is_stmt 1
	.loc 1 870 10 is_stmt 0
	bl	HAL_GetTick
.LVL77:
	.loc 1 870 24
	subs	r0, r0, r5
	.loc 1 870 8
	cmp	r0, #1000
	bls	.L55
	.loc 1 873 7 is_stmt 1
	.loc 1 873 13 is_stmt 0
	ldr	r3, [r4, #100]
	.loc 1 873 25
	orr	r3, r3, #32
	str	r3, [r4, #100]
	.loc 1 876 7 is_stmt 1
	.loc 1 876 21 is_stmt 0
	movs	r0, #3
	strb	r0, [r4, #97]
	.loc 1 879 7 is_stmt 1
	.loc 1 879 11
	.loc 1 879 26 is_stmt 0
	movs	r3, #0
	strb	r3, [r4, #96]
	.loc 1 879 9 is_stmt 1
	.loc 1 881 7
	.loc 1 881 14 is_stmt 0
	b	.L56
.L59:
	.loc 1 886 3 is_stmt 1
	.loc 1 886 22 is_stmt 0
	ldr	r2, [r3]
	.loc 1 886 27
	bic	r2, r2, #8960
	str	r2, [r3]
	.loc 1 889 3 is_stmt 1
	.loc 1 889 17 is_stmt 0
	movs	r3, #1
	strb	r3, [r4, #97]
	.loc 1 892 3 is_stmt 1
	.loc 1 892 7
	.loc 1 892 22 is_stmt 0
	movs	r0, #0
	strb	r0, [r4, #96]
	.loc 1 892 5 is_stmt 1
	.loc 1 894 3
.L56:
	.loc 1 895 1 is_stmt 0
	pop	{r3, r4, r5, pc}
	.cfi_endproc
.LFE343:
	.size	HAL_DMA2D_Abort, .-HAL_DMA2D_Abort
	.section	.text.HAL_DMA2D_Suspend,"ax",%progbits
	.align	1
	.global	HAL_DMA2D_Suspend
	.syntax unified
	.thumb
	.thumb_func
	.type	HAL_DMA2D_Suspend, %function
HAL_DMA2D_Suspend:
.LFB344:
	.loc 1 904 1 is_stmt 1
	.cfi_startproc
	@ args = 0, pretend = 0, frame = 0
	@ frame_needed = 0, uses_anonymous_args = 0
.LVL78:
	push	{r3, r4, r5, lr}
	.cfi_def_cfa_offset 16
	.cfi_offset 3, -16
	.cfi_offset 4, -12
	.cfi_offset 5, -8
	.cfi_offset 14, -4
	mov	r4, r0
	.loc 1 905 3
	.loc 1 911 3
	.loc 1 911 43 is_stmt 0
	ldr	r2, [r0]
	.loc 1 911 53
	ldr	r3, [r2]
	.loc 1 911 61
	bic	r3, r3, #3
	.loc 1 911 103
	orr	r3, r3, #2
	.loc 1 911 29
	str	r3, [r2]
	.loc 1 914 3 is_stmt 1
	.loc 1 914 15 is_stmt 0
	bl	HAL_GetTick
.LVL79:
	mov	r5, r0
.LVL80:
	.loc 1 917 3 is_stmt 1
.L61:
	.loc 1 917 71
	.loc 1 917 17 is_stmt 0
	ldr	r2, [r4]
	.loc 1 917 27
	ldr	r3, [r2]
	.loc 1 917 32
	and	r3, r3, #3
	.loc 1 917 71
	cmp	r3, #1
	bne	.L66
	.loc 1 919 5 is_stmt 1
	.loc 1 919 10 is_stmt 0
	bl	HAL_GetTick
.LVL81:
	.loc 1 919 24
	subs	r0, r0, r5
	.loc 1 919 8
	cmp	r0, #1000
	bls	.L61
	.loc 1 922 7 is_stmt 1
	.loc 1 922 13 is_stmt 0
	ldr	r3, [r4, #100]
	.loc 1 922 25
	orr	r3, r3, #32
	str	r3, [r4, #100]
	.loc 1 925 7 is_stmt 1
	.loc 1 925 21 is_stmt 0
	movs	r0, #3
	strb	r0, [r4, #97]
	.loc 1 927 7 is_stmt 1
.L62:
	.loc 1 944 1 is_stmt 0
	pop	{r3, r4, r5, pc}
.LVL82:
.L66:
	.loc 1 932 3 is_stmt 1
	.loc 1 932 24 is_stmt 0
	ldr	r3, [r2]
	.loc 1 932 6
	tst	r3, #1
	beq	.L64
	.loc 1 934 5 is_stmt 1
	.loc 1 934 19 is_stmt 0
	movs	r3, #5
	strb	r3, [r4, #97]
	.loc 1 943 10
	movs	r0, #0
	b	.L62
.L64:
	.loc 1 940 5 is_stmt 1
	.loc 1 940 23 is_stmt 0
	ldr	r3, [r2]
	.loc 1 940 29
	bic	r3, r3, #2
	str	r3, [r2]
	.loc 1 943 10
	movs	r0, #0
	b	.L62
	.cfi_endproc
.LFE344:
	.size	HAL_DMA2D_Suspend, .-HAL_DMA2D_Suspend
	.section	.text.HAL_DMA2D_Resume,"ax",%progbits
	.align	1
	.global	HAL_DMA2D_Resume
	.syntax unified
	.thumb
	.thumb_func
	.type	HAL_DMA2D_Resume, %function
HAL_DMA2D_Resume:
.LFB345:
	.loc 1 953 1 is_stmt 1
	.cfi_startproc
	@ args = 0, pretend = 0, frame = 0
	@ frame_needed = 0, uses_anonymous_args = 0
	@ link register save eliminated.
.LVL83:
	.loc 1 955 3
	.loc 1 955 14 is_stmt 0
	ldr	r3, [r0]
	.loc 1 955 24
	ldr	r2, [r3]
	.loc 1 955 29
	and	r2, r2, #3
	.loc 1 955 6
	cmp	r2, #3
	beq	.L69
.L68:
	.loc 1 965 3 is_stmt 1
	.loc 1 965 21 is_stmt 0
	ldr	r2, [r3]
	.loc 1 965 27
	bic	r2, r2, #3
	str	r2, [r3]
	.loc 1 967 3 is_stmt 1
	.loc 1 968 1 is_stmt 0
	movs	r0, #0
.LVL84:
	bx	lr
.LVL85:
.L69:
	.loc 1 958 5 is_stmt 1
	.loc 1 958 19 is_stmt 0
	movs	r2, #2
	strb	r2, [r0, #97]
	b	.L68
	.cfi_endproc
.LFE345:
	.size	HAL_DMA2D_Resume, .-HAL_DMA2D_Resume
	.section	.text.HAL_DMA2D_EnableCLUT,"ax",%progbits
	.align	1
	.global	HAL_DMA2D_EnableCLUT
	.syntax unified
	.thumb
	.thumb_func
	.type	HAL_DMA2D_EnableCLUT, %function
HAL_DMA2D_EnableCLUT:
.LFB346:
	.loc 1 981 1 is_stmt 1
	.cfi_startproc
	@ args = 0, pretend = 0, frame = 0
	@ frame_needed = 0, uses_anonymous_args = 0
	@ link register save eliminated.
.LVL86:
	.loc 1 983 3
	.loc 1 986 3
	.loc 1 986 7
	.loc 1 986 18 is_stmt 0
	ldrb	r3, [r0, #96]	@ zero_extendqisi2
	.loc 1 986 9
	cmp	r3, #1
	beq	.L73
	.loc 1 986 68 is_stmt 1 discriminator 2
	.loc 1 986 83 is_stmt 0 discriminator 2
	movs	r3, #1
	strb	r3, [r0, #96]
	.loc 1 986 5 is_stmt 1 discriminator 2
	.loc 1 989 3 discriminator 2
	.loc 1 989 17 is_stmt 0 discriminator 2
	movs	r3, #2
	strb	r3, [r0, #97]
	.loc 1 991 3 is_stmt 1 discriminator 2
	.loc 1 991 6 is_stmt 0 discriminator 2
	cbnz	r1, .L72
	.loc 1 994 5 is_stmt 1
	.loc 1 994 13 is_stmt 0
	ldr	r2, [r0]
	.loc 1 994 23
	ldr	r3, [r2, #36]
	.loc 1 994 34
	orr	r3, r3, #32
	str	r3, [r2, #36]
	.loc 1 1002 10
	movs	r0, #0
.LVL87:
	bx	lr
.LVL88:
.L72:
	.loc 1 999 5 is_stmt 1
	.loc 1 999 13 is_stmt 0
	ldr	r2, [r0]
	.loc 1 999 23
	ldr	r3, [r2, #28]
	.loc 1 999 34
	orr	r3, r3, #32
	str	r3, [r2, #28]
	.loc 1 1002 10
	movs	r0, #0
.LVL89:
	bx	lr
.LVL90:
.L73:
	.loc 1 986 49
	movs	r0, #2
.LVL91:
	.loc 1 1003 1
	bx	lr
	.cfi_endproc
.LFE346:
	.size	HAL_DMA2D_EnableCLUT, .-HAL_DMA2D_EnableCLUT
	.section	.text.HAL_DMA2D_CLUTStartLoad,"ax",%progbits
	.align	1
	.global	HAL_DMA2D_CLUTStartLoad
	.syntax unified
	.thumb
	.thumb_func
	.type	HAL_DMA2D_CLUTStartLoad, %function
HAL_DMA2D_CLUTStartLoad:
.LFB347:
	.loc 1 1017 1 is_stmt 1
	.cfi_startproc
	@ args = 0, pretend = 0, frame = 0
	@ frame_needed = 0, uses_anonymous_args = 0
	@ link register save eliminated.
.LVL92:
	.loc 1 1019 3
	.loc 1 1020 3
	.loc 1 1021 3
	.loc 1 1024 3
	.loc 1 1024 7
	.loc 1 1024 18 is_stmt 0
	ldrb	r3, [r0, #96]	@ zero_extendqisi2
	.loc 1 1024 9
	cmp	r3, #1
	beq	.L77
	.loc 1 1017 1 discriminator 2
	push	{r4, r5}
	.cfi_def_cfa_offset 8
	.cfi_offset 4, -8
	.cfi_offset 5, -4
	.loc 1 1024 68 is_stmt 1 discriminator 2
	.loc 1 1024 83 is_stmt 0 discriminator 2
	movs	r3, #1
	strb	r3, [r0, #96]
	.loc 1 1024 5 is_stmt 1 discriminator 2
	.loc 1 1027 3 discriminator 2
	.loc 1 1027 17 is_stmt 0 discriminator 2
	movs	r3, #2
	strb	r3, [r0, #97]
	.loc 1 1030 3 is_stmt 1 discriminator 2
	.loc 1 1030 6 is_stmt 0 discriminator 2
	cbnz	r2, .L76
	.loc 1 1033 5 is_stmt 1
	.loc 1 1033 53 is_stmt 0
	ldr	r2, [r1]
.LVL93:
	.loc 1 1033 13
	ldr	r3, [r0]
	.loc 1 1033 33
	str	r2, [r3, #48]
	.loc 1 1036 5 is_stmt 1
	.loc 1 1036 50 is_stmt 0
	ldr	r4, [r0]
	.loc 1 1036 60
	ldr	r2, [r4, #36]
	.loc 1 1036 73
	ldr	r3, .L82
	ands	r3, r3, r2
	.loc 1 1036 130
	ldr	r5, [r1, #8]
	.loc 1 1036 156
	ldr	r2, [r1, #4]
	.loc 1 1036 172
	lsls	r2, r2, #4
	.loc 1 1036 146
	orr	r2, r2, r5, lsl #8
	.loc 1 1036 118
	orrs	r3, r3, r2
	.loc 1 1036 36
	str	r3, [r4, #36]
	.loc 1 1040 5 is_stmt 1
	.loc 1 1040 13 is_stmt 0
	ldr	r2, [r0]
	.loc 1 1040 23
	ldr	r3, [r2, #36]
	.loc 1 1040 34
	orr	r3, r3, #32
	str	r3, [r2, #36]
	.loc 1 1056 10
	movs	r0, #0
.LVL94:
.L75:
	.loc 1 1057 1
	pop	{r4, r5}
	.cfi_remember_state
	.cfi_restore 5
	.cfi_restore 4
	.cfi_def_cfa_offset 0
	bx	lr
.LVL95:
.L76:
	.cfi_restore_state
	.loc 1 1046 5 is_stmt 1
	.loc 1 1046 53 is_stmt 0
	ldr	r2, [r1]
.LVL96:
	.loc 1 1046 13
	ldr	r3, [r0]
	.loc 1 1046 33
	str	r2, [r3, #44]
	.loc 1 1049 5 is_stmt 1
	.loc 1 1049 50 is_stmt 0
	ldr	r4, [r0]
	.loc 1 1049 60
	ldr	r2, [r4, #28]
	.loc 1 1049 73
	ldr	r3, .L82
	ands	r3, r3, r2
	.loc 1 1049 130
	ldr	r5, [r1, #8]
	.loc 1 1049 156
	ldr	r2, [r1, #4]
	.loc 1 1049 172
	lsls	r2, r2, #4
	.loc 1 1049 146
	orr	r2, r2, r5, lsl #8
	.loc 1 1049 118
	orrs	r3, r3, r2
	.loc 1 1049 36
	str	r3, [r4, #28]
	.loc 1 1053 5 is_stmt 1
	.loc 1 1053 13 is_stmt 0
	ldr	r2, [r0]
	.loc 1 1053 23
	ldr	r3, [r2, #28]
	.loc 1 1053 34
	orr	r3, r3, #32
	str	r3, [r2, #28]
	.loc 1 1056 10
	movs	r0, #0
.LVL97:
	b	.L75
.LVL98:
.L77:
	.cfi_def_cfa_offset 0
	.cfi_restore 4
	.cfi_restore 5
	.loc 1 1024 49
	movs	r0, #2
.LVL99:
	.loc 1 1057 1
	bx	lr
.L83:
	.align	2
.L82:
	.word	-65297
	.cfi_endproc
.LFE347:
	.size	HAL_DMA2D_CLUTStartLoad, .-HAL_DMA2D_CLUTStartLoad
	.section	.text.HAL_DMA2D_CLUTStartLoad_IT,"ax",%progbits
	.align	1
	.global	HAL_DMA2D_CLUTStartLoad_IT
	.syntax unified
	.thumb
	.thumb_func
	.type	HAL_DMA2D_CLUTStartLoad_IT, %function
HAL_DMA2D_CLUTStartLoad_IT:
.LFB348:
	.loc 1 1072 1 is_stmt 1
	.cfi_startproc
	@ args = 0, pretend = 0, frame = 0
	@ frame_needed = 0, uses_anonymous_args = 0
	@ link register save eliminated.
.LVL100:
	.loc 1 1074 3
	.loc 1 1075 3
	.loc 1 1076 3
	.loc 1 1079 3
	.loc 1 1079 7
	.loc 1 1079 18 is_stmt 0
	ldrb	r3, [r0, #96]	@ zero_extendqisi2
	.loc 1 1079 9
	cmp	r3, #1
	beq	.L87
	.loc 1 1072 1 discriminator 2
	push	{r4, r5}
	.cfi_def_cfa_offset 8
	.cfi_offset 4, -8
	.cfi_offset 5, -4
	.loc 1 1079 68 is_stmt 1 discriminator 2
	.loc 1 1079 83 is_stmt 0 discriminator 2
	movs	r3, #1
	strb	r3, [r0, #96]
	.loc 1 1079 5 is_stmt 1 discriminator 2
	.loc 1 1082 3 discriminator 2
	.loc 1 1082 17 is_stmt 0 discriminator 2
	movs	r3, #2
	strb	r3, [r0, #97]
	.loc 1 1085 3 is_stmt 1 discriminator 2
	.loc 1 1085 6 is_stmt 0 discriminator 2
	cbnz	r2, .L86
	.loc 1 1088 5 is_stmt 1
	.loc 1 1088 53 is_stmt 0
	ldr	r2, [r1]
.LVL101:
	.loc 1 1088 13
	ldr	r3, [r0]
	.loc 1 1088 33
	str	r2, [r3, #48]
	.loc 1 1091 5 is_stmt 1
	.loc 1 1091 50 is_stmt 0
	ldr	r4, [r0]
	.loc 1 1091 60
	ldr	r2, [r4, #36]
	.loc 1 1091 73
	ldr	r3, .L92
	ands	r3, r3, r2
	.loc 1 1091 130
	ldr	r5, [r1, #8]
	.loc 1 1091 156
	ldr	r2, [r1, #4]
	.loc 1 1091 172
	lsls	r2, r2, #4
	.loc 1 1091 146
	orr	r2, r2, r5, lsl #8
	.loc 1 1091 118
	orrs	r3, r3, r2
	.loc 1 1091 36
	str	r3, [r4, #36]
	.loc 1 1095 5 is_stmt 1
	.loc 1 1095 14 is_stmt 0
	ldr	r2, [r0]
	.loc 1 1095 24
	ldr	r3, [r2]
	.loc 1 1095 29
	orr	r3, r3, #14592
	str	r3, [r2]
	.loc 1 1098 5 is_stmt 1
	.loc 1 1098 13 is_stmt 0
	ldr	r2, [r0]
	.loc 1 1098 23
	ldr	r3, [r2, #36]
	.loc 1 1098 34
	orr	r3, r3, #32
	str	r3, [r2, #36]
	.loc 1 1117 10
	movs	r0, #0
.LVL102:
.L85:
	.loc 1 1118 1
	pop	{r4, r5}
	.cfi_remember_state
	.cfi_restore 5
	.cfi_restore 4
	.cfi_def_cfa_offset 0
	bx	lr
.LVL103:
.L86:
	.cfi_restore_state
	.loc 1 1104 5 is_stmt 1
	.loc 1 1104 53 is_stmt 0
	ldr	r2, [r1]
.LVL104:
	.loc 1 1104 13
	ldr	r3, [r0]
	.loc 1 1104 33
	str	r2, [r3, #44]
	.loc 1 1107 5 is_stmt 1
	.loc 1 1107 50 is_stmt 0
	ldr	r4, [r0]
	.loc 1 1107 60
	ldr	r2, [r4, #28]
	.loc 1 1107 73
	ldr	r3, .L92
	ands	r3, r3, r2
	.loc 1 1107 130
	ldr	r5, [r1, #8]
	.loc 1 1107 156
	ldr	r2, [r1, #4]
	.loc 1 1107 172
	lsls	r2, r2, #4
	.loc 1 1107 146
	orr	r2, r2, r5, lsl #8
	.loc 1 1107 118
	orrs	r3, r3, r2
	.loc 1 1107 36
	str	r3, [r4, #28]
	.loc 1 1111 5 is_stmt 1
	.loc 1 1111 14 is_stmt 0
	ldr	r2, [r0]
	.loc 1 1111 24
	ldr	r3, [r2]
	.loc 1 1111 29
	orr	r3, r3, #14592
	str	r3, [r2]
	.loc 1 1114 5 is_stmt 1
	.loc 1 1114 13 is_stmt 0
	ldr	r2, [r0]
	.loc 1 1114 23
	ldr	r3, [r2, #28]
	.loc 1 1114 34
	orr	r3, r3, #32
	str	r3, [r2, #28]
	.loc 1 1117 10
	movs	r0, #0
.LVL105:
	b	.L85
.LVL106:
.L87:
	.cfi_def_cfa_offset 0
	.cfi_restore 4
	.cfi_restore 5
	.loc 1 1079 49
	movs	r0, #2
.LVL107:
	.loc 1 1118 1
	bx	lr
.L93:
	.align	2
.L92:
	.word	-65297
	.cfi_endproc
.LFE348:
	.size	HAL_DMA2D_CLUTStartLoad_IT, .-HAL_DMA2D_CLUTStartLoad_IT
	.section	.text.HAL_DMA2D_CLUTLoad,"ax",%progbits
	.align	1
	.global	HAL_DMA2D_CLUTLoad
	.syntax unified
	.thumb
	.thumb_func
	.type	HAL_DMA2D_CLUTLoad, %function
HAL_DMA2D_CLUTLoad:
.LFB349:
	.loc 1 1135 1 is_stmt 1
	.cfi_startproc
	@ args = 4, pretend = 0, frame = 16
	@ frame_needed = 0, uses_anonymous_args = 0
	@ link register save eliminated.
.LVL108:
	push	{r4}
	.cfi_def_cfa_offset 4
	.cfi_offset 4, -4
	sub	sp, sp, #20
	.cfi_def_cfa_offset 24
	add	r4, sp, #16
	stmdb	r4, {r1, r2, r3}
	.loc 1 1137 3
	.loc 1 1138 3
	.loc 1 1139 3
	.loc 1 1142 3
	.loc 1 1142 7
	.loc 1 1142 18 is_stmt 0
	ldrb	r3, [r0, #96]	@ zero_extendqisi2
	.loc 1 1142 9
	cmp	r3, #1
	beq	.L97
	.loc 1 1142 68 is_stmt 1 discriminator 2
	.loc 1 1142 83 is_stmt 0 discriminator 2
	movs	r3, #1
	strb	r3, [r0, #96]
	.loc 1 1142 5 is_stmt 1 discriminator 2
	.loc 1 1145 3 discriminator 2
	.loc 1 1145 17 is_stmt 0 discriminator 2
	movs	r3, #2
	strb	r3, [r0, #97]
	.loc 1 1148 3 is_stmt 1 discriminator 2
	.loc 1 1148 6 is_stmt 0 discriminator 2
	ldr	r3, [sp, #24]
	cbnz	r3, .L96
	.loc 1 1151 5 is_stmt 1
	.loc 1 1151 13 is_stmt 0
	ldr	r3, [r0]
	.loc 1 1151 33
	str	r1, [r3, #48]
	.loc 1 1154 5 is_stmt 1
	.loc 1 1154 50 is_stmt 0
	ldr	r1, [r0]
	.loc 1 1154 60
	ldr	r2, [r1, #36]
	.loc 1 1154 73
	ldr	r3, .L99
	ands	r3, r3, r2
	.loc 1 1154 155
	ldr	r2, [sp, #8]
	.loc 1 1154 170
	lsls	r2, r2, #4
	.loc 1 1154 145
	ldr	r4, [sp, #12]
	orr	r2, r2, r4, lsl #8
	.loc 1 1154 118
	orrs	r3, r3, r2
	.loc 1 1154 36
	str	r3, [r1, #36]
	.loc 1 1158 5 is_stmt 1
	.loc 1 1158 13 is_stmt 0
	ldr	r2, [r0]
	.loc 1 1158 23
	ldr	r3, [r2, #36]
	.loc 1 1158 34
	orr	r3, r3, #32
	str	r3, [r2, #36]
	.loc 1 1174 10
	movs	r0, #0
.LVL109:
.L95:
	.loc 1 1175 1
	add	sp, sp, #20
	.cfi_remember_state
	.cfi_def_cfa_offset 4
	@ sp needed
	ldr	r4, [sp], #4
	.cfi_restore 4
	.cfi_def_cfa_offset 0
.LVL110:
	bx	lr
.LVL111:
.L96:
	.cfi_restore_state
	.loc 1 1164 5 is_stmt 1
	.loc 1 1164 13 is_stmt 0
	ldr	r3, [r0]
	.loc 1 1164 33
	ldr	r2, [sp, #4]
	str	r2, [r3, #44]
	.loc 1 1167 5 is_stmt 1
	.loc 1 1167 50 is_stmt 0
	ldr	r1, [r0]
	.loc 1 1167 60
	ldr	r2, [r1, #28]
	.loc 1 1167 73
	ldr	r3, .L99
	ands	r3, r3, r2
	.loc 1 1167 155
	ldr	r2, [sp, #8]
	.loc 1 1167 170
	lsls	r2, r2, #4
	.loc 1 1167 145
	ldr	r4, [sp, #12]
	orr	r2, r2, r4, lsl #8
	.loc 1 1167 118
	orrs	r3, r3, r2
	.loc 1 1167 36
	str	r3, [r1, #28]
	.loc 1 1171 5 is_stmt 1
	.loc 1 1171 13 is_stmt 0
	ldr	r2, [r0]
	.loc 1 1171 23
	ldr	r3, [r2, #28]
	.loc 1 1171 34
	orr	r3, r3, #32
	str	r3, [r2, #28]
	.loc 1 1174 10
	movs	r0, #0
.LVL112:
	b	.L95
.LVL113:
.L97:
	.loc 1 1142 49
	movs	r0, #2
.LVL114:
	b	.L95
.L100:
	.align	2
.L99:
	.word	-65297
	.cfi_endproc
.LFE349:
	.size	HAL_DMA2D_CLUTLoad, .-HAL_DMA2D_CLUTLoad
	.section	.text.HAL_DMA2D_CLUTLoad_IT,"ax",%progbits
	.align	1
	.global	HAL_DMA2D_CLUTLoad_IT
	.syntax unified
	.thumb
	.thumb_func
	.type	HAL_DMA2D_CLUTLoad_IT, %function
HAL_DMA2D_CLUTLoad_IT:
.LFB350:
	.loc 1 1192 1 is_stmt 1
	.cfi_startproc
	@ args = 4, pretend = 0, frame = 16
	@ frame_needed = 0, uses_anonymous_args = 0
	@ link register save eliminated.
.LVL115:
	push	{r4}
	.cfi_def_cfa_offset 4
	.cfi_offset 4, -4
	sub	sp, sp, #20
	.cfi_def_cfa_offset 24
	add	r4, sp, #16
	stmdb	r4, {r1, r2, r3}
	.loc 1 1194 3
	.loc 1 1195 3
	.loc 1 1196 3
	.loc 1 1199 3
	.loc 1 1199 7
	.loc 1 1199 18 is_stmt 0
	ldrb	r3, [r0, #96]	@ zero_extendqisi2
	.loc 1 1199 9
	cmp	r3, #1
	beq	.L104
	.loc 1 1199 68 is_stmt 1 discriminator 2
	.loc 1 1199 83 is_stmt 0 discriminator 2
	movs	r3, #1
	strb	r3, [r0, #96]
	.loc 1 1199 5 is_stmt 1 discriminator 2
	.loc 1 1202 3 discriminator 2
	.loc 1 1202 17 is_stmt 0 discriminator 2
	movs	r3, #2
	strb	r3, [r0, #97]
	.loc 1 1205 3 is_stmt 1 discriminator 2
	.loc 1 1205 6 is_stmt 0 discriminator 2
	ldr	r3, [sp, #24]
	cbnz	r3, .L103
	.loc 1 1208 5 is_stmt 1
	.loc 1 1208 13 is_stmt 0
	ldr	r3, [r0]
	.loc 1 1208 33
	str	r1, [r3, #48]
	.loc 1 1211 5 is_stmt 1
	.loc 1 1211 50 is_stmt 0
	ldr	r1, [r0]
	.loc 1 1211 60
	ldr	r2, [r1, #36]
	.loc 1 1211 73
	ldr	r3, .L106
	ands	r3, r3, r2
	.loc 1 1211 155
	ldr	r2, [sp, #8]
	.loc 1 1211 170
	lsls	r2, r2, #4
	.loc 1 1211 145
	ldr	r4, [sp, #12]
	orr	r2, r2, r4, lsl #8
	.loc 1 1211 118
	orrs	r3, r3, r2
	.loc 1 1211 36
	str	r3, [r1, #36]
	.loc 1 1215 5 is_stmt 1
	.loc 1 1215 14 is_stmt 0
	ldr	r2, [r0]
	.loc 1 1215 24
	ldr	r3, [r2]
	.loc 1 1215 29
	orr	r3, r3, #14592
	str	r3, [r2]
	.loc 1 1218 5 is_stmt 1
	.loc 1 1218 13 is_stmt 0
	ldr	r2, [r0]
	.loc 1 1218 23
	ldr	r3, [r2, #36]
	.loc 1 1218 34
	orr	r3, r3, #32
	str	r3, [r2, #36]
	.loc 1 1237 10
	movs	r0, #0
.LVL116:
.L102:
	.loc 1 1238 1
	add	sp, sp, #20
	.cfi_remember_state
	.cfi_def_cfa_offset 4
	@ sp needed
	ldr	r4, [sp], #4
	.cfi_restore 4
	.cfi_def_cfa_offset 0
.LVL117:
	bx	lr
.LVL118:
.L103:
	.cfi_restore_state
	.loc 1 1224 5 is_stmt 1
	.loc 1 1224 13 is_stmt 0
	ldr	r3, [r0]
	.loc 1 1224 33
	ldr	r2, [sp, #4]
	str	r2, [r3, #44]
	.loc 1 1227 5 is_stmt 1
	.loc 1 1227 50 is_stmt 0
	ldr	r1, [r0]
	.loc 1 1227 60
	ldr	r2, [r1, #28]
	.loc 1 1227 73
	ldr	r3, .L106
	ands	r3, r3, r2
	.loc 1 1227 155
	ldr	r2, [sp, #8]
	.loc 1 1227 170
	lsls	r2, r2, #4
	.loc 1 1227 145
	ldr	r4, [sp, #12]
	orr	r2, r2, r4, lsl #8
	.loc 1 1227 118
	orrs	r3, r3, r2
	.loc 1 1227 36
	str	r3, [r1, #28]
	.loc 1 1231 5 is_stmt 1
	.loc 1 1231 14 is_stmt 0
	ldr	r2, [r0]
	.loc 1 1231 24
	ldr	r3, [r2]
	.loc 1 1231 29
	orr	r3, r3, #14592
	str	r3, [r2]
	.loc 1 1234 5 is_stmt 1
	.loc 1 1234 13 is_stmt 0
	ldr	r2, [r0]
	.loc 1 1234 23
	ldr	r3, [r2, #28]
	.loc 1 1234 34
	orr	r3, r3, #32
	str	r3, [r2, #28]
	.loc 1 1237 10
	movs	r0, #0
.LVL119:
	b	.L102
.LVL120:
.L104:
	.loc 1 1199 49
	movs	r0, #2
.LVL121:
	b	.L102
.L107:
	.align	2
.L106:
	.word	-65297
	.cfi_endproc
.LFE350:
	.size	HAL_DMA2D_CLUTLoad_IT, .-HAL_DMA2D_CLUTLoad_IT
	.section	.text.HAL_DMA2D_CLUTLoading_Abort,"ax",%progbits
	.align	1
	.global	HAL_DMA2D_CLUTLoading_Abort
	.syntax unified
	.thumb
	.thumb_func
	.type	HAL_DMA2D_CLUTLoading_Abort, %function
HAL_DMA2D_CLUTLoading_Abort:
.LFB351:
	.loc 1 1250 1 is_stmt 1
	.cfi_startproc
	@ args = 0, pretend = 0, frame = 0
	@ frame_needed = 0, uses_anonymous_args = 0
.LVL122:
	push	{r4, r5, r6, lr}
	.cfi_def_cfa_offset 16
	.cfi_offset 4, -16
	.cfi_offset 5, -12
	.cfi_offset 6, -8
	.cfi_offset 14, -4
	mov	r6, r0
	.loc 1 1251 3
	.loc 1 1252 3
	.loc 1 1252 42 is_stmt 0
	ldr	r2, [r0]
	.loc 1 1252 28
	mov	r4, r2
.LVL123:
	.loc 1 1255 3 is_stmt 1
	.loc 1 1255 21 is_stmt 0
	ldr	r3, [r4], #36
.LVL124:
	.loc 1 1255 27
	orr	r3, r3, #4
	str	r3, [r2]
	.loc 1 1258 3 is_stmt 1
	.loc 1 1258 6 is_stmt 0
	cmp	r1, #1
	beq	.L114
.L109:
	.loc 1 1265 3 is_stmt 1
	.loc 1 1265 15 is_stmt 0
	bl	HAL_GetTick
.LVL125:
	mov	r5, r0
.LVL126:
	.loc 1 1268 3 is_stmt 1
.L110:
	.loc 1 1268 35
	.loc 1 1268 11 is_stmt 0
	ldr	r3, [r4]
	.loc 1 1268 35
	tst	r3, #32
	beq	.L115
	.loc 1 1270 5 is_stmt 1
	.loc 1 1270 10 is_stmt 0
	bl	HAL_GetTick
.LVL127:
	.loc 1 1270 24
	subs	r0, r0, r5
	.loc 1 1270 8
	cmp	r0, #1000
	bls	.L110
	.loc 1 1273 7 is_stmt 1
	.loc 1 1273 13 is_stmt 0
	ldr	r3, [r6, #100]
	.loc 1 1273 25
	orr	r3, r3, #32
	str	r3, [r6, #100]
	.loc 1 1276 7 is_stmt 1
	.loc 1 1276 21 is_stmt 0
	movs	r0, #3
	strb	r0, [r6, #97]
	.loc 1 1279 7 is_stmt 1
	.loc 1 1279 11
	.loc 1 1279 26 is_stmt 0
	movs	r3, #0
	strb	r3, [r6, #96]
	.loc 1 1279 9 is_stmt 1
	.loc 1 1281 7
	.loc 1 1281 14 is_stmt 0
	b	.L111
.LVL128:
.L114:
	.loc 1 1260 5 is_stmt 1
	.loc 1 1260 19 is_stmt 0
	ldr	r4, [r0]
.LVL129:
	.loc 1 1260 9
	adds	r4, r4, #28
.LVL130:
	b	.L109
.LVL131:
.L115:
	.loc 1 1286 3 is_stmt 1
	.loc 1 1286 12 is_stmt 0
	ldr	r2, [r6]
	.loc 1 1286 22
	ldr	r3, [r2]
	.loc 1 1286 27
	bic	r3, r3, #14592
	str	r3, [r2]
	.loc 1 1289 3 is_stmt 1
	.loc 1 1289 17 is_stmt 0
	movs	r3, #1
	strb	r3, [r6, #97]
	.loc 1 1292 3 is_stmt 1
	.loc 1 1292 7
	.loc 1 1292 22 is_stmt 0
	movs	r0, #0
	strb	r0, [r6, #96]
	.loc 1 1292 5 is_stmt 1
	.loc 1 1294 3
.L111:
	.loc 1 1295 1 is_stmt 0
	pop	{r4, r5, r6, pc}
	.cfi_endproc
.LFE351:
	.size	HAL_DMA2D_CLUTLoading_Abort, .-HAL_DMA2D_CLUTLoading_Abort
	.section	.text.HAL_DMA2D_DeInit,"ax",%progbits
	.align	1
	.global	HAL_DMA2D_DeInit
	.syntax unified
	.thumb
	.thumb_func
	.type	HAL_DMA2D_DeInit, %function
HAL_DMA2D_DeInit:
.LFB336:
	.loc 1 316 1 is_stmt 1
	.cfi_startproc
	@ args = 0, pretend = 0, frame = 0
	@ frame_needed = 0, uses_anonymous_args = 0
.LVL132:
	.loc 1 319 3
	.loc 1 319 6 is_stmt 0
	cmp	r0, #0
	beq	.L121
	.loc 1 316 1
	push	{r3, r4, r5, lr}
	.cfi_def_cfa_offset 16
	.cfi_offset 3, -16
	.cfi_offset 4, -12
	.cfi_offset 5, -8
	.cfi_offset 14, -4
	mov	r5, r0
	.loc 1 326 3 is_stmt 1
	.loc 1 326 71 is_stmt 0
	ldr	r3, .L132
	ldr	r3, [r3, #212]
	.loc 1 326 6
	tst	r3, #16
	beq	.L118
	.loc 1 329 5 is_stmt 1
	.loc 1 329 16 is_stmt 0
	ldr	r3, [r0]
	.loc 1 329 26
	ldr	r2, [r3]
	.loc 1 329 8
	tst	r2, #1
	bne	.L129
	.loc 1 340 7 is_stmt 1
	.loc 1 340 28 is_stmt 0
	ldr	r2, [r3, #36]
	.loc 1 340 10
	tst	r2, #32
	bne	.L130
	.loc 1 351 9 is_stmt 1
	.loc 1 351 30 is_stmt 0
	ldr	r3, [r3, #28]
	.loc 1 351 12
	tst	r3, #32
	bne	.L131
.LVL133:
.L118:
	.loc 1 364 3 is_stmt 1
	.loc 1 364 9 is_stmt 0
	ldr	r3, [r5]
	.loc 1 364 24
	movs	r4, #0
	str	r4, [r3]
	.loc 1 365 3 is_stmt 1
	.loc 1 365 9 is_stmt 0
	ldr	r3, [r5]
	.loc 1 365 26
	movs	r2, #63
	str	r2, [r3, #8]
	.loc 1 366 3 is_stmt 1
	.loc 1 366 9 is_stmt 0
	ldr	r3, [r5]
	.loc 1 366 26
	str	r4, [r3, #16]
	.loc 1 367 3 is_stmt 1
	.loc 1 367 9 is_stmt 0
	ldr	r3, [r5]
	.loc 1 367 26
	str	r4, [r3, #24]
	.loc 1 368 3 is_stmt 1
	.loc 1 368 9 is_stmt 0
	ldr	r3, [r5]
	.loc 1 368 29
	str	r4, [r3, #28]
	.loc 1 369 3 is_stmt 1
	.loc 1 369 9 is_stmt 0
	ldr	r3, [r5]
	.loc 1 369 29
	str	r4, [r3, #36]
	.loc 1 370 3 is_stmt 1
	.loc 1 370 9 is_stmt 0
	ldr	r3, [r5]
	.loc 1 370 28
	str	r4, [r3, #52]
	.loc 1 384 3 is_stmt 1
	mov	r0, r5
	bl	HAL_DMA2D_MspDeInit
.LVL134:
	.loc 1 388 3
	.loc 1 388 21 is_stmt 0
	str	r4, [r5, #100]
	.loc 1 391 3 is_stmt 1
	.loc 1 391 17 is_stmt 0
	strb	r4, [r5, #97]
	.loc 1 394 3 is_stmt 1
	.loc 1 394 7
	.loc 1 394 22 is_stmt 0
	strb	r4, [r5, #96]
	.loc 1 394 5 is_stmt 1
	.loc 1 396 3
	.loc 1 396 10 is_stmt 0
	mov	r0, r4
.L117:
	.loc 1 397 1
	pop	{r3, r4, r5, pc}
.LVL135:
.L129:
	.loc 1 331 7 is_stmt 1
	.loc 1 331 11 is_stmt 0
	bl	HAL_DMA2D_Abort
.LVL136:
	.loc 1 331 10
	cmp	r0, #0
	beq	.L118
	.loc 1 334 16
	movs	r0, #1
	b	.L117
.LVL137:
.L130:
	.loc 1 342 9 is_stmt 1
	.loc 1 342 13 is_stmt 0
	movs	r1, #0
	bl	HAL_DMA2D_CLUTLoading_Abort
.LVL138:
	.loc 1 342 12
	cmp	r0, #0
	beq	.L118
	.loc 1 345 18
	movs	r0, #1
	b	.L117
.LVL139:
.L131:
	.loc 1 353 11 is_stmt 1
	.loc 1 353 15 is_stmt 0
	movs	r1, #1
	bl	HAL_DMA2D_CLUTLoading_Abort
.LVL140:
	.loc 1 353 14
	cmp	r0, #0
	beq	.L118
	.loc 1 356 20
	movs	r0, #1
	b	.L117
.LVL141:
.L121:
	.cfi_def_cfa_offset 0
	.cfi_restore 3
	.cfi_restore 4
	.cfi_restore 5
	.cfi_restore 14
	.loc 1 321 12
	movs	r0, #1
.LVL142:
	.loc 1 397 1
	bx	lr
.L133:
	.align	2
.L132:
	.word	1476543488
	.cfi_endproc
.LFE336:
	.size	HAL_DMA2D_DeInit, .-HAL_DMA2D_DeInit
	.section	.text.HAL_DMA2D_CLUTLoading_Suspend,"ax",%progbits
	.align	1
	.global	HAL_DMA2D_CLUTLoading_Suspend
	.syntax unified
	.thumb
	.thumb_func
	.type	HAL_DMA2D_CLUTLoading_Suspend, %function
HAL_DMA2D_CLUTLoading_Suspend:
.LFB352:
	.loc 1 1307 1 is_stmt 1
	.cfi_startproc
	@ args = 0, pretend = 0, frame = 0
	@ frame_needed = 0, uses_anonymous_args = 0
.LVL143:
	push	{r3, r4, r5, r6, r7, lr}
	.cfi_def_cfa_offset 24
	.cfi_offset 3, -24
	.cfi_offset 4, -20
	.cfi_offset 5, -16
	.cfi_offset 6, -12
	.cfi_offset 7, -8
	.cfi_offset 14, -4
	mov	r5, r0
	.loc 1 1308 3
	.loc 1 1309 3
	.loc 1 1310 3
	.loc 1 1310 42 is_stmt 0
	ldr	r2, [r0]
	.loc 1 1310 28
	mov	r6, r2
.LVL144:
	.loc 1 1313 3 is_stmt 1
	.loc 1 1313 21 is_stmt 0
	ldr	r3, [r6], #36
.LVL145:
	.loc 1 1313 27
	orr	r3, r3, #2
	str	r3, [r2]
	.loc 1 1316 3 is_stmt 1
	.loc 1 1316 6 is_stmt 0
	cmp	r1, #1
	beq	.L147
.L135:
	.loc 1 1322 3 is_stmt 1
	.loc 1 1322 15 is_stmt 0
	bl	HAL_GetTick
.LVL146:
	mov	r7, r0
.LVL147:
	.loc 1 1326 3 is_stmt 1
	.loc 1 1326 27 is_stmt 0
	ldr	r3, [r5]
	.loc 1 1326 37
	ldr	r4, [r3]
	.loc 1 1326 87
	ands	r4, r4, #2
	beq	.L136
	movs	r4, #1
.L136:
.LVL148:
	.loc 1 1328 3 is_stmt 1 discriminator 4
	.loc 1 1328 22 is_stmt 0 discriminator 4
	ldr	r3, [r6]
	.loc 1 1328 72 discriminator 4
	tst	r3, #32
	bne	.L145
	.loc 1 1328 72
	movs	r3, #1
.L137:
	.loc 1 1328 17 discriminator 4
	orrs	r4, r4, r3
.LVL149:
	.loc 1 1329 3 is_stmt 1 discriminator 4
	.loc 1 1329 9 is_stmt 0 discriminator 4
	b	.L138
.LVL150:
.L147:
	.loc 1 1318 5 is_stmt 1
	.loc 1 1318 19 is_stmt 0
	ldr	r6, [r0]
.LVL151:
	.loc 1 1318 9
	adds	r6, r6, #28
.LVL152:
	b	.L135
.LVL153:
.L145:
	.loc 1 1328 72
	movs	r3, #0
	b	.L137
.LVL154:
.L149:
	.loc 1 1334 7 is_stmt 1
	.loc 1 1334 13 is_stmt 0
	ldr	r3, [r5, #100]
	.loc 1 1334 25
	orr	r3, r3, #32
	str	r3, [r5, #100]
	.loc 1 1337 7 is_stmt 1
	.loc 1 1337 21 is_stmt 0
	movs	r0, #3
	strb	r0, [r5, #97]
	.loc 1 1339 7 is_stmt 1
.L140:
	.loc 1 1360 1 is_stmt 0
	pop	{r3, r4, r5, r6, r7, pc}
.LVL155:
.L142:
	.loc 1 1344 19 discriminator 4
	orrs	r4, r4, r3
.LVL156:
.L138:
	.loc 1 1329 24 is_stmt 1
	cbnz	r4, .L148
	.loc 1 1331 5
	.loc 1 1331 10 is_stmt 0
	bl	HAL_GetTick
.LVL157:
	.loc 1 1331 24
	subs	r0, r0, r7
	.loc 1 1331 8
	cmp	r0, #1000
	bhi	.L149
	.loc 1 1342 5 is_stmt 1
	.loc 1 1342 29 is_stmt 0
	ldr	r3, [r5]
	.loc 1 1342 39
	ldr	r3, [r3]
	.loc 1 1342 89
	ands	r3, r3, #2
	beq	.L141
	movs	r3, #1
.L141:
.LVL158:
	.loc 1 1344 5 is_stmt 1 discriminator 4
	.loc 1 1344 24 is_stmt 0 discriminator 4
	ldr	r2, [r6]
	.loc 1 1344 74 discriminator 4
	tst	r2, #32
	bne	.L142
	.loc 1 1344 74
	movs	r4, #1
	b	.L142
.LVL159:
.L148:
	.loc 1 1348 3 is_stmt 1
	.loc 1 1348 8 is_stmt 0
	ldr	r3, [r6]
	.loc 1 1348 6
	tst	r3, #32
	beq	.L144
	.loc 1 1350 5 is_stmt 1
	.loc 1 1350 19 is_stmt 0
	movs	r3, #5
	strb	r3, [r5, #97]
	.loc 1 1359 10
	movs	r0, #0
	b	.L140
.L144:
	.loc 1 1356 5 is_stmt 1
	.loc 1 1356 13 is_stmt 0
	ldr	r2, [r5]
	.loc 1 1356 23
	ldr	r3, [r2]
	.loc 1 1356 29
	bic	r3, r3, #2
	str	r3, [r2]
	.loc 1 1359 10
	movs	r0, #0
	b	.L140
	.cfi_endproc
.LFE352:
	.size	HAL_DMA2D_CLUTLoading_Suspend, .-HAL_DMA2D_CLUTLoading_Suspend
	.section	.text.HAL_DMA2D_CLUTLoading_Resume,"ax",%progbits
	.align	1
	.global	HAL_DMA2D_CLUTLoading_Resume
	.syntax unified
	.thumb
	.thumb_func
	.type	HAL_DMA2D_CLUTLoading_Resume, %function
HAL_DMA2D_CLUTLoading_Resume:
.LFB353:
	.loc 1 1372 1 is_stmt 1
	.cfi_startproc
	@ args = 0, pretend = 0, frame = 0
	@ frame_needed = 0, uses_anonymous_args = 0
	@ link register save eliminated.
.LVL160:
	.loc 1 1374 3
	.loc 1 1374 6 is_stmt 0
	cbnz	r1, .L151
	.loc 1 1377 5 is_stmt 1
	.loc 1 1377 16 is_stmt 0
	ldr	r3, [r0]
	.loc 1 1377 26
	ldr	r2, [r3]
	.loc 1 1377 8
	tst	r2, #2
	beq	.L152
	.loc 1 1379 7 is_stmt 1
	.loc 1 1379 28 is_stmt 0
	ldr	r3, [r3, #36]
	.loc 1 1379 10
	tst	r3, #32
	beq	.L152
	.loc 1 1382 9 is_stmt 1
	.loc 1 1382 23 is_stmt 0
	movs	r3, #2
	strb	r3, [r0, #97]
.L152:
	.loc 1 1400 3 is_stmt 1
	.loc 1 1400 11 is_stmt 0
	ldr	r2, [r0]
	.loc 1 1400 21
	ldr	r3, [r2]
	.loc 1 1400 27
	bic	r3, r3, #2
	str	r3, [r2]
	.loc 1 1402 3 is_stmt 1
	.loc 1 1403 1 is_stmt 0
	movs	r0, #0
.LVL161:
	bx	lr
.LVL162:
.L151:
	.loc 1 1389 5 is_stmt 1
	.loc 1 1389 16 is_stmt 0
	ldr	r3, [r0]
	.loc 1 1389 26
	ldr	r2, [r3]
	.loc 1 1389 8
	tst	r2, #2
	beq	.L152
	.loc 1 1391 7 is_stmt 1
	.loc 1 1391 28 is_stmt 0
	ldr	r3, [r3, #28]
	.loc 1 1391 10
	tst	r3, #32
	beq	.L152
	.loc 1 1394 9 is_stmt 1
	.loc 1 1394 23 is_stmt 0
	movs	r3, #2
	strb	r3, [r0, #97]
	b	.L152
	.cfi_endproc
.LFE353:
	.size	HAL_DMA2D_CLUTLoading_Resume, .-HAL_DMA2D_CLUTLoading_Resume
	.section	.text.HAL_DMA2D_PollForTransfer,"ax",%progbits
	.align	1
	.global	HAL_DMA2D_PollForTransfer
	.syntax unified
	.thumb
	.thumb_func
	.type	HAL_DMA2D_PollForTransfer, %function
HAL_DMA2D_PollForTransfer:
.LFB354:
	.loc 1 1415 1 is_stmt 1
	.cfi_startproc
	@ args = 0, pretend = 0, frame = 8
	@ frame_needed = 0, uses_anonymous_args = 0
.LVL163:
	push	{r4, r5, r6, lr}
	.cfi_def_cfa_offset 16
	.cfi_offset 4, -16
	.cfi_offset 5, -12
	.cfi_offset 6, -8
	.cfi_offset 14, -4
	sub	sp, sp, #8
	.cfi_def_cfa_offset 24
	mov	r4, r0
	mov	r5, r1
	.loc 1 1416 3
	.loc 1 1417 3
	.loc 1 1418 3
	.loc 1 1418 21 is_stmt 0
	movs	r3, #0
	str	r3, [sp, #4]
	.loc 1 1421 3 is_stmt 1
	.loc 1 1421 14 is_stmt 0
	ldr	r3, [r0]
	.loc 1 1421 24
	ldr	r3, [r3]
	.loc 1 1421 6
	tst	r3, #1
	bne	.L173
.LVL164:
.L154:
	.loc 1 1470 3 is_stmt 1
	.loc 1 1470 23 is_stmt 0
	ldr	r2, [r4]
	.loc 1 1470 33
	ldr	r3, [r2, #28]
.LVL165:
	.loc 1 1471 3 is_stmt 1
	.loc 1 1471 34 is_stmt 0
	ldr	r2, [r2, #36]
	.loc 1 1471 15
	orrs	r3, r3, r2
.LVL166:
	.loc 1 1472 3 is_stmt 1
	.loc 1 1472 6 is_stmt 0
	tst	r3, #32
	bne	.L174
.LVL167:
.L163:
	.loc 1 1526 3 is_stmt 1
	.loc 1 1526 12 is_stmt 0
	ldr	r3, [r4]
	.loc 1 1526 29
	movs	r2, #18
	str	r2, [r3, #8]
	.loc 1 1529 3 is_stmt 1
	.loc 1 1529 17 is_stmt 0
	movs	r3, #1
	strb	r3, [r4, #97]
	.loc 1 1532 3 is_stmt 1
	.loc 1 1532 7
	.loc 1 1532 22 is_stmt 0
	movs	r0, #0
	strb	r0, [r4, #96]
	.loc 1 1532 5 is_stmt 1
	.loc 1 1534 3
.LVL168:
.L159:
	.loc 1 1535 1 is_stmt 0
	add	sp, sp, #8
	.cfi_remember_state
	.cfi_def_cfa_offset 16
	@ sp needed
	pop	{r4, r5, r6, pc}
.LVL169:
.L173:
	.cfi_restore_state
	.loc 1 1424 5 is_stmt 1
	.loc 1 1424 17 is_stmt 0
	bl	HAL_GetTick
.LVL170:
	mov	r6, r0
.LVL171:
	.loc 1 1426 5 is_stmt 1
.L160:
	.loc 1 1426 58
	.loc 1 1426 21 is_stmt 0
	ldr	r3, [r4]
	.loc 1 1426 31
	ldr	r2, [r3, #4]
	.loc 1 1426 58
	tst	r2, #2
	bne	.L154
	.loc 1 1428 7 is_stmt 1
	.loc 1 1428 36 is_stmt 0
	ldr	r2, [r3, #4]
	.loc 1 1428 16
	str	r2, [sp, #4]
	.loc 1 1429 7 is_stmt 1
	.loc 1 1429 21 is_stmt 0
	ldr	r2, [sp, #4]
	.loc 1 1429 10
	tst	r2, #33
	bne	.L175
	.loc 1 1451 7 is_stmt 1
	.loc 1 1451 10 is_stmt 0
	cmp	r5, #-1
	beq	.L160
	.loc 1 1453 9 is_stmt 1
	.loc 1 1453 15 is_stmt 0
	bl	HAL_GetTick
.LVL172:
	.loc 1 1453 29
	subs	r0, r0, r6
	.loc 1 1453 12
	cmp	r0, r5
	bhi	.L161
	.loc 1 1453 53 discriminator 1
	cmp	r5, #0
	bne	.L160
.L161:
	.loc 1 1456 11 is_stmt 1
	.loc 1 1456 17 is_stmt 0
	ldr	r3, [r4, #100]
	.loc 1 1456 29
	orr	r3, r3, #32
	str	r3, [r4, #100]
	.loc 1 1459 11 is_stmt 1
	.loc 1 1459 25 is_stmt 0
	movs	r0, #3
	strb	r0, [r4, #97]
	.loc 1 1462 11 is_stmt 1
	.loc 1 1462 15
	.loc 1 1462 30 is_stmt 0
	movs	r3, #0
	strb	r3, [r4, #96]
	.loc 1 1462 13 is_stmt 1
	.loc 1 1464 11
	.loc 1 1464 18 is_stmt 0
	b	.L159
.L175:
	.loc 1 1431 9 is_stmt 1
	.loc 1 1431 23 is_stmt 0
	ldr	r2, [sp, #4]
	.loc 1 1431 12
	tst	r2, #32
	beq	.L157
	.loc 1 1433 11 is_stmt 1
	.loc 1 1433 17 is_stmt 0
	ldr	r2, [r4, #100]
	.loc 1 1433 29
	orr	r2, r2, #2
	str	r2, [r4, #100]
.L157:
	.loc 1 1435 9 is_stmt 1
	.loc 1 1435 23 is_stmt 0
	ldr	r2, [sp, #4]
	.loc 1 1435 12
	tst	r2, #1
	beq	.L158
	.loc 1 1437 11 is_stmt 1
	.loc 1 1437 17 is_stmt 0
	ldr	r2, [r4, #100]
	.loc 1 1437 29
	orr	r2, r2, #1
	str	r2, [r4, #100]
.L158:
	.loc 1 1440 9 is_stmt 1
	.loc 1 1440 35 is_stmt 0
	movs	r2, #33
	str	r2, [r3, #8]
	.loc 1 1443 9 is_stmt 1
	.loc 1 1443 23 is_stmt 0
	movs	r3, #4
	strb	r3, [r4, #97]
	.loc 1 1446 9 is_stmt 1
	.loc 1 1446 13
	.loc 1 1446 28 is_stmt 0
	movs	r3, #0
	strb	r3, [r4, #96]
	.loc 1 1446 11 is_stmt 1
	.loc 1 1448 9
	.loc 1 1448 16 is_stmt 0
	movs	r0, #1
	b	.L159
.LVL173:
.L174:
	.loc 1 1475 5 is_stmt 1
	.loc 1 1475 17 is_stmt 0
	bl	HAL_GetTick
.LVL174:
	mov	r6, r0
.LVL175:
	.loc 1 1477 5 is_stmt 1
.L169:
	.loc 1 1477 58
	.loc 1 1477 21 is_stmt 0
	ldr	r3, [r4]
	.loc 1 1477 31
	ldr	r2, [r3, #4]
	.loc 1 1477 58
	tst	r2, #16
	bne	.L163
	.loc 1 1479 7 is_stmt 1
	.loc 1 1479 36 is_stmt 0
	ldr	r2, [r3, #4]
	.loc 1 1479 16
	str	r2, [sp, #4]
	.loc 1 1480 7 is_stmt 1
	.loc 1 1480 21 is_stmt 0
	ldr	r2, [sp, #4]
	.loc 1 1480 10
	tst	r2, #41
	bne	.L176
	.loc 1 1506 7 is_stmt 1
	.loc 1 1506 10 is_stmt 0
	cmp	r5, #-1
	beq	.L169
	.loc 1 1508 9 is_stmt 1
	.loc 1 1508 15 is_stmt 0
	bl	HAL_GetTick
.LVL176:
	.loc 1 1508 29
	subs	r0, r0, r6
	.loc 1 1508 12
	cmp	r0, r5
	bhi	.L170
	.loc 1 1508 53 discriminator 1
	cmp	r5, #0
	bne	.L169
.L170:
	.loc 1 1511 11 is_stmt 1
	.loc 1 1511 17 is_stmt 0
	ldr	r3, [r4, #100]
	.loc 1 1511 29
	orr	r3, r3, #32
	str	r3, [r4, #100]
	.loc 1 1514 11 is_stmt 1
	.loc 1 1514 25 is_stmt 0
	movs	r0, #3
	strb	r0, [r4, #97]
	.loc 1 1517 11 is_stmt 1
	.loc 1 1517 15
	.loc 1 1517 30 is_stmt 0
	movs	r3, #0
	strb	r3, [r4, #96]
	.loc 1 1517 13 is_stmt 1
	.loc 1 1519 11
	.loc 1 1519 18 is_stmt 0
	b	.L159
.L176:
	.loc 1 1482 9 is_stmt 1
	.loc 1 1482 23 is_stmt 0
	ldr	r2, [sp, #4]
	.loc 1 1482 12
	tst	r2, #8
	beq	.L166
	.loc 1 1484 11 is_stmt 1
	.loc 1 1484 17 is_stmt 0
	ldr	r2, [r4, #100]
	.loc 1 1484 29
	orr	r2, r2, #4
	str	r2, [r4, #100]
.L166:
	.loc 1 1486 9 is_stmt 1
	.loc 1 1486 23 is_stmt 0
	ldr	r2, [sp, #4]
	.loc 1 1486 12
	tst	r2, #32
	beq	.L167
	.loc 1 1488 11 is_stmt 1
	.loc 1 1488 17 is_stmt 0
	ldr	r2, [r4, #100]
	.loc 1 1488 29
	orr	r2, r2, #2
	str	r2, [r4, #100]
.L167:
	.loc 1 1490 9 is_stmt 1
	.loc 1 1490 23 is_stmt 0
	ldr	r2, [sp, #4]
	.loc 1 1490 12
	tst	r2, #1
	beq	.L168
	.loc 1 1492 11 is_stmt 1
	.loc 1 1492 17 is_stmt 0
	ldr	r2, [r4, #100]
	.loc 1 1492 29
	orr	r2, r2, #1
	str	r2, [r4, #100]
.L168:
	.loc 1 1495 9 is_stmt 1
	.loc 1 1495 35 is_stmt 0
	movs	r2, #41
	str	r2, [r3, #8]
	.loc 1 1498 9 is_stmt 1
	.loc 1 1498 23 is_stmt 0
	movs	r3, #4
	strb	r3, [r4, #97]
	.loc 1 1501 9 is_stmt 1
	.loc 1 1501 13
	.loc 1 1501 28 is_stmt 0
	movs	r3, #0
	strb	r3, [r4, #96]
	.loc 1 1501 11 is_stmt 1
	.loc 1 1503 9
	.loc 1 1503 16 is_stmt 0
	movs	r0, #1
	b	.L159
	.cfi_endproc
.LFE354:
	.size	HAL_DMA2D_PollForTransfer, .-HAL_DMA2D_PollForTransfer
	.section	.text.HAL_DMA2D_LineEventCallback,"ax",%progbits
	.align	1
	.weak	HAL_DMA2D_LineEventCallback
	.syntax unified
	.thumb
	.thumb_func
	.type	HAL_DMA2D_LineEventCallback, %function
HAL_DMA2D_LineEventCallback:
.LFB356:
	.loc 1 1713 1 is_stmt 1
	.cfi_startproc
	@ args = 0, pretend = 0, frame = 0
	@ frame_needed = 0, uses_anonymous_args = 0
	@ link register save eliminated.
.LVL177:
	.loc 1 1715 3
	.loc 1 1720 1 is_stmt 0
	bx	lr
	.cfi_endproc
.LFE356:
	.size	HAL_DMA2D_LineEventCallback, .-HAL_DMA2D_LineEventCallback
	.section	.text.HAL_DMA2D_CLUTLoadingCpltCallback,"ax",%progbits
	.align	1
	.weak	HAL_DMA2D_CLUTLoadingCpltCallback
	.syntax unified
	.thumb
	.thumb_func
	.type	HAL_DMA2D_CLUTLoadingCpltCallback, %function
HAL_DMA2D_CLUTLoadingCpltCallback:
.LFB357:
	.loc 1 1729 1 is_stmt 1
	.cfi_startproc
	@ args = 0, pretend = 0, frame = 0
	@ frame_needed = 0, uses_anonymous_args = 0
	@ link register save eliminated.
.LVL178:
	.loc 1 1731 3
	.loc 1 1736 1 is_stmt 0
	bx	lr
	.cfi_endproc
.LFE357:
	.size	HAL_DMA2D_CLUTLoadingCpltCallback, .-HAL_DMA2D_CLUTLoadingCpltCallback
	.section	.text.HAL_DMA2D_IRQHandler,"ax",%progbits
	.align	1
	.global	HAL_DMA2D_IRQHandler
	.syntax unified
	.thumb
	.thumb_func
	.type	HAL_DMA2D_IRQHandler, %function
HAL_DMA2D_IRQHandler:
.LFB355:
	.loc 1 1543 1 is_stmt 1
	.cfi_startproc
	@ args = 0, pretend = 0, frame = 0
	@ frame_needed = 0, uses_anonymous_args = 0
.LVL179:
	push	{r4, r5, r6, lr}
	.cfi_def_cfa_offset 16
	.cfi_offset 4, -16
	.cfi_offset 5, -12
	.cfi_offset 6, -8
	.cfi_offset 14, -4
	mov	r4, r0
	.loc 1 1544 3
	.loc 1 1544 31 is_stmt 0
	ldr	r3, [r0]
	.loc 1 1544 12
	ldr	r5, [r3, #4]
.LVL180:
	.loc 1 1545 3 is_stmt 1
	.loc 1 1545 12 is_stmt 0
	ldr	r6, [r3]
.LVL181:
	.loc 1 1548 3 is_stmt 1
	.loc 1 1548 6 is_stmt 0
	tst	r5, #1
	beq	.L180
	.loc 1 1550 5 is_stmt 1
	.loc 1 1550 8 is_stmt 0
	tst	r6, #256
	beq	.L180
	.loc 1 1553 7 is_stmt 1
	.loc 1 1553 26 is_stmt 0
	ldr	r2, [r3]
	.loc 1 1553 31
	bic	r2, r2, #256
	str	r2, [r3]
	.loc 1 1556 7 is_stmt 1
	.loc 1 1556 13 is_stmt 0
	ldr	r3, [r0, #100]
	.loc 1 1556 25
	orr	r3, r3, #1
	str	r3, [r0, #100]
	.loc 1 1559 7 is_stmt 1
	.loc 1 1559 16 is_stmt 0
	ldr	r3, [r0]
	.loc 1 1559 33
	movs	r2, #1
	str	r2, [r3, #8]
	.loc 1 1562 7 is_stmt 1
	.loc 1 1562 21 is_stmt 0
	movs	r3, #4
	strb	r3, [r0, #97]
	.loc 1 1565 7 is_stmt 1
	.loc 1 1565 11
	.loc 1 1565 26 is_stmt 0
	movs	r3, #0
	strb	r3, [r0, #96]
	.loc 1 1565 9 is_stmt 1
	.loc 1 1567 7
	.loc 1 1567 17 is_stmt 0
	ldr	r3, [r0, #36]
	.loc 1 1567 10
	cbz	r3, .L180
	.loc 1 1570 9 is_stmt 1
	blx	r3
.LVL182:
.L180:
	.loc 1 1575 3
	.loc 1 1575 6 is_stmt 0
	tst	r5, #32
	beq	.L181
	.loc 1 1577 5 is_stmt 1
	.loc 1 1577 8 is_stmt 0
	tst	r6, #8192
	beq	.L181
	.loc 1 1580 7 is_stmt 1
	.loc 1 1580 16 is_stmt 0
	ldr	r2, [r4]
	.loc 1 1580 26
	ldr	r3, [r2]
	.loc 1 1580 31
	bic	r3, r3, #8192
	str	r3, [r2]
	.loc 1 1583 7 is_stmt 1
	.loc 1 1583 16 is_stmt 0
	ldr	r3, [r4]
	.loc 1 1583 33
	movs	r2, #32
	str	r2, [r3, #8]
	.loc 1 1586 7 is_stmt 1
	.loc 1 1586 13 is_stmt 0
	ldr	r3, [r4, #100]
	.loc 1 1586 25
	orr	r3, r3, #2
	str	r3, [r4, #100]
	.loc 1 1589 7 is_stmt 1
	.loc 1 1589 21 is_stmt 0
	movs	r3, #4
	strb	r3, [r4, #97]
	.loc 1 1592 7 is_stmt 1
	.loc 1 1592 11
	.loc 1 1592 26 is_stmt 0
	movs	r3, #0
	strb	r3, [r4, #96]
	.loc 1 1592 9 is_stmt 1
	.loc 1 1594 7
	.loc 1 1594 17 is_stmt 0
	ldr	r3, [r4, #36]
	.loc 1 1594 10
	cbz	r3, .L181
	.loc 1 1597 9 is_stmt 1
	mov	r0, r4
	blx	r3
.LVL183:
.L181:
	.loc 1 1602 3
	.loc 1 1602 6 is_stmt 0
	tst	r5, #8
	beq	.L182
	.loc 1 1604 5 is_stmt 1
	.loc 1 1604 8 is_stmt 0
	tst	r6, #2048
	beq	.L182
	.loc 1 1607 7 is_stmt 1
	.loc 1 1607 16 is_stmt 0
	ldr	r2, [r4]
	.loc 1 1607 26
	ldr	r3, [r2]
	.loc 1 1607 31
	bic	r3, r3, #2048
	str	r3, [r2]
	.loc 1 1610 7 is_stmt 1
	.loc 1 1610 16 is_stmt 0
	ldr	r3, [r4]
	.loc 1 1610 33
	movs	r2, #8
	str	r2, [r3, #8]
	.loc 1 1613 7 is_stmt 1
	.loc 1 1613 13 is_stmt 0
	ldr	r3, [r4, #100]
	.loc 1 1613 25
	orr	r3, r3, #4
	str	r3, [r4, #100]
	.loc 1 1616 7 is_stmt 1
	.loc 1 1616 21 is_stmt 0
	movs	r3, #4
	strb	r3, [r4, #97]
	.loc 1 1619 7 is_stmt 1
	.loc 1 1619 11
	.loc 1 1619 26 is_stmt 0
	movs	r3, #0
	strb	r3, [r4, #96]
	.loc 1 1619 9 is_stmt 1
	.loc 1 1621 7
	.loc 1 1621 17 is_stmt 0
	ldr	r3, [r4, #36]
	.loc 1 1621 10
	cbz	r3, .L182
	.loc 1 1624 9 is_stmt 1
	mov	r0, r4
	blx	r3
.LVL184:
.L182:
	.loc 1 1629 3
	.loc 1 1629 6 is_stmt 0
	tst	r5, #4
	beq	.L183
	.loc 1 1631 5 is_stmt 1
	.loc 1 1631 8 is_stmt 0
	tst	r6, #1024
	bne	.L187
.L183:
	.loc 1 1649 3 is_stmt 1
	.loc 1 1649 6 is_stmt 0
	tst	r5, #2
	beq	.L184
	.loc 1 1651 5 is_stmt 1
	.loc 1 1651 8 is_stmt 0
	tst	r6, #512
	beq	.L184
	.loc 1 1654 7 is_stmt 1
	.loc 1 1654 16 is_stmt 0
	ldr	r2, [r4]
	.loc 1 1654 26
	ldr	r3, [r2]
	.loc 1 1654 31
	bic	r3, r3, #512
	str	r3, [r2]
	.loc 1 1657 7 is_stmt 1
	.loc 1 1657 16 is_stmt 0
	ldr	r3, [r4]
	.loc 1 1657 33
	movs	r2, #2
	str	r2, [r3, #8]
	.loc 1 1660 7 is_stmt 1
	.loc 1 1660 13 is_stmt 0
	ldr	r3, [r4, #100]
	.loc 1 1660 25
	str	r3, [r4, #100]
	.loc 1 1663 7 is_stmt 1
	.loc 1 1663 21 is_stmt 0
	movs	r3, #1
	strb	r3, [r4, #97]
	.loc 1 1666 7 is_stmt 1
	.loc 1 1666 11
	.loc 1 1666 26 is_stmt 0
	movs	r3, #0
	strb	r3, [r4, #96]
	.loc 1 1666 9 is_stmt 1
	.loc 1 1668 7
	.loc 1 1668 17 is_stmt 0
	ldr	r3, [r4, #32]
	.loc 1 1668 10
	cbz	r3, .L184
	.loc 1 1671 9 is_stmt 1
	mov	r0, r4
	blx	r3
.LVL185:
.L184:
	.loc 1 1676 3
	.loc 1 1676 6 is_stmt 0
	tst	r5, #16
	beq	.L179
	.loc 1 1678 5 is_stmt 1
	.loc 1 1678 8 is_stmt 0
	tst	r6, #4096
	bne	.L188
.L179:
	.loc 1 1704 1
	pop	{r4, r5, r6, pc}
.LVL186:
.L187:
	.loc 1 1634 7 is_stmt 1
	.loc 1 1634 16 is_stmt 0
	ldr	r2, [r4]
	.loc 1 1634 26
	ldr	r3, [r2]
	.loc 1 1634 31
	bic	r3, r3, #1024
	str	r3, [r2]
	.loc 1 1637 7 is_stmt 1
	.loc 1 1637 16 is_stmt 0
	ldr	r3, [r4]
	.loc 1 1637 33
	movs	r2, #4
	str	r2, [r3, #8]
	.loc 1 1643 7 is_stmt 1
	mov	r0, r4
	bl	HAL_DMA2D_LineEventCallback
.LVL187:
	b	.L183
.L188:
	.loc 1 1681 7
	.loc 1 1681 16 is_stmt 0
	ldr	r2, [r4]
	.loc 1 1681 26
	ldr	r3, [r2]
	.loc 1 1681 31
	bic	r3, r3, #4096
	str	r3, [r2]
	.loc 1 1684 7 is_stmt 1
	.loc 1 1684 16 is_stmt 0
	ldr	r3, [r4]
	.loc 1 1684 33
	movs	r2, #16
	str	r2, [r3, #8]
	.loc 1 1687 7 is_stmt 1
	.loc 1 1687 13 is_stmt 0
	ldr	r3, [r4, #100]
	.loc 1 1687 25
	str	r3, [r4, #100]
	.loc 1 1690 7 is_stmt 1
	.loc 1 1690 21 is_stmt 0
	movs	r3, #1
	strb	r3, [r4, #97]
	.loc 1 1693 7 is_stmt 1
	.loc 1 1693 11
	.loc 1 1693 26 is_stmt 0
	movs	r3, #0
	strb	r3, [r4, #96]
	.loc 1 1693 9 is_stmt 1
	.loc 1 1699 7
	mov	r0, r4
	bl	HAL_DMA2D_CLUTLoadingCpltCallback
.LVL188:
	.loc 1 1704 1 is_stmt 0
	b	.L179
	.cfi_endproc
.LFE355:
	.size	HAL_DMA2D_IRQHandler, .-HAL_DMA2D_IRQHandler
	.section	.text.HAL_DMA2D_ConfigLayer,"ax",%progbits
	.align	1
	.global	HAL_DMA2D_ConfigLayer
	.syntax unified
	.thumb
	.thumb_func
	.type	HAL_DMA2D_ConfigLayer, %function
HAL_DMA2D_ConfigLayer:
.LFB358:
	.loc 1 1772 1 is_stmt 1
	.cfi_startproc
	@ args = 0, pretend = 0, frame = 0
	@ frame_needed = 0, uses_anonymous_args = 0
	@ link register save eliminated.
.LVL189:
	.loc 1 1773 3
	.loc 1 1774 3
	.loc 1 1775 3
	.loc 1 1778 3
	.loc 1 1779 3
	.loc 1 1780 3
	.loc 1 1785 7
	.loc 1 1788 3
	.loc 1 1789 3
	.loc 1 1791 3
	.loc 1 1793 5
	.loc 1 1797 3
	.loc 1 1797 7
	.loc 1 1797 18 is_stmt 0
	ldrb	r2, [r0, #96]	@ zero_extendqisi2
	.loc 1 1797 9
	cmp	r2, #1
	beq	.L196
	.loc 1 1772 1 discriminator 2
	push	{r4, r5}
	.cfi_def_cfa_offset 8
	.cfi_offset 4, -8
	.cfi_offset 5, -4
	mov	r3, r0
	.loc 1 1797 68 is_stmt 1 discriminator 2
	.loc 1 1797 83 is_stmt 0 discriminator 2
	movs	r2, #1
	strb	r2, [r0, #96]
	.loc 1 1797 5 is_stmt 1 discriminator 2
	.loc 1 1800 3 discriminator 2
	.loc 1 1800 17 is_stmt 0 discriminator 2
	movs	r2, #2
	strb	r2, [r0, #97]
	.loc 1 1802 3 is_stmt 1 discriminator 2
.LVL190:
	.loc 1 1805 3 discriminator 2
	.loc 1 1805 23 is_stmt 0 discriminator 2
	rsb	r0, r1, r1, lsl #3
.LVL191:
	add	r0, r3, r0, lsl #2
	ldr	r4, [r0, #44]
	.loc 1 1805 52 discriminator 2
	ldr	r2, [r0, #48]
	.loc 1 1805 40 discriminator 2
	orr	r2, r4, r2, lsl #16
	.loc 1 1805 74 discriminator 2
	ldr	r5, [r0, #56]
	orr	r2, r2, r5, lsl #20
	.loc 1 1806 62 discriminator 2
	ldr	r0, [r0, #60]
	.loc 1 1805 12 discriminator 2
	orr	r2, r2, r0, lsl #21
.LVL192:
	.loc 1 1807 3 is_stmt 1 discriminator 2
	.loc 1 1810 3 discriminator 2
	.loc 1 1810 50 is_stmt 0 discriminator 2
	sub	r0, r4, #9
	.loc 1 1810 6 discriminator 2
	cmp	r0, #1
	bls	.L202
	.loc 1 1816 5 is_stmt 1
	.loc 1 1816 27 is_stmt 0
	rsb	r0, r1, r1, lsl #3
	add	r0, r3, r0, lsl #2
	ldr	r0, [r0, #52]
	.loc 1 1816 14
	orr	r2, r2, r0, lsl #24
.LVL193:
.L192:
	.loc 1 1820 3 is_stmt 1
	.loc 1 1820 6 is_stmt 0
	cbnz	r1, .L193
	.loc 1 1823 5 is_stmt 1
	.loc 1 1823 50 is_stmt 0
	ldr	r4, [r3]
	.loc 1 1823 60
	ldr	r5, [r4, #36]
	.loc 1 1823 73
	ldr	r0, .L205
	ands	r0, r0, r5
	.loc 1 1823 89
	orrs	r0, r0, r2
	.loc 1 1823 36
	str	r0, [r4, #36]
	.loc 1 1826 5 is_stmt 1
	.loc 1 1826 13 is_stmt 0
	ldr	r0, [r3]
	.loc 1 1826 43
	rsb	r2, r1, r1, lsl #3
.LVL194:
	add	r2, r3, r2, lsl #2
	ldr	r4, [r2, #40]
	.loc 1 1826 31
	str	r4, [r0, #24]
	.loc 1 1829 5 is_stmt 1
	.loc 1 1829 19 is_stmt 0
	ldr	r2, [r2, #44]
	.loc 1 1829 52
	subs	r2, r2, #9
	.loc 1 1829 8
	cmp	r2, #1
	bls	.L203
.LVL195:
.L194:
	.loc 1 1859 3 is_stmt 1
	.loc 1 1859 17 is_stmt 0
	movs	r2, #1
	strb	r2, [r3, #97]
	.loc 1 1862 3 is_stmt 1
	.loc 1 1862 7
	.loc 1 1862 22 is_stmt 0
	movs	r0, #0
	strb	r0, [r3, #96]
	.loc 1 1862 5 is_stmt 1
	.loc 1 1864 3
	.loc 1 1865 1 is_stmt 0
	pop	{r4, r5}
	.cfi_remember_state
	.cfi_restore 5
	.cfi_restore 4
	.cfi_def_cfa_offset 0
	bx	lr
.LVL196:
.L202:
	.cfi_restore_state
	.loc 1 1812 5 is_stmt 1
	.loc 1 1812 27 is_stmt 0
	rsb	r0, r1, r1, lsl #3
	add	r0, r3, r0, lsl #2
	ldr	r0, [r0, #52]
	.loc 1 1812 40
	and	r0, r0, #-16777216
	.loc 1 1812 14
	orrs	r2, r2, r0
.LVL197:
	b	.L192
.LVL198:
.L203:
	.loc 1 1831 7 is_stmt 1
	.loc 1 1831 47 is_stmt 0
	rsb	r1, r1, r1, lsl #3
.LVL199:
	add	r1, r3, r1, lsl #2
	ldr	r2, [r1, #52]
	.loc 1 1831 15
	ldr	r1, [r3]
	.loc 1 1831 60
	bic	r2, r2, #-16777216
	.loc 1 1831 35
	str	r2, [r1, #40]
	b	.L194
.LVL200:
.L193:
	.loc 1 1839 5 is_stmt 1
	.loc 1 1839 8 is_stmt 0
	cmp	r4, #11
	beq	.L204
	.loc 1 1807 11
	ldr	r5, .L205+4
.LVL201:
.L195:
	.loc 1 1846 5 is_stmt 1
	.loc 1 1846 50 is_stmt 0
	ldr	r4, [r3]
	.loc 1 1846 60
	ldr	r0, [r4, #28]
	.loc 1 1846 73
	bic	r0, r0, r5
	.loc 1 1846 89
	orrs	r2, r2, r0
.LVL202:
	.loc 1 1846 36
	str	r2, [r4, #28]
	.loc 1 1849 5 is_stmt 1
	.loc 1 1849 13 is_stmt 0
	ldr	r0, [r3]
	.loc 1 1849 43
	rsb	r2, r1, r1, lsl #3
	add	r2, r3, r2, lsl #2
	ldr	r4, [r2, #40]
	.loc 1 1849 31
	str	r4, [r0, #16]
	.loc 1 1852 5 is_stmt 1
	.loc 1 1852 19 is_stmt 0
	ldr	r2, [r2, #44]
	.loc 1 1852 52
	subs	r2, r2, #9
	.loc 1 1852 8
	cmp	r2, #1
	bhi	.L194
	.loc 1 1854 7 is_stmt 1
	.loc 1 1854 47 is_stmt 0
	rsb	r1, r1, r1, lsl #3
.LVL203:
	add	r1, r3, r1, lsl #2
	ldr	r2, [r1, #52]
	.loc 1 1854 15
	ldr	r1, [r3]
	.loc 1 1854 60
	bic	r2, r2, #-16777216
	.loc 1 1854 35
	str	r2, [r1, #32]
	b	.L194
.LVL204:
.L204:
	.loc 1 1841 7 is_stmt 1
	.loc 1 1841 29 is_stmt 0
	rsb	r0, r1, r1, lsl #3
	add	r0, r3, r0, lsl #2
	ldr	r0, [r0, #64]
	.loc 1 1841 16
	orr	r2, r2, r0, lsl #18
.LVL205:
	.loc 1 1842 7 is_stmt 1
	.loc 1 1842 15 is_stmt 0
	ldr	r5, .L205+8
	b	.L195
.LVL206:
.L196:
	.cfi_def_cfa_offset 0
	.cfi_restore 4
	.cfi_restore 5
	.loc 1 1797 49
	movs	r0, #2
.LVL207:
	.loc 1 1865 1
	bx	lr
.L206:
	.align	2
.L205:
	.word	13434864
	.word	-13434865
	.word	-12648433
	.cfi_endproc
.LFE358:
	.size	HAL_DMA2D_ConfigLayer, .-HAL_DMA2D_ConfigLayer
	.section	.text.HAL_DMA2D_ConfigCLUT,"ax",%progbits
	.align	1
	.global	HAL_DMA2D_ConfigCLUT
	.syntax unified
	.thumb
	.thumb_func
	.type	HAL_DMA2D_ConfigCLUT, %function
HAL_DMA2D_ConfigCLUT:
.LFB359:
	.loc 1 1882 1 is_stmt 1
	.cfi_startproc
	@ args = 4, pretend = 0, frame = 16
	@ frame_needed = 0, uses_anonymous_args = 0
	@ link register save eliminated.
.LVL208:
	sub	sp, sp, #16
	.cfi_def_cfa_offset 16
	mov	ip, r0
	add	r0, sp, #16
.LVL209:
	stmdb	r0, {r1, r2, r3}
	.loc 1 1884 3
	.loc 1 1885 3
	.loc 1 1886 3
	.loc 1 1889 3
	.loc 1 1889 7
	.loc 1 1889 18 is_stmt 0
	ldrb	r3, [ip, #96]	@ zero_extendqisi2
	.loc 1 1889 9
	cmp	r3, #1
	beq	.L211
	.loc 1 1889 68 is_stmt 1 discriminator 2
	.loc 1 1889 83 is_stmt 0 discriminator 2
	movs	r3, #1
	strb	r3, [ip, #96]
	.loc 1 1889 5 is_stmt 1 discriminator 2
	.loc 1 1892 3 discriminator 2
	.loc 1 1892 17 is_stmt 0 discriminator 2
	movs	r3, #2
	strb	r3, [ip, #97]
	.loc 1 1895 3 is_stmt 1 discriminator 2
	.loc 1 1895 6 is_stmt 0 discriminator 2
	ldr	r3, [sp, #16]
	cbnz	r3, .L209
	.loc 1 1898 5 is_stmt 1
	.loc 1 1898 13 is_stmt 0
	ldr	r3, [ip]
	.loc 1 1898 33
	str	r1, [r3, #48]
	.loc 1 1901 5 is_stmt 1
	.loc 1 1901 50 is_stmt 0
	ldr	r1, [ip]
	.loc 1 1901 60
	ldr	r2, [r1, #36]
	.loc 1 1901 73
	ldr	r3, .L213
	ands	r3, r3, r2
	.loc 1 1901 155
	ldr	r2, [sp, #8]
	.loc 1 1901 170
	lsls	r2, r2, #4
	.loc 1 1901 145
	ldr	r0, [sp, #12]
.LVL210:
	orr	r2, r2, r0, lsl #8
	.loc 1 1901 118
	orrs	r3, r3, r2
	.loc 1 1901 36
	str	r3, [r1, #36]
.L210:
	.loc 1 1916 3 is_stmt 1
	.loc 1 1916 17 is_stmt 0
	movs	r3, #1
	strb	r3, [ip, #97]
	.loc 1 1919 3 is_stmt 1
	.loc 1 1919 7
	.loc 1 1919 22 is_stmt 0
	movs	r0, #0
	strb	r0, [ip, #96]
	.loc 1 1919 5 is_stmt 1
	.loc 1 1921 3
.L208:
	.loc 1 1922 1 is_stmt 0
	add	sp, sp, #16
	.cfi_remember_state
	.cfi_def_cfa_offset 0
.LVL211:
	@ sp needed
	bx	lr
.LVL212:
.L209:
	.cfi_restore_state
	.loc 1 1908 5 is_stmt 1
	.loc 1 1908 13 is_stmt 0
	ldr	r3, [ip]
.LVL213:
	.loc 1 1908 33
	ldr	r2, [sp, #4]
	str	r2, [r3, #44]
	.loc 1 1911 5 is_stmt 1
	.loc 1 1911 50 is_stmt 0
	ldr	r1, [ip]
	.loc 1 1911 60
	ldr	r2, [r1, #28]
	.loc 1 1911 73
	ldr	r3, .L213
	ands	r3, r3, r2
	.loc 1 1911 155
	ldr	r2, [sp, #8]
	.loc 1 1911 170
	lsls	r2, r2, #4
	.loc 1 1911 145
	ldr	r0, [sp, #12]
.LVL214:
	orr	r2, r2, r0, lsl #8
	.loc 1 1911 118
	orrs	r3, r3, r2
	.loc 1 1911 36
	str	r3, [r1, #28]
	b	.L210
.LVL215:
.L211:
	.loc 1 1889 49
	movs	r0, #2
.LVL216:
	b	.L208
.L214:
	.align	2
.L213:
	.word	-65297
	.cfi_endproc
.LFE359:
	.size	HAL_DMA2D_ConfigCLUT, .-HAL_DMA2D_ConfigCLUT
	.section	.text.HAL_DMA2D_ProgramLineEvent,"ax",%progbits
	.align	1
	.global	HAL_DMA2D_ProgramLineEvent
	.syntax unified
	.thumb
	.thumb_func
	.type	HAL_DMA2D_ProgramLineEvent, %function
HAL_DMA2D_ProgramLineEvent:
.LFB360:
	.loc 1 1936 1 is_stmt 1
	.cfi_startproc
	@ args = 0, pretend = 0, frame = 0
	@ frame_needed = 0, uses_anonymous_args = 0
	@ link register save eliminated.
.LVL217:
	.loc 1 1938 3
	.loc 1 1938 6 is_stmt 0
	cmp	r1, #65536
	bcs	.L217
	.loc 1 1945 5 is_stmt 1
	.loc 1 1945 9
	.loc 1 1945 20 is_stmt 0
	ldrb	r3, [r0, #96]	@ zero_extendqisi2
	.loc 1 1945 11
	cmp	r3, #1
	beq	.L218
	.loc 1 1945 70 is_stmt 1 discriminator 2
	.loc 1 1945 85 is_stmt 0 discriminator 2
	movs	r2, #1
	strb	r2, [r0, #96]
	.loc 1 1945 7 is_stmt 1 discriminator 2
	.loc 1 1948 5 discriminator 2
	.loc 1 1948 19 is_stmt 0 discriminator 2
	movs	r3, #2
	strb	r3, [r0, #97]
	.loc 1 1951 5 is_stmt 1 discriminator 2
	.loc 1 1951 13 is_stmt 0 discriminator 2
	ldr	r3, [r0]
	.loc 1 1951 30 discriminator 2
	str	r1, [r3, #72]
	.loc 1 1954 5 is_stmt 1 discriminator 2
	.loc 1 1954 14 is_stmt 0 discriminator 2
	ldr	r1, [r0]
.LVL218:
	.loc 1 1954 24 discriminator 2
	ldr	r3, [r1]
.LVL219:
	.loc 1 1954 29 discriminator 2
	orr	r3, r3, #1024
	str	r3, [r1]
	.loc 1 1957 5 is_stmt 1 discriminator 2
	.loc 1 1957 19 is_stmt 0 discriminator 2
	strb	r2, [r0, #97]
	.loc 1 1960 5 is_stmt 1 discriminator 2
	.loc 1 1960 9 discriminator 2
	.loc 1 1960 24 is_stmt 0 discriminator 2
	movs	r3, #0
	strb	r3, [r0, #96]
	.loc 1 1960 7 is_stmt 1 discriminator 2
	.loc 1 1962 5 discriminator 2
	.loc 1 1962 12 is_stmt 0 discriminator 2
	mov	r0, r3
.LVL220:
	bx	lr
.LVL221:
.L217:
	.loc 1 1940 12
	movs	r0, #1
.LVL222:
	bx	lr
.LVL223:
.L218:
	.loc 1 1945 51
	movs	r0, #2
.LVL224:
	.loc 1 1964 1
	bx	lr
	.cfi_endproc
.LFE360:
	.size	HAL_DMA2D_ProgramLineEvent, .-HAL_DMA2D_ProgramLineEvent
	.section	.text.HAL_DMA2D_EnableDeadTime,"ax",%progbits
	.align	1
	.global	HAL_DMA2D_EnableDeadTime
	.syntax unified
	.thumb
	.thumb_func
	.type	HAL_DMA2D_EnableDeadTime, %function
HAL_DMA2D_EnableDeadTime:
.LFB361:
	.loc 1 1972 1 is_stmt 1
	.cfi_startproc
	@ args = 0, pretend = 0, frame = 0
	@ frame_needed = 0, uses_anonymous_args = 0
	@ link register save eliminated.
.LVL225:
	.loc 1 1974 3
	.loc 1 1974 7
	.loc 1 1974 18 is_stmt 0
	ldrb	r3, [r0, #96]	@ zero_extendqisi2
	.loc 1 1974 9
	cmp	r3, #1
	beq	.L221
	.loc 1 1974 68 is_stmt 1 discriminator 2
	.loc 1 1974 83 is_stmt 0 discriminator 2
	movs	r2, #1
	strb	r2, [r0, #96]
	.loc 1 1974 5 is_stmt 1 discriminator 2
	.loc 1 1976 3 discriminator 2
	.loc 1 1976 17 is_stmt 0 discriminator 2
	movs	r3, #2
	strb	r3, [r0, #97]
	.loc 1 1979 3 is_stmt 1 discriminator 2
	.loc 1 1979 11 is_stmt 0 discriminator 2
	ldr	r1, [r0]
	.loc 1 1979 21 discriminator 2
	ldr	r3, [r1, #76]
	.loc 1 1979 30 discriminator 2
	orrs	r3, r3, r2
	str	r3, [r1, #76]
	.loc 1 1981 3 is_stmt 1 discriminator 2
	.loc 1 1981 17 is_stmt 0 discriminator 2
	strb	r2, [r0, #97]
	.loc 1 1984 3 is_stmt 1 discriminator 2
	.loc 1 1984 7 discriminator 2
	.loc 1 1984 22 is_stmt 0 discriminator 2
	movs	r3, #0
	strb	r3, [r0, #96]
	.loc 1 1984 5 is_stmt 1 discriminator 2
	.loc 1 1986 3 discriminator 2
	.loc 1 1986 10 is_stmt 0 discriminator 2
	mov	r0, r3
.LVL226:
	bx	lr
.LVL227:
.L221:
	.loc 1 1974 49
	movs	r0, #2
.LVL228:
	.loc 1 1987 1
	bx	lr
	.cfi_endproc
.LFE361:
	.size	HAL_DMA2D_EnableDeadTime, .-HAL_DMA2D_EnableDeadTime
	.section	.text.HAL_DMA2D_DisableDeadTime,"ax",%progbits
	.align	1
	.global	HAL_DMA2D_DisableDeadTime
	.syntax unified
	.thumb
	.thumb_func
	.type	HAL_DMA2D_DisableDeadTime, %function
HAL_DMA2D_DisableDeadTime:
.LFB362:
	.loc 1 1995 1 is_stmt 1
	.cfi_startproc
	@ args = 0, pretend = 0, frame = 0
	@ frame_needed = 0, uses_anonymous_args = 0
	@ link register save eliminated.
.LVL229:
	.loc 1 1997 3
	.loc 1 1997 7
	.loc 1 1997 18 is_stmt 0
	ldrb	r3, [r0, #96]	@ zero_extendqisi2
	.loc 1 1997 9
	cmp	r3, #1
	beq	.L224
	.loc 1 1997 68 is_stmt 1 discriminator 2
	.loc 1 1997 83 is_stmt 0 discriminator 2
	movs	r2, #1
	strb	r2, [r0, #96]
	.loc 1 1997 5 is_stmt 1 discriminator 2
	.loc 1 1999 3 discriminator 2
	.loc 1 1999 17 is_stmt 0 discriminator 2
	movs	r3, #2
	strb	r3, [r0, #97]
	.loc 1 2002 3 is_stmt 1 discriminator 2
	.loc 1 2002 11 is_stmt 0 discriminator 2
	ldr	r1, [r0]
	.loc 1 2002 21 discriminator 2
	ldr	r3, [r1, #76]
	.loc 1 2002 30 discriminator 2
	bic	r3, r3, #1
	str	r3, [r1, #76]
	.loc 1 2004 3 is_stmt 1 discriminator 2
	.loc 1 2004 17 is_stmt 0 discriminator 2
	strb	r2, [r0, #97]
	.loc 1 2007 3 is_stmt 1 discriminator 2
	.loc 1 2007 7 discriminator 2
	.loc 1 2007 22 is_stmt 0 discriminator 2
	movs	r3, #0
	strb	r3, [r0, #96]
	.loc 1 2007 5 is_stmt 1 discriminator 2
	.loc 1 2009 3 discriminator 2
	.loc 1 2009 10 is_stmt 0 discriminator 2
	mov	r0, r3
.LVL230:
	bx	lr
.LVL231:
.L224:
	.loc 1 1997 49
	movs	r0, #2
.LVL232:
	.loc 1 2010 1
	bx	lr
	.cfi_endproc
.LFE362:
	.size	HAL_DMA2D_DisableDeadTime, .-HAL_DMA2D_DisableDeadTime
	.section	.text.HAL_DMA2D_ConfigDeadTime,"ax",%progbits
	.align	1
	.global	HAL_DMA2D_ConfigDeadTime
	.syntax unified
	.thumb
	.thumb_func
	.type	HAL_DMA2D_ConfigDeadTime, %function
HAL_DMA2D_ConfigDeadTime:
.LFB363:
	.loc 1 2021 1 is_stmt 1
	.cfi_startproc
	@ args = 0, pretend = 0, frame = 0
	@ frame_needed = 0, uses_anonymous_args = 0
	@ link register save eliminated.
.LVL233:
	.loc 1 2023 3
	.loc 1 2023 7
	.loc 1 2023 18 is_stmt 0
	ldrb	r3, [r0, #96]	@ zero_extendqisi2
	.loc 1 2023 9
	cmp	r3, #1
	beq	.L227
	.loc 1 2021 1 discriminator 2
	push	{r4}
	.cfi_def_cfa_offset 4
	.cfi_offset 4, -4
	.loc 1 2023 68 is_stmt 1 discriminator 2
	.loc 1 2023 83 is_stmt 0 discriminator 2
	movs	r2, #1
	strb	r2, [r0, #96]
	.loc 1 2023 5 is_stmt 1 discriminator 2
	.loc 1 2025 3 discriminator 2
	.loc 1 2025 17 is_stmt 0 discriminator 2
	movs	r3, #2
	strb	r3, [r0, #97]
	.loc 1 2028 3 is_stmt 1 discriminator 2
	.loc 1 2028 46 is_stmt 0 discriminator 2
	ldr	r4, [r0]
	.loc 1 2028 56 discriminator 2
	ldr	r3, [r4, #76]
	.loc 1 2028 67 discriminator 2
	bic	r3, r3, #65280
	.loc 1 2028 92 discriminator 2
	orr	r1, r3, r1, lsl #8
.LVL234:
	.loc 1 2028 32 discriminator 2
	str	r1, [r4, #76]
	.loc 1 2030 3 is_stmt 1 discriminator 2
	.loc 1 2030 17 is_stmt 0 discriminator 2
	strb	r2, [r0, #97]
	.loc 1 2033 3 is_stmt 1 discriminator 2
	.loc 1 2033 7 discriminator 2
	.loc 1 2033 22 is_stmt 0 discriminator 2
	movs	r3, #0
	strb	r3, [r0, #96]
	.loc 1 2033 5 is_stmt 1 discriminator 2
	.loc 1 2035 3 discriminator 2
	.loc 1 2035 10 is_stmt 0 discriminator 2
	mov	r0, r3
.LVL235:
	.loc 1 2036 1 discriminator 2
	ldr	r4, [sp], #4
	.cfi_restore 4
	.cfi_def_cfa_offset 0
	bx	lr
.LVL236:
.L227:
	.loc 1 2023 49
	movs	r0, #2
.LVL237:
	.loc 1 2036 1
	bx	lr
	.cfi_endproc
.LFE363:
	.size	HAL_DMA2D_ConfigDeadTime, .-HAL_DMA2D_ConfigDeadTime
	.section	.text.HAL_DMA2D_GetState,"ax",%progbits
	.align	1
	.global	HAL_DMA2D_GetState
	.syntax unified
	.thumb
	.thumb_func
	.type	HAL_DMA2D_GetState, %function
HAL_DMA2D_GetState:
.LFB364:
	.loc 1 2066 1 is_stmt 1
	.cfi_startproc
	@ args = 0, pretend = 0, frame = 0
	@ frame_needed = 0, uses_anonymous_args = 0
	@ link register save eliminated.
.LVL238:
	.loc 1 2067 3
	.loc 1 2067 16 is_stmt 0
	ldrb	r0, [r0, #97]	@ zero_extendqisi2
.LVL239:
	.loc 1 2068 1
	bx	lr
	.cfi_endproc
.LFE364:
	.size	HAL_DMA2D_GetState, .-HAL_DMA2D_GetState
	.section	.text.HAL_DMA2D_GetError,"ax",%progbits
	.align	1
	.global	HAL_DMA2D_GetError
	.syntax unified
	.thumb
	.thumb_func
	.type	HAL_DMA2D_GetError, %function
HAL_DMA2D_GetError:
.LFB365:
	.loc 1 2077 1 is_stmt 1
	.cfi_startproc
	@ args = 0, pretend = 0, frame = 0
	@ frame_needed = 0, uses_anonymous_args = 0
	@ link register save eliminated.
.LVL240:
	.loc 1 2078 3
	.loc 1 2078 16 is_stmt 0
	ldr	r0, [r0, #100]
.LVL241:
	.loc 1 2079 1
	bx	lr
	.cfi_endproc
.LFE365:
	.size	HAL_DMA2D_GetError, .-HAL_DMA2D_GetError
	.text
.Letext0:
	.file 2 "m:\\noinstall\\arm-gnu-toolchain-12.2.rel1-mingw-w64-i686-arm-none-eabi\\arm-none-eabi\\include\\machine\\_default_types.h"
	.file 3 "m:\\noinstall\\arm-gnu-toolchain-12.2.rel1-mingw-w64-i686-arm-none-eabi\\arm-none-eabi\\include\\sys\\_stdint.h"
	.file 4 "D:/RTOS/Board/YD-STM32H7xxVx_ClassicV19/cmake-build-debug/_deps/stm32h7xx_cmsis_device-src/Include/stm32h743xx.h"
	.file 5 "D:/RTOS/Board/YD-STM32H7xxVx_ClassicV19/cmake-build-debug/_deps/stm32h7xx_hal_driver-src/Inc/stm32h7xx_hal_def.h"
	.file 6 "D:/RTOS/Board/YD-STM32H7xxVx_ClassicV19/cmake-build-debug/_deps/stm32h7xx_hal_driver-src/Inc/stm32h7xx_hal_dma2d.h"
	.file 7 "D:/RTOS/Board/YD-STM32H7xxVx_ClassicV19/cmake-build-debug/_deps/stm32h7xx_hal_driver-src/Inc/stm32h7xx_hal.h"