	.cpu cortex-m7
	.arch armv7e-m
	.fpu fpv5-d16
	.eabi_attribute 28, 1
	.eabi_attribute 20, 1
	.eabi_attribute 21, 1
	.eabi_attribute 23, 3
	.eabi_attribute 24, 1
	.eabi_attribute 25, 1
	.eabi_attribute 26, 1
	.eabi_attribute 30, 1
	.eabi_attribute 34, 1
	.eabi_attribute 18, 4
	.file	"stm32h7xx_hal_cec.c"
	.text
.Ltext0:
	.cfi_sections	.debug_frame
	.file 1 "D:/RTOS/Board/YD-STM32H7xxVx_ClassicV19/cmake-build-debug/_deps/stm32h7xx_hal_driver-src/Src/stm32h7xx_hal_cec.c"
	.section	.text.HAL_CEC_SetDeviceAddress,"ax",%progbits
	.align	1
	.global	HAL_CEC_SetDeviceAddress
	.syntax unified
	.thumb
	.thumb_func
	.type	HAL_CEC_SetDeviceAddress, %function
HAL_CEC_SetDeviceAddress:
.LFB337:
	.loc 1 342 1
	.cfi_startproc
	@ args = 0, pretend = 0, frame = 0
	@ frame_needed = 0, uses_anonymous_args = 0
	@ link register save eliminated.
.LVL0:
	.loc 1 344 3
	.loc 1 346 3
	.loc 1 346 12 is_stmt 0
	ldr	r3, [r0, #56]
	.loc 1 346 6
	cmp	r3, #32
	bne	.L5
	.loc 1 346 56 discriminator 1
	ldr	r3, [r0, #60]
	.loc 1 346 48 discriminator 1
	cmp	r3, #32
	bne	.L6
	.loc 1 349 5 is_stmt 1
	.loc 1 349 9
	.loc 1 349 18 is_stmt 0
	ldrb	r3, [r0, #52]	@ zero_extendqisi2
	.loc 1 349 11
	cmp	r3, #1
	beq	.L7
	.loc 1 349 68 is_stmt 1 discriminator 2
	.loc 1 349 81 is_stmt 0 discriminator 2
	movs	r3, #1
	strb	r3, [r0, #52]
	.loc 1 349 7 is_stmt 1 discriminator 2
	.loc 1 351 5 discriminator 2
	.loc 1 351 18 is_stmt 0 discriminator 2
	movs	r3, #36
	str	r3, [r0, #56]
	.loc 1 354 5 is_stmt 1 discriminator 2
	.loc 1 354 12 is_stmt 0 discriminator 2
	ldr	r2, [r0]
	.loc 1 354 22 discriminator 2
	ldr	r3, [r2]
	.loc 1 354 27 discriminator 2
	bic	r3, r3, #1
	str	r3, [r2]
	.loc 1 356 5 is_stmt 1 discriminator 2
	.loc 1 356 8 is_stmt 0 discriminator 2
	cbz	r1, .L3
	.loc 1 358 7 is_stmt 1
	.loc 1 358 11 is_stmt 0
	ldr	r2, [r0]
	.loc 1 358 21
	ldr	r3, [r2, #4]
	.loc 1 358 28
	orr	r3, r3, r1, lsl #16
	str	r3, [r2, #4]
.LVL1:
.L4:
	.loc 1 365 5 is_stmt 1
	.loc 1 365 18 is_stmt 0
	movs	r3, #32
	str	r3, [r0, #56]
	.loc 1 366 5 is_stmt 1
	.loc 1 366 21 is_stmt 0
	movs	r3, #0
	str	r3, [r0, #64]
	.loc 1 369 5 is_stmt 1
	.loc 1 369 9
	.loc 1 369 22 is_stmt 0
	strb	r3, [r0, #52]
	.loc 1 369 7 is_stmt 1
	.loc 1 372 5
	.loc 1 372 12 is_stmt 0
	ldr	r1, [r0]
	.loc 1 372 22
	ldr	r2, [r1]
	.loc 1 372 27
	orr	r2, r2, #1
	str	r2, [r1]
	.loc 1 374 5 is_stmt 1
	.loc 1 374 12 is_stmt 0
	mov	r0, r3
.LVL2:
	bx	lr
.LVL3:
.L3:
	.loc 1 362 7 is_stmt 1
	.loc 1 362 11 is_stmt 0
	ldr	r2, [r0]
	.loc 1 362 21
	ldr	r1, [r2, #4]
.LVL4:
	.loc 1 362 28
	ldr	r3, .L8
	ands	r3, r3, r1
	str	r3, [r2, #4]
	b	.L4
.LVL5:
.L5:
	.loc 1 378 12
	movs	r0, #2
.LVL6:
	bx	lr
.LVL7:
.L6:
	movs	r0, #2
.LVL8:
	bx	lr
.LVL9:
.L7:
	.loc 1 349 49
	movs	r0, #2
.LVL10:
	.loc 1 380 1
	bx	lr
.L9:
	.align	2
.L8:
	.word	-2147418113
	.cfi_endproc
.LFE337:
	.size	HAL_CEC_SetDeviceAddress, .-HAL_CEC_SetDeviceAddress
	.section	.text.HAL_CEC_MspInit,"ax",%progbits
	.align	1
	.weak	HAL_CEC_MspInit
	.syntax unified
	.thumb
	.thumb_func
	.type	HAL_CEC_MspInit, %function
HAL_CEC_MspInit:
.LFB338:
	.loc 1 388 1 is_stmt 1
	.cfi_startproc
	@ args = 0, pretend = 0, frame = 0
	@ frame_needed = 0, uses_anonymous_args = 0
	@ link register save eliminated.
.LVL11:
	.loc 1 390 3
	.loc 1 394 1 is_stmt 0
	bx	lr
	.cfi_endproc
.LFE338:
	.size	HAL_CEC_MspInit, .-HAL_CEC_MspInit
	.section	.text.HAL_CEC_Init,"ax",%progbits
	.align	1
	.global	HAL_CEC_Init
	.syntax unified
	.thumb
	.thumb_func
	.type	HAL_CEC_Init, %function
HAL_CEC_Init:
.LFB335:
	.loc 1 182 1 is_stmt 1
	.cfi_startproc
	@ args = 0, pretend = 0, frame = 0
	@ frame_needed = 0, uses_anonymous_args = 0
.LVL12:
	.loc 1 184 3
	.loc 1 184 6 is_stmt 0
	cmp	r0, #0
	beq	.L14
	.loc 1 182 1 discriminator 1
	push	{r4, lr}
	.cfi_def_cfa_offset 8
	.cfi_offset 4, -8
	.cfi_offset 14, -4
	mov	r4, r0
	.loc 1 184 35 discriminator 1
	ldr	r3, [r0, #40]
	.loc 1 184 21 discriminator 1
	cmp	r3, #0
	beq	.L15
	.loc 1 190 3 is_stmt 1
	.loc 1 191 3
	.loc 1 192 3
	.loc 1 193 3
	.loc 1 194 3
	.loc 1 195 3
	.loc 1 196 3
	.loc 1 197 3
	.loc 1 198 3
	.loc 1 199 3
	.loc 1 220 3
	.loc 1 220 11 is_stmt 0
	ldr	r3, [r0, #56]
	.loc 1 220 6
	cmp	r3, #0
	beq	.L20
.LVL13:
.L13:
	.loc 1 229 3 is_stmt 1
	.loc 1 229 16 is_stmt 0
	movs	r3, #36
	str	r3, [r4, #56]
	.loc 1 232 3 is_stmt 1
	.loc 1 232 10 is_stmt 0
	ldr	r2, [r4]
	.loc 1 232 20
	ldr	r3, [r2]
	.loc 1 232 25
	bic	r3, r3, #1
	str	r3, [r2]
	.loc 1 235 3 is_stmt 1
	.loc 1 235 36 is_stmt 0
	ldr	r3, [r4, #4]
	.loc 1 235 64
	ldr	r2, [r4, #8]
	.loc 1 235 52
	orrs	r3, r3, r2
	.loc 1 235 87
	ldr	r2, [r4, #12]
	.loc 1 235 75
	orrs	r3, r3, r2
	.loc 1 236 36
	ldr	r2, [r4, #16]
	.loc 1 235 98
	orrs	r3, r3, r2
	.loc 1 236 64
	ldr	r2, [r4, #20]
	.loc 1 236 52
	orrs	r3, r3, r2
	.loc 1 237 36
	ldr	r2, [r4, #24]
	.loc 1 236 81
	orrs	r3, r3, r2
	.loc 1 238 36
	ldr	r2, [r4, #28]
	.loc 1 237 63
	orrs	r3, r3, r2
	.loc 1 238 82
	ldrh	r2, [r4, #36]
	.loc 1 238 58
	orr	r3, r3, r2, lsl #16
	.loc 1 239 36
	ldr	r1, [r4, #32]
	.loc 1 235 7
	ldr	r2, [r4]
	.loc 1 238 103
	orrs	r3, r3, r1
	.loc 1 235 24
	str	r3, [r2, #4]
	.loc 1 256 3 is_stmt 1
	.loc 1 256 10 is_stmt 0
	ldr	r2, [r4]
	.loc 1 256 20
	ldr	r1, [r2, #20]
	.loc 1 256 26
	movw	r3, #8191
	orrs	r3, r3, r1
	str	r3, [r2, #20]
	.loc 1 260 3 is_stmt 1
	.loc 1 260 10 is_stmt 0
	ldr	r2, [r4]
	.loc 1 260 20
	ldr	r3, [r2]
	.loc 1 260 25
	orr	r3, r3, #1
	str	r3, [r2]
	.loc 1 262 3 is_stmt 1
	.loc 1 262 19 is_stmt 0
	movs	r0, #0
	str	r0, [r4, #64]
	.loc 1 263 3 is_stmt 1
	.loc 1 263 16 is_stmt 0
	movs	r3, #32
	str	r3, [r4, #56]
	.loc 1 264 3 is_stmt 1
	.loc 1 264 17 is_stmt 0
	str	r3, [r4, #60]
	.loc 1 266 3 is_stmt 1
.L12:
	.loc 1 267 1 is_stmt 0
	pop	{r4, pc}
.LVL14:
.L20:
	.loc 1 223 5 is_stmt 1
	.loc 1 223 16 is_stmt 0
	strb	r3, [r0, #52]
	.loc 1 225 5 is_stmt 1
	bl	HAL_CEC_MspInit
.LVL15:
	b	.L13
.LVL16:
.L14:
	.cfi_def_cfa_offset 0
	.cfi_restore 4
	.cfi_restore 14
	.loc 1 186 12 is_stmt 0
	movs	r0, #1
.LVL17:
	.loc 1 267 1
	bx	lr
.LVL18:
.L15:
	.cfi_def_cfa_offset 8
	.cfi_offset 4, -8
	.cfi_offset 14, -4
	.loc 1 186 12
	movs	r0, #1
.LVL19:
	b	.L12
	.cfi_endproc
.LFE335:
	.size	HAL_CEC_Init, .-HAL_CEC_Init
	.section	.text.HAL_CEC_MspDeInit,"ax",%progbits
	.align	1
	.weak	HAL_CEC_MspDeInit
	.syntax unified
	.thumb
	.thumb_func
	.type	HAL_CEC_MspDeInit, %function
HAL_CEC_MspDeInit:
.LFB339:
	.loc 1 402 1 is_stmt 1
	.cfi_startproc
	@ args = 0, pretend = 0, frame = 0
	@ frame_needed = 0, uses_anonymous_args = 0
	@ link register save eliminated.
.LVL20:
	.loc 1 404 3
	.loc 1 408 1 is_stmt 0
	bx	lr
	.cfi_endproc
.LFE339:
	.size	HAL_CEC_MspDeInit, .-HAL_CEC_MspDeInit
	.section	.text.HAL_CEC_DeInit,"ax",%progbits
	.align	1
	.global	HAL_CEC_DeInit
	.syntax unified
	.thumb
	.thumb_func
	.type	HAL_CEC_DeInit, %function
HAL_CEC_DeInit:
.LFB336:
	.loc 1 275 1 is_stmt 1
	.cfi_startproc
	@ args = 0, pretend = 0, frame = 0
	@ frame_needed = 0, uses_anonymous_args = 0
.LVL21:
	.loc 1 277 3
	.loc 1 277 6 is_stmt 0
	cbz	r0, .L24
	.loc 1 275 1
	push	{r4, lr}
	.cfi_def_cfa_offset 8
	.cfi_offset 4, -8
	.cfi_offset 14, -4
	mov	r4, r0
	.loc 1 283 3 is_stmt 1
	.loc 1 285 3
	.loc 1 285 16 is_stmt 0
	movs	r3, #36
	str	r3, [r0, #56]
	.loc 1 298 3 is_stmt 1
	bl	HAL_CEC_MspDeInit
.LVL22:
	.loc 1 302 3
	.loc 1 302 10 is_stmt 0
	ldr	r2, [r4]
	.loc 1 302 20
	ldr	r3, [r2]
	.loc 1 302 25
	bic	r3, r3, #1
	str	r3, [r2]
	.loc 1 305 3 is_stmt 1
	.loc 1 305 10 is_stmt 0
	ldr	r2, [r4]
	.loc 1 305 20
	ldr	r1, [r2, #16]
	.loc 1 305 26
	movw	r3, #8191
	orrs	r3, r3, r1
	str	r3, [r2, #16]
	.loc 1 322 3 is_stmt 1
	.loc 1 322 10 is_stmt 0
	ldr	r2, [r4]
	.loc 1 322 20
	ldr	r1, [r2, #20]
	.loc 1 322 26
	ldr	r3, .L29
	ands	r3, r3, r1
	str	r3, [r2, #20]
	.loc 1 325 3 is_stmt 1
	.loc 1 325 19 is_stmt 0
	movs	r0, #0
	str	r0, [r4, #64]
	.loc 1 326 3 is_stmt 1
	.loc 1 326 16 is_stmt 0
	str	r0, [r4, #56]
	.loc 1 327 3 is_stmt 1
	.loc 1 327 17 is_stmt 0
	str	r0, [r4, #60]
	.loc 1 330 3 is_stmt 1
	.loc 1 330 7
	.loc 1 330 20 is_stmt 0
	strb	r0, [r4, #52]
	.loc 1 330 5 is_stmt 1
	.loc 1 332 3
	.loc 1 333 1 is_stmt 0
	pop	{r4, pc}
.LVL23:
.L24:
	.cfi_def_cfa_offset 0
	.cfi_restore 4
	.cfi_restore 14
	.loc 1 279 12
	movs	r0, #1
.LVL24:
	.loc 1 333 1
	bx	lr
.L30:
	.align	2
.L29:
	.word	-8192
	.cfi_endproc
.LFE336:
	.size	HAL_CEC_DeInit, .-HAL_CEC_DeInit
	.section	.text.HAL_CEC_Transmit_IT,"ax",%progbits
	.align	1
	.global	HAL_CEC_Transmit_IT
	.syntax unified
	.thumb
	.thumb_func
	.type	HAL_CEC_Transmit_IT, %function
HAL_CEC_Transmit_IT:
.LFB340:
	.loc 1 699 1 is_stmt 1
	.cfi_startproc
	@ args = 4, pretend = 0, frame = 0
	@ frame_needed = 0, uses_anonymous_args = 0
	@ link register save eliminated.
.LVL25:
	push	{r4, r5}
	.cfi_def_cfa_offset 8
	.cfi_offset 4, -8
	.cfi_offset 5, -4
	ldr	r4, [sp, #8]
	.loc 1 702 3
	.loc 1 702 6 is_stmt 0
	ldr	r5, [r0, #56]
	cmp	r5, #32
	bne	.L34
	.loc 1 704 5 is_stmt 1
	.loc 1 704 24 is_stmt 0
	clz	r5, r3
	lsrs	r5, r5, #5
	cmp	r4, #0
	it	eq
	moveq	r5, #0
	.loc 1 704 8
	cbnz	r5, .L35
	.loc 1 709 5 is_stmt 1
	.loc 1 710 5
	.loc 1 711 5
	.loc 1 714 5
	.loc 1 714 9
	.loc 1 714 18 is_stmt 0
	ldrb	r5, [r0, #52]	@ zero_extendqisi2
	.loc 1 714 11
	cmp	r5, #1
	beq	.L36
	.loc 1 714 68 is_stmt 1 discriminator 2
	.loc 1 714 81 is_stmt 0 discriminator 2
	movs	r5, #1
	strb	r5, [r0, #52]
	.loc 1 714 7 is_stmt 1 discriminator 2
	.loc 1 715 5 discriminator 2
	.loc 1 715 22 is_stmt 0 discriminator 2
	str	r3, [r0, #44]
	.loc 1 716 5 is_stmt 1 discriminator 2
	.loc 1 716 18 is_stmt 0 discriminator 2
	movs	r3, #33
.LVL26:
	str	r3, [r0, #56]
	.loc 1 717 5 is_stmt 1 discriminator 2
	.loc 1 717 21 is_stmt 0 discriminator 2
	movs	r3, #0
	str	r3, [r0, #64]
	.loc 1 721 5 is_stmt 1 discriminator 2
	.loc 1 721 23 is_stmt 0 discriminator 2
	strh	r4, [r0, #48]	@ movhi
	.loc 1 725 5 is_stmt 1 discriminator 2
	.loc 1 725 8 is_stmt 0 discriminator 2
	cbnz	r4, .L33
	.loc 1 727 7 is_stmt 1
	.loc 1 727 14 is_stmt 0
	ldr	r4, [r0]
	.loc 1 727 24
	ldr	r3, [r4]
	.loc 1 727 29
	orr	r3, r3, #4
	str	r3, [r4]
.LVL27:
.L33:
	.loc 1 731 5 is_stmt 1
	.loc 1 731 9 is_stmt 0
	ldr	r3, [r0]
	.loc 1 731 28
	orr	r2, r2, r1, lsl #4
.LVL28:
	.loc 1 731 26
	str	r2, [r3, #8]
	.loc 1 734 5 is_stmt 1
	.loc 1 734 12 is_stmt 0
	ldr	r2, [r0]
	.loc 1 734 22
	ldr	r3, [r2]
	.loc 1 734 27
	orr	r3, r3, #2
	str	r3, [r2]
	.loc 1 737 5 is_stmt 1
	.loc 1 737 9
	.loc 1 737 22 is_stmt 0
	movs	r3, #0
	strb	r3, [r0, #52]
	.loc 1 737 7 is_stmt 1
	.loc 1 739 5
	.loc 1 739 12 is_stmt 0
	mov	r0, r3
.LVL29:
	b	.L32
.LVL30:
.L34:
	.loc 1 744 12
	movs	r0, #2
.LVL31:
.L32:
	.loc 1 746 1
	pop	{r4, r5}
	.cfi_remember_state
	.cfi_restore 5
	.cfi_restore 4
	.cfi_def_cfa_offset 0
.LVL32:
	bx	lr
.LVL33:
.L35:
	.cfi_restore_state
	.loc 1 706 14
	movs	r0, #1
.LVL34:
	b	.L32
.LVL35:
.L36:
	.loc 1 714 49
	movs	r0, #2
.LVL36:
	b	.L32
	.cfi_endproc
.LFE340:
	.size	HAL_CEC_Transmit_IT, .-HAL_CEC_Transmit_IT
	.section	.text.HAL_CEC_GetLastReceivedFrameSize,"ax",%progbits
	.align	1
	.global	HAL_CEC_GetLastReceivedFrameSize
	.syntax unified
	.thumb
	.thumb_func
	.type	HAL_CEC_GetLastReceivedFrameSize, %function
HAL_CEC_GetLastReceivedFrameSize:
.LFB341:
	.loc 1 754 1 is_stmt 1
	.cfi_startproc
	@ args = 0, pretend = 0, frame = 0
	@ frame_needed = 0, uses_anonymous_args = 0
	@ link register save eliminated.
.LVL37:
	.loc 1 755 3
	.loc 1 756 1 is_stmt 0
	ldrh	r0, [r0, #50]
.LVL38:
	bx	lr
	.cfi_endproc
.LFE341:
	.size	HAL_CEC_GetLastReceivedFrameSize, .-HAL_CEC_GetLastReceivedFrameSize
	.section	.text.HAL_CEC_ChangeRxBuffer,"ax",%progbits
	.align	1
	.global	HAL_CEC_ChangeRxBuffer
	.syntax unified
	.thumb
	.thumb_func
	.type	HAL_CEC_ChangeRxBuffer, %function
HAL_CEC_ChangeRxBuffer:
.LFB342:
	.loc 1 766 1 is_stmt 1
	.cfi_startproc
	@ args = 0, pretend = 0, frame = 0
	@ frame_needed = 0, uses_anonymous_args = 0
	@ link register save eliminated.
.LVL39:
	.loc 1 767 3
	.loc 1 767 23 is_stmt 0
	str	r1, [r0, #40]
	.loc 1 768 1
	bx	lr
	.cfi_endproc
.LFE342:
	.size	HAL_CEC_ChangeRxBuffer, .-HAL_CEC_ChangeRxBuffer
	.section	.text.HAL_CEC_TxCpltCallback,"ax",%progbits
	.align	1
	.weak	HAL_CEC_TxCpltCallback
	.syntax unified
	.thumb
	.thumb_func
	.type	HAL_CEC_TxCpltCallback, %function
HAL_CEC_TxCpltCallback:
.LFB344:
	.loc 1 900 1 is_stmt 1
	.cfi_startproc
	@ args = 0, pretend = 0, frame = 0
	@ frame_needed = 0, uses_anonymous_args = 0
	@ link register save eliminated.
.LVL40:
	.loc 1 902 3
	.loc 1 906 1 is_stmt 0
	bx	lr
	.cfi_endproc
.LFE344:
	.size	HAL_CEC_TxCpltCallback, .-HAL_CEC_TxCpltCallback
	.section	.text.HAL_CEC_RxCpltCallback,"ax",%progbits
	.align	1
	.weak	HAL_CEC_RxCpltCallback
	.syntax unified
	.thumb
	.thumb_func
	.type	HAL_CEC_RxCpltCallback, %function
HAL_CEC_RxCpltCallback:
.LFB345:
	.loc 1 915 1 is_stmt 1
	.cfi_startproc
	@ args = 0, pretend = 0, frame = 0
	@ frame_needed = 0, uses_anonymous_args = 0
	@ link register save eliminated.
.LVL41:
	.loc 1 917 3
	.loc 1 918 3
	.loc 1 922 1 is_stmt 0
	bx	lr
	.cfi_endproc
.LFE345:
	.size	HAL_CEC_RxCpltCallback, .-HAL_CEC_RxCpltCallback
	.section	.text.HAL_CEC_ErrorCallback,"ax",%progbits
	.align	1
	.weak	HAL_CEC_ErrorCallback
	.syntax unified
	.thumb
	.thumb_func
	.type	HAL_CEC_ErrorCallback, %function
HAL_CEC_ErrorCallback:
.LFB346:
	.loc 1 930 1 is_stmt 1
	.cfi_startproc
	@ args = 0, pretend = 0, frame = 0
	@ frame_needed = 0, uses_anonymous_args = 0
	@ link register save eliminated.
.LVL42:
	.loc 1 932 3
	.loc 1 936 1 is_stmt 0
	bx	lr
	.cfi_endproc
.LFE346:
	.size	HAL_CEC_ErrorCallback, .-HAL_CEC_ErrorCallback
	.section	.text.HAL_CEC_IRQHandler,"ax",%progbits
	.align	1
	.global	HAL_CEC_IRQHandler
	.syntax unified
	.thumb
	.thumb_func
	.type	HAL_CEC_IRQHandler, %function
HAL_CEC_IRQHandler:
.LFB343:
	.loc 1 776 1 is_stmt 1
	.cfi_startproc
	@ args = 0, pretend = 0, frame = 0
	@ frame_needed = 0, uses_anonymous_args = 0
.LVL43:
	push	{r3, r4, r5, r6, r7, lr}
	.cfi_def_cfa_offset 24
	.cfi_offset 3, -24
	.cfi_offset 4, -20
	.cfi_offset 5, -16
	.cfi_offset 6, -12
	.cfi_offset 7, -8
	.cfi_offset 14, -4
	mov	r4, r0
	.loc 1 779 3
	.loc 1 780 3
	.loc 1 780 16 is_stmt 0
	ldr	r3, [r0]
	.loc 1 780 10
	ldr	r5, [r3, #16]
.LVL44:
	.loc 1 785 3 is_stmt 1
	.loc 1 785 6 is_stmt 0
	ands	r6, r5, #128
	beq	.L44
	.loc 1 787 5 is_stmt 1
	.loc 1 787 21 is_stmt 0
	movs	r2, #128
	str	r2, [r0, #64]
	.loc 1 788 5 is_stmt 1
	.loc 1 788 22 is_stmt 0
	ldr	r2, [r3, #16]
	.loc 1 788 28
	orr	r2, r2, #128
	str	r2, [r3, #16]
.L44:
	.loc 1 793 3 is_stmt 1
	.loc 1 793 6 is_stmt 0
	tst	r5, #1
	beq	.L45
	.loc 1 796 5 is_stmt 1
	.loc 1 796 19 is_stmt 0
	movs	r3, #34
	str	r3, [r4, #60]
	.loc 1 797 5 is_stmt 1
	.loc 1 797 9 is_stmt 0
	ldrh	r3, [r4, #50]
	.loc 1 797 21
	adds	r3, r3, #1
	strh	r3, [r4, #50]	@ movhi
	.loc 1 799 5 is_stmt 1
	.loc 1 799 42 is_stmt 0
	ldr	r3, [r4]
	.loc 1 799 52
	ldr	r2, [r3, #12]
	.loc 1 799 16
	ldr	r3, [r4, #40]
	.loc 1 799 26
	strb	r2, [r3]
	.loc 1 800 5 is_stmt 1
	.loc 1 800 15 is_stmt 0
	ldr	r3, [r4, #40]
	.loc 1 800 24
	adds	r3, r3, #1
	str	r3, [r4, #40]
	.loc 1 801 5 is_stmt 1
	.loc 1 801 12 is_stmt 0
	ldr	r2, [r4]
	.loc 1 801 22
	ldr	r3, [r2, #16]
	.loc 1 801 28
	orr	r3, r3, #1
	str	r3, [r2, #16]
.L45:
	.loc 1 805 3 is_stmt 1
	.loc 1 805 6 is_stmt 0
	tst	r5, #2
	bne	.L54
.LVL45:
.L46:
	.loc 1 824 3 is_stmt 1
	.loc 1 824 6 is_stmt 0
	tst	r5, #256
	beq	.L47
	.loc 1 826 5 is_stmt 1
	.loc 1 826 11 is_stmt 0
	ldrh	r3, [r4, #48]
	.loc 1 826 5
	subs	r3, r3, #1
	uxth	r3, r3
	strh	r3, [r4, #48]	@ movhi
	.loc 1 827 5 is_stmt 1
	.loc 1 827 8 is_stmt 0
	cbnz	r3, .L48
	.loc 1 830 7 is_stmt 1
	.loc 1 830 14 is_stmt 0
	ldr	r2, [r4]
	.loc 1 830 24
	ldr	r3, [r2]
	.loc 1 830 29
	orr	r3, r3, #4
	str	r3, [r2]
.L48:
	.loc 1 833 5 is_stmt 1
	.loc 1 833 44 is_stmt 0
	ldr	r3, [r4, #44]
	.loc 1 833 38
	ldrb	r2, [r3]	@ zero_extendqisi2
	.loc 1 833 9
	ldr	r3, [r4]
	.loc 1 833 26
	str	r2, [r3, #8]
	.loc 1 834 5 is_stmt 1
	.loc 1 834 9 is_stmt 0
	ldr	r3, [r4, #44]
	.loc 1 834 21
	adds	r3, r3, #1
	str	r3, [r4, #44]
	.loc 1 836 5 is_stmt 1
	.loc 1 836 12 is_stmt 0
	ldr	r2, [r4]
	.loc 1 836 22
	ldr	r3, [r2, #16]
	.loc 1 836 28
	orr	r3, r3, #256
	str	r3, [r2, #16]
.L47:
	.loc 1 840 3 is_stmt 1
	.loc 1 840 6 is_stmt 0
	tst	r5, #512
	bne	.L55
.L49:
	.loc 1 858 3 is_stmt 1
	.loc 1 858 6 is_stmt 0
	movw	r3, #7292
	tst	r5, r3
	beq	.L43
	.loc 1 861 5 is_stmt 1
	.loc 1 861 21 is_stmt 0
	str	r5, [r4, #64]
	.loc 1 862 5 is_stmt 1
	.loc 1 862 12 is_stmt 0
	ldr	r2, [r4]
	.loc 1 862 22
	ldr	r1, [r2, #16]
	.loc 1 862 28
	orrs	r3, r3, r1
	str	r3, [r2, #16]
	.loc 1 866 5 is_stmt 1
	.loc 1 866 8 is_stmt 0
	tst	r5, #124
	beq	.L51
	.loc 1 868 7 is_stmt 1
	.loc 1 868 17 is_stmt 0
	ldr	r3, [r4, #40]
	.loc 1 868 34
	ldrh	r2, [r4, #50]
	.loc 1 868 27
	subs	r3, r3, r2
	str	r3, [r4, #40]
	.loc 1 869 7 is_stmt 1
	.loc 1 869 24 is_stmt 0
	movs	r3, #0
	strh	r3, [r4, #50]	@ movhi
	.loc 1 870 7 is_stmt 1
	.loc 1 870 21 is_stmt 0
	movs	r3, #32
	str	r3, [r4, #60]
.L52:
	.loc 1 880 5 is_stmt 1
	.loc 1 885 5
	mov	r0, r4
	bl	HAL_CEC_ErrorCallback
.LVL46:
	.loc 1 891 3
.L43:
	.loc 1 892 1 is_stmt 0
	pop	{r3, r4, r5, r6, r7, pc}
.LVL47:
.L54:
	.loc 1 808 5 is_stmt 1
	.loc 1 808 12 is_stmt 0
	ldr	r2, [r4]
	.loc 1 808 22
	ldr	r3, [r2, #16]
	.loc 1 808 28
	orr	r3, r3, #2
	str	r3, [r2, #16]
	.loc 1 811 5 is_stmt 1
	.loc 1 811 19 is_stmt 0
	movs	r3, #32
	str	r3, [r4, #60]
	.loc 1 812 5 is_stmt 1
	.loc 1 812 21 is_stmt 0
	movs	r7, #0
	str	r7, [r4, #64]
	.loc 1 813 5 is_stmt 1
	.loc 1 813 15 is_stmt 0
	ldr	r3, [r4, #40]
	.loc 1 813 32
	ldrh	r1, [r4, #50]
	.loc 1 813 25
	subs	r3, r3, r1
	str	r3, [r4, #40]
	.loc 1 817 5 is_stmt 1
	mov	r0, r4
.LVL48:
	bl	HAL_CEC_RxCpltCallback
.LVL49:
	.loc 1 819 5
	.loc 1 819 22 is_stmt 0
	strh	r7, [r4, #50]	@ movhi
	b	.L46
.L55:
	.loc 1 842 5 is_stmt 1
	.loc 1 842 12 is_stmt 0
	ldr	r2, [r4]
	.loc 1 842 22
	ldr	r3, [r2, #16]
	.loc 1 842 28
	orr	r3, r3, #512
	str	r3, [r2, #16]
	.loc 1 845 5 is_stmt 1
	.loc 1 845 18 is_stmt 0
	movs	r3, #32
	str	r3, [r4, #56]
	.loc 1 848 5 is_stmt 1
	.loc 1 848 9
	.loc 1 848 22 is_stmt 0
	movs	r3, #0
	strb	r3, [r4, #52]
	.loc 1 848 7 is_stmt 1
	.loc 1 849 5
	.loc 1 849 21 is_stmt 0
	str	r3, [r4, #64]
	.loc 1 853 5 is_stmt 1
	mov	r0, r4
	bl	HAL_CEC_TxCpltCallback
.LVL50:
	b	.L49
.L51:
	.loc 1 872 10
	.loc 1 872 13 is_stmt 0
	cmp	r6, #0
	bne	.L52
	.loc 1 872 49 discriminator 1
	tst	r5, #7168
	beq	.L52
	.loc 1 875 7 is_stmt 1
	.loc 1 875 20 is_stmt 0
	movs	r3, #32
	str	r3, [r4, #56]
	b	.L52
	.cfi_endproc
.LFE343:
	.size	HAL_CEC_IRQHandler, .-HAL_CEC_IRQHandler
	.section	.text.HAL_CEC_GetState,"ax",%progbits
	.align	1
	.global	HAL_CEC_GetState
	.syntax unified
	.thumb
	.thumb_func
	.type	HAL_CEC_GetState, %function
HAL_CEC_GetState:
.LFB347:
	.loc 1 962 1 is_stmt 1
	.cfi_startproc
	@ args = 0, pretend = 0, frame = 0
	@ frame_needed = 0, uses_anonymous_args = 0
	@ link register save eliminated.
.LVL51:
	.loc 1 963 3
	.loc 1 964 3
	.loc 1 965 3
	.loc 1 965 9 is_stmt 0
	ldr	r2, [r0, #56]
.LVL52:
	.loc 1 966 3 is_stmt 1
	.loc 1 966 9 is_stmt 0
	ldr	r0, [r0, #60]
.LVL53:
	.loc 1 968 3 is_stmt 1
	.loc 1 969 1 is_stmt 0
	orrs	r0, r0, r2
.LVL54:
	bx	lr
	.cfi_endproc
.LFE347:
	.size	HAL_CEC_GetState, .-HAL_CEC_GetState
	.section	.text.HAL_CEC_GetError,"ax",%progbits
	.align	1
	.global	HAL_CEC_GetError
	.syntax unified
	.thumb
	.thumb_func
	.type	HAL_CEC_GetError, %function
HAL_CEC_GetError:
.LFB348:
	.loc 1 978 1 is_stmt 1
	.cfi_startproc
	@ args = 0, pretend = 0, frame = 0
	@ frame_needed = 0, uses_anonymous_args = 0
	@ link register save eliminated.
.LVL55:
	.loc 1 979 3
	.loc 1 980 1 is_stmt 0
	ldr	r0, [r0, #64]
.LVL56:
	bx	lr
	.cfi_endproc
.LFE348:
	.size	HAL_CEC_GetError, .-HAL_CEC_GetError
	.text
.Letext0:
	.file 2 "m:\\noinstall\\arm-gnu-toolchain-12.2.rel1-mingw-w64-i686-arm-none-eabi\\arm-none-eabi\\include\\machine\\_default_types.h"
	.file 3 "m:\\noinstall\\arm-gnu-toolchain-12.2.rel1-mingw-w64-i686-arm-none-eabi\\arm-none-eabi\\include\\sys\\_stdint.h"
	.file 4 "D:/RTOS/Board/YD-STM32H7xxVx_ClassicV19/cmake-build-debug/_deps/stm32h7xx_cmsis_device-src/Include/stm32h743xx.h"
	.file 5 "D:/RTOS/Board/YD-STM32H7xxVx_ClassicV19/cmake-build-debug/_deps/stm32h7xx_hal_driver-src/Inc/stm32h7xx_hal_def.h"
	.file 6 "D:/RTOS/Board/YD-STM32H7xxVx_ClassicV19/cmake-build-debug/_deps/stm32h7xx_hal_driver-src/Inc/stm32h7xx_hal_cec.h"