	.cpu cortex-m7
	.arch armv7e-m
	.fpu fpv5-d16
	.eabi_attribute 28, 1
	.eabi_attribute 20, 1
	.eabi_attribute 21, 1
	.eabi_attribute 23, 3
	.eabi_attribute 24, 1
	.eabi_attribute 25, 1
	.eabi_attribute 26, 1
	.eabi_attribute 30, 1
	.eabi_attribute 34, 1
	.eabi_attribute 18, 4
	.file	"stm32h7xx_hal_dac_ex.c"
	.text
.Ltext0:
	.cfi_sections	.debug_frame
	.file 1 "D:/RTOS/Board/YD-STM32H7xxVx_ClassicV19/cmake-build-debug/_deps/stm32h7xx_hal_driver-src/Src/stm32h7xx_hal_dac_ex.c"
	.section	.text.HAL_DACEx_DualStart,"ax",%progbits
	.align	1
	.global	HAL_DACEx_DualStart
	.syntax unified
	.thumb
	.thumb_func
	.type	HAL_DACEx_DualStart, %function
HAL_DACEx_DualStart:
.LFB335:
	.loc 1 128 1
	.cfi_startproc
	@ args = 0, pretend = 0, frame = 0
	@ frame_needed = 0, uses_anonymous_args = 0
	@ link register save eliminated.
.LVL0:
	.loc 1 129 3
	.loc 1 132 3
	.loc 1 132 6 is_stmt 0
	mov	r3, r0
	cbz	r0, .L5
	.loc 1 139 3 is_stmt 1
	.loc 1 139 7
	.loc 1 139 16 is_stmt 0
	ldrb	r2, [r0, #5]	@ zero_extendqisi2
	.loc 1 139 9
	cmp	r2, #1
	beq	.L6
	.loc 1 139 66 is_stmt 1 discriminator 2
	.loc 1 139 79 is_stmt 0 discriminator 2
	movs	r2, #1
	strb	r2, [r0, #5]
	.loc 1 139 5 is_stmt 1 discriminator 2
	.loc 1 142 3 discriminator 2
	.loc 1 142 15 is_stmt 0 discriminator 2
	movs	r2, #2
	strb	r2, [r0, #4]
	.loc 1 145 3 is_stmt 1 discriminator 2
	.loc 1 145 10 is_stmt 0 discriminator 2
	ldr	r1, [r0]
	.loc 1 145 20 discriminator 2
	ldr	r2, [r1]
	.loc 1 145 25 discriminator 2
	orr	r2, r2, #1
	str	r2, [r1]
	.loc 1 146 3 is_stmt 1 discriminator 2
	.loc 1 146 10 is_stmt 0 discriminator 2
	ldr	r1, [r0]
	.loc 1 146 20 discriminator 2
	ldr	r2, [r1]
	.loc 1 146 25 discriminator 2
	orr	r2, r2, #65536
	str	r2, [r1]
	.loc 1 149 3 is_stmt 1 discriminator 2
	.loc 1 149 12 is_stmt 0 discriminator 2
	ldr	r2, [r0]
	.loc 1 149 22 discriminator 2
	ldr	r1, [r2]
	.loc 1 149 27 discriminator 2
	and	r1, r1, #62
	.loc 1 149 6 discriminator 2
	cmp	r1, #2
	beq	.L7
	.loc 1 129 12
	movs	r0, #0
.LVL1:
.L3:
	.loc 1 153 3 is_stmt 1
	.loc 1 153 22 is_stmt 0
	ldr	r1, [r2]
	.loc 1 153 27
	and	r1, r1, #4063232
	.loc 1 153 6
	cmp	r1, #131072
	beq	.L8
.L4:
	.loc 1 158 3 is_stmt 1
	.loc 1 158 19 is_stmt 0
	ldr	r1, [r2, #4]
	.loc 1 158 30
	orrs	r1, r1, r0
	str	r1, [r2, #4]
	.loc 1 161 3 is_stmt 1
	.loc 1 161 15 is_stmt 0
	movs	r2, #1
	strb	r2, [r3, #4]
	.loc 1 164 3 is_stmt 1
	.loc 1 164 7
	.loc 1 164 20 is_stmt 0
	movs	r0, #0
.LVL2:
	strb	r0, [r3, #5]
	.loc 1 164 5 is_stmt 1
	.loc 1 167 3
	.loc 1 167 10 is_stmt 0
	bx	lr
.LVL3:
.L7:
	.loc 1 151 16
	movs	r0, #1
.LVL4:
	b	.L3
.LVL5:
.L8:
	.loc 1 155 5 is_stmt 1
	.loc 1 155 16 is_stmt 0
	orr	r0, r0, #2
.LVL6:
	b	.L4
.LVL7:
.L5:
	.loc 1 134 12
	movs	r0, #1
.LVL8:
	bx	lr
.LVL9:
.L6:
	.loc 1 139 47
	movs	r0, #2
.LVL10:
	.loc 1 168 1
	bx	lr
	.cfi_endproc
.LFE335:
	.size	HAL_DACEx_DualStart, .-HAL_DACEx_DualStart
	.section	.text.HAL_DACEx_DualStop,"ax",%progbits
	.align	1
	.global	HAL_DACEx_DualStop
	.syntax unified
	.thumb
	.thumb_func
	.type	HAL_DACEx_DualStop, %function
HAL_DACEx_DualStop:
.LFB336:
	.loc 1 177 1 is_stmt 1
	.cfi_startproc
	@ args = 0, pretend = 0, frame = 0
	@ frame_needed = 0, uses_anonymous_args = 0
	@ link register save eliminated.
.LVL11:
	.loc 1 179 3
	.loc 1 179 6 is_stmt 0
	cbz	r0, .L11
	.loc 1 186 3 is_stmt 1
	.loc 1 186 10 is_stmt 0
	ldr	r1, [r0]
	.loc 1 186 20
	ldr	r2, [r1]
	.loc 1 186 25
	bic	r2, r2, #1
	str	r2, [r1]
	.loc 1 187 3 is_stmt 1
	.loc 1 187 10 is_stmt 0
	ldr	r1, [r0]
	.loc 1 187 20
	ldr	r2, [r1]
	.loc 1 187 25
	bic	r2, r2, #65536
	str	r2, [r1]
	.loc 1 190 3 is_stmt 1
	.loc 1 190 15 is_stmt 0
	movs	r2, #1
	strb	r2, [r0, #4]
	.loc 1 193 3 is_stmt 1
	.loc 1 193 10 is_stmt 0
	movs	r0, #0
.LVL12:
	bx	lr
.LVL13:
.L11:
	.loc 1 181 12
	movs	r0, #1
.LVL14:
	.loc 1 194 1
	bx	lr
	.cfi_endproc
.LFE336:
	.size	HAL_DACEx_DualStop, .-HAL_DACEx_DualStop
	.section	.text.HAL_DACEx_DualStart_DMA,"ax",%progbits
	.align	1
	.global	HAL_DACEx_DualStart_DMA
	.syntax unified
	.thumb
	.thumb_func
	.type	HAL_DACEx_DualStart_DMA, %function
HAL_DACEx_DualStart_DMA:
.LFB337:
	.loc 1 215 1 is_stmt 1
	.cfi_startproc
	@ args = 4, pretend = 0, frame = 0
	@ frame_needed = 0, uses_anonymous_args = 0
.LVL15:
	push	{r4, r5, r6, lr}
	.cfi_def_cfa_offset 16
	.cfi_offset 4, -16
	.cfi_offset 5, -12
	.cfi_offset 6, -8
	.cfi_offset 14, -4
	ldr	r6, [sp, #16]
	.loc 1 216 3
	.loc 1 217 3
.LVL16:
	.loc 1 220 3
	.loc 1 220 6 is_stmt 0
	cmp	r0, #0
	beq	.L22
	mov	r5, r1
	mov	r1, r2
.LVL17:
	mov	r4, r0
	.loc 1 226 3 is_stmt 1
	.loc 1 227 3
	.loc 1 230 3
	.loc 1 230 7
	.loc 1 230 16 is_stmt 0
	ldrb	r2, [r0, #5]	@ zero_extendqisi2
.LVL18:
	.loc 1 230 9
	cmp	r2, #1
	beq	.L23
	.loc 1 230 66 is_stmt 1 discriminator 2
	.loc 1 230 79 is_stmt 0 discriminator 2
	movs	r2, #1
	strb	r2, [r0, #5]
	.loc 1 230 5 is_stmt 1 discriminator 2
	.loc 1 233 3 discriminator 2
	.loc 1 233 15 is_stmt 0 discriminator 2
	movs	r2, #2
	strb	r2, [r0, #4]
	.loc 1 235 3 is_stmt 1 discriminator 2
	.loc 1 235 6 is_stmt 0 discriminator 2
	cmp	r5, #0
	bne	.L14
	.loc 1 238 5 is_stmt 1
	.loc 1 238 9 is_stmt 0
	ldr	r2, [r0, #8]
	.loc 1 238 41
	ldr	r0, .L27
.LVL19:
	str	r0, [r2, #60]
	.loc 1 241 5 is_stmt 1
	.loc 1 241 9 is_stmt 0
	ldr	r2, [r4, #8]
	.loc 1 241 45
	ldr	r0, .L27+4
	str	r0, [r2, #64]
	.loc 1 244 5 is_stmt 1
	.loc 1 244 9 is_stmt 0
	ldr	r2, [r4, #8]
	.loc 1 244 42
	ldr	r0, .L27+8
	str	r0, [r2, #76]
	.loc 1 247 5 is_stmt 1
	.loc 1 247 11 is_stmt 0
	ldr	r0, [r4]
	.loc 1 247 21
	ldr	r2, [r0]
	.loc 1 247 27
	orr	r2, r2, #4096
	str	r2, [r0]
.L15:
	.loc 1 264 3 is_stmt 1
	cmp	r6, #4
	beq	.L16
	cmp	r6, #8
	beq	.L17
	cmp	r6, #0
	beq	.L26
	movs	r2, #0
.LVL20:
.L18:
	.loc 1 283 3
	.loc 1 283 6 is_stmt 0
	cmp	r5, #0
	bne	.L19
	.loc 1 286 5 is_stmt 1
	.loc 1 286 13 is_stmt 0
	ldr	r5, [r4]
.LVL21:
	.loc 1 286 23
	ldr	r0, [r5]
	.loc 1 286 29
	orr	r0, r0, #8192
	str	r0, [r5]
	.loc 1 289 5 is_stmt 1
	.loc 1 289 14 is_stmt 0
	ldr	r0, [r4, #8]
	bl	HAL_DMA_Start_IT
.LVL22:
.L20:
	.loc 1 301 3 is_stmt 1
	.loc 1 301 7
	.loc 1 301 20 is_stmt 0
	movs	r3, #0
	strb	r3, [r4, #5]
	.loc 1 301 5 is_stmt 1
	.loc 1 303 3
	.loc 1 303 6 is_stmt 0
	cmp	r0, #0
	bne	.L21
	.loc 1 306 5 is_stmt 1
	.loc 1 306 12 is_stmt 0
	ldr	r2, [r4]
	.loc 1 306 22
	ldr	r3, [r2]
	.loc 1 306 27
	orr	r3, r3, #1
	str	r3, [r2]
	.loc 1 307 5 is_stmt 1
	.loc 1 307 12 is_stmt 0
	ldr	r2, [r4]
	.loc 1 307 22
	ldr	r3, [r2]
	.loc 1 307 27
	orr	r3, r3, #65536
	str	r3, [r2]
.LVL23:
.L13:
	.loc 1 316 1
	pop	{r4, r5, r6, pc}
.LVL24:
.L14:
	.loc 1 252 5 is_stmt 1
	.loc 1 252 9 is_stmt 0
	ldr	r2, [r0, #12]
	.loc 1 252 41
	ldr	r0, .L27+12
.LVL25:
	str	r0, [r2, #60]
	.loc 1 255 5 is_stmt 1
	.loc 1 255 9 is_stmt 0
	ldr	r2, [r4, #12]
	.loc 1 255 45
	ldr	r0, .L27+16
	str	r0, [r2, #64]
	.loc 1 258 5 is_stmt 1
	.loc 1 258 9 is_stmt 0
	ldr	r2, [r4, #12]
	.loc 1 258 42
	ldr	r0, .L27+20
	str	r0, [r2, #76]
	.loc 1 261 5 is_stmt 1
	.loc 1 261 11 is_stmt 0
	ldr	r0, [r4]
	.loc 1 261 21
	ldr	r2, [r0]
	.loc 1 261 27
	orr	r2, r2, #268435456
	str	r2, [r0]
	b	.L15
.L26:
	.loc 1 268 7 is_stmt 1
	.loc 1 268 31 is_stmt 0
	ldr	r0, [r4]
	.loc 1 268 26
	add	r2, r0, #32
.LVL26:
	.loc 1 269 7 is_stmt 1
	b	.L18
.LVL27:
.L16:
	.loc 1 272 7
	.loc 1 272 31 is_stmt 0
	ldr	r0, [r4]
	.loc 1 272 26
	add	r2, r0, #36
.LVL28:
	.loc 1 273 7 is_stmt 1
	b	.L18
.LVL29:
.L17:
	.loc 1 276 7
	.loc 1 276 31 is_stmt 0
	ldr	r0, [r4]
	.loc 1 276 26
	add	r2, r0, #40
.LVL30:
	.loc 1 277 7 is_stmt 1
	b	.L18
.L19:
	.loc 1 294 5
	.loc 1 294 13 is_stmt 0
	ldr	r5, [r4]
.LVL31:
	.loc 1 294 23
	ldr	r0, [r5]
	.loc 1 294 29
	orr	r0, r0, #536870912
	str	r0, [r5]
	.loc 1 297 5 is_stmt 1
	.loc 1 297 14 is_stmt 0
	ldr	r0, [r4, #12]
	bl	HAL_DMA_Start_IT
.LVL32:
	b	.L20
.L21:
	.loc 1 311 5 is_stmt 1
	.loc 1 311 9 is_stmt 0
	ldr	r3, [r4, #16]
	.loc 1 311 21
	orr	r3, r3, #4
	str	r3, [r4, #16]
	b	.L13
.LVL33:
.L22:
	.loc 1 222 12
	movs	r0, #1
.LVL34:
	b	.L13
.LVL35:
.L23:
	.loc 1 230 47
	movs	r0, #2
.LVL36:
	b	.L13
.L28:
	.align	2
.L27:
	.word	DAC_DMAConvCpltCh1
	.word	DAC_DMAHalfConvCpltCh1
	.word	DAC_DMAErrorCh1
	.word	DAC_DMAConvCpltCh2
	.word	DAC_DMAHalfConvCpltCh2
	.word	DAC_DMAErrorCh2
	.cfi_endproc
.LFE337:
	.size	HAL_DACEx_DualStart_DMA, .-HAL_DACEx_DualStart_DMA
	.section	.text.HAL_DACEx_DualStop_DMA,"ax",%progbits
	.align	1
	.global	HAL_DACEx_DualStop_DMA
	.syntax unified
	.thumb
	.thumb_func
	.type	HAL_DACEx_DualStop_DMA, %function
HAL_DACEx_DualStop_DMA:
.LFB338:
	.loc 1 329 1 is_stmt 1
	.cfi_startproc
	@ args = 0, pretend = 0, frame = 0
	@ frame_needed = 0, uses_anonymous_args = 0
.LVL37:
	.loc 1 330 3
	.loc 1 333 3
	.loc 1 333 6 is_stmt 0
	cbz	r0, .L34
	.loc 1 329 1
	push	{r4, lr}
	.cfi_def_cfa_offset 8
	.cfi_offset 4, -8
	.cfi_offset 14, -4
	mov	r4, r0
	.loc 1 340 3 is_stmt 1
	.loc 1 340 9 is_stmt 0
	ldr	r2, [r0]
	.loc 1 340 19
	ldr	r3, [r2]
	.loc 1 340 25
	bic	r3, r3, #268439552
	str	r3, [r2]
	.loc 1 343 3 is_stmt 1
	.loc 1 343 10 is_stmt 0
	ldr	r2, [r0]
	.loc 1 343 20
	ldr	r3, [r2]
	.loc 1 343 25
	bic	r3, r3, #1
	str	r3, [r2]
	.loc 1 344 3 is_stmt 1
	.loc 1 344 10 is_stmt 0
	ldr	r2, [r0]
	.loc 1 344 20
	ldr	r3, [r2]
	.loc 1 344 25
	bic	r3, r3, #65536
	str	r3, [r2]
	.loc 1 349 3 is_stmt 1
	.loc 1 349 6 is_stmt 0
	cbnz	r1, .L31
	.loc 1 352 5 is_stmt 1
	.loc 1 352 14 is_stmt 0
	ldr	r0, [r0, #8]
.LVL38:
	bl	HAL_DMA_Abort
.LVL39:
	.loc 1 355 5 is_stmt 1
	.loc 1 355 13 is_stmt 0
	ldr	r2, [r4]
	.loc 1 355 23
	ldr	r3, [r2]
	.loc 1 355 29
	bic	r3, r3, #8192
	str	r3, [r2]
.L32:
	.loc 1 367 3 is_stmt 1
	.loc 1 367 6 is_stmt 0
	cbz	r0, .L33
	.loc 1 370 5 is_stmt 1
	.loc 1 370 17 is_stmt 0
	movs	r3, #4
	strb	r3, [r4, #4]
.L30:
	.loc 1 380 1
	pop	{r4, pc}
.LVL40:
.L31:
	.loc 1 360 5 is_stmt 1
	.loc 1 360 14 is_stmt 0
	ldr	r0, [r0, #12]
.LVL41:
	bl	HAL_DMA_Abort
.LVL42:
	.loc 1 363 5 is_stmt 1
	.loc 1 363 13 is_stmt 0
	ldr	r2, [r4]
	.loc 1 363 23
	ldr	r3, [r2]
	.loc 1 363 29
	bic	r3, r3, #536870912
	str	r3, [r2]
	b	.L32
.L33:
	.loc 1 375 5 is_stmt 1
	.loc 1 375 17 is_stmt 0
	movs	r3, #1
	strb	r3, [r4, #4]
	b	.L30
.LVL43:
.L34:
	.cfi_def_cfa_offset 0
	.cfi_restore 4
	.cfi_restore 14
	.loc 1 335 12
	movs	r0, #1
.LVL44:
	.loc 1 380 1
	bx	lr
	.cfi_endproc
.LFE338:
	.size	HAL_DACEx_DualStop_DMA, .-HAL_DACEx_DualStop_DMA
	.section	.text.HAL_DACEx_TriangleWaveGenerate,"ax",%progbits
	.align	1
	.global	HAL_DACEx_TriangleWaveGenerate
	.syntax unified
	.thumb
	.thumb_func
	.type	HAL_DACEx_TriangleWaveGenerate, %function
HAL_DACEx_TriangleWaveGenerate:
.LFB339:
	.loc 1 408 1 is_stmt 1
	.cfi_startproc
	@ args = 0, pretend = 0, frame = 0
	@ frame_needed = 0, uses_anonymous_args = 0
.LVL45:
	.loc 1 410 3
	.loc 1 410 6 is_stmt 0
	cbz	r0, .L41
	mov	r3, r0
	.loc 1 416 3 is_stmt 1
	.loc 1 417 3
	.loc 1 420 3
	.loc 1 420 7
	.loc 1 420 16 is_stmt 0
	ldrb	r0, [r0, #5]	@ zero_extendqisi2
.LVL46:
	.loc 1 420 9
	cmp	r0, #1
	beq	.L42
	.loc 1 408 1 discriminator 2
	push	{r4, lr}
	.cfi_def_cfa_offset 8
	.cfi_offset 4, -8
	.cfi_offset 14, -4
	.loc 1 420 66 is_stmt 1 discriminator 2
	.loc 1 420 79 is_stmt 0 discriminator 2
	mov	lr, #1
	strb	lr, [r3, #5]
	.loc 1 420 5 is_stmt 1 discriminator 2
	.loc 1 423 3 discriminator 2
	.loc 1 423 15 is_stmt 0 discriminator 2
	movs	r0, #2
	strb	r0, [r3, #4]
	.loc 1 426 3 is_stmt 1 discriminator 2
	.loc 1 426 39 is_stmt 0 discriminator 2
	ldr	r4, [r3]
	.loc 1 426 49 discriminator 2
	ldr	r0, [r4]
	.loc 1 426 114 discriminator 2
	and	r1, r1, #16
.LVL47:
	.loc 1 426 102 discriminator 2
	mov	ip, #4032
	lsl	ip, ip, r1
	.loc 1 426 57 discriminator 2
	bic	r0, r0, ip
	.loc 1 426 147 discriminator 2
	orr	r2, r2, #128
.LVL48:
	.loc 1 426 160 discriminator 2
	lsls	r2, r2, r1
	.loc 1 426 127 discriminator 2
	orrs	r2, r2, r0
	.loc 1 426 27 discriminator 2
	str	r2, [r4]
	.loc 1 430 3 is_stmt 1 discriminator 2
	.loc 1 430 15 is_stmt 0 discriminator 2
	strb	lr, [r3, #4]
	.loc 1 433 3 is_stmt 1 discriminator 2
	.loc 1 433 7 discriminator 2
	.loc 1 433 20 is_stmt 0 discriminator 2
	movs	r0, #0
	strb	r0, [r3, #5]
	.loc 1 433 5 is_stmt 1 discriminator 2
	.loc 1 436 3 discriminator 2
	.loc 1 437 1 is_stmt 0 discriminator 2
	pop	{r4, pc}
.LVL49:
.L41:
	.cfi_def_cfa_offset 0
	.cfi_restore 4
	.cfi_restore 14
	.loc 1 412 12
	movs	r0, #1
.LVL50:
	bx	lr
.LVL51:
.L42:
	.loc 1 420 47
	movs	r0, #2
	.loc 1 437 1
	bx	lr
	.cfi_endproc
.LFE339:
	.size	HAL_DACEx_TriangleWaveGenerate, .-HAL_DACEx_TriangleWaveGenerate
	.section	.text.HAL_DACEx_NoiseWaveGenerate,"ax",%progbits
	.align	1
	.global	HAL_DACEx_NoiseWaveGenerate
	.syntax unified
	.thumb
	.thumb_func
	.type	HAL_DACEx_NoiseWaveGenerate, %function
HAL_DACEx_NoiseWaveGenerate:
.LFB340:
	.loc 1 464 1 is_stmt 1
	.cfi_startproc
	@ args = 0, pretend = 0, frame = 0
	@ frame_needed = 0, uses_anonymous_args = 0
.LVL52:
	.loc 1 466 3
	.loc 1 466 6 is_stmt 0
	cbz	r0, .L49
	mov	r3, r0
	.loc 1 472 3 is_stmt 1
	.loc 1 473 3
	.loc 1 476 3
	.loc 1 476 7
	.loc 1 476 16 is_stmt 0
	ldrb	r0, [r0, #5]	@ zero_extendqisi2
.LVL53:
	.loc 1 476 9
	cmp	r0, #1
	beq	.L50
	.loc 1 464 1 discriminator 2
	push	{r4, lr}
	.cfi_def_cfa_offset 8
	.cfi_offset 4, -8
	.cfi_offset 14, -4
	.loc 1 476 66 is_stmt 1 discriminator 2
	.loc 1 476 79 is_stmt 0 discriminator 2
	mov	lr, #1
	strb	lr, [r3, #5]
	.loc 1 476 5 is_stmt 1 discriminator 2
	.loc 1 479 3 discriminator 2
	.loc 1 479 15 is_stmt 0 discriminator 2
	movs	r0, #2
	strb	r0, [r3, #4]
	.loc 1 482 3 is_stmt 1 discriminator 2
	.loc 1 482 39 is_stmt 0 discriminator 2
	ldr	r4, [r3]
	.loc 1 482 49 discriminator 2
	ldr	r0, [r4]
	.loc 1 482 114 discriminator 2
	and	r1, r1, #16
.LVL54:
	.loc 1 482 102 discriminator 2
	mov	ip, #4032
	lsl	ip, ip, r1
	.loc 1 482 57 discriminator 2
	bic	r0, r0, ip
	.loc 1 482 147 discriminator 2
	orr	r2, r2, #64
.LVL55:
	.loc 1 482 160 discriminator 2
	lsls	r2, r2, r1
	.loc 1 482 127 discriminator 2
	orrs	r2, r2, r0
	.loc 1 482 27 discriminator 2
	str	r2, [r4]
	.loc 1 486 3 is_stmt 1 discriminator 2
	.loc 1 486 15 is_stmt 0 discriminator 2
	strb	lr, [r3, #4]
	.loc 1 489 3 is_stmt 1 discriminator 2
	.loc 1 489 7 discriminator 2
	.loc 1 489 20 is_stmt 0 discriminator 2
	movs	r0, #0
	strb	r0, [r3, #5]
	.loc 1 489 5 is_stmt 1 discriminator 2
	.loc 1 492 3 discriminator 2
	.loc 1 493 1 is_stmt 0 discriminator 2
	pop	{r4, pc}
.LVL56:
.L49:
	.cfi_def_cfa_offset 0
	.cfi_restore 4
	.cfi_restore 14
	.loc 1 468 12
	movs	r0, #1
.LVL57:
	bx	lr
.LVL58:
.L50:
	.loc 1 476 47
	movs	r0, #2
	.loc 1 493 1
	bx	lr
	.cfi_endproc
.LFE340:
	.size	HAL_DACEx_NoiseWaveGenerate, .-HAL_DACEx_NoiseWaveGenerate
	.section	.text.HAL_DACEx_DualSetValue,"ax",%progbits
	.align	1
	.global	HAL_DACEx_DualSetValue
	.syntax unified
	.thumb
	.thumb_func
	.type	HAL_DACEx_DualSetValue, %function
HAL_DACEx_DualSetValue:
.LFB341:
	.loc 1 512 1 is_stmt 1
	.cfi_startproc
	@ args = 0, pretend = 0, frame = 0
	@ frame_needed = 0, uses_anonymous_args = 0
	@ link register save eliminated.
.LVL59:
	.loc 1 513 3
	.loc 1 514 3
	.loc 1 517 3
	.loc 1 517 6 is_stmt 0
	mov	ip, r0
	cbz	r0, .L59
	.loc 1 523 3 is_stmt 1
	.loc 1 524 3
	.loc 1 525 3
	.loc 1 528 3
	.loc 1 528 6 is_stmt 0
	cmp	r1, #8
	beq	.L60
	.loc 1 534 5 is_stmt 1
	.loc 1 534 10 is_stmt 0
	orr	r2, r2, r3, lsl #16
.LVL60:
.L58:
	.loc 1 537 3 is_stmt 1
	.loc 1 537 23 is_stmt 0
	ldr	r3, [ip]
.LVL61:
	.loc 1 538 3 is_stmt 1
	.loc 1 538 7 is_stmt 0
	add	r1, r1, r3
.LVL62:
	.loc 1 541 3 is_stmt 1
	.loc 1 541 29 is_stmt 0
	str	r2, [r1, #32]
	.loc 1 544 3 is_stmt 1
	.loc 1 544 10 is_stmt 0
	movs	r0, #0
.LVL63:
	bx	lr
.LVL64:
.L60:
	.loc 1 530 5 is_stmt 1
	.loc 1 530 10 is_stmt 0
	orr	r2, r2, r3, lsl #8
.LVL65:
	b	.L58
.LVL66:
.L59:
	.loc 1 519 12
	movs	r0, #1
.LVL67:
	.loc 1 545 1
	bx	lr
	.cfi_endproc
.LFE341:
	.size	HAL_DACEx_DualSetValue, .-HAL_DACEx_DualSetValue
	.section	.text.HAL_DACEx_ConvCpltCallbackCh2,"ax",%progbits
	.align	1
	.weak	HAL_DACEx_ConvCpltCallbackCh2
	.syntax unified
	.thumb
	.thumb_func
	.type	HAL_DACEx_ConvCpltCallbackCh2, %function
HAL_DACEx_ConvCpltCallbackCh2:
.LFB342:
	.loc 1 554 1 is_stmt 1
	.cfi_startproc
	@ args = 0, pretend = 0, frame = 0
	@ frame_needed = 0, uses_anonymous_args = 0
	@ link register save eliminated.
.LVL68:
	.loc 1 556 3
	.loc 1 561 1 is_stmt 0
	bx	lr
	.cfi_endproc
.LFE342:
	.size	HAL_DACEx_ConvCpltCallbackCh2, .-HAL_DACEx_ConvCpltCallbackCh2
	.section	.text.DAC_DMAConvCpltCh2,"ax",%progbits
	.align	1
	.global	DAC_DMAConvCpltCh2
	.syntax unified
	.thumb
	.thumb_func
	.type	DAC_DMAConvCpltCh2, %function
DAC_DMAConvCpltCh2:
.LFB350:
	.loc 1 861 1 is_stmt 1
	.cfi_startproc
	@ args = 0, pretend = 0, frame = 0
	@ frame_needed = 0, uses_anonymous_args = 0
.LVL69:
	push	{r4, lr}
	.cfi_def_cfa_offset 8
	.cfi_offset 4, -8
	.cfi_offset 14, -4
	.loc 1 862 3
	.loc 1 862 22 is_stmt 0
	ldr	r4, [r0, #56]
.LVL70:
	.loc 1 867 3 is_stmt 1
	mov	r0, r4
.LVL71:
	bl	HAL_DACEx_ConvCpltCallbackCh2
.LVL72:
	.loc 1 870 3
	.loc 1 870 15 is_stmt 0
	movs	r3, #1
	strb	r3, [r4, #4]
	.loc 1 871 1
	pop	{r4, pc}
	.cfi_endproc
.LFE350:
	.size	DAC_DMAConvCpltCh2, .-DAC_DMAConvCpltCh2
	.section	.text.HAL_DACEx_ConvHalfCpltCallbackCh2,"ax",%progbits
	.align	1
	.weak	HAL_DACEx_ConvHalfCpltCallbackCh2
	.syntax unified
	.thumb
	.thumb_func
	.type	HAL_DACEx_ConvHalfCpltCallbackCh2, %function
HAL_DACEx_ConvHalfCpltCallbackCh2:
.LFB343:
	.loc 1 570 1 is_stmt 1
	.cfi_startproc
	@ args = 0, pretend = 0, frame = 0
	@ frame_needed = 0, uses_anonymous_args = 0
	@ link register save eliminated.
.LVL73:
	.loc 1 572 3
	.loc 1 577 1 is_stmt 0
	bx	lr
	.cfi_endproc
.LFE343:
	.size	HAL_DACEx_ConvHalfCpltCallbackCh2, .-HAL_DACEx_ConvHalfCpltCallbackCh2
	.section	.text.DAC_DMAHalfConvCpltCh2,"ax",%progbits
	.align	1
	.global	DAC_DMAHalfConvCpltCh2
	.syntax unified
	.thumb
	.thumb_func
	.type	DAC_DMAHalfConvCpltCh2, %function
DAC_DMAHalfConvCpltCh2:
.LFB351:
	.loc 1 880 1 is_stmt 1
	.cfi_startproc
	@ args = 0, pretend = 0, frame = 0
	@ frame_needed = 0, uses_anonymous_args = 0
.LVL74:
	push	{r3, lr}
	.cfi_def_cfa_offset 8
	.cfi_offset 3, -8
	.cfi_offset 14, -4
	.loc 1 881 3
.LVL75:
	.loc 1 886 3
	ldr	r0, [r0, #56]
.LVL76:
	bl	HAL_DACEx_ConvHalfCpltCallbackCh2
.LVL77:
	.loc 1 888 1 is_stmt 0
	pop	{r3, pc}
	.cfi_endproc
.LFE351:
	.size	DAC_DMAHalfConvCpltCh2, .-DAC_DMAHalfConvCpltCh2
	.section	.text.HAL_DACEx_ErrorCallbackCh2,"ax",%progbits
	.align	1
	.weak	HAL_DACEx_ErrorCallbackCh2
	.syntax unified
	.thumb
	.thumb_func
	.type	HAL_DACEx_ErrorCallbackCh2, %function
HAL_DACEx_ErrorCallbackCh2:
.LFB344:
	.loc 1 586 1 is_stmt 1
	.cfi_startproc
	@ args = 0, pretend = 0, frame = 0
	@ frame_needed = 0, uses_anonymous_args = 0
	@ link register save eliminated.
.LVL78:
	.loc 1 588 3
	.loc 1 593 1 is_stmt 0
	bx	lr
	.cfi_endproc
.LFE344:
	.size	HAL_DACEx_ErrorCallbackCh2, .-HAL_DACEx_ErrorCallbackCh2
	.section	.text.DAC_DMAErrorCh2,"ax",%progbits
	.align	1
	.global	DAC_DMAErrorCh2
	.syntax unified
	.thumb
	.thumb_func
	.type	DAC_DMAErrorCh2, %function
DAC_DMAErrorCh2:
.LFB352:
	.loc 1 897 1 is_stmt 1
	.cfi_startproc
	@ args = 0, pretend = 0, frame = 0
	@ frame_needed = 0, uses_anonymous_args = 0
.LVL79:
	push	{r4, lr}
	.cfi_def_cfa_offset 8
	.cfi_offset 4, -8
	.cfi_offset 14, -4
	.loc 1 898 3
	.loc 1 898 22 is_stmt 0
	ldr	r4, [r0, #56]
.LVL80:
	.loc 1 901 3 is_stmt 1
	.loc 1 901 7 is_stmt 0
	ldr	r3, [r4, #16]
	.loc 1 901 19
	orr	r3, r3, #4
	str	r3, [r4, #16]
	.loc 1 906 3 is_stmt 1
	mov	r0, r4
.LVL81:
	bl	HAL_DACEx_ErrorCallbackCh2
.LVL82:
	.loc 1 909 3
	.loc 1 909 15 is_stmt 0
	movs	r3, #1
	strb	r3, [r4, #4]
	.loc 1 910 1
	pop	{r4, pc}
	.cfi_endproc
.LFE352:
	.size	DAC_DMAErrorCh2, .-DAC_DMAErrorCh2
	.section	.text.HAL_DACEx_DMAUnderrunCallbackCh2,"ax",%progbits
	.align	1
	.weak	HAL_DACEx_DMAUnderrunCallbackCh2
	.syntax unified
	.thumb
	.thumb_func
	.type	HAL_DACEx_DMAUnderrunCallbackCh2, %function
HAL_DACEx_DMAUnderrunCallbackCh2:
.LFB345:
	.loc 1 602 1 is_stmt 1
	.cfi_startproc
	@ args = 0, pretend = 0, frame = 0
	@ frame_needed = 0, uses_anonymous_args = 0
	@ link register save eliminated.
.LVL83:
	.loc 1 604 3
	.loc 1 609 1 is_stmt 0
	bx	lr
	.cfi_endproc
.LFE345:
	.size	HAL_DACEx_DMAUnderrunCallbackCh2, .-HAL_DACEx_DMAUnderrunCallbackCh2
	.section	.text.HAL_DACEx_SelfCalibrate,"ax",%progbits
	.align	1
	.global	HAL_DACEx_SelfCalibrate
	.syntax unified
	.thumb
	.thumb_func
	.type	HAL_DACEx_SelfCalibrate, %function
HAL_DACEx_SelfCalibrate:
.LFB346:
	.loc 1 626 1 is_stmt 1
	.cfi_startproc
	@ args = 0, pretend = 0, frame = 8
	@ frame_needed = 0, uses_anonymous_args = 0
.LVL84:
	.loc 1 627 3
	.loc 1 629 3
	.loc 1 630 3
	.loc 1 631 3
	.loc 1 634 3
	.loc 1 637 3
	.loc 1 641 3
	.loc 1 641 6 is_stmt 0
	cmp	r1, #0
	it	ne
	cmpne	r0, #0
	beq	.L82
	.loc 1 626 1
	push	{r4, r5, r6, r7, r8, lr}
	.cfi_def_cfa_offset 24
	.cfi_offset 4, -24
	.cfi_offset 5, -20
	.cfi_offset 6, -16
	.cfi_offset 7, -12
	.cfi_offset 8, -8
	.cfi_offset 14, -4
	sub	sp, sp, #8
	.cfi_def_cfa_offset 32
	mov	ip, r0
	mov	r5, r1
	.loc 1 645 8 is_stmt 1
	.loc 1 645 16 is_stmt 0
	ldrb	r3, [r0, #4]	@ zero_extendqisi2
	uxtb	r3, r3
	.loc 1 645 11
	cmp	r3, #2
	beq	.L83
	.loc 1 652 5 is_stmt 1
	.loc 1 652 9
	.loc 1 652 18 is_stmt 0
	ldrb	r3, [r0, #5]	@ zero_extendqisi2
	.loc 1 652 11
	cmp	r3, #1
	beq	.L84
	.loc 1 652 68 is_stmt 1 discriminator 2
	.loc 1 652 81 is_stmt 0 discriminator 2
	movs	r1, #1
.LVL85:
	strb	r1, [r0, #5]
	.loc 1 652 7 is_stmt 1 discriminator 2
	.loc 1 655 5 discriminator 2
	.loc 1 655 33 is_stmt 0 discriminator 2
	ldr	r0, [r0]
.LVL86:
	.loc 1 655 43 discriminator 2
	ldr	r6, [r0, #60]
	.loc 1 655 80 discriminator 2
	and	r2, r2, #16
.LVL87:
	.loc 1 655 68 discriminator 2
	movs	r3, #7
	lsls	r3, r3, r2
	.loc 1 655 26 discriminator 2
	ands	r6, r6, r3
.LVL88:
	.loc 1 658 5 is_stmt 1 discriminator 2
	.loc 1 658 22 is_stmt 0 discriminator 2
	ldr	r4, [r0]
	.loc 1 658 51 discriminator 2
	lsls	r1, r1, r2
	.loc 1 658 29 discriminator 2
	bic	r1, r4, r1
	str	r1, [r0]
	.loc 1 661 5 is_stmt 1 discriminator 2
	.loc 1 661 42 is_stmt 0 discriminator 2
	ldr	r0, [ip]
	.loc 1 661 52 discriminator 2
	ldr	r1, [r0, #60]
	.loc 1 661 64 discriminator 2
	mvns	r4, r3
	.loc 1 661 109 discriminator 2
	bic	r3, r1, r3
	.loc 1 661 30 discriminator 2
	str	r3, [r0, #60]
	.loc 1 665 5 is_stmt 1 discriminator 2
	.loc 1 665 12 is_stmt 0 discriminator 2
	ldr	r1, [ip]
	.loc 1 665 22 discriminator 2
	ldr	r3, [r1]
	.loc 1 665 51 discriminator 2
	mov	lr, #16384
	lsl	lr, lr, r2
	.loc 1 665 29 discriminator 2
	orr	r3, r3, lr
	str	r3, [r1]
	.loc 1 669 5 is_stmt 1 discriminator 2
.LVL89:
	.loc 1 670 5 discriminator 2
	.loc 1 671 5 discriminator 2
	.loc 1 670 11 is_stmt 0 discriminator 2
	movs	r1, #8
	.loc 1 669 19 discriminator 2
	movs	r0, #16
	.loc 1 671 11 discriminator 2
	b	.L73
.LVL90:
.L75:
	.loc 1 683 9 is_stmt 1
	.loc 1 683 24 is_stmt 0
	ldr	r3, [sp, #4]
	subs	r3, r3, #1
	str	r3, [sp, #4]
.L74:
	.loc 1 681 30 is_stmt 1
	ldr	r3, [sp, #4]
	cmp	r3, #0
	bne	.L75
	.loc 1 686 7
	.loc 1 686 16 is_stmt 0
	ldr	r3, [ip]
	.loc 1 686 26
	ldr	r3, [r3, #52]
	.loc 1 686 10
	bics	r3, lr, r3
	beq	.L89
	.loc 1 694 9 is_stmt 1
	.loc 1 694 23 is_stmt 0
	add	r0, r0, r1
.LVL91:
.L77:
	.loc 1 696 7 is_stmt 1
	.loc 1 696 13 is_stmt 0
	lsrs	r1, r1, #1
.LVL92:
.L73:
	.loc 1 671 18 is_stmt 1
	cbz	r1, .L90
	.loc 1 674 7
	.loc 1 674 44 is_stmt 0
	ldr	r8, [ip]
	.loc 1 674 54
	ldr	r3, [r8, #56]
	.loc 1 674 86
	movs	r7, #31
	lsls	r7, r7, r2
	.loc 1 674 63
	bic	r3, r3, r7
	.loc 1 674 130
	lsl	r7, r0, r2
	.loc 1 674 112
	orrs	r3, r3, r7
	.loc 1 674 32
	str	r3, [r8, #56]
	.loc 1 680 7 is_stmt 1
	.loc 1 680 62 is_stmt 0
	ldr	r3, .L91
	ldr	r3, [r3]
	lsrs	r3, r3, #6
	ldr	r7, .L91+4
	umull	r7, r3, r7, r3
	lsrs	r3, r3, #6
	.loc 1 680 42
	adds	r3, r3, #1
	add	r3, r3, r3, lsl #2
	.loc 1 680 23
	str	r3, [sp, #4]
	.loc 1 681 7 is_stmt 1
	.loc 1 681 13 is_stmt 0
	b	.L74
.L89:
	.loc 1 689 9 is_stmt 1
	.loc 1 689 23 is_stmt 0
	subs	r0, r0, r1
.LVL93:
	b	.L77
.L90:
	.loc 1 702 5 is_stmt 1
	.loc 1 702 42 is_stmt 0
	ldr	r8, [ip]
	.loc 1 702 52
	ldr	r3, [r8, #56]
	.loc 1 702 84
	movs	r7, #31
	lsls	r7, r7, r2
	.loc 1 702 64
	mvns	r1, r7
.LVL94:
	.loc 1 702 61
	bic	r3, r3, r7
	.loc 1 702 128
	lsl	r7, r0, r2
	.loc 1 702 110
	orrs	r3, r3, r7
	.loc 1 702 30
	str	r3, [r8, #56]
	.loc 1 708 5 is_stmt 1
	.loc 1 708 60 is_stmt 0
	ldr	r3, .L91
	ldr	r3, [r3]
	lsrs	r3, r3, #6
	ldr	r7, .L91+4
	umull	r7, r3, r7, r3
	lsrs	r3, r3, #6
	.loc 1 708 40
	adds	r3, r3, #1
	add	r3, r3, r3, lsl #2
	.loc 1 708 21
	str	r3, [sp, #4]
	.loc 1 709 5 is_stmt 1
	.loc 1 709 11 is_stmt 0
	b	.L79
.L80:
	.loc 1 711 7 is_stmt 1
	.loc 1 711 22 is_stmt 0
	ldr	r3, [sp, #4]
	subs	r3, r3, #1
	str	r3, [sp, #4]
.L79:
	.loc 1 709 28 is_stmt 1
	ldr	r3, [sp, #4]
	cmp	r3, #0
	bne	.L80
	.loc 1 714 5
	.loc 1 714 14 is_stmt 0
	ldr	r7, [ip]
	.loc 1 714 24
	ldr	r3, [r7, #52]
	.loc 1 714 8
	tst	lr, r3
	bne	.L81
	.loc 1 717 7 is_stmt 1
	.loc 1 717 20 is_stmt 0
	adds	r0, r0, #1
.LVL95:
	.loc 1 719 7 is_stmt 1
	.loc 1 719 54 is_stmt 0
	ldr	r3, [r7, #56]
	.loc 1 719 63
	ands	r3, r3, r1
	.loc 1 719 130
	lsl	r2, r0, r2
	.loc 1 719 112
	orrs	r3, r3, r2
	.loc 1 719 32
	str	r3, [r7, #56]
.L81:
	.loc 1 724 5 is_stmt 1
	.loc 1 724 12 is_stmt 0
	ldr	r2, [ip]
	.loc 1 724 22
	ldr	r3, [r2]
	.loc 1 724 29
	bic	r3, r3, lr
	str	r3, [r2]
	.loc 1 726 5 is_stmt 1
	.loc 1 726 32 is_stmt 0
	str	r0, [r5, #20]
	.loc 1 727 5 is_stmt 1
	.loc 1 727 31 is_stmt 0
	movs	r3, #1
	str	r3, [r5, #16]
	.loc 1 730 5 is_stmt 1
	.loc 1 730 42 is_stmt 0
	ldr	r3, [ip]
	.loc 1 730 52
	ldr	r2, [r3, #60]
	.loc 1 730 61
	ands	r4, r4, r2
	.loc 1 730 109
	orrs	r4, r4, r6
	.loc 1 730 30
	str	r4, [r3, #60]
	.loc 1 733 5 is_stmt 1
	.loc 1 733 9
	.loc 1 733 22 is_stmt 0
	movs	r0, #0
.LVL96:
	strb	r0, [ip, #5]
.LVL97:
.L72:
	.loc 1 737 1
	add	sp, sp, #8
	.cfi_def_cfa_offset 24
	@ sp needed
	pop	{r4, r5, r6, r7, r8, pc}
.LVL98:
.L82:
	.cfi_def_cfa_offset 0
	.cfi_restore 4
	.cfi_restore 5
	.cfi_restore 6
	.cfi_restore 7
	.cfi_restore 8
	.cfi_restore 14
	.loc 1 643 12
	movs	r0, #1
.LVL99:
	.loc 1 737 1
	bx	lr
.LVL100:
.L83:
	.cfi_def_cfa_offset 32
	.cfi_offset 4, -24
	.cfi_offset 5, -20
	.cfi_offset 6, -16
	.cfi_offset 7, -12
	.cfi_offset 8, -8
	.cfi_offset 14, -4
	.loc 1 647 12
	movs	r0, #1
.LVL101:
	b	.L72
.LVL102:
.L84:
	.loc 1 652 49
	movs	r0, #2
.LVL103:
	b	.L72
.L92:
	.align	2
.L91:
	.word	SystemCoreClock
	.word	87960931
	.cfi_endproc
.LFE346:
	.size	HAL_DACEx_SelfCalibrate, .-HAL_DACEx_SelfCalibrate
	.section	.text.HAL_DACEx_SetUserTrimming,"ax",%progbits
	.align	1
	.global	HAL_DACEx_SetUserTrimming
	.syntax unified
	.thumb
	.thumb_func
	.type	HAL_DACEx_SetUserTrimming, %function
HAL_DACEx_SetUserTrimming:
.LFB347:
	.loc 1 753 1 is_stmt 1
	.cfi_startproc
	@ args = 0, pretend = 0, frame = 0
	@ frame_needed = 0, uses_anonymous_args = 0
.LVL104:
	.loc 1 754 3
	.loc 1 757 3
	.loc 1 758 3
	.loc 1 761 3
	.loc 1 761 6 is_stmt 0
	cmp	r1, #0
	it	ne
	cmpne	r0, #0
	beq	.L95
	.loc 1 753 1
	push	{r4, r5, lr}
	.cfi_def_cfa_offset 12
	.cfi_offset 4, -12
	.cfi_offset 5, -8
	.cfi_offset 14, -4
	mov	ip, r0
	mov	lr, r1
	.loc 1 768 5 is_stmt 1
	.loc 1 768 9
	.loc 1 768 18 is_stmt 0
	ldrb	r1, [r0, #5]	@ zero_extendqisi2
.LVL105:
	.loc 1 768 11
	cmp	r1, #1
	beq	.L96
	.loc 1 768 68 is_stmt 1 discriminator 2
	.loc 1 768 81 is_stmt 0 discriminator 2
	movs	r4, #1
	strb	r4, [r0, #5]
	.loc 1 768 7 is_stmt 1 discriminator 2
	.loc 1 771 5 discriminator 2
	.loc 1 771 42 is_stmt 0 discriminator 2
	ldr	r5, [r0]
	.loc 1 771 52 discriminator 2
	ldr	r1, [r5, #56]
	.loc 1 771 96 discriminator 2
	and	r2, r2, #16
.LVL106:
	.loc 1 771 84 discriminator 2
	movs	r0, #31
.LVL107:
	lsls	r0, r0, r2
	.loc 1 771 61 discriminator 2
	bic	r1, r1, r0
	.loc 1 771 131 discriminator 2
	lsl	r2, r3, r2
	.loc 1 771 110 discriminator 2
	orrs	r2, r2, r1
	.loc 1 771 30 discriminator 2
	str	r2, [r5, #56]
	.loc 1 774 5 is_stmt 1 discriminator 2
	.loc 1 774 31 is_stmt 0 discriminator 2
	str	r4, [lr, #16]
	.loc 1 775 5 is_stmt 1 discriminator 2
	.loc 1 775 32 is_stmt 0 discriminator 2
	str	r3, [lr, #20]
	.loc 1 778 5 is_stmt 1 discriminator 2
	.loc 1 778 9 discriminator 2
	.loc 1 778 22 is_stmt 0 discriminator 2
	movs	r0, #0
	strb	r0, [ip, #5]
.L94:
.LVL108:
	.loc 1 781 1
	pop	{r4, r5, pc}
.LVL109:
.L95:
	.cfi_def_cfa_offset 0
	.cfi_restore 4
	.cfi_restore 5
	.cfi_restore 14
	.loc 1 763 12
	movs	r0, #1
.LVL110:
	.loc 1 781 1
	bx	lr
.LVL111:
.L96:
	.cfi_def_cfa_offset 12
	.cfi_offset 4, -12
	.cfi_offset 5, -8
	.cfi_offset 14, -4
	.loc 1 768 49
	movs	r0, #2
.LVL112:
	b	.L94
	.cfi_endproc
.LFE347:
	.size	HAL_DACEx_SetUserTrimming, .-HAL_DACEx_SetUserTrimming
	.section	.text.HAL_DACEx_GetTrimOffset,"ax",%progbits
	.align	1
	.global	HAL_DACEx_GetTrimOffset
	.syntax unified
	.thumb
	.thumb_func
	.type	HAL_DACEx_GetTrimOffset, %function
HAL_DACEx_GetTrimOffset:
.LFB348:
	.loc 1 794 1 is_stmt 1
	.cfi_startproc
	@ args = 0, pretend = 0, frame = 0
	@ frame_needed = 0, uses_anonymous_args = 0
	@ link register save eliminated.
.LVL113:
	.loc 1 796 3
	.loc 1 799 3
	.loc 1 799 16 is_stmt 0
	ldr	r3, [r0]
	.loc 1 799 26
	ldr	r0, [r3, #56]
.LVL114:
	.loc 1 799 64
	and	r1, r1, #16
.LVL115:
	.loc 1 799 52
	movs	r3, #31
	lsls	r3, r3, r1
	.loc 1 799 32
	ands	r0, r0, r3
	.loc 1 800 1
	lsrs	r0, r0, r1
	bx	lr
	.cfi_endproc
.LFE348:
	.size	HAL_DACEx_GetTrimOffset, .-HAL_DACEx_GetTrimOffset
	.section	.text.HAL_DACEx_DualGetValue,"ax",%progbits
	.align	1
	.global	HAL_DACEx_DualGetValue
	.syntax unified
	.thumb
	.thumb_func
	.type	HAL_DACEx_DualGetValue, %function
HAL_DACEx_DualGetValue:
.LFB349:
	.loc 1 828 1 is_stmt 1
	.cfi_startproc
	@ args = 0, pretend = 0, frame = 0
	@ frame_needed = 0, uses_anonymous_args = 0
	@ link register save eliminated.
.LVL116:
	.loc 1 829 3
	.loc 1 831 3
	.loc 1 831 14 is_stmt 0
	ldr	r3, [r0]
	.loc 1 831 24
	ldr	r2, [r3, #44]
.LVL117:
	.loc 1 833 3 is_stmt 1
	.loc 1 833 24 is_stmt 0
	ldr	r0, [r3, #48]
.LVL118:
	.loc 1 836 3 is_stmt 1
	.loc 1 837 1 is_stmt 0
	orr	r0, r2, r0, lsl #16
.LVL119:
	bx	lr
	.cfi_endproc
.LFE349:
	.size	HAL_DACEx_DualGetValue, .-HAL_DACEx_DualGetValue
	.text
.Letext0:
	.file 2 "m:\\noinstall\\arm-gnu-toolchain-12.2.rel1-mingw-w64-i686-arm-none-eabi\\arm-none-eabi\\include\\machine\\_default_types.h"
	.file 3 "m:\\noinstall\\arm-gnu-toolchain-12.2.rel1-mingw-w64-i686-arm-none-eabi\\arm-none-eabi\\include\\sys\\_stdint.h"
	.file 4 "D:/RTOS/Board/YD-STM32H7xxVx_ClassicV19/cmake-build-debug/_deps/stm32h7xx_cmsis_device-src/Include/stm32h743xx.h"
	.file 5 "D:/RTOS/Board/YD-STM32H7xxVx_ClassicV19/cmake-build-debug/_deps/stm32h7xx_hal_driver-src/Inc/stm32h7xx_hal_def.h"
	.file 6 "D:/RTOS/Board/YD-STM32H7xxVx_ClassicV19/cmake-build-debug/_deps/stm32h7xx_hal_driver-src/Inc/stm32h7xx_hal_dma.h"
	.file 7 "D:/RTOS/Board/YD-STM32H7xxVx_ClassicV19/cmake-build-debug/_deps/stm32h7xx_hal_driver-src/Inc/stm32h7xx_hal_dac.h"
	.file 8 "D:/RTOS/Board/YD-STM32H7xxVx_ClassicV19/cmake-build-debug/_deps/stm32h7xx_cmsis_device-src/Include/system_stm32h7xx.h"