	.cpu cortex-m7
	.arch armv7e-m
	.fpu fpv5-d16
	.eabi_attribute 28, 1
	.eabi_attribute 20, 1
	.eabi_attribute 21, 1
	.eabi_attribute 23, 3
	.eabi_attribute 24, 1
	.eabi_attribute 25, 1
	.eabi_attribute 26, 1
	.eabi_attribute 30, 1
	.eabi_attribute 34, 1
	.eabi_attribute 18, 4
	.file	"stm32h7xx_hal_rcc.c"
	.text
.Ltext0:
	.cfi_sections	.debug_frame
	.file 1 "D:/RTOS/Board/YD-STM32H7xxVx_ClassicV19/cmake-build-debug/_deps/stm32h7xx_hal_driver-src/Src/stm32h7xx_hal_rcc.c"
	.section	.text.HAL_RCC_DeInit,"ax",%progbits
	.align	1
	.global	HAL_RCC_DeInit
	.syntax unified
	.thumb
	.thumb_func
	.type	HAL_RCC_DeInit, %function
HAL_RCC_DeInit:
.LFB335:
	.loc 1 189 1
	.cfi_startproc
	@ args = 0, pretend = 0, frame = 0
	@ frame_needed = 0, uses_anonymous_args = 0
	push	{r3, r4, r5, lr}
	.cfi_def_cfa_offset 16
	.cfi_offset 3, -16
	.cfi_offset 4, -12
	.cfi_offset 5, -8
	.cfi_offset 14, -4
	.loc 1 190 3
	.loc 1 193 3
	.loc 1 193 92 is_stmt 0
	ldr	r3, .L33
	ldr	r3, [r3]
	.loc 1 193 100
	and	r3, r3, #15
	.loc 1 193 6
	cmp	r3, #6
	bhi	.L2
	.loc 1 196 5 is_stmt 1
	.loc 1 196 152 is_stmt 0
	ldr	r2, .L33
	ldr	r3, [r2]
	.loc 1 196 161
	bic	r3, r3, #15
	.loc 1 196 185
	orr	r3, r3, #7
	.loc 1 196 80
	str	r3, [r2]
	.loc 1 200 5 is_stmt 1
	.loc 1 200 77 is_stmt 0
	ldr	r3, [r2]
	.loc 1 200 85
	and	r3, r3, #15
	.loc 1 200 8
	cmp	r3, #7
	bne	.L16
.L2:
	.loc 1 209 3 is_stmt 1
	.loc 1 209 15 is_stmt 0
	bl	HAL_GetTick
.LVL0:
	mov	r4, r0
.LVL1:
	.loc 1 212 3 is_stmt 1
	.loc 1 212 67 is_stmt 0
	ldr	r2, .L33+4
	ldr	r3, [r2]
	.loc 1 212 73
	orr	r3, r3, #1
	str	r3, [r2]
	.loc 1 215 3 is_stmt 1
.LVL2:
.L4:
	.loc 1 215 101
	.loc 1 215 74 is_stmt 0
	ldr	r3, .L33+4
	ldr	r3, [r3]
	.loc 1 215 101
	tst	r3, #4
	bne	.L26
	.loc 1 217 5 is_stmt 1
	.loc 1 217 10 is_stmt 0
	bl	HAL_GetTick
.LVL3:
	.loc 1 217 24
	subs	r0, r0, r4
	.loc 1 217 8
	cmp	r0, #2
	bls	.L4
	.loc 1 219 14
	movs	r4, #3
.LVL4:
	b	.L3
.LVL5:
.L26:
	.loc 1 224 3 is_stmt 1
	.loc 1 224 67 is_stmt 0
	ldr	r3, .L33+4
	ldr	r2, [r3, #4]
	.loc 1 224 78
	orr	r2, r2, #1073741824
	str	r2, [r3, #4]
	.loc 1 227 3 is_stmt 1
	.loc 1 227 75 is_stmt 0
	movs	r2, #0
	str	r2, [r3, #16]
	.loc 1 230 3 is_stmt 1
	.loc 1 230 19 is_stmt 0
	ldr	r3, .L33+8
	ldr	r2, .L33+12
	str	r3, [r2]
	.loc 1 231 3 is_stmt 1
	.loc 1 231 17 is_stmt 0
	ldr	r2, .L33+16
	str	r3, [r2]
	.loc 1 234 3 is_stmt 1
	.loc 1 234 7 is_stmt 0
	ldr	r3, .L33+20
	ldr	r0, [r3]
	bl	HAL_InitTick
.LVL6:
	.loc 1 234 6
	mov	r4, r0
.LVL7:
	cbz	r0, .L27
	.loc 1 236 12
	movs	r4, #1
	b	.L3
.L27:
	.loc 1 240 3 is_stmt 1
	.loc 1 240 15 is_stmt 0
	bl	HAL_GetTick
.LVL8:
	mov	r5, r0
.LVL9:
	.loc 1 243 3 is_stmt 1
.L6:
	.loc 1 243 103
	.loc 1 243 74 is_stmt 0
	ldr	r3, .L33+4
	ldr	r3, [r3, #16]
	.loc 1 243 103
	tst	r3, #56
	beq	.L28
	.loc 1 245 5 is_stmt 1
	.loc 1 245 10 is_stmt 0
	bl	HAL_GetTick
.LVL10:
	.loc 1 245 24
	subs	r0, r0, r5
	.loc 1 245 8
	movw	r3, #5000
	cmp	r0, r3
	bls	.L6
	.loc 1 247 14
	movs	r4, #3
	b	.L3
.L28:
	.loc 1 252 3 is_stmt 1
	.loc 1 252 15 is_stmt 0
	bl	HAL_GetTick
.LVL11:
	mov	r5, r0
.LVL12:
	.loc 1 255 3 is_stmt 1
	.loc 1 255 67 is_stmt 0
	ldr	r2, .L33+4
	ldr	r1, [r2]
	.loc 1 255 73
	ldr	r3, .L33+24
	ands	r3, r3, r1
	str	r3, [r2]
	.loc 1 259 3 is_stmt 1
.LVL13:
.L8:
	.loc 1 259 102
	.loc 1 259 74 is_stmt 0
	ldr	r3, .L33+4
	ldr	r3, [r3]
	.loc 1 259 102
	tst	r3, #131072
	beq	.L29
	.loc 1 261 5 is_stmt 1
	.loc 1 261 10 is_stmt 0
	bl	HAL_GetTick
.LVL14:
	.loc 1 261 24
	subs	r0, r0, r5
	.loc 1 261 8
	cmp	r0, #100
	bls	.L8
	.loc 1 263 14
	movs	r4, #3
	b	.L3
.L29:
	.loc 1 268 3 is_stmt 1
	.loc 1 268 15 is_stmt 0
	bl	HAL_GetTick
.LVL15:
	mov	r5, r0
.LVL16:
	.loc 1 271 3 is_stmt 1
	.loc 1 271 67 is_stmt 0
	ldr	r2, .L33+4
	ldr	r3, [r2]
	.loc 1 271 73
	bic	r3, r3, #16777216
	str	r3, [r2]
	.loc 1 274 3 is_stmt 1
.LVL17:
.L10:
	.loc 1 274 102
	.loc 1 274 74 is_stmt 0
	ldr	r3, .L33+4
	ldr	r3, [r3]
	.loc 1 274 102
	tst	r3, #33554432
	beq	.L30
	.loc 1 276 5 is_stmt 1
	.loc 1 276 10 is_stmt 0
	bl	HAL_GetTick
.LVL18:
	.loc 1 276 24
	subs	r0, r0, r5
	.loc 1 276 8
	cmp	r0, #2
	bls	.L10
	.loc 1 278 14
	movs	r4, #3
	b	.L3
.L30:
	.loc 1 283 3 is_stmt 1
	.loc 1 283 15 is_stmt 0
	bl	HAL_GetTick
.LVL19:
	mov	r5, r0
.LVL20:
	.loc 1 286 3 is_stmt 1
	.loc 1 286 67 is_stmt 0
	ldr	r2, .L33+4
	ldr	r3, [r2]
	.loc 1 286 73
	bic	r3, r3, #67108864
	str	r3, [r2]
	.loc 1 289 3 is_stmt 1
.LVL21:
.L12:
	.loc 1 289 102
	.loc 1 289 74 is_stmt 0
	ldr	r3, .L33+4
	ldr	r3, [r3]
	.loc 1 289 102
	tst	r3, #134217728
	beq	.L31
	.loc 1 291 5 is_stmt 1
	.loc 1 291 10 is_stmt 0
	bl	HAL_GetTick
.LVL22:
	.loc 1 291 24
	subs	r0, r0, r5
	.loc 1 291 8
	cmp	r0, #2
	bls	.L12
	.loc 1 293 14
	movs	r4, #3
	b	.L3
.L31:
	.loc 1 298 3 is_stmt 1
	.loc 1 298 15 is_stmt 0
	bl	HAL_GetTick
.LVL23:
	mov	r5, r0
.LVL24:
	.loc 1 301 3 is_stmt 1
	.loc 1 301 67 is_stmt 0
	ldr	r2, .L33+4
	ldr	r3, [r2]
	.loc 1 301 73
	bic	r3, r3, #268435456
	str	r3, [r2]
	.loc 1 304 3 is_stmt 1
.LVL25:
.L14:
	.loc 1 304 102
	.loc 1 304 74 is_stmt 0
	ldr	r3, .L33+4
	ldr	r3, [r3]
	.loc 1 304 102
	tst	r3, #536870912
	beq	.L32
	.loc 1 306 5 is_stmt 1
	.loc 1 306 10 is_stmt 0
	bl	HAL_GetTick
.LVL26:
	.loc 1 306 24
	subs	r0, r0, r5
	.loc 1 306 8
	cmp	r0, #2
	bls	.L14
	.loc 1 308 14
	movs	r4, #3
	b	.L3
.L32:
	.loc 1 314 3 is_stmt 1
	.loc 1 314 77 is_stmt 0
	ldr	r3, .L33+4
	movs	r2, #0
	str	r2, [r3, #24]
	.loc 1 317 3 is_stmt 1
	.loc 1 317 77 is_stmt 0
	str	r2, [r3, #28]
	.loc 1 320 3 is_stmt 1
	.loc 1 320 77 is_stmt 0
	str	r2, [r3, #32]
	.loc 1 333 3 is_stmt 1
	.loc 1 333 77 is_stmt 0
	ldr	r1, .L33+28
	str	r1, [r3, #40]
	.loc 1 336 3 is_stmt 1
	.loc 1 336 78 is_stmt 0
	ldr	r1, .L33+32
	str	r1, [r3, #44]
	.loc 1 339 3 is_stmt 1
	.loc 1 339 79 is_stmt 0
	ldr	r1, .L33+36
	str	r1, [r3, #48]
	.loc 1 342 3 is_stmt 1
	.loc 1 342 80 is_stmt 0
	str	r2, [r3, #52]
	.loc 1 345 3 is_stmt 1
	.loc 1 345 79 is_stmt 0
	str	r1, [r3, #56]
	.loc 1 348 3 is_stmt 1
	.loc 1 348 80 is_stmt 0
	str	r2, [r3, #60]
	.loc 1 351 3 is_stmt 1
	.loc 1 351 79 is_stmt 0
	str	r1, [r3, #64]
	.loc 1 354 3 is_stmt 1
	.loc 1 354 80 is_stmt 0
	str	r2, [r3, #68]
	.loc 1 362 3 is_stmt 1
	.loc 1 362 67 is_stmt 0
	ldr	r1, [r3]
	.loc 1 362 73
	bic	r1, r1, #262144
	str	r1, [r3]
	.loc 1 365 3 is_stmt 1
	.loc 1 365 75 is_stmt 0
	str	r2, [r3, #96]
	.loc 1 368 3 is_stmt 1
	.loc 1 368 75 is_stmt 0
	mov	r2, #-1
	str	r2, [r3, #104]
	.loc 1 371 3 is_stmt 1
	.loc 1 371 67 is_stmt 0
	ldr	r2, [r3, #208]
	.loc 1 371 74
	orr	r2, r2, #65536
	str	r2, [r3, #208]
	.loc 1 374 3 is_stmt 1
	.loc 1 374 92 is_stmt 0
	ldr	r3, .L33
	ldr	r3, [r3]
	.loc 1 374 6
	tst	r3, #8
	beq	.L3
	.loc 1 377 5 is_stmt 1
	.loc 1 377 152 is_stmt 0
	ldr	r2, .L33
	ldr	r3, [r2]
	.loc 1 377 161
	bic	r3, r3, #15
	.loc 1 377 185
	orr	r3, r3, #7
	.loc 1 377 80
	str	r3, [r2]
	.loc 1 381 5 is_stmt 1
	.loc 1 381 77 is_stmt 0
	ldr	r3, [r2]
	.loc 1 381 85
	and	r3, r3, #15
	.loc 1 381 8
	cmp	r3, #7
	beq	.L3
	.loc 1 383 14
	movs	r4, #1
	b	.L3
.LVL27:
.L16:
	.loc 1 202 14
	movs	r4, #1
.L3:
	.loc 1 389 1
	mov	r0, r4
	pop	{r3, r4, r5, pc}
.L34:
	.align	2
.L33:
	.word	1375739904
	.word	1476543488
	.word	64000000
	.word	SystemCoreClock
	.word	SystemD2Clock
	.word	uwTickPrio
	.word	-594619
	.word	33686016
	.word	33488896
	.word	16843392
	.cfi_endproc
.LFE335:
	.size	HAL_RCC_DeInit, .-HAL_RCC_DeInit
	.section	.text.HAL_RCC_OscConfig,"ax",%progbits
	.align	1
	.weak	HAL_RCC_OscConfig
	.syntax unified
	.thumb
	.thumb_func
	.type	HAL_RCC_OscConfig, %function
HAL_RCC_OscConfig:
.LFB336:
	.loc 1 406 1 is_stmt 1
	.cfi_startproc
	@ args = 0, pretend = 0, frame = 0
	@ frame_needed = 0, uses_anonymous_args = 0
.LVL28:
	.loc 1 407 3
	.loc 1 408 3
	.loc 1 411 3
	.loc 1 411 6 is_stmt 0
	cmp	r0, #0
	beq	.L110
	.loc 1 406 1
	push	{r3, r4, r5, lr}
	.cfi_def_cfa_offset 16
	.cfi_offset 3, -16
	.cfi_offset 4, -12
	.cfi_offset 5, -8
	.cfi_offset 14, -4
	mov	r4, r0
	.loc 1 417 3 is_stmt 1
	.loc 1 419 3
	.loc 1 419 26 is_stmt 0
	ldr	r3, [r0]
	.loc 1 419 6
	tst	r3, #1
	beq	.L37
.LBB2:
	.loc 1 422 5 is_stmt 1
	.loc 1 424 5
	.loc 1 424 111 is_stmt 0
	ldr	r2, .L166
	ldr	r3, [r2, #16]
	.loc 1 424 20
	and	r3, r3, #56
.LVL29:
	.loc 1 425 5 is_stmt 1
	.loc 1 425 20 is_stmt 0
	ldr	r2, [r2, #40]
.LVL30:
	.loc 1 427 5 is_stmt 1
	.loc 1 427 8 is_stmt 0
	cmp	r3, #16
	beq	.L38
	.loc 1 427 44 discriminator 1
	cmp	r3, #24
	beq	.L144
.LVL31:
.L39:
	.loc 1 437 7 is_stmt 1
	.loc 1 437 12
	.loc 1 437 34 is_stmt 0
	ldr	r3, [r4, #4]
.LVL32:
	.loc 1 437 15
	cmp	r3, #65536
	beq	.L145
	.loc 1 437 170 is_stmt 1 discriminator 2
	.loc 1 437 173 is_stmt 0 discriminator 2
	cmp	r3, #0
	bne	.L42
	.loc 1 437 224 is_stmt 1 discriminator 4
	.loc 1 437 288 is_stmt 0 discriminator 4
	ldr	r3, .L166
	ldr	r2, [r3]
	.loc 1 437 294 discriminator 4
	bic	r2, r2, #65536
	str	r2, [r3]
	.loc 1 437 319 is_stmt 1 discriminator 4
	.loc 1 437 383 is_stmt 0 discriminator 4
	ldr	r2, [r3]
	.loc 1 437 389 discriminator 4
	bic	r2, r2, #262144
	str	r2, [r3]
	b	.L41
.LVL33:
.L144:
	.loc 1 427 103 discriminator 2
	and	r2, r2, #3
.LVL34:
	.loc 1 427 83 discriminator 2
	cmp	r2, #2
	bne	.L39
.L38:
	.loc 1 429 7 is_stmt 1
	.loc 1 429 113 is_stmt 0
	ldr	r3, .L166
.LVL35:
	ldr	r3, [r3]
	.loc 1 429 10
	tst	r3, #131072
	beq	.L37
	.loc 1 429 605 discriminator 1
	ldr	r3, [r4, #4]
	.loc 1 429 584 discriminator 1
	cmp	r3, #0
	beq	.L146
.LVL36:
.L37:
.LBE2:
	.loc 1 471 3 is_stmt 1
	.loc 1 471 26 is_stmt 0
	ldr	r3, [r4]
	.loc 1 471 6
	tst	r3, #2
	beq	.L49
.LBB3:
	.loc 1 474 5 is_stmt 1
	.loc 1 475 5
	.loc 1 478 5
	.loc 1 478 111 is_stmt 0
	ldr	r2, .L166
	ldr	r3, [r2, #16]
.LVL37:
	.loc 1 479 5 is_stmt 1
	.loc 1 479 20 is_stmt 0
	ldr	r2, [r2, #40]
.LVL38:
	.loc 1 480 5 is_stmt 1
	.loc 1 480 8 is_stmt 0
	ands	r3, r3, #56
.LVL39:
	beq	.L50
	.loc 1 480 44 discriminator 1
	cmp	r3, #24
	beq	.L147
.L51:
	.loc 1 512 7 is_stmt 1
	.loc 1 512 29 is_stmt 0
	ldr	r3, [r4, #12]
.LVL40:
	.loc 1 512 10
	cmp	r3, #0
	beq	.L57
	.loc 1 515 9 is_stmt 1
	.loc 1 515 151 is_stmt 0
	ldr	r1, .L166
	ldr	r2, [r1]
.LVL41:
	.loc 1 515 159
	bic	r2, r2, #25
	.loc 1 515 201
	orrs	r3, r3, r2
	.loc 1 515 81
	str	r3, [r1]
	.loc 1 518 9 is_stmt 1
	.loc 1 518 21 is_stmt 0
	bl	HAL_GetTick
.LVL42:
	mov	r5, r0
.LVL43:
	.loc 1 521 9 is_stmt 1
.L58:
	.loc 1 521 581
	.loc 1 521 117 is_stmt 0
	ldr	r3, .L166
	ldr	r3, [r3]
	.loc 1 521 581
	tst	r3, #4
	bne	.L148
	.loc 1 523 11 is_stmt 1
	.loc 1 523 16 is_stmt 0
	bl	HAL_GetTick
.LVL44:
	.loc 1 523 30
	subs	r0, r0, r5
	.loc 1 523 14
	cmp	r0, #2
	bls	.L58
	.loc 1 525 20
	movs	r0, #3
	b	.L36
.LVL45:
.L145:
.LBE3:
.LBB4:
	.loc 1 437 69 is_stmt 1 discriminator 1
	.loc 1 437 133 is_stmt 0 discriminator 1
	ldr	r2, .L166
	ldr	r3, [r2]
	.loc 1 437 139 discriminator 1
	orr	r3, r3, #65536
	str	r3, [r2]
.L41:
	.loc 1 437 10 is_stmt 1 discriminator 10
	.loc 1 440 7 discriminator 10
	.loc 1 440 28 is_stmt 0 discriminator 10
	ldr	r3, [r4, #4]
	.loc 1 440 10 discriminator 10
	cbz	r3, .L44
	.loc 1 443 9 is_stmt 1
	.loc 1 443 21 is_stmt 0
	bl	HAL_GetTick
.LVL46:
	mov	r5, r0
.LVL47:
	.loc 1 446 9 is_stmt 1
.L45:
	.loc 1 446 581
	.loc 1 446 117 is_stmt 0
	ldr	r3, .L166
	ldr	r3, [r3]
	.loc 1 446 581
	tst	r3, #131072
	bne	.L37
	.loc 1 448 11 is_stmt 1
	.loc 1 448 26 is_stmt 0
	bl	HAL_GetTick
.LVL48:
	.loc 1 448 40
	subs	r0, r0, r5
	.loc 1 448 14
	cmp	r0, #100
	bls	.L45
	.loc 1 450 20
	movs	r0, #3
	b	.L36
.LVL49:
.L42:
	.loc 1 437 421 is_stmt 1 discriminator 5
	.loc 1 437 424 is_stmt 0 discriminator 5
	cmp	r3, #327680
	beq	.L149
	.loc 1 437 708 is_stmt 1 discriminator 8
	.loc 1 437 772 is_stmt 0 discriminator 8
	ldr	r3, .L166
	ldr	r2, [r3]
	.loc 1 437 778 discriminator 8
	bic	r2, r2, #65536
	str	r2, [r3]
	.loc 1 437 803 is_stmt 1 discriminator 8
	.loc 1 437 867 is_stmt 0 discriminator 8
	ldr	r2, [r3]
	.loc 1 437 873 discriminator 8
	bic	r2, r2, #262144
	str	r2, [r3]
	b	.L41
.L149:
	.loc 1 437 511 is_stmt 1 discriminator 7
	.loc 1 437 575 is_stmt 0 discriminator 7
	ldr	r3, .L166
	ldr	r2, [r3]
	.loc 1 437 581 discriminator 7
	orr	r2, r2, #262144
	str	r2, [r3]
	.loc 1 437 605 is_stmt 1 discriminator 7
	.loc 1 437 669 is_stmt 0 discriminator 7
	ldr	r2, [r3]
	.loc 1 437 675 discriminator 7
	orr	r2, r2, #65536
	str	r2, [r3]
	b	.L41
.L44:
	.loc 1 457 9 is_stmt 1
	.loc 1 457 21 is_stmt 0
	bl	HAL_GetTick
.LVL50:
	mov	r5, r0
.LVL51:
	.loc 1 460 9 is_stmt 1
.L47:
	.loc 1 460 581
	.loc 1 460 117 is_stmt 0
	ldr	r3, .L166
	ldr	r3, [r3]
	.loc 1 460 581
	tst	r3, #131072
	beq	.L37
	.loc 1 462 11 is_stmt 1
	.loc 1 462 26 is_stmt 0
	bl	HAL_GetTick
.LVL52:
	.loc 1 462 40
	subs	r0, r0, r5
	.loc 1 462 14
	cmp	r0, #100
	bls	.L47
	.loc 1 464 20
	movs	r0, #3
	b	.L36
.LVL53:
.L147:
.LBE4:
.LBB5:
	.loc 1 480 83 discriminator 2
	tst	r2, #3
	bne	.L51
.L50:
	.loc 1 483 7 is_stmt 1
	.loc 1 483 113 is_stmt 0
	ldr	r3, .L166
.LVL54:
	ldr	r3, [r3]
	.loc 1 483 10
	tst	r3, #4
	beq	.L52
	.loc 1 483 605 discriminator 1
	ldr	r3, [r4, #12]
	.loc 1 483 584 discriminator 1
	cmp	r3, #0
	beq	.L114
.L52:
	.loc 1 491 9 is_stmt 1
	.loc 1 491 151 is_stmt 0
	ldr	r2, .L166
.LVL55:
	ldr	r3, [r2]
	.loc 1 491 159
	bic	r3, r3, #25
	.loc 1 491 232
	ldr	r1, [r4, #12]
	.loc 1 491 201
	orrs	r3, r3, r1
	.loc 1 491 81
	str	r3, [r2]
	.loc 1 494 9 is_stmt 1
	.loc 1 494 21 is_stmt 0
	bl	HAL_GetTick
.LVL56:
	mov	r5, r0
.LVL57:
	.loc 1 497 9 is_stmt 1
.L53:
	.loc 1 497 581
	.loc 1 497 117 is_stmt 0
	ldr	r3, .L166
	ldr	r3, [r3]
	.loc 1 497 581
	tst	r3, #4
	bne	.L150
	.loc 1 499 11 is_stmt 1
	.loc 1 499 26 is_stmt 0
	bl	HAL_GetTick
.LVL58:
	.loc 1 499 40
	subs	r0, r0, r5
	.loc 1 499 14
	cmp	r0, #2
	bls	.L53
	.loc 1 501 20
	movs	r0, #3
	b	.L36
.L150:
	.loc 1 505 9 is_stmt 1
	.loc 1 505 14
	.loc 1 505 17 is_stmt 0
	bl	HAL_GetREVID
.LVL59:
	.loc 1 505 16
	movw	r3, #4099
	cmp	r0, r3
	bhi	.L55
	.loc 1 505 57 is_stmt 1 discriminator 1
	.loc 1 505 78 is_stmt 0 discriminator 1
	ldr	r2, [r4, #16]
	.loc 1 505 59 discriminator 1
	cmp	r2, #64
	beq	.L151
	.loc 1 505 337 is_stmt 1 discriminator 4
	.loc 1 505 484 is_stmt 0 discriminator 4
	ldr	r1, .L166
	ldr	r3, [r1, #4]
	.loc 1 505 497 discriminator 4
	bic	r3, r3, #258048
	.loc 1 505 516 discriminator 4
	orr	r3, r3, r2, lsl #12
	.loc 1 505 414 discriminator 4
	str	r3, [r1, #4]
	b	.L49
.L151:
	.loc 1 505 115 is_stmt 1 discriminator 3
	.loc 1 505 262 is_stmt 0 discriminator 3
	ldr	r2, .L166
	ldr	r3, [r2, #4]
	.loc 1 505 275 discriminator 3
	bic	r3, r3, #258048
	.loc 1 505 294 discriminator 3
	orr	r3, r3, #131072
	.loc 1 505 192 discriminator 3
	str	r3, [r2, #4]
	b	.L49
.L55:
	.loc 1 505 595 is_stmt 1 discriminator 2
	.loc 1 505 742 is_stmt 0 discriminator 2
	ldr	r2, .L166
	ldr	r3, [r2, #4]
	.loc 1 505 755 discriminator 2
	bic	r3, r3, #2130706432
	.loc 1 505 812 discriminator 2
	ldr	r1, [r4, #16]
	.loc 1 505 781 discriminator 2
	orr	r3, r3, r1, lsl #24
	.loc 1 505 672 discriminator 2
	str	r3, [r2, #4]
.LVL60:
.L49:
.LBE5:
	.loc 1 552 3 is_stmt 1
	.loc 1 552 26 is_stmt 0
	ldr	r3, [r4]
	.loc 1 552 6
	tst	r3, #16
	beq	.L64
.LBB6:
	.loc 1 555 5 is_stmt 1
	.loc 1 556 5
	.loc 1 559 5
	.loc 1 559 111 is_stmt 0
	ldr	r2, .L166
	ldr	r3, [r2, #16]
	.loc 1 559 20
	and	r3, r3, #56
.LVL61:
	.loc 1 560 5 is_stmt 1
	.loc 1 560 20 is_stmt 0
	ldr	r2, [r2, #40]
.LVL62:
	.loc 1 561 5 is_stmt 1
	.loc 1 561 8 is_stmt 0
	cmp	r3, #8
	beq	.L65
	.loc 1 561 44 discriminator 1
	cmp	r3, #24
	beq	.L152
.LVL63:
.L66:
	.loc 1 578 7 is_stmt 1
	.loc 1 578 29 is_stmt 0
	ldr	r3, [r4, #28]
.LVL64:
	.loc 1 578 10
	cmp	r3, #0
	beq	.L70
	.loc 1 581 9 is_stmt 1
	.loc 1 581 73 is_stmt 0
	ldr	r2, .L166
	ldr	r3, [r2]
	.loc 1 581 79
	orr	r3, r3, #128
	str	r3, [r2]
	.loc 1 584 9 is_stmt 1
	.loc 1 584 21 is_stmt 0
	bl	HAL_GetTick
.LVL65:
	mov	r5, r0
.LVL66:
	.loc 1 587 9 is_stmt 1
.L71:
	.loc 1 587 581
	.loc 1 587 117 is_stmt 0
	ldr	r3, .L166
	ldr	r3, [r3]
	.loc 1 587 581
	tst	r3, #256
	bne	.L153
	.loc 1 589 11 is_stmt 1
	.loc 1 589 16 is_stmt 0
	bl	HAL_GetTick
.LVL67:
	.loc 1 589 30
	subs	r0, r0, r5
	.loc 1 589 14
	cmp	r0, #2
	bls	.L71
	.loc 1 591 20
	movs	r0, #3
	b	.L36
.LVL68:
.L148:
.LBE6:
.LBB7:
	.loc 1 530 9 is_stmt 1
	.loc 1 530 14
	.loc 1 530 17 is_stmt 0
	bl	HAL_GetREVID
.LVL69:
	.loc 1 530 16
	movw	r3, #4099
	cmp	r0, r3
	bhi	.L60
	.loc 1 530 57 is_stmt 1 discriminator 1
	.loc 1 530 78 is_stmt 0 discriminator 1
	ldr	r2, [r4, #16]
	.loc 1 530 59 discriminator 1
	cmp	r2, #64
	beq	.L154
	.loc 1 530 337 is_stmt 1 discriminator 4
	.loc 1 530 484 is_stmt 0 discriminator 4
	ldr	r1, .L166
	ldr	r3, [r1, #4]
	.loc 1 530 497 discriminator 4
	bic	r3, r3, #258048
	.loc 1 530 516 discriminator 4
	orr	r3, r3, r2, lsl #12
	.loc 1 530 414 discriminator 4
	str	r3, [r1, #4]
	b	.L49
.L154:
	.loc 1 530 115 is_stmt 1 discriminator 3
	.loc 1 530 262 is_stmt 0 discriminator 3
	ldr	r2, .L166
	ldr	r3, [r2, #4]
	.loc 1 530 275 discriminator 3
	bic	r3, r3, #258048
	.loc 1 530 294 discriminator 3
	orr	r3, r3, #131072
	.loc 1 530 192 discriminator 3
	str	r3, [r2, #4]
	b	.L49
.L60:
	.loc 1 530 595 is_stmt 1 discriminator 2
	.loc 1 530 742 is_stmt 0 discriminator 2
	ldr	r2, .L166
	ldr	r3, [r2, #4]
	.loc 1 530 755 discriminator 2
	bic	r3, r3, #2130706432
	.loc 1 530 812 discriminator 2
	ldr	r1, [r4, #16]
	.loc 1 530 781 discriminator 2
	orr	r3, r3, r1, lsl #24
	.loc 1 530 672 discriminator 2
	str	r3, [r2, #4]
	b	.L49
.LVL70:
.L57:
	.loc 1 535 9 is_stmt 1
	.loc 1 535 73 is_stmt 0
	ldr	r2, .L166
.LVL71:
	ldr	r3, [r2]
	.loc 1 535 79
	bic	r3, r3, #1
	str	r3, [r2]
	.loc 1 538 9 is_stmt 1
	.loc 1 538 21 is_stmt 0
	bl	HAL_GetTick
.LVL72:
	mov	r5, r0
.LVL73:
	.loc 1 541 9 is_stmt 1
.L62:
	.loc 1 541 581
	.loc 1 541 117 is_stmt 0
	ldr	r3, .L166
	ldr	r3, [r3]
	.loc 1 541 581
	tst	r3, #4
	beq	.L49
	.loc 1 543 11 is_stmt 1
	.loc 1 543 16 is_stmt 0
	bl	HAL_GetTick
.LVL74:
	.loc 1 543 30
	subs	r0, r0, r5
	.loc 1 543 14
	cmp	r0, #2
	bls	.L62
	.loc 1 545 20
	movs	r0, #3
	b	.L36
.L167:
	.align	2
.L166:
	.word	1476543488
.LVL75:
.L152:
.LBE7:
.LBB8:
	.loc 1 561 103 discriminator 2
	and	r2, r2, #3
.LVL76:
	.loc 1 561 83 discriminator 2
	cmp	r2, #1
	bne	.L66
.L65:
	.loc 1 564 7 is_stmt 1
	.loc 1 564 113 is_stmt 0
	ldr	r3, .L168
.LVL77:
	ldr	r3, [r3]
	.loc 1 564 10
	tst	r3, #256
	beq	.L67
	.loc 1 564 605 discriminator 1
	ldr	r3, [r4, #28]
	.loc 1 564 584 discriminator 1
	cmp	r3, #128
	bne	.L118
.L67:
	.loc 1 572 9 is_stmt 1
	.loc 1 572 14
	.loc 1 572 17 is_stmt 0
	bl	HAL_GetREVID
.LVL78:
	.loc 1 572 16
	movw	r3, #4099
	cmp	r0, r3
	bhi	.L68
	.loc 1 572 57 is_stmt 1 discriminator 1
	.loc 1 572 78 is_stmt 0 discriminator 1
	ldr	r2, [r4, #32]
	.loc 1 572 59 discriminator 1
	cmp	r2, #32
	beq	.L155
	.loc 1 572 340 is_stmt 1 discriminator 4
	.loc 1 572 487 is_stmt 0 discriminator 4
	ldr	r1, .L168
	ldr	r3, [r1, #4]
	.loc 1 572 500 discriminator 4
	bic	r3, r3, #2080374784
	.loc 1 572 522 discriminator 4
	orr	r3, r3, r2, lsl #26
	.loc 1 572 417 discriminator 4
	str	r3, [r1, #4]
	b	.L64
.L155:
	.loc 1 572 115 is_stmt 1 discriminator 3
	.loc 1 572 262 is_stmt 0 discriminator 3
	ldr	r2, .L168
	ldr	r3, [r2, #4]
	.loc 1 572 275 discriminator 3
	bic	r3, r3, #2080374784
	.loc 1 572 297 discriminator 3
	orr	r3, r3, #1073741824
	.loc 1 572 192 discriminator 3
	str	r3, [r2, #4]
	b	.L64
.L68:
	.loc 1 572 601 is_stmt 1 discriminator 2
	.loc 1 572 748 is_stmt 0 discriminator 2
	ldr	r2, .L168
	ldr	r3, [r2, #12]
	.loc 1 572 761 discriminator 2
	bic	r3, r3, #1056964608
	.loc 1 572 818 discriminator 2
	ldr	r1, [r4, #32]
	.loc 1 572 787 discriminator 2
	orr	r3, r3, r1, lsl #24
	.loc 1 572 678 discriminator 2
	str	r3, [r2, #12]
.LVL79:
.L64:
.LBE8:
	.loc 1 618 3 is_stmt 1
	.loc 1 618 26 is_stmt 0
	ldr	r3, [r4]
	.loc 1 618 6
	tst	r3, #8
	beq	.L77
	.loc 1 621 5 is_stmt 1
	.loc 1 624 5
	.loc 1 624 27 is_stmt 0
	ldr	r3, [r4, #20]
	.loc 1 624 8
	cmp	r3, #0
	beq	.L78
	.loc 1 627 7 is_stmt 1
	.loc 1 627 71 is_stmt 0
	ldr	r2, .L168
	ldr	r3, [r2, #116]
	.loc 1 627 78
	orr	r3, r3, #1
	str	r3, [r2, #116]
	.loc 1 630 7 is_stmt 1
	.loc 1 630 19 is_stmt 0
	bl	HAL_GetTick
.LVL80:
	mov	r5, r0
.LVL81:
	.loc 1 633 7 is_stmt 1
.L79:
	.loc 1 633 579
	.loc 1 633 327 is_stmt 0
	ldr	r3, .L168
	ldr	r3, [r3, #116]
	.loc 1 633 579
	tst	r3, #2
	bne	.L77
	.loc 1 635 9 is_stmt 1
	.loc 1 635 14 is_stmt 0
	bl	HAL_GetTick
.LVL82:
	.loc 1 635 28
	subs	r0, r0, r5
	.loc 1 635 12
	cmp	r0, #2
	bls	.L79
	.loc 1 637 18
	movs	r0, #3
	b	.L36
.LVL83:
.L153:
.LBB9:
	.loc 1 596 9 is_stmt 1
	.loc 1 596 14
	.loc 1 596 17 is_stmt 0
	bl	HAL_GetREVID
.LVL84:
	.loc 1 596 16
	movw	r3, #4099
	cmp	r0, r3
	bhi	.L73
	.loc 1 596 57 is_stmt 1 discriminator 1
	.loc 1 596 78 is_stmt 0 discriminator 1
	ldr	r2, [r4, #32]
	.loc 1 596 59 discriminator 1
	cmp	r2, #32
	beq	.L156
	.loc 1 596 340 is_stmt 1 discriminator 4
	.loc 1 596 487 is_stmt 0 discriminator 4
	ldr	r1, .L168
	ldr	r3, [r1, #4]
	.loc 1 596 500 discriminator 4
	bic	r3, r3, #2080374784
	.loc 1 596 522 discriminator 4
	orr	r3, r3, r2, lsl #26
	.loc 1 596 417 discriminator 4
	str	r3, [r1, #4]
	b	.L64
.L156:
	.loc 1 596 115 is_stmt 1 discriminator 3
	.loc 1 596 262 is_stmt 0 discriminator 3
	ldr	r2, .L168
	ldr	r3, [r2, #4]
	.loc 1 596 275 discriminator 3
	bic	r3, r3, #2080374784
	.loc 1 596 297 discriminator 3
	orr	r3, r3, #1073741824
	.loc 1 596 192 discriminator 3
	str	r3, [r2, #4]
	b	.L64
.L73:
	.loc 1 596 601 is_stmt 1 discriminator 2
	.loc 1 596 748 is_stmt 0 discriminator 2
	ldr	r2, .L168
	ldr	r3, [r2, #12]
	.loc 1 596 761 discriminator 2
	bic	r3, r3, #1056964608
	.loc 1 596 818 discriminator 2
	ldr	r1, [r4, #32]
	.loc 1 596 787 discriminator 2
	orr	r3, r3, r1, lsl #24
	.loc 1 596 678 discriminator 2
	str	r3, [r2, #12]
	b	.L64
.LVL85:
.L70:
	.loc 1 601 9 is_stmt 1
	.loc 1 601 73 is_stmt 0
	ldr	r2, .L168
	ldr	r3, [r2]
	.loc 1 601 79
	bic	r3, r3, #128
	str	r3, [r2]
	.loc 1 604 9 is_stmt 1
	.loc 1 604 21 is_stmt 0
	bl	HAL_GetTick
.LVL86:
	mov	r5, r0
.LVL87:
	.loc 1 607 9 is_stmt 1
.L75:
	.loc 1 607 581
	.loc 1 607 117 is_stmt 0
	ldr	r3, .L168
	ldr	r3, [r3]
	.loc 1 607 581
	tst	r3, #256
	beq	.L64
	.loc 1 609 11 is_stmt 1
	.loc 1 609 16 is_stmt 0
	bl	HAL_GetTick
.LVL88:
	.loc 1 609 30
	subs	r0, r0, r5
	.loc 1 609 14
	cmp	r0, #2
	bls	.L75
	.loc 1 611 20
	movs	r0, #3
	b	.L36
.LVL89:
.L78:
.LBE9:
	.loc 1 644 7 is_stmt 1
	.loc 1 644 71 is_stmt 0
	ldr	r2, .L168
	ldr	r3, [r2, #116]
	.loc 1 644 78
	bic	r3, r3, #1
	str	r3, [r2, #116]
	.loc 1 647 7 is_stmt 1
	.loc 1 647 19 is_stmt 0
	bl	HAL_GetTick
.LVL90:
	mov	r5, r0
.LVL91:
	.loc 1 650 7 is_stmt 1
.L81:
	.loc 1 650 579
	.loc 1 650 327 is_stmt 0
	ldr	r3, .L168
	ldr	r3, [r3, #116]
	.loc 1 650 579
	tst	r3, #2
	beq	.L77
	.loc 1 652 9 is_stmt 1
	.loc 1 652 14 is_stmt 0
	bl	HAL_GetTick
.LVL92:
	.loc 1 652 28
	subs	r0, r0, r5
	.loc 1 652 12
	cmp	r0, #2
	bls	.L81
	.loc 1 654 18
	movs	r0, #3
	b	.L36
.LVL93:
.L77:
	.loc 1 661 3 is_stmt 1
	.loc 1 661 26 is_stmt 0
	ldr	r3, [r4]
	.loc 1 661 6
	tst	r3, #32
	beq	.L83
	.loc 1 664 5 is_stmt 1
	.loc 1 667 5
	.loc 1 667 27 is_stmt 0
	ldr	r3, [r4, #24]
	.loc 1 667 8
	cbz	r3, .L84
	.loc 1 670 7 is_stmt 1
	.loc 1 670 71 is_stmt 0
	ldr	r2, .L168
	ldr	r3, [r2]
	.loc 1 670 77
	orr	r3, r3, #4096
	str	r3, [r2]
	.loc 1 670 100 is_stmt 1
	.loc 1 673 7
	.loc 1 673 19 is_stmt 0
	bl	HAL_GetTick
.LVL94:
	mov	r5, r0
.LVL95:
	.loc 1 676 7 is_stmt 1
.L85:
	.loc 1 676 579
	.loc 1 676 115 is_stmt 0
	ldr	r3, .L168
	ldr	r3, [r3]
	.loc 1 676 579
	tst	r3, #8192
	bne	.L83
	.loc 1 678 9 is_stmt 1
	.loc 1 678 14 is_stmt 0
	bl	HAL_GetTick
.LVL96:
	.loc 1 678 28
	subs	r0, r0, r5
	.loc 1 678 12
	cmp	r0, #2
	bls	.L85
	.loc 1 680 18
	movs	r0, #3
	b	.L36
.LVL97:
.L84:
	.loc 1 687 7 is_stmt 1
	.loc 1 687 71 is_stmt 0
	ldr	r2, .L168
	ldr	r3, [r2]
	.loc 1 687 77
	bic	r3, r3, #4096
	str	r3, [r2]
	.loc 1 687 101 is_stmt 1
	.loc 1 690 7
	.loc 1 690 19 is_stmt 0
	bl	HAL_GetTick
.LVL98:
	mov	r5, r0
.LVL99:
	.loc 1 693 7 is_stmt 1
.L87:
	.loc 1 693 579
	.loc 1 693 115 is_stmt 0
	ldr	r3, .L168
	ldr	r3, [r3]
	.loc 1 693 579
	tst	r3, #8192
	beq	.L83
	.loc 1 695 9 is_stmt 1
	.loc 1 695 14 is_stmt 0
	bl	HAL_GetTick
.LVL100:
	.loc 1 695 28
	subs	r0, r0, r5
	.loc 1 695 12
	cmp	r0, #2
	bls	.L87
	.loc 1 697 18
	movs	r0, #3
	b	.L36
.LVL101:
.L83:
	.loc 1 703 3 is_stmt 1
	.loc 1 703 26 is_stmt 0
	ldr	r3, [r4]
	.loc 1 703 6
	tst	r3, #4
	bne	.L157
.L89:
	.loc 1 756 3 is_stmt 1
	.loc 1 757 3
	.loc 1 757 30 is_stmt 0
	ldr	r3, [r4, #36]
	.loc 1 757 6
	cmp	r3, #0
	beq	.L128
	.loc 1 760 5 is_stmt 1
	.loc 1 760 83 is_stmt 0
	ldr	r2, .L168
	ldr	r2, [r2, #16]
	.loc 1 760 10
	and	r2, r2, #56
	.loc 1 760 8
	cmp	r2, #24
	beq	.L101
	.loc 1 762 7 is_stmt 1
	.loc 1 762 10 is_stmt 0
	cmp	r3, #2
	beq	.L158
	.loc 1 840 9 is_stmt 1
	.loc 1 840 73 is_stmt 0
	ldr	r2, .L168
	ldr	r3, [r2]
	.loc 1 840 79
	bic	r3, r3, #16777216
	str	r3, [r2]
	.loc 1 843 9 is_stmt 1
	.loc 1 843 21 is_stmt 0
	bl	HAL_GetTick
.LVL102:
	mov	r4, r0
.LVL103:
	.loc 1 846 9 is_stmt 1
.L107:
	.loc 1 846 581
	.loc 1 846 117 is_stmt 0
	ldr	r3, .L168
	ldr	r3, [r3]
	.loc 1 846 581
	tst	r3, #33554432
	beq	.L159
	.loc 1 848 11 is_stmt 1
	.loc 1 848 16 is_stmt 0
	bl	HAL_GetTick
.LVL104:
	.loc 1 848 30
	subs	r0, r0, r4
	.loc 1 848 14
	cmp	r0, #2
	bls	.L107
	.loc 1 850 20
	movs	r0, #3
	b	.L36
.LVL105:
.L157:
	.loc 1 706 5 is_stmt 1
	.loc 1 709 5
	.loc 1 709 67 is_stmt 0
	ldr	r2, .L168+4
	ldr	r3, [r2]
	.loc 1 709 73
	orr	r3, r3, #256
	str	r3, [r2]
	.loc 1 712 5 is_stmt 1
	.loc 1 712 17 is_stmt 0
	bl	HAL_GetTick
.LVL106:
	mov	r5, r0
.LVL107:
	.loc 1 714 5 is_stmt 1
.L90:
	.loc 1 714 100
	.loc 1 714 75 is_stmt 0
	ldr	r3, .L168+4
	ldr	r3, [r3]
	.loc 1 714 100
	tst	r3, #256
	bne	.L160
	.loc 1 716 7 is_stmt 1
	.loc 1 716 12 is_stmt 0
	bl	HAL_GetTick
.LVL108:
	.loc 1 716 26
	subs	r0, r0, r5
	.loc 1 716 10
	cmp	r0, #100
	bls	.L90
	.loc 1 718 16
	movs	r0, #3
	b	.L36
.L160:
	.loc 1 723 5 is_stmt 1
	.loc 1 723 10
	.loc 1 723 31 is_stmt 0
	ldr	r3, [r4, #8]
	.loc 1 723 12
	cmp	r3, #1
	beq	.L161
	.loc 1 723 167 is_stmt 1 discriminator 2
	.loc 1 723 169 is_stmt 0 discriminator 2
	cbnz	r3, .L94
	.loc 1 723 220 is_stmt 1 discriminator 4
	.loc 1 723 284 is_stmt 0 discriminator 4
	ldr	r3, .L168
	ldr	r2, [r3, #112]
	.loc 1 723 292 discriminator 4
	bic	r2, r2, #1
	str	r2, [r3, #112]
	.loc 1 723 316 is_stmt 1 discriminator 4
	.loc 1 723 380 is_stmt 0 discriminator 4
	ldr	r2, [r3, #112]
	.loc 1 723 388 discriminator 4
	bic	r2, r2, #4
	str	r2, [r3, #112]
	b	.L93
.L161:
	.loc 1 723 65 is_stmt 1 discriminator 1
	.loc 1 723 129 is_stmt 0 discriminator 1
	ldr	r2, .L168
	ldr	r3, [r2, #112]
	.loc 1 723 137 discriminator 1
	orr	r3, r3, #1
	str	r3, [r2, #112]
.L93:
	.loc 1 723 8 is_stmt 1 discriminator 10
	.loc 1 725 5 discriminator 10
	.loc 1 725 27 is_stmt 0 discriminator 10
	ldr	r3, [r4, #8]
	.loc 1 725 8 discriminator 10
	cbz	r3, .L96
	.loc 1 728 7 is_stmt 1
	.loc 1 728 19 is_stmt 0
	bl	HAL_GetTick
.LVL109:
	mov	r5, r0
.LVL110:
	.loc 1 731 7 is_stmt 1
.L97:
	.loc 1 731 579
	.loc 1 731 220 is_stmt 0
	ldr	r3, .L168
	ldr	r3, [r3, #112]
	.loc 1 731 579
	tst	r3, #2
	bne	.L89
	.loc 1 733 9 is_stmt 1
	.loc 1 733 14 is_stmt 0
	bl	HAL_GetTick
.LVL111:
	.loc 1 733 28
	subs	r0, r0, r5
	.loc 1 733 12
	movw	r3, #5000
	cmp	r0, r3
	bls	.L97
	.loc 1 735 18
	movs	r0, #3
	b	.L36
.L94:
	.loc 1 723 419 is_stmt 1 discriminator 5
	.loc 1 723 421 is_stmt 0 discriminator 5
	cmp	r3, #5
	beq	.L162
	.loc 1 723 705 is_stmt 1 discriminator 8
	.loc 1 723 769 is_stmt 0 discriminator 8
	ldr	r3, .L168
	ldr	r2, [r3, #112]
	.loc 1 723 777 discriminator 8
	bic	r2, r2, #1
	str	r2, [r3, #112]
	.loc 1 723 801 is_stmt 1 discriminator 8
	.loc 1 723 865 is_stmt 0 discriminator 8
	ldr	r2, [r3, #112]
	.loc 1 723 873 discriminator 8
	bic	r2, r2, #4
	str	r2, [r3, #112]
	b	.L93
.L162:
	.loc 1 723 506 is_stmt 1 discriminator 7
	.loc 1 723 570 is_stmt 0 discriminator 7
	ldr	r3, .L168
	ldr	r2, [r3, #112]
	.loc 1 723 578 discriminator 7
	orr	r2, r2, #4
	str	r2, [r3, #112]
	.loc 1 723 601 is_stmt 1 discriminator 7
	.loc 1 723 665 is_stmt 0 discriminator 7
	ldr	r2, [r3, #112]
	.loc 1 723 673 discriminator 7
	orr	r2, r2, #1
	str	r2, [r3, #112]
	b	.L93
.L96:
	.loc 1 742 7 is_stmt 1
	.loc 1 742 19 is_stmt 0
	bl	HAL_GetTick
.LVL112:
	mov	r5, r0
.LVL113:
	.loc 1 745 7 is_stmt 1
.L99:
	.loc 1 745 579
	.loc 1 745 220 is_stmt 0
	ldr	r3, .L168
	ldr	r3, [r3, #112]
	.loc 1 745 579
	tst	r3, #2
	beq	.L89
	.loc 1 747 9 is_stmt 1
	.loc 1 747 14 is_stmt 0
	bl	HAL_GetTick
.LVL114:
	.loc 1 747 28
	subs	r0, r0, r5
	.loc 1 747 12
	movw	r3, #5000
	cmp	r0, r3
	bls	.L99
	.loc 1 749 18
	movs	r0, #3
	b	.L36
.L169:
	.align	2
.L168:
	.word	1476543488
	.word	1476544512
.LVL115:
.L158:
	.loc 1 765 9 is_stmt 1
	.loc 1 766 9
	.loc 1 767 9
	.loc 1 768 9
	.loc 1 769 9
	.loc 1 770 9
	.loc 1 771 9
	.loc 1 772 9
	.loc 1 773 9
	.loc 1 776 9
	.loc 1 776 73 is_stmt 0
	ldr	r2, .L170
	ldr	r3, [r2]
	.loc 1 776 79
	bic	r3, r3, #16777216
	str	r3, [r2]
	.loc 1 779 9 is_stmt 1
	.loc 1 779 21 is_stmt 0
	bl	HAL_GetTick
.LVL116:
	mov	r5, r0
.LVL117:
	.loc 1 782 9 is_stmt 1
.L103:
	.loc 1 782 581
	.loc 1 782 117 is_stmt 0
	ldr	r3, .L170
	ldr	r3, [r3]
	.loc 1 782 581
	tst	r3, #33554432
	beq	.L163
	.loc 1 784 11 is_stmt 1
	.loc 1 784 16 is_stmt 0
	bl	HAL_GetTick
.LVL118:
	.loc 1 784 30
	subs	r0, r0, r5
	.loc 1 784 14
	cmp	r0, #2
	bls	.L103
	.loc 1 786 20
	movs	r0, #3
	b	.L36
.L163:
	.loc 1 791 9 is_stmt 1
	.loc 1 791 13
	.loc 1 791 162 is_stmt 0
	ldr	r3, .L170
	ldr	r1, [r3, #40]
	.loc 1 791 177
	ldr	r2, .L170+4
	ands	r2, r2, r1
	.loc 1 791 249
	ldr	r1, [r4, #40]
	.loc 1 791 288
	ldr	r0, [r4, #44]
	.loc 1 791 261
	orr	r1, r1, r0, lsl #4
	.loc 1 791 222
	orrs	r2, r2, r1
	.loc 1 791 92
	str	r2, [r3, #40]
	.loc 1 791 307 is_stmt 1
	.loc 1 791 413 is_stmt 0
	ldr	r2, [r4, #48]
	.loc 1 791 420
	subs	r2, r2, #1
	.loc 1 791 426
	ubfx	r2, r2, #0, #9
	.loc 1 791 475
	ldr	r1, [r4, #52]
	.loc 1 791 482
	subs	r1, r1, #1
	.loc 1 791 488
	lsls	r1, r1, #9
	.loc 1 791 495
	uxth	r1, r1
	.loc 1 791 447
	orrs	r2, r2, r1
	.loc 1 791 543
	ldr	r1, [r4, #56]
	.loc 1 791 550
	subs	r1, r1, #1
	.loc 1 791 555
	lsls	r1, r1, #16
	.loc 1 791 562
	and	r1, r1, #8323072
	.loc 1 791 515
	orrs	r2, r2, r1
	.loc 1 791 611
	ldr	r1, [r4, #60]
	.loc 1 791 618
	subs	r1, r1, #1
	.loc 1 791 624
	lsls	r1, r1, #24
	.loc 1 791 631
	and	r1, r1, #2130706432
	.loc 1 791 583
	orrs	r2, r2, r1
	.loc 1 791 383
	str	r2, [r3, #48]
	.loc 1 791 11 is_stmt 1
	.loc 1 799 9
	.loc 1 799 73 is_stmt 0
	ldr	r2, [r3, #44]
	.loc 1 799 84
	bic	r2, r2, #1
	str	r2, [r3, #44]
	.loc 1 802 9 is_stmt 1
	.loc 1 802 158 is_stmt 0
	ldr	r1, [r3, #52]
	.loc 1 802 173
	ldr	r2, .L170+8
	ands	r2, r2, r1
	.loc 1 802 236
	ldr	r1, [r4, #72]
	.loc 1 802 200
	orr	r2, r2, r1, lsl #3
	.loc 1 802 88
	str	r2, [r3, #52]
	.loc 1 805 9 is_stmt 1
	.loc 1 805 156 is_stmt 0
	ldr	r2, [r3, #44]
	.loc 1 805 169
	bic	r2, r2, #12
	.loc 1 805 219
	ldr	r1, [r4, #64]
	.loc 1 805 193
	orrs	r2, r2, r1
	.loc 1 805 86
	str	r2, [r3, #44]
	.loc 1 808 9 is_stmt 1
	.loc 1 808 156 is_stmt 0
	ldr	r2, [r3, #44]
	.loc 1 808 169
	bic	r2, r2, #2
	.loc 1 808 219
	ldr	r1, [r4, #68]
	.loc 1 808 193
	orrs	r2, r2, r1
	.loc 1 808 86
	str	r2, [r3, #44]
	.loc 1 811 9 is_stmt 1
	.loc 1 811 73 is_stmt 0
	ldr	r2, [r3, #44]
	.loc 1 811 84
	orr	r2, r2, #65536
	str	r2, [r3, #44]
	.loc 1 814 9 is_stmt 1
	.loc 1 814 73 is_stmt 0
	ldr	r2, [r3, #44]
	.loc 1 814 84
	orr	r2, r2, #131072
	str	r2, [r3, #44]
	.loc 1 817 9 is_stmt 1
	.loc 1 817 73 is_stmt 0
	ldr	r2, [r3, #44]
	.loc 1 817 84
	orr	r2, r2, #262144
	str	r2, [r3, #44]
	.loc 1 820 9 is_stmt 1
	.loc 1 820 73 is_stmt 0
	ldr	r2, [r3, #44]
	.loc 1 820 84
	orr	r2, r2, #1
	str	r2, [r3, #44]
	.loc 1 823 9 is_stmt 1
	.loc 1 823 73 is_stmt 0
	ldr	r2, [r3]
	.loc 1 823 79
	orr	r2, r2, #16777216
	str	r2, [r3]
	.loc 1 826 9 is_stmt 1
	.loc 1 826 21 is_stmt 0
	bl	HAL_GetTick
.LVL119:
	mov	r4, r0
.LVL120:
	.loc 1 829 9 is_stmt 1
.L105:
	.loc 1 829 581
	.loc 1 829 117 is_stmt 0
	ldr	r3, .L170
	ldr	r3, [r3]
	.loc 1 829 581
	tst	r3, #33554432
	bne	.L164
	.loc 1 831 11 is_stmt 1
	.loc 1 831 16 is_stmt 0
	bl	HAL_GetTick
.LVL121:
	.loc 1 831 30
	subs	r0, r0, r4
	.loc 1 831 14
	cmp	r0, #2
	bls	.L105
	.loc 1 833 20
	movs	r0, #3
	b	.L36
.L164:
	.loc 1 893 10
	movs	r0, #0
	b	.L36
.L159:
	movs	r0, #0
	b	.L36
.LVL122:
.L101:
	.loc 1 858 7 is_stmt 1
	.loc 1 858 22 is_stmt 0
	ldr	r2, .L170
	ldr	r1, [r2, #40]
.LVL123:
	.loc 1 859 7 is_stmt 1
	.loc 1 859 22 is_stmt 0
	ldr	r0, [r2, #48]
.LVL124:
	.loc 1 860 7 is_stmt 1
	.loc 1 860 10 is_stmt 0
	cmp	r3, #1
	beq	.L132
	.loc 1 861 30 discriminator 1
	and	r3, r1, #3
	.loc 1 861 76 discriminator 1
	ldr	r2, [r4, #40]
	.loc 1 860 64 discriminator 1
	cmp	r3, r2
	bne	.L133
	.loc 1 862 53
	ubfx	r1, r1, #4, #6
.LVL125:
	.loc 1 862 87
	ldr	r3, [r4, #44]
	.loc 1 861 88
	cmp	r1, r3
	bne	.L134
	.loc 1 863 30
	ubfx	r2, r0, #0, #9
	.loc 1 863 79
	ldr	r3, [r4, #48]
	.loc 1 863 85
	subs	r3, r3, #1
	.loc 1 862 94
	cmp	r2, r3
	bne	.L135
	.loc 1 864 53
	ubfx	r2, r0, #9, #7
	.loc 1 864 88
	ldr	r3, [r4, #52]
	.loc 1 864 94
	subs	r3, r3, #1
	.loc 1 863 92
	cmp	r2, r3
	bne	.L136
	.loc 1 865 54
	ubfx	r2, r0, #16, #7
	.loc 1 865 90
	ldr	r3, [r4, #56]
	.loc 1 865 96
	subs	r3, r3, #1
	.loc 1 864 101
	cmp	r2, r3
	bne	.L137
	.loc 1 866 54
	ubfx	r0, r0, #24, #7
.LVL126:
	.loc 1 866 90
	ldr	r3, [r4, #60]
	.loc 1 866 96
	subs	r3, r3, #1
	.loc 1 865 103
	cmp	r0, r3
	bne	.L138
	.loc 1 873 9 is_stmt 1
	.loc 1 873 90 is_stmt 0
	ldr	r3, .L170
	ldr	r3, [r3, #52]
	.loc 1 873 24
	ubfx	r3, r3, #3, #13
.LVL127:
	.loc 1 874 9 is_stmt 1
	.loc 1 874 35 is_stmt 0
	ldr	r2, [r4, #72]
	.loc 1 874 12
	cmp	r2, r3
	bne	.L165
	.loc 1 893 10
	movs	r0, #0
	b	.L36
.L165:
	.loc 1 876 11 is_stmt 1
	.loc 1 878 11
	.loc 1 878 75 is_stmt 0
	ldr	r2, .L170
	ldr	r3, [r2, #44]
.LVL128:
	.loc 1 878 86
	bic	r3, r3, #1
	str	r3, [r2, #44]
	.loc 1 880 11 is_stmt 1
	.loc 1 880 23 is_stmt 0
	bl	HAL_GetTick
.LVL129:
	mov	r5, r0
.LVL130:
	.loc 1 882 11 is_stmt 1
.L109:
	.loc 1 884 11 discriminator 1
	.loc 1 882 46 discriminator 1
	.loc 1 882 19 is_stmt 0 discriminator 1
	bl	HAL_GetTick
.LVL131:
	.loc 1 882 46 discriminator 1
	cmp	r0, r5
	beq	.L109
	.loc 1 886 11 is_stmt 1
	.loc 1 886 160 is_stmt 0
	ldr	r2, .L170
	ldr	r1, [r2, #52]
	.loc 1 886 175
	ldr	r3, .L170+8
	ands	r3, r3, r1
	.loc 1 886 238
	ldr	r1, [r4, #72]
	.loc 1 886 202
	orr	r3, r3, r1, lsl #3
	.loc 1 886 90
	str	r3, [r2, #52]
	.loc 1 888 11 is_stmt 1
	.loc 1 888 75 is_stmt 0
	ldr	r3, [r2, #44]
	.loc 1 888 86
	orr	r3, r3, #1
	str	r3, [r2, #44]
	.loc 1 893 10
	movs	r0, #0
	b	.L36
.LVL132:
.L110:
	.cfi_def_cfa_offset 0
	.cfi_restore 3
	.cfi_restore 4
	.cfi_restore 5
	.cfi_restore 14
	.loc 1 413 12
	movs	r0, #1
.LVL133:
	.loc 1 894 1
	bx	lr
.LVL134:
.L146:
	.cfi_def_cfa_offset 16
	.cfi_offset 3, -16
	.cfi_offset 4, -12
	.cfi_offset 5, -8
	.cfi_offset 14, -4
.LBB10:
	.loc 1 431 16
	movs	r0, #1
.LVL135:
	b	.L36
.LVL136:
.L114:
.LBE10:
.LBB11:
	.loc 1 485 16
	movs	r0, #1
	b	.L36
.LVL137:
.L118:
.LBE11:
.LBB12:
	.loc 1 566 16
	movs	r0, #1
	b	.L36
.LVL138:
.L128:
.LBE12:
	.loc 1 893 10
	movs	r0, #0
.LVL139:
.L36:
	.loc 1 894 1
	pop	{r3, r4, r5, pc}
.LVL140:
.L132:
	.loc 1 868 16
	movs	r0, #1
.LVL141:
	b	.L36
.LVL142:
.L133:
	movs	r0, #1
.LVL143:
	b	.L36
.LVL144:
.L134:
	movs	r0, #1
.LVL145:
	b	.L36
.LVL146:
.L135:
	movs	r0, #1
.LVL147:
	b	.L36
.LVL148:
.L136:
	movs	r0, #1
.LVL149:
	b	.L36
.LVL150:
.L137:
	movs	r0, #1
.LVL151:
	b	.L36
.L138:
	movs	r0, #1
	b	.L36
.L171:
	.align	2
.L170:
	.word	1476543488
	.word	-1012
	.word	-65529
	.cfi_endproc
.LFE336:
	.size	HAL_RCC_OscConfig, .-HAL_RCC_OscConfig
	.section	.text.HAL_RCC_MCOConfig,"ax",%progbits
	.align	1
	.global	HAL_RCC_MCOConfig
	.syntax unified
	.thumb
	.thumb_func
	.type	HAL_RCC_MCOConfig, %function
HAL_RCC_MCOConfig:
.LFB338:
	.loc 1 1287 1 is_stmt 1
	.cfi_startproc
	@ args = 0, pretend = 0, frame = 32
	@ frame_needed = 0, uses_anonymous_args = 0
.LVL152:
	push	{r4, r5, r6, lr}
	.cfi_def_cfa_offset 16
	.cfi_offset 4, -16
	.cfi_offset 5, -12
	.cfi_offset 6, -8
	.cfi_offset 14, -4
	sub	sp, sp, #32
	.cfi_def_cfa_offset 48
	mov	r4, r1
	mov	r5, r2
	.loc 1 1288 3
	.loc 1 1290 3
	.loc 1 1291 3
	.loc 1 1293 3
	.loc 1 1293 6 is_stmt 0
	cbnz	r0, .L173
	.loc 1 1295 5 is_stmt 1
	.loc 1 1298 5
.LBB13:
	.loc 1 1298 10
	.loc 1 1298 36
	.loc 1 1298 100 is_stmt 0
	ldr	r6, .L176
	ldr	r3, [r6, #224]
	.loc 1 1298 111
	orr	r3, r3, #1
	str	r3, [r6, #224]
	.loc 1 1298 134 is_stmt 1
	.loc 1 1298 207 is_stmt 0
	ldr	r3, [r6, #224]
	.loc 1 1298 218
	and	r3, r3, #1
	.loc 1 1298 141
	str	r3, [sp, #4]
	.loc 1 1298 240 is_stmt 1
	.loc 1 1298 241 is_stmt 0
	ldr	r3, [sp, #4]
.LBE13:
	.loc 1 1298 8 is_stmt 1
	.loc 1 1301 5
	.loc 1 1301 25 is_stmt 0
	mov	r3, #256
	str	r3, [sp, #12]
	.loc 1 1302 5 is_stmt 1
	.loc 1 1302 26 is_stmt 0
	movs	r3, #2
	str	r3, [sp, #16]
	.loc 1 1303 5 is_stmt 1
	.loc 1 1303 27 is_stmt 0
	movs	r3, #3
	str	r3, [sp, #24]
	.loc 1 1304 5 is_stmt 1
	.loc 1 1304 26 is_stmt 0
	movs	r3, #0
	str	r3, [sp, #20]
	.loc 1 1305 5 is_stmt 1
	.loc 1 1305 31 is_stmt 0
	str	r3, [sp, #28]
	.loc 1 1306 5 is_stmt 1
	add	r1, sp, #12
.LVL153:
	ldr	r0, .L176+4
.LVL154:
	bl	HAL_GPIO_Init
.LVL155:
	.loc 1 1309 5
	.loc 1 1309 149 is_stmt 0
	ldr	r3, [r6, #16]
	.loc 1 1309 159
	bic	r3, r3, #33292288
	.loc 1 1309 223
	orrs	r5, r5, r4
.LVL156:
	.loc 1 1309 205
	orrs	r5, r5, r3
	.loc 1 1309 79
	str	r5, [r6, #16]
.LVL157:
.L172:
	.loc 1 1329 1
	add	sp, sp, #32
	.cfi_remember_state
	.cfi_def_cfa_offset 16
	@ sp needed
	pop	{r4, r5, r6, pc}
.LVL158:
.L173:
	.cfi_restore_state
	.loc 1 1313 5 is_stmt 1
	.loc 1 1316 5
.LBB14:
	.loc 1 1316 10
	.loc 1 1316 36
	.loc 1 1316 100 is_stmt 0
	ldr	r6, .L176
	ldr	r3, [r6, #224]
	.loc 1 1316 111
	orr	r3, r3, #4
	str	r3, [r6, #224]
	.loc 1 1316 134 is_stmt 1
	.loc 1 1316 207 is_stmt 0
	ldr	r3, [r6, #224]
	.loc 1 1316 218
	and	r3, r3, #4
	.loc 1 1316 141
	str	r3, [sp, #8]
	.loc 1 1316 240 is_stmt 1
	.loc 1 1316 241 is_stmt 0
	ldr	r3, [sp, #8]
.LBE14:
	.loc 1 1316 8 is_stmt 1
	.loc 1 1319 5
	.loc 1 1319 25 is_stmt 0
	mov	r3, #512
	str	r3, [sp, #12]
	.loc 1 1320 5 is_stmt 1
	.loc 1 1320 26 is_stmt 0
	movs	r3, #2
	str	r3, [sp, #16]
	.loc 1 1321 5 is_stmt 1
	.loc 1 1321 27 is_stmt 0
	movs	r3, #3
	str	r3, [sp, #24]
	.loc 1 1322 5 is_stmt 1
	.loc 1 1322 26 is_stmt 0
	movs	r3, #0
	str	r3, [sp, #20]
	.loc 1 1323 5 is_stmt 1
	.loc 1 1323 31 is_stmt 0
	str	r3, [sp, #28]
	.loc 1 1324 5 is_stmt 1
	add	r1, sp, #12
.LVL159:
	ldr	r0, .L176+8
.LVL160:
	bl	HAL_GPIO_Init
.LVL161:
	.loc 1 1327 5
	.loc 1 1327 149 is_stmt 0
	ldr	r3, [r6, #16]
	.loc 1 1327 159
	bic	r3, r3, #-33554432
	.loc 1 1327 223
	orr	r4, r4, r5, lsl #7
.LVL162:
	.loc 1 1327 205
	orrs	r4, r4, r3
	.loc 1 1327 79
	str	r4, [r6, #16]
	.loc 1 1329 1
	b	.L172
.L177:
	.align	2
.L176:
	.word	1476543488
	.word	1476526080
	.word	1476528128
	.cfi_endproc
.LFE338:
	.size	HAL_RCC_MCOConfig, .-HAL_RCC_MCOConfig
	.section	.text.HAL_RCC_EnableCSS,"ax",%progbits
	.align	1
	.global	HAL_RCC_EnableCSS
	.syntax unified
	.thumb
	.thumb_func
	.type	HAL_RCC_EnableCSS, %function
HAL_RCC_EnableCSS:
.LFB339:
	.loc 1 1341 1 is_stmt 1
	.cfi_startproc
	@ args = 0, pretend = 0, frame = 0
	@ frame_needed = 0, uses_anonymous_args = 0
	@ link register save eliminated.
	.loc 1 1342 3
	.loc 1 1342 67 is_stmt 0
	ldr	r2, .L179
	ldr	r3, [r2]
	.loc 1 1342 73
	orr	r3, r3, #524288
	str	r3, [r2]
	.loc 1 1343 1
	bx	lr
.L180:
	.align	2
.L179:
	.word	1476543488
	.cfi_endproc
.LFE339:
	.size	HAL_RCC_EnableCSS, .-HAL_RCC_EnableCSS
	.section	.text.HAL_RCC_DisableCSS,"ax",%progbits
	.align	1
	.global	HAL_RCC_DisableCSS
	.syntax unified
	.thumb
	.thumb_func
	.type	HAL_RCC_DisableCSS, %function
HAL_RCC_DisableCSS:
.LFB340:
	.loc 1 1350 1 is_stmt 1
	.cfi_startproc
	@ args = 0, pretend = 0, frame = 0
	@ frame_needed = 0, uses_anonymous_args = 0
	@ link register save eliminated.
	.loc 1 1351 3
	.loc 1 1351 67 is_stmt 0
	ldr	r2, .L182
	ldr	r3, [r2]
	.loc 1 1351 73
	bic	r3, r3, #524288
	str	r3, [r2]
	.loc 1 1352 1
	bx	lr
.L183:
	.align	2
.L182:
	.word	1476543488
	.cfi_endproc
.LFE340:
	.size	HAL_RCC_DisableCSS, .-HAL_RCC_DisableCSS
	.section	.text.HAL_RCC_GetSysClockFreq,"ax",%progbits
	.align	1
	.global	HAL_RCC_GetSysClockFreq
	.syntax unified
	.thumb
	.thumb_func
	.type	HAL_RCC_GetSysClockFreq, %function
HAL_RCC_GetSysClockFreq:
.LFB341:
	.loc 1 1389 1 is_stmt 1
	.cfi_startproc
	@ args = 0, pretend = 0, frame = 0
	@ frame_needed = 0, uses_anonymous_args = 0
	@ link register save eliminated.
	.loc 1 1390 3
	.loc 1 1391 3
	.loc 1 1392 3
	.loc 1 1396 3
	.loc 1 1396 73 is_stmt 0
	ldr	r3, .L200
	ldr	r3, [r3, #16]
	.loc 1 1396 80
	and	r3, r3, #56
	.loc 1 1396 3
	cmp	r3, #16
	beq	.L192
	cmp	r3, #24
	beq	.L186
	cbz	r3, .L198
	ldr	r0, .L200+4
	bx	lr
.L198:
	.loc 1 1400 7 is_stmt 1
	.loc 1 1400 112 is_stmt 0
	ldr	r3, .L200
	ldr	r3, [r3]
	.loc 1 1400 10
	tst	r3, #32
	beq	.L194
	.loc 1 1402 9 is_stmt 1
	.loc 1 1402 128 is_stmt 0
	ldr	r3, .L200
	ldr	r3, [r3]
	.loc 1 1402 157
	ubfx	r3, r3, #3, #2
	.loc 1 1402 22
	ldr	r0, .L200+8
	lsrs	r0, r0, r3
.LVL163:
	bx	lr
.LVL164:
.L186:
	.loc 1 1389 1
	push	{r4}
	.cfi_def_cfa_offset 4
	.cfi_offset 4, -4
	.loc 1 1424 7 is_stmt 1
	.loc 1 1424 82 is_stmt 0
	ldr	r3, .L200
	ldr	r2, [r3, #40]
	.loc 1 1424 17
	and	r2, r2, #3
.LVL165:
	.loc 1 1425 7 is_stmt 1
	.loc 1 1425 78 is_stmt 0
	ldr	r4, [r3, #40]
	.loc 1 1425 12
	ubfx	r0, r4, #4, #6
.LVL166:
	.loc 1 1426 7 is_stmt 1
	.loc 1 1426 83 is_stmt 0
	ldr	r1, [r3, #44]
	.loc 1 1426 17
	and	r1, r1, #1
.LVL167:
	.loc 1 1427 7 is_stmt 1
	.loc 1 1427 112 is_stmt 0
	ldr	r3, [r3, #52]
	.loc 1 1427 146
	ubfx	r3, r3, #3, #13
	.loc 1 1427 25
	mul	r3, r1, r3
	.loc 1 1427 14
	vmov	s15, r3	@ int
	vcvt.f32.u32	s15, s15
.LVL168:
	.loc 1 1429 7 is_stmt 1
	.loc 1 1429 10 is_stmt 0
	tst	r4, #1008
	beq	.L184
	.loc 1 1431 9 is_stmt 1
	cmp	r2, #1
	beq	.L187
	cmp	r2, #2
	beq	.L188
	cbz	r2, .L199
	.loc 1 1455 13
	.loc 1 1455 46 is_stmt 0
	vmov	s14, r0	@ int
	vcvt.f32.u32	s13, s14
	.loc 1 1455 44
	vldr.32	s12, .L200+12
	vdiv.f32	s14, s12, s13
	.loc 1 1455 146
	ldr	r3, .L200
	ldr	r3, [r3, #48]
	.loc 1 1455 73
	ubfx	r3, r3, #0, #9
	.loc 1 1455 64
	vmov	s13, r3	@ int
	vcvt.f32.u32	s13, s13
	.loc 1 1455 188
	vldr.32	s12, .L200+16
	vmul.f32	s15, s15, s12
.LVL169:
	.loc 1 1455 178
	vadd.f32	s15, s13, s15
	.loc 1 1455 207
	vmov.f32	s13, #1.0e+0
	vadd.f32	s15, s15, s13
	.loc 1 1455 20
	vmul.f32	s14, s14, s15
.LVL170:
	.loc 1 1456 13 is_stmt 1
	b	.L191
.LVL171:
.L199:
	.loc 1 1435 13
	.loc 1 1435 118 is_stmt 0
	ldr	r3, .L200
	ldr	r3, [r3]
	.loc 1 1435 16
	tst	r3, #32
	beq	.L190
	.loc 1 1437 15 is_stmt 1
	.loc 1 1437 120 is_stmt 0
	ldr	r1, .L200
.LVL172:
	ldr	r2, [r1]
.LVL173:
	.loc 1 1437 149
	ubfx	r2, r2, #3, #2
	.loc 1 1437 24
	ldr	r3, .L200+8
	lsrs	r3, r3, r2
.LVL174:
	.loc 1 1438 15 is_stmt 1
	.loc 1 1438 25 is_stmt 0
	vmov	s14, r3	@ int
	vcvt.f32.u32	s13, s14
	.loc 1 1438 45
	vmov	s14, r0	@ int
	vcvt.f32.u32	s12, s14
	.loc 1 1438 43
	vdiv.f32	s14, s13, s12
	.loc 1 1438 145
	ldr	r3, [r1, #48]
.LVL175:
	.loc 1 1438 72
	ubfx	r3, r3, #0, #9
	.loc 1 1438 63
	vmov	s13, r3	@ int
	vcvt.f32.u32	s13, s13
	.loc 1 1438 187
	vldr.32	s12, .L200+16
	vmul.f32	s15, s15, s12
.LVL176:
	.loc 1 1438 177
	vadd.f32	s15, s13, s15
	.loc 1 1438 206
	vmov.f32	s13, #1.0e+0
	vadd.f32	s15, s15, s13
	.loc 1 1438 22
	vmul.f32	s14, s14, s15
.LVL177:
	b	.L191
.LVL178:
.L190:
	.loc 1 1442 15 is_stmt 1
	.loc 1 1442 49 is_stmt 0
	vmov	s14, r0	@ int
	vcvt.f32.u32	s13, s14
	.loc 1 1442 47
	vldr.32	s12, .L200+20
	vdiv.f32	s14, s12, s13
	.loc 1 1442 149
	ldr	r3, .L200
	ldr	r3, [r3, #48]
	.loc 1 1442 76
	ubfx	r3, r3, #0, #9
	.loc 1 1442 67
	vmov	s13, r3	@ int
	vcvt.f32.u32	s13, s13
	.loc 1 1442 191
	vldr.32	s12, .L200+16
	vmul.f32	s15, s15, s12
.LVL179:
	.loc 1 1442 181
	vadd.f32	s15, s13, s15
	.loc 1 1442 210
	vmov.f32	s13, #1.0e+0
	vadd.f32	s15, s15, s13
	.loc 1 1442 22
	vmul.f32	s14, s14, s15
.LVL180:
	b	.L191
.LVL181:
.L187:
	.loc 1 1447 13 is_stmt 1
	.loc 1 1447 46 is_stmt 0
	vmov	s14, r0	@ int
	vcvt.f32.u32	s13, s14
	.loc 1 1447 44
	vldr.32	s12, .L200+12
	vdiv.f32	s14, s12, s13
	.loc 1 1447 146
	ldr	r3, .L200
	ldr	r3, [r3, #48]
	.loc 1 1447 73
	ubfx	r3, r3, #0, #9
	.loc 1 1447 64
	vmov	s13, r3	@ int
	vcvt.f32.u32	s13, s13
	.loc 1 1447 188
	vldr.32	s12, .L200+16
	vmul.f32	s15, s15, s12
.LVL182:
	.loc 1 1447 178
	vadd.f32	s15, s13, s15
	.loc 1 1447 207
	vmov.f32	s13, #1.0e+0
	vadd.f32	s15, s15, s13
	.loc 1 1447 20
	vmul.f32	s14, s14, s15
.LVL183:
	.loc 1 1448 13 is_stmt 1
.L191:
	.loc 1 1458 9
	.loc 1 1458 81 is_stmt 0
	ldr	r3, .L200
	ldr	r3, [r3, #48]
	.loc 1 1458 112
	ubfx	r3, r3, #9, #7
	.loc 1 1458 14
	adds	r3, r3, #1
.LVL184:
	.loc 1 1459 9 is_stmt 1
	.loc 1 1459 53 is_stmt 0
	vmov	s15, r3	@ int
	vcvt.f32.u32	s15, s15
	.loc 1 1459 34
	vdiv.f32	s13, s14, s15
	.loc 1 1459 22
	vcvt.u32.f32	s15, s13
	vmov	r0, s15	@ int
.LVL185:
.L184:
	.loc 1 1473 1
	ldr	r4, [sp], #4
	.cfi_remember_state
	.cfi_restore 4
	.cfi_def_cfa_offset 0
.LVL186:
	bx	lr
.LVL187:
.L188:
	.cfi_restore_state
	.loc 1 1451 13 is_stmt 1
	.loc 1 1451 47 is_stmt 0
	vmov	s14, r0	@ int
	vcvt.f32.u32	s13, s14
	.loc 1 1451 45
	vldr.32	s12, .L200+24
	vdiv.f32	s14, s12, s13
	.loc 1 1451 147
	ldr	r3, .L200
	ldr	r3, [r3, #48]
	.loc 1 1451 74
	ubfx	r3, r3, #0, #9
	.loc 1 1451 65
	vmov	s13, r3	@ int
	vcvt.f32.u32	s13, s13
	.loc 1 1451 189
	vldr.32	s12, .L200+16
	vmul.f32	s15, s15, s12
.LVL188:
	.loc 1 1451 179
	vadd.f32	s15, s13, s15
	.loc 1 1451 208
	vmov.f32	s13, #1.0e+0
	vadd.f32	s15, s15, s13
	.loc 1 1451 20
	vmul.f32	s14, s14, s15
.LVL189:
	.loc 1 1452 13 is_stmt 1
	b	.L191
.LVL190:
.L192:
	.cfi_def_cfa_offset 0
	.cfi_restore 4
	.loc 1 1416 20 is_stmt 0
	ldr	r0, .L200+28
	bx	lr
.L194:
	.loc 1 1406 22
	ldr	r0, .L200+8
.LVL191:
	.loc 1 1472 3 is_stmt 1
	.loc 1 1473 1 is_stmt 0
	bx	lr
.L201:
	.align	2
.L200:
	.word	1476543488
	.word	4000000
	.word	64000000
	.word	1249125376
	.word	956301312
	.word	1282679808
	.word	1270791200
	.word	25000000
	.cfi_endproc
.LFE341:
	.size	HAL_RCC_GetSysClockFreq, .-HAL_RCC_GetSysClockFreq
	.section	.text.HAL_RCC_ClockConfig,"ax",%progbits
	.align	1
	.global	HAL_RCC_ClockConfig
	.syntax unified
	.thumb
	.thumb_func
	.type	HAL_RCC_ClockConfig, %function
HAL_RCC_ClockConfig:
.LFB337:
	.loc 1 923 1 is_stmt 1
	.cfi_startproc
	@ args = 0, pretend = 0, frame = 0
	@ frame_needed = 0, uses_anonymous_args = 0
.LVL192:
	.loc 1 924 3
	.loc 1 925 3
	.loc 1 926 3
	.loc 1 929 3
	.loc 1 929 6 is_stmt 0
	cmp	r0, #0
	beq	.L223
	.loc 1 923 1
	push	{r4, r5, r6, lr}
	.cfi_def_cfa_offset 16
	.cfi_offset 4, -16
	.cfi_offset 5, -12
	.cfi_offset 6, -8
	.cfi_offset 14, -4
	mov	r5, r1
	mov	r4, r0
	.loc 1 935 3 is_stmt 1
	.loc 1 936 3
	.loc 1 943 3
	.loc 1 943 86 is_stmt 0
	ldr	r3, .L239
	ldr	r3, [r3]
	.loc 1 943 94
	and	r3, r3, #15
	.loc 1 943 6
	cmp	r3, r1
	bcs	.L204
	.loc 1 946 5 is_stmt 1
	.loc 1 946 152 is_stmt 0
	ldr	r2, .L239
	ldr	r3, [r2]
	.loc 1 946 161
	bic	r3, r3, #15
	.loc 1 946 185
	orrs	r3, r3, r1
	.loc 1 946 80
	str	r3, [r2]
	.loc 1 950 5 is_stmt 1
	.loc 1 950 77 is_stmt 0
	ldr	r3, [r2]
	.loc 1 950 85
	and	r3, r3, #15
	.loc 1 950 8
	cmp	r3, r1
	bne	.L224
.L204:
	.loc 1 959 3 is_stmt 1
	.loc 1 959 26 is_stmt 0
	ldr	r3, [r4]
	.loc 1 959 6
	tst	r3, #4
	beq	.L205
	.loc 1 962 5 is_stmt 1
	.loc 1 962 27 is_stmt 0
	ldr	r2, [r4, #16]
	.loc 1 962 110
	ldr	r3, .L239+4
	ldr	r3, [r3, #24]
	.loc 1 962 119
	and	r3, r3, #112
	.loc 1 962 8
	cmp	r2, r3
	bls	.L205
	.loc 1 964 7 is_stmt 1
	.loc 1 965 7
	.loc 1 965 153 is_stmt 0
	ldr	r1, .L239+4
.LVL193:
	ldr	r3, [r1, #24]
	.loc 1 965 165
	bic	r3, r3, #112
	.loc 1 965 189
	orrs	r2, r2, r3
	.loc 1 965 83
	str	r2, [r1, #24]
.L205:
	.loc 1 977 3 is_stmt 1
	.loc 1 977 26 is_stmt 0
	ldr	r3, [r4]
	.loc 1 977 6
	tst	r3, #8
	beq	.L206
	.loc 1 980 5 is_stmt 1
	.loc 1 980 27 is_stmt 0
	ldr	r2, [r4, #20]
	.loc 1 980 110
	ldr	r3, .L239+4
	ldr	r3, [r3, #28]
	.loc 1 980 119
	and	r3, r3, #112
	.loc 1 980 8
	cmp	r2, r3
	bls	.L206
	.loc 1 982 7 is_stmt 1
	.loc 1 983 7
	.loc 1 983 153 is_stmt 0
	ldr	r1, .L239+4
	ldr	r3, [r1, #28]
	.loc 1 983 165
	bic	r3, r3, #112
	.loc 1 983 189
	orrs	r2, r2, r3
	.loc 1 983 83
	str	r2, [r1, #28]
.L206:
	.loc 1 994 3 is_stmt 1
	.loc 1 994 26 is_stmt 0
	ldr	r3, [r4]
	.loc 1 994 6
	tst	r3, #16
	beq	.L207
	.loc 1 997 5 is_stmt 1
	.loc 1 997 27 is_stmt 0
	ldr	r2, [r4, #24]
	.loc 1 997 110
	ldr	r3, .L239+4
	ldr	r3, [r3, #28]
	.loc 1 997 119
	and	r3, r3, #1792
	.loc 1 997 8
	cmp	r2, r3
	bls	.L207
	.loc 1 999 7 is_stmt 1
	.loc 1 1000 7
	.loc 1 1000 153 is_stmt 0
	ldr	r1, .L239+4
	ldr	r3, [r1, #28]
	.loc 1 1000 165
	bic	r3, r3, #1792
	.loc 1 1000 189
	orrs	r2, r2, r3
	.loc 1 1000 83
	str	r2, [r1, #28]
.L207:
	.loc 1 1012 3 is_stmt 1
	.loc 1 1012 26 is_stmt 0
	ldr	r3, [r4]
	.loc 1 1012 6
	tst	r3, #32
	beq	.L208
	.loc 1 1015 5 is_stmt 1
	.loc 1 1015 27 is_stmt 0
	ldr	r2, [r4, #28]
	.loc 1 1015 110
	ldr	r3, .L239+4
	ldr	r3, [r3, #32]
	.loc 1 1015 119
	and	r3, r3, #112
	.loc 1 1015 8
	cmp	r2, r3
	bls	.L208
	.loc 1 1017 7 is_stmt 1
	.loc 1 1018 7
	.loc 1 1018 153 is_stmt 0
	ldr	r1, .L239+4
	ldr	r3, [r1, #32]
	.loc 1 1018 165
	bic	r3, r3, #112
	.loc 1 1018 189
	orrs	r2, r2, r3
	.loc 1 1018 83
	str	r2, [r1, #32]
.L208:
	.loc 1 1030 3 is_stmt 1
	.loc 1 1030 26 is_stmt 0
	ldr	r3, [r4]
	.loc 1 1030 6
	tst	r3, #2
	beq	.L209
	.loc 1 1033 5 is_stmt 1
	.loc 1 1033 27 is_stmt 0
	ldr	r2, [r4, #12]
	.loc 1 1033 109
	ldr	r3, .L239+4
	ldr	r3, [r3, #24]
	.loc 1 1033 118
	and	r3, r3, #15
	.loc 1 1033 8
	cmp	r2, r3
	bls	.L209
	.loc 1 1036 7 is_stmt 1
	.loc 1 1037 7
	.loc 1 1037 153 is_stmt 0
	ldr	r1, .L239+4
	ldr	r3, [r1, #24]
	.loc 1 1037 165
	bic	r3, r3, #15
	.loc 1 1037 189
	orrs	r2, r2, r3
	.loc 1 1037 83
	str	r2, [r1, #24]
.L209:
	.loc 1 1050 3 is_stmt 1
	.loc 1 1050 26 is_stmt 0
	ldr	r3, [r4]
	.loc 1 1050 6
	tst	r3, #1
	beq	.L210
	.loc 1 1052 5 is_stmt 1
	.loc 1 1053 5
	.loc 1 1055 5
	.loc 1 1055 151 is_stmt 0
	ldr	r2, .L239+4
	ldr	r3, [r2, #24]
	.loc 1 1055 163
	bic	r3, r3, #3840
	.loc 1 1055 207
	ldr	r1, [r4, #8]
	.loc 1 1055 187
	orrs	r3, r3, r1
	.loc 1 1055 81
	str	r3, [r2, #24]
	.loc 1 1060 5 is_stmt 1
	.loc 1 1060 26 is_stmt 0
	ldr	r3, [r4, #4]
	.loc 1 1060 8
	cmp	r3, #2
	beq	.L235
	.loc 1 1069 10 is_stmt 1
	.loc 1 1069 13 is_stmt 0
	cmp	r3, #3
	beq	.L236
	.loc 1 1078 10 is_stmt 1
	.loc 1 1078 13 is_stmt 0
	cmp	r3, #1
	beq	.L237
	.loc 1 1090 7 is_stmt 1
	.loc 1 1090 112 is_stmt 0
	ldr	r2, .L239+4
	ldr	r2, [r2]
	.loc 1 1090 10
	tst	r2, #4
	bne	.L212
	.loc 1 1092 16
	movs	r0, #1
.LVL194:
	b	.L203
.LVL195:
.L235:
	.loc 1 1063 7 is_stmt 1
	.loc 1 1063 112 is_stmt 0
	ldr	r2, [r2]
	.loc 1 1063 10
	tst	r2, #131072
	beq	.L238
.L212:
	.loc 1 1095 5 is_stmt 1
	.loc 1 1095 149 is_stmt 0
	ldr	r1, .L239+4
	ldr	r2, [r1, #16]
	.loc 1 1095 159
	bic	r2, r2, #7
	.loc 1 1095 183
	orrs	r3, r3, r2
	.loc 1 1095 79
	str	r3, [r1, #16]
	.loc 1 1098 5 is_stmt 1
	.loc 1 1098 17 is_stmt 0
	bl	HAL_GetTick
.LVL196:
	mov	r6, r0
.LVL197:
	.loc 1 1100 5 is_stmt 1
.L215:
	.loc 1 1100 113
	.loc 1 1100 86 is_stmt 0
	ldr	r3, .L239+4
	ldr	r3, [r3, #16]
	.loc 1 1100 13
	and	r3, r3, #56
	.loc 1 1100 134
	ldr	r2, [r4, #4]
	.loc 1 1100 113
	cmp	r3, r2, lsl #3
	beq	.L210
	.loc 1 1102 7 is_stmt 1
	.loc 1 1102 12 is_stmt 0
	bl	HAL_GetTick
.LVL198:
	.loc 1 1102 26
	subs	r0, r0, r6
	.loc 1 1102 10
	movw	r3, #5000
	cmp	r0, r3
	bls	.L215
	.loc 1 1104 16
	movs	r0, #3
	b	.L203
.LVL199:
.L236:
	.loc 1 1072 7 is_stmt 1
	.loc 1 1072 112 is_stmt 0
	ldr	r2, .L239+4
	ldr	r2, [r2]
	.loc 1 1072 10
	tst	r2, #33554432
	bne	.L212
	.loc 1 1074 16
	movs	r0, #1
.LVL200:
	b	.L203
.LVL201:
.L237:
	.loc 1 1081 7 is_stmt 1
	.loc 1 1081 112 is_stmt 0
	ldr	r2, .L239+4
	ldr	r2, [r2]
	.loc 1 1081 10
	tst	r2, #256
	bne	.L212
	.loc 1 1083 16
	movs	r0, #1
.LVL202:
	b	.L203
.L210:
	.loc 1 1112 3 is_stmt 1
	.loc 1 1112 26 is_stmt 0
	ldr	r3, [r4]
	.loc 1 1112 6
	tst	r3, #2
	beq	.L217
	.loc 1 1115 5 is_stmt 1
	.loc 1 1115 27 is_stmt 0
	ldr	r2, [r4, #12]
	.loc 1 1115 109
	ldr	r3, .L239+4
	ldr	r3, [r3, #24]
	.loc 1 1115 118
	and	r3, r3, #15
	.loc 1 1115 8
	cmp	r2, r3
	bcs	.L217
	.loc 1 1118 7 is_stmt 1
	.loc 1 1119 7
	.loc 1 1119 153 is_stmt 0
	ldr	r1, .L239+4
	ldr	r3, [r1, #24]
	.loc 1 1119 165
	bic	r3, r3, #15
	.loc 1 1119 189
	orrs	r2, r2, r3
	.loc 1 1119 83
	str	r2, [r1, #24]
.L217:
	.loc 1 1132 3 is_stmt 1
	.loc 1 1132 86 is_stmt 0
	ldr	r3, .L239
	ldr	r3, [r3]
	.loc 1 1132 94
	and	r3, r3, #15
	.loc 1 1132 6
	cmp	r3, r5
	bls	.L218
	.loc 1 1135 5 is_stmt 1
	.loc 1 1135 152 is_stmt 0
	ldr	r2, .L239
	ldr	r3, [r2]
	.loc 1 1135 161
	bic	r3, r3, #15
	.loc 1 1135 185
	orrs	r3, r3, r5
	.loc 1 1135 80
	str	r3, [r2]
	.loc 1 1139 5 is_stmt 1
	.loc 1 1139 77 is_stmt 0
	ldr	r3, [r2]
	.loc 1 1139 85
	and	r3, r3, #15
	.loc 1 1139 8
	cmp	r3, r5
	bne	.L230
.L218:
	.loc 1 1146 3 is_stmt 1
	.loc 1 1146 26 is_stmt 0
	ldr	r3, [r4]
	.loc 1 1146 6
	tst	r3, #4
	beq	.L219
	.loc 1 1149 5 is_stmt 1
	.loc 1 1149 27 is_stmt 0
	ldr	r2, [r4, #16]
	.loc 1 1149 110
	ldr	r3, .L239+4
	ldr	r3, [r3, #24]
	.loc 1 1149 119
	and	r3, r3, #112
	.loc 1 1149 8
	cmp	r2, r3
	bcs	.L219
	.loc 1 1151 7 is_stmt 1
	.loc 1 1152 7
	.loc 1 1152 153 is_stmt 0
	ldr	r1, .L239+4
	ldr	r3, [r1, #24]
	.loc 1 1152 165
	bic	r3, r3, #112
	.loc 1 1152 189
	orrs	r2, r2, r3
	.loc 1 1152 83
	str	r2, [r1, #24]
.L219:
	.loc 1 1164 3 is_stmt 1
	.loc 1 1164 26 is_stmt 0
	ldr	r3, [r4]
	.loc 1 1164 6
	tst	r3, #8
	beq	.L220
	.loc 1 1167 5 is_stmt 1
	.loc 1 1167 27 is_stmt 0
	ldr	r2, [r4, #20]
	.loc 1 1167 110
	ldr	r3, .L239+4
	ldr	r3, [r3, #28]
	.loc 1 1167 119
	and	r3, r3, #112
	.loc 1 1167 8
	cmp	r2, r3
	bcs	.L220
	.loc 1 1169 7 is_stmt 1
	.loc 1 1170 7
	.loc 1 1170 153 is_stmt 0
	ldr	r1, .L239+4
	ldr	r3, [r1, #28]
	.loc 1 1170 165
	bic	r3, r3, #112
	.loc 1 1170 189
	orrs	r2, r2, r3
	.loc 1 1170 83
	str	r2, [r1, #28]
.L220:
	.loc 1 1182 3 is_stmt 1
	.loc 1 1182 26 is_stmt 0
	ldr	r3, [r4]
	.loc 1 1182 6
	tst	r3, #16
	beq	.L221
	.loc 1 1185 5 is_stmt 1
	.loc 1 1185 27 is_stmt 0
	ldr	r2, [r4, #24]
	.loc 1 1185 110
	ldr	r3, .L239+4
	ldr	r3, [r3, #28]
	.loc 1 1185 119
	and	r3, r3, #1792
	.loc 1 1185 8
	cmp	r2, r3
	bcs	.L221
	.loc 1 1187 7 is_stmt 1
	.loc 1 1188 7
	.loc 1 1188 153 is_stmt 0
	ldr	r1, .L239+4
	ldr	r3, [r1, #28]
	.loc 1 1188 165
	bic	r3, r3, #1792
	.loc 1 1188 189
	orrs	r2, r2, r3
	.loc 1 1188 83
	str	r2, [r1, #28]
.L221:
	.loc 1 1200 3 is_stmt 1
	.loc 1 1200 26 is_stmt 0
	ldr	r3, [r4]
	.loc 1 1200 6
	tst	r3, #32
	beq	.L222
	.loc 1 1203 5 is_stmt 1
	.loc 1 1203 27 is_stmt 0
	ldr	r2, [r4, #28]
	.loc 1 1203 110
	ldr	r3, .L239+4
	ldr	r3, [r3, #32]
	.loc 1 1203 119
	and	r3, r3, #112
	.loc 1 1203 8
	cmp	r2, r3
	bcs	.L222
	.loc 1 1205 7 is_stmt 1
	.loc 1 1206 7
	.loc 1 1206 153 is_stmt 0
	ldr	r1, .L239+4
	ldr	r3, [r1, #32]
	.loc 1 1206 165
	bic	r3, r3, #112
	.loc 1 1206 189
	orrs	r2, r2, r3
	.loc 1 1206 83
	str	r2, [r1, #32]
.L222:
	.loc 1 1219 3 is_stmt 1
	.loc 1 1219 25 is_stmt 0
	bl	HAL_RCC_GetSysClockFreq
.LVL203:
	.loc 1 1219 136
	ldr	r1, .L239+4
	ldr	r3, [r1, #24]
	.loc 1 1219 164
	ubfx	r3, r3, #8, #4
	.loc 1 1219 72
	ldr	r2, .L239+8
	ldrb	r3, [r2, r3]	@ zero_extendqisi2
	.loc 1 1219 174
	and	r3, r3, #31
	.loc 1 1219 23
	lsrs	r0, r0, r3
.LVL204:
	.loc 1 1225 3 is_stmt 1
	.loc 1 1225 125 is_stmt 0
	ldr	r3, [r1, #24]
	.loc 1 1225 153
	and	r3, r3, #15
	.loc 1 1225 61
	ldrb	r3, [r2, r3]	@ zero_extendqisi2
	.loc 1 1225 163
	and	r3, r3, #31
	.loc 1 1225 40
	lsr	r3, r0, r3
	.loc 1 1225 17
	ldr	r2, .L239+12
	str	r3, [r2]
	.loc 1 1233 3 is_stmt 1
	.loc 1 1233 19 is_stmt 0
	ldr	r3, .L239+16
	str	r0, [r3]
	.loc 1 1237 3 is_stmt 1
	.loc 1 1237 15 is_stmt 0
	ldr	r3, .L239+20
	ldr	r0, [r3]
.LVL205:
	bl	HAL_InitTick
.LVL206:
	.loc 1 1239 3 is_stmt 1
.L203:
	.loc 1 1240 1 is_stmt 0
	pop	{r4, r5, r6, pc}
.LVL207:
.L223:
	.cfi_def_cfa_offset 0
	.cfi_restore 4
	.cfi_restore 5
	.cfi_restore 6
	.cfi_restore 14
	.loc 1 931 12
	movs	r0, #1
.LVL208:
	.loc 1 1240 1
	bx	lr
.LVL209:
.L224:
	.cfi_def_cfa_offset 16
	.cfi_offset 4, -16
	.cfi_offset 5, -12
	.cfi_offset 6, -8
	.cfi_offset 14, -4
	.loc 1 952 14
	movs	r0, #1
.LVL210:
	b	.L203
.LVL211:
.L238:
	.loc 1 1065 16
	movs	r0, #1
.LVL212:
	b	.L203
.L230:
	.loc 1 1141 14
	movs	r0, #1
	b	.L203
.L240:
	.align	2
.L239:
	.word	1375739904
	.word	1476543488
	.word	D1CorePrescTable
	.word	SystemD2Clock
	.word	SystemCoreClock
	.word	uwTickPrio
	.cfi_endproc
.LFE337:
	.size	HAL_RCC_ClockConfig, .-HAL_RCC_ClockConfig
	.section	.text.HAL_RCC_GetHCLKFreq,"ax",%progbits
	.align	1
	.global	HAL_RCC_GetHCLKFreq
	.syntax unified
	.thumb
	.thumb_func
	.type	HAL_RCC_GetHCLKFreq, %function
HAL_RCC_GetHCLKFreq:
.LFB342:
	.loc 1 1486 1 is_stmt 1
	.cfi_startproc
	@ args = 0, pretend = 0, frame = 0
	@ frame_needed = 0, uses_anonymous_args = 0
	push	{r3, lr}
	.cfi_def_cfa_offset 8
	.cfi_offset 3, -8
	.cfi_offset 14, -4
	.loc 1 1487 3
	.loc 1 1490 3
	.loc 1 1490 25 is_stmt 0
	bl	HAL_RCC_GetSysClockFreq
.LVL213:
	.loc 1 1490 135
	ldr	r2, .L243
	ldr	r3, [r2, #24]
	.loc 1 1490 163
	ubfx	r3, r3, #8, #4
	.loc 1 1490 71
	ldr	r1, .L243+4
	ldrb	r3, [r1, r3]	@ zero_extendqisi2
	.loc 1 1490 172
	and	r3, r3, #31
	.loc 1 1490 23
	lsr	r3, r0, r3
.LVL214:
	.loc 1 1496 3 is_stmt 1
	.loc 1 1496 125 is_stmt 0
	ldr	r2, [r2, #24]
	.loc 1 1496 153
	and	r2, r2, #15
	.loc 1 1496 61
	ldrb	r0, [r1, r2]	@ zero_extendqisi2
	.loc 1 1496 163
	and	r0, r0, #31
	.loc 1 1496 40
	lsr	r0, r3, r0
	.loc 1 1496 17
	ldr	r2, .L243+8
	str	r0, [r2]
	.loc 1 1504 3 is_stmt 1
	.loc 1 1504 19 is_stmt 0
	ldr	r2, .L243+12
	str	r3, [r2]
	.loc 1 1507 3 is_stmt 1
	.loc 1 1508 1 is_stmt 0
	pop	{r3, pc}
.LVL215:
.L244:
	.align	2
.L243:
	.word	1476543488
	.word	D1CorePrescTable
	.word	SystemD2Clock
	.word	SystemCoreClock
	.cfi_endproc
.LFE342:
	.size	HAL_RCC_GetHCLKFreq, .-HAL_RCC_GetHCLKFreq
	.section	.text.HAL_RCC_GetPCLK1Freq,"ax",%progbits
	.align	1
	.global	HAL_RCC_GetPCLK1Freq
	.syntax unified
	.thumb
	.thumb_func
	.type	HAL_RCC_GetPCLK1Freq, %function
HAL_RCC_GetPCLK1Freq:
.LFB343:
	.loc 1 1518 1 is_stmt 1
	.cfi_startproc
	@ args = 0, pretend = 0, frame = 0
	@ frame_needed = 0, uses_anonymous_args = 0
	push	{r3, lr}
	.cfi_def_cfa_offset 8
	.cfi_offset 3, -8
	.cfi_offset 14, -4
	.loc 1 1521 3
	.loc 1 1521 11 is_stmt 0
	bl	HAL_RCC_GetHCLKFreq
.LVL216:
	.loc 1 1521 118
	ldr	r3, .L247
	ldr	r3, [r3, #28]
	.loc 1 1521 146
	ubfx	r3, r3, #4, #3
	.loc 1 1521 54
	ldr	r2, .L247+4
	ldrb	r3, [r2, r3]	@ zero_extendqisi2
	.loc 1 1521 156
	and	r3, r3, #31
	.loc 1 1526 1
	lsrs	r0, r0, r3
	pop	{r3, pc}
.L248:
	.align	2
.L247:
	.word	1476543488
	.word	D1CorePrescTable
	.cfi_endproc
.LFE343:
	.size	HAL_RCC_GetPCLK1Freq, .-HAL_RCC_GetPCLK1Freq
	.section	.text.HAL_RCC_GetPCLK2Freq,"ax",%progbits
	.align	1
	.global	HAL_RCC_GetPCLK2Freq
	.syntax unified
	.thumb
	.thumb_func
	.type	HAL_RCC_GetPCLK2Freq, %function
HAL_RCC_GetPCLK2Freq:
.LFB344:
	.loc 1 1536 1 is_stmt 1
	.cfi_startproc
	@ args = 0, pretend = 0, frame = 0
	@ frame_needed = 0, uses_anonymous_args = 0
	push	{r3, lr}
	.cfi_def_cfa_offset 8
	.cfi_offset 3, -8
	.cfi_offset 14, -4
	.loc 1 1539 3
	.loc 1 1539 11 is_stmt 0
	bl	HAL_RCC_GetHCLKFreq
.LVL217:
	.loc 1 1539 118
	ldr	r3, .L251
	ldr	r3, [r3, #28]
	.loc 1 1539 146
	ubfx	r3, r3, #8, #3
	.loc 1 1539 54
	ldr	r2, .L251+4
	ldrb	r3, [r2, r3]	@ zero_extendqisi2
	.loc 1 1539 156
	and	r3, r3, #31
	.loc 1 1543 1
	lsrs	r0, r0, r3
	pop	{r3, pc}
.L252:
	.align	2
.L251:
	.word	1476543488
	.word	D1CorePrescTable
	.cfi_endproc
.LFE344:
	.size	HAL_RCC_GetPCLK2Freq, .-HAL_RCC_GetPCLK2Freq
	.section	.text.HAL_RCC_GetOscConfig,"ax",%progbits
	.align	1
	.global	HAL_RCC_GetOscConfig
	.syntax unified
	.thumb
	.thumb_func
	.type	HAL_RCC_GetOscConfig, %function
HAL_RCC_GetOscConfig:
.LFB345:
	.loc 1 1553 1 is_stmt 1
	.cfi_startproc
	@ args = 0, pretend = 0, frame = 0
	@ frame_needed = 0, uses_anonymous_args = 0
.LVL218:
	push	{r4, lr}
	.cfi_def_cfa_offset 8
	.cfi_offset 4, -8
	.cfi_offset 14, -4
	mov	r4, r0
	.loc 1 1555 3
	.loc 1 1555 37 is_stmt 0
	movs	r3, #63
	str	r3, [r0]
	.loc 1 1577 3 is_stmt 1
	.loc 1 1577 70 is_stmt 0
	ldr	r3, .L275
	ldr	r3, [r3]
	.loc 1 1577 6
	tst	r3, #262144
	beq	.L254
	.loc 1 1579 5 is_stmt 1
	.loc 1 1579 33 is_stmt 0
	mov	r3, #327680
	str	r3, [r0, #4]
.L255:
	.loc 1 1592 3 is_stmt 1
	.loc 1 1592 70 is_stmt 0
	ldr	r3, .L275
	ldr	r3, [r3]
	.loc 1 1592 6
	tst	r3, #128
	beq	.L257
	.loc 1 1594 5 is_stmt 1
	.loc 1 1594 33 is_stmt 0
	movs	r3, #128
	str	r3, [r4, #28]
.L258:
	.loc 1 1602 3 is_stmt 1
	.loc 1 1602 7 is_stmt 0
	bl	HAL_GetREVID
.LVL219:
	.loc 1 1602 6
	movw	r3, #4099
	cmp	r0, r3
	bhi	.L259
	.loc 1 1604 5 is_stmt 1
	.loc 1 1604 121 is_stmt 0
	ldr	r3, .L275
	ldr	r3, [r3, #4]
	.loc 1 1604 46
	ubfx	r3, r3, #26, #5
	.loc 1 1604 44
	str	r3, [r4, #32]
.L260:
	.loc 1 1615 3 is_stmt 1
	.loc 1 1615 70 is_stmt 0
	ldr	r3, .L275
	ldr	r3, [r3]
	.loc 1 1615 6
	tst	r3, #1
	beq	.L261
	.loc 1 1617 5 is_stmt 1
	.loc 1 1617 33 is_stmt 0
	movs	r3, #1
	str	r3, [r4, #12]
.L262:
	.loc 1 1625 3 is_stmt 1
	.loc 1 1625 7 is_stmt 0
	bl	HAL_GetREVID
.LVL220:
	.loc 1 1625 6
	movw	r3, #4099
	cmp	r0, r3
	bhi	.L263
	.loc 1 1627 5 is_stmt 1
	.loc 1 1627 121 is_stmt 0
	ldr	r3, .L275
	ldr	r3, [r3, #4]
	.loc 1 1627 46
	ubfx	r3, r3, #12, #6
	.loc 1 1627 44
	str	r3, [r4, #16]
.L264:
	.loc 1 1656 3 is_stmt 1
	.loc 1 1656 70 is_stmt 0
	ldr	r3, .L275
	ldr	r3, [r3, #112]
	.loc 1 1656 6
	tst	r3, #4
	beq	.L265
	.loc 1 1658 5 is_stmt 1
	.loc 1 1658 33 is_stmt 0
	movs	r3, #5
	str	r3, [r4, #8]
.L266:
	.loc 1 1671 3 is_stmt 1
	.loc 1 1671 70 is_stmt 0
	ldr	r3, .L275
	ldr	r3, [r3, #116]
	.loc 1 1671 6
	tst	r3, #1
	beq	.L268
	.loc 1 1673 5 is_stmt 1
	.loc 1 1673 33 is_stmt 0
	movs	r3, #1
	str	r3, [r4, #20]
.L269:
	.loc 1 1681 3 is_stmt 1
	.loc 1 1681 70 is_stmt 0
	ldr	r3, .L275
	ldr	r3, [r3]
	.loc 1 1681 6
	tst	r3, #4096
	beq	.L270
	.loc 1 1683 5 is_stmt 1
	.loc 1 1683 35 is_stmt 0
	movs	r3, #1
	str	r3, [r4, #24]
.L271:
	.loc 1 1691 3 is_stmt 1
	.loc 1 1691 70 is_stmt 0
	ldr	r3, .L275
	ldr	r3, [r3]
	.loc 1 1691 6
	tst	r3, #16777216
	beq	.L272
	.loc 1 1693 5 is_stmt 1
	.loc 1 1693 37 is_stmt 0
	movs	r3, #2
	str	r3, [r4, #36]
.L273:
	.loc 1 1699 3 is_stmt 1
	.loc 1 1699 111 is_stmt 0
	ldr	r3, .L275
	ldr	r2, [r3, #40]
	.loc 1 1699 38
	and	r2, r2, #3
	.loc 1 1699 36
	str	r2, [r4, #40]
	.loc 1 1700 3 is_stmt 1
	.loc 1 1700 107 is_stmt 0
	ldr	r2, [r3, #40]
	.loc 1 1700 33
	ubfx	r2, r2, #4, #6
	.loc 1 1700 31
	str	r2, [r4, #44]
	.loc 1 1701 3 is_stmt 1
	.loc 1 1701 107 is_stmt 0
	ldr	r2, [r3, #48]
	.loc 1 1701 33
	ubfx	r2, r2, #0, #9
	.loc 1 1701 148
	adds	r2, r2, #1
	.loc 1 1701 31
	str	r2, [r4, #48]
	.loc 1 1702 3 is_stmt 1
	.loc 1 1702 107 is_stmt 0
	ldr	r2, [r3, #48]
	.loc 1 1702 33
	ubfx	r2, r2, #24, #7
	.loc 1 1702 149
	adds	r2, r2, #1
	.loc 1 1702 31
	str	r2, [r4, #60]
	.loc 1 1703 3 is_stmt 1
	.loc 1 1703 107 is_stmt 0
	ldr	r2, [r3, #48]
	.loc 1 1703 33
	ubfx	r2, r2, #9, #7
	.loc 1 1703 147
	adds	r2, r2, #1
	.loc 1 1703 31
	str	r2, [r4, #52]
	.loc 1 1704 3 is_stmt 1
	.loc 1 1704 107 is_stmt 0
	ldr	r2, [r3, #48]
	.loc 1 1704 33
	ubfx	r2, r2, #16, #7
	.loc 1 1704 149
	adds	r2, r2, #1
	.loc 1 1704 31
	str	r2, [r4, #56]
	.loc 1 1705 3 is_stmt 1
	.loc 1 1705 109 is_stmt 0
	ldr	r2, [r3, #44]
	.loc 1 1705 35
	and	r2, r2, #12
	.loc 1 1705 33
	str	r2, [r4, #64]
	.loc 1 1706 3 is_stmt 1
	.loc 1 1706 112 is_stmt 0
	ldr	r2, [r3, #44]
	.loc 1 1706 38
	ubfx	r2, r2, #1, #1
	.loc 1 1706 36
	str	r2, [r4, #68]
	.loc 1 1707 3 is_stmt 1
	.loc 1 1707 112 is_stmt 0
	ldr	r3, [r3, #52]
	.loc 1 1707 37
	ubfx	r3, r3, #3, #13
	.loc 1 1707 35
	str	r3, [r4, #72]
	.loc 1 1708 1
	pop	{r4, pc}
.LVL221:
.L254:
	.loc 1 1581 8 is_stmt 1
	.loc 1 1581 75 is_stmt 0
	ldr	r3, .L275
	ldr	r3, [r3]
	.loc 1 1581 11
	tst	r3, #65536
	beq	.L256
	.loc 1 1583 5 is_stmt 1
	.loc 1 1583 33 is_stmt 0
	mov	r3, #65536
	str	r3, [r0, #4]
	b	.L255
.L256:
	.loc 1 1587 5 is_stmt 1
	.loc 1 1587 33 is_stmt 0
	movs	r3, #0
	str	r3, [r0, #4]
	b	.L255
.L257:
	.loc 1 1598 5 is_stmt 1
	.loc 1 1598 33 is_stmt 0
	movs	r3, #0
	str	r3, [r4, #28]
	b	.L258
.LVL222:
.L259:
	.loc 1 1608 5 is_stmt 1
	.loc 1 1608 121 is_stmt 0
	ldr	r3, .L275
	ldr	r3, [r3, #12]
	.loc 1 1608 46
	ubfx	r3, r3, #24, #6
	.loc 1 1608 44
	str	r3, [r4, #32]
	b	.L260
.L261:
	.loc 1 1621 5 is_stmt 1
	.loc 1 1621 33 is_stmt 0
	movs	r3, #0
	str	r3, [r4, #12]
	b	.L262
.L263:
	.loc 1 1631 5 is_stmt 1
	.loc 1 1631 121 is_stmt 0
	ldr	r3, .L275
	ldr	r3, [r3, #4]
	.loc 1 1631 46
	ubfx	r3, r3, #24, #7
	.loc 1 1631 44
	str	r3, [r4, #16]
	b	.L264
.L265:
	.loc 1 1660 8 is_stmt 1
	.loc 1 1660 75 is_stmt 0
	ldr	r3, .L275
	ldr	r3, [r3, #112]
	.loc 1 1660 11
	tst	r3, #1
	beq	.L267
	.loc 1 1662 5 is_stmt 1
	.loc 1 1662 33 is_stmt 0
	movs	r3, #1
	str	r3, [r4, #8]
	b	.L266
.L267:
	.loc 1 1666 5 is_stmt 1
	.loc 1 1666 33 is_stmt 0
	movs	r3, #0
	str	r3, [r4, #8]
	b	.L266
.L268:
	.loc 1 1677 5 is_stmt 1
	.loc 1 1677 33 is_stmt 0
	movs	r3, #0
	str	r3, [r4, #20]
	b	.L269
.L270:
	.loc 1 1687 5 is_stmt 1
	.loc 1 1687 35 is_stmt 0
	movs	r3, #0
	str	r3, [r4, #24]
	b	.L271
.L272:
	.loc 1 1697 5 is_stmt 1
	.loc 1 1697 37 is_stmt 0
	movs	r3, #1
	str	r3, [r4, #36]
	b	.L273
.L276:
	.align	2
.L275:
	.word	1476543488
	.cfi_endproc
.LFE345:
	.size	HAL_RCC_GetOscConfig, .-HAL_RCC_GetOscConfig
	.section	.text.HAL_RCC_GetClockConfig,"ax",%progbits
	.align	1
	.global	HAL_RCC_GetClockConfig
	.syntax unified
	.thumb
	.thumb_func
	.type	HAL_RCC_GetClockConfig, %function
HAL_RCC_GetClockConfig:
.LFB346:
	.loc 1 1719 1 is_stmt 1
	.cfi_startproc
	@ args = 0, pretend = 0, frame = 0
	@ frame_needed = 0, uses_anonymous_args = 0
	@ link register save eliminated.
.LVL223:
	.loc 1 1721 3
	.loc 1 1721 32 is_stmt 0
	movs	r3, #63
	str	r3, [r0]
	.loc 1 1725 3 is_stmt 1
	.loc 1 1725 110 is_stmt 0
	ldr	r3, .L278
	ldr	r2, [r3, #16]
	.loc 1 1725 37
	and	r2, r2, #7
	.loc 1 1725 35
	str	r2, [r0, #4]
	.loc 1 1729 3 is_stmt 1
	.loc 1 1729 111 is_stmt 0
	ldr	r2, [r3, #24]
	.loc 1 1729 38
	and	r2, r2, #3840
	.loc 1 1729 36
	str	r2, [r0, #8]
	.loc 1 1732 3 is_stmt 1
	.loc 1 1732 111 is_stmt 0
	ldr	r2, [r3, #24]
	.loc 1 1732 38
	and	r2, r2, #15
	.loc 1 1732 36
	str	r2, [r0, #12]
	.loc 1 1735 3 is_stmt 1
	.loc 1 1735 112 is_stmt 0
	ldr	r2, [r3, #24]
	.loc 1 1735 39
	and	r2, r2, #112
	.loc 1 1735 37
	str	r2, [r0, #16]
	.loc 1 1738 3 is_stmt 1
	.loc 1 1738 112 is_stmt 0
	ldr	r2, [r3, #28]
	.loc 1 1738 39
	and	r2, r2, #112
	.loc 1 1738 37
	str	r2, [r0, #20]
	.loc 1 1741 3 is_stmt 1
	.loc 1 1741 112 is_stmt 0
	ldr	r2, [r3, #28]
	.loc 1 1741 39
	and	r2, r2, #1792
	.loc 1 1741 37
	str	r2, [r0, #24]
	.loc 1 1744 3 is_stmt 1
	.loc 1 1744 112 is_stmt 0
	ldr	r3, [r3, #32]
	.loc 1 1744 39
	and	r3, r3, #112
	.loc 1 1744 37
	str	r3, [r0, #28]
	.loc 1 1766 3 is_stmt 1
	.loc 1 1766 91 is_stmt 0
	ldr	r3, .L278+4
	ldr	r3, [r3]
	.loc 1 1766 16
	and	r3, r3, #15
	.loc 1 1766 14
	str	r3, [r1]
	.loc 1 1767 1
	bx	lr
.L279:
	.align	2
.L278:
	.word	1476543488
	.word	1375739904
	.cfi_endproc
.LFE346:
	.size	HAL_RCC_GetClockConfig, .-HAL_RCC_GetClockConfig
	.section	.text.HAL_RCC_CSSCallback,"ax",%progbits
	.align	1
	.weak	HAL_RCC_CSSCallback
	.syntax unified
	.thumb
	.thumb_func
	.type	HAL_RCC_CSSCallback, %function
HAL_RCC_CSSCallback:
.LFB348:
	.loc 1 1792 1 is_stmt 1
	.cfi_startproc
	@ args = 0, pretend = 0, frame = 0
	@ frame_needed = 0, uses_anonymous_args = 0
	@ link register save eliminated.
	.loc 1 1796 1
	bx	lr
	.cfi_endproc
.LFE348:
	.size	HAL_RCC_CSSCallback, .-HAL_RCC_CSSCallback
	.section	.text.HAL_RCC_NMI_IRQHandler,"ax",%progbits
	.align	1
	.global	HAL_RCC_NMI_IRQHandler
	.syntax unified
	.thumb
	.thumb_func
	.type	HAL_RCC_NMI_IRQHandler, %function
HAL_RCC_NMI_IRQHandler:
.LFB347:
	.loc 1 1775 1
	.cfi_startproc
	@ args = 0, pretend = 0, frame = 0
	@ frame_needed = 0, uses_anonymous_args = 0
	push	{r3, lr}
	.cfi_def_cfa_offset 8
	.cfi_offset 3, -8
	.cfi_offset 14, -4
	.loc 1 1777 3
	.loc 1 1777 71 is_stmt 0
	ldr	r3, .L285
	ldr	r3, [r3, #100]
	.loc 1 1777 6
	tst	r3, #1024
	bne	.L284
.L281:
	.loc 1 1785 1
	pop	{r3, pc}
.L284:
	.loc 1 1780 5 is_stmt 1
	bl	HAL_RCC_CSSCallback
.LVL224:
	.loc 1 1783 5
	.loc 1 1783 75 is_stmt 0
	ldr	r3, .L285
	mov	r2, #1024
	str	r2, [r3, #104]
	.loc 1 1785 1
	b	.L281
.L286:
	.align	2
.L285:
	.word	1476543488
	.cfi_endproc
.LFE347:
	.size	HAL_RCC_NMI_IRQHandler, .-HAL_RCC_NMI_IRQHandler
	.text
.Letext0:
	.file 2 "m:\\noinstall\\arm-gnu-toolchain-12.2.rel1-mingw-w64-i686-arm-none-eabi\\arm-none-eabi\\include\\machine\\_default_types.h"
	.file 3 "m:\\noinstall\\arm-gnu-toolchain-12.2.rel1-mingw-w64-i686-arm-none-eabi\\arm-none-eabi\\include\\sys\\_stdint.h"
	.file 4 "D:/RTOS/Board/YD-STM32H7xxVx_ClassicV19/cmake-build-debug/_deps/stm32h7xx_cmsis_device-src/Include/system_stm32h7xx.h"
	.file 5 "D:/RTOS/Board/YD-STM32H7xxVx_ClassicV19/cmake-build-debug/_deps/stm32h7xx_cmsis_device-src/Include/stm32h743xx.h"
	.file 6 "m:\\noinstall\\arm-gnu-toolchain-12.2.rel1-mingw-w64-i686-arm-none-eabi\\arm-none-eabi\\include\\math.h"
	.file 7 "D:/RTOS/Board/YD-STM32H7xxVx_ClassicV19/cmake-build-debug/_deps/stm32h7xx_hal_driver-src/Inc/stm32h7xx_hal_def.h"
	.file 8 "D:/RTOS/Board/YD-STM32H7xxVx_ClassicV19/cmake-build-debug/_deps/stm32h7xx_hal_driver-src/Inc/stm32h7xx_hal_rcc.h"
	.file 9 "D:/RTOS/Board/YD-STM32H7xxVx_ClassicV19/cmake-build-debug/_deps/stm32h7xx_hal_driver-src/Inc/stm32h7xx_hal_gpio.h"
	.file 10 "D:/RTOS/Board/YD-STM32H7xxVx_ClassicV19/cmake-build-debug/_deps/stm32h7xx_hal_driver-src/Inc/stm32h7xx_hal.h"