	.cpu cortex-m7
	.arch armv7e-m
	.fpu fpv5-d16
	.eabi_attribute 28, 1
	.eabi_attribute 20, 1
	.eabi_attribute 21, 1
	.eabi_attribute 23, 3
	.eabi_attribute 24, 1
	.eabi_attribute 25, 1
	.eabi_attribute 26, 1
	.eabi_attribute 30, 1
	.eabi_attribute 34, 1
	.eabi_attribute 18, 4
	.file	"stm32h7xx_hal_pwr.c"
	.text
.Ltext0:
	.cfi_sections	.debug_frame
	.file 1 "D:/RTOS/Board/YD-STM32H7xxVx_ClassicV19/cmake-build-debug/_deps/stm32h7xx_hal_driver-src/Src/stm32h7xx_hal_pwr.c"
	.section	.text.HAL_PWR_DeInit,"ax",%progbits
	.align	1
	.global	HAL_PWR_DeInit
	.syntax unified
	.thumb
	.thumb_func
	.type	HAL_PWR_DeInit, %function
HAL_PWR_DeInit:
.LFB335:
	.loc 1 226 1
	.cfi_startproc
	@ args = 0, pretend = 0, frame = 0
	@ frame_needed = 0, uses_anonymous_args = 0
	@ link register save eliminated.
	.loc 1 227 1
	bx	lr
	.cfi_endproc
.LFE335:
	.size	HAL_PWR_DeInit, .-HAL_PWR_DeInit
	.section	.text.HAL_PWR_EnableBkUpAccess,"ax",%progbits
	.align	1
	.global	HAL_PWR_EnableBkUpAccess
	.syntax unified
	.thumb
	.thumb_func
	.type	HAL_PWR_EnableBkUpAccess, %function
HAL_PWR_EnableBkUpAccess:
.LFB336:
	.loc 1 237 1
	.cfi_startproc
	@ args = 0, pretend = 0, frame = 0
	@ frame_needed = 0, uses_anonymous_args = 0
	@ link register save eliminated.
	.loc 1 239 3
	.loc 1 239 67 is_stmt 0
	ldr	r2, .L3
	ldr	r3, [r2]
	.loc 1 239 74
	orr	r3, r3, #256
	str	r3, [r2]
	.loc 1 240 1
	bx	lr
.L4:
	.align	2
.L3:
	.word	1476544512
	.cfi_endproc
.LFE336:
	.size	HAL_PWR_EnableBkUpAccess, .-HAL_PWR_EnableBkUpAccess
	.section	.text.HAL_PWR_DisableBkUpAccess,"ax",%progbits
	.align	1
	.global	HAL_PWR_DisableBkUpAccess
	.syntax unified
	.thumb
	.thumb_func
	.type	HAL_PWR_DisableBkUpAccess, %function
HAL_PWR_DisableBkUpAccess:
.LFB337:
	.loc 1 250 1 is_stmt 1
	.cfi_startproc
	@ args = 0, pretend = 0, frame = 0
	@ frame_needed = 0, uses_anonymous_args = 0
	@ link register save eliminated.
	.loc 1 252 3
	.loc 1 252 67 is_stmt 0
	ldr	r2, .L6
	ldr	r3, [r2]
	.loc 1 252 74
	bic	r3, r3, #256
	str	r3, [r2]
	.loc 1 253 1
	bx	lr
.L7:
	.align	2
.L6:
	.word	1476544512
	.cfi_endproc
.LFE337:
	.size	HAL_PWR_DisableBkUpAccess, .-HAL_PWR_DisableBkUpAccess
	.section	.text.HAL_PWR_ConfigPVD,"ax",%progbits
	.align	1
	.global	HAL_PWR_ConfigPVD
	.syntax unified
	.thumb
	.thumb_func
	.type	HAL_PWR_ConfigPVD, %function
HAL_PWR_ConfigPVD:
.LFB338:
	.loc 1 416 1 is_stmt 1
	.cfi_startproc
	@ args = 0, pretend = 0, frame = 0
	@ frame_needed = 0, uses_anonymous_args = 0
	@ link register save eliminated.
.LVL0:
	.loc 1 418 3
	.loc 1 418 6 is_stmt 0
	mov	r2, r0
	cmp	r0, #0
	beq	.L8
	.loc 1 424 3 is_stmt 1
	.loc 1 425 3
	.loc 1 428 3
	.loc 1 428 146 is_stmt 0
	ldr	r1, .L13
	ldr	r3, [r1]
	.loc 1 428 155
	bic	r3, r3, #224
	.loc 1 428 192
	ldr	r0, [r0]
.LVL1:
	.loc 1 428 179
	orrs	r3, r3, r0
	.loc 1 428 76
	str	r3, [r1]
	.loc 1 432 3 is_stmt 1
	.loc 1 432 68 is_stmt 0
	mov	r3, #1476395008
	ldr	r1, [r3, #132]
	.loc 1 432 76
	bic	r1, r1, #65536
	str	r1, [r3, #132]
	.loc 1 433 3 is_stmt 1
	.loc 1 433 68 is_stmt 0
	ldr	r1, [r3, #128]
	.loc 1 433 76
	bic	r1, r1, #65536
	str	r1, [r3, #128]
	.loc 1 436 3 is_stmt 1
	.loc 1 436 68 is_stmt 0
	ldr	r1, [r3]
	.loc 1 436 77
	bic	r1, r1, #65536
	str	r1, [r3]
	.loc 1 437 3 is_stmt 1
	.loc 1 437 68 is_stmt 0
	ldr	r1, [r3, #4]
	.loc 1 437 77
	bic	r1, r1, #65536
	str	r1, [r3, #4]
	.loc 1 441 3 is_stmt 1
	.loc 1 441 18 is_stmt 0
	ldr	r3, [r2, #4]
	.loc 1 441 6
	tst	r3, #65536
	beq	.L10
	.loc 1 443 5 is_stmt 1
	.loc 1 443 70 is_stmt 0
	mov	r1, #1476395008
	ldr	r3, [r1, #128]
	.loc 1 443 78
	orr	r3, r3, #65536
	str	r3, [r1, #128]
.L10:
	.loc 1 447 3 is_stmt 1
	.loc 1 447 18 is_stmt 0
	ldr	r3, [r2, #4]
	.loc 1 447 6
	tst	r3, #131072
	beq	.L11
	.loc 1 449 5 is_stmt 1
	.loc 1 449 70 is_stmt 0
	mov	r1, #1476395008
	ldr	r3, [r1, #132]
	.loc 1 449 78
	orr	r3, r3, #65536
	str	r3, [r1, #132]
.L11:
	.loc 1 454 3 is_stmt 1
	.loc 1 454 18 is_stmt 0
	ldr	r3, [r2, #4]
	.loc 1 454 6
	tst	r3, #1
	beq	.L12
	.loc 1 456 5 is_stmt 1
	.loc 1 456 70 is_stmt 0
	mov	r1, #1476395008
	ldr	r3, [r1]
	.loc 1 456 79
	orr	r3, r3, #65536
	str	r3, [r1]
.L12:
	.loc 1 460 3 is_stmt 1
	.loc 1 460 18 is_stmt 0
	ldr	r3, [r2, #4]
	.loc 1 460 6
	tst	r3, #2
	beq	.L8
	.loc 1 462 5 is_stmt 1
	.loc 1 462 70 is_stmt 0
	mov	r2, #1476395008
.LVL2:
	ldr	r3, [r2, #4]
	.loc 1 462 79
	orr	r3, r3, #65536
	str	r3, [r2, #4]
.L8:
	.loc 1 464 1
	bx	lr
.L14:
	.align	2
.L13:
	.word	1476544512
	.cfi_endproc
.LFE338:
	.size	HAL_PWR_ConfigPVD, .-HAL_PWR_ConfigPVD
	.section	.text.HAL_PWR_EnablePVD,"ax",%progbits
	.align	1
	.global	HAL_PWR_EnablePVD
	.syntax unified
	.thumb
	.thumb_func
	.type	HAL_PWR_EnablePVD, %function
HAL_PWR_EnablePVD:
.LFB339:
	.loc 1 471 1 is_stmt 1
	.cfi_startproc
	@ args = 0, pretend = 0, frame = 0
	@ frame_needed = 0, uses_anonymous_args = 0
	@ link register save eliminated.
	.loc 1 473 3
	.loc 1 473 67 is_stmt 0
	ldr	r2, .L16
	ldr	r3, [r2]
	.loc 1 473 74
	orr	r3, r3, #16
	str	r3, [r2]
	.loc 1 474 1
	bx	lr
.L17:
	.align	2
.L16:
	.word	1476544512
	.cfi_endproc
.LFE339:
	.size	HAL_PWR_EnablePVD, .-HAL_PWR_EnablePVD
	.section	.text.HAL_PWR_DisablePVD,"ax",%progbits
	.align	1
	.global	HAL_PWR_DisablePVD
	.syntax unified
	.thumb
	.thumb_func
	.type	HAL_PWR_DisablePVD, %function
HAL_PWR_DisablePVD:
.LFB340:
	.loc 1 481 1 is_stmt 1
	.cfi_startproc
	@ args = 0, pretend = 0, frame = 0
	@ frame_needed = 0, uses_anonymous_args = 0
	@ link register save eliminated.
	.loc 1 483 3
	.loc 1 483 67 is_stmt 0
	ldr	r2, .L19
	ldr	r3, [r2]
	.loc 1 483 74
	bic	r3, r3, #16
	str	r3, [r2]
	.loc 1 484 1
	bx	lr
.L20:
	.align	2
.L19:
	.word	1476544512
	.cfi_endproc
.LFE340:
	.size	HAL_PWR_DisablePVD, .-HAL_PWR_DisablePVD
	.section	.text.HAL_PWR_EnableWakeUpPin,"ax",%progbits
	.align	1
	.global	HAL_PWR_EnableWakeUpPin
	.syntax unified
	.thumb
	.thumb_func
	.type	HAL_PWR_EnableWakeUpPin, %function
HAL_PWR_EnableWakeUpPin:
.LFB341:
	.loc 1 508 1 is_stmt 1
	.cfi_startproc
	@ args = 0, pretend = 0, frame = 0
	@ frame_needed = 0, uses_anonymous_args = 0
	@ link register save eliminated.
.LVL3:
	.loc 1 510 3
	.loc 1 516 3
	.loc 1 516 150 is_stmt 0
	ldr	r2, .L22
	ldr	r1, [r2, #40]
	.loc 1 516 163
	ldr	r3, .L22+4
	ands	r3, r3, r1
	.loc 1 516 185
	orrs	r3, r3, r0
	.loc 1 516 80
	str	r3, [r2, #40]
	.loc 1 517 1
	bx	lr
.L23:
	.align	2
.L22:
	.word	1476544512
	.word	-268386112
	.cfi_endproc
.LFE341:
	.size	HAL_PWR_EnableWakeUpPin, .-HAL_PWR_EnableWakeUpPin
	.section	.text.HAL_PWR_DisableWakeUpPin,"ax",%progbits
	.align	1
	.global	HAL_PWR_DisableWakeUpPin
	.syntax unified
	.thumb
	.thumb_func
	.type	HAL_PWR_DisableWakeUpPin, %function
HAL_PWR_DisableWakeUpPin:
.LFB342:
	.loc 1 537 1 is_stmt 1
	.cfi_startproc
	@ args = 0, pretend = 0, frame = 0
	@ frame_needed = 0, uses_anonymous_args = 0
	@ link register save eliminated.
.LVL4:
	.loc 1 539 3
	.loc 1 542 3
	.loc 1 542 67 is_stmt 0
	ldr	r2, .L25
	ldr	r3, [r2, #40]
	.loc 1 542 101
	and	r0, r0, #63
.LVL5:
	.loc 1 542 78
	bic	r3, r3, r0
	str	r3, [r2, #40]
	.loc 1 543 1
	bx	lr
.L26:
	.align	2
.L25:
	.word	1476544512
	.cfi_endproc
.LFE342:
	.size	HAL_PWR_DisableWakeUpPin, .-HAL_PWR_DisableWakeUpPin
	.section	.text.HAL_PWR_EnterSLEEPMode,"ax",%progbits
	.align	1
	.global	HAL_PWR_EnterSLEEPMode
	.syntax unified
	.thumb
	.thumb_func
	.type	HAL_PWR_EnterSLEEPMode, %function
HAL_PWR_EnterSLEEPMode:
.LFB343:
	.loc 1 565 1 is_stmt 1
	.cfi_startproc
	@ args = 0, pretend = 0, frame = 0
	@ frame_needed = 0, uses_anonymous_args = 0
	@ link register save eliminated.
.LVL6:
	.loc 1 567 3
	.loc 1 568 3
	.loc 1 571 3
	.loc 1 574 3
	.loc 1 574 48 is_stmt 0
	ldr	r2, .L31
	ldr	r3, [r2, #16]
	.loc 1 574 55
	bic	r3, r3, #4
	str	r3, [r2, #16]
	.loc 1 577 3 is_stmt 1
	.loc 1 577 6 is_stmt 0
	cmp	r1, #1
	beq	.L30
	.loc 1 585 5 is_stmt 1
	.syntax unified
@ 585 "D:/RTOS/Board/YD-STM32H7xxVx_ClassicV19/cmake-build-debug/_deps/stm32h7xx_hal_driver-src/Src/stm32h7xx_hal_pwr.c" 1
	wfe
@ 0 "" 2
	.loc 1 587 1 is_stmt 0
	.thumb
	.syntax unified
	bx	lr
.L30:
	.loc 1 580 5 is_stmt 1
	.syntax unified
@ 580 "D:/RTOS/Board/YD-STM32H7xxVx_ClassicV19/cmake-build-debug/_deps/stm32h7xx_hal_driver-src/Src/stm32h7xx_hal_pwr.c" 1
	wfi
@ 0 "" 2
	.thumb
	.syntax unified
	bx	lr
.L32:
	.align	2
.L31:
	.word	-536810240
	.cfi_endproc
.LFE343:
	.size	HAL_PWR_EnterSLEEPMode, .-HAL_PWR_EnterSLEEPMode
	.section	.text.HAL_PWR_EnterSTOPMode,"ax",%progbits
	.align	1
	.global	HAL_PWR_EnterSTOPMode
	.syntax unified
	.thumb
	.thumb_func
	.type	HAL_PWR_EnterSTOPMode, %function
HAL_PWR_EnterSTOPMode:
.LFB344:
	.loc 1 619 1
	.cfi_startproc
	@ args = 0, pretend = 0, frame = 0
	@ frame_needed = 0, uses_anonymous_args = 0
	@ link register save eliminated.
.LVL7:
	.loc 1 621 3
	.loc 1 622 3
	.loc 1 625 3
	.loc 1 625 146 is_stmt 0
	ldr	r3, .L37
	ldr	r2, [r3]
	.loc 1 625 155
	bic	r2, r2, #1
	.loc 1 625 179
	orrs	r2, r2, r0
	.loc 1 625 76
	str	r2, [r3]
	.loc 1 642 3 is_stmt 1
	.loc 1 642 67 is_stmt 0
	ldr	r2, [r3, #16]
	.loc 1 642 76
	bic	r2, r2, #5
	str	r2, [r3, #16]
	.loc 1 646 3 is_stmt 1
	.loc 1 646 67 is_stmt 0
	ldr	r2, [r3, #16]
	.loc 1 646 76
	bic	r2, r2, #2
	str	r2, [r3, #16]
	.loc 1 651 3 is_stmt 1
	.loc 1 651 48 is_stmt 0
	ldr	r2, .L37+4
	ldr	r3, [r2, #16]
	.loc 1 651 55
	orr	r3, r3, #4
	str	r3, [r2, #16]
	.loc 1 654 3 is_stmt 1
.LBB10:
.LBB11:
	.file 2 "d:\\rtos\\board\\yd-stm32h7xxvx_classicv19\\cmake-build-debug\\_deps\\stm32h7xx_cmsis_include\\drivers\\cmsis\\include\\cmsis_gcc.h"
	.loc 2 946 3
	.syntax unified
@ 946 "d:\rtos\board\yd-stm32h7xxvx_classicv19\cmake-build-debug\_deps\stm32h7xx_cmsis_include\drivers\cmsis\include\cmsis_gcc.h" 1
	dsb 0xF
@ 0 "" 2
	.thumb
	.syntax unified
.LBE11:
.LBE10:
	.loc 1 655 3
.LBB12:
.LBB13:
	.loc 2 935 3
	.syntax unified
@ 935 "d:\rtos\board\yd-stm32h7xxvx_classicv19\cmake-build-debug\_deps\stm32h7xx_cmsis_include\drivers\cmsis\include\cmsis_gcc.h" 1
	isb 0xF
@ 0 "" 2
	.thumb
	.syntax unified
.LBE13:
.LBE12:
	.loc 1 658 3
	.loc 1 658 6 is_stmt 0
	cmp	r1, #1
	beq	.L36
	.loc 1 666 5 is_stmt 1
	.syntax unified
@ 666 "D:/RTOS/Board/YD-STM32H7xxVx_ClassicV19/cmake-build-debug/_deps/stm32h7xx_hal_driver-src/Src/stm32h7xx_hal_pwr.c" 1
	wfe
@ 0 "" 2
	.thumb
	.syntax unified
.L35:
	.loc 1 670 3
	.loc 1 670 48 is_stmt 0
	ldr	r2, .L37+4
	ldr	r3, [r2, #16]
	.loc 1 670 55
	bic	r3, r3, #4
	str	r3, [r2, #16]
	.loc 1 671 1
	bx	lr
.L36:
	.loc 1 661 5 is_stmt 1
	.syntax unified
@ 661 "D:/RTOS/Board/YD-STM32H7xxVx_ClassicV19/cmake-build-debug/_deps/stm32h7xx_hal_driver-src/Src/stm32h7xx_hal_pwr.c" 1
	wfi
@ 0 "" 2
	.thumb
	.syntax unified
	b	.L35
.L38:
	.align	2
.L37:
	.word	1476544512
	.word	-536810240
	.cfi_endproc
.LFE344:
	.size	HAL_PWR_EnterSTOPMode, .-HAL_PWR_EnterSTOPMode
	.section	.text.HAL_PWR_EnterSTANDBYMode,"ax",%progbits
	.align	1
	.global	HAL_PWR_EnterSTANDBYMode
	.syntax unified
	.thumb
	.thumb_func
	.type	HAL_PWR_EnterSTANDBYMode, %function
HAL_PWR_EnterSTANDBYMode:
.LFB345:
	.loc 1 690 1
	.cfi_startproc
	@ args = 0, pretend = 0, frame = 0
	@ frame_needed = 0, uses_anonymous_args = 0
	@ link register save eliminated.
	.loc 1 708 3
	.loc 1 708 67 is_stmt 0
	ldr	r3, .L40
	ldr	r2, [r3, #16]
	.loc 1 708 76
	orr	r2, r2, #5
	str	r2, [r3, #16]
	.loc 1 712 3 is_stmt 1
	.loc 1 712 67 is_stmt 0
	ldr	r2, [r3, #16]
	.loc 1 712 76
	orr	r2, r2, #2
	str	r2, [r3, #16]
	.loc 1 717 3 is_stmt 1
	.loc 1 717 48 is_stmt 0
	ldr	r2, .L40+4
	ldr	r3, [r2, #16]
	.loc 1 717 55
	orr	r3, r3, #4
	str	r3, [r2, #16]
	.loc 1 720 3 is_stmt 1
.LBB14:
.LBB15:
	.loc 2 946 3
	.syntax unified
@ 946 "d:\rtos\board\yd-stm32h7xxvx_classicv19\cmake-build-debug\_deps\stm32h7xx_cmsis_include\drivers\cmsis\include\cmsis_gcc.h" 1
	dsb 0xF
@ 0 "" 2
	.thumb
	.syntax unified
.LBE15:
.LBE14:
	.loc 1 721 3
.LBB16:
.LBB17:
	.loc 2 935 3
	.syntax unified
@ 935 "d:\rtos\board\yd-stm32h7xxvx_classicv19\cmake-build-debug\_deps\stm32h7xx_cmsis_include\drivers\cmsis\include\cmsis_gcc.h" 1
	isb 0xF
@ 0 "" 2
	.thumb
	.syntax unified
.LBE17:
.LBE16:
	.loc 1 729 3
	.syntax unified
@ 729 "D:/RTOS/Board/YD-STM32H7xxVx_ClassicV19/cmake-build-debug/_deps/stm32h7xx_hal_driver-src/Src/stm32h7xx_hal_pwr.c" 1
	wfi
@ 0 "" 2
	.loc 1 730 1 is_stmt 0
	.thumb
	.syntax unified
	bx	lr
.L41:
	.align	2
.L40:
	.word	1476544512
	.word	-536810240
	.cfi_endproc
.LFE345:
	.size	HAL_PWR_EnterSTANDBYMode, .-HAL_PWR_EnterSTANDBYMode
	.section	.text.HAL_PWR_EnableSleepOnExit,"ax",%progbits
	.align	1
	.global	HAL_PWR_EnableSleepOnExit
	.syntax unified
	.thumb
	.thumb_func
	.type	HAL_PWR_EnableSleepOnExit, %function
HAL_PWR_EnableSleepOnExit:
.LFB346:
	.loc 1 742 1 is_stmt 1
	.cfi_startproc
	@ args = 0, pretend = 0, frame = 0
	@ frame_needed = 0, uses_anonymous_args = 0
	@ link register save eliminated.
	.loc 1 744 3
	.loc 1 744 48 is_stmt 0
	ldr	r2, .L43
	ldr	r3, [r2, #16]
	.loc 1 744 55
	orr	r3, r3, #2
	str	r3, [r2, #16]
	.loc 1 745 1
	bx	lr
.L44:
	.align	2
.L43:
	.word	-536810240
	.cfi_endproc
.LFE346:
	.size	HAL_PWR_EnableSleepOnExit, .-HAL_PWR_EnableSleepOnExit
	.section	.text.HAL_PWR_DisableSleepOnExit,"ax",%progbits
	.align	1
	.global	HAL_PWR_DisableSleepOnExit
	.syntax unified
	.thumb
	.thumb_func
	.type	HAL_PWR_DisableSleepOnExit, %function
HAL_PWR_DisableSleepOnExit:
.LFB347:
	.loc 1 755 1 is_stmt 1
	.cfi_startproc
	@ args = 0, pretend = 0, frame = 0
	@ frame_needed = 0, uses_anonymous_args = 0
	@ link register save eliminated.
	.loc 1 757 3
	.loc 1 757 48 is_stmt 0
	ldr	r2, .L46
	ldr	r3, [r2, #16]
	.loc 1 757 55
	bic	r3, r3, #2
	str	r3, [r2, #16]
	.loc 1 758 1
	bx	lr
.L47:
	.align	2
.L46:
	.word	-536810240
	.cfi_endproc
.LFE347:
	.size	HAL_PWR_DisableSleepOnExit, .-HAL_PWR_DisableSleepOnExit
	.section	.text.HAL_PWR_EnableSEVOnPend,"ax",%progbits
	.align	1
	.global	HAL_PWR_EnableSEVOnPend
	.syntax unified
	.thumb
	.thumb_func
	.type	HAL_PWR_EnableSEVOnPend, %function
HAL_PWR_EnableSEVOnPend:
.LFB348:
	.loc 1 768 1 is_stmt 1
	.cfi_startproc
	@ args = 0, pretend = 0, frame = 0
	@ frame_needed = 0, uses_anonymous_args = 0
	@ link register save eliminated.
	.loc 1 770 3
	.loc 1 770 48 is_stmt 0
	ldr	r2, .L49
	ldr	r3, [r2, #16]
	.loc 1 770 55
	orr	r3, r3, #16
	str	r3, [r2, #16]
	.loc 1 771 1
	bx	lr
.L50:
	.align	2
.L49:
	.word	-536810240
	.cfi_endproc
.LFE348:
	.size	HAL_PWR_EnableSEVOnPend, .-HAL_PWR_EnableSEVOnPend
	.section	.text.HAL_PWR_DisableSEVOnPend,"ax",%progbits
	.align	1
	.global	HAL_PWR_DisableSEVOnPend
	.syntax unified
	.thumb
	.thumb_func
	.type	HAL_PWR_DisableSEVOnPend, %function
HAL_PWR_DisableSEVOnPend:
.LFB349:
	.loc 1 780 1 is_stmt 1
	.cfi_startproc
	@ args = 0, pretend = 0, frame = 0
	@ frame_needed = 0, uses_anonymous_args = 0
	@ link register save eliminated.
	.loc 1 782 3
	.loc 1 782 48 is_stmt 0
	ldr	r2, .L52
	ldr	r3, [r2, #16]
	.loc 1 782 55
	bic	r3, r3, #16
	str	r3, [r2, #16]
	.loc 1 783 1
	bx	lr
.L53:
	.align	2
.L52:
	.word	-536810240
	.cfi_endproc
.LFE349:
	.size	HAL_PWR_DisableSEVOnPend, .-HAL_PWR_DisableSEVOnPend
	.section	.text.HAL_PWR_PVDCallback,"ax",%progbits
	.align	1
	.weak	HAL_PWR_PVDCallback
	.syntax unified
	.thumb
	.thumb_func
	.type	HAL_PWR_PVDCallback, %function
HAL_PWR_PVDCallback:
.LFB351:
	.loc 1 854 1 is_stmt 1
	.cfi_startproc
	@ args = 0, pretend = 0, frame = 0
	@ frame_needed = 0, uses_anonymous_args = 0
	@ link register save eliminated.
	.loc 1 858 1
	bx	lr
	.cfi_endproc
.LFE351:
	.size	HAL_PWR_PVDCallback, .-HAL_PWR_PVDCallback
	.section	.text.HAL_PWR_PVD_IRQHandler,"ax",%progbits
	.align	1
	.global	HAL_PWR_PVD_IRQHandler
	.syntax unified
	.thumb
	.thumb_func
	.type	HAL_PWR_PVD_IRQHandler, %function
HAL_PWR_PVD_IRQHandler:
.LFB350:
	.loc 1 809 1
	.cfi_startproc
	@ args = 0, pretend = 0, frame = 0
	@ frame_needed = 0, uses_anonymous_args = 0
	push	{r3, lr}
	.cfi_def_cfa_offset 8
	.cfi_offset 3, -8
	.cfi_offset 14, -4
	.loc 1 838 3
	.loc 1 838 74 is_stmt 0
	mov	r3, #1476395008
	ldr	r3, [r3, #136]
	.loc 1 838 6
	tst	r3, #65536
	bne	.L58
.L55:
	.loc 1 847 1
	pop	{r3, pc}
.L58:
	.loc 1 841 5 is_stmt 1
	.loc 1 841 70 is_stmt 0
	mov	r2, #1476395008
	ldr	r3, [r2, #136]
	.loc 1 841 77
	orr	r3, r3, #65536
	str	r3, [r2, #136]
	.loc 1 844 5 is_stmt 1
	bl	HAL_PWR_PVDCallback
.LVL8:
	.loc 1 847 1 is_stmt 0
	b	.L55
	.cfi_endproc
.LFE350:
	.size	HAL_PWR_PVD_IRQHandler, .-HAL_PWR_PVD_IRQHandler
	.text
.Letext0:
	.file 3 "m:\\noinstall\\arm-gnu-toolchain-12.2.rel1-mingw-w64-i686-arm-none-eabi\\arm-none-eabi\\include\\machine\\_default_types.h"
	.file 4 "m:\\noinstall\\arm-gnu-toolchain-12.2.rel1-mingw-w64-i686-arm-none-eabi\\arm-none-eabi\\include\\sys\\_stdint.h"
	.file 5 "d:\\rtos\\board\\yd-stm32h7xxvx_classicv19\\cmake-build-debug\\_deps\\stm32h7xx_cmsis_include\\drivers\\cmsis\\include\\core_cm7.h"
	.file 6 "D:/RTOS/Board/YD-STM32H7xxVx_ClassicV19/cmake-build-debug/_deps/stm32h7xx_cmsis_device-src/Include/stm32h743xx.h"
	.file 7 "D:/RTOS/Board/YD-STM32H7xxVx_ClassicV19/cmake-build-debug/_deps/stm32h7xx_hal_driver-src/Inc/stm32h7xx_hal_pwr.h"