	.cpu cortex-m7
	.arch armv7e-m
	.fpu fpv5-d16
	.eabi_attribute 28, 1
	.eabi_attribute 20, 1
	.eabi_attribute 21, 1
	.eabi_attribute 23, 3
	.eabi_attribute 24, 1
	.eabi_attribute 25, 1
	.eabi_attribute 26, 1
	.eabi_attribute 30, 1
	.eabi_attribute 34, 1
	.eabi_attribute 18, 4
	.file	"stm32h7xx_hal_eth_ex.c"
	.text
.Ltext0:
	.cfi_sections	.debug_frame
	.file 1 "D:/RTOS/Board/YD-STM32H7xxVx_ClassicV19/cmake-build-debug/_deps/stm32h7xx_hal_driver-src/Src/stm32h7xx_hal_eth_ex.c"
	.section	.text.HAL_ETHEx_EnableARPOffload,"ax",%progbits
	.align	1
	.global	HAL_ETHEx_EnableARPOffload
	.syntax unified
	.thumb
	.thumb_func
	.type	HAL_ETHEx_EnableARPOffload, %function
HAL_ETHEx_EnableARPOffload:
.LFB335:
	.loc 1 98 1
	.cfi_startproc
	@ args = 0, pretend = 0, frame = 0
	@ frame_needed = 0, uses_anonymous_args = 0
	@ link register save eliminated.
.LVL0:
	.loc 1 99 3
	.loc 1 99 9 is_stmt 0
	ldr	r2, [r0]
	.loc 1 99 19
	ldr	r3, [r2]
	.loc 1 99 28
	orr	r3, r3, #-2147483648
	str	r3, [r2]
	.loc 1 100 1
	bx	lr
	.cfi_endproc
.LFE335:
	.size	HAL_ETHEx_EnableARPOffload, .-HAL_ETHEx_EnableARPOffload
	.section	.text.HAL_ETHEx_DisableARPOffload,"ax",%progbits
	.align	1
	.global	HAL_ETHEx_DisableARPOffload
	.syntax unified
	.thumb
	.thumb_func
	.type	HAL_ETHEx_DisableARPOffload, %function
HAL_ETHEx_DisableARPOffload:
.LFB336:
	.loc 1 109 1 is_stmt 1
	.cfi_startproc
	@ args = 0, pretend = 0, frame = 0
	@ frame_needed = 0, uses_anonymous_args = 0
	@ link register save eliminated.
.LVL1:
	.loc 1 110 3
	.loc 1 110 9 is_stmt 0
	ldr	r2, [r0]
	.loc 1 110 19
	ldr	r3, [r2]
	.loc 1 110 28
	bic	r3, r3, #-2147483648
	str	r3, [r2]
	.loc 1 111 1
	bx	lr
	.cfi_endproc
.LFE336:
	.size	HAL_ETHEx_DisableARPOffload, .-HAL_ETHEx_DisableARPOffload
	.section	.text.HAL_ETHEx_SetARPAddressMatch,"ax",%progbits
	.align	1
	.global	HAL_ETHEx_SetARPAddressMatch
	.syntax unified
	.thumb
	.thumb_func
	.type	HAL_ETHEx_SetARPAddressMatch, %function
HAL_ETHEx_SetARPAddressMatch:
.LFB337:
	.loc 1 121 1 is_stmt 1
	.cfi_startproc
	@ args = 0, pretend = 0, frame = 0
	@ frame_needed = 0, uses_anonymous_args = 0
	@ link register save eliminated.
.LVL2:
	.loc 1 122 3
	.loc 1 122 9 is_stmt 0
	ldr	r3, [r0]
	.loc 1 122 31
	str	r1, [r3, #528]
	.loc 1 123 1
	bx	lr
	.cfi_endproc
.LFE337:
	.size	HAL_ETHEx_SetARPAddressMatch, .-HAL_ETHEx_SetARPAddressMatch
	.section	.text.HAL_ETHEx_SetL4FilterConfig,"ax",%progbits
	.align	1
	.global	HAL_ETHEx_SetL4FilterConfig
	.syntax unified
	.thumb
	.thumb_func
	.type	HAL_ETHEx_SetL4FilterConfig, %function
HAL_ETHEx_SetL4FilterConfig:
.LFB338:
	.loc 1 140 1 is_stmt 1
	.cfi_startproc
	@ args = 0, pretend = 0, frame = 0
	@ frame_needed = 0, uses_anonymous_args = 0
	@ link register save eliminated.
.LVL3:
	.loc 1 141 3
	.loc 1 141 6 is_stmt 0
	cmp	r2, #0
	beq	.L8
	.loc 1 140 1
	push	{r4, r5}
	.cfi_def_cfa_offset 8
	.cfi_offset 4, -8
	.cfi_offset 5, -4
	mov	r3, r2
	.loc 1 146 3 is_stmt 1
	.loc 1 146 6 is_stmt 0
	cbnz	r1, .L6
	.loc 1 149 5 is_stmt 1
	.loc 1 149 49 is_stmt 0
	ldr	r4, [r0]
	.loc 1 149 59
	ldr	r2, [r4, #2304]
.LVL4:
	.loc 1 149 75
	bic	r2, r2, #3997696
	.loc 1 149 197
	ldr	r1, [r3]
.LVL5:
	.loc 1 149 208
	ldr	r5, [r3, #4]
	orrs	r1, r1, r5
	.loc 1 149 246
	ldr	r5, [r3, #8]
	orrs	r1, r1, r5
	.loc 1 149 178
	orrs	r2, r2, r1
	.loc 1 149 37
	str	r2, [r4, #2304]
	.loc 1 154 5 is_stmt 1
	.loc 1 154 52 is_stmt 0
	ldr	r2, [r3, #12]
	.loc 1 154 83
	ldr	r3, [r3, #16]
.LVL6:
	.loc 1 154 11
	ldr	r1, [r0]
	.loc 1 154 65
	orr	r3, r2, r3, lsl #16
	.loc 1 154 33
	str	r3, [r1, #2308]
.L7:
	.loc 1 169 3 is_stmt 1
	.loc 1 169 9 is_stmt 0
	ldr	r2, [r0]
	.loc 1 169 19
	ldr	r3, [r2, #8]
	.loc 1 169 29
	orr	r3, r3, #1048576
	str	r3, [r2, #8]
	.loc 1 171 3 is_stmt 1
	.loc 1 171 10 is_stmt 0
	movs	r0, #0
.LVL7:
	.loc 1 172 1
	pop	{r4, r5}
	.cfi_remember_state
	.cfi_restore 5
	.cfi_restore 4
	.cfi_def_cfa_offset 0
	bx	lr
.LVL8:
.L6:
	.cfi_restore_state
	.loc 1 160 5 is_stmt 1
	.loc 1 160 49 is_stmt 0
	ldr	r4, [r0]
	.loc 1 160 59
	ldr	r2, [r4, #2352]
.LVL9:
	.loc 1 160 75
	bic	r2, r2, #3997696
	.loc 1 160 197
	ldr	r1, [r3]
.LVL10:
	.loc 1 160 208
	ldr	r5, [r3, #4]
	orrs	r1, r1, r5
	.loc 1 160 246
	ldr	r5, [r3, #8]
	orrs	r1, r1, r5
	.loc 1 160 178
	orrs	r2, r2, r1
	.loc 1 160 37
	str	r2, [r4, #2352]
	.loc 1 165 5 is_stmt 1
	.loc 1 165 52 is_stmt 0
	ldr	r2, [r3, #12]
	.loc 1 165 83
	ldr	r3, [r3, #16]
.LVL11:
	.loc 1 165 11
	ldr	r1, [r0]
	.loc 1 165 65
	orr	r3, r2, r3, lsl #16
	.loc 1 165 33
	str	r3, [r1, #2356]
	b	.L7
.LVL12:
.L8:
	.cfi_def_cfa_offset 0
	.cfi_restore 4
	.cfi_restore 5
	.loc 1 143 12
	movs	r0, #1
.LVL13:
	.loc 1 172 1
	bx	lr
	.cfi_endproc
.LFE338:
	.size	HAL_ETHEx_SetL4FilterConfig, .-HAL_ETHEx_SetL4FilterConfig
	.section	.text.HAL_ETHEx_GetL4FilterConfig,"ax",%progbits
	.align	1
	.global	HAL_ETHEx_GetL4FilterConfig
	.syntax unified
	.thumb
	.thumb_func
	.type	HAL_ETHEx_GetL4FilterConfig, %function
HAL_ETHEx_GetL4FilterConfig:
.LFB339:
	.loc 1 189 1 is_stmt 1
	.cfi_startproc
	@ args = 0, pretend = 0, frame = 0
	@ frame_needed = 0, uses_anonymous_args = 0
	@ link register save eliminated.
.LVL14:
	.loc 1 190 3
	.loc 1 190 6 is_stmt 0
	mov	r3, r2
	cmp	r2, #0
	beq	.L16
	.loc 1 195 3 is_stmt 1
	.loc 1 195 6 is_stmt 0
	cbnz	r1, .L15
	.loc 1 198 5 is_stmt 1
	.loc 1 198 39 is_stmt 0
	ldr	r2, [r0]
.LVL15:
	.loc 1 198 49
	ldr	r2, [r2, #2304]
	.loc 1 198 63
	and	r2, r2, #65536
	.loc 1 198 31
	str	r2, [r3]
	.loc 1 199 5 is_stmt 1
	.loc 1 199 50 is_stmt 0
	ldr	r2, [r0]
	.loc 1 199 60
	ldr	r2, [r2, #2304]
	.loc 1 199 74
	and	r2, r2, #3145728
	.loc 1 199 42
	str	r2, [r3, #8]
	.loc 1 201 5 is_stmt 1
	.loc 1 201 49 is_stmt 0
	ldr	r2, [r0]
	.loc 1 201 59
	ldr	r2, [r2, #2304]
	.loc 1 201 73
	and	r2, r2, #786432
	.loc 1 201 41
	str	r2, [r3, #4]
	.loc 1 205 5 is_stmt 1
	.loc 1 205 47 is_stmt 0
	ldr	r2, [r0]
	.loc 1 205 57
	ldr	r2, [r2, #2308]
	.loc 1 205 86
	lsrs	r2, r2, #16
	.loc 1 205 38
	str	r2, [r3, #16]
	.loc 1 206 5 is_stmt 1
	.loc 1 206 41 is_stmt 0
	ldr	r2, [r0]
	.loc 1 206 51
	ldr	r2, [r2, #2308]
	.loc 1 206 63
	uxth	r2, r2
	.loc 1 206 33
	str	r2, [r3, #12]
	.loc 1 222 10
	movs	r0, #0
.LVL16:
	bx	lr
.LVL17:
.L15:
	.loc 1 211 5 is_stmt 1
	.loc 1 211 39 is_stmt 0
	ldr	r2, [r0]
.LVL18:
	.loc 1 211 49
	ldr	r2, [r2, #2352]
	.loc 1 211 63
	and	r2, r2, #65536
	.loc 1 211 31
	str	r2, [r3]
	.loc 1 212 5 is_stmt 1
	.loc 1 212 50 is_stmt 0
	ldr	r2, [r0]
	.loc 1 212 60
	ldr	r2, [r2, #2352]
	.loc 1 212 74
	and	r2, r2, #3145728
	.loc 1 212 42
	str	r2, [r3, #8]
	.loc 1 214 5 is_stmt 1
	.loc 1 214 49 is_stmt 0
	ldr	r2, [r0]
	.loc 1 214 59
	ldr	r2, [r2, #2352]
	.loc 1 214 73
	and	r2, r2, #786432
	.loc 1 214 41
	str	r2, [r3, #4]
	.loc 1 218 5 is_stmt 1
	.loc 1 218 47 is_stmt 0
	ldr	r2, [r0]
	.loc 1 218 57
	ldr	r2, [r2, #2356]
	.loc 1 218 86
	lsrs	r2, r2, #16
	.loc 1 218 38
	str	r2, [r3, #16]
	.loc 1 219 5 is_stmt 1
	.loc 1 219 41 is_stmt 0
	ldr	r2, [r0]
	.loc 1 219 51
	ldr	r2, [r2, #2356]
	.loc 1 219 63
	uxth	r2, r2
	.loc 1 219 33
	str	r2, [r3, #12]
	.loc 1 222 10
	movs	r0, #0
.LVL19:
	bx	lr
.LVL20:
.L16:
	.loc 1 192 12
	movs	r0, #1
.LVL21:
	.loc 1 223 1
	bx	lr
	.cfi_endproc
.LFE339:
	.size	HAL_ETHEx_GetL4FilterConfig, .-HAL_ETHEx_GetL4FilterConfig
	.section	.text.HAL_ETHEx_SetL3FilterConfig,"ax",%progbits
	.align	1
	.global	HAL_ETHEx_SetL3FilterConfig
	.syntax unified
	.thumb
	.thumb_func
	.type	HAL_ETHEx_SetL3FilterConfig, %function
HAL_ETHEx_SetL3FilterConfig:
.LFB340:
	.loc 1 240 1 is_stmt 1
	.cfi_startproc
	@ args = 0, pretend = 0, frame = 0
	@ frame_needed = 0, uses_anonymous_args = 0
	@ link register save eliminated.
.LVL22:
	.loc 1 241 3
	.loc 1 241 6 is_stmt 0
	cmp	r2, #0
	beq	.L25
	.loc 1 240 1
	push	{r4, r5, r6}
	.cfi_def_cfa_offset 12
	.cfi_offset 4, -12
	.cfi_offset 5, -8
	.cfi_offset 6, -4
	mov	r3, r2
	.loc 1 246 3 is_stmt 1
	.loc 1 246 6 is_stmt 0
	cmp	r1, #0
	bne	.L19
	.loc 1 249 5 is_stmt 1
	.loc 1 249 49 is_stmt 0
	ldr	r5, [r0]
	.loc 1 249 59
	ldr	r2, [r5, #2304]
.LVL23:
	.loc 1 249 75
	ldr	r4, .L30
	ands	r4, r4, r2
	.loc 1 249 231
	ldr	r2, [r3]
	.loc 1 249 242
	ldr	r6, [r3, #4]
	orrs	r2, r2, r6
	.loc 1 249 280
	ldr	r6, [r3, #8]
	orrs	r2, r2, r6
	.loc 1 249 319
	ldr	r6, [r3, #12]
	orr	r2, r2, r6, lsl #6
	.loc 1 249 368
	ldr	r6, [r3, #16]
	orr	r2, r2, r6, lsl #11
	.loc 1 249 212
	orrs	r4, r4, r2
	.loc 1 249 37
	str	r4, [r5, #2304]
.L20:
	.loc 1 265 3 is_stmt 1
	.loc 1 265 6 is_stmt 0
	cmp	r1, #0
	bne	.L21
	.loc 1 268 5 is_stmt 1
	.loc 1 268 24 is_stmt 0
	ldr	r2, [r3]
	.loc 1 268 8
	cbz	r2, .L22
	.loc 1 272 7 is_stmt 1
	.loc 1 272 13 is_stmt 0
	ldr	r2, [r0]
	.loc 1 272 64
	ldr	r1, [r3, #28]
.LVL24:
	.loc 1 272 37
	str	r1, [r2, #2320]
	.loc 1 274 7 is_stmt 1
	.loc 1 274 13 is_stmt 0
	ldr	r2, [r0]
	.loc 1 274 64
	ldr	r1, [r3, #32]
	.loc 1 274 37
	str	r1, [r2, #2324]
	.loc 1 276 7 is_stmt 1
	.loc 1 276 13 is_stmt 0
	ldr	r2, [r0]
	.loc 1 276 64
	ldr	r1, [r3, #36]
	.loc 1 276 37
	str	r1, [r2, #2328]
	.loc 1 278 7 is_stmt 1
	.loc 1 278 13 is_stmt 0
	ldr	r2, [r0]
	.loc 1 278 64
	ldr	r3, [r3, #40]
.LVL25:
	.loc 1 278 37
	str	r3, [r2, #2332]
.L23:
	.loc 1 314 3 is_stmt 1
	.loc 1 314 9 is_stmt 0
	ldr	r2, [r0]
	.loc 1 314 19
	ldr	r3, [r2, #8]
	.loc 1 314 29
	orr	r3, r3, #1048576
	str	r3, [r2, #8]
	.loc 1 316 3 is_stmt 1
	.loc 1 316 10 is_stmt 0
	movs	r0, #0
.LVL26:
	.loc 1 317 1
	pop	{r4, r5, r6}
	.cfi_remember_state
	.cfi_restore 6
	.cfi_restore 5
	.cfi_restore 4
	.cfi_def_cfa_offset 0
	bx	lr
.LVL27:
.L19:
	.cfi_restore_state
	.loc 1 258 5 is_stmt 1
	.loc 1 258 49 is_stmt 0
	ldr	r5, [r0]
	.loc 1 258 59
	ldr	r2, [r5, #2352]
.LVL28:
	.loc 1 258 75
	ldr	r4, .L30
	ands	r4, r4, r2
	.loc 1 258 231
	ldr	r2, [r3]
	.loc 1 258 242
	ldr	r6, [r3, #4]
	orrs	r2, r2, r6
	.loc 1 258 280
	ldr	r6, [r3, #8]
	orrs	r2, r2, r6
	.loc 1 258 319
	ldr	r6, [r3, #12]
	orr	r2, r2, r6, lsl #6
	.loc 1 258 368
	ldr	r6, [r3, #16]
	orr	r2, r2, r6, lsl #11
	.loc 1 258 212
	orrs	r4, r4, r2
	.loc 1 258 37
	str	r4, [r5, #2352]
	b	.L20
.L22:
	.loc 1 283 7 is_stmt 1
	.loc 1 283 13 is_stmt 0
	ldr	r2, [r0]
	.loc 1 283 55
	ldr	r1, [r3, #20]
.LVL29:
	.loc 1 283 37
	str	r1, [r2, #2320]
	.loc 1 285 7 is_stmt 1
	.loc 1 285 13 is_stmt 0
	ldr	r2, [r0]
	.loc 1 285 55
	ldr	r3, [r3, #24]
.LVL30:
	.loc 1 285 37
	str	r3, [r2, #2324]
	b	.L23
.LVL31:
.L21:
	.loc 1 291 5 is_stmt 1
	.loc 1 291 24 is_stmt 0
	ldr	r2, [r3]
	.loc 1 291 8
	cbz	r2, .L24
	.loc 1 295 7 is_stmt 1
	.loc 1 295 13 is_stmt 0
	ldr	r2, [r0]
	.loc 1 295 64
	ldr	r1, [r3, #28]
.LVL32:
	.loc 1 295 37
	str	r1, [r2, #2368]
	.loc 1 297 7 is_stmt 1
	.loc 1 297 13 is_stmt 0
	ldr	r2, [r0]
	.loc 1 297 64
	ldr	r1, [r3, #32]
	.loc 1 297 37
	str	r1, [r2, #2372]
	.loc 1 299 7 is_stmt 1
	.loc 1 299 13 is_stmt 0
	ldr	r2, [r0]
	.loc 1 299 64
	ldr	r1, [r3, #36]
	.loc 1 299 37
	str	r1, [r2, #2372]
	.loc 1 301 7 is_stmt 1
	.loc 1 301 13 is_stmt 0
	ldr	r2, [r0]
	.loc 1 301 64
	ldr	r3, [r3, #40]
.LVL33:
	.loc 1 301 37
	str	r3, [r2, #2372]
	b	.L23
.LVL34:
.L24:
	.loc 1 306 7 is_stmt 1
	.loc 1 306 13 is_stmt 0
	ldr	r2, [r0]
	.loc 1 306 55
	ldr	r1, [r3, #20]
.LVL35:
	.loc 1 306 37
	str	r1, [r2, #2368]
	.loc 1 308 7 is_stmt 1
	.loc 1 308 13 is_stmt 0
	ldr	r2, [r0]
	.loc 1 308 55
	ldr	r3, [r3, #24]
.LVL36:
	.loc 1 308 37
	str	r3, [r2, #2368]
	b	.L23
.LVL37:
.L25:
	.cfi_def_cfa_offset 0
	.cfi_restore 4
	.cfi_restore 5
	.cfi_restore 6
	.loc 1 243 12
	movs	r0, #1
.LVL38:
	.loc 1 317 1
	bx	lr
.L31:
	.align	2
.L30:
	.word	-65534
	.cfi_endproc
.LFE340:
	.size	HAL_ETHEx_SetL3FilterConfig, .-HAL_ETHEx_SetL3FilterConfig
	.section	.text.HAL_ETHEx_GetL3FilterConfig,"ax",%progbits
	.align	1
	.global	HAL_ETHEx_GetL3FilterConfig
	.syntax unified
	.thumb
	.thumb_func
	.type	HAL_ETHEx_GetL3FilterConfig, %function
HAL_ETHEx_GetL3FilterConfig:
.LFB341:
	.loc 1 334 1 is_stmt 1
	.cfi_startproc
	@ args = 0, pretend = 0, frame = 0
	@ frame_needed = 0, uses_anonymous_args = 0
	@ link register save eliminated.
.LVL39:
	.loc 1 335 3
	.loc 1 335 6 is_stmt 0
	cmp	r2, #0
	beq	.L37
	.loc 1 334 1
	push	{r4}
	.cfi_def_cfa_offset 4
	.cfi_offset 4, -4
	mov	r3, r2
	.loc 1 339 3 is_stmt 1
	.loc 1 339 63 is_stmt 0
	ldr	r2, [r0]
.LVL40:
	.loc 1 339 57
	add	r2, r2, #2304
	.loc 1 339 33
	ldr	r2, [r2, r1, lsl #2]
	.loc 1 339 99
	and	r2, r2, #1
	.loc 1 339 29
	str	r2, [r3]
	.loc 1 341 3 is_stmt 1
	.loc 1 341 73 is_stmt 0
	ldr	r4, [r0]
	.loc 1 341 67
	add	r4, r4, #2304
	.loc 1 341 43
	ldr	r4, [r4, r1, lsl #2]
	.loc 1 341 109
	and	r4, r4, #12
	.loc 1 341 39
	str	r4, [r3, #4]
	.loc 1 343 3 is_stmt 1
	.loc 1 343 74 is_stmt 0
	ldr	r4, [r0]
	.loc 1 343 68
	add	r4, r4, #2304
	.loc 1 343 44
	ldr	r4, [r4, r1, lsl #2]
	.loc 1 343 110
	and	r4, r4, #48
	.loc 1 343 40
	str	r4, [r3, #8]
	.loc 1 345 3 is_stmt 1
	.loc 1 345 78 is_stmt 0
	ldr	r4, [r0]
	.loc 1 345 72
	add	r4, r4, #2304
	.loc 1 345 48
	ldr	r4, [r4, r1, lsl #2]
	.loc 1 346 77
	ubfx	r4, r4, #6, #5
	.loc 1 345 43
	str	r4, [r3, #12]
	.loc 1 347 3 is_stmt 1
	.loc 1 347 79 is_stmt 0
	ldr	r4, [r0]
	.loc 1 347 73
	add	r4, r4, #2304
	.loc 1 347 49
	ldr	r4, [r4, r1, lsl #2]
	.loc 1 348 78
	ubfx	r4, r4, #11, #5
	.loc 1 347 44
	str	r4, [r3, #16]
	.loc 1 350 3 is_stmt 1
	.loc 1 350 6 is_stmt 0
	cbnz	r1, .L34
	.loc 1 352 5 is_stmt 1
	.loc 1 352 8 is_stmt 0
	cbz	r2, .L35
	.loc 1 354 7 is_stmt 1
	.loc 1 354 45 is_stmt 0
	ldr	r2, [r0]
	.loc 1 354 55
	ldr	r2, [r2, #2320]
	.loc 1 354 38
	str	r2, [r3, #28]
	.loc 1 355 7 is_stmt 1
	.loc 1 355 45 is_stmt 0
	ldr	r2, [r0]
	.loc 1 355 55
	ldr	r2, [r2, #2324]
	.loc 1 355 38
	str	r2, [r3, #32]
	.loc 1 356 7 is_stmt 1
	.loc 1 356 45 is_stmt 0
	ldr	r2, [r0]
	.loc 1 356 55
	ldr	r2, [r2, #2328]
	.loc 1 356 38
	str	r2, [r3, #36]
	.loc 1 357 7 is_stmt 1
	.loc 1 357 45 is_stmt 0
	ldr	r2, [r0]
	.loc 1 357 55
	ldr	r2, [r2, #2332]
	.loc 1 357 38
	str	r2, [r3, #40]
	.loc 1 381 10
	movs	r0, #0
.LVL41:
.L33:
	.loc 1 382 1
	ldr	r4, [sp], #4
	.cfi_remember_state
	.cfi_restore 4
	.cfi_def_cfa_offset 0
	bx	lr
.LVL42:
.L35:
	.cfi_restore_state
	.loc 1 361 7 is_stmt 1
	.loc 1 361 45 is_stmt 0
	ldr	r2, [r0]
	.loc 1 361 55
	ldr	r2, [r2, #2320]
	.loc 1 361 38
	str	r2, [r3, #20]
	.loc 1 362 7 is_stmt 1
	.loc 1 362 46 is_stmt 0
	ldr	r2, [r0]
	.loc 1 362 56
	ldr	r2, [r2, #2324]
	.loc 1 362 39
	str	r2, [r3, #24]
	.loc 1 381 10
	movs	r0, #0
.LVL43:
	b	.L33
.LVL44:
.L34:
	.loc 1 367 5 is_stmt 1
	.loc 1 367 8 is_stmt 0
	cbz	r2, .L36
	.loc 1 369 7 is_stmt 1
	.loc 1 369 45 is_stmt 0
	ldr	r2, [r0]
	.loc 1 369 55
	ldr	r2, [r2, #2368]
	.loc 1 369 38
	str	r2, [r3, #28]
	.loc 1 370 7 is_stmt 1
	.loc 1 370 45 is_stmt 0
	ldr	r2, [r0]
	.loc 1 370 55
	ldr	r2, [r2, #2372]
	.loc 1 370 38
	str	r2, [r3, #32]
	.loc 1 371 7 is_stmt 1
	.loc 1 371 45 is_stmt 0
	ldr	r2, [r0]
	.loc 1 371 55
	ldr	r2, [r2, #2376]
	.loc 1 371 38
	str	r2, [r3, #36]
	.loc 1 372 7 is_stmt 1
	.loc 1 372 45 is_stmt 0
	ldr	r2, [r0]
	.loc 1 372 55
	ldr	r2, [r2, #2380]
	.loc 1 372 38
	str	r2, [r3, #40]
	.loc 1 381 10
	movs	r0, #0
.LVL45:
	b	.L33
.LVL46:
.L36:
	.loc 1 376 7 is_stmt 1
	.loc 1 376 45 is_stmt 0
	ldr	r2, [r0]
	.loc 1 376 55
	ldr	r2, [r2, #2368]
	.loc 1 376 38
	str	r2, [r3, #20]
	.loc 1 377 7 is_stmt 1
	.loc 1 377 46 is_stmt 0
	ldr	r2, [r0]
	.loc 1 377 56
	ldr	r2, [r2, #2372]
	.loc 1 377 39
	str	r2, [r3, #24]
	.loc 1 381 10
	movs	r0, #0
.LVL47:
	b	.L33
.LVL48:
.L37:
	.cfi_def_cfa_offset 0
	.cfi_restore 4
	.loc 1 337 12
	movs	r0, #1
.LVL49:
	.loc 1 382 1
	bx	lr
	.cfi_endproc
.LFE341:
	.size	HAL_ETHEx_GetL3FilterConfig, .-HAL_ETHEx_GetL3FilterConfig
	.section	.text.HAL_ETHEx_EnableL3L4Filtering,"ax",%progbits
	.align	1
	.global	HAL_ETHEx_EnableL3L4Filtering
	.syntax unified
	.thumb
	.thumb_func
	.type	HAL_ETHEx_EnableL3L4Filtering, %function
HAL_ETHEx_EnableL3L4Filtering:
.LFB342:
	.loc 1 391 1 is_stmt 1
	.cfi_startproc
	@ args = 0, pretend = 0, frame = 0
	@ frame_needed = 0, uses_anonymous_args = 0
	@ link register save eliminated.
.LVL50:
	.loc 1 393 3
	.loc 1 393 9 is_stmt 0
	ldr	r2, [r0]
	.loc 1 393 19
	ldr	r3, [r2, #8]
	.loc 1 393 29
	orr	r3, r3, #1048576
	str	r3, [r2, #8]
	.loc 1 394 1
	bx	lr
	.cfi_endproc
.LFE342:
	.size	HAL_ETHEx_EnableL3L4Filtering, .-HAL_ETHEx_EnableL3L4Filtering
	.section	.text.HAL_ETHEx_DisableL3L4Filtering,"ax",%progbits
	.align	1
	.global	HAL_ETHEx_DisableL3L4Filtering
	.syntax unified
	.thumb
	.thumb_func
	.type	HAL_ETHEx_DisableL3L4Filtering, %function
HAL_ETHEx_DisableL3L4Filtering:
.LFB343:
	.loc 1 403 1 is_stmt 1
	.cfi_startproc
	@ args = 0, pretend = 0, frame = 0
	@ frame_needed = 0, uses_anonymous_args = 0
	@ link register save eliminated.
.LVL51:
	.loc 1 405 3
	.loc 1 405 9 is_stmt 0
	ldr	r2, [r0]
	.loc 1 405 19
	ldr	r3, [r2, #8]
	.loc 1 405 29
	bic	r3, r3, #1048576
	str	r3, [r2, #8]
	.loc 1 406 1
	bx	lr
	.cfi_endproc
.LFE343:
	.size	HAL_ETHEx_DisableL3L4Filtering, .-HAL_ETHEx_DisableL3L4Filtering
	.section	.text.HAL_ETHEx_GetRxVLANConfig,"ax",%progbits
	.align	1
	.global	HAL_ETHEx_GetRxVLANConfig
	.syntax unified
	.thumb
	.thumb_func
	.type	HAL_ETHEx_GetRxVLANConfig, %function
HAL_ETHEx_GetRxVLANConfig:
.LFB344:
	.loc 1 417 1 is_stmt 1
	.cfi_startproc
	@ args = 0, pretend = 0, frame = 0
	@ frame_needed = 0, uses_anonymous_args = 0
	@ link register save eliminated.
.LVL52:
	.loc 1 418 3
	.loc 1 418 6 is_stmt 0
	cmp	r1, #0
	beq	.L46
	.loc 1 423 3 is_stmt 1
	.loc 1 423 47 is_stmt 0
	ldr	r2, [r0]
	.loc 1 423 57
	ldr	r2, [r2, #80]
	.loc 1 424 94
	lsrs	r2, r2, #31
	.loc 1 423 37
	strb	r2, [r1]
	.loc 1 425 3 is_stmt 1
	.loc 1 425 42 is_stmt 0
	ldr	r2, [r0]
	.loc 1 425 52
	ldr	r2, [r2, #80]
	.loc 1 425 62
	and	r2, r2, #805306368
	.loc 1 425 34
	str	r2, [r1, #4]
	.loc 1 426 3 is_stmt 1
	.loc 1 426 39 is_stmt 0
	ldr	r2, [r0]
	.loc 1 426 49
	ldr	r2, [r2, #80]
	.loc 1 427 85
	ubfx	r2, r2, #27, #1
	.loc 1 426 29
	strb	r2, [r1, #8]
	.loc 1 428 3 is_stmt 1
	.loc 1 428 47 is_stmt 0
	ldr	r2, [r0]
	.loc 1 428 57
	ldr	r2, [r2, #80]
	.loc 1 429 92
	ubfx	r2, r2, #26, #1
	.loc 1 428 37
	strb	r2, [r1, #9]
	.loc 1 430 3 is_stmt 1
	.loc 1 430 48 is_stmt 0
	ldr	r2, [r0]
	.loc 1 430 58
	ldr	r2, [r2, #80]
	.loc 1 431 92
	ubfx	r2, r2, #25, #1
	.loc 1 430 38
	strb	r2, [r1, #10]
	.loc 1 432 3 is_stmt 1
	.loc 1 432 42 is_stmt 0
	ldr	r2, [r0]
	.loc 1 432 52
	ldr	r2, [r2, #80]
	.loc 1 433 88
	ubfx	r2, r2, #24, #1
	.loc 1 432 32
	strb	r2, [r1, #11]
	.loc 1 434 3 is_stmt 1
	.loc 1 434 37 is_stmt 0
	ldr	r2, [r0]
	.loc 1 434 47
	ldr	r2, [r2, #80]
	.loc 1 434 57
	and	r2, r2, #6291456
	.loc 1 434 29
	str	r2, [r1, #12]
	.loc 1 435 3 is_stmt 1
	.loc 1 435 38 is_stmt 0
	ldr	r2, [r0]
	.loc 1 435 48
	ldr	r2, [r2, #80]
	.loc 1 435 58
	and	r2, r2, #1835008
	.loc 1 435 30
	str	r2, [r1, #16]
	.loc 1 437 3 is_stmt 1
	.loc 1 437 46 is_stmt 0
	ldr	r2, [r0]
	.loc 1 437 56
	ldr	r2, [r2, #80]
	.loc 1 438 48
	ubfx	r2, r2, #17, #1
	.loc 1 437 36
	strb	r2, [r1, #20]
	.loc 1 440 3 is_stmt 1
	.loc 1 440 10 is_stmt 0
	movs	r0, #0
.LVL53:
	bx	lr
.LVL54:
.L46:
	.loc 1 420 12
	movs	r0, #1
.LVL55:
	.loc 1 441 1
	bx	lr
	.cfi_endproc
.LFE344:
	.size	HAL_ETHEx_GetRxVLANConfig, .-HAL_ETHEx_GetRxVLANConfig
	.section	.text.HAL_ETHEx_SetRxVLANConfig,"ax",%progbits
	.align	1
	.global	HAL_ETHEx_SetRxVLANConfig
	.syntax unified
	.thumb
	.thumb_func
	.type	HAL_ETHEx_SetRxVLANConfig, %function
HAL_ETHEx_SetRxVLANConfig:
.LFB345:
	.loc 1 452 1 is_stmt 1
	.cfi_startproc
	@ args = 0, pretend = 0, frame = 0
	@ frame_needed = 0, uses_anonymous_args = 0
	@ link register save eliminated.
.LVL56:
	.loc 1 453 3
	.loc 1 453 6 is_stmt 0
	cbz	r1, .L49
	.loc 1 452 1
	push	{r4}
	.cfi_def_cfa_offset 4
	.cfi_offset 4, -4
	mov	r2, r1
	.loc 1 459 3 is_stmt 1
	.loc 1 459 43 is_stmt 0
	ldr	r0, [r0]
.LVL57:
	.loc 1 459 53
	ldr	r3, [r0, #80]
	.loc 1 459 65
	ldr	r1, .L54
.LVL58:
	ands	r1, r1, r3
	.loc 1 459 327
	ldrb	ip, [r2]	@ zero_extendqisi2
	.loc 1 459 370
	ldr	r3, [r2, #4]
	.loc 1 459 357
	orr	r3, r3, ip, lsl #31
	.loc 1 459 414
	ldrb	ip, [r2, #8]	@ zero_extendqisi2
	.loc 1 459 390
	orr	r3, r3, ip, lsl #27
	.loc 1 459 460
	ldrb	ip, [r2, #9]	@ zero_extendqisi2
	.loc 1 459 436
	orr	r3, r3, ip, lsl #26
	.loc 1 459 514
	ldrb	ip, [r2, #10]	@ zero_extendqisi2
	.loc 1 459 490
	orr	r3, r3, ip, lsl #25
	.loc 1 459 569
	ldrb	ip, [r2, #11]	@ zero_extendqisi2
	.loc 1 459 545
	orr	r3, r3, ip, lsl #24
	.loc 1 459 594
	ldr	r4, [r2, #12]
	orrs	r3, r3, r4
	.loc 1 459 622
	ldr	r4, [r2, #16]
	orrs	r3, r3, r4
	.loc 1 459 675
	ldrb	r2, [r2, #20]	@ zero_extendqisi2
.LVL59:
	.loc 1 459 651
	orr	r3, r3, r2, lsl #17
	.loc 1 459 301
	orrs	r1, r1, r3
	.loc 1 459 31
	str	r1, [r0, #80]
	.loc 1 469 3 is_stmt 1
	.loc 1 469 10 is_stmt 0
	movs	r0, #0
	.loc 1 470 1
	ldr	r4, [sp], #4
	.cfi_restore 4
	.cfi_def_cfa_offset 0
	bx	lr
.LVL60:
.L49:
	.loc 1 455 12
	movs	r0, #1
.LVL61:
	.loc 1 470 1
	bx	lr
.L55:
	.align	2
.L54:
	.word	1082195967
	.cfi_endproc
.LFE345:
	.size	HAL_ETHEx_SetRxVLANConfig, .-HAL_ETHEx_SetRxVLANConfig
	.section	.text.HAL_ETHEx_SetVLANHashTable,"ax",%progbits
	.align	1
	.global	HAL_ETHEx_SetVLANHashTable
	.syntax unified
	.thumb
	.thumb_func
	.type	HAL_ETHEx_SetVLANHashTable, %function
HAL_ETHEx_SetVLANHashTable:
.LFB346:
	.loc 1 480 1 is_stmt 1
	.cfi_startproc
	@ args = 0, pretend = 0, frame = 0
	@ frame_needed = 0, uses_anonymous_args = 0
	@ link register save eliminated.
.LVL62:
	.loc 1 481 3
	.loc 1 481 44 is_stmt 0
	ldr	r2, [r0]
	.loc 1 481 54
	ldr	r0, [r2, #88]
.LVL63:
	.loc 1 481 67
	ldr	r3, .L57
	ands	r3, r3, r0
	.loc 1 481 94
	orrs	r3, r3, r1
	.loc 1 481 32
	str	r3, [r2, #88]
	.loc 1 482 1
	bx	lr
.L58:
	.align	2
.L57:
	.word	-65536
	.cfi_endproc
.LFE346:
	.size	HAL_ETHEx_SetVLANHashTable, .-HAL_ETHEx_SetVLANHashTable
	.section	.text.HAL_ETHEx_GetTxVLANConfig,"ax",%progbits
	.align	1
	.global	HAL_ETHEx_GetTxVLANConfig
	.syntax unified
	.thumb
	.thumb_func
	.type	HAL_ETHEx_GetTxVLANConfig, %function
HAL_ETHEx_GetTxVLANConfig:
.LFB347:
	.loc 1 497 1 is_stmt 1
	.cfi_startproc
	@ args = 0, pretend = 0, frame = 0
	@ frame_needed = 0, uses_anonymous_args = 0
	@ link register save eliminated.
.LVL64:
	.loc 1 498 3
	.loc 1 498 6 is_stmt 0
	cbz	r2, .L62
	.loc 1 503 3 is_stmt 1
	.loc 1 503 6 is_stmt 0
	cmp	r1, #1
	beq	.L63
	.loc 1 511 5 is_stmt 1
	.loc 1 511 41 is_stmt 0
	ldr	r3, [r0]
	.loc 1 511 51
	ldr	r3, [r3, #96]
	.loc 1 511 107
	ubfx	r3, r3, #20, #1
	.loc 1 511 31
	strb	r3, [r2]
	.loc 1 512 5 is_stmt 1
	.loc 1 512 38 is_stmt 0
	ldr	r3, [r0]
	.loc 1 512 48
	ldr	r3, [r3, #96]
	.loc 1 512 104
	ubfx	r3, r3, #19, #1
	.loc 1 512 28
	strb	r3, [r2, #1]
	.loc 1 513 5 is_stmt 1
	.loc 1 513 41 is_stmt 0
	ldr	r3, [r0]
	.loc 1 513 51
	ldr	r3, [r3, #96]
	.loc 1 513 61
	and	r3, r3, #458752
	.loc 1 513 33
	str	r3, [r2, #4]
	.loc 1 516 10
	movs	r0, #0
.LVL65:
	bx	lr
.LVL66:
.L63:
	.loc 1 505 5 is_stmt 1
	.loc 1 505 41 is_stmt 0
	ldr	r3, [r0]
	.loc 1 505 51
	ldr	r3, [r3, #100]
	.loc 1 505 108
	ubfx	r3, r3, #20, #1
	.loc 1 505 31
	strb	r3, [r2]
	.loc 1 506 5 is_stmt 1
	.loc 1 506 38 is_stmt 0
	ldr	r3, [r0]
	.loc 1 506 48
	ldr	r3, [r3, #100]
	.loc 1 506 105
	ubfx	r3, r3, #19, #1
	.loc 1 506 28
	strb	r3, [r2, #1]
	.loc 1 507 5 is_stmt 1
	.loc 1 507 41 is_stmt 0
	ldr	r3, [r0]
	.loc 1 507 51
	ldr	r3, [r3, #100]
	.loc 1 507 62
	and	r3, r3, #458752
	.loc 1 507 33
	str	r3, [r2, #4]
	.loc 1 516 10
	movs	r0, #0
.LVL67:
	bx	lr
.LVL68:
.L62:
	.loc 1 500 12
	movs	r0, #1
.LVL69:
	.loc 1 516 17 is_stmt 1
	.loc 1 517 1 is_stmt 0
	bx	lr
	.cfi_endproc
.LFE347:
	.size	HAL_ETHEx_GetTxVLANConfig, .-HAL_ETHEx_GetTxVLANConfig
	.section	.text.HAL_ETHEx_SetTxVLANConfig,"ax",%progbits
	.align	1
	.global	HAL_ETHEx_SetTxVLANConfig
	.syntax unified
	.thumb
	.thumb_func
	.type	HAL_ETHEx_SetTxVLANConfig, %function
HAL_ETHEx_SetTxVLANConfig:
.LFB348:
	.loc 1 532 1 is_stmt 1
	.cfi_startproc
	@ args = 0, pretend = 0, frame = 0
	@ frame_needed = 0, uses_anonymous_args = 0
	@ link register save eliminated.
.LVL70:
	.loc 1 533 3
	.loc 1 533 6 is_stmt 0
	cmp	r1, #1
	beq	.L71
	.loc 1 543 5 is_stmt 1
	.loc 1 543 45 is_stmt 0
	ldr	r0, [r0]
.LVL71:
	.loc 1 543 55
	ldr	r1, [r0, #96]
.LVL72:
	.loc 1 543 67
	bic	r1, r1, #2031616
	.loc 1 543 177
	ldrb	ip, [r2]	@ zero_extendqisi2
	.loc 1 543 223
	ldrb	r3, [r2, #1]	@ zero_extendqisi2
	.loc 1 543 235
	lsls	r3, r3, #19
	.loc 1 543 199
	orr	r3, r3, ip, lsl #20
	.loc 1 543 255
	ldr	r2, [r2, #4]
.LVL73:
	.loc 1 543 242
	orrs	r3, r3, r2
	.loc 1 543 151
	orrs	r3, r3, r1
	.loc 1 543 33
	str	r3, [r0, #96]
	.loc 1 548 3 is_stmt 1
	.loc 1 549 1 is_stmt 0
	movs	r0, #0
	bx	lr
.LVL74:
.L71:
	.loc 1 532 1
	push	{r4}
	.cfi_def_cfa_offset 4
	.cfi_offset 4, -4
	.loc 1 535 5 is_stmt 1
	.loc 1 535 46 is_stmt 0
	ldr	r4, [r0]
	.loc 1 535 56
	ldr	r1, [r4, #100]
.LVL75:
	.loc 1 535 69
	bic	r1, r1, #2031616
	.loc 1 535 179
	ldrb	ip, [r2]	@ zero_extendqisi2
	.loc 1 535 225
	ldrb	r3, [r2, #1]	@ zero_extendqisi2
	.loc 1 535 237
	lsls	r3, r3, #19
	.loc 1 535 201
	orr	r3, r3, ip, lsl #20
	.loc 1 535 257
	ldr	r2, [r2, #4]
.LVL76:
	.loc 1 535 244
	orrs	r3, r3, r2
	.loc 1 535 153
	orrs	r3, r3, r1
	.loc 1 535 34
	str	r3, [r4, #100]
	.loc 1 539 5 is_stmt 1
	.loc 1 539 11 is_stmt 0
	ldr	r2, [r0]
	.loc 1 539 21
	ldr	r3, [r2, #80]
	.loc 1 539 31
	orr	r3, r3, #67108864
	str	r3, [r2, #80]
	.loc 1 548 3 is_stmt 1
	.loc 1 549 1 is_stmt 0
	movs	r0, #0
.LVL77:
	ldr	r4, [sp], #4
	.cfi_restore 4
	.cfi_def_cfa_offset 0
	bx	lr
	.cfi_endproc
.LFE348:
	.size	HAL_ETHEx_SetTxVLANConfig, .-HAL_ETHEx_SetTxVLANConfig
	.section	.text.HAL_ETHEx_SetTxVLANIdentifier,"ax",%progbits
	.align	1
	.global	HAL_ETHEx_SetTxVLANIdentifier
	.syntax unified
	.thumb
	.thumb_func
	.type	HAL_ETHEx_SetTxVLANIdentifier, %function
HAL_ETHEx_SetTxVLANIdentifier:
.LFB349:
	.loc 1 562 1 is_stmt 1
	.cfi_startproc
	@ args = 0, pretend = 0, frame = 0
	@ frame_needed = 0, uses_anonymous_args = 0
	@ link register save eliminated.
.LVL78:
	.loc 1 563 3
	.loc 1 563 6 is_stmt 0
	cmp	r1, #1
	beq	.L75
	.loc 1 569 5 is_stmt 1
	.loc 1 569 45 is_stmt 0
	ldr	r1, [r0]
.LVL79:
	.loc 1 569 55
	ldr	r0, [r1, #96]
.LVL80:
	.loc 1 569 67
	ldr	r3, .L76
	ands	r3, r3, r0
	.loc 1 569 94
	orrs	r3, r3, r2
	.loc 1 569 33
	str	r3, [r1, #96]
	.loc 1 571 1
	bx	lr
.LVL81:
.L75:
	.loc 1 565 5 is_stmt 1
	.loc 1 565 46 is_stmt 0
	ldr	r1, [r0]
.LVL82:
	.loc 1 565 56
	ldr	r0, [r1, #100]
.LVL83:
	.loc 1 565 69
	ldr	r3, .L76
	ands	r3, r3, r0
	.loc 1 565 96
	orrs	r3, r3, r2
	.loc 1 565 34
	str	r3, [r1, #100]
	bx	lr
.L77:
	.align	2
.L76:
	.word	-65536
	.cfi_endproc
.LFE349:
	.size	HAL_ETHEx_SetTxVLANIdentifier, .-HAL_ETHEx_SetTxVLANIdentifier
	.section	.text.HAL_ETHEx_EnableVLANProcessing,"ax",%progbits
	.align	1
	.global	HAL_ETHEx_EnableVLANProcessing
	.syntax unified
	.thumb
	.thumb_func
	.type	HAL_ETHEx_EnableVLANProcessing, %function
HAL_ETHEx_EnableVLANProcessing:
.LFB350:
	.loc 1 580 1 is_stmt 1
	.cfi_startproc
	@ args = 0, pretend = 0, frame = 0
	@ frame_needed = 0, uses_anonymous_args = 0
	@ link register save eliminated.
.LVL84:
	.loc 1 582 3
	.loc 1 582 9 is_stmt 0
	ldr	r2, [r0]
	.loc 1 582 19
	ldr	r3, [r2, #8]
	.loc 1 582 29
	orr	r3, r3, #65536
	str	r3, [r2, #8]
	.loc 1 583 1
	bx	lr
	.cfi_endproc
.LFE350:
	.size	HAL_ETHEx_EnableVLANProcessing, .-HAL_ETHEx_EnableVLANProcessing
	.section	.text.HAL_ETHEx_DisableVLANProcessing,"ax",%progbits
	.align	1
	.global	HAL_ETHEx_DisableVLANProcessing
	.syntax unified
	.thumb
	.thumb_func
	.type	HAL_ETHEx_DisableVLANProcessing, %function
HAL_ETHEx_DisableVLANProcessing:
.LFB351:
	.loc 1 592 1 is_stmt 1
	.cfi_startproc
	@ args = 0, pretend = 0, frame = 0
	@ frame_needed = 0, uses_anonymous_args = 0
	@ link register save eliminated.
.LVL85:
	.loc 1 594 3
	.loc 1 594 9 is_stmt 0
	ldr	r2, [r0]
	.loc 1 594 19
	ldr	r3, [r2, #8]
	.loc 1 594 29
	bic	r3, r3, #65536
	str	r3, [r2, #8]
	.loc 1 595 1
	bx	lr
	.cfi_endproc
.LFE351:
	.size	HAL_ETHEx_DisableVLANProcessing, .-HAL_ETHEx_DisableVLANProcessing
	.section	.text.HAL_ETHEx_EnterLPIMode,"ax",%progbits
	.align	1
	.global	HAL_ETHEx_EnterLPIMode
	.syntax unified
	.thumb
	.thumb_func
	.type	HAL_ETHEx_EnterLPIMode, %function
HAL_ETHEx_EnterLPIMode:
.LFB352:
	.loc 1 606 1 is_stmt 1
	.cfi_startproc
	@ args = 0, pretend = 0, frame = 0
	@ frame_needed = 0, uses_anonymous_args = 0
	@ link register save eliminated.
.LVL86:
	push	{r4}
	.cfi_def_cfa_offset 4
	.cfi_offset 4, -4
	.loc 1 608 3
	.loc 1 608 10 is_stmt 0
	ldr	r4, [r0]
	.loc 1 608 20
	ldr	r3, [r4, #180]
	.loc 1 608 29
	orr	r3, r3, #32
	str	r3, [r4, #180]
	.loc 1 611 3 is_stmt 1
	.loc 1 611 44 is_stmt 0
	ldr	r0, [r0]
.LVL87:
	.loc 1 611 54
	ldr	r3, [r0, #208]
	.loc 1 611 67
	bic	r3, r3, #2686976
	.loc 1 611 190
	lsls	r2, r2, #21
.LVL88:
	.loc 1 611 165
	orr	r2, r2, r1, lsl #19
	.loc 1 611 132
	orrs	r3, r3, r2
	orr	r3, r3, #65536
	.loc 1 611 32
	str	r3, [r0, #208]
	.loc 1 615 1
	ldr	r4, [sp], #4
	.cfi_restore 4
	.cfi_def_cfa_offset 0
	bx	lr
	.cfi_endproc
.LFE352:
	.size	HAL_ETHEx_EnterLPIMode, .-HAL_ETHEx_EnterLPIMode
	.section	.text.HAL_ETHEx_ExitLPIMode,"ax",%progbits
	.align	1
	.global	HAL_ETHEx_ExitLPIMode
	.syntax unified
	.thumb
	.thumb_func
	.type	HAL_ETHEx_ExitLPIMode, %function
HAL_ETHEx_ExitLPIMode:
.LFB353:
	.loc 1 624 1 is_stmt 1
	.cfi_startproc
	@ args = 0, pretend = 0, frame = 0
	@ frame_needed = 0, uses_anonymous_args = 0
	@ link register save eliminated.
.LVL89:
	.loc 1 626 3
	.loc 1 626 9 is_stmt 0
	ldr	r2, [r0]
	.loc 1 626 19
	ldr	r3, [r2, #208]
	.loc 1 626 30
	bic	r3, r3, #2686976
	str	r3, [r2, #208]
	.loc 1 629 3 is_stmt 1
	.loc 1 629 10 is_stmt 0
	ldr	r2, [r0]
	.loc 1 629 20
	ldr	r3, [r2, #180]
	.loc 1 629 29
	bic	r3, r3, #32
	str	r3, [r2, #180]
	.loc 1 630 1
	bx	lr
	.cfi_endproc
.LFE353:
	.size	HAL_ETHEx_ExitLPIMode, .-HAL_ETHEx_ExitLPIMode
	.section	.text.HAL_ETHEx_GetMACLPIEvent,"ax",%progbits
	.align	1
	.global	HAL_ETHEx_GetMACLPIEvent
	.syntax unified
	.thumb
	.thumb_func
	.type	HAL_ETHEx_GetMACLPIEvent, %function
HAL_ETHEx_GetMACLPIEvent:
.LFB354:
	.loc 1 639 1 is_stmt 1
	.cfi_startproc
	@ args = 0, pretend = 0, frame = 0
	@ frame_needed = 0, uses_anonymous_args = 0
	@ link register save eliminated.
.LVL90:
	.loc 1 640 3
	.loc 1 640 14 is_stmt 0
	ldr	r0, [r0, #152]
.LVL91:
	.loc 1 641 1
	bx	lr
	.cfi_endproc
.LFE354:
	.size	HAL_ETHEx_GetMACLPIEvent, .-HAL_ETHEx_GetMACLPIEvent
	.text
.Letext0:
	.file 2 "m:\\noinstall\\arm-gnu-toolchain-12.2.rel1-mingw-w64-i686-arm-none-eabi\\arm-none-eabi\\include\\machine\\_default_types.h"
	.file 3 "m:\\noinstall\\arm-gnu-toolchain-12.2.rel1-mingw-w64-i686-arm-none-eabi\\arm-none-eabi\\include\\sys\\_stdint.h"
	.file 4 "D:/RTOS/Board/YD-STM32H7xxVx_ClassicV19/cmake-build-debug/_deps/stm32h7xx_cmsis_device-src/Include/stm32h743xx.h"
	.file 5 "D:/RTOS/Board/YD-STM32H7xxVx_ClassicV19/cmake-build-debug/_deps/stm32h7xx_cmsis_device-src/Include/stm32h7xx.h"
	.file 6 "D:/RTOS/Board/YD-STM32H7xxVx_ClassicV19/cmake-build-debug/_deps/stm32h7xx_hal_driver-src/Inc/stm32h7xx_hal_def.h"
	.file 7 "D:/RTOS/Board/YD-STM32H7xxVx_ClassicV19/cmake-build-debug/_deps/stm32h7xx_hal_driver-src/Inc/stm32h7xx_hal_eth.h"
	.file 8 "D:/RTOS/Board/YD-STM32H7xxVx_ClassicV19/cmake-build-debug/_deps/stm32h7xx_hal_driver-src/Inc/stm32h7xx_hal_eth_ex.h"