	.cpu cortex-m7
	.arch armv7e-m
	.fpu fpv5-d16
	.eabi_attribute 28, 1
	.eabi_attribute 20, 1
	.eabi_attribute 21, 1
	.eabi_attribute 23, 3
	.eabi_attribute 24, 1
	.eabi_attribute 25, 1
	.eabi_attribute 26, 1
	.eabi_attribute 30, 1
	.eabi_attribute 34, 1
	.eabi_attribute 18, 4
	.file	"stm32h7xx_hal_iwdg.c"
	.text
.Ltext0:
	.cfi_sections	.debug_frame
	.file 1 "D:/RTOS/Board/YD-STM32H7xxVx_ClassicV19/cmake-build-debug/_deps/stm32h7xx_hal_driver-src/Src/stm32h7xx_hal_iwdg.c"
	.section	.text.HAL_IWDG_Init,"ax",%progbits
	.align	1
	.global	HAL_IWDG_Init
	.syntax unified
	.thumb
	.thumb_func
	.type	HAL_IWDG_Init, %function
HAL_IWDG_Init:
.LFB335:
	.loc 1 172 1
	.cfi_startproc
	@ args = 0, pretend = 0, frame = 0
	@ frame_needed = 0, uses_anonymous_args = 0
.LVL0:
	.loc 1 173 3
	.loc 1 176 3
	.loc 1 176 6 is_stmt 0
	cmp	r0, #0
	beq	.L6
	.loc 1 172 1
	push	{r3, r4, r5, lr}
	.cfi_def_cfa_offset 16
	.cfi_offset 3, -16
	.cfi_offset 4, -12
	.cfi_offset 5, -8
	.cfi_offset 14, -4
	mov	r4, r0
	.loc 1 182 3 is_stmt 1
	.loc 1 183 3
	.loc 1 184 3
	.loc 1 185 3
	.loc 1 188 3
	.loc 1 188 12 is_stmt 0
	ldr	r3, [r0]
	.loc 1 188 28
	movw	r2, #52428
	str	r2, [r3]
	.loc 1 192 3 is_stmt 1
	.loc 1 192 12 is_stmt 0
	ldr	r3, [r0]
	.loc 1 192 28
	movw	r2, #21845
	str	r2, [r3]
	.loc 1 195 3 is_stmt 1
	.loc 1 195 8 is_stmt 0
	ldr	r3, [r0]
	.loc 1 195 36
	ldr	r2, [r0, #4]
	.loc 1 195 23
	str	r2, [r3, #4]
	.loc 1 196 3 is_stmt 1
	.loc 1 196 8 is_stmt 0
	ldr	r3, [r0]
	.loc 1 196 37
	ldr	r2, [r0, #8]
	.loc 1 196 24
	str	r2, [r3, #8]
	.loc 1 199 3 is_stmt 1
	.loc 1 199 15 is_stmt 0
	bl	HAL_GetTick
.LVL1:
	mov	r5, r0
.LVL2:
	.loc 1 202 3 is_stmt 1
.L3:
	.loc 1 202 88
	.loc 1 202 16 is_stmt 0
	ldr	r3, [r4]
	.loc 1 202 26
	ldr	r2, [r3, #12]
	.loc 1 202 88
	tst	r2, #7
	beq	.L12
	.loc 1 204 5 is_stmt 1
	.loc 1 204 10 is_stmt 0
	bl	HAL_GetTick
.LVL3:
	.loc 1 204 24
	subs	r0, r0, r5
	.loc 1 204 8
	cmp	r0, #49
	bls	.L3
	.loc 1 206 7 is_stmt 1
	.loc 1 206 17 is_stmt 0
	ldr	r3, [r4]
	.loc 1 206 27
	ldr	r3, [r3, #12]
	.loc 1 206 10
	tst	r3, #7
	beq	.L3
	.loc 1 208 16
	movs	r0, #3
	b	.L2
.L12:
	.loc 1 215 3 is_stmt 1
	.loc 1 215 22 is_stmt 0
	ldr	r1, [r3, #16]
	.loc 1 215 43
	ldr	r2, [r4, #12]
	.loc 1 215 6
	cmp	r1, r2
	beq	.L5
	.loc 1 220 5 is_stmt 1
	.loc 1 220 27 is_stmt 0
	str	r2, [r3, #16]
	.loc 1 229 10
	movs	r0, #0
.L2:
	.loc 1 230 1
	pop	{r3, r4, r5, pc}
.LVL4:
.L5:
	.loc 1 225 5 is_stmt 1
	.loc 1 225 30 is_stmt 0
	movw	r2, #43690
	str	r2, [r3]
	.loc 1 229 10
	movs	r0, #0
	b	.L2
.LVL5:
.L6:
	.cfi_def_cfa_offset 0
	.cfi_restore 3
	.cfi_restore 4
	.cfi_restore 5
	.cfi_restore 14
	.loc 1 178 12
	movs	r0, #1
.LVL6:
	.loc 1 230 1
	bx	lr
	.cfi_endproc
.LFE335:
	.size	HAL_IWDG_Init, .-HAL_IWDG_Init
	.section	.text.HAL_IWDG_Refresh,"ax",%progbits
	.align	1
	.global	HAL_IWDG_Refresh
	.syntax unified
	.thumb
	.thumb_func
	.type	HAL_IWDG_Refresh, %function
HAL_IWDG_Refresh:
.LFB336:
	.loc 1 259 1 is_stmt 1
	.cfi_startproc
	@ args = 0, pretend = 0, frame = 0
	@ frame_needed = 0, uses_anonymous_args = 0
	@ link register save eliminated.
.LVL7:
	.loc 1 261 3
	.loc 1 261 12 is_stmt 0
	ldr	r3, [r0]
	.loc 1 261 28
	movw	r2, #43690
	str	r2, [r3]
	.loc 1 264 3 is_stmt 1
	.loc 1 265 1 is_stmt 0
	movs	r0, #0
.LVL8:
	bx	lr
	.cfi_endproc
.LFE336:
	.size	HAL_IWDG_Refresh, .-HAL_IWDG_Refresh
	.text
.Letext0:
	.file 2 "m:\\noinstall\\arm-gnu-toolchain-12.2.rel1-mingw-w64-i686-arm-none-eabi\\arm-none-eabi\\include\\machine\\_default_types.h"
	.file 3 "m:\\noinstall\\arm-gnu-toolchain-12.2.rel1-mingw-w64-i686-arm-none-eabi\\arm-none-eabi\\include\\sys\\_stdint.h"
	.file 4 "D:/RTOS/Board/YD-STM32H7xxVx_ClassicV19/cmake-build-debug/_deps/stm32h7xx_cmsis_device-src/Include/stm32h743xx.h"
	.file 5 "D:/RTOS/Board/YD-STM32H7xxVx_ClassicV19/cmake-build-debug/_deps/stm32h7xx_hal_driver-src/Inc/stm32h7xx_hal_def.h"
	.file 6 "D:/RTOS/Board/YD-STM32H7xxVx_ClassicV19/cmake-build-debug/_deps/stm32h7xx_hal_driver-src/Inc/stm32h7xx_hal_iwdg.h"
	.file 7 "D:/RTOS/Board/YD-STM32H7xxVx_ClassicV19/cmake-build-debug/_deps/stm32h7xx_hal_driver-src/Inc/stm32h7xx_hal.h"