	.cpu cortex-m7
	.arch armv7e-m
	.fpu fpv5-d16
	.eabi_attribute 28, 1
	.eabi_attribute 20, 1
	.eabi_attribute 21, 1
	.eabi_attribute 23, 3
	.eabi_attribute 24, 1
	.eabi_attribute 25, 1
	.eabi_attribute 26, 1
	.eabi_attribute 30, 1
	.eabi_attribute 34, 1
	.eabi_attribute 18, 4
	.file	"stm32h7xx_hal_lptim.c"
	.text
.Ltext0:
	.cfi_sections	.debug_frame
	.file 1 "D:/RTOS/Board/YD-STM32H7xxVx_ClassicV19/cmake-build-debug/_deps/stm32h7xx_hal_driver-src/Src/stm32h7xx_hal_lptim.c"
	.section	.text.LPTIM_WaitForFlag,"ax",%progbits
	.align	1
	.syntax unified
	.thumb
	.thumb_func
	.type	LPTIM_WaitForFlag, %function
LPTIM_WaitForFlag:
.LFB375:
	.loc 1 2323 1
	.cfi_startproc
	@ args = 0, pretend = 0, frame = 0
	@ frame_needed = 0, uses_anonymous_args = 0
	@ link register save eliminated.
.LVL0:
	mov	ip, r0
	.loc 1 2324 3
.LVL1:
	.loc 1 2325 3
	.loc 1 2325 53 is_stmt 0
	ldr	r3, .L6
	ldr	r3, [r3]
	ldr	r2, .L6+4
	umull	r2, r3, r2, r3
	lsrs	r3, r3, #14
	.loc 1 2325 12
	mov	r2, #1000
	mul	r3, r2, r3
.LVL2:
	.loc 1 2324 21
	movs	r0, #0
.LVL3:
	b	.L4
.LVL4:
.L2:
	.loc 1 2333 69 is_stmt 1
	.loc 1 2333 27 is_stmt 0
	ldr	r2, [ip]
	.loc 1 2333 37
	ldr	r2, [r2]
	.loc 1 2333 69
	bics	r2, r1, r2
	beq	.L3
	.loc 1 2333 69 discriminator 1
	cbz	r3, .L3
.LVL5:
.L4:
	.loc 1 2326 3 is_stmt 1
	.loc 1 2328 5
	.loc 1 2329 5
	.loc 1 2329 8 is_stmt 0
	subs	r3, r3, #1
.LVL6:
	bne	.L2
	.loc 1 2331 14
	movs	r0, #3
.LVL7:
	b	.L2
.LVL8:
.L3:
	.loc 1 2335 3 is_stmt 1
	.loc 1 2336 1 is_stmt 0
	bx	lr
.L7:
	.align	2
.L6:
	.word	SystemCoreClock
	.word	-776530087
	.cfi_endproc
.LFE375:
	.size	LPTIM_WaitForFlag, .-LPTIM_WaitForFlag
	.section	.text.HAL_LPTIM_MspInit,"ax",%progbits
	.align	1
	.weak	HAL_LPTIM_MspInit
	.syntax unified
	.thumb
	.thumb_func
	.type	HAL_LPTIM_MspInit, %function
HAL_LPTIM_MspInit:
.LFB337:
	.loc 1 414 1 is_stmt 1
	.cfi_startproc
	@ args = 0, pretend = 0, frame = 0
	@ frame_needed = 0, uses_anonymous_args = 0
	@ link register save eliminated.
.LVL9:
	.loc 1 416 3
	.loc 1 421 1 is_stmt 0
	bx	lr
	.cfi_endproc
.LFE337:
	.size	HAL_LPTIM_MspInit, .-HAL_LPTIM_MspInit
	.section	.text.HAL_LPTIM_Init,"ax",%progbits
	.align	1
	.global	HAL_LPTIM_Init
	.syntax unified
	.thumb
	.thumb_func
	.type	HAL_LPTIM_Init, %function
HAL_LPTIM_Init:
.LFB335:
	.loc 1 224 1 is_stmt 1
	.cfi_startproc
	@ args = 0, pretend = 0, frame = 0
	@ frame_needed = 0, uses_anonymous_args = 0
.LVL10:
	.loc 1 225 3
	.loc 1 228 3
	.loc 1 228 6 is_stmt 0
	cmp	r0, #0
	beq	.L21
	.loc 1 224 1
	push	{r3, r4, r5, r6, r7, lr}
	.cfi_def_cfa_offset 24
	.cfi_offset 3, -24
	.cfi_offset 4, -20
	.cfi_offset 5, -16
	.cfi_offset 6, -12
	.cfi_offset 7, -8
	.cfi_offset 14, -4
	mov	r4, r0
	.loc 1 234 3 is_stmt 1
	.loc 1 236 3
	.loc 1 237 3
	.loc 1 238 3
	.loc 1 241 5
	.loc 1 242 5
	.loc 1 244 3
	.loc 1 245 3
	.loc 1 247 5
	.loc 1 248 5
	.loc 1 250 3
	.loc 1 251 3
	.loc 1 252 3
	.loc 1 254 3
	.loc 1 254 13 is_stmt 0
	ldrb	r3, [r0, #54]	@ zero_extendqisi2
	.loc 1 254 6
	cmp	r3, #0
	beq	.L26
.LVL11:
.L11:
	.loc 1 277 3 is_stmt 1
	.loc 1 277 17 is_stmt 0
	movs	r3, #2
	strb	r3, [r4, #54]
	.loc 1 280 3 is_stmt 1
	.loc 1 280 19 is_stmt 0
	ldr	r5, [r4]
	.loc 1 280 11
	ldr	r3, [r5, #12]
.LVL12:
	.loc 1 282 3 is_stmt 1
	.loc 1 282 26 is_stmt 0
	ldr	r1, [r4, #4]
	.loc 1 282 6
	cmp	r1, #1
	beq	.L12
	.loc 1 283 23
	ldr	r2, [r4, #40]
	.loc 1 283 7
	cmp	r2, #8388608
	bne	.L13
.L12:
	.loc 1 285 5 is_stmt 1
	.loc 1 285 13 is_stmt 0
	bic	r3, r3, #30
.LVL13:
.L13:
	.loc 1 287 3 is_stmt 1
	.loc 1 287 27 is_stmt 0
	ldr	r2, [r4, #20]
	.loc 1 287 6
	movw	r0, #65535
	cmp	r2, r0
	beq	.L14
	.loc 1 289 5 is_stmt 1
	.loc 1 289 13 is_stmt 0
	bic	r3, r3, #57344
.LVL14:
	bic	r3, r3, #192
.LVL15:
.L14:
	.loc 1 293 3 is_stmt 1
	.loc 1 293 11 is_stmt 0
	ldr	r0, .L27
	ands	r0, r0, r3
.LVL16:
	.loc 1 297 3 is_stmt 1
	.loc 1 298 33 is_stmt 0
	ldr	r3, [r4, #8]
	.loc 1 297 41
	orrs	r3, r3, r1
	.loc 1 299 27
	ldr	r6, [r4, #32]
	.loc 1 298 44
	orrs	r3, r3, r6
	.loc 1 300 27
	ldr	r6, [r4, #36]
	.loc 1 299 43
	orrs	r3, r3, r6
	.loc 1 301 27
	ldr	r6, [r4, #40]
	.loc 1 300 39
	orrs	r3, r3, r6
	.loc 1 297 11
	orrs	r3, r3, r0
.LVL17:
	.loc 1 306 3 is_stmt 1
	.loc 1 306 6 is_stmt 0
	cbnz	r1, .L15
	.loc 1 308 5 is_stmt 1
	.loc 1 308 37 is_stmt 0
	ldr	r0, [r4, #28]
	.loc 1 308 49
	ldr	r7, [r4, #16]
	orrs	r0, r0, r7
	.loc 1 308 13
	orrs	r3, r3, r0
.LVL18:
.L15:
	.loc 1 313 3 is_stmt 1
	.loc 1 313 6 is_stmt 0
	cmp	r1, #1
	beq	.L16
	.loc 1 314 7
	cmp	r6, #8388608
	bne	.L17
.L16:
	.loc 1 316 5 is_stmt 1
	.loc 1 316 48 is_stmt 0
	ldr	r1, [r4, #12]
	.loc 1 317 48
	ldr	r0, [r4, #16]
	.loc 1 316 58
	orrs	r1, r1, r0
	.loc 1 316 13
	orrs	r3, r3, r1
.LVL19:
.L17:
	.loc 1 321 3 is_stmt 1
	.loc 1 321 6 is_stmt 0
	movw	r1, #65535
	cmp	r2, r1
	beq	.L18
	.loc 1 324 5 is_stmt 1
	.loc 1 325 37 is_stmt 0
	ldr	r1, [r4, #24]
	.loc 1 324 45
	orrs	r2, r2, r1
	.loc 1 326 37
	ldr	r1, [r4, #28]
	.loc 1 325 49
	orrs	r2, r2, r1
	.loc 1 324 13
	orrs	r3, r3, r2
.LVL20:
.L18:
	.loc 1 330 3 is_stmt 1
	.loc 1 330 26 is_stmt 0
	str	r3, [r5, #12]
	.loc 1 333 3 is_stmt 1
	.loc 1 333 14 is_stmt 0
	ldr	r3, [r4]
.LVL21:
	.loc 1 333 6
	ldr	r1, .L27+4
	ldr	r2, .L27+8
	cmp	r3, r2
	it	ne
	cmpne	r3, r1
	bne	.L19
	.loc 1 336 5 is_stmt 1
	.loc 1 337 5
	.loc 1 340 5
	.loc 1 340 44 is_stmt 0
	ldr	r2, [r4, #44]
	.loc 1 340 72
	ldr	r1, [r4, #48]
	.loc 1 340 58
	orrs	r2, r2, r1
	.loc 1 340 29
	str	r2, [r3, #36]
.LVL22:
.L20:
	.loc 1 355 3 is_stmt 1
	.loc 1 355 17 is_stmt 0
	movs	r3, #1
	strb	r3, [r4, #54]
	.loc 1 358 3 is_stmt 1
	.loc 1 358 10 is_stmt 0
	movs	r0, #0
	.loc 1 359 1
	pop	{r3, r4, r5, r6, r7, pc}
.LVL23:
.L26:
	.loc 1 257 5 is_stmt 1
	.loc 1 257 18 is_stmt 0
	strb	r3, [r0, #53]
	.loc 1 272 5 is_stmt 1
	bl	HAL_LPTIM_MspInit
.LVL24:
	b	.L11
.LVL25:
.L19:
	.loc 1 344 5
	.loc 1 344 8 is_stmt 0
	ldr	r2, .L27+12
	cmp	r3, r2
	bne	.L20
	.loc 1 347 7 is_stmt 1
	.loc 1 350 7
	.loc 1 350 45 is_stmt 0
	ldr	r2, [r4, #44]
	.loc 1 350 31
	str	r2, [r3, #36]
.LVL26:
	b	.L20
.LVL27:
.L21:
	.cfi_def_cfa_offset 0
	.cfi_restore 3
	.cfi_restore 4
	.cfi_restore 5
	.cfi_restore 6
	.cfi_restore 7
	.cfi_restore 14
	.loc 1 230 12
	movs	r0, #1
.LVL28:
	.loc 1 359 1
	bx	lr
.L28:
	.align	2
.L27:
	.word	-15076866
	.word	1073751040
	.word	1476404224
	.word	1476405248
	.cfi_endproc
.LFE335:
	.size	HAL_LPTIM_Init, .-HAL_LPTIM_Init
	.section	.text.HAL_LPTIM_MspDeInit,"ax",%progbits
	.align	1
	.weak	HAL_LPTIM_MspDeInit
	.syntax unified
	.thumb
	.thumb_func
	.type	HAL_LPTIM_MspDeInit, %function
HAL_LPTIM_MspDeInit:
.LFB338:
	.loc 1 429 1 is_stmt 1
	.cfi_startproc
	@ args = 0, pretend = 0, frame = 0
	@ frame_needed = 0, uses_anonymous_args = 0
	@ link register save eliminated.
.LVL29:
	.loc 1 431 3
	.loc 1 436 1 is_stmt 0
	bx	lr
	.cfi_endproc
.LFE338:
	.size	HAL_LPTIM_MspDeInit, .-HAL_LPTIM_MspDeInit
	.section	.text.HAL_LPTIM_PWM_Start,"ax",%progbits
	.align	1
	.global	HAL_LPTIM_PWM_Start
	.syntax unified
	.thumb
	.thumb_func
	.type	HAL_LPTIM_PWM_Start, %function
HAL_LPTIM_PWM_Start:
.LFB339:
	.loc 1 478 1 is_stmt 1
	.cfi_startproc
	@ args = 0, pretend = 0, frame = 0
	@ frame_needed = 0, uses_anonymous_args = 0
.LVL30:
	push	{r3, r4, r5, lr}
	.cfi_def_cfa_offset 16
	.cfi_offset 3, -16
	.cfi_offset 4, -12
	.cfi_offset 5, -8
	.cfi_offset 14, -4
	mov	r4, r0
	mov	r3, r1
	mov	r5, r2
	.loc 1 480 3
	.loc 1 481 3
	.loc 1 482 3
	.loc 1 485 3
	.loc 1 485 17 is_stmt 0
	movs	r2, #2
.LVL31:
	strb	r2, [r0, #54]
	.loc 1 488 3 is_stmt 1
	.loc 1 488 9 is_stmt 0
	ldr	r2, [r0]
	.loc 1 488 19
	ldr	r1, [r2, #12]
.LVL32:
	.loc 1 488 26
	bic	r1, r1, #1048576
	str	r1, [r2, #12]
	.loc 1 491 3 is_stmt 1
	.loc 1 491 12 is_stmt 0
	ldr	r2, [r0]
	.loc 1 491 22
	ldr	r1, [r2, #16]
	.loc 1 491 27
	orr	r1, r1, #1
	str	r1, [r2, #16]
	.loc 1 494 3 is_stmt 1
	.loc 1 494 12 is_stmt 0
	ldr	r2, [r0]
	.loc 1 494 28
	movs	r1, #16
	str	r1, [r2, #4]
	.loc 1 497 3 is_stmt 1
	.loc 1 497 12 is_stmt 0
	ldr	r2, [r0]
	.loc 1 497 28
	str	r3, [r2, #24]
	.loc 1 500 3 is_stmt 1
	.loc 1 500 7 is_stmt 0
	bl	LPTIM_WaitForFlag
.LVL33:
	.loc 1 500 6
	cmp	r0, #3
	beq	.L31
	.loc 1 506 3 is_stmt 1
	.loc 1 506 12 is_stmt 0
	ldr	r3, [r4]
	.loc 1 506 28
	movs	r1, #8
	str	r1, [r3, #4]
	.loc 1 509 3 is_stmt 1
	.loc 1 509 12 is_stmt 0
	ldr	r3, [r4]
	.loc 1 509 28
	str	r5, [r3, #20]
	.loc 1 512 3 is_stmt 1
	.loc 1 512 7 is_stmt 0
	mov	r0, r4
	bl	LPTIM_WaitForFlag
.LVL34:
	.loc 1 512 6
	cmp	r0, #3
	beq	.L31
	.loc 1 518 3 is_stmt 1
	.loc 1 518 12 is_stmt 0
	ldr	r2, [r4]
	.loc 1 518 22
	ldr	r3, [r2, #16]
	.loc 1 518 27
	orr	r3, r3, #4
	str	r3, [r2, #16]
	.loc 1 521 3 is_stmt 1
	.loc 1 521 17 is_stmt 0
	movs	r3, #1
	strb	r3, [r4, #54]
	.loc 1 524 3 is_stmt 1
	.loc 1 524 10 is_stmt 0
	movs	r0, #0
.L31:
	.loc 1 525 1
	pop	{r3, r4, r5, pc}
	.cfi_endproc
.LFE339:
	.size	HAL_LPTIM_PWM_Start, .-HAL_LPTIM_PWM_Start
	.section	.text.HAL_LPTIM_OnePulse_Start,"ax",%progbits
	.align	1
	.global	HAL_LPTIM_OnePulse_Start
	.syntax unified
	.thumb
	.thumb_func
	.type	HAL_LPTIM_OnePulse_Start, %function
HAL_LPTIM_OnePulse_Start:
.LFB343:
	.loc 1 701 1 is_stmt 1
	.cfi_startproc
	@ args = 0, pretend = 0, frame = 0
	@ frame_needed = 0, uses_anonymous_args = 0
.LVL35:
	push	{r3, r4, r5, lr}
	.cfi_def_cfa_offset 16
	.cfi_offset 3, -16
	.cfi_offset 4, -12
	.cfi_offset 5, -8
	.cfi_offset 14, -4
	mov	r4, r0
	mov	r3, r1
	mov	r5, r2
	.loc 1 703 3
	.loc 1 704 3
	.loc 1 705 3
	.loc 1 708 3
	.loc 1 708 17 is_stmt 0
	movs	r2, #2
.LVL36:
	strb	r2, [r0, #54]
	.loc 1 711 3 is_stmt 1
	.loc 1 711 9 is_stmt 0
	ldr	r2, [r0]
	.loc 1 711 19
	ldr	r1, [r2, #12]
.LVL37:
	.loc 1 711 26
	bic	r1, r1, #1048576
	str	r1, [r2, #12]
	.loc 1 714 3 is_stmt 1
	.loc 1 714 12 is_stmt 0
	ldr	r2, [r0]
	.loc 1 714 22
	ldr	r1, [r2, #16]
	.loc 1 714 27
	orr	r1, r1, #1
	str	r1, [r2, #16]
	.loc 1 717 3 is_stmt 1
	.loc 1 717 12 is_stmt 0
	ldr	r2, [r0]
	.loc 1 717 28
	movs	r1, #16
	str	r1, [r2, #4]
	.loc 1 720 3 is_stmt 1
	.loc 1 720 12 is_stmt 0
	ldr	r2, [r0]
	.loc 1 720 28
	str	r3, [r2, #24]
	.loc 1 723 3 is_stmt 1
	.loc 1 723 7 is_stmt 0
	bl	LPTIM_WaitForFlag
.LVL38:
	.loc 1 723 6
	cmp	r0, #3
	beq	.L34
	.loc 1 729 3 is_stmt 1
	.loc 1 729 12 is_stmt 0
	ldr	r3, [r4]
	.loc 1 729 28
	movs	r1, #8
	str	r1, [r3, #4]
	.loc 1 732 3 is_stmt 1
	.loc 1 732 12 is_stmt 0
	ldr	r3, [r4]
	.loc 1 732 28
	str	r5, [r3, #20]
	.loc 1 735 3 is_stmt 1
	.loc 1 735 7 is_stmt 0
	mov	r0, r4
	bl	LPTIM_WaitForFlag
.LVL39:
	.loc 1 735 6
	cmp	r0, #3
	beq	.L34
	.loc 1 741 3 is_stmt 1
	.loc 1 741 12 is_stmt 0
	ldr	r2, [r4]
	.loc 1 741 22
	ldr	r1, [r2, #16]
	.loc 1 741 27
	ldr	r3, .L36
	orrs	r3, r3, r1
	str	r3, [r2, #16]
	.loc 1 744 3 is_stmt 1
	.loc 1 744 17 is_stmt 0
	movs	r3, #1
	strb	r3, [r4, #54]
	.loc 1 747 3 is_stmt 1
	.loc 1 747 10 is_stmt 0
	movs	r0, #0
.L34:
	.loc 1 748 1
	pop	{r3, r4, r5, pc}
.LVL40:
.L37:
	.align	2
.L36:
	.word	524290
	.cfi_endproc
.LFE343:
	.size	HAL_LPTIM_OnePulse_Start, .-HAL_LPTIM_OnePulse_Start
	.section	.text.HAL_LPTIM_SetOnce_Start,"ax",%progbits
	.align	1
	.global	HAL_LPTIM_SetOnce_Start
	.syntax unified
	.thumb
	.thumb_func
	.type	HAL_LPTIM_SetOnce_Start, %function
HAL_LPTIM_SetOnce_Start:
.LFB347:
	.loc 1 925 1 is_stmt 1
	.cfi_startproc
	@ args = 0, pretend = 0, frame = 0
	@ frame_needed = 0, uses_anonymous_args = 0
.LVL41:
	push	{r3, r4, r5, lr}
	.cfi_def_cfa_offset 16
	.cfi_offset 3, -16
	.cfi_offset 4, -12
	.cfi_offset 5, -8
	.cfi_offset 14, -4
	mov	r4, r0
	mov	r3, r1
	mov	r5, r2
	.loc 1 927 3
	.loc 1 928 3
	.loc 1 929 3
	.loc 1 932 3
	.loc 1 932 17 is_stmt 0
	movs	r2, #2
.LVL42:
	strb	r2, [r0, #54]
	.loc 1 935 3 is_stmt 1
	.loc 1 935 9 is_stmt 0
	ldr	r2, [r0]
	.loc 1 935 19
	ldr	r1, [r2, #12]
.LVL43:
	.loc 1 935 26
	orr	r1, r1, #1048576
	str	r1, [r2, #12]
	.loc 1 938 3 is_stmt 1
	.loc 1 938 12 is_stmt 0
	ldr	r2, [r0]
	.loc 1 938 22
	ldr	r1, [r2, #16]
	.loc 1 938 27
	orr	r1, r1, #1
	str	r1, [r2, #16]
	.loc 1 941 3 is_stmt 1
	.loc 1 941 12 is_stmt 0
	ldr	r2, [r0]
	.loc 1 941 28
	movs	r1, #16
	str	r1, [r2, #4]
	.loc 1 944 3 is_stmt 1
	.loc 1 944 12 is_stmt 0
	ldr	r2, [r0]
	.loc 1 944 28
	str	r3, [r2, #24]
	.loc 1 947 3 is_stmt 1
	.loc 1 947 7 is_stmt 0
	bl	LPTIM_WaitForFlag
.LVL44:
	.loc 1 947 6
	cmp	r0, #3
	beq	.L39
	.loc 1 953 3 is_stmt 1
	.loc 1 953 12 is_stmt 0
	ldr	r3, [r4]
	.loc 1 953 28
	movs	r1, #8
	str	r1, [r3, #4]
	.loc 1 956 3 is_stmt 1
	.loc 1 956 12 is_stmt 0
	ldr	r3, [r4]
	.loc 1 956 28
	str	r5, [r3, #20]
	.loc 1 959 3 is_stmt 1
	.loc 1 959 7 is_stmt 0
	mov	r0, r4
	bl	LPTIM_WaitForFlag
.LVL45:
	.loc 1 959 6
	cmp	r0, #3
	beq	.L39
	.loc 1 965 3 is_stmt 1
	.loc 1 965 12 is_stmt 0
	ldr	r2, [r4]
	.loc 1 965 22
	ldr	r1, [r2, #16]
	.loc 1 965 27
	ldr	r3, .L41
	orrs	r3, r3, r1
	str	r3, [r2, #16]
	.loc 1 968 3 is_stmt 1
	.loc 1 968 17 is_stmt 0
	movs	r3, #1
	strb	r3, [r4, #54]
	.loc 1 971 3 is_stmt 1
	.loc 1 971 10 is_stmt 0
	movs	r0, #0
.L39:
	.loc 1 972 1
	pop	{r3, r4, r5, pc}
.LVL46:
.L42:
	.align	2
.L41:
	.word	524290
	.cfi_endproc
.LFE347:
	.size	HAL_LPTIM_SetOnce_Start, .-HAL_LPTIM_SetOnce_Start
	.section	.text.HAL_LPTIM_Encoder_Start,"ax",%progbits
	.align	1
	.global	HAL_LPTIM_Encoder_Start
	.syntax unified
	.thumb
	.thumb_func
	.type	HAL_LPTIM_Encoder_Start, %function
HAL_LPTIM_Encoder_Start:
.LFB351:
	.loc 1 1146 1 is_stmt 1
	.cfi_startproc
	@ args = 0, pretend = 0, frame = 0
	@ frame_needed = 0, uses_anonymous_args = 0
.LVL47:
	push	{r3, r4, r5, lr}
	.cfi_def_cfa_offset 16
	.cfi_offset 3, -16
	.cfi_offset 4, -12
	.cfi_offset 5, -8
	.cfi_offset 14, -4
	mov	r4, r0
	mov	r3, r1
	.loc 1 1147 3
	.loc 1 1150 3
	.loc 1 1151 3
	.loc 1 1152 3
	.loc 1 1153 3
	.loc 1 1154 3
	.loc 1 1157 3
	.loc 1 1157 17 is_stmt 0
	movs	r2, #2
	strb	r2, [r0, #54]
	.loc 1 1160 3 is_stmt 1
	.loc 1 1160 19 is_stmt 0
	ldr	r5, [r0]
	.loc 1 1160 11
	ldr	r1, [r5, #12]
.LVL48:
	.loc 1 1163 3 is_stmt 1
	.loc 1 1163 11 is_stmt 0
	bic	r1, r1, #6
.LVL49:
	.loc 1 1166 3 is_stmt 1
	.loc 1 1166 45 is_stmt 0
	ldr	r2, [r0, #12]
	.loc 1 1166 11
	orrs	r2, r2, r1
.LVL50:
	.loc 1 1169 3 is_stmt 1
	.loc 1 1169 26 is_stmt 0
	str	r2, [r5, #12]
	.loc 1 1172 3 is_stmt 1
	.loc 1 1172 9 is_stmt 0
	ldr	r1, [r0]
	.loc 1 1172 19
	ldr	r2, [r1, #12]
.LVL51:
	.loc 1 1172 26
	orr	r2, r2, #16777216
	str	r2, [r1, #12]
.LVL52:
	.loc 1 1175 3 is_stmt 1
	.loc 1 1175 12 is_stmt 0
	ldr	r1, [r0]
	.loc 1 1175 22
	ldr	r2, [r1, #16]
	.loc 1 1175 27
	orr	r2, r2, #1
	str	r2, [r1, #16]
	.loc 1 1178 3 is_stmt 1
	.loc 1 1178 12 is_stmt 0
	ldr	r2, [r0]
	.loc 1 1178 28
	movs	r1, #16
	str	r1, [r2, #4]
	.loc 1 1181 3 is_stmt 1
	.loc 1 1181 12 is_stmt 0
	ldr	r2, [r0]
	.loc 1 1181 28
	str	r3, [r2, #24]
	.loc 1 1184 3 is_stmt 1
	.loc 1 1184 7 is_stmt 0
	bl	LPTIM_WaitForFlag
.LVL53:
	.loc 1 1184 6
	cmp	r0, #3
	beq	.L44
	.loc 1 1190 3 is_stmt 1
	.loc 1 1190 12 is_stmt 0
	ldr	r2, [r4]
	.loc 1 1190 22
	ldr	r3, [r2, #16]
	.loc 1 1190 27
	orr	r3, r3, #4
	str	r3, [r2, #16]
	.loc 1 1193 3 is_stmt 1
	.loc 1 1193 17 is_stmt 0
	movs	r3, #1
	strb	r3, [r4, #54]
	.loc 1 1196 3 is_stmt 1
	.loc 1 1196 10 is_stmt 0
	movs	r0, #0
.L44:
	.loc 1 1197 1
	pop	{r3, r4, r5, pc}
	.cfi_endproc
.LFE351:
	.size	HAL_LPTIM_Encoder_Start, .-HAL_LPTIM_Encoder_Start
	.section	.text.HAL_LPTIM_TimeOut_Start,"ax",%progbits
	.align	1
	.global	HAL_LPTIM_TimeOut_Start
	.syntax unified
	.thumb
	.thumb_func
	.type	HAL_LPTIM_TimeOut_Start, %function
HAL_LPTIM_TimeOut_Start:
.LFB355:
	.loc 1 1358 1 is_stmt 1
	.cfi_startproc
	@ args = 0, pretend = 0, frame = 0
	@ frame_needed = 0, uses_anonymous_args = 0
.LVL54:
	push	{r3, r4, r5, lr}
	.cfi_def_cfa_offset 16
	.cfi_offset 3, -16
	.cfi_offset 4, -12
	.cfi_offset 5, -8
	.cfi_offset 14, -4
	mov	r4, r0
	mov	r3, r1
	mov	r5, r2
	.loc 1 1360 3
	.loc 1 1361 3
	.loc 1 1362 3
	.loc 1 1365 3
	.loc 1 1365 17 is_stmt 0
	movs	r2, #2
.LVL55:
	strb	r2, [r0, #54]
	.loc 1 1368 3 is_stmt 1
	.loc 1 1368 9 is_stmt 0
	ldr	r2, [r0]
	.loc 1 1368 19
	ldr	r1, [r2, #12]
.LVL56:
	.loc 1 1368 26
	orr	r1, r1, #524288
	str	r1, [r2, #12]
	.loc 1 1371 3 is_stmt 1
	.loc 1 1371 12 is_stmt 0
	ldr	r2, [r0]
	.loc 1 1371 22
	ldr	r1, [r2, #16]
	.loc 1 1371 27
	orr	r1, r1, #1
	str	r1, [r2, #16]
	.loc 1 1374 3 is_stmt 1
	.loc 1 1374 12 is_stmt 0
	ldr	r2, [r0]
	.loc 1 1374 28
	movs	r1, #16
	str	r1, [r2, #4]
	.loc 1 1377 3 is_stmt 1
	.loc 1 1377 12 is_stmt 0
	ldr	r2, [r0]
	.loc 1 1377 28
	str	r3, [r2, #24]
	.loc 1 1380 3 is_stmt 1
	.loc 1 1380 7 is_stmt 0
	bl	LPTIM_WaitForFlag
.LVL57:
	.loc 1 1380 6
	cmp	r0, #3
	beq	.L47
	.loc 1 1386 3 is_stmt 1
	.loc 1 1386 12 is_stmt 0
	ldr	r3, [r4]
	.loc 1 1386 28
	movs	r1, #8
	str	r1, [r3, #4]
	.loc 1 1389 3 is_stmt 1
	.loc 1 1389 12 is_stmt 0
	ldr	r3, [r4]
	.loc 1 1389 28
	str	r5, [r3, #20]
	.loc 1 1392 3 is_stmt 1
	.loc 1 1392 7 is_stmt 0
	mov	r0, r4
	bl	LPTIM_WaitForFlag
.LVL58:
	.loc 1 1392 6
	cmp	r0, #3
	beq	.L47
	.loc 1 1398 3 is_stmt 1
	.loc 1 1398 12 is_stmt 0
	ldr	r2, [r4]
	.loc 1 1398 22
	ldr	r3, [r2, #16]
	.loc 1 1398 27
	orr	r3, r3, #4
	str	r3, [r2, #16]
	.loc 1 1401 3 is_stmt 1
	.loc 1 1401 17 is_stmt 0
	movs	r3, #1
	strb	r3, [r4, #54]
	.loc 1 1404 3 is_stmt 1
	.loc 1 1404 10 is_stmt 0
	movs	r0, #0
.L47:
	.loc 1 1405 1
	pop	{r3, r4, r5, pc}
	.cfi_endproc
.LFE355:
	.size	HAL_LPTIM_TimeOut_Start, .-HAL_LPTIM_TimeOut_Start
	.section	.text.HAL_LPTIM_Counter_Start,"ax",%progbits
	.align	1
	.global	HAL_LPTIM_Counter_Start
	.syntax unified
	.thumb
	.thumb_func
	.type	HAL_LPTIM_Counter_Start, %function
HAL_LPTIM_Counter_Start:
.LFB359:
	.loc 1 1555 1 is_stmt 1
	.cfi_startproc
	@ args = 0, pretend = 0, frame = 0
	@ frame_needed = 0, uses_anonymous_args = 0
.LVL59:
	push	{r4, lr}
	.cfi_def_cfa_offset 8
	.cfi_offset 4, -8
	.cfi_offset 14, -4
	mov	r4, r0
	mov	r3, r1
	.loc 1 1557 3
	.loc 1 1558 3
	.loc 1 1561 3
	.loc 1 1561 17 is_stmt 0
	movs	r2, #2
	strb	r2, [r0, #54]
	.loc 1 1564 3 is_stmt 1
	.loc 1 1564 26 is_stmt 0
	ldr	r2, [r0, #4]
	.loc 1 1564 6
	cmp	r2, #1
	beq	.L50
	.loc 1 1565 23
	ldr	r2, [r0, #40]
	.loc 1 1565 7
	cmp	r2, #8388608
	beq	.L53
.LVL60:
.L50:
	.loc 1 1574 3 is_stmt 1
	.loc 1 1574 12 is_stmt 0
	ldr	r1, [r4]
	.loc 1 1574 22
	ldr	r2, [r1, #16]
	.loc 1 1574 27
	orr	r2, r2, #1
	str	r2, [r1, #16]
	.loc 1 1577 3 is_stmt 1
	.loc 1 1577 12 is_stmt 0
	ldr	r2, [r4]
	.loc 1 1577 28
	movs	r1, #16
	str	r1, [r2, #4]
	.loc 1 1580 3 is_stmt 1
	.loc 1 1580 12 is_stmt 0
	ldr	r2, [r4]
	.loc 1 1580 28
	str	r3, [r2, #24]
	.loc 1 1583 3 is_stmt 1
	.loc 1 1583 7 is_stmt 0
	mov	r0, r4
.LVL61:
	bl	LPTIM_WaitForFlag
.LVL62:
	.loc 1 1583 6
	cmp	r0, #3
	beq	.L51
	.loc 1 1589 3 is_stmt 1
	.loc 1 1589 12 is_stmt 0
	ldr	r2, [r4]
	.loc 1 1589 22
	ldr	r3, [r2, #16]
	.loc 1 1589 27
	orr	r3, r3, #4
	str	r3, [r2, #16]
	.loc 1 1592 3 is_stmt 1
	.loc 1 1592 17 is_stmt 0
	movs	r3, #1
	strb	r3, [r4, #54]
	.loc 1 1595 3 is_stmt 1
	.loc 1 1595 10 is_stmt 0
	movs	r0, #0
.L51:
	.loc 1 1596 1
	pop	{r4, pc}
.LVL63:
.L53:
	.loc 1 1568 5 is_stmt 1
	.loc 1 1570 5
	.loc 1 1570 11 is_stmt 0
	ldr	r1, [r0]
.LVL64:
	.loc 1 1570 21
	ldr	r2, [r1, #12]
	.loc 1 1570 28
	bic	r2, r2, #3584
	str	r2, [r1, #12]
	b	.L50
	.cfi_endproc
.LFE359:
	.size	HAL_LPTIM_Counter_Start, .-HAL_LPTIM_Counter_Start
	.section	.text.HAL_LPTIM_ReadCounter,"ax",%progbits
	.align	1
	.global	HAL_LPTIM_ReadCounter
	.syntax unified
	.thumb
	.thumb_func
	.type	HAL_LPTIM_ReadCounter, %function
HAL_LPTIM_ReadCounter:
.LFB363:
	.loc 1 1752 1 is_stmt 1
	.cfi_startproc
	@ args = 0, pretend = 0, frame = 0
	@ frame_needed = 0, uses_anonymous_args = 0
	@ link register save eliminated.
.LVL65:
	.loc 1 1754 3
	.loc 1 1756 3
	.loc 1 1756 17 is_stmt 0
	ldr	r3, [r0]
	.loc 1 1756 27
	ldr	r0, [r3, #28]
.LVL66:
	.loc 1 1757 1
	bx	lr
	.cfi_endproc
.LFE363:
	.size	HAL_LPTIM_ReadCounter, .-HAL_LPTIM_ReadCounter
	.section	.text.HAL_LPTIM_ReadAutoReload,"ax",%progbits
	.align	1
	.global	HAL_LPTIM_ReadAutoReload
	.syntax unified
	.thumb
	.thumb_func
	.type	HAL_LPTIM_ReadAutoReload, %function
HAL_LPTIM_ReadAutoReload:
.LFB364:
	.loc 1 1765 1 is_stmt 1
	.cfi_startproc
	@ args = 0, pretend = 0, frame = 0
	@ frame_needed = 0, uses_anonymous_args = 0
	@ link register save eliminated.
.LVL67:
	.loc 1 1767 3
	.loc 1 1769 3
	.loc 1 1769 17 is_stmt 0
	ldr	r3, [r0]
	.loc 1 1769 27
	ldr	r0, [r3, #24]
.LVL68:
	.loc 1 1770 1
	bx	lr
	.cfi_endproc
.LFE364:
	.size	HAL_LPTIM_ReadAutoReload, .-HAL_LPTIM_ReadAutoReload
	.section	.text.HAL_LPTIM_ReadCapturedValue,"ax",%progbits
	.align	1
	.global	HAL_LPTIM_ReadCapturedValue
	.syntax unified
	.thumb
	.thumb_func
	.type	HAL_LPTIM_ReadCapturedValue, %function
HAL_LPTIM_ReadCapturedValue:
.LFB365:
	.loc 1 1778 1 is_stmt 1
	.cfi_startproc
	@ args = 0, pretend = 0, frame = 0
	@ frame_needed = 0, uses_anonymous_args = 0
	@ link register save eliminated.
.LVL69:
	.loc 1 1780 3
	.loc 1 1782 3
	.loc 1 1782 17 is_stmt 0
	ldr	r3, [r0]
	.loc 1 1782 27
	ldr	r0, [r3, #20]
.LVL70:
	.loc 1 1783 1
	bx	lr
	.cfi_endproc
.LFE365:
	.size	HAL_LPTIM_ReadCapturedValue, .-HAL_LPTIM_ReadCapturedValue
	.section	.text.HAL_LPTIM_CompareMatchCallback,"ax",%progbits
	.align	1
	.weak	HAL_LPTIM_CompareMatchCallback
	.syntax unified
	.thumb
	.thumb_func
	.type	HAL_LPTIM_CompareMatchCallback, %function
HAL_LPTIM_CompareMatchCallback:
.LFB367:
	.loc 1 1944 1 is_stmt 1
	.cfi_startproc
	@ args = 0, pretend = 0, frame = 0
	@ frame_needed = 0, uses_anonymous_args = 0
	@ link register save eliminated.
.LVL71:
	.loc 1 1946 3
	.loc 1 1951 1 is_stmt 0
	bx	lr
	.cfi_endproc
.LFE367:
	.size	HAL_LPTIM_CompareMatchCallback, .-HAL_LPTIM_CompareMatchCallback
	.section	.text.HAL_LPTIM_AutoReloadMatchCallback,"ax",%progbits
	.align	1
	.weak	HAL_LPTIM_AutoReloadMatchCallback
	.syntax unified
	.thumb
	.thumb_func
	.type	HAL_LPTIM_AutoReloadMatchCallback, %function
HAL_LPTIM_AutoReloadMatchCallback:
.LFB368:
	.loc 1 1959 1 is_stmt 1
	.cfi_startproc
	@ args = 0, pretend = 0, frame = 0
	@ frame_needed = 0, uses_anonymous_args = 0
	@ link register save eliminated.
.LVL72:
	.loc 1 1961 3
	.loc 1 1966 1 is_stmt 0
	bx	lr
	.cfi_endproc
.LFE368:
	.size	HAL_LPTIM_AutoReloadMatchCallback, .-HAL_LPTIM_AutoReloadMatchCallback
	.section	.text.HAL_LPTIM_TriggerCallback,"ax",%progbits
	.align	1
	.weak	HAL_LPTIM_TriggerCallback
	.syntax unified
	.thumb
	.thumb_func
	.type	HAL_LPTIM_TriggerCallback, %function
HAL_LPTIM_TriggerCallback:
.LFB369:
	.loc 1 1974 1 is_stmt 1
	.cfi_startproc
	@ args = 0, pretend = 0, frame = 0
	@ frame_needed = 0, uses_anonymous_args = 0
	@ link register save eliminated.
.LVL73:
	.loc 1 1976 3
	.loc 1 1981 1 is_stmt 0
	bx	lr
	.cfi_endproc
.LFE369:
	.size	HAL_LPTIM_TriggerCallback, .-HAL_LPTIM_TriggerCallback
	.section	.text.HAL_LPTIM_CompareWriteCallback,"ax",%progbits
	.align	1
	.weak	HAL_LPTIM_CompareWriteCallback
	.syntax unified
	.thumb
	.thumb_func
	.type	HAL_LPTIM_CompareWriteCallback, %function
HAL_LPTIM_CompareWriteCallback:
.LFB370:
	.loc 1 1989 1 is_stmt 1
	.cfi_startproc
	@ args = 0, pretend = 0, frame = 0
	@ frame_needed = 0, uses_anonymous_args = 0
	@ link register save eliminated.
.LVL74:
	.loc 1 1991 3
	.loc 1 1996 1 is_stmt 0
	bx	lr
	.cfi_endproc
.LFE370:
	.size	HAL_LPTIM_CompareWriteCallback, .-HAL_LPTIM_CompareWriteCallback
	.section	.text.HAL_LPTIM_AutoReloadWriteCallback,"ax",%progbits
	.align	1
	.weak	HAL_LPTIM_AutoReloadWriteCallback
	.syntax unified
	.thumb
	.thumb_func
	.type	HAL_LPTIM_AutoReloadWriteCallback, %function
HAL_LPTIM_AutoReloadWriteCallback:
.LFB371:
	.loc 1 2004 1 is_stmt 1
	.cfi_startproc
	@ args = 0, pretend = 0, frame = 0
	@ frame_needed = 0, uses_anonymous_args = 0
	@ link register save eliminated.
.LVL75:
	.loc 1 2006 3
	.loc 1 2011 1 is_stmt 0
	bx	lr
	.cfi_endproc
.LFE371:
	.size	HAL_LPTIM_AutoReloadWriteCallback, .-HAL_LPTIM_AutoReloadWriteCallback
	.section	.text.HAL_LPTIM_DirectionUpCallback,"ax",%progbits
	.align	1
	.weak	HAL_LPTIM_DirectionUpCallback
	.syntax unified
	.thumb
	.thumb_func
	.type	HAL_LPTIM_DirectionUpCallback, %function
HAL_LPTIM_DirectionUpCallback:
.LFB372:
	.loc 1 2019 1 is_stmt 1
	.cfi_startproc
	@ args = 0, pretend = 0, frame = 0
	@ frame_needed = 0, uses_anonymous_args = 0
	@ link register save eliminated.
.LVL76:
	.loc 1 2021 3
	.loc 1 2026 1 is_stmt 0
	bx	lr
	.cfi_endproc
.LFE372:
	.size	HAL_LPTIM_DirectionUpCallback, .-HAL_LPTIM_DirectionUpCallback
	.section	.text.HAL_LPTIM_DirectionDownCallback,"ax",%progbits
	.align	1
	.weak	HAL_LPTIM_DirectionDownCallback
	.syntax unified
	.thumb
	.thumb_func
	.type	HAL_LPTIM_DirectionDownCallback, %function
HAL_LPTIM_DirectionDownCallback:
.LFB373:
	.loc 1 2034 1 is_stmt 1
	.cfi_startproc
	@ args = 0, pretend = 0, frame = 0
	@ frame_needed = 0, uses_anonymous_args = 0
	@ link register save eliminated.
.LVL77:
	.loc 1 2036 3
	.loc 1 2041 1 is_stmt 0
	bx	lr
	.cfi_endproc
.LFE373:
	.size	HAL_LPTIM_DirectionDownCallback, .-HAL_LPTIM_DirectionDownCallback
	.section	.text.HAL_LPTIM_IRQHandler,"ax",%progbits
	.align	1
	.global	HAL_LPTIM_IRQHandler
	.syntax unified
	.thumb
	.thumb_func
	.type	HAL_LPTIM_IRQHandler, %function
HAL_LPTIM_IRQHandler:
.LFB366:
	.loc 1 1817 1 is_stmt 1
	.cfi_startproc
	@ args = 0, pretend = 0, frame = 0
	@ frame_needed = 0, uses_anonymous_args = 0
.LVL78:
	push	{r4, lr}
	.cfi_def_cfa_offset 8
	.cfi_offset 4, -8
	.cfi_offset 14, -4
	mov	r4, r0
	.loc 1 1819 3
	.loc 1 1819 17 is_stmt 0
	ldr	r3, [r0]
	.loc 1 1819 27
	ldr	r2, [r3]
	.loc 1 1819 6
	tst	r2, #1
	beq	.L65
	.loc 1 1821 5 is_stmt 1
	.loc 1 1821 30 is_stmt 0
	ldr	r2, [r3, #8]
	.loc 1 1821 8
	tst	r2, #1
	bne	.L73
.LVL79:
.L65:
	.loc 1 1836 3 is_stmt 1
	.loc 1 1836 17 is_stmt 0
	ldr	r3, [r4]
	.loc 1 1836 27
	ldr	r2, [r3]
	.loc 1 1836 6
	tst	r2, #2
	beq	.L66
	.loc 1 1838 5 is_stmt 1
	.loc 1 1838 30 is_stmt 0
	ldr	r2, [r3, #8]
	.loc 1 1838 8
	tst	r2, #2
	bne	.L74
.L66:
	.loc 1 1853 3 is_stmt 1
	.loc 1 1853 17 is_stmt 0
	ldr	r3, [r4]
	.loc 1 1853 27
	ldr	r2, [r3]
	.loc 1 1853 6
	tst	r2, #4
	beq	.L67
	.loc 1 1855 5 is_stmt 1
	.loc 1 1855 30 is_stmt 0
	ldr	r2, [r3, #8]
	.loc 1 1855 8
	tst	r2, #4
	bne	.L75
.L67:
	.loc 1 1870 3 is_stmt 1
	.loc 1 1870 17 is_stmt 0
	ldr	r3, [r4]
	.loc 1 1870 27
	ldr	r2, [r3]
	.loc 1 1870 6
	tst	r2, #8
	beq	.L68
	.loc 1 1872 5 is_stmt 1
	.loc 1 1872 30 is_stmt 0
	ldr	r2, [r3, #8]
	.loc 1 1872 8
	tst	r2, #8
	bne	.L76
.L68:
	.loc 1 1887 3 is_stmt 1
	.loc 1 1887 17 is_stmt 0
	ldr	r3, [r4]
	.loc 1 1887 27
	ldr	r2, [r3]
	.loc 1 1887 6
	tst	r2, #16
	beq	.L69
	.loc 1 1889 5 is_stmt 1
	.loc 1 1889 30 is_stmt 0
	ldr	r2, [r3, #8]
	.loc 1 1889 8
	tst	r2, #16
	bne	.L77
.L69:
	.loc 1 1904 3 is_stmt 1
	.loc 1 1904 17 is_stmt 0
	ldr	r3, [r4]
	.loc 1 1904 27
	ldr	r2, [r3]
	.loc 1 1904 6
	tst	r2, #32
	beq	.L70
	.loc 1 1906 5 is_stmt 1
	.loc 1 1906 30 is_stmt 0
	ldr	r2, [r3, #8]
	.loc 1 1906 8
	tst	r2, #32
	bne	.L78
.L70:
	.loc 1 1921 3 is_stmt 1
	.loc 1 1921 17 is_stmt 0
	ldr	r3, [r4]
	.loc 1 1921 27
	ldr	r2, [r3]
	.loc 1 1921 6
	tst	r2, #64
	beq	.L64
	.loc 1 1923 5 is_stmt 1
	.loc 1 1923 30 is_stmt 0
	ldr	r2, [r3, #8]
	.loc 1 1923 8
	tst	r2, #64
	bne	.L79
.L64:
	.loc 1 1936 1
	pop	{r4, pc}
.LVL80:
.L73:
	.loc 1 1824 7 is_stmt 1
	.loc 1 1824 32 is_stmt 0
	movs	r2, #1
	str	r2, [r3, #4]
	.loc 1 1830 7 is_stmt 1
	bl	HAL_LPTIM_CompareMatchCallback
.LVL81:
	b	.L65
.L74:
	.loc 1 1841 7
	.loc 1 1841 32 is_stmt 0
	movs	r2, #2
	str	r2, [r3, #4]
	.loc 1 1847 7 is_stmt 1
	mov	r0, r4
	bl	HAL_LPTIM_AutoReloadMatchCallback
.LVL82:
	b	.L66
.L75:
	.loc 1 1858 7
	.loc 1 1858 32 is_stmt 0
	movs	r2, #4
	str	r2, [r3, #4]
	.loc 1 1864 7 is_stmt 1
	mov	r0, r4
	bl	HAL_LPTIM_TriggerCallback
.LVL83:
	b	.L67
.L76:
	.loc 1 1875 7
	.loc 1 1875 32 is_stmt 0
	movs	r2, #8
	str	r2, [r3, #4]
	.loc 1 1881 7 is_stmt 1
	mov	r0, r4
	bl	HAL_LPTIM_CompareWriteCallback
.LVL84:
	b	.L68
.L77:
	.loc 1 1892 7
	.loc 1 1892 32 is_stmt 0
	movs	r2, #16
	str	r2, [r3, #4]
	.loc 1 1898 7 is_stmt 1
	mov	r0, r4
	bl	HAL_LPTIM_AutoReloadWriteCallback
.LVL85:
	b	.L69
.L78:
	.loc 1 1909 7
	.loc 1 1909 32 is_stmt 0
	movs	r2, #32
	str	r2, [r3, #4]
	.loc 1 1915 7 is_stmt 1
	mov	r0, r4
	bl	HAL_LPTIM_DirectionUpCallback
.LVL86:
	b	.L70
.L79:
	.loc 1 1926 7
	.loc 1 1926 32 is_stmt 0
	movs	r2, #64
	str	r2, [r3, #4]
	.loc 1 1932 7 is_stmt 1
	mov	r0, r4
	bl	HAL_LPTIM_DirectionDownCallback
.LVL87:
	.loc 1 1936 1 is_stmt 0
	b	.L64
	.cfi_endproc
.LFE366:
	.size	HAL_LPTIM_IRQHandler, .-HAL_LPTIM_IRQHandler
	.section	.text.HAL_LPTIM_GetState,"ax",%progbits
	.align	1
	.global	HAL_LPTIM_GetState
	.syntax unified
	.thumb
	.thumb_func
	.type	HAL_LPTIM_GetState, %function
HAL_LPTIM_GetState:
.LFB374:
	.loc 1 2276 1 is_stmt 1
	.cfi_startproc
	@ args = 0, pretend = 0, frame = 0
	@ frame_needed = 0, uses_anonymous_args = 0
	@ link register save eliminated.
.LVL88:
	.loc 1 2278 3
	.loc 1 2278 16 is_stmt 0
	ldrb	r0, [r0, #54]	@ zero_extendqisi2
.LVL89:
	.loc 1 2279 1
	bx	lr
	.cfi_endproc
.LFE374:
	.size	HAL_LPTIM_GetState, .-HAL_LPTIM_GetState
	.section	.text.LPTIM_Disable,"ax",%progbits
	.align	1
	.global	LPTIM_Disable
	.syntax unified
	.thumb
	.thumb_func
	.type	LPTIM_Disable, %function
LPTIM_Disable:
.LFB376:
	.loc 1 2348 1 is_stmt 1
	.cfi_startproc
	@ args = 0, pretend = 0, frame = 0
	@ frame_needed = 0, uses_anonymous_args = 0
.LVL90:
	push	{r4, r5, r6, r7, r8, r9, r10, lr}
	.cfi_def_cfa_offset 32
	.cfi_offset 4, -32
	.cfi_offset 5, -28
	.cfi_offset 6, -24
	.cfi_offset 7, -20
	.cfi_offset 8, -16
	.cfi_offset 9, -12
	.cfi_offset 10, -8
	.cfi_offset 14, -4
	mov	r4, r0
	.loc 1 2349 3
.LVL91:
	.loc 1 2350 3
	.loc 1 2351 3
	.loc 1 2352 3
	.loc 1 2353 3
	.loc 1 2354 3
	.loc 1 2355 3
	.loc 1 2358 3
.LBB8:
.LBB9:
	.file 2 "d:\\rtos\\board\\yd-stm32h7xxvx_classicv19\\cmake-build-debug\\_deps\\stm32h7xx_cmsis_include\\drivers\\cmsis\\include\\cmsis_gcc.h"
	.loc 2 451 3
	.loc 2 453 3
	.syntax unified
@ 453 "d:\rtos\board\yd-stm32h7xxvx_classicv19\cmake-build-debug\_deps\stm32h7xx_cmsis_include\drivers\cmsis\include\cmsis_gcc.h" 1
	MRS r5, primask
@ 0 "" 2
.LVL92:
	.loc 2 454 3
	.thumb
	.syntax unified
.LBE9:
.LBE8:
	.loc 1 2359 3
.LBB10:
.LBB11:
	.loc 2 481 3
	movs	r3, #1
	.syntax unified
@ 481 "d:\rtos\board\yd-stm32h7xxvx_classicv19\cmake-build-debug\_deps\stm32h7xx_cmsis_include\drivers\cmsis\include\cmsis_gcc.h" 1
	MSR primask, r3
@ 0 "" 2
.LVL93:
	.thumb
	.syntax unified
.LBE11:
.LBE10:
	.loc 1 2363 3
	.loc 1 2363 27 is_stmt 0
	ldr	r3, [r0]
	.loc 1 2363 3
	ldr	r2, .L125
	cmp	r3, r2
	beq	.L82
	bls	.L115
	ldr	r2, .L125+4
	cmp	r3, r2
	beq	.L87
	add	r2, r2, #1024
	cmp	r3, r2
	bne	.L116
	.loc 1 2383 7 is_stmt 1
	.loc 1 2383 98 is_stmt 0
	ldr	r2, .L125+8
	ldr	r2, [r2, #88]
	.loc 1 2383 20
	and	r9, r2, #57344
.LVL94:
	.loc 1 2384 7 is_stmt 1
	b	.L86
.LVL95:
.L115:
	.loc 1 2363 3 is_stmt 0
	ldr	r2, .L125+12
	cmp	r3, r2
	beq	.L84
	add	r2, r2, #402653184
	cmp	r3, r2
	bne	.L117
	.loc 1 2369 7 is_stmt 1
	.loc 1 2369 98 is_stmt 0
	ldr	r2, .L125+8
	ldr	r2, [r2, #88]
	.loc 1 2369 20
	and	r9, r2, #7168
.LVL96:
	.loc 1 2370 7 is_stmt 1
	b	.L86
.LVL97:
.L117:
	.loc 1 2363 3 is_stmt 0
	mov	r9, #0
	b	.L86
.L116:
	mov	r9, #0
	b	.L86
.L84:
	.loc 1 2366 7 is_stmt 1
	.loc 1 2366 98 is_stmt 0
	ldr	r2, .L125+8
	ldr	r2, [r2, #84]
	.loc 1 2366 20
	and	r9, r2, #1879048192
.LVL98:
	.loc 1 2367 7 is_stmt 1
.L86:
	.loc 1 2391 3
	.loc 1 2391 10 is_stmt 0
	ldr	r8, [r3, #8]
.LVL99:
	.loc 1 2392 3 is_stmt 1
	.loc 1 2392 11 is_stmt 0
	ldr	r7, [r3, #12]
.LVL100:
	.loc 1 2393 3 is_stmt 1
	.loc 1 2393 10 is_stmt 0
	ldr	r2, [r3, #20]
.LVL101:
	.loc 1 2394 3 is_stmt 1
	.loc 1 2394 10 is_stmt 0
	ldr	r10, [r3, #24]
.LVL102:
	.loc 1 2395 3 is_stmt 1
	.loc 1 2395 12 is_stmt 0
	ldr	r6, [r3, #36]
.LVL103:
	.loc 1 2398 3 is_stmt 1
	ldr	r1, .L125
	cmp	r3, r1
	beq	.L89
	bls	.L118
	ldr	r1, .L125+4
	cmp	r3, r1
	beq	.L94
	add	r1, r1, #1024
	cmp	r3, r1
	bne	.L93
	.loc 1 2422 7
	.loc 1 2422 70 is_stmt 0
	ldr	r3, .L125+8
	ldr	r1, [r3, #156]
	.loc 1 2422 82
	orr	r1, r1, #4096
	str	r1, [r3, #156]
	.loc 1 2423 7 is_stmt 1
	.loc 1 2423 70 is_stmt 0
	ldr	r1, [r3, #156]
	.loc 1 2423 82
	bic	r1, r1, #4096
	str	r1, [r3, #156]
	.loc 1 2424 7 is_stmt 1
	b	.L93
.LVL104:
.L82:
	.loc 1 2373 7
	.loc 1 2373 98 is_stmt 0
	ldr	r2, .L125+8
	ldr	r2, [r2, #88]
	.loc 1 2373 20
	and	r9, r2, #57344
.LVL105:
	.loc 1 2374 7 is_stmt 1
	b	.L86
.LVL106:
.L87:
	.loc 1 2378 7
	.loc 1 2378 98 is_stmt 0
	ldr	r2, .L125+8
	ldr	r2, [r2, #88]
	.loc 1 2378 20
	and	r9, r2, #57344
.LVL107:
	.loc 1 2379 7 is_stmt 1
	b	.L86
.LVL108:
.L118:
	.loc 1 2398 3 is_stmt 0
	ldr	r1, .L125+12
	cmp	r3, r1
	beq	.L91
	add	r1, r1, #402653184
	cmp	r3, r1
	bne	.L93
	.loc 1 2405 7 is_stmt 1
	.loc 1 2405 70 is_stmt 0
	ldr	r3, .L125+8
	ldr	r1, [r3, #156]
	.loc 1 2405 82
	orr	r1, r1, #512
	str	r1, [r3, #156]
	.loc 1 2406 7 is_stmt 1
	.loc 1 2406 70 is_stmt 0
	ldr	r1, [r3, #156]
	.loc 1 2406 82
	bic	r1, r1, #512
	str	r1, [r3, #156]
	.loc 1 2407 7 is_stmt 1
	b	.L93
.L91:
	.loc 1 2401 7
	.loc 1 2401 70 is_stmt 0
	ldr	r3, .L125+8
	ldr	r1, [r3, #144]
	.loc 1 2401 83
	orr	r1, r1, #512
	str	r1, [r3, #144]
	.loc 1 2402 7 is_stmt 1
	.loc 1 2402 70 is_stmt 0
	ldr	r1, [r3, #144]
	.loc 1 2402 83
	bic	r1, r1, #512
	str	r1, [r3, #144]
	.loc 1 2403 7 is_stmt 1
.L93:
	.loc 1 2431 3
	.loc 1 2431 6 is_stmt 0
	orrs	r3, r2, r10
	beq	.L96
	.loc 1 2434 5 is_stmt 1
	.loc 1 2434 29 is_stmt 0
	ldr	r3, [r4]
	.loc 1 2434 5
	ldr	r1, .L125
	cmp	r3, r1
	beq	.L97
	bls	.L119
	ldr	r1, .L125+4
	cmp	r3, r1
	beq	.L102
	add	r1, r1, #1024
	cmp	r3, r1
	bne	.L101
	.loc 1 2454 9 is_stmt 1
	.loc 1 2454 156 is_stmt 0
	ldr	r1, .L125+8
	ldr	r3, [r1, #88]
	.loc 1 2454 194
	bic	r3, r3, #57344
	.loc 1 2454 86
	str	r3, [r1, #88]
	.loc 1 2455 9 is_stmt 1
	b	.L101
.L89:
	.loc 1 2410 7
	.loc 1 2410 70 is_stmt 0
	ldr	r3, .L125+8
	ldr	r1, [r3, #156]
	.loc 1 2410 82
	orr	r1, r1, #1024
	str	r1, [r3, #156]
	.loc 1 2411 7 is_stmt 1
	.loc 1 2411 70 is_stmt 0
	ldr	r1, [r3, #156]
	.loc 1 2411 82
	bic	r1, r1, #1024
	str	r1, [r3, #156]
	.loc 1 2412 7 is_stmt 1
	b	.L93
.L94:
	.loc 1 2416 7
	.loc 1 2416 70 is_stmt 0
	ldr	r3, .L125+8
	ldr	r1, [r3, #156]
	.loc 1 2416 82
	orr	r1, r1, #2048
	str	r1, [r3, #156]
	.loc 1 2417 7 is_stmt 1
	.loc 1 2417 70 is_stmt 0
	ldr	r1, [r3, #156]
	.loc 1 2417 82
	bic	r1, r1, #2048
	str	r1, [r3, #156]
	.loc 1 2418 7 is_stmt 1
	b	.L93
.L119:
	.loc 1 2434 5 is_stmt 0
	ldr	r1, .L125+12
	cmp	r3, r1
	beq	.L99
	add	r1, r1, #402653184
	cmp	r3, r1
	bne	.L101
	.loc 1 2440 9 is_stmt 1
	.loc 1 2440 156 is_stmt 0
	ldr	r1, .L125+8
	ldr	r3, [r1, #88]
	.loc 1 2440 194
	bic	r3, r3, #7168
	.loc 1 2440 86
	str	r3, [r1, #88]
	.loc 1 2441 9 is_stmt 1
	b	.L101
.L99:
	.loc 1 2437 9
	.loc 1 2437 157 is_stmt 0
	ldr	r1, .L125+8
	ldr	r3, [r1, #84]
	.loc 1 2437 196
	bic	r3, r3, #1879048192
	.loc 1 2437 87
	str	r3, [r1, #84]
	.loc 1 2438 9 is_stmt 1
.L101:
	.loc 1 2461 5
	.loc 1 2461 8 is_stmt 0
	cbnz	r2, .L120
.LVL109:
.L104:
	.loc 1 2475 5 is_stmt 1
	.loc 1 2475 8 is_stmt 0
	cmp	r10, #0
	bne	.L121
.L106:
	.loc 1 2491 5 is_stmt 1
	.loc 1 2491 29 is_stmt 0
	ldr	r3, [r4]
	.loc 1 2491 5
	ldr	r2, .L125
	cmp	r3, r2
	beq	.L108
	bls	.L122
	ldr	r2, .L125+4
	cmp	r3, r2
	beq	.L112
	add	r2, r2, #1024
	cmp	r3, r2
	bne	.L96
	.loc 1 2511 9 is_stmt 1
	.loc 1 2511 156 is_stmt 0
	ldr	r2, .L125+8
	ldr	r3, [r2, #88]
	.loc 1 2511 169
	bic	r3, r3, #57344
	.loc 1 2511 194
	orr	r3, r3, r9
	.loc 1 2511 86
	str	r3, [r2, #88]
	.loc 1 2512 9 is_stmt 1
	b	.L96
.LVL110:
.L97:
	.loc 1 2444 9
	.loc 1 2444 156 is_stmt 0
	ldr	r1, .L125+8
	ldr	r3, [r1, #88]
	.loc 1 2444 194
	bic	r3, r3, #57344
	.loc 1 2444 86
	str	r3, [r1, #88]
	.loc 1 2445 9 is_stmt 1
	b	.L101
.L102:
	.loc 1 2449 9
	.loc 1 2449 156 is_stmt 0
	ldr	r1, .L125+8
	ldr	r3, [r1, #88]
	.loc 1 2449 194
	bic	r3, r3, #57344
	.loc 1 2449 86
	str	r3, [r1, #88]
	.loc 1 2450 9 is_stmt 1
	b	.L101
.L120:
	.loc 1 2464 7
	.loc 1 2464 13 is_stmt 0
	ldr	r1, [r4]
	.loc 1 2464 23
	ldr	r3, [r1, #16]
	.loc 1 2464 28
	orr	r3, r3, #1
	str	r3, [r1, #16]
	.loc 1 2465 7 is_stmt 1
	.loc 1 2465 13 is_stmt 0
	ldr	r3, [r4]
	.loc 1 2465 29
	str	r2, [r3, #20]
	.loc 1 2468 7 is_stmt 1
	.loc 1 2468 11 is_stmt 0
	movs	r1, #8
	mov	r0, r4
.LVL111:
	bl	LPTIM_WaitForFlag
.LVL112:
	.loc 1 2468 10
	cmp	r0, #3
	beq	.L123
.L105:
	.loc 1 2472 7 is_stmt 1
	.loc 1 2472 16 is_stmt 0
	ldr	r3, [r4]
	.loc 1 2472 32
	movs	r2, #8
	str	r2, [r3, #4]
	b	.L104
.L123:
	.loc 1 2470 9 is_stmt 1
	.loc 1 2470 23 is_stmt 0
	movs	r3, #3
	strb	r3, [r4, #54]
	b	.L105
.L121:
	.loc 1 2478 7 is_stmt 1
	.loc 1 2478 13 is_stmt 0
	ldr	r2, [r4]
	.loc 1 2478 23
	ldr	r3, [r2, #16]
	.loc 1 2478 28
	orr	r3, r3, #1
	str	r3, [r2, #16]
	.loc 1 2479 7 is_stmt 1
	.loc 1 2479 13 is_stmt 0
	ldr	r3, [r4]
	.loc 1 2479 29
	str	r10, [r3, #24]
	.loc 1 2482 7 is_stmt 1
	.loc 1 2482 11 is_stmt 0
	movs	r1, #16
	mov	r0, r4
	bl	LPTIM_WaitForFlag
.LVL113:
	.loc 1 2482 10
	cmp	r0, #3
	beq	.L124
.L107:
	.loc 1 2487 7 is_stmt 1
	.loc 1 2487 16 is_stmt 0
	ldr	r3, [r4]
	.loc 1 2487 32
	movs	r2, #16
	str	r2, [r3, #4]
	b	.L106
.L124:
	.loc 1 2484 9 is_stmt 1
	.loc 1 2484 23 is_stmt 0
	movs	r3, #3
	strb	r3, [r4, #54]
	b	.L107
.L122:
	.loc 1 2491 5
	ldr	r2, .L125+12
	cmp	r3, r2
	beq	.L110
	add	r2, r2, #402653184
	cmp	r3, r2
	bne	.L96
	.loc 1 2497 9 is_stmt 1
	.loc 1 2497 156 is_stmt 0
	ldr	r2, .L125+8
	ldr	r3, [r2, #88]
	.loc 1 2497 169
	bic	r3, r3, #7168
	.loc 1 2497 194
	orr	r3, r3, r9
	.loc 1 2497 86
	str	r3, [r2, #88]
	.loc 1 2498 9 is_stmt 1
	b	.L96
.L110:
	.loc 1 2494 9
	.loc 1 2494 157 is_stmt 0
	ldr	r2, .L125+8
	ldr	r3, [r2, #84]
	.loc 1 2494 171
	bic	r3, r3, #1879048192
	.loc 1 2494 196
	orr	r3, r3, r9
	.loc 1 2494 87
	str	r3, [r2, #84]
	.loc 1 2495 9 is_stmt 1
.L96:
	.loc 1 2520 3
	.loc 1 2520 9 is_stmt 0
	ldr	r2, [r4]
	.loc 1 2520 19
	ldr	r3, [r2, #16]
	.loc 1 2520 24
	bic	r3, r3, #1
	str	r3, [r2, #16]
	.loc 1 2521 3 is_stmt 1
	.loc 1 2521 9 is_stmt 0
	ldr	r3, [r4]
	.loc 1 2521 25
	str	r8, [r3, #8]
	.loc 1 2522 3 is_stmt 1
	.loc 1 2522 9 is_stmt 0
	ldr	r3, [r4]
	.loc 1 2522 26
	str	r7, [r3, #12]
	.loc 1 2523 3 is_stmt 1
	.loc 1 2523 9 is_stmt 0
	ldr	r3, [r4]
	.loc 1 2523 27
	str	r6, [r3, #36]
	.loc 1 2526 3 is_stmt 1
.LBB12:
.LBB13:
	.loc 2 481 3
	.syntax unified
@ 481 "d:\rtos\board\yd-stm32h7xxvx_classicv19\cmake-build-debug\_deps\stm32h7xx_cmsis_include\drivers\cmsis\include\cmsis_gcc.h" 1
	MSR primask, r5
@ 0 "" 2
	.thumb
	.syntax unified
.LBE13:
.LBE12:
	.loc 1 2527 1 is_stmt 0
	pop	{r4, r5, r6, r7, r8, r9, r10, pc}
.LVL114:
.L108:
	.loc 1 2501 9 is_stmt 1
	.loc 1 2501 156 is_stmt 0
	ldr	r2, .L125+8
	ldr	r3, [r2, #88]
	.loc 1 2501 169
	bic	r3, r3, #57344
	.loc 1 2501 194
	orr	r3, r3, r9
	.loc 1 2501 86
	str	r3, [r2, #88]
	.loc 1 2502 9 is_stmt 1
	b	.L96
.L112:
	.loc 1 2506 9
	.loc 1 2506 156 is_stmt 0
	ldr	r2, .L125+8
	ldr	r3, [r2, #88]
	.loc 1 2506 169
	bic	r3, r3, #57344
	.loc 1 2506 194
	orr	r3, r3, r9
	.loc 1 2506 86
	str	r3, [r2, #88]
	.loc 1 2507 9 is_stmt 1
	b	.L96
.L126:
	.align	2
.L125:
	.word	1476405248
	.word	1476406272
	.word	1476543488
	.word	1073751040
	.cfi_endproc
.LFE376:
	.size	LPTIM_Disable, .-LPTIM_Disable
	.section	.text.HAL_LPTIM_DeInit,"ax",%progbits
	.align	1
	.global	HAL_LPTIM_DeInit
	.syntax unified
	.thumb
	.thumb_func
	.type	HAL_LPTIM_DeInit, %function
HAL_LPTIM_DeInit:
.LFB336:
	.loc 1 367 1
	.cfi_startproc
	@ args = 0, pretend = 0, frame = 0
	@ frame_needed = 0, uses_anonymous_args = 0
.LVL115:
	.loc 1 369 3
	.loc 1 369 6 is_stmt 0
	cbz	r0, .L129
	.loc 1 367 1
	push	{r4, lr}
	.cfi_def_cfa_offset 8
	.cfi_offset 4, -8
	.cfi_offset 14, -4
	mov	r4, r0
	.loc 1 375 3 is_stmt 1
	.loc 1 375 17 is_stmt 0
	movs	r3, #2
	strb	r3, [r0, #54]
	.loc 1 378 3 is_stmt 1
	bl	LPTIM_Disable
.LVL116:
	.loc 1 380 3
	.loc 1 380 7 is_stmt 0
	mov	r0, r4
	bl	HAL_LPTIM_GetState
.LVL117:
	.loc 1 380 6
	cmp	r0, #3
	beq	.L128
	.loc 1 395 3 is_stmt 1
	mov	r0, r4
	bl	HAL_LPTIM_MspDeInit
.LVL118:
	.loc 1 399 3
	.loc 1 399 17 is_stmt 0
	movs	r0, #0
	strb	r0, [r4, #54]
	.loc 1 402 3 is_stmt 1
	.loc 1 402 7
	.loc 1 402 22 is_stmt 0
	strb	r0, [r4, #53]
	.loc 1 402 5 is_stmt 1
	.loc 1 405 3
.L128:
	.loc 1 406 1 is_stmt 0
	pop	{r4, pc}
.LVL119:
.L129:
	.cfi_def_cfa_offset 0
	.cfi_restore 4
	.cfi_restore 14
	.loc 1 371 12
	movs	r0, #1
.LVL120:
	.loc 1 406 1
	bx	lr
	.cfi_endproc
.LFE336:
	.size	HAL_LPTIM_DeInit, .-HAL_LPTIM_DeInit
	.section	.text.HAL_LPTIM_PWM_Stop,"ax",%progbits
	.align	1
	.global	HAL_LPTIM_PWM_Stop
	.syntax unified
	.thumb
	.thumb_func
	.type	HAL_LPTIM_PWM_Stop, %function
HAL_LPTIM_PWM_Stop:
.LFB340:
	.loc 1 533 1 is_stmt 1
	.cfi_startproc
	@ args = 0, pretend = 0, frame = 0
	@ frame_needed = 0, uses_anonymous_args = 0
.LVL121:
	push	{r4, lr}
	.cfi_def_cfa_offset 8
	.cfi_offset 4, -8
	.cfi_offset 14, -4
	mov	r4, r0
	.loc 1 535 3
	.loc 1 538 3
	.loc 1 538 17 is_stmt 0
	movs	r3, #2
	strb	r3, [r0, #54]
	.loc 1 541 3 is_stmt 1
	bl	LPTIM_Disable
.LVL122:
	.loc 1 543 3
	.loc 1 543 7 is_stmt 0
	mov	r0, r4
	bl	HAL_LPTIM_GetState
.LVL123:
	.loc 1 543 6
	cmp	r0, #3
	beq	.L135
	.loc 1 549 3 is_stmt 1
	.loc 1 549 17 is_stmt 0
	movs	r3, #1
	strb	r3, [r4, #54]
	.loc 1 552 3 is_stmt 1
	.loc 1 552 10 is_stmt 0
	movs	r0, #0
.L135:
	.loc 1 553 1
	pop	{r4, pc}
	.cfi_endproc
.LFE340:
	.size	HAL_LPTIM_PWM_Stop, .-HAL_LPTIM_PWM_Stop
	.section	.text.HAL_LPTIM_PWM_Start_IT,"ax",%progbits
	.align	1
	.global	HAL_LPTIM_PWM_Start_IT
	.syntax unified
	.thumb
	.thumb_func
	.type	HAL_LPTIM_PWM_Start_IT, %function
HAL_LPTIM_PWM_Start_IT:
.LFB341:
	.loc 1 565 1 is_stmt 1
	.cfi_startproc
	@ args = 0, pretend = 0, frame = 0
	@ frame_needed = 0, uses_anonymous_args = 0
.LVL124:
	push	{r3, r4, r5, lr}
	.cfi_def_cfa_offset 16
	.cfi_offset 3, -16
	.cfi_offset 4, -12
	.cfi_offset 5, -8
	.cfi_offset 14, -4
	mov	r4, r0
	mov	r3, r1
	mov	r5, r2
	.loc 1 567 3
	.loc 1 568 3
	.loc 1 569 3
	.loc 1 572 3
	.loc 1 572 17 is_stmt 0
	movs	r2, #2
.LVL125:
	strb	r2, [r0, #54]
	.loc 1 575 3 is_stmt 1
	.loc 1 575 9 is_stmt 0
	ldr	r2, [r0]
	.loc 1 575 19
	ldr	r1, [r2, #12]
.LVL126:
	.loc 1 575 26
	bic	r1, r1, #1048576
	str	r1, [r2, #12]
	.loc 1 578 3 is_stmt 1
	.loc 1 578 12 is_stmt 0
	ldr	r2, [r0]
	.loc 1 578 22
	ldr	r1, [r2, #16]
	.loc 1 578 27
	orr	r1, r1, #1
	str	r1, [r2, #16]
	.loc 1 581 3 is_stmt 1
	.loc 1 581 12 is_stmt 0
	ldr	r2, [r0]
	.loc 1 581 28
	movs	r1, #16
	str	r1, [r2, #4]
	.loc 1 584 3 is_stmt 1
	.loc 1 584 12 is_stmt 0
	ldr	r2, [r0]
	.loc 1 584 28
	str	r3, [r2, #24]
	.loc 1 587 3 is_stmt 1
	.loc 1 587 7 is_stmt 0
	bl	LPTIM_WaitForFlag
.LVL127:
	.loc 1 587 6
	cmp	r0, #3
	beq	.L138
	.loc 1 593 3 is_stmt 1
	.loc 1 593 12 is_stmt 0
	ldr	r3, [r4]
	.loc 1 593 28
	movs	r1, #8
	str	r1, [r3, #4]
	.loc 1 596 3 is_stmt 1
	.loc 1 596 12 is_stmt 0
	ldr	r3, [r4]
	.loc 1 596 28
	str	r5, [r3, #20]
	.loc 1 599 3 is_stmt 1
	.loc 1 599 7 is_stmt 0
	mov	r0, r4
	bl	LPTIM_WaitForFlag
.LVL128:
	.loc 1 599 6
	cmp	r0, #3
	beq	.L138
	.loc 1 605 3 is_stmt 1
	mov	r0, r4
	bl	LPTIM_Disable
.LVL129:
	.loc 1 607 3
	.loc 1 607 7 is_stmt 0
	mov	r0, r4
	bl	HAL_LPTIM_GetState
.LVL130:
	.loc 1 607 6
	cmp	r0, #3
	beq	.L138
	.loc 1 613 3 is_stmt 1
	.loc 1 613 12 is_stmt 0
	ldr	r2, [r4]
	.loc 1 613 22
	ldr	r3, [r2, #8]
	.loc 1 613 28
	orr	r3, r3, #16
	str	r3, [r2, #8]
	.loc 1 616 3 is_stmt 1
	.loc 1 616 12 is_stmt 0
	ldr	r2, [r4]
	.loc 1 616 22
	ldr	r3, [r2, #8]
	.loc 1 616 28
	orr	r3, r3, #8
	str	r3, [r2, #8]
	.loc 1 619 3 is_stmt 1
	.loc 1 619 12 is_stmt 0
	ldr	r2, [r4]
	.loc 1 619 22
	ldr	r3, [r2, #8]
	.loc 1 619 28
	orr	r3, r3, #2
	str	r3, [r2, #8]
	.loc 1 622 3 is_stmt 1
	.loc 1 622 12 is_stmt 0
	ldr	r2, [r4]
	.loc 1 622 22
	ldr	r3, [r2, #8]
	.loc 1 622 28
	orr	r3, r3, #1
	str	r3, [r2, #8]
	.loc 1 625 3 is_stmt 1
	.loc 1 625 28 is_stmt 0
	ldr	r2, [r4, #20]
	.loc 1 625 6
	movw	r3, #65535
	cmp	r2, r3
	beq	.L139
	.loc 1 628 5 is_stmt 1
	.loc 1 628 14 is_stmt 0
	ldr	r2, [r4]
	.loc 1 628 24
	ldr	r3, [r2, #8]
	.loc 1 628 30
	orr	r3, r3, #4
	str	r3, [r2, #8]
.L139:
	.loc 1 632 3 is_stmt 1
	.loc 1 632 12 is_stmt 0
	ldr	r2, [r4]
	.loc 1 632 22
	ldr	r3, [r2, #16]
	.loc 1 632 27
	orr	r3, r3, #1
	str	r3, [r2, #16]
	.loc 1 635 3 is_stmt 1
	.loc 1 635 12 is_stmt 0
	ldr	r2, [r4]
	.loc 1 635 22
	ldr	r3, [r2, #16]
	.loc 1 635 27
	orr	r3, r3, #4
	str	r3, [r2, #16]
	.loc 1 638 3 is_stmt 1
	.loc 1 638 17 is_stmt 0
	movs	r3, #1
	strb	r3, [r4, #54]
	.loc 1 641 3 is_stmt 1
	.loc 1 641 10 is_stmt 0
	movs	r0, #0
.L138:
	.loc 1 642 1
	pop	{r3, r4, r5, pc}
	.cfi_endproc
.LFE341:
	.size	HAL_LPTIM_PWM_Start_IT, .-HAL_LPTIM_PWM_Start_IT
	.section	.text.HAL_LPTIM_PWM_Stop_IT,"ax",%progbits
	.align	1
	.global	HAL_LPTIM_PWM_Stop_IT
	.syntax unified
	.thumb
	.thumb_func
	.type	HAL_LPTIM_PWM_Stop_IT, %function
HAL_LPTIM_PWM_Stop_IT:
.LFB342:
	.loc 1 650 1 is_stmt 1
	.cfi_startproc
	@ args = 0, pretend = 0, frame = 0
	@ frame_needed = 0, uses_anonymous_args = 0
.LVL131:
	push	{r4, lr}
	.cfi_def_cfa_offset 8
	.cfi_offset 4, -8
	.cfi_offset 14, -4
	mov	r4, r0
	.loc 1 652 3
	.loc 1 655 3
	.loc 1 655 17 is_stmt 0
	movs	r3, #2
	strb	r3, [r0, #54]
	.loc 1 658 3 is_stmt 1
	bl	LPTIM_Disable
.LVL132:
	.loc 1 660 3
	.loc 1 660 7 is_stmt 0
	mov	r0, r4
	bl	HAL_LPTIM_GetState
.LVL133:
	.loc 1 660 6
	cmp	r0, #3
	beq	.L142
	.loc 1 666 3 is_stmt 1
	.loc 1 666 12 is_stmt 0
	ldr	r2, [r4]
	.loc 1 666 22
	ldr	r3, [r2, #8]
	.loc 1 666 28
	bic	r3, r3, #16
	str	r3, [r2, #8]
	.loc 1 669 3 is_stmt 1
	.loc 1 669 12 is_stmt 0
	ldr	r2, [r4]
	.loc 1 669 22
	ldr	r3, [r2, #8]
	.loc 1 669 28
	bic	r3, r3, #8
	str	r3, [r2, #8]
	.loc 1 672 3 is_stmt 1
	.loc 1 672 12 is_stmt 0
	ldr	r2, [r4]
	.loc 1 672 22
	ldr	r3, [r2, #8]
	.loc 1 672 28
	bic	r3, r3, #2
	str	r3, [r2, #8]
	.loc 1 675 3 is_stmt 1
	.loc 1 675 12 is_stmt 0
	ldr	r2, [r4]
	.loc 1 675 22
	ldr	r3, [r2, #8]
	.loc 1 675 28
	bic	r3, r3, #1
	str	r3, [r2, #8]
	.loc 1 678 3 is_stmt 1
	.loc 1 678 28 is_stmt 0
	ldr	r2, [r4, #20]
	.loc 1 678 6
	movw	r3, #65535
	cmp	r2, r3
	beq	.L143
	.loc 1 681 5 is_stmt 1
	.loc 1 681 14 is_stmt 0
	ldr	r2, [r4]
	.loc 1 681 24
	ldr	r3, [r2, #8]
	.loc 1 681 30
	bic	r3, r3, #4
	str	r3, [r2, #8]
.L143:
	.loc 1 685 3 is_stmt 1
	.loc 1 685 17 is_stmt 0
	movs	r3, #1
	strb	r3, [r4, #54]
	.loc 1 688 3 is_stmt 1
	.loc 1 688 10 is_stmt 0
	movs	r0, #0
.L142:
	.loc 1 689 1
	pop	{r4, pc}
	.cfi_endproc
.LFE342:
	.size	HAL_LPTIM_PWM_Stop_IT, .-HAL_LPTIM_PWM_Stop_IT
	.section	.text.HAL_LPTIM_OnePulse_Stop,"ax",%progbits
	.align	1
	.global	HAL_LPTIM_OnePulse_Stop
	.syntax unified
	.thumb
	.thumb_func
	.type	HAL_LPTIM_OnePulse_Stop, %function
HAL_LPTIM_OnePulse_Stop:
.LFB344:
	.loc 1 756 1 is_stmt 1
	.cfi_startproc
	@ args = 0, pretend = 0, frame = 0
	@ frame_needed = 0, uses_anonymous_args = 0
.LVL134:
	push	{r4, lr}
	.cfi_def_cfa_offset 8
	.cfi_offset 4, -8
	.cfi_offset 14, -4
	mov	r4, r0
	.loc 1 758 3
	.loc 1 761 3
	.loc 1 761 17 is_stmt 0
	movs	r3, #2
	strb	r3, [r0, #54]
	.loc 1 764 3 is_stmt 1
	bl	LPTIM_Disable
.LVL135:
	.loc 1 766 3
	.loc 1 766 7 is_stmt 0
	mov	r0, r4
	bl	HAL_LPTIM_GetState
.LVL136:
	.loc 1 766 6
	cmp	r0, #3
	beq	.L146
	.loc 1 772 3 is_stmt 1
	.loc 1 772 17 is_stmt 0
	movs	r3, #1
	strb	r3, [r4, #54]
	.loc 1 775 3 is_stmt 1
	.loc 1 775 10 is_stmt 0
	movs	r0, #0
.L146:
	.loc 1 776 1
	pop	{r4, pc}
	.cfi_endproc
.LFE344:
	.size	HAL_LPTIM_OnePulse_Stop, .-HAL_LPTIM_OnePulse_Stop
	.section	.text.HAL_LPTIM_OnePulse_Start_IT,"ax",%progbits
	.align	1
	.global	HAL_LPTIM_OnePulse_Start_IT
	.syntax unified
	.thumb
	.thumb_func
	.type	HAL_LPTIM_OnePulse_Start_IT, %function
HAL_LPTIM_OnePulse_Start_IT:
.LFB345:
	.loc 1 788 1 is_stmt 1
	.cfi_startproc
	@ args = 0, pretend = 0, frame = 0
	@ frame_needed = 0, uses_anonymous_args = 0
.LVL137:
	push	{r3, r4, r5, lr}
	.cfi_def_cfa_offset 16
	.cfi_offset 3, -16
	.cfi_offset 4, -12
	.cfi_offset 5, -8
	.cfi_offset 14, -4
	mov	r4, r0
	mov	r3, r1
	mov	r5, r2
	.loc 1 790 3
	.loc 1 791 3
	.loc 1 792 3
	.loc 1 795 3
	.loc 1 795 17 is_stmt 0
	movs	r2, #2
.LVL138:
	strb	r2, [r0, #54]
	.loc 1 798 3 is_stmt 1
	.loc 1 798 9 is_stmt 0
	ldr	r2, [r0]
	.loc 1 798 19
	ldr	r1, [r2, #12]
.LVL139:
	.loc 1 798 26
	bic	r1, r1, #1048576
	str	r1, [r2, #12]
	.loc 1 801 3 is_stmt 1
	.loc 1 801 12 is_stmt 0
	ldr	r2, [r0]
	.loc 1 801 22
	ldr	r1, [r2, #16]
	.loc 1 801 27
	orr	r1, r1, #1
	str	r1, [r2, #16]
	.loc 1 804 3 is_stmt 1
	.loc 1 804 12 is_stmt 0
	ldr	r2, [r0]
	.loc 1 804 28
	movs	r1, #16
	str	r1, [r2, #4]
	.loc 1 807 3 is_stmt 1
	.loc 1 807 12 is_stmt 0
	ldr	r2, [r0]
	.loc 1 807 28
	str	r3, [r2, #24]
	.loc 1 810 3 is_stmt 1
	.loc 1 810 7 is_stmt 0
	bl	LPTIM_WaitForFlag
.LVL140:
	.loc 1 810 6
	cmp	r0, #3
	beq	.L149
	.loc 1 816 3 is_stmt 1
	.loc 1 816 12 is_stmt 0
	ldr	r3, [r4]
	.loc 1 816 28
	movs	r1, #8
	str	r1, [r3, #4]
	.loc 1 819 3 is_stmt 1
	.loc 1 819 12 is_stmt 0
	ldr	r3, [r4]
	.loc 1 819 28
	str	r5, [r3, #20]
	.loc 1 822 3 is_stmt 1
	.loc 1 822 7 is_stmt 0
	mov	r0, r4
	bl	LPTIM_WaitForFlag
.LVL141:
	.loc 1 822 6
	cmp	r0, #3
	beq	.L149
	.loc 1 828 3 is_stmt 1
	mov	r0, r4
	bl	LPTIM_Disable
.LVL142:
	.loc 1 830 3
	.loc 1 830 7 is_stmt 0
	mov	r0, r4
	bl	HAL_LPTIM_GetState
.LVL143:
	.loc 1 830 6
	cmp	r0, #3
	beq	.L149
	.loc 1 836 3 is_stmt 1
	.loc 1 836 12 is_stmt 0
	ldr	r2, [r4]
	.loc 1 836 22
	ldr	r3, [r2, #8]
	.loc 1 836 28
	orr	r3, r3, #16
	str	r3, [r2, #8]
	.loc 1 839 3 is_stmt 1
	.loc 1 839 12 is_stmt 0
	ldr	r2, [r4]
	.loc 1 839 22
	ldr	r3, [r2, #8]
	.loc 1 839 28
	orr	r3, r3, #8
	str	r3, [r2, #8]
	.loc 1 842 3 is_stmt 1
	.loc 1 842 12 is_stmt 0
	ldr	r2, [r4]
	.loc 1 842 22
	ldr	r3, [r2, #8]
	.loc 1 842 28
	orr	r3, r3, #2
	str	r3, [r2, #8]
	.loc 1 845 3 is_stmt 1
	.loc 1 845 12 is_stmt 0
	ldr	r2, [r4]
	.loc 1 845 22
	ldr	r3, [r2, #8]
	.loc 1 845 28
	orr	r3, r3, #1
	str	r3, [r2, #8]
	.loc 1 848 3 is_stmt 1
	.loc 1 848 28 is_stmt 0
	ldr	r2, [r4, #20]
	.loc 1 848 6
	movw	r3, #65535
	cmp	r2, r3
	beq	.L150
	.loc 1 851 5 is_stmt 1
	.loc 1 851 14 is_stmt 0
	ldr	r2, [r4]
	.loc 1 851 24
	ldr	r3, [r2, #8]
	.loc 1 851 30
	orr	r3, r3, #4
	str	r3, [r2, #8]
.L150:
	.loc 1 855 3 is_stmt 1
	.loc 1 855 12 is_stmt 0
	ldr	r2, [r4]
	.loc 1 855 22
	ldr	r3, [r2, #16]
	.loc 1 855 27
	orr	r3, r3, #1
	str	r3, [r2, #16]
	.loc 1 858 3 is_stmt 1
	.loc 1 858 12 is_stmt 0
	ldr	r2, [r4]
	.loc 1 858 22
	ldr	r1, [r2, #16]
	.loc 1 858 27
	ldr	r3, .L152
	orrs	r3, r3, r1
	str	r3, [r2, #16]
	.loc 1 861 3 is_stmt 1
	.loc 1 861 17 is_stmt 0
	movs	r3, #1
	strb	r3, [r4, #54]
	.loc 1 864 3 is_stmt 1
	.loc 1 864 10 is_stmt 0
	movs	r0, #0
.L149:
	.loc 1 865 1
	pop	{r3, r4, r5, pc}
.LVL144:
.L153:
	.align	2
.L152:
	.word	524290
	.cfi_endproc
.LFE345:
	.size	HAL_LPTIM_OnePulse_Start_IT, .-HAL_LPTIM_OnePulse_Start_IT
	.section	.text.HAL_LPTIM_OnePulse_Stop_IT,"ax",%progbits
	.align	1
	.global	HAL_LPTIM_OnePulse_Stop_IT
	.syntax unified
	.thumb
	.thumb_func
	.type	HAL_LPTIM_OnePulse_Stop_IT, %function
HAL_LPTIM_OnePulse_Stop_IT:
.LFB346:
	.loc 1 873 1 is_stmt 1
	.cfi_startproc
	@ args = 0, pretend = 0, frame = 0
	@ frame_needed = 0, uses_anonymous_args = 0
.LVL145:
	push	{r4, lr}
	.cfi_def_cfa_offset 8
	.cfi_offset 4, -8
	.cfi_offset 14, -4
	mov	r4, r0
	.loc 1 875 3
	.loc 1 878 3
	.loc 1 878 17 is_stmt 0
	movs	r3, #2
	strb	r3, [r0, #54]
	.loc 1 882 3 is_stmt 1
	bl	LPTIM_Disable
.LVL146:
	.loc 1 884 3
	.loc 1 884 7 is_stmt 0
	mov	r0, r4
	bl	HAL_LPTIM_GetState
.LVL147:
	.loc 1 884 6
	cmp	r0, #3
	beq	.L155
	.loc 1 890 3 is_stmt 1
	.loc 1 890 12 is_stmt 0
	ldr	r2, [r4]
	.loc 1 890 22
	ldr	r3, [r2, #8]
	.loc 1 890 28
	bic	r3, r3, #16
	str	r3, [r2, #8]
	.loc 1 893 3 is_stmt 1
	.loc 1 893 12 is_stmt 0
	ldr	r2, [r4]
	.loc 1 893 22
	ldr	r3, [r2, #8]
	.loc 1 893 28
	bic	r3, r3, #8
	str	r3, [r2, #8]
	.loc 1 896 3 is_stmt 1
	.loc 1 896 12 is_stmt 0
	ldr	r2, [r4]
	.loc 1 896 22
	ldr	r3, [r2, #8]
	.loc 1 896 28
	bic	r3, r3, #2
	str	r3, [r2, #8]
	.loc 1 899 3 is_stmt 1
	.loc 1 899 12 is_stmt 0
	ldr	r2, [r4]
	.loc 1 899 22
	ldr	r3, [r2, #8]
	.loc 1 899 28
	bic	r3, r3, #1
	str	r3, [r2, #8]
	.loc 1 902 3 is_stmt 1
	.loc 1 902 28 is_stmt 0
	ldr	r2, [r4, #20]
	.loc 1 902 6
	movw	r3, #65535
	cmp	r2, r3
	beq	.L156
	.loc 1 905 5 is_stmt 1
	.loc 1 905 14 is_stmt 0
	ldr	r2, [r4]
	.loc 1 905 24
	ldr	r3, [r2, #8]
	.loc 1 905 30
	bic	r3, r3, #4
	str	r3, [r2, #8]
.L156:
	.loc 1 909 3 is_stmt 1
	.loc 1 909 17 is_stmt 0
	movs	r3, #1
	strb	r3, [r4, #54]
	.loc 1 912 3 is_stmt 1
	.loc 1 912 10 is_stmt 0
	movs	r0, #0
.L155:
	.loc 1 913 1
	pop	{r4, pc}
	.cfi_endproc
.LFE346:
	.size	HAL_LPTIM_OnePulse_Stop_IT, .-HAL_LPTIM_OnePulse_Stop_IT
	.section	.text.HAL_LPTIM_SetOnce_Stop,"ax",%progbits
	.align	1
	.global	HAL_LPTIM_SetOnce_Stop
	.syntax unified
	.thumb
	.thumb_func
	.type	HAL_LPTIM_SetOnce_Stop, %function
HAL_LPTIM_SetOnce_Stop:
.LFB348:
	.loc 1 980 1 is_stmt 1
	.cfi_startproc
	@ args = 0, pretend = 0, frame = 0
	@ frame_needed = 0, uses_anonymous_args = 0
.LVL148:
	push	{r4, lr}
	.cfi_def_cfa_offset 8
	.cfi_offset 4, -8
	.cfi_offset 14, -4
	mov	r4, r0
	.loc 1 982 3
	.loc 1 985 3
	.loc 1 985 17 is_stmt 0
	movs	r3, #2
	strb	r3, [r0, #54]
	.loc 1 988 3 is_stmt 1
	bl	LPTIM_Disable
.LVL149:
	.loc 1 990 3
	.loc 1 990 7 is_stmt 0
	mov	r0, r4
	bl	HAL_LPTIM_GetState
.LVL150:
	.loc 1 990 6
	cmp	r0, #3
	beq	.L159
	.loc 1 996 3 is_stmt 1
	.loc 1 996 17 is_stmt 0
	movs	r3, #1
	strb	r3, [r4, #54]
	.loc 1 999 3 is_stmt 1
	.loc 1 999 10 is_stmt 0
	movs	r0, #0
.L159:
	.loc 1 1000 1
	pop	{r4, pc}
	.cfi_endproc
.LFE348:
	.size	HAL_LPTIM_SetOnce_Stop, .-HAL_LPTIM_SetOnce_Stop
	.section	.text.HAL_LPTIM_SetOnce_Start_IT,"ax",%progbits
	.align	1
	.global	HAL_LPTIM_SetOnce_Start_IT
	.syntax unified
	.thumb
	.thumb_func
	.type	HAL_LPTIM_SetOnce_Start_IT, %function
HAL_LPTIM_SetOnce_Start_IT:
.LFB349:
	.loc 1 1012 1 is_stmt 1
	.cfi_startproc
	@ args = 0, pretend = 0, frame = 0
	@ frame_needed = 0, uses_anonymous_args = 0
.LVL151:
	push	{r3, r4, r5, lr}
	.cfi_def_cfa_offset 16
	.cfi_offset 3, -16
	.cfi_offset 4, -12
	.cfi_offset 5, -8
	.cfi_offset 14, -4
	mov	r4, r0
	mov	r3, r1
	mov	r5, r2
	.loc 1 1014 3
	.loc 1 1015 3
	.loc 1 1016 3
	.loc 1 1019 3
	.loc 1 1019 17 is_stmt 0
	movs	r2, #2
.LVL152:
	strb	r2, [r0, #54]
	.loc 1 1022 3 is_stmt 1
	.loc 1 1022 9 is_stmt 0
	ldr	r2, [r0]
	.loc 1 1022 19
	ldr	r1, [r2, #12]
.LVL153:
	.loc 1 1022 26
	orr	r1, r1, #1048576
	str	r1, [r2, #12]
	.loc 1 1025 3 is_stmt 1
	.loc 1 1025 12 is_stmt 0
	ldr	r2, [r0]
	.loc 1 1025 22
	ldr	r1, [r2, #16]
	.loc 1 1025 27
	orr	r1, r1, #1
	str	r1, [r2, #16]
	.loc 1 1028 3 is_stmt 1
	.loc 1 1028 12 is_stmt 0
	ldr	r2, [r0]
	.loc 1 1028 28
	movs	r1, #16
	str	r1, [r2, #4]
	.loc 1 1031 3 is_stmt 1
	.loc 1 1031 12 is_stmt 0
	ldr	r2, [r0]
	.loc 1 1031 28
	str	r3, [r2, #24]
	.loc 1 1034 3 is_stmt 1
	.loc 1 1034 7 is_stmt 0
	bl	LPTIM_WaitForFlag
.LVL154:
	.loc 1 1034 6
	cmp	r0, #3
	beq	.L162
	.loc 1 1040 3 is_stmt 1
	.loc 1 1040 12 is_stmt 0
	ldr	r3, [r4]
	.loc 1 1040 28
	movs	r1, #8
	str	r1, [r3, #4]
	.loc 1 1043 3 is_stmt 1
	.loc 1 1043 12 is_stmt 0
	ldr	r3, [r4]
	.loc 1 1043 28
	str	r5, [r3, #20]
	.loc 1 1046 3 is_stmt 1
	.loc 1 1046 7 is_stmt 0
	mov	r0, r4
	bl	LPTIM_WaitForFlag
.LVL155:
	.loc 1 1046 6
	cmp	r0, #3
	beq	.L162
	.loc 1 1052 3 is_stmt 1
	mov	r0, r4
	bl	LPTIM_Disable
.LVL156:
	.loc 1 1054 3
	.loc 1 1054 7 is_stmt 0
	mov	r0, r4
	bl	HAL_LPTIM_GetState
.LVL157:
	.loc 1 1054 6
	cmp	r0, #3
	beq	.L162
	.loc 1 1060 3 is_stmt 1
	.loc 1 1060 12 is_stmt 0
	ldr	r2, [r4]
	.loc 1 1060 22
	ldr	r3, [r2, #8]
	.loc 1 1060 28
	orr	r3, r3, #16
	str	r3, [r2, #8]
	.loc 1 1063 3 is_stmt 1
	.loc 1 1063 12 is_stmt 0
	ldr	r2, [r4]
	.loc 1 1063 22
	ldr	r3, [r2, #8]
	.loc 1 1063 28
	orr	r3, r3, #8
	str	r3, [r2, #8]
	.loc 1 1066 3 is_stmt 1
	.loc 1 1066 12 is_stmt 0
	ldr	r2, [r4]
	.loc 1 1066 22
	ldr	r3, [r2, #8]
	.loc 1 1066 28
	orr	r3, r3, #2
	str	r3, [r2, #8]
	.loc 1 1069 3 is_stmt 1
	.loc 1 1069 12 is_stmt 0
	ldr	r2, [r4]
	.loc 1 1069 22
	ldr	r3, [r2, #8]
	.loc 1 1069 28
	orr	r3, r3, #1
	str	r3, [r2, #8]
	.loc 1 1072 3 is_stmt 1
	.loc 1 1072 28 is_stmt 0
	ldr	r2, [r4, #20]
	.loc 1 1072 6
	movw	r3, #65535
	cmp	r2, r3
	beq	.L163
	.loc 1 1075 5 is_stmt 1
	.loc 1 1075 14 is_stmt 0
	ldr	r2, [r4]
	.loc 1 1075 24
	ldr	r3, [r2, #8]
	.loc 1 1075 30
	orr	r3, r3, #4
	str	r3, [r2, #8]
.L163:
	.loc 1 1079 3 is_stmt 1
	.loc 1 1079 12 is_stmt 0
	ldr	r2, [r4]
	.loc 1 1079 22
	ldr	r3, [r2, #16]
	.loc 1 1079 27
	orr	r3, r3, #1
	str	r3, [r2, #16]
	.loc 1 1082 3 is_stmt 1
	.loc 1 1082 12 is_stmt 0
	ldr	r2, [r4]
	.loc 1 1082 22
	ldr	r1, [r2, #16]
	.loc 1 1082 27
	ldr	r3, .L165
	orrs	r3, r3, r1
	str	r3, [r2, #16]
	.loc 1 1085 3 is_stmt 1
	.loc 1 1085 17 is_stmt 0
	movs	r3, #1
	strb	r3, [r4, #54]
	.loc 1 1088 3 is_stmt 1
	.loc 1 1088 10 is_stmt 0
	movs	r0, #0
.L162:
	.loc 1 1089 1
	pop	{r3, r4, r5, pc}
.LVL158:
.L166:
	.align	2
.L165:
	.word	524290
	.cfi_endproc
.LFE349:
	.size	HAL_LPTIM_SetOnce_Start_IT, .-HAL_LPTIM_SetOnce_Start_IT
	.section	.text.HAL_LPTIM_SetOnce_Stop_IT,"ax",%progbits
	.align	1
	.global	HAL_LPTIM_SetOnce_Stop_IT
	.syntax unified
	.thumb
	.thumb_func
	.type	HAL_LPTIM_SetOnce_Stop_IT, %function
HAL_LPTIM_SetOnce_Stop_IT:
.LFB350:
	.loc 1 1097 1 is_stmt 1
	.cfi_startproc
	@ args = 0, pretend = 0, frame = 0
	@ frame_needed = 0, uses_anonymous_args = 0
.LVL159:
	push	{r4, lr}
	.cfi_def_cfa_offset 8
	.cfi_offset 4, -8
	.cfi_offset 14, -4
	mov	r4, r0
	.loc 1 1099 3
	.loc 1 1102 3
	.loc 1 1102 17 is_stmt 0
	movs	r3, #2
	strb	r3, [r0, #54]
	.loc 1 1105 3 is_stmt 1
	bl	LPTIM_Disable
.LVL160:
	.loc 1 1107 3
	.loc 1 1107 7 is_stmt 0
	mov	r0, r4
	bl	HAL_LPTIM_GetState
.LVL161:
	.loc 1 1107 6
	cmp	r0, #3
	beq	.L168
	.loc 1 1113 3 is_stmt 1
	.loc 1 1113 12 is_stmt 0
	ldr	r2, [r4]
	.loc 1 1113 22
	ldr	r3, [r2, #8]
	.loc 1 1113 28
	bic	r3, r3, #16
	str	r3, [r2, #8]
	.loc 1 1116 3 is_stmt 1
	.loc 1 1116 12 is_stmt 0
	ldr	r2, [r4]
	.loc 1 1116 22
	ldr	r3, [r2, #8]
	.loc 1 1116 28
	bic	r3, r3, #8
	str	r3, [r2, #8]
	.loc 1 1119 3 is_stmt 1
	.loc 1 1119 12 is_stmt 0
	ldr	r2, [r4]
	.loc 1 1119 22
	ldr	r3, [r2, #8]
	.loc 1 1119 28
	bic	r3, r3, #2
	str	r3, [r2, #8]
	.loc 1 1122 3 is_stmt 1
	.loc 1 1122 12 is_stmt 0
	ldr	r2, [r4]
	.loc 1 1122 22
	ldr	r3, [r2, #8]
	.loc 1 1122 28
	bic	r3, r3, #1
	str	r3, [r2, #8]
	.loc 1 1125 3 is_stmt 1
	.loc 1 1125 28 is_stmt 0
	ldr	r2, [r4, #20]
	.loc 1 1125 6
	movw	r3, #65535
	cmp	r2, r3
	beq	.L169
	.loc 1 1128 5 is_stmt 1
	.loc 1 1128 14 is_stmt 0
	ldr	r2, [r4]
	.loc 1 1128 24
	ldr	r3, [r2, #8]
	.loc 1 1128 30
	bic	r3, r3, #4
	str	r3, [r2, #8]
.L169:
	.loc 1 1132 3 is_stmt 1
	.loc 1 1132 17 is_stmt 0
	movs	r3, #1
	strb	r3, [r4, #54]
	.loc 1 1135 3 is_stmt 1
	.loc 1 1135 10 is_stmt 0
	movs	r0, #0
.L168:
	.loc 1 1136 1
	pop	{r4, pc}
	.cfi_endproc
.LFE350:
	.size	HAL_LPTIM_SetOnce_Stop_IT, .-HAL_LPTIM_SetOnce_Stop_IT
	.section	.text.HAL_LPTIM_Encoder_Stop,"ax",%progbits
	.align	1
	.global	HAL_LPTIM_Encoder_Stop
	.syntax unified
	.thumb
	.thumb_func
	.type	HAL_LPTIM_Encoder_Stop, %function
HAL_LPTIM_Encoder_Stop:
.LFB352:
	.loc 1 1205 1 is_stmt 1
	.cfi_startproc
	@ args = 0, pretend = 0, frame = 0
	@ frame_needed = 0, uses_anonymous_args = 0
.LVL162:
	push	{r4, lr}
	.cfi_def_cfa_offset 8
	.cfi_offset 4, -8
	.cfi_offset 14, -4
	mov	r4, r0
	.loc 1 1207 3
	.loc 1 1210 3
	.loc 1 1210 17 is_stmt 0
	movs	r3, #2
	strb	r3, [r0, #54]
	.loc 1 1213 3 is_stmt 1
	bl	LPTIM_Disable
.LVL163:
	.loc 1 1215 3
	.loc 1 1215 7 is_stmt 0
	mov	r0, r4
	bl	HAL_LPTIM_GetState
.LVL164:
	.loc 1 1215 6
	cmp	r0, #3
	beq	.L172
	.loc 1 1221 3 is_stmt 1
	.loc 1 1221 9 is_stmt 0
	ldr	r2, [r4]
	.loc 1 1221 19
	ldr	r3, [r2, #12]
	.loc 1 1221 26
	bic	r3, r3, #16777216
	str	r3, [r2, #12]
	.loc 1 1224 3 is_stmt 1
	.loc 1 1224 17 is_stmt 0
	movs	r3, #1
	strb	r3, [r4, #54]
	.loc 1 1227 3 is_stmt 1
	.loc 1 1227 10 is_stmt 0
	movs	r0, #0
.L172:
	.loc 1 1228 1
	pop	{r4, pc}
	.cfi_endproc
.LFE352:
	.size	HAL_LPTIM_Encoder_Stop, .-HAL_LPTIM_Encoder_Stop
	.section	.text.HAL_LPTIM_Encoder_Start_IT,"ax",%progbits
	.align	1
	.global	HAL_LPTIM_Encoder_Start_IT
	.syntax unified
	.thumb
	.thumb_func
	.type	HAL_LPTIM_Encoder_Start_IT, %function
HAL_LPTIM_Encoder_Start_IT:
.LFB353:
	.loc 1 1238 1 is_stmt 1
	.cfi_startproc
	@ args = 0, pretend = 0, frame = 0
	@ frame_needed = 0, uses_anonymous_args = 0
.LVL165:
	push	{r3, r4, r5, lr}
	.cfi_def_cfa_offset 16
	.cfi_offset 3, -16
	.cfi_offset 4, -12
	.cfi_offset 5, -8
	.cfi_offset 14, -4
	mov	r4, r0
	mov	r3, r1
	.loc 1 1239 3
	.loc 1 1242 3
	.loc 1 1243 3
	.loc 1 1244 3
	.loc 1 1245 3
	.loc 1 1246 3
	.loc 1 1249 3
	.loc 1 1249 17 is_stmt 0
	movs	r2, #2
	strb	r2, [r0, #54]
	.loc 1 1253 3 is_stmt 1
	.loc 1 1253 19 is_stmt 0
	ldr	r5, [r0]
	.loc 1 1253 11
	ldr	r1, [r5, #12]
.LVL166:
	.loc 1 1256 3 is_stmt 1
	.loc 1 1256 11 is_stmt 0
	bic	r1, r1, #6
.LVL167:
	.loc 1 1259 3 is_stmt 1
	.loc 1 1259 45 is_stmt 0
	ldr	r2, [r0, #12]
	.loc 1 1259 11
	orrs	r2, r2, r1
.LVL168:
	.loc 1 1262 3 is_stmt 1
	.loc 1 1262 26 is_stmt 0
	str	r2, [r5, #12]
	.loc 1 1265 3 is_stmt 1
	.loc 1 1265 9 is_stmt 0
	ldr	r1, [r0]
	.loc 1 1265 19
	ldr	r2, [r1, #12]
.LVL169:
	.loc 1 1265 26
	orr	r2, r2, #16777216
	str	r2, [r1, #12]
.LVL170:
	.loc 1 1268 3 is_stmt 1
	.loc 1 1268 12 is_stmt 0
	ldr	r1, [r0]
	.loc 1 1268 22
	ldr	r2, [r1, #16]
	.loc 1 1268 27
	orr	r2, r2, #1
	str	r2, [r1, #16]
	.loc 1 1271 3 is_stmt 1
	.loc 1 1271 12 is_stmt 0
	ldr	r2, [r0]
	.loc 1 1271 28
	movs	r1, #16
	str	r1, [r2, #4]
	.loc 1 1274 3 is_stmt 1
	.loc 1 1274 12 is_stmt 0
	ldr	r2, [r0]
	.loc 1 1274 28
	str	r3, [r2, #24]
	.loc 1 1277 3 is_stmt 1
	.loc 1 1277 7 is_stmt 0
	bl	LPTIM_WaitForFlag
.LVL171:
	.loc 1 1277 6
	cmp	r0, #3
	beq	.L175
	.loc 1 1283 3 is_stmt 1
	mov	r0, r4
	bl	LPTIM_Disable
.LVL172:
	.loc 1 1285 3
	.loc 1 1285 7 is_stmt 0
	mov	r0, r4
	bl	HAL_LPTIM_GetState
.LVL173:
	.loc 1 1285 6
	cmp	r0, #3
	beq	.L175
	.loc 1 1291 3 is_stmt 1
	.loc 1 1291 12 is_stmt 0
	ldr	r2, [r4]
	.loc 1 1291 22
	ldr	r3, [r2, #8]
	.loc 1 1291 28
	orr	r3, r3, #64
	str	r3, [r2, #8]
	.loc 1 1294 3 is_stmt 1
	.loc 1 1294 12 is_stmt 0
	ldr	r2, [r4]
	.loc 1 1294 22
	ldr	r3, [r2, #8]
	.loc 1 1294 28
	orr	r3, r3, #32
	str	r3, [r2, #8]
	.loc 1 1297 3 is_stmt 1
	.loc 1 1297 12 is_stmt 0
	ldr	r2, [r4]
	.loc 1 1297 22
	ldr	r3, [r2, #16]
	.loc 1 1297 27
	orr	r3, r3, #1
	str	r3, [r2, #16]
	.loc 1 1300 3 is_stmt 1
	.loc 1 1300 12 is_stmt 0
	ldr	r2, [r4]
	.loc 1 1300 22
	ldr	r3, [r2, #16]
	.loc 1 1300 27
	orr	r3, r3, #4
	str	r3, [r2, #16]
	.loc 1 1303 3 is_stmt 1
	.loc 1 1303 17 is_stmt 0
	movs	r3, #1
	strb	r3, [r4, #54]
	.loc 1 1306 3 is_stmt 1
	.loc 1 1306 10 is_stmt 0
	movs	r0, #0
.L175:
	.loc 1 1307 1
	pop	{r3, r4, r5, pc}
	.cfi_endproc
.LFE353:
	.size	HAL_LPTIM_Encoder_Start_IT, .-HAL_LPTIM_Encoder_Start_IT
	.section	.text.HAL_LPTIM_Encoder_Stop_IT,"ax",%progbits
	.align	1
	.global	HAL_LPTIM_Encoder_Stop_IT
	.syntax unified
	.thumb
	.thumb_func
	.type	HAL_LPTIM_Encoder_Stop_IT, %function
HAL_LPTIM_Encoder_Stop_IT:
.LFB354:
	.loc 1 1315 1 is_stmt 1
	.cfi_startproc
	@ args = 0, pretend = 0, frame = 0
	@ frame_needed = 0, uses_anonymous_args = 0
.LVL174:
	push	{r4, lr}
	.cfi_def_cfa_offset 8
	.cfi_offset 4, -8
	.cfi_offset 14, -4
	mov	r4, r0
	.loc 1 1317 3
	.loc 1 1320 3
	.loc 1 1320 17 is_stmt 0
	movs	r3, #2
	strb	r3, [r0, #54]
	.loc 1 1323 3 is_stmt 1
	bl	LPTIM_Disable
.LVL175:
	.loc 1 1325 3
	.loc 1 1325 7 is_stmt 0
	mov	r0, r4
	bl	HAL_LPTIM_GetState
.LVL176:
	.loc 1 1325 6
	cmp	r0, #3
	beq	.L178
	.loc 1 1331 3 is_stmt 1
	.loc 1 1331 9 is_stmt 0
	ldr	r2, [r4]
	.loc 1 1331 19
	ldr	r3, [r2, #12]
	.loc 1 1331 26
	bic	r3, r3, #16777216
	str	r3, [r2, #12]
	.loc 1 1334 3 is_stmt 1
	.loc 1 1334 12 is_stmt 0
	ldr	r2, [r4]
	.loc 1 1334 22
	ldr	r3, [r2, #8]
	.loc 1 1334 28
	bic	r3, r3, #64
	str	r3, [r2, #8]
	.loc 1 1337 3 is_stmt 1
	.loc 1 1337 12 is_stmt 0
	ldr	r2, [r4]
	.loc 1 1337 22
	ldr	r3, [r2, #8]
	.loc 1 1337 28
	bic	r3, r3, #32
	str	r3, [r2, #8]
	.loc 1 1340 3 is_stmt 1
	.loc 1 1340 17 is_stmt 0
	movs	r3, #1
	strb	r3, [r4, #54]
	.loc 1 1343 3 is_stmt 1
	.loc 1 1343 10 is_stmt 0
	movs	r0, #0
.L178:
	.loc 1 1344 1
	pop	{r4, pc}
	.cfi_endproc
.LFE354:
	.size	HAL_LPTIM_Encoder_Stop_IT, .-HAL_LPTIM_Encoder_Stop_IT
	.section	.text.HAL_LPTIM_TimeOut_Stop,"ax",%progbits
	.align	1
	.global	HAL_LPTIM_TimeOut_Stop
	.syntax unified
	.thumb
	.thumb_func
	.type	HAL_LPTIM_TimeOut_Stop, %function
HAL_LPTIM_TimeOut_Stop:
.LFB356:
	.loc 1 1413 1 is_stmt 1
	.cfi_startproc
	@ args = 0, pretend = 0, frame = 0
	@ frame_needed = 0, uses_anonymous_args = 0
.LVL177:
	push	{r4, lr}
	.cfi_def_cfa_offset 8
	.cfi_offset 4, -8
	.cfi_offset 14, -4
	mov	r4, r0
	.loc 1 1415 3
	.loc 1 1418 3
	.loc 1 1418 17 is_stmt 0
	movs	r3, #2
	strb	r3, [r0, #54]
	.loc 1 1421 3 is_stmt 1
	bl	LPTIM_Disable
.LVL178:
	.loc 1 1423 3
	.loc 1 1423 7 is_stmt 0
	mov	r0, r4
	bl	HAL_LPTIM_GetState
.LVL179:
	.loc 1 1423 6
	cmp	r0, #3
	beq	.L181
	.loc 1 1429 3 is_stmt 1
	.loc 1 1429 9 is_stmt 0
	ldr	r2, [r4]
	.loc 1 1429 19
	ldr	r3, [r2, #12]
	.loc 1 1429 26
	bic	r3, r3, #524288
	str	r3, [r2, #12]
	.loc 1 1432 3 is_stmt 1
	.loc 1 1432 17 is_stmt 0
	movs	r3, #1
	strb	r3, [r4, #54]
	.loc 1 1435 3 is_stmt 1
	.loc 1 1435 10 is_stmt 0
	movs	r0, #0
.L181:
	.loc 1 1436 1
	pop	{r4, pc}
	.cfi_endproc
.LFE356:
	.size	HAL_LPTIM_TimeOut_Stop, .-HAL_LPTIM_TimeOut_Stop
	.section	.text.HAL_LPTIM_TimeOut_Start_IT,"ax",%progbits
	.align	1
	.global	HAL_LPTIM_TimeOut_Start_IT
	.syntax unified
	.thumb
	.thumb_func
	.type	HAL_LPTIM_TimeOut_Start_IT, %function
HAL_LPTIM_TimeOut_Start_IT:
.LFB357:
	.loc 1 1450 1 is_stmt 1
	.cfi_startproc
	@ args = 0, pretend = 0, frame = 0
	@ frame_needed = 0, uses_anonymous_args = 0
.LVL180:
	push	{r3, r4, r5, lr}
	.cfi_def_cfa_offset 16
	.cfi_offset 3, -16
	.cfi_offset 4, -12
	.cfi_offset 5, -8
	.cfi_offset 14, -4
	mov	r4, r0
	mov	r3, r1
	mov	r5, r2
	.loc 1 1452 3
	.loc 1 1453 3
	.loc 1 1454 3
	.loc 1 1457 3
	.loc 1 1457 17 is_stmt 0
	movs	r2, #2
.LVL181:
	strb	r2, [r0, #54]
	.loc 1 1460 3 is_stmt 1
	.loc 1 1460 9 is_stmt 0
	ldr	r2, [r0]
	.loc 1 1460 19
	ldr	r1, [r2, #12]
.LVL182:
	.loc 1 1460 26
	orr	r1, r1, #524288
	str	r1, [r2, #12]
	.loc 1 1463 3 is_stmt 1
	.loc 1 1463 12 is_stmt 0
	ldr	r2, [r0]
	.loc 1 1463 22
	ldr	r1, [r2, #16]
	.loc 1 1463 27
	orr	r1, r1, #1
	str	r1, [r2, #16]
	.loc 1 1466 3 is_stmt 1
	.loc 1 1466 12 is_stmt 0
	ldr	r2, [r0]
	.loc 1 1466 28
	movs	r1, #16
	str	r1, [r2, #4]
	.loc 1 1469 3 is_stmt 1
	.loc 1 1469 12 is_stmt 0
	ldr	r2, [r0]
	.loc 1 1469 28
	str	r3, [r2, #24]
	.loc 1 1472 3 is_stmt 1
	.loc 1 1472 7 is_stmt 0
	bl	LPTIM_WaitForFlag
.LVL183:
	.loc 1 1472 6
	cmp	r0, #3
	beq	.L184
	.loc 1 1478 3 is_stmt 1
	.loc 1 1478 12 is_stmt 0
	ldr	r3, [r4]
	.loc 1 1478 28
	movs	r1, #8
	str	r1, [r3, #4]
	.loc 1 1481 3 is_stmt 1
	.loc 1 1481 12 is_stmt 0
	ldr	r3, [r4]
	.loc 1 1481 28
	str	r5, [r3, #20]
	.loc 1 1484 3 is_stmt 1
	.loc 1 1484 7 is_stmt 0
	mov	r0, r4
	bl	LPTIM_WaitForFlag
.LVL184:
	.loc 1 1484 6
	cmp	r0, #3
	beq	.L184
	.loc 1 1490 3 is_stmt 1
	mov	r0, r4
	bl	LPTIM_Disable
.LVL185:
	.loc 1 1492 3
	.loc 1 1492 7 is_stmt 0
	mov	r0, r4
	bl	HAL_LPTIM_GetState
.LVL186:
	.loc 1 1492 6
	cmp	r0, #3
	beq	.L184
	.loc 1 1498 3 is_stmt 1
	.loc 1 1498 12 is_stmt 0
	ldr	r2, [r4]
	.loc 1 1498 22
	ldr	r3, [r2, #8]
	.loc 1 1498 28
	orr	r3, r3, #1
	str	r3, [r2, #8]
	.loc 1 1501 3 is_stmt 1
	.loc 1 1501 12 is_stmt 0
	ldr	r2, [r4]
	.loc 1 1501 22
	ldr	r3, [r2, #16]
	.loc 1 1501 27
	orr	r3, r3, #1
	str	r3, [r2, #16]
	.loc 1 1504 3 is_stmt 1
	.loc 1 1504 12 is_stmt 0
	ldr	r2, [r4]
	.loc 1 1504 22
	ldr	r3, [r2, #16]
	.loc 1 1504 27
	orr	r3, r3, #4
	str	r3, [r2, #16]
	.loc 1 1507 3 is_stmt 1
	.loc 1 1507 17 is_stmt 0
	movs	r3, #1
	strb	r3, [r4, #54]
	.loc 1 1510 3 is_stmt 1
	.loc 1 1510 10 is_stmt 0
	movs	r0, #0
.L184:
	.loc 1 1511 1
	pop	{r3, r4, r5, pc}
	.cfi_endproc
.LFE357:
	.size	HAL_LPTIM_TimeOut_Start_IT, .-HAL_LPTIM_TimeOut_Start_IT
	.section	.text.HAL_LPTIM_TimeOut_Stop_IT,"ax",%progbits
	.align	1
	.global	HAL_LPTIM_TimeOut_Stop_IT
	.syntax unified
	.thumb
	.thumb_func
	.type	HAL_LPTIM_TimeOut_Stop_IT, %function
HAL_LPTIM_TimeOut_Stop_IT:
.LFB358:
	.loc 1 1519 1 is_stmt 1
	.cfi_startproc
	@ args = 0, pretend = 0, frame = 0
	@ frame_needed = 0, uses_anonymous_args = 0
.LVL187:
	push	{r4, lr}
	.cfi_def_cfa_offset 8
	.cfi_offset 4, -8
	.cfi_offset 14, -4
	mov	r4, r0
	.loc 1 1521 3
	.loc 1 1524 3
	.loc 1 1524 17 is_stmt 0
	movs	r3, #2
	strb	r3, [r0, #54]
	.loc 1 1527 3 is_stmt 1
	bl	LPTIM_Disable
.LVL188:
	.loc 1 1529 3
	.loc 1 1529 7 is_stmt 0
	mov	r0, r4
	bl	HAL_LPTIM_GetState
.LVL189:
	.loc 1 1529 6
	cmp	r0, #3
	beq	.L187
	.loc 1 1535 3 is_stmt 1
	.loc 1 1535 9 is_stmt 0
	ldr	r2, [r4]
	.loc 1 1535 19
	ldr	r3, [r2, #12]
	.loc 1 1535 26
	bic	r3, r3, #524288
	str	r3, [r2, #12]
	.loc 1 1538 3 is_stmt 1
	.loc 1 1538 12 is_stmt 0
	ldr	r2, [r4]
	.loc 1 1538 22
	ldr	r3, [r2, #8]
	.loc 1 1538 28
	bic	r3, r3, #1
	str	r3, [r2, #8]
	.loc 1 1541 3 is_stmt 1
	.loc 1 1541 17 is_stmt 0
	movs	r3, #1
	strb	r3, [r4, #54]
	.loc 1 1544 3 is_stmt 1
	.loc 1 1544 10 is_stmt 0
	movs	r0, #0
.L187:
	.loc 1 1545 1
	pop	{r4, pc}
	.cfi_endproc
.LFE358:
	.size	HAL_LPTIM_TimeOut_Stop_IT, .-HAL_LPTIM_TimeOut_Stop_IT
	.section	.text.HAL_LPTIM_Counter_Stop,"ax",%progbits
	.align	1
	.global	HAL_LPTIM_Counter_Stop
	.syntax unified
	.thumb
	.thumb_func
	.type	HAL_LPTIM_Counter_Stop, %function
HAL_LPTIM_Counter_Stop:
.LFB360:
	.loc 1 1604 1 is_stmt 1
	.cfi_startproc
	@ args = 0, pretend = 0, frame = 0
	@ frame_needed = 0, uses_anonymous_args = 0
.LVL190:
	push	{r4, lr}
	.cfi_def_cfa_offset 8
	.cfi_offset 4, -8
	.cfi_offset 14, -4
	mov	r4, r0
	.loc 1 1606 3
	.loc 1 1609 3
	.loc 1 1609 17 is_stmt 0
	movs	r3, #2
	strb	r3, [r0, #54]
	.loc 1 1612 3 is_stmt 1
	bl	LPTIM_Disable
.LVL191:
	.loc 1 1614 3
	.loc 1 1614 7 is_stmt 0
	mov	r0, r4
	bl	HAL_LPTIM_GetState
.LVL192:
	.loc 1 1614 6
	cmp	r0, #3
	beq	.L190
	.loc 1 1620 3 is_stmt 1
	.loc 1 1620 17 is_stmt 0
	movs	r3, #1
	strb	r3, [r4, #54]
	.loc 1 1623 3 is_stmt 1
	.loc 1 1623 10 is_stmt 0
	movs	r0, #0
.L190:
	.loc 1 1624 1
	pop	{r4, pc}
	.cfi_endproc
.LFE360:
	.size	HAL_LPTIM_Counter_Stop, .-HAL_LPTIM_Counter_Stop
	.section	.text.HAL_LPTIM_Counter_Start_IT,"ax",%progbits
	.align	1
	.global	HAL_LPTIM_Counter_Start_IT
	.syntax unified
	.thumb
	.thumb_func
	.type	HAL_LPTIM_Counter_Start_IT, %function
HAL_LPTIM_Counter_Start_IT:
.LFB361:
	.loc 1 1634 1 is_stmt 1
	.cfi_startproc
	@ args = 0, pretend = 0, frame = 0
	@ frame_needed = 0, uses_anonymous_args = 0
.LVL193:
	push	{r4, lr}
	.cfi_def_cfa_offset 8
	.cfi_offset 4, -8
	.cfi_offset 14, -4
	mov	r4, r0
	mov	r3, r1
	.loc 1 1636 3
	.loc 1 1637 3
	.loc 1 1640 3
	.loc 1 1640 17 is_stmt 0
	movs	r2, #2
	strb	r2, [r0, #54]
	.loc 1 1643 3 is_stmt 1
	.loc 1 1643 26 is_stmt 0
	ldr	r2, [r0, #4]
	.loc 1 1643 6
	cmp	r2, #1
	beq	.L193
	.loc 1 1644 23
	ldr	r2, [r0, #40]
	.loc 1 1644 7
	cmp	r2, #8388608
	beq	.L196
.LVL194:
.L193:
	.loc 1 1653 3 is_stmt 1
	.loc 1 1653 12 is_stmt 0
	ldr	r1, [r4]
	.loc 1 1653 22
	ldr	r2, [r1, #16]
	.loc 1 1653 27
	orr	r2, r2, #1
	str	r2, [r1, #16]
	.loc 1 1656 3 is_stmt 1
	.loc 1 1656 12 is_stmt 0
	ldr	r2, [r4]
	.loc 1 1656 28
	movs	r1, #16
	str	r1, [r2, #4]
	.loc 1 1659 3 is_stmt 1
	.loc 1 1659 12 is_stmt 0
	ldr	r2, [r4]
	.loc 1 1659 28
	str	r3, [r2, #24]
	.loc 1 1662 3 is_stmt 1
	.loc 1 1662 7 is_stmt 0
	mov	r0, r4
.LVL195:
	bl	LPTIM_WaitForFlag
.LVL196:
	.loc 1 1662 6
	cmp	r0, #3
	beq	.L194
	.loc 1 1668 3 is_stmt 1
	mov	r0, r4
	bl	LPTIM_Disable
.LVL197:
	.loc 1 1670 3
	.loc 1 1670 7 is_stmt 0
	mov	r0, r4
	bl	HAL_LPTIM_GetState
.LVL198:
	.loc 1 1670 6
	cmp	r0, #3
	beq	.L194
	.loc 1 1676 3 is_stmt 1
	.loc 1 1676 12 is_stmt 0
	ldr	r2, [r4]
	.loc 1 1676 22
	ldr	r3, [r2, #8]
	.loc 1 1676 28
	orr	r3, r3, #16
	str	r3, [r2, #8]
	.loc 1 1679 3 is_stmt 1
	.loc 1 1679 12 is_stmt 0
	ldr	r2, [r4]
	.loc 1 1679 22
	ldr	r3, [r2, #8]
	.loc 1 1679 28
	orr	r3, r3, #2
	str	r3, [r2, #8]
	.loc 1 1682 3 is_stmt 1
	.loc 1 1682 12 is_stmt 0
	ldr	r2, [r4]
	.loc 1 1682 22
	ldr	r3, [r2, #16]
	.loc 1 1682 27
	orr	r3, r3, #1
	str	r3, [r2, #16]
	.loc 1 1685 3 is_stmt 1
	.loc 1 1685 12 is_stmt 0
	ldr	r2, [r4]
	.loc 1 1685 22
	ldr	r3, [r2, #16]
	.loc 1 1685 27
	orr	r3, r3, #4
	str	r3, [r2, #16]
	.loc 1 1688 3 is_stmt 1
	.loc 1 1688 17 is_stmt 0
	movs	r3, #1
	strb	r3, [r4, #54]
	.loc 1 1691 3 is_stmt 1
	.loc 1 1691 10 is_stmt 0
	movs	r0, #0
.L194:
	.loc 1 1692 1
	pop	{r4, pc}
.LVL199:
.L196:
	.loc 1 1647 5 is_stmt 1
	.loc 1 1649 5
	.loc 1 1649 11 is_stmt 0
	ldr	r1, [r0]
.LVL200:
	.loc 1 1649 21
	ldr	r2, [r1, #12]
	.loc 1 1649 28
	bic	r2, r2, #3584
	str	r2, [r1, #12]
	b	.L193
	.cfi_endproc
.LFE361:
	.size	HAL_LPTIM_Counter_Start_IT, .-HAL_LPTIM_Counter_Start_IT
	.section	.text.HAL_LPTIM_Counter_Stop_IT,"ax",%progbits
	.align	1
	.global	HAL_LPTIM_Counter_Stop_IT
	.syntax unified
	.thumb
	.thumb_func
	.type	HAL_LPTIM_Counter_Stop_IT, %function
HAL_LPTIM_Counter_Stop_IT:
.LFB362:
	.loc 1 1700 1 is_stmt 1
	.cfi_startproc
	@ args = 0, pretend = 0, frame = 0
	@ frame_needed = 0, uses_anonymous_args = 0
.LVL201:
	push	{r4, lr}
	.cfi_def_cfa_offset 8
	.cfi_offset 4, -8
	.cfi_offset 14, -4
	mov	r4, r0
	.loc 1 1702 3
	.loc 1 1705 3
	.loc 1 1705 17 is_stmt 0
	movs	r3, #2
	strb	r3, [r0, #54]
	.loc 1 1708 3 is_stmt 1
	bl	LPTIM_Disable
.LVL202:
	.loc 1 1710 3
	.loc 1 1710 7 is_stmt 0
	mov	r0, r4
	bl	HAL_LPTIM_GetState
.LVL203:
	.loc 1 1710 6
	cmp	r0, #3
	beq	.L198
	.loc 1 1716 3 is_stmt 1
	.loc 1 1716 12 is_stmt 0
	ldr	r2, [r4]
	.loc 1 1716 22
	ldr	r3, [r2, #8]
	.loc 1 1716 28
	bic	r3, r3, #16
	str	r3, [r2, #8]
	.loc 1 1719 3 is_stmt 1
	.loc 1 1719 12 is_stmt 0
	ldr	r2, [r4]
	.loc 1 1719 22
	ldr	r3, [r2, #8]
	.loc 1 1719 28
	bic	r3, r3, #2
	str	r3, [r2, #8]
	.loc 1 1721 3 is_stmt 1
	.loc 1 1721 17 is_stmt 0
	movs	r3, #1
	strb	r3, [r4, #54]
	.loc 1 1724 3 is_stmt 1
	.loc 1 1724 10 is_stmt 0
	movs	r0, #0
.L198:
	.loc 1 1725 1
	pop	{r4, pc}
	.cfi_endproc
.LFE362:
	.size	HAL_LPTIM_Counter_Stop_IT, .-HAL_LPTIM_Counter_Stop_IT
	.text
.Letext0:
	.file 3 "m:\\noinstall\\arm-gnu-toolchain-12.2.rel1-mingw-w64-i686-arm-none-eabi\\arm-none-eabi\\include\\machine\\_default_types.h"
	.file 4 "m:\\noinstall\\arm-gnu-toolchain-12.2.rel1-mingw-w64-i686-arm-none-eabi\\arm-none-eabi\\include\\sys\\_stdint.h"
	.file 5 "D:/RTOS/Board/YD-STM32H7xxVx_ClassicV19/cmake-build-debug/_deps/stm32h7xx_cmsis_device-src/Include/stm32h743xx.h"
	.file 6 "D:/RTOS/Board/YD-STM32H7xxVx_ClassicV19/cmake-build-debug/_deps/stm32h7xx_cmsis_device-src/Include/stm32h7xx.h"
	.file 7 "D:/RTOS/Board/YD-STM32H7xxVx_ClassicV19/cmake-build-debug/_deps/stm32h7xx_hal_driver-src/Inc/stm32h7xx_hal_def.h"
	.file 8 "D:/RTOS/Board/YD-STM32H7xxVx_ClassicV19/cmake-build-debug/_deps/stm32h7xx_hal_driver-src/Inc/stm32h7xx_hal_lptim.h"
	.file 9 "D:/RTOS/Board/YD-STM32H7xxVx_ClassicV19/cmake-build-debug/_deps/stm32h7xx_cmsis_device-src/Include/system_stm32h7xx.h"