	.cpu cortex-m7
	.arch armv7e-m
	.fpu fpv5-d16
	.eabi_attribute 28, 1
	.eabi_attribute 20, 1
	.eabi_attribute 21, 1
	.eabi_attribute 23, 3
	.eabi_attribute 24, 1
	.eabi_attribute 25, 1
	.eabi_attribute 26, 1
	.eabi_attribute 30, 1
	.eabi_attribute 34, 1
	.eabi_attribute 18, 4
	.file	"stm32h7xx_hal_nand.c"
	.text
.Ltext0:
	.cfi_sections	.debug_frame
	.file 1 "D:/RTOS/Board/YD-STM32H7xxVx_ClassicV19/cmake-build-debug/_deps/stm32h7xx_hal_driver-src/Src/stm32h7xx_hal_nand.c"
	.section	.text.HAL_NAND_MspInit,"ax",%progbits
	.align	1
	.weak	HAL_NAND_MspInit
	.syntax unified
	.thumb
	.thumb_func
	.type	HAL_NAND_MspInit, %function
HAL_NAND_MspInit:
.LFB337:
	.loc 1 247 1
	.cfi_startproc
	@ args = 0, pretend = 0, frame = 0
	@ frame_needed = 0, uses_anonymous_args = 0
	@ link register save eliminated.
.LVL0:
	.loc 1 249 3
	.loc 1 254 1 is_stmt 0
	bx	lr
	.cfi_endproc
.LFE337:
	.size	HAL_NAND_MspInit, .-HAL_NAND_MspInit
	.section	.text.HAL_NAND_Init,"ax",%progbits
	.align	1
	.global	HAL_NAND_Init
	.syntax unified
	.thumb
	.thumb_func
	.type	HAL_NAND_Init, %function
HAL_NAND_Init:
.LFB335:
	.loc 1 160 1 is_stmt 1
	.cfi_startproc
	@ args = 0, pretend = 0, frame = 0
	@ frame_needed = 0, uses_anonymous_args = 0
.LVL1:
	.loc 1 162 3
	.loc 1 162 6 is_stmt 0
	cbz	r0, .L5
	.loc 1 160 1
	push	{r4, r5, r6, lr}
	.cfi_def_cfa_offset 16
	.cfi_offset 4, -16
	.cfi_offset 5, -12
	.cfi_offset 6, -8
	.cfi_offset 14, -4
	mov	r6, r1
	mov	r5, r2
	mov	r4, r0
	.loc 1 167 3 is_stmt 1
	.loc 1 167 12 is_stmt 0
	ldrb	r3, [r0, #33]	@ zero_extendqisi2
	.loc 1 167 6
	cbz	r3, .L10
.LVL2:
.L4:
	.loc 1 188 3 is_stmt 1
	.loc 1 188 9 is_stmt 0
	mov	r1, r4
	ldr	r0, [r1], #4
	bl	FMC_NAND_Init
.LVL3:
	.loc 1 191 3 is_stmt 1
	.loc 1 191 9 is_stmt 0
	ldr	r2, [r4, #4]
	mov	r1, r6
	ldr	r0, [r4]
	bl	FMC_NAND_CommonSpace_Timing_Init
.LVL4:
	.loc 1 194 3 is_stmt 1
	.loc 1 194 9 is_stmt 0
	ldr	r2, [r4, #4]
	mov	r1, r5
	ldr	r0, [r4]
	bl	FMC_NAND_AttributeSpace_Timing_Init
.LVL5:
	.loc 1 197 3 is_stmt 1
	.loc 1 197 10 is_stmt 0
	ldr	r2, [r4]
	.loc 1 197 21
	ldr	r3, [r2]
	.loc 1 197 27
	orr	r3, r3, #4
	str	r3, [r2]
	.loc 1 200 3 is_stmt 1
	.loc 1 200 91 is_stmt 0
	ldr	r2, .L11
	ldr	r3, [r2]
	.loc 1 200 95
	orr	r3, r3, #-2147483648
	str	r3, [r2]
	.loc 1 202 3 is_stmt 1
	.loc 1 202 16 is_stmt 0
	movs	r3, #1
	strb	r3, [r4, #33]
	.loc 1 204 3 is_stmt 1
	.loc 1 204 10 is_stmt 0
	movs	r0, #0
	.loc 1 205 1
	pop	{r4, r5, r6, pc}
.LVL6:
.L10:
	.loc 1 170 5 is_stmt 1
	.loc 1 170 17 is_stmt 0
	strb	r3, [r0, #32]
	.loc 1 183 5 is_stmt 1
	bl	HAL_NAND_MspInit
.LVL7:
	b	.L4
.LVL8:
.L5:
	.cfi_def_cfa_offset 0
	.cfi_restore 4
	.cfi_restore 5
	.cfi_restore 6
	.cfi_restore 14
	.loc 1 164 12 is_stmt 0
	movs	r0, #1
.LVL9:
	.loc 1 205 1
	bx	lr
.L12:
	.align	2
.L11:
	.word	1375748096
	.cfi_endproc
.LFE335:
	.size	HAL_NAND_Init, .-HAL_NAND_Init
	.section	.text.HAL_NAND_MspDeInit,"ax",%progbits
	.align	1
	.weak	HAL_NAND_MspDeInit
	.syntax unified
	.thumb
	.thumb_func
	.type	HAL_NAND_MspDeInit, %function
HAL_NAND_MspDeInit:
.LFB338:
	.loc 1 263 1 is_stmt 1
	.cfi_startproc
	@ args = 0, pretend = 0, frame = 0
	@ frame_needed = 0, uses_anonymous_args = 0
	@ link register save eliminated.
.LVL10:
	.loc 1 265 3
	.loc 1 270 1 is_stmt 0
	bx	lr
	.cfi_endproc
.LFE338:
	.size	HAL_NAND_MspDeInit, .-HAL_NAND_MspDeInit
	.section	.text.HAL_NAND_DeInit,"ax",%progbits
	.align	1
	.global	HAL_NAND_DeInit
	.syntax unified
	.thumb
	.thumb_func
	.type	HAL_NAND_DeInit, %function
HAL_NAND_DeInit:
.LFB336:
	.loc 1 214 1 is_stmt 1
	.cfi_startproc
	@ args = 0, pretend = 0, frame = 0
	@ frame_needed = 0, uses_anonymous_args = 0
.LVL11:
	push	{r4, lr}
	.cfi_def_cfa_offset 8
	.cfi_offset 4, -8
	.cfi_offset 14, -4
	mov	r4, r0
	.loc 1 225 3
	bl	HAL_NAND_MspDeInit
.LVL12:
	.loc 1 229 3
	.loc 1 229 9 is_stmt 0
	ldr	r1, [r4, #4]
	ldr	r0, [r4]
	bl	FMC_NAND_DeInit
.LVL13:
	.loc 1 232 3 is_stmt 1
	.loc 1 232 16 is_stmt 0
	movs	r0, #0
	strb	r0, [r4, #33]
	.loc 1 235 3 is_stmt 1
	.loc 1 235 7
	.loc 1 235 21 is_stmt 0
	strb	r0, [r4, #32]
	.loc 1 235 5 is_stmt 1
	.loc 1 237 3
	.loc 1 238 1 is_stmt 0
	pop	{r4, pc}
	.cfi_endproc
.LFE336:
	.size	HAL_NAND_DeInit, .-HAL_NAND_DeInit
	.section	.text.HAL_NAND_ITCallback,"ax",%progbits
	.align	1
	.weak	HAL_NAND_ITCallback
	.syntax unified
	.thumb
	.thumb_func
	.type	HAL_NAND_ITCallback, %function
HAL_NAND_ITCallback:
.LFB340:
	.loc 1 346 1 is_stmt 1
	.cfi_startproc
	@ args = 0, pretend = 0, frame = 0
	@ frame_needed = 0, uses_anonymous_args = 0
	@ link register save eliminated.
.LVL14:
	.loc 1 348 3
	.loc 1 353 1 is_stmt 0
	bx	lr
	.cfi_endproc
.LFE340:
	.size	HAL_NAND_ITCallback, .-HAL_NAND_ITCallback
	.section	.text.HAL_NAND_IRQHandler,"ax",%progbits
	.align	1
	.global	HAL_NAND_IRQHandler
	.syntax unified
	.thumb
	.thumb_func
	.type	HAL_NAND_IRQHandler, %function
HAL_NAND_IRQHandler:
.LFB339:
	.loc 1 280 1 is_stmt 1
	.cfi_startproc
	@ args = 0, pretend = 0, frame = 0
	@ frame_needed = 0, uses_anonymous_args = 0
.LVL15:
	push	{r4, lr}
	.cfi_def_cfa_offset 8
	.cfi_offset 4, -8
	.cfi_offset 14, -4
	mov	r4, r0
	.loc 1 282 3
	.loc 1 282 15 is_stmt 0
	ldr	r3, [r0]
	.loc 1 282 26
	ldr	r3, [r3, #4]
	.loc 1 282 6
	tst	r3, #1
	bne	.L23
.LVL16:
.L18:
	.loc 1 296 3 is_stmt 1
	.loc 1 296 15 is_stmt 0
	ldr	r3, [r4]
	.loc 1 296 26
	ldr	r3, [r3, #4]
	.loc 1 296 6
	tst	r3, #2
	bne	.L24
.L19:
	.loc 1 310 3 is_stmt 1
	.loc 1 310 15 is_stmt 0
	ldr	r3, [r4]
	.loc 1 310 26
	ldr	r3, [r3, #4]
	.loc 1 310 6
	tst	r3, #4
	bne	.L25
.L20:
	.loc 1 324 3 is_stmt 1
	.loc 1 324 15 is_stmt 0
	ldr	r3, [r4]
	.loc 1 324 26
	ldr	r3, [r3, #4]
	.loc 1 324 6
	tst	r3, #64
	bne	.L26
.L17:
	.loc 1 337 1
	pop	{r4, pc}
.LVL17:
.L23:
	.loc 1 288 5 is_stmt 1
	bl	HAL_NAND_ITCallback
.LVL18:
	.loc 1 292 5
	.loc 1 292 12 is_stmt 0
	ldr	r2, [r4]
	.loc 1 292 23
	ldr	r3, [r2, #4]
	.loc 1 292 28
	bic	r3, r3, #1
	str	r3, [r2, #4]
	b	.L18
.L24:
	.loc 1 302 5 is_stmt 1
	mov	r0, r4
	bl	HAL_NAND_ITCallback
.LVL19:
	.loc 1 306 5
	.loc 1 306 12 is_stmt 0
	ldr	r2, [r4]
	.loc 1 306 23
	ldr	r3, [r2, #4]
	.loc 1 306 28
	bic	r3, r3, #2
	str	r3, [r2, #4]
	b	.L19
.L25:
	.loc 1 316 5 is_stmt 1
	mov	r0, r4
	bl	HAL_NAND_ITCallback
.LVL20:
	.loc 1 320 5
	.loc 1 320 12 is_stmt 0
	ldr	r2, [r4]
	.loc 1 320 23
	ldr	r3, [r2, #4]
	.loc 1 320 28
	bic	r3, r3, #4
	str	r3, [r2, #4]
	b	.L20
.L26:
	.loc 1 330 5 is_stmt 1
	mov	r0, r4
	bl	HAL_NAND_ITCallback
.LVL21:
	.loc 1 334 5
	.loc 1 334 12 is_stmt 0
	ldr	r2, [r4]
	.loc 1 334 23
	ldr	r3, [r2, #4]
	.loc 1 334 28
	bic	r3, r3, #64
	str	r3, [r2, #4]
	.loc 1 337 1
	b	.L17
	.cfi_endproc
.LFE339:
	.size	HAL_NAND_IRQHandler, .-HAL_NAND_IRQHandler
	.section	.text.HAL_NAND_Read_ID,"ax",%progbits
	.align	1
	.global	HAL_NAND_Read_ID
	.syntax unified
	.thumb
	.thumb_func
	.type	HAL_NAND_Read_ID, %function
HAL_NAND_Read_ID:
.LFB341:
	.loc 1 382 1 is_stmt 1
	.cfi_startproc
	@ args = 0, pretend = 0, frame = 8
	@ frame_needed = 0, uses_anonymous_args = 0
	@ link register save eliminated.
.LVL22:
	sub	sp, sp, #8
	.cfi_def_cfa_offset 8
	mov	r3, r0
	.loc 1 383 3
	.loc 1 383 21 is_stmt 0
	movs	r2, #0
	str	r2, [sp]
	.loc 1 384 3 is_stmt 1
	.loc 1 384 21 is_stmt 0
	str	r2, [sp, #4]
	.loc 1 385 3 is_stmt 1
	.loc 1 388 3
	.loc 1 388 12 is_stmt 0
	ldrb	r0, [r0, #33]	@ zero_extendqisi2
.LVL23:
	uxtb	r0, r0
	.loc 1 388 6
	cmp	r0, #2
	beq	.L28
	.loc 1 392 8 is_stmt 1
	.loc 1 392 17 is_stmt 0
	ldrb	r2, [r3, #33]	@ zero_extendqisi2
	uxtb	r2, r2
	.loc 1 392 11
	cmp	r2, #1
	bne	.L31
	.loc 1 395 5 is_stmt 1
	.loc 1 395 9
	.loc 1 395 19 is_stmt 0
	ldrb	r2, [r3, #32]	@ zero_extendqisi2
	.loc 1 395 11
	cmp	r2, #1
	beq	.L32
	.loc 1 395 69 is_stmt 1 discriminator 2
	.loc 1 395 83 is_stmt 0 discriminator 2
	movs	r2, #1
	strb	r2, [r3, #32]
	.loc 1 395 7 is_stmt 1 discriminator 2
	.loc 1 398 5 discriminator 2
	.loc 1 398 18 is_stmt 0 discriminator 2
	movs	r2, #2
	strb	r2, [r3, #33]
	.loc 1 401 5 is_stmt 1 discriminator 2
.LVL24:
	.loc 1 404 5 discriminator 2
	.loc 1 404 67 is_stmt 0 discriminator 2
	ldr	r2, .L34
	movs	r0, #144
	strb	r0, [r2]
	.loc 1 405 5 is_stmt 1 discriminator 2
.LBB340:
.LBB341:
	.file 2 "d:\\rtos\\board\\yd-stm32h7xxvx_classicv19\\cmake-build-debug\\_deps\\stm32h7xx_cmsis_include\\drivers\\cmsis\\include\\cmsis_gcc.h"
	.loc 2 946 3 discriminator 2
	.syntax unified
@ 946 "d:\rtos\board\yd-stm32h7xxvx_classicv19\cmake-build-debug\_deps\stm32h7xx_cmsis_include\drivers\cmsis\include\cmsis_gcc.h" 1
	dsb 0xF
@ 0 "" 2
	.thumb
	.syntax unified
.LBE341:
.LBE340:
	.loc 1 406 5 discriminator 2
	.loc 1 406 67 is_stmt 0 discriminator 2
	add	r2, r2, #65536
	movs	r0, #0
	strb	r0, [r2]
	.loc 1 407 5 is_stmt 1 discriminator 2
.LBB342:
.LBB343:
	.loc 2 946 3 discriminator 2
	.syntax unified
@ 946 "d:\rtos\board\yd-stm32h7xxvx_classicv19\cmake-build-debug\_deps\stm32h7xx_cmsis_include\drivers\cmsis\include\cmsis_gcc.h" 1
	dsb 0xF
@ 0 "" 2
	.thumb
	.syntax unified
.LBE343:
.LBE342:
	.loc 1 410 5 discriminator 2
	.loc 1 410 20 is_stmt 0 discriminator 2
	ldr	r2, [r3, #12]
	.loc 1 410 8 discriminator 2
	cbnz	r2, .L29
	.loc 1 412 7 is_stmt 1
	.loc 1 412 14 is_stmt 0
	mov	r2, #-2147483648
	ldr	r2, [r2]
	.loc 1 412 12
	str	r2, [sp]
	.loc 1 415 7 is_stmt 1
	.loc 1 415 28 is_stmt 0
	ldr	r2, [sp]
	.loc 1 415 26
	strb	r2, [r1]
	.loc 1 416 7 is_stmt 1
	.loc 1 416 46 is_stmt 0
	ldr	r2, [sp]
	.loc 1 416 29
	ubfx	r2, r2, #8, #8
	.loc 1 416 27
	strb	r2, [r1, #1]
	.loc 1 417 7 is_stmt 1
	.loc 1 417 45 is_stmt 0
	ldr	r2, [sp]
	.loc 1 417 28
	ubfx	r2, r2, #16, #8
	.loc 1 417 26
	strb	r2, [r1, #2]
	.loc 1 418 7 is_stmt 1
	.loc 1 418 46 is_stmt 0
	ldr	r2, [sp]
	.loc 1 418 29
	lsrs	r2, r2, #24
	.loc 1 418 27
	strb	r2, [r1, #3]
.L30:
	.loc 1 433 5 is_stmt 1
	.loc 1 433 18 is_stmt 0
	movs	r2, #1
	strb	r2, [r3, #33]
	.loc 1 436 5 is_stmt 1
	.loc 1 436 9
	.loc 1 436 23 is_stmt 0
	movs	r0, #0
	strb	r0, [r3, #32]
	.loc 1 436 7 is_stmt 1
	.loc 1 443 3
	.loc 1 443 10 is_stmt 0
	b	.L28
.L29:
	.loc 1 422 7 is_stmt 1
	.loc 1 422 14 is_stmt 0
	mov	r2, #-2147483648
	ldr	r0, [r2]
	.loc 1 422 12
	str	r0, [sp]
	.loc 1 423 7 is_stmt 1
	.loc 1 423 15 is_stmt 0
	ldr	r2, [r2, #16]
	.loc 1 423 13
	str	r2, [sp, #4]
	.loc 1 426 7 is_stmt 1
	.loc 1 426 28 is_stmt 0
	ldr	r2, [sp]
	.loc 1 426 26
	strb	r2, [r1]
	.loc 1 427 7 is_stmt 1
	.loc 1 427 46 is_stmt 0
	ldr	r2, [sp]
	.loc 1 427 29
	ubfx	r2, r2, #16, #8
	.loc 1 427 27
	strb	r2, [r1, #1]
	.loc 1 428 7 is_stmt 1
	.loc 1 428 28 is_stmt 0
	ldr	r2, [sp, #4]
	.loc 1 428 26
	strb	r2, [r1, #2]
	.loc 1 429 7 is_stmt 1
	.loc 1 429 47 is_stmt 0
	ldr	r2, [sp, #4]
	.loc 1 429 29
	ubfx	r2, r2, #16, #8
	.loc 1 429 27
	strb	r2, [r1, #3]
	b	.L30
.LVL25:
.L31:
	.loc 1 440 12
	movs	r0, #1
.L28:
	.loc 1 444 1
	add	sp, sp, #8
	.cfi_remember_state
	.cfi_def_cfa_offset 0
	@ sp needed
	bx	lr
.L32:
	.cfi_restore_state
	.loc 1 395 50
	movs	r0, #2
	b	.L28
.L35:
	.align	2
.L34:
	.word	-2147418112
	.cfi_endproc
.LFE341:
	.size	HAL_NAND_Read_ID, .-HAL_NAND_Read_ID
	.section	.text.HAL_NAND_Reset,"ax",%progbits
	.align	1
	.global	HAL_NAND_Reset
	.syntax unified
	.thumb
	.thumb_func
	.type	HAL_NAND_Reset, %function
HAL_NAND_Reset:
.LFB342:
	.loc 1 453 1 is_stmt 1
	.cfi_startproc
	@ args = 0, pretend = 0, frame = 0
	@ frame_needed = 0, uses_anonymous_args = 0
	@ link register save eliminated.
.LVL26:
	mov	r2, r0
	.loc 1 454 3
	.loc 1 457 3
	.loc 1 457 12 is_stmt 0
	ldrb	r3, [r0, #33]	@ zero_extendqisi2
	uxtb	r0, r3
.LVL27:
	.loc 1 457 6
	cmp	r0, #2
	beq	.L37
	.loc 1 461 8 is_stmt 1
	.loc 1 461 17 is_stmt 0
	ldrb	r3, [r2, #33]	@ zero_extendqisi2
	uxtb	r3, r3
	.loc 1 461 11
	cmp	r3, #1
	bne	.L38
	.loc 1 464 5 is_stmt 1
	.loc 1 464 9
	.loc 1 464 19 is_stmt 0
	ldrb	r3, [r2, #32]	@ zero_extendqisi2
	.loc 1 464 11
	cmp	r3, #1
	beq	.L39
	.loc 1 464 69 is_stmt 1 discriminator 2
	.loc 1 464 83 is_stmt 0 discriminator 2
	movs	r3, #1
	strb	r3, [r2, #32]
	.loc 1 464 7 is_stmt 1 discriminator 2
	.loc 1 467 5 discriminator 2
	.loc 1 467 18 is_stmt 0 discriminator 2
	movs	r1, #2
	strb	r1, [r2, #33]
	.loc 1 470 5 is_stmt 1 discriminator 2
.LVL28:
	.loc 1 473 5 discriminator 2
	.loc 1 473 67 is_stmt 0 discriminator 2
	ldr	r1, .L40
	movs	r0, #255
	strb	r0, [r1]
	.loc 1 476 5 is_stmt 1 discriminator 2
	.loc 1 476 18 is_stmt 0 discriminator 2
	strb	r3, [r2, #33]
	.loc 1 479 5 is_stmt 1 discriminator 2
	.loc 1 479 9 discriminator 2
	.loc 1 479 23 is_stmt 0 discriminator 2
	movs	r3, #0
	strb	r3, [r2, #32]
	.loc 1 479 7 is_stmt 1 discriminator 2
	.loc 1 486 3 discriminator 2
	.loc 1 486 10 is_stmt 0 discriminator 2
	mov	r0, r3
	bx	lr
.LVL29:
.L38:
	.loc 1 483 12
	movs	r0, #1
	bx	lr
.L39:
	.loc 1 464 50
	movs	r0, #2
.L37:
	.loc 1 488 1
	bx	lr
.L41:
	.align	2
.L40:
	.word	-2147418112
	.cfi_endproc
.LFE342:
	.size	HAL_NAND_Reset, .-HAL_NAND_Reset
	.section	.text.HAL_NAND_ConfigDevice,"ax",%progbits
	.align	1
	.global	HAL_NAND_ConfigDevice
	.syntax unified
	.thumb
	.thumb_func
	.type	HAL_NAND_ConfigDevice, %function
HAL_NAND_ConfigDevice:
.LFB343:
	.loc 1 498 1 is_stmt 1
	.cfi_startproc
	@ args = 0, pretend = 0, frame = 0
	@ frame_needed = 0, uses_anonymous_args = 0
	@ link register save eliminated.
.LVL30:
	.loc 1 499 3
	.loc 1 499 41 is_stmt 0
	ldr	r3, [r1]
	.loc 1 499 26
	str	r3, [r0, #36]
	.loc 1 500 3 is_stmt 1
	.loc 1 500 46 is_stmt 0
	ldr	r3, [r1, #4]
	.loc 1 500 31
	str	r3, [r0, #40]
	.loc 1 501 3 is_stmt 1
	.loc 1 501 42 is_stmt 0
	ldr	r3, [r1, #8]
	.loc 1 501 27
	str	r3, [r0, #44]
	.loc 1 502 3 is_stmt 1
	.loc 1 502 41 is_stmt 0
	ldr	r3, [r1, #12]
	.loc 1 502 26
	str	r3, [r0, #48]
	.loc 1 503 3 is_stmt 1
	.loc 1 503 42 is_stmt 0
	ldr	r3, [r1, #20]
	.loc 1 503 27
	str	r3, [r0, #56]
	.loc 1 504 3 is_stmt 1
	.loc 1 504 41 is_stmt 0
	ldr	r3, [r1, #16]
	.loc 1 504 26
	str	r3, [r0, #52]
	.loc 1 505 3 is_stmt 1
	.loc 1 505 51 is_stmt 0
	ldrb	r3, [r1, #24]	@ zero_extendqisi2
	.loc 1 505 36
	strb	r3, [r0, #60]
	.loc 1 507 3 is_stmt 1
	.loc 1 508 1 is_stmt 0
	movs	r0, #0
.LVL31:
	bx	lr
	.cfi_endproc
.LFE343:
	.size	HAL_NAND_ConfigDevice, .-HAL_NAND_ConfigDevice
	.section	.text.HAL_NAND_Erase_Block,"ax",%progbits
	.align	1
	.global	HAL_NAND_Erase_Block
	.syntax unified
	.thumb
	.thumb_func
	.type	HAL_NAND_Erase_Block, %function
HAL_NAND_Erase_Block:
.LFB352:
	.loc 1 1817 1 is_stmt 1
	.cfi_startproc
	@ args = 0, pretend = 0, frame = 0
	@ frame_needed = 0, uses_anonymous_args = 0
.LVL32:
	mov	r3, r0
	.loc 1 1818 3
	.loc 1 1821 3
	.loc 1 1821 12 is_stmt 0
	ldrb	r0, [r0, #33]	@ zero_extendqisi2
.LVL33:
	uxtb	r0, r0
	.loc 1 1821 6
	cmp	r0, #2
	beq	.L48
	.loc 1 1825 8 is_stmt 1
	.loc 1 1825 17 is_stmt 0
	ldrb	r2, [r3, #33]	@ zero_extendqisi2
	uxtb	r2, r2
	.loc 1 1825 11
	cmp	r2, #1
	bne	.L45
	.loc 1 1828 5 is_stmt 1
	.loc 1 1828 9
	.loc 1 1828 19 is_stmt 0
	ldrb	r2, [r3, #32]	@ zero_extendqisi2
	.loc 1 1828 11
	cmp	r2, #1
	beq	.L46
	.loc 1 1817 1 discriminator 2
	push	{r4, r5, r6, lr}
	.cfi_def_cfa_offset 16
	.cfi_offset 4, -16
	.cfi_offset 5, -12
	.cfi_offset 6, -8
	.cfi_offset 14, -4
	.loc 1 1828 69 is_stmt 1 discriminator 2
	.loc 1 1828 83 is_stmt 0 discriminator 2
	movs	r0, #1
	strb	r0, [r3, #32]
	.loc 1 1828 7 is_stmt 1 discriminator 2
	.loc 1 1831 5 discriminator 2
	.loc 1 1831 18 is_stmt 0 discriminator 2
	movs	r2, #2
	strb	r2, [r3, #33]
	.loc 1 1834 5 is_stmt 1 discriminator 2
.LVL34:
	.loc 1 1837 5 discriminator 2
	.loc 1 1837 67 is_stmt 0 discriminator 2
	ldr	r4, .L51
	movs	r2, #96
	strb	r2, [r4]
	.loc 1 1838 5 is_stmt 1 discriminator 2
.LBB344:
.LBB345:
	.loc 2 946 3 discriminator 2
	.syntax unified
@ 946 "d:\rtos\board\yd-stm32h7xxvx_classicv19\cmake-build-debug\_deps\stm32h7xx_cmsis_include\drivers\cmsis\include\cmsis_gcc.h" 1
	dsb 0xF
@ 0 "" 2
	.thumb
	.syntax unified
.LBE345:
.LBE344:
	.loc 1 1839 5 discriminator 2
	.loc 1 1839 90 is_stmt 0 discriminator 2
	ldrh	r5, [r1]
	.loc 1 1839 111 discriminator 2
	ldrh	r2, [r1, #4]
	.loc 1 1839 133 discriminator 2
	ldrh	ip, [r1, #2]
	.loc 1 1839 119 discriminator 2
	ldr	r6, [r3, #56]
	mla	r2, r6, ip, r2
	.loc 1 1839 69 discriminator 2
	ldr	r6, [r3, #44]
	smlabb	r2, r2, r6, r5
	uxtb	r2, r2
	.loc 1 1839 67 discriminator 2
	ldr	r5, .L51+4
	strb	r2, [r5]
	.loc 1 1840 5 is_stmt 1 discriminator 2
.LBB346:
.LBB347:
	.loc 2 946 3 discriminator 2
	.syntax unified
@ 946 "d:\rtos\board\yd-stm32h7xxvx_classicv19\cmake-build-debug\_deps\stm32h7xx_cmsis_include\drivers\cmsis\include\cmsis_gcc.h" 1
	dsb 0xF
@ 0 "" 2
	.thumb
	.syntax unified
.LBE347:
.LBE346:
	.loc 1 1841 5 discriminator 2
	.loc 1 1841 91 is_stmt 0 discriminator 2
	ldrh	r2, [r1]
	.loc 1 1841 112 discriminator 2
	ldrh	ip, [r1, #4]
	.loc 1 1841 134 discriminator 2
	ldrh	lr, [r1, #2]
	.loc 1 1841 120 discriminator 2
	ldr	r6, [r3, #56]
	mla	ip, r6, lr, ip
	.loc 1 1841 98 discriminator 2
	ldr	r6, [r3, #44]
	mla	r2, r6, ip, r2
	.loc 1 1841 69 discriminator 2
	ubfx	r2, r2, #8, #8
	.loc 1 1841 67 discriminator 2
	strb	r2, [r5]
	.loc 1 1842 5 is_stmt 1 discriminator 2
.LBB348:
.LBB349:
	.loc 2 946 3 discriminator 2
	.syntax unified
@ 946 "d:\rtos\board\yd-stm32h7xxvx_classicv19\cmake-build-debug\_deps\stm32h7xx_cmsis_include\drivers\cmsis\include\cmsis_gcc.h" 1
	dsb 0xF
@ 0 "" 2
	.thumb
	.syntax unified
.LBE349:
.LBE348:
	.loc 1 1843 5 discriminator 2
	.loc 1 1843 91 is_stmt 0 discriminator 2
	ldrh	r2, [r1]
	.loc 1 1843 112 discriminator 2
	ldrh	ip, [r1, #4]
	.loc 1 1843 134 discriminator 2
	ldrh	r1, [r1, #2]
.LVL35:
	.loc 1 1843 120 discriminator 2
	ldr	r6, [r3, #56]
	mla	r1, r6, r1, ip
	.loc 1 1843 98 discriminator 2
	ldr	r6, [r3, #44]
	mla	r2, r6, r1, r2
	.loc 1 1843 69 discriminator 2
	ubfx	r2, r2, #16, #8
	.loc 1 1843 67 discriminator 2
	strb	r2, [r5]
	.loc 1 1844 5 is_stmt 1 discriminator 2
.LBB350:
.LBB351:
	.loc 2 946 3 discriminator 2
	.syntax unified
@ 946 "d:\rtos\board\yd-stm32h7xxvx_classicv19\cmake-build-debug\_deps\stm32h7xx_cmsis_include\drivers\cmsis\include\cmsis_gcc.h" 1
	dsb 0xF
@ 0 "" 2
	.thumb
	.syntax unified
.LBE351:
.LBE350:
	.loc 1 1846 5 discriminator 2
	.loc 1 1846 67 is_stmt 0 discriminator 2
	movs	r2, #208
	strb	r2, [r4]
	.loc 1 1847 5 is_stmt 1 discriminator 2
.LBB352:
.LBB353:
	.loc 2 946 3 discriminator 2
	.syntax unified
@ 946 "d:\rtos\board\yd-stm32h7xxvx_classicv19\cmake-build-debug\_deps\stm32h7xx_cmsis_include\drivers\cmsis\include\cmsis_gcc.h" 1
	dsb 0xF
@ 0 "" 2
	.thumb
	.syntax unified
.LBE353:
.LBE352:
	.loc 1 1850 5 discriminator 2
	.loc 1 1850 18 is_stmt 0 discriminator 2
	strb	r0, [r3, #33]
	.loc 1 1853 5 is_stmt 1 discriminator 2
	.loc 1 1853 9 discriminator 2
	.loc 1 1853 23 is_stmt 0 discriminator 2
	movs	r0, #0
	strb	r0, [r3, #32]
	.loc 1 1853 7 is_stmt 1 discriminator 2
	.loc 1 1860 3 discriminator 2
	.loc 1 1861 1 is_stmt 0 discriminator 2
	pop	{r4, r5, r6, pc}
.LVL36:
.L45:
	.cfi_def_cfa_offset 0
	.cfi_restore 4
	.cfi_restore 5
	.cfi_restore 6
	.cfi_restore 14
	.loc 1 1857 12
	movs	r0, #1
	bx	lr
.L46:
	.loc 1 1828 50
	movs	r0, #2
	bx	lr
.L48:
	.loc 1 1861 1
	bx	lr
.L52:
	.align	2
.L51:
	.word	-2147418112
	.word	-2147352576
	.cfi_endproc
.LFE352:
	.size	HAL_NAND_Erase_Block, .-HAL_NAND_Erase_Block
	.section	.text.HAL_NAND_Address_Inc,"ax",%progbits
	.align	1
	.global	HAL_NAND_Address_Inc
	.syntax unified
	.thumb
	.thumb_func
	.type	HAL_NAND_Address_Inc, %function
HAL_NAND_Address_Inc:
.LFB353:
	.loc 1 1873 1 is_stmt 1
	.cfi_startproc
	@ args = 0, pretend = 0, frame = 0
	@ frame_needed = 0, uses_anonymous_args = 0
	@ link register save eliminated.
.LVL37:
	.loc 1 1874 3
	.loc 1 1877 3
	.loc 1 1877 11 is_stmt 0
	ldrh	r3, [r1]
	.loc 1 1877 17
	adds	r3, r3, #1
	uxth	r3, r3
	strh	r3, [r1]	@ movhi
	.loc 1 1880 3 is_stmt 1
	.loc 1 1880 38 is_stmt 0
	ldr	r2, [r0, #44]
	.loc 1 1880 6
	cmp	r3, r2
	beq	.L58
	.loc 1 1874 12
	mov	r0, #256
.LVL38:
	bx	lr
.LVL39:
.L58:
	.loc 1 1882 5 is_stmt 1
	.loc 1 1882 20 is_stmt 0
	movs	r3, #0
	strh	r3, [r1]	@ movhi
	.loc 1 1883 5 is_stmt 1
	.loc 1 1883 13 is_stmt 0
	ldrh	r3, [r1, #4]
	.loc 1 1883 20
	adds	r3, r3, #1
	uxth	r3, r3
	strh	r3, [r1, #4]	@ movhi
	.loc 1 1885 5 is_stmt 1
	.loc 1 1885 41 is_stmt 0
	ldr	r2, [r0, #56]
	.loc 1 1885 8
	cmp	r3, r2
	beq	.L59
	.loc 1 1874 12
	mov	r0, #256
.LVL40:
	bx	lr
.LVL41:
.L59:
	.loc 1 1887 7 is_stmt 1
	.loc 1 1887 23 is_stmt 0
	movs	r3, #0
	strh	r3, [r1, #4]	@ movhi
	.loc 1 1888 7 is_stmt 1
	.loc 1 1888 15 is_stmt 0
	ldrh	r3, [r1, #2]
	.loc 1 1888 22
	adds	r3, r3, #1
	uxth	r3, r3
	strh	r3, [r1, #2]	@ movhi
	.loc 1 1890 7 is_stmt 1
	.loc 1 1890 44 is_stmt 0
	ldr	r2, [r0, #52]
	.loc 1 1890 10
	cmp	r3, r2
	beq	.L57
	.loc 1 1874 12
	mov	r0, #256
.LVL42:
	bx	lr
.LVL43:
.L57:
	.loc 1 1892 16
	mov	r0, #512
.LVL44:
	.loc 1 1897 3 is_stmt 1
	.loc 1 1898 1 is_stmt 0
	bx	lr
	.cfi_endproc
.LFE353:
	.size	HAL_NAND_Address_Inc, .-HAL_NAND_Address_Inc
	.section	.text.HAL_NAND_ECC_Enable,"ax",%progbits
	.align	1
	.global	HAL_NAND_ECC_Enable
	.syntax unified
	.thumb
	.thumb_func
	.type	HAL_NAND_ECC_Enable, %function
HAL_NAND_ECC_Enable:
.LFB354:
	.loc 1 2054 1 is_stmt 1
	.cfi_startproc
	@ args = 0, pretend = 0, frame = 0
	@ frame_needed = 0, uses_anonymous_args = 0
.LVL45:
	push	{r4, lr}
	.cfi_def_cfa_offset 8
	.cfi_offset 4, -8
	.cfi_offset 14, -4
	mov	r4, r0
	.loc 1 2056 3
	.loc 1 2056 12 is_stmt 0
	ldrb	r0, [r0, #33]	@ zero_extendqisi2
.LVL46:
	uxtb	r0, r0
	.loc 1 2056 6
	cmp	r0, #2
	beq	.L61
	.loc 1 2060 8 is_stmt 1
	.loc 1 2060 17 is_stmt 0
	ldrb	r3, [r4, #33]	@ zero_extendqisi2
	uxtb	r3, r3
	.loc 1 2060 11
	cmp	r3, #1
	beq	.L64
	.loc 1 2073 12
	movs	r0, #1
.L61:
	.loc 1 2077 1
	pop	{r4, pc}
.LVL47:
.L64:
	.loc 1 2063 5 is_stmt 1
	.loc 1 2063 18 is_stmt 0
	movs	r3, #2
	strb	r3, [r4, #33]
	.loc 1 2066 5 is_stmt 1
	.loc 1 2066 11 is_stmt 0
	ldr	r1, [r4, #4]
	ldr	r0, [r4]
	bl	FMC_NAND_ECC_Enable
.LVL48:
	.loc 1 2069 5 is_stmt 1
	.loc 1 2069 18 is_stmt 0
	movs	r3, #1
	strb	r3, [r4, #33]
	.loc 1 2076 3 is_stmt 1
	.loc 1 2076 10 is_stmt 0
	movs	r0, #0
	b	.L61
	.cfi_endproc
.LFE354:
	.size	HAL_NAND_ECC_Enable, .-HAL_NAND_ECC_Enable
	.section	.text.HAL_NAND_ECC_Disable,"ax",%progbits
	.align	1
	.global	HAL_NAND_ECC_Disable
	.syntax unified
	.thumb
	.thumb_func
	.type	HAL_NAND_ECC_Disable, %function
HAL_NAND_ECC_Disable:
.LFB355:
	.loc 1 2086 1 is_stmt 1
	.cfi_startproc
	@ args = 0, pretend = 0, frame = 0
	@ frame_needed = 0, uses_anonymous_args = 0
.LVL49:
	push	{r4, lr}
	.cfi_def_cfa_offset 8
	.cfi_offset 4, -8
	.cfi_offset 14, -4
	mov	r4, r0
	.loc 1 2088 3
	.loc 1 2088 12 is_stmt 0
	ldrb	r0, [r0, #33]	@ zero_extendqisi2
.LVL50:
	uxtb	r0, r0
	.loc 1 2088 6
	cmp	r0, #2
	beq	.L66
	.loc 1 2092 8 is_stmt 1
	.loc 1 2092 17 is_stmt 0
	ldrb	r3, [r4, #33]	@ zero_extendqisi2
	uxtb	r3, r3
	.loc 1 2092 11
	cmp	r3, #1
	beq	.L69
	.loc 1 2105 12
	movs	r0, #1
.L66:
	.loc 1 2109 1
	pop	{r4, pc}
.LVL51:
.L69:
	.loc 1 2095 5 is_stmt 1
	.loc 1 2095 18 is_stmt 0
	movs	r3, #2
	strb	r3, [r4, #33]
	.loc 1 2098 5 is_stmt 1
	.loc 1 2098 11 is_stmt 0
	ldr	r1, [r4, #4]
	ldr	r0, [r4]
	bl	FMC_NAND_ECC_Disable
.LVL52:
	.loc 1 2101 5 is_stmt 1
	.loc 1 2101 18 is_stmt 0
	movs	r3, #1
	strb	r3, [r4, #33]
	.loc 1 2108 3 is_stmt 1
	.loc 1 2108 10 is_stmt 0
	movs	r0, #0
	b	.L66
	.cfi_endproc
.LFE355:
	.size	HAL_NAND_ECC_Disable, .-HAL_NAND_ECC_Disable
	.section	.text.HAL_NAND_GetECC,"ax",%progbits
	.align	1
	.global	HAL_NAND_GetECC
	.syntax unified
	.thumb
	.thumb_func
	.type	HAL_NAND_GetECC, %function
HAL_NAND_GetECC:
.LFB356:
	.loc 1 2120 1 is_stmt 1
	.cfi_startproc
	@ args = 0, pretend = 0, frame = 0
	@ frame_needed = 0, uses_anonymous_args = 0
.LVL53:
	push	{r4, lr}
	.cfi_def_cfa_offset 8
	.cfi_offset 4, -8
	.cfi_offset 14, -4
	mov	r4, r0
	.loc 1 2121 3
	.loc 1 2124 3
	.loc 1 2124 12 is_stmt 0
	ldrb	ip, [r0, #33]	@ zero_extendqisi2
	uxtb	r0, ip
.LVL54:
	.loc 1 2124 6
	cmp	r0, #2
	beq	.L71
	.loc 1 2128 8 is_stmt 1
	.loc 1 2128 17 is_stmt 0
	ldrb	r0, [r4, #33]	@ zero_extendqisi2
	uxtb	r0, r0
	.loc 1 2128 11
	cmp	r0, #1
	beq	.L74
	.loc 1 2141 12
	movs	r0, #1
.LVL55:
.L71:
	.loc 1 2145 1
	pop	{r4, pc}
.LVL56:
.L74:
	.loc 1 2131 5 is_stmt 1
	.loc 1 2131 18 is_stmt 0
	movs	r3, #2
	strb	r3, [r4, #33]
	.loc 1 2134 5 is_stmt 1
	.loc 1 2134 14 is_stmt 0
	mov	r3, r2
	ldr	r2, [r4, #4]
.LVL57:
	ldr	r0, [r4]
	bl	FMC_NAND_GetECC
.LVL58:
	.loc 1 2137 5 is_stmt 1
	.loc 1 2137 18 is_stmt 0
	movs	r3, #1
	strb	r3, [r4, #33]
	.loc 1 2144 3 is_stmt 1
	.loc 1 2144 10 is_stmt 0
	b	.L71
	.cfi_endproc
.LFE356:
	.size	HAL_NAND_GetECC, .-HAL_NAND_GetECC
	.section	.text.HAL_NAND_GetState,"ax",%progbits
	.align	1
	.global	HAL_NAND_GetState
	.syntax unified
	.thumb
	.thumb_func
	.type	HAL_NAND_GetState, %function
HAL_NAND_GetState:
.LFB357:
	.loc 1 2174 1 is_stmt 1
	.cfi_startproc
	@ args = 0, pretend = 0, frame = 0
	@ frame_needed = 0, uses_anonymous_args = 0
	@ link register save eliminated.
.LVL59:
	.loc 1 2175 3
	.loc 1 2175 15 is_stmt 0
	ldrb	r0, [r0, #33]	@ zero_extendqisi2
.LVL60:
	.loc 1 2176 1
	bx	lr
	.cfi_endproc
.LFE357:
	.size	HAL_NAND_GetState, .-HAL_NAND_GetState
	.section	.text.HAL_NAND_Read_Status,"ax",%progbits
	.align	1
	.global	HAL_NAND_Read_Status
	.syntax unified
	.thumb
	.thumb_func
	.type	HAL_NAND_Read_Status, %function
HAL_NAND_Read_Status:
.LFB358:
	.loc 1 2185 1 is_stmt 1
	.cfi_startproc
	@ args = 0, pretend = 0, frame = 0
	@ frame_needed = 0, uses_anonymous_args = 0
	@ link register save eliminated.
.LVL61:
	.loc 1 2186 3
	.loc 1 2187 3
	.loc 1 2188 3
	.loc 1 2191 3
	.loc 1 2194 3
	.loc 1 2194 65 is_stmt 0
	ldr	r3, .L81
	movs	r2, #112
	strb	r2, [r3]
	.loc 1 2197 3 is_stmt 1
	.loc 1 2197 10 is_stmt 0
	mov	r3, #-2147483648
	ldrb	r3, [r3]	@ zero_extendqisi2
	uxtb	r2, r3
.LVL62:
	.loc 1 2200 3 is_stmt 1
	.loc 1 2200 6 is_stmt 0
	tst	r3, #1
	bne	.L78
	.loc 1 2204 8 is_stmt 1
	.loc 1 2204 11 is_stmt 0
	tst	r2, #64
	bne	.L80
	.loc 1 2210 12
	movs	r0, #0
.LVL63:
	.loc 1 2212 1
	bx	lr
.LVL64:
.L80:
	.loc 1 2206 12
	movs	r0, #64
.LVL65:
	bx	lr
.LVL66:
.L78:
	.loc 1 2202 12
	movs	r0, #1
.LVL67:
	bx	lr
.L82:
	.align	2
.L81:
	.word	-2147418112
	.cfi_endproc
.LFE358:
	.size	HAL_NAND_Read_Status, .-HAL_NAND_Read_Status
	.section	.text.HAL_NAND_Read_Page_8b,"ax",%progbits
	.align	1
	.global	HAL_NAND_Read_Page_8b
	.syntax unified
	.thumb
	.thumb_func
	.type	HAL_NAND_Read_Page_8b, %function
HAL_NAND_Read_Page_8b:
.LFB344:
	.loc 1 521 1 is_stmt 1
	.cfi_startproc
	@ args = 0, pretend = 0, frame = 0
	@ frame_needed = 0, uses_anonymous_args = 0
.LVL68:
	push	{r4, r5, r6, r7, r8, lr}
	.cfi_def_cfa_offset 24
	.cfi_offset 4, -24
	.cfi_offset 5, -20
	.cfi_offset 6, -16
	.cfi_offset 7, -12
	.cfi_offset 8, -8
	.cfi_offset 14, -4
	mov	r4, r0
	.loc 1 522 3
	.loc 1 523 3
	.loc 1 524 3
	.loc 1 525 3
.LVL69:
	.loc 1 526 3
	.loc 1 527 3
	.loc 1 528 3
	.loc 1 531 3
	.loc 1 531 12 is_stmt 0
	ldrb	r0, [r0, #33]	@ zero_extendqisi2
.LVL70:
	uxtb	r0, r0
	.loc 1 531 6
	cmp	r0, #2
	beq	.L84
	mov	r5, r2
	mov	r7, r3
	.loc 1 535 8 is_stmt 1
	.loc 1 535 17 is_stmt 0
	ldrb	r3, [r4, #33]	@ zero_extendqisi2
.LVL71:
	uxtb	r3, r3
	.loc 1 535 11
	cmp	r3, #1
	bne	.L97
	.loc 1 538 5 is_stmt 1
	.loc 1 538 9
	.loc 1 538 19 is_stmt 0
	ldrb	r3, [r4, #32]	@ zero_extendqisi2
	.loc 1 538 11
	cmp	r3, #1
	beq	.L98
	.loc 1 538 69 is_stmt 1 discriminator 2
	.loc 1 538 83 is_stmt 0 discriminator 2
	movs	r3, #1
	strb	r3, [r4, #32]
	.loc 1 538 7 is_stmt 1 discriminator 2
	.loc 1 541 5 discriminator 2
	.loc 1 541 18 is_stmt 0 discriminator 2
	movs	r3, #2
	strb	r3, [r4, #33]
	.loc 1 544 5 is_stmt 1 discriminator 2
.LVL72:
	.loc 1 547 5 discriminator 2
	.loc 1 547 30 is_stmt 0 discriminator 2
	ldrh	r6, [r1]
	.loc 1 547 51 discriminator 2
	ldrh	r3, [r1, #4]
	.loc 1 547 73 discriminator 2
	ldrh	r2, [r1, #2]
.LVL73:
	.loc 1 547 100 discriminator 2
	ldr	r1, [r4, #56]
.LVL74:
	.loc 1 547 59 discriminator 2
	mla	r3, r1, r2, r3
	.loc 1 547 132 discriminator 2
	ldr	r2, [r4, #44]
	.loc 1 547 17 discriminator 2
	mla	r6, r2, r3, r6
.LVL75:
	.loc 1 550 5 is_stmt 1 discriminator 2
	.loc 1 550 11 is_stmt 0 discriminator 2
	b	.L85
.LVL76:
.L87:
	.loc 1 570 11 is_stmt 1
	.loc 1 570 73 is_stmt 0
	ldr	r3, .L102
	movs	r2, #0
	strb	r2, [r3]
	.loc 1 571 11 is_stmt 1
.LBB354:
.LBB355:
	.loc 2 946 3
	.syntax unified
@ 946 "d:\rtos\board\yd-stm32h7xxvx_classicv19\cmake-build-debug\_deps\stm32h7xx_cmsis_include\drivers\cmsis\include\cmsis_gcc.h" 1
	dsb 0xF
@ 0 "" 2
	.thumb
	.syntax unified
.LBE355:
.LBE354:
	.loc 1 572 11
	.loc 1 572 75 is_stmt 0
	uxtb	r2, r6
	.loc 1 572 73
	strb	r2, [r3]
	.loc 1 573 11 is_stmt 1
.LBB356:
.LBB357:
	.loc 2 946 3
	.syntax unified
@ 946 "d:\rtos\board\yd-stm32h7xxvx_classicv19\cmake-build-debug\_deps\stm32h7xx_cmsis_include\drivers\cmsis\include\cmsis_gcc.h" 1
	dsb 0xF
@ 0 "" 2
	.thumb
	.syntax unified
.LBE357:
.LBE356:
	.loc 1 574 11
	.loc 1 574 75 is_stmt 0
	ubfx	r2, r6, #8, #8
	.loc 1 574 73
	strb	r2, [r3]
	.loc 1 575 11 is_stmt 1
.LBB358:
.LBB359:
	.loc 2 946 3
	.syntax unified
@ 946 "d:\rtos\board\yd-stm32h7xxvx_classicv19\cmake-build-debug\_deps\stm32h7xx_cmsis_include\drivers\cmsis\include\cmsis_gcc.h" 1
	dsb 0xF
@ 0 "" 2
	.thumb
	.syntax unified
.LBE359:
.LBE358:
	.loc 1 576 11
	.loc 1 576 75 is_stmt 0
	ubfx	r2, r6, #16, #8
	.loc 1 576 73
	strb	r2, [r3]
	.loc 1 577 11 is_stmt 1
.LBB360:
.LBB361:
	.loc 2 946 3
	.syntax unified
@ 946 "d:\rtos\board\yd-stm32h7xxvx_classicv19\cmake-build-debug\_deps\stm32h7xx_cmsis_include\drivers\cmsis\include\cmsis_gcc.h" 1
	dsb 0xF
@ 0 "" 2
	.loc 2 947 1 is_stmt 0
	.thumb
	.syntax unified
	b	.L88
.L86:
.LBE361:
.LBE360:
	.loc 1 582 9 is_stmt 1
	.loc 1 582 28 is_stmt 0
	ldr	r3, [r4, #44]
	.loc 1 582 56
	ldr	r2, [r4, #48]
	.loc 1 582 40
	mul	r3, r2, r3
	.loc 1 582 12
	cmp	r3, #65536
	bcs	.L89
	.loc 1 584 11 is_stmt 1
	.loc 1 584 73 is_stmt 0
	ldr	r3, .L102
	movs	r2, #0
	strb	r2, [r3]
	.loc 1 585 11 is_stmt 1
.LBB362:
.LBB363:
	.loc 2 946 3
	.syntax unified
@ 946 "d:\rtos\board\yd-stm32h7xxvx_classicv19\cmake-build-debug\_deps\stm32h7xx_cmsis_include\drivers\cmsis\include\cmsis_gcc.h" 1
	dsb 0xF
@ 0 "" 2
	.thumb
	.syntax unified
.LBE363:
.LBE362:
	.loc 1 586 11
	.loc 1 586 73 is_stmt 0
	strb	r2, [r3]
	.loc 1 587 11 is_stmt 1
.LBB364:
.LBB365:
	.loc 2 946 3
	.syntax unified
@ 946 "d:\rtos\board\yd-stm32h7xxvx_classicv19\cmake-build-debug\_deps\stm32h7xx_cmsis_include\drivers\cmsis\include\cmsis_gcc.h" 1
	dsb 0xF
@ 0 "" 2
	.thumb
	.syntax unified
.LBE365:
.LBE364:
	.loc 1 588 11
	.loc 1 588 75 is_stmt 0
	uxtb	r2, r6
	.loc 1 588 73
	strb	r2, [r3]
	.loc 1 589 11 is_stmt 1
.LBB366:
.LBB367:
	.loc 2 946 3
	.syntax unified
@ 946 "d:\rtos\board\yd-stm32h7xxvx_classicv19\cmake-build-debug\_deps\stm32h7xx_cmsis_include\drivers\cmsis\include\cmsis_gcc.h" 1
	dsb 0xF
@ 0 "" 2
	.thumb
	.syntax unified
.LBE367:
.LBE366:
	.loc 1 590 11
	.loc 1 590 75 is_stmt 0
	ubfx	r2, r6, #8, #8
	.loc 1 590 73
	strb	r2, [r3]
	.loc 1 591 11 is_stmt 1
.LBB368:
.LBB369:
	.loc 2 946 3
	.syntax unified
@ 946 "d:\rtos\board\yd-stm32h7xxvx_classicv19\cmake-build-debug\_deps\stm32h7xx_cmsis_include\drivers\cmsis\include\cmsis_gcc.h" 1
	dsb 0xF
@ 0 "" 2
	.loc 2 947 1 is_stmt 0
	.thumb
	.syntax unified
	b	.L88
.L89:
.LBE369:
.LBE368:
	.loc 1 595 11 is_stmt 1
	.loc 1 595 73 is_stmt 0
	ldr	r3, .L102
	movs	r2, #0
	strb	r2, [r3]
	.loc 1 596 11 is_stmt 1
.LBB370:
.LBB371:
	.loc 2 946 3
	.syntax unified
@ 946 "d:\rtos\board\yd-stm32h7xxvx_classicv19\cmake-build-debug\_deps\stm32h7xx_cmsis_include\drivers\cmsis\include\cmsis_gcc.h" 1
	dsb 0xF
@ 0 "" 2
	.thumb
	.syntax unified
.LBE371:
.LBE370:
	.loc 1 597 11
	.loc 1 597 73 is_stmt 0
	strb	r2, [r3]
	.loc 1 598 11 is_stmt 1
.LBB372:
.LBB373:
	.loc 2 946 3
	.syntax unified
@ 946 "d:\rtos\board\yd-stm32h7xxvx_classicv19\cmake-build-debug\_deps\stm32h7xx_cmsis_include\drivers\cmsis\include\cmsis_gcc.h" 1
	dsb 0xF
@ 0 "" 2
	.thumb
	.syntax unified
.LBE373:
.LBE372:
	.loc 1 599 11
	.loc 1 599 75 is_stmt 0
	uxtb	r2, r6
	.loc 1 599 73
	strb	r2, [r3]
	.loc 1 600 11 is_stmt 1
.LBB374:
.LBB375:
	.loc 2 946 3
	.syntax unified
@ 946 "d:\rtos\board\yd-stm32h7xxvx_classicv19\cmake-build-debug\_deps\stm32h7xx_cmsis_include\drivers\cmsis\include\cmsis_gcc.h" 1
	dsb 0xF
@ 0 "" 2
	.thumb
	.syntax unified
.LBE375:
.LBE374:
	.loc 1 601 11
	.loc 1 601 75 is_stmt 0
	ubfx	r2, r6, #8, #8
	.loc 1 601 73
	strb	r2, [r3]
	.loc 1 602 11 is_stmt 1
.LBB376:
.LBB377:
	.loc 2 946 3
	.syntax unified
@ 946 "d:\rtos\board\yd-stm32h7xxvx_classicv19\cmake-build-debug\_deps\stm32h7xx_cmsis_include\drivers\cmsis\include\cmsis_gcc.h" 1
	dsb 0xF
@ 0 "" 2
	.thumb
	.syntax unified
.LBE377:
.LBE376:
	.loc 1 603 11
	.loc 1 603 75 is_stmt 0
	ubfx	r2, r6, #16, #8
	.loc 1 603 73
	strb	r2, [r3]
	.loc 1 604 11 is_stmt 1
.LBB378:
.LBB379:
	.loc 2 946 3
	.syntax unified
@ 946 "d:\rtos\board\yd-stm32h7xxvx_classicv19\cmake-build-debug\_deps\stm32h7xx_cmsis_include\drivers\cmsis\include\cmsis_gcc.h" 1
	dsb 0xF
@ 0 "" 2
	.loc 2 947 1 is_stmt 0
	.thumb
	.syntax unified
	b	.L88
.L101:
.LBE379:
.LBE378:
	.loc 1 615 9 is_stmt 1
	.loc 1 615 21 is_stmt 0
	bl	HAL_GetTick
.LVL77:
	mov	r8, r0
.LVL78:
	.loc 1 618 9 is_stmt 1
.L91:
	.loc 1 618 44
	.loc 1 618 16 is_stmt 0
	mov	r0, r4
	bl	HAL_NAND_Read_Status
.LVL79:
	.loc 1 618 44
	cmp	r0, #64
	beq	.L100
	.loc 1 620 11 is_stmt 1
	.loc 1 620 16 is_stmt 0
	bl	HAL_GetTick
.LVL80:
	.loc 1 620 30
	sub	r0, r0, r8
	.loc 1 620 14
	cmp	r0, #16777216
	bls	.L91
	.loc 1 623 13 is_stmt 1
	.loc 1 623 26 is_stmt 0
	movs	r0, #3
	strb	r0, [r4, #33]
	.loc 1 626 13 is_stmt 1
	.loc 1 626 17
	.loc 1 626 31 is_stmt 0
	movs	r3, #0
	strb	r3, [r4, #32]
	.loc 1 626 15 is_stmt 1
	.loc 1 628 13
	.loc 1 628 20 is_stmt 0
	b	.L84
.L100:
	.loc 1 633 9 is_stmt 1
	.loc 1 633 71 is_stmt 0
	ldr	r3, .L102+4
	movs	r2, #0
	strb	r2, [r3]
	.loc 1 634 9 is_stmt 1
.LBB380:
.LBB381:
	.loc 2 946 3
	.syntax unified
@ 946 "d:\rtos\board\yd-stm32h7xxvx_classicv19\cmake-build-debug\_deps\stm32h7xx_cmsis_include\drivers\cmsis\include\cmsis_gcc.h" 1
	dsb 0xF
@ 0 "" 2
	.loc 2 947 1 is_stmt 0
	.thumb
	.syntax unified
	b	.L90
.LVL81:
.L94:
.LBE381:
.LBE380:
	.loc 1 640 9 is_stmt 1 discriminator 3
	.loc 1 640 17 is_stmt 0 discriminator 3
	mov	r2, #-2147483648
	ldrb	r2, [r2]	@ zero_extendqisi2
	.loc 1 640 15 discriminator 3
	strb	r2, [r5], #1
.LVL82:
	.loc 1 641 9 is_stmt 1 discriminator 3
	.loc 1 638 61 discriminator 3
	adds	r1, r1, #1
.LVL83:
.L93:
	.loc 1 638 30 discriminator 1
	.loc 1 638 45 is_stmt 0 discriminator 1
	ldr	r0, [r4, #36]
	.loc 1 638 30 discriminator 1
	cmp	r0, r1
	bhi	.L94
	.loc 1 645 7 is_stmt 1
	.loc 1 648 7
	.loc 1 648 14 is_stmt 0
	subs	r7, r7, #1
.LVL84:
	.loc 1 651 7 is_stmt 1
	.loc 1 651 19 is_stmt 0
	adds	r6, r6, #1
.LVL85:
.L85:
	.loc 1 550 28 is_stmt 1
	cbz	r7, .L95
	.loc 1 550 61 is_stmt 0 discriminator 1
	ldr	r3, [r4, #44]
	.loc 1 550 89 discriminator 1
	ldr	r2, [r4, #48]
	.loc 1 550 73 discriminator 1
	mul	r3, r2, r3
	.loc 1 550 28 discriminator 1
	cmp	r3, r6
	bls	.L95
	.loc 1 553 7 is_stmt 1
	.loc 1 553 69 is_stmt 0
	ldr	r3, .L102+4
	movs	r2, #0
	strb	r2, [r3]
	.loc 1 554 7 is_stmt 1
.LBB382:
.LBB383:
	.loc 2 946 3
	.syntax unified
@ 946 "d:\rtos\board\yd-stm32h7xxvx_classicv19\cmake-build-debug\_deps\stm32h7xx_cmsis_include\drivers\cmsis\include\cmsis_gcc.h" 1
	dsb 0xF
@ 0 "" 2
	.thumb
	.syntax unified
.LBE383:
.LBE382:
	.loc 1 557 7
	.loc 1 557 25 is_stmt 0
	ldr	r3, [r4, #36]
	.loc 1 557 10
	cmp	r3, #512
	bhi	.L86
	.loc 1 559 9 is_stmt 1
	.loc 1 559 28 is_stmt 0
	ldr	r3, [r4, #44]
	.loc 1 559 56
	ldr	r2, [r4, #48]
	.loc 1 559 40
	mul	r3, r2, r3
	.loc 1 559 12
	cmp	r3, #65536
	bcs	.L87
	.loc 1 561 11 is_stmt 1
	.loc 1 561 73 is_stmt 0
	ldr	r3, .L102
	movs	r2, #0
	strb	r2, [r3]
	.loc 1 562 11 is_stmt 1
.LBB384:
.LBB385:
	.loc 2 946 3
	.syntax unified
@ 946 "d:\rtos\board\yd-stm32h7xxvx_classicv19\cmake-build-debug\_deps\stm32h7xx_cmsis_include\drivers\cmsis\include\cmsis_gcc.h" 1
	dsb 0xF
@ 0 "" 2
	.thumb
	.syntax unified
.LBE385:
.LBE384:
	.loc 1 563 11
	.loc 1 563 75 is_stmt 0
	uxtb	r2, r6
	.loc 1 563 73
	strb	r2, [r3]
	.loc 1 564 11 is_stmt 1
.LBB386:
.LBB387:
	.loc 2 946 3
	.syntax unified
@ 946 "d:\rtos\board\yd-stm32h7xxvx_classicv19\cmake-build-debug\_deps\stm32h7xx_cmsis_include\drivers\cmsis\include\cmsis_gcc.h" 1
	dsb 0xF
@ 0 "" 2
	.thumb
	.syntax unified
.LBE387:
.LBE386:
	.loc 1 565 11
	.loc 1 565 75 is_stmt 0
	ubfx	r2, r6, #8, #8
	.loc 1 565 73
	strb	r2, [r3]
	.loc 1 566 11 is_stmt 1
.LBB388:
.LBB389:
	.loc 2 946 3
	.syntax unified
@ 946 "d:\rtos\board\yd-stm32h7xxvx_classicv19\cmake-build-debug\_deps\stm32h7xx_cmsis_include\drivers\cmsis\include\cmsis_gcc.h" 1
	dsb 0xF
@ 0 "" 2
	.thumb
	.syntax unified
.L88:
.LBE389:
.LBE388:
	.loc 1 608 7
	.loc 1 608 69 is_stmt 0
	ldr	r3, .L102+4
	movs	r2, #48
	strb	r2, [r3]
	.loc 1 609 7 is_stmt 1
.LBB390:
.LBB391:
	.loc 2 946 3
	.syntax unified
@ 946 "d:\rtos\board\yd-stm32h7xxvx_classicv19\cmake-build-debug\_deps\stm32h7xx_cmsis_include\drivers\cmsis\include\cmsis_gcc.h" 1
	dsb 0xF
@ 0 "" 2
	.thumb
	.syntax unified
.LBE391:
.LBE390:
	.loc 1 612 7
	.loc 1 612 24 is_stmt 0
	ldrb	r3, [r4, #60]	@ zero_extendqisi2
	.loc 1 612 10
	cmp	r3, #1
	beq	.L101
.L90:
	.loc 1 521 1 discriminator 1
	movs	r1, #0
	b	.L93
.L95:
	.loc 1 655 5 is_stmt 1
	.loc 1 655 18 is_stmt 0
	movs	r3, #1
	strb	r3, [r4, #33]
	.loc 1 658 5 is_stmt 1
	.loc 1 658 9
	.loc 1 658 23 is_stmt 0
	movs	r0, #0
	strb	r0, [r4, #32]
	.loc 1 658 7 is_stmt 1
	.loc 1 665 3
	.loc 1 665 10 is_stmt 0
	b	.L84
.LVL86:
.L97:
	.loc 1 662 12
	movs	r0, #1
.LVL87:
.L84:
	.loc 1 666 1
	pop	{r4, r5, r6, r7, r8, pc}
.LVL88:
.L98:
	.loc 1 538 50
	movs	r0, #2
	b	.L84
.L103:
	.align	2
.L102:
	.word	-2147352576
	.word	-2147418112
	.cfi_endproc
.LFE344:
	.size	HAL_NAND_Read_Page_8b, .-HAL_NAND_Read_Page_8b
	.section	.text.HAL_NAND_Read_Page_16b,"ax",%progbits
	.align	1
	.global	HAL_NAND_Read_Page_16b
	.syntax unified
	.thumb
	.thumb_func
	.type	HAL_NAND_Read_Page_16b, %function
HAL_NAND_Read_Page_16b:
.LFB345:
	.loc 1 679 1 is_stmt 1
	.cfi_startproc
	@ args = 0, pretend = 0, frame = 0
	@ frame_needed = 0, uses_anonymous_args = 0
.LVL89:
	push	{r4, r5, r6, r7, r8, lr}
	.cfi_def_cfa_offset 24
	.cfi_offset 4, -24
	.cfi_offset 5, -20
	.cfi_offset 6, -16
	.cfi_offset 7, -12
	.cfi_offset 8, -8
	.cfi_offset 14, -4
	mov	r4, r0
	.loc 1 680 3
	.loc 1 681 3
	.loc 1 682 3
	.loc 1 683 3
.LVL90:
	.loc 1 684 3
	.loc 1 685 3
	.loc 1 686 3
	.loc 1 689 3
	.loc 1 689 12 is_stmt 0
	ldrb	r0, [r0, #33]	@ zero_extendqisi2
.LVL91:
	uxtb	r0, r0
	.loc 1 689 6
	cmp	r0, #2
	beq	.L105
	mov	r5, r2
	mov	r7, r3
	.loc 1 693 8 is_stmt 1
	.loc 1 693 17 is_stmt 0
	ldrb	r3, [r4, #33]	@ zero_extendqisi2
.LVL92:
	uxtb	r3, r3
	.loc 1 693 11
	cmp	r3, #1
	bne	.L119
	.loc 1 696 5 is_stmt 1
	.loc 1 696 9
	.loc 1 696 19 is_stmt 0
	ldrb	r3, [r4, #32]	@ zero_extendqisi2
	.loc 1 696 11
	cmp	r3, #1
	beq	.L120
	.loc 1 696 69 is_stmt 1 discriminator 2
	.loc 1 696 83 is_stmt 0 discriminator 2
	movs	r3, #1
	strb	r3, [r4, #32]
	.loc 1 696 7 is_stmt 1 discriminator 2
	.loc 1 699 5 discriminator 2
	.loc 1 699 18 is_stmt 0 discriminator 2
	movs	r3, #2
	strb	r3, [r4, #33]
	.loc 1 702 5 is_stmt 1 discriminator 2
.LVL93:
	.loc 1 705 5 discriminator 2
	.loc 1 705 30 is_stmt 0 discriminator 2
	ldrh	r6, [r1]
	.loc 1 705 51 discriminator 2
	ldrh	r3, [r1, #4]
	.loc 1 705 73 discriminator 2
	ldrh	r2, [r1, #2]
.LVL94:
	.loc 1 705 100 discriminator 2
	ldr	r1, [r4, #56]
.LVL95:
	.loc 1 705 59 discriminator 2
	mla	r3, r1, r2, r3
	.loc 1 705 132 discriminator 2
	ldr	r2, [r4, #44]
	.loc 1 705 17 discriminator 2
	mla	r6, r2, r3, r6
.LVL96:
	.loc 1 708 5 is_stmt 1 discriminator 2
	.loc 1 708 11 is_stmt 0 discriminator 2
	b	.L106
.LVL97:
.L108:
	.loc 1 728 11 is_stmt 1
	.loc 1 728 73 is_stmt 0
	ldr	r3, .L124
	movs	r2, #0
	strb	r2, [r3]
	.loc 1 729 11 is_stmt 1
.LBB392:
.LBB393:
	.loc 2 946 3
	.syntax unified
@ 946 "d:\rtos\board\yd-stm32h7xxvx_classicv19\cmake-build-debug\_deps\stm32h7xx_cmsis_include\drivers\cmsis\include\cmsis_gcc.h" 1
	dsb 0xF
@ 0 "" 2
	.thumb
	.syntax unified
.LBE393:
.LBE392:
	.loc 1 730 11
	.loc 1 730 75 is_stmt 0
	uxtb	r2, r6
	.loc 1 730 73
	strb	r2, [r3]
	.loc 1 731 11 is_stmt 1
.LBB394:
.LBB395:
	.loc 2 946 3
	.syntax unified
@ 946 "d:\rtos\board\yd-stm32h7xxvx_classicv19\cmake-build-debug\_deps\stm32h7xx_cmsis_include\drivers\cmsis\include\cmsis_gcc.h" 1
	dsb 0xF
@ 0 "" 2
	.thumb
	.syntax unified
.LBE395:
.LBE394:
	.loc 1 732 11
	.loc 1 732 75 is_stmt 0
	ubfx	r2, r6, #8, #8
	.loc 1 732 73
	strb	r2, [r3]
	.loc 1 733 11 is_stmt 1
.LBB396:
.LBB397:
	.loc 2 946 3
	.syntax unified
@ 946 "d:\rtos\board\yd-stm32h7xxvx_classicv19\cmake-build-debug\_deps\stm32h7xx_cmsis_include\drivers\cmsis\include\cmsis_gcc.h" 1
	dsb 0xF
@ 0 "" 2
	.thumb
	.syntax unified
.LBE397:
.LBE396:
	.loc 1 734 11
	.loc 1 734 75 is_stmt 0
	ubfx	r2, r6, #16, #8
	.loc 1 734 73
	strb	r2, [r3]
	.loc 1 735 11 is_stmt 1
.LBB398:
.LBB399:
	.loc 2 946 3
	.syntax unified
@ 946 "d:\rtos\board\yd-stm32h7xxvx_classicv19\cmake-build-debug\_deps\stm32h7xx_cmsis_include\drivers\cmsis\include\cmsis_gcc.h" 1
	dsb 0xF
@ 0 "" 2
	.loc 2 947 1 is_stmt 0
	.thumb
	.syntax unified
	b	.L109
.L107:
.LBE399:
.LBE398:
	.loc 1 740 9 is_stmt 1
	.loc 1 740 28 is_stmt 0
	ldr	r3, [r4, #44]
	.loc 1 740 56
	ldr	r2, [r4, #48]
	.loc 1 740 40
	mul	r3, r2, r3
	.loc 1 740 12
	cmp	r3, #65536
	bcs	.L110
	.loc 1 742 11 is_stmt 1
	.loc 1 742 73 is_stmt 0
	ldr	r3, .L124
	movs	r2, #0
	strb	r2, [r3]
	.loc 1 743 11 is_stmt 1
.LBB400:
.LBB401:
	.loc 2 946 3
	.syntax unified
@ 946 "d:\rtos\board\yd-stm32h7xxvx_classicv19\cmake-build-debug\_deps\stm32h7xx_cmsis_include\drivers\cmsis\include\cmsis_gcc.h" 1
	dsb 0xF
@ 0 "" 2
	.thumb
	.syntax unified
.LBE401:
.LBE400:
	.loc 1 744 11
	.loc 1 744 73 is_stmt 0
	strb	r2, [r3]
	.loc 1 745 11 is_stmt 1
.LBB402:
.LBB403:
	.loc 2 946 3
	.syntax unified
@ 946 "d:\rtos\board\yd-stm32h7xxvx_classicv19\cmake-build-debug\_deps\stm32h7xx_cmsis_include\drivers\cmsis\include\cmsis_gcc.h" 1
	dsb 0xF
@ 0 "" 2
	.thumb
	.syntax unified
.LBE403:
.LBE402:
	.loc 1 746 11
	.loc 1 746 75 is_stmt 0
	uxtb	r2, r6
	.loc 1 746 73
	strb	r2, [r3]
	.loc 1 747 11 is_stmt 1
.LBB404:
.LBB405:
	.loc 2 946 3
	.syntax unified
@ 946 "d:\rtos\board\yd-stm32h7xxvx_classicv19\cmake-build-debug\_deps\stm32h7xx_cmsis_include\drivers\cmsis\include\cmsis_gcc.h" 1
	dsb 0xF
@ 0 "" 2
	.thumb
	.syntax unified
.LBE405:
.LBE404:
	.loc 1 748 11
	.loc 1 748 75 is_stmt 0
	ubfx	r2, r6, #8, #8
	.loc 1 748 73
	strb	r2, [r3]
	.loc 1 749 11 is_stmt 1
.LBB406:
.LBB407:
	.loc 2 946 3
	.syntax unified
@ 946 "d:\rtos\board\yd-stm32h7xxvx_classicv19\cmake-build-debug\_deps\stm32h7xx_cmsis_include\drivers\cmsis\include\cmsis_gcc.h" 1
	dsb 0xF
@ 0 "" 2
	.loc 2 947 1 is_stmt 0
	.thumb
	.syntax unified
	b	.L109
.L110:
.LBE407:
.LBE406:
	.loc 1 753 11 is_stmt 1
	.loc 1 753 73 is_stmt 0
	ldr	r3, .L124
	movs	r2, #0
	strb	r2, [r3]
	.loc 1 754 11 is_stmt 1
.LBB408:
.LBB409:
	.loc 2 946 3
	.syntax unified
@ 946 "d:\rtos\board\yd-stm32h7xxvx_classicv19\cmake-build-debug\_deps\stm32h7xx_cmsis_include\drivers\cmsis\include\cmsis_gcc.h" 1
	dsb 0xF
@ 0 "" 2
	.thumb
	.syntax unified
.LBE409:
.LBE408:
	.loc 1 755 11
	.loc 1 755 73 is_stmt 0
	strb	r2, [r3]
	.loc 1 756 11 is_stmt 1
.LBB410:
.LBB411:
	.loc 2 946 3
	.syntax unified
@ 946 "d:\rtos\board\yd-stm32h7xxvx_classicv19\cmake-build-debug\_deps\stm32h7xx_cmsis_include\drivers\cmsis\include\cmsis_gcc.h" 1
	dsb 0xF
@ 0 "" 2
	.thumb
	.syntax unified
.LBE411:
.LBE410:
	.loc 1 757 11
	.loc 1 757 75 is_stmt 0
	uxtb	r2, r6
	.loc 1 757 73
	strb	r2, [r3]
	.loc 1 758 11 is_stmt 1
.LBB412:
.LBB413:
	.loc 2 946 3
	.syntax unified
@ 946 "d:\rtos\board\yd-stm32h7xxvx_classicv19\cmake-build-debug\_deps\stm32h7xx_cmsis_include\drivers\cmsis\include\cmsis_gcc.h" 1
	dsb 0xF
@ 0 "" 2
	.thumb
	.syntax unified
.LBE413:
.LBE412:
	.loc 1 759 11
	.loc 1 759 75 is_stmt 0
	ubfx	r2, r6, #8, #8
	.loc 1 759 73
	strb	r2, [r3]
	.loc 1 760 11 is_stmt 1
.LBB414:
.LBB415:
	.loc 2 946 3
	.syntax unified
@ 946 "d:\rtos\board\yd-stm32h7xxvx_classicv19\cmake-build-debug\_deps\stm32h7xx_cmsis_include\drivers\cmsis\include\cmsis_gcc.h" 1
	dsb 0xF
@ 0 "" 2
	.thumb
	.syntax unified
.LBE415:
.LBE414:
	.loc 1 761 11
	.loc 1 761 75 is_stmt 0
	ubfx	r2, r6, #16, #8
	.loc 1 761 73
	strb	r2, [r3]
	.loc 1 762 11 is_stmt 1
.LBB416:
.LBB417:
	.loc 2 946 3
	.syntax unified
@ 946 "d:\rtos\board\yd-stm32h7xxvx_classicv19\cmake-build-debug\_deps\stm32h7xx_cmsis_include\drivers\cmsis\include\cmsis_gcc.h" 1
	dsb 0xF
@ 0 "" 2
	.loc 2 947 1 is_stmt 0
	.thumb
	.syntax unified
	b	.L109
.L123:
.LBE417:
.LBE416:
	.loc 1 772 9 is_stmt 1
	.loc 1 772 21 is_stmt 0
	bl	HAL_GetTick
.LVL98:
	mov	r8, r0
.LVL99:
	.loc 1 775 9 is_stmt 1
.L112:
	.loc 1 775 44
	.loc 1 775 16 is_stmt 0
	mov	r0, r4
	bl	HAL_NAND_Read_Status
.LVL100:
	.loc 1 775 44
	cmp	r0, #64
	beq	.L122
	.loc 1 777 11 is_stmt 1
	.loc 1 777 16 is_stmt 0
	bl	HAL_GetTick
.LVL101:
	.loc 1 777 30
	sub	r0, r0, r8
	.loc 1 777 14
	cmp	r0, #16777216
	bls	.L112
	.loc 1 780 13 is_stmt 1
	.loc 1 780 26 is_stmt 0
	movs	r0, #3
	strb	r0, [r4, #33]
	.loc 1 783 13 is_stmt 1
	.loc 1 783 17
	.loc 1 783 31 is_stmt 0
	movs	r3, #0
	strb	r3, [r4, #32]
	.loc 1 783 15 is_stmt 1
	.loc 1 785 13
	.loc 1 785 20 is_stmt 0
	b	.L105
.L122:
	.loc 1 790 9 is_stmt 1
	.loc 1 790 71 is_stmt 0
	ldr	r3, .L124+4
	movs	r2, #0
	strb	r2, [r3]
	.loc 1 791 9 is_stmt 1
.LBB418:
.LBB419:
	.loc 2 946 3
	.syntax unified
@ 946 "d:\rtos\board\yd-stm32h7xxvx_classicv19\cmake-build-debug\_deps\stm32h7xx_cmsis_include\drivers\cmsis\include\cmsis_gcc.h" 1
	dsb 0xF
@ 0 "" 2
	.loc 2 947 1 is_stmt 0
	.thumb
	.syntax unified
	b	.L111
.LVL102:
.L116:
.LBE419:
.LBE418:
	.loc 1 808 9 is_stmt 1 discriminator 3
	.loc 1 808 17 is_stmt 0 discriminator 3
	mov	r2, #-2147483648
	ldrh	r2, [r2]
	.loc 1 808 15 discriminator 3
	strh	r2, [r5], #2	@ movhi
.LVL103:
	.loc 1 809 9 is_stmt 1 discriminator 3
	.loc 1 806 61 discriminator 3
	adds	r1, r1, #1
.LVL104:
.L115:
	.loc 1 806 30 discriminator 1
	.loc 1 806 45 is_stmt 0 discriminator 1
	ldr	r0, [r4, #36]
	.loc 1 806 30 discriminator 1
	cmp	r0, r1
	bhi	.L116
	.loc 1 813 7 is_stmt 1
	.loc 1 816 7
	.loc 1 816 14 is_stmt 0
	subs	r7, r7, #1
.LVL105:
	.loc 1 819 7 is_stmt 1
	.loc 1 819 19 is_stmt 0
	adds	r6, r6, #1
.LVL106:
.L106:
	.loc 1 708 28 is_stmt 1
	cmp	r7, #0
	beq	.L117
	.loc 1 708 61 is_stmt 0 discriminator 1
	ldr	r3, [r4, #44]
	.loc 1 708 89 discriminator 1
	ldr	r2, [r4, #48]
	.loc 1 708 73 discriminator 1
	mul	r3, r2, r3
	.loc 1 708 28 discriminator 1
	cmp	r3, r6
	bls	.L117
	.loc 1 711 7 is_stmt 1
	.loc 1 711 69 is_stmt 0
	ldr	r3, .L124+4
	movs	r2, #0
	strb	r2, [r3]
	.loc 1 712 7 is_stmt 1
.LBB420:
.LBB421:
	.loc 2 946 3
	.syntax unified
@ 946 "d:\rtos\board\yd-stm32h7xxvx_classicv19\cmake-build-debug\_deps\stm32h7xx_cmsis_include\drivers\cmsis\include\cmsis_gcc.h" 1
	dsb 0xF
@ 0 "" 2
	.thumb
	.syntax unified
.LBE421:
.LBE420:
	.loc 1 715 7
	.loc 1 715 25 is_stmt 0
	ldr	r3, [r4, #36]
	.loc 1 715 10
	cmp	r3, #512
	bhi	.L107
	.loc 1 717 9 is_stmt 1
	.loc 1 717 28 is_stmt 0
	ldr	r3, [r4, #44]
	.loc 1 717 56
	ldr	r2, [r4, #48]
	.loc 1 717 40
	mul	r3, r2, r3
	.loc 1 717 12
	cmp	r3, #65536
	bcs	.L108
	.loc 1 719 11 is_stmt 1
	.loc 1 719 73 is_stmt 0
	ldr	r3, .L124
	movs	r2, #0
	strb	r2, [r3]
	.loc 1 720 11 is_stmt 1
.LBB422:
.LBB423:
	.loc 2 946 3
	.syntax unified
@ 946 "d:\rtos\board\yd-stm32h7xxvx_classicv19\cmake-build-debug\_deps\stm32h7xx_cmsis_include\drivers\cmsis\include\cmsis_gcc.h" 1
	dsb 0xF
@ 0 "" 2
	.thumb
	.syntax unified
.LBE423:
.LBE422:
	.loc 1 721 11
	.loc 1 721 75 is_stmt 0
	uxtb	r2, r6
	.loc 1 721 73
	strb	r2, [r3]
	.loc 1 722 11 is_stmt 1
.LBB424:
.LBB425:
	.loc 2 946 3
	.syntax unified
@ 946 "d:\rtos\board\yd-stm32h7xxvx_classicv19\cmake-build-debug\_deps\stm32h7xx_cmsis_include\drivers\cmsis\include\cmsis_gcc.h" 1
	dsb 0xF
@ 0 "" 2
	.thumb
	.syntax unified
.LBE425:
.LBE424:
	.loc 1 723 11
	.loc 1 723 75 is_stmt 0
	ubfx	r2, r6, #8, #8
	.loc 1 723 73
	strb	r2, [r3]
	.loc 1 724 11 is_stmt 1
.LBB426:
.LBB427:
	.loc 2 946 3
	.syntax unified
@ 946 "d:\rtos\board\yd-stm32h7xxvx_classicv19\cmake-build-debug\_deps\stm32h7xx_cmsis_include\drivers\cmsis\include\cmsis_gcc.h" 1
	dsb 0xF
@ 0 "" 2
	.thumb
	.syntax unified
.L109:
.LBE427:
.LBE426:
	.loc 1 766 7
	.loc 1 766 69 is_stmt 0
	ldr	r3, .L124+4
	movs	r2, #48
	strb	r2, [r3]
	.loc 1 767 7 is_stmt 1
.LBB428:
.LBB429:
	.loc 2 946 3
	.syntax unified
@ 946 "d:\rtos\board\yd-stm32h7xxvx_classicv19\cmake-build-debug\_deps\stm32h7xx_cmsis_include\drivers\cmsis\include\cmsis_gcc.h" 1
	dsb 0xF
@ 0 "" 2
	.thumb
	.syntax unified
.LBE429:
.LBE428:
	.loc 1 769 7
	.loc 1 769 24 is_stmt 0
	ldrb	r3, [r4, #60]	@ zero_extendqisi2
	.loc 1 769 10
	cmp	r3, #1
	beq	.L123
.L111:
	.loc 1 795 7 is_stmt 1
	.loc 1 795 22 is_stmt 0
	ldr	r3, [r4, #12]
	.loc 1 795 10
	cbnz	r3, .L114
	.loc 1 797 9 is_stmt 1
	.loc 1 797 47 is_stmt 0
	ldr	r3, [r4, #36]
	.loc 1 797 57
	lsrs	r3, r3, #1
	.loc 1 797 32
	str	r3, [r4, #36]
.L114:
	.loc 1 679 1 discriminator 1
	movs	r1, #0
	b	.L115
.L117:
	.loc 1 823 5 is_stmt 1
	.loc 1 823 18 is_stmt 0
	movs	r3, #1
	strb	r3, [r4, #33]
	.loc 1 826 5 is_stmt 1
	.loc 1 826 9
	.loc 1 826 23 is_stmt 0
	movs	r0, #0
	strb	r0, [r4, #32]
	.loc 1 826 7 is_stmt 1
	.loc 1 833 3
	.loc 1 833 10 is_stmt 0
	b	.L105
.LVL107:
.L119:
	.loc 1 830 12
	movs	r0, #1
.LVL108:
.L105:
	.loc 1 834 1
	pop	{r4, r5, r6, r7, r8, pc}
.LVL109:
.L120:
	.loc 1 696 50
	movs	r0, #2
	b	.L105
.L125:
	.align	2
.L124:
	.word	-2147352576
	.word	-2147418112
	.cfi_endproc
.LFE345:
	.size	HAL_NAND_Read_Page_16b, .-HAL_NAND_Read_Page_16b
	.section	.text.HAL_NAND_Write_Page_8b,"ax",%progbits
	.align	1
	.global	HAL_NAND_Write_Page_8b
	.syntax unified
	.thumb
	.thumb_func
	.type	HAL_NAND_Write_Page_8b, %function
HAL_NAND_Write_Page_8b:
.LFB346:
	.loc 1 847 1 is_stmt 1
	.cfi_startproc
	@ args = 0, pretend = 0, frame = 0
	@ frame_needed = 0, uses_anonymous_args = 0
.LVL110:
	push	{r4, r5, r6, r7, r8, lr}
	.cfi_def_cfa_offset 24
	.cfi_offset 4, -24
	.cfi_offset 5, -20
	.cfi_offset 6, -16
	.cfi_offset 7, -12
	.cfi_offset 8, -8
	.cfi_offset 14, -4
	mov	r4, r0
	.loc 1 848 3
	.loc 1 849 3
	.loc 1 850 3
	.loc 1 851 3
.LVL111:
	.loc 1 852 3
	.loc 1 853 3
	.loc 1 854 3
	.loc 1 857 3
	.loc 1 857 12 is_stmt 0
	ldrb	r0, [r0, #33]	@ zero_extendqisi2
.LVL112:
	uxtb	r0, r0
	.loc 1 857 6
	cmp	r0, #2
	beq	.L127
	mov	r5, r2
	mov	r6, r3
	.loc 1 861 8 is_stmt 1
	.loc 1 861 17 is_stmt 0
	ldrb	r3, [r4, #33]	@ zero_extendqisi2
.LVL113:
	uxtb	r3, r3
	.loc 1 861 11
	cmp	r3, #1
	bne	.L139
	.loc 1 864 5 is_stmt 1
	.loc 1 864 9
	.loc 1 864 19 is_stmt 0
	ldrb	r3, [r4, #32]	@ zero_extendqisi2
	.loc 1 864 11
	cmp	r3, #1
	beq	.L140
	.loc 1 864 69 is_stmt 1 discriminator 2
	.loc 1 864 83 is_stmt 0 discriminator 2
	movs	r3, #1
	strb	r3, [r4, #32]
	.loc 1 864 7 is_stmt 1 discriminator 2
	.loc 1 867 5 discriminator 2
	.loc 1 867 18 is_stmt 0 discriminator 2
	movs	r3, #2
	strb	r3, [r4, #33]
	.loc 1 870 5 is_stmt 1 discriminator 2
.LVL114:
	.loc 1 873 5 discriminator 2
	.loc 1 873 30 is_stmt 0 discriminator 2
	ldrh	r7, [r1]
	.loc 1 873 51 discriminator 2
	ldrh	r3, [r1, #4]
	.loc 1 873 73 discriminator 2
	ldrh	r2, [r1, #2]
.LVL115:
	.loc 1 873 100 discriminator 2
	ldr	r1, [r4, #56]
.LVL116:
	.loc 1 873 59 discriminator 2
	mla	r3, r1, r2, r3
	.loc 1 873 132 discriminator 2
	ldr	r2, [r4, #44]
	.loc 1 873 17 discriminator 2
	mla	r7, r2, r3, r7
.LVL117:
	.loc 1 876 5 is_stmt 1 discriminator 2
.L128:
	.loc 1 876 28
	cmp	r6, #0
	beq	.L137
	.loc 1 876 61 is_stmt 0 discriminator 1
	ldr	r3, [r4, #44]
	.loc 1 876 89 discriminator 1
	ldr	r2, [r4, #48]
	.loc 1 876 73 discriminator 1
	mul	r3, r2, r3
	.loc 1 876 28 discriminator 1
	cmp	r3, r7
	bls	.L137
	.loc 1 879 7 is_stmt 1
	.loc 1 879 69 is_stmt 0
	ldr	r3, .L144
	movs	r2, #0
	strb	r2, [r3]
	.loc 1 880 7 is_stmt 1
.LBB430:
.LBB431:
	.loc 2 946 3
	.syntax unified
@ 946 "d:\rtos\board\yd-stm32h7xxvx_classicv19\cmake-build-debug\_deps\stm32h7xx_cmsis_include\drivers\cmsis\include\cmsis_gcc.h" 1
	dsb 0xF
@ 0 "" 2
	.thumb
	.syntax unified
.LBE431:
.LBE430:
	.loc 1 881 7
	.loc 1 881 69 is_stmt 0
	movs	r2, #128
	strb	r2, [r3]
	.loc 1 882 7 is_stmt 1
.LBB432:
.LBB433:
	.loc 2 946 3
	.syntax unified
@ 946 "d:\rtos\board\yd-stm32h7xxvx_classicv19\cmake-build-debug\_deps\stm32h7xx_cmsis_include\drivers\cmsis\include\cmsis_gcc.h" 1
	dsb 0xF
@ 0 "" 2
	.thumb
	.syntax unified
.LBE433:
.LBE432:
	.loc 1 885 7
	.loc 1 885 25 is_stmt 0
	ldr	r3, [r4, #36]
	.loc 1 885 10
	cmp	r3, #512
	bhi	.L129
	.loc 1 887 9 is_stmt 1
	.loc 1 887 28 is_stmt 0
	ldr	r3, [r4, #44]
	.loc 1 887 56
	ldr	r2, [r4, #48]
	.loc 1 887 40
	mul	r3, r2, r3
	.loc 1 887 12
	cmp	r3, #65536
	bcs	.L130
	.loc 1 889 11 is_stmt 1
	.loc 1 889 73 is_stmt 0
	ldr	r3, .L144+4
	movs	r2, #0
	strb	r2, [r3]
	.loc 1 890 11 is_stmt 1
.LBB434:
.LBB435:
	.loc 2 946 3
	.syntax unified
@ 946 "d:\rtos\board\yd-stm32h7xxvx_classicv19\cmake-build-debug\_deps\stm32h7xx_cmsis_include\drivers\cmsis\include\cmsis_gcc.h" 1
	dsb 0xF
@ 0 "" 2
	.thumb
	.syntax unified
.LBE435:
.LBE434:
	.loc 1 891 11
	.loc 1 891 75 is_stmt 0
	uxtb	r2, r7
	.loc 1 891 73
	strb	r2, [r3]
	.loc 1 892 11 is_stmt 1
.LBB436:
.LBB437:
	.loc 2 946 3
	.syntax unified
@ 946 "d:\rtos\board\yd-stm32h7xxvx_classicv19\cmake-build-debug\_deps\stm32h7xx_cmsis_include\drivers\cmsis\include\cmsis_gcc.h" 1
	dsb 0xF
@ 0 "" 2
	.thumb
	.syntax unified
.LBE437:
.LBE436:
	.loc 1 893 11
	.loc 1 893 75 is_stmt 0
	ubfx	r2, r7, #8, #8
	.loc 1 893 73
	strb	r2, [r3]
	.loc 1 894 11 is_stmt 1
.LBB438:
.LBB439:
	.loc 2 946 3
	.syntax unified
@ 946 "d:\rtos\board\yd-stm32h7xxvx_classicv19\cmake-build-debug\_deps\stm32h7xx_cmsis_include\drivers\cmsis\include\cmsis_gcc.h" 1
	dsb 0xF
@ 0 "" 2
	.thumb
	.syntax unified
.L131:
.LBE439:
.LBE438:
	.loc 1 847 1 is_stmt 0 discriminator 1
	movs	r1, #0
.L133:
.LVL118:
	.loc 1 937 30 is_stmt 1 discriminator 1
	.loc 1 937 45 is_stmt 0 discriminator 1
	ldr	r3, [r4, #36]
	.loc 1 937 30 discriminator 1
	cmp	r3, r1
	bls	.L142
	.loc 1 939 9 is_stmt 1 discriminator 3
	.loc 1 939 46 is_stmt 0 discriminator 3
	ldrb	r2, [r5], #1	@ zero_extendqisi2
.LVL119:
	.loc 1 939 44 discriminator 3
	mov	r3, #-2147483648
	strb	r2, [r3]
	.loc 1 940 9 is_stmt 1 discriminator 3
.LVL120:
	.loc 1 941 9 discriminator 3
.LBB440:
.LBB441:
	.loc 2 946 3 discriminator 3
	.syntax unified
@ 946 "d:\rtos\board\yd-stm32h7xxvx_classicv19\cmake-build-debug\_deps\stm32h7xx_cmsis_include\drivers\cmsis\include\cmsis_gcc.h" 1
	dsb 0xF
@ 0 "" 2
	.thumb
	.syntax unified
.LBE441:
.LBE440:
	.loc 1 937 61 discriminator 3
	adds	r1, r1, #1
.LVL121:
	b	.L133
.LVL122:
.L130:
	.loc 1 898 11
	.loc 1 898 73 is_stmt 0
	ldr	r3, .L144+4
	movs	r2, #0
	strb	r2, [r3]
	.loc 1 899 11 is_stmt 1
.LBB442:
.LBB443:
	.loc 2 946 3
	.syntax unified
@ 946 "d:\rtos\board\yd-stm32h7xxvx_classicv19\cmake-build-debug\_deps\stm32h7xx_cmsis_include\drivers\cmsis\include\cmsis_gcc.h" 1
	dsb 0xF
@ 0 "" 2
	.thumb
	.syntax unified
.LBE443:
.LBE442:
	.loc 1 900 11
	.loc 1 900 75 is_stmt 0
	uxtb	r2, r7
	.loc 1 900 73
	strb	r2, [r3]
	.loc 1 901 11 is_stmt 1
.LBB444:
.LBB445:
	.loc 2 946 3
	.syntax unified
@ 946 "d:\rtos\board\yd-stm32h7xxvx_classicv19\cmake-build-debug\_deps\stm32h7xx_cmsis_include\drivers\cmsis\include\cmsis_gcc.h" 1
	dsb 0xF
@ 0 "" 2
	.thumb
	.syntax unified
.LBE445:
.LBE444:
	.loc 1 902 11
	.loc 1 902 75 is_stmt 0
	ubfx	r2, r7, #8, #8
	.loc 1 902 73
	strb	r2, [r3]
	.loc 1 903 11 is_stmt 1
.LBB446:
.LBB447:
	.loc 2 946 3
	.syntax unified
@ 946 "d:\rtos\board\yd-stm32h7xxvx_classicv19\cmake-build-debug\_deps\stm32h7xx_cmsis_include\drivers\cmsis\include\cmsis_gcc.h" 1
	dsb 0xF
@ 0 "" 2
	.thumb
	.syntax unified
.LBE447:
.LBE446:
	.loc 1 904 11
	.loc 1 904 75 is_stmt 0
	ubfx	r2, r7, #16, #8
	.loc 1 904 73
	strb	r2, [r3]
	.loc 1 905 11 is_stmt 1
.LBB448:
.LBB449:
	.loc 2 946 3
	.syntax unified
@ 946 "d:\rtos\board\yd-stm32h7xxvx_classicv19\cmake-build-debug\_deps\stm32h7xx_cmsis_include\drivers\cmsis\include\cmsis_gcc.h" 1
	dsb 0xF
@ 0 "" 2
	.loc 2 947 1 is_stmt 0
	.thumb
	.syntax unified
	b	.L131
.L129:
.LBE449:
.LBE448:
	.loc 1 910 9 is_stmt 1
	.loc 1 910 28 is_stmt 0
	ldr	r3, [r4, #44]
	.loc 1 910 56
	ldr	r2, [r4, #48]
	.loc 1 910 40
	mul	r3, r2, r3
	.loc 1 910 12
	cmp	r3, #65536
	bcs	.L132
	.loc 1 912 11 is_stmt 1
	.loc 1 912 73 is_stmt 0
	ldr	r3, .L144+4
	movs	r2, #0
	strb	r2, [r3]
	.loc 1 913 11 is_stmt 1
.LBB450:
.LBB451:
	.loc 2 946 3
	.syntax unified
@ 946 "d:\rtos\board\yd-stm32h7xxvx_classicv19\cmake-build-debug\_deps\stm32h7xx_cmsis_include\drivers\cmsis\include\cmsis_gcc.h" 1
	dsb 0xF
@ 0 "" 2
	.thumb
	.syntax unified
.LBE451:
.LBE450:
	.loc 1 914 11
	.loc 1 914 73 is_stmt 0
	strb	r2, [r3]
	.loc 1 915 11 is_stmt 1
.LBB452:
.LBB453:
	.loc 2 946 3
	.syntax unified
@ 946 "d:\rtos\board\yd-stm32h7xxvx_classicv19\cmake-build-debug\_deps\stm32h7xx_cmsis_include\drivers\cmsis\include\cmsis_gcc.h" 1
	dsb 0xF
@ 0 "" 2
	.thumb
	.syntax unified
.LBE453:
.LBE452:
	.loc 1 916 11
	.loc 1 916 75 is_stmt 0
	uxtb	r2, r7
	.loc 1 916 73
	strb	r2, [r3]
	.loc 1 917 11 is_stmt 1
.LBB454:
.LBB455:
	.loc 2 946 3
	.syntax unified
@ 946 "d:\rtos\board\yd-stm32h7xxvx_classicv19\cmake-build-debug\_deps\stm32h7xx_cmsis_include\drivers\cmsis\include\cmsis_gcc.h" 1
	dsb 0xF
@ 0 "" 2
	.thumb
	.syntax unified
.LBE455:
.LBE454:
	.loc 1 918 11
	.loc 1 918 75 is_stmt 0
	ubfx	r2, r7, #8, #8
	.loc 1 918 73
	strb	r2, [r3]
	.loc 1 919 11 is_stmt 1
.LBB456:
.LBB457:
	.loc 2 946 3
	.syntax unified
@ 946 "d:\rtos\board\yd-stm32h7xxvx_classicv19\cmake-build-debug\_deps\stm32h7xx_cmsis_include\drivers\cmsis\include\cmsis_gcc.h" 1
	dsb 0xF
@ 0 "" 2
	.loc 2 947 1 is_stmt 0
	.thumb
	.syntax unified
	b	.L131
.L132:
.LBE457:
.LBE456:
	.loc 1 923 11 is_stmt 1
	.loc 1 923 73 is_stmt 0
	ldr	r3, .L144+4
	movs	r2, #0
	strb	r2, [r3]
	.loc 1 924 11 is_stmt 1
.LBB458:
.LBB459:
	.loc 2 946 3
	.syntax unified
@ 946 "d:\rtos\board\yd-stm32h7xxvx_classicv19\cmake-build-debug\_deps\stm32h7xx_cmsis_include\drivers\cmsis\include\cmsis_gcc.h" 1
	dsb 0xF
@ 0 "" 2
	.thumb
	.syntax unified
.LBE459:
.LBE458:
	.loc 1 925 11
	.loc 1 925 73 is_stmt 0
	strb	r2, [r3]
	.loc 1 926 11 is_stmt 1
.LBB460:
.LBB461:
	.loc 2 946 3
	.syntax unified
@ 946 "d:\rtos\board\yd-stm32h7xxvx_classicv19\cmake-build-debug\_deps\stm32h7xx_cmsis_include\drivers\cmsis\include\cmsis_gcc.h" 1
	dsb 0xF
@ 0 "" 2
	.thumb
	.syntax unified
.LBE461:
.LBE460:
	.loc 1 927 11
	.loc 1 927 75 is_stmt 0
	uxtb	r2, r7
	.loc 1 927 73
	strb	r2, [r3]
	.loc 1 928 11 is_stmt 1
.LBB462:
.LBB463:
	.loc 2 946 3
	.syntax unified
@ 946 "d:\rtos\board\yd-stm32h7xxvx_classicv19\cmake-build-debug\_deps\stm32h7xx_cmsis_include\drivers\cmsis\include\cmsis_gcc.h" 1
	dsb 0xF
@ 0 "" 2
	.thumb
	.syntax unified
.LBE463:
.LBE462:
	.loc 1 929 11
	.loc 1 929 75 is_stmt 0
	ubfx	r2, r7, #8, #8
	.loc 1 929 73
	strb	r2, [r3]
	.loc 1 930 11 is_stmt 1
.LBB464:
.LBB465:
	.loc 2 946 3
	.syntax unified
@ 946 "d:\rtos\board\yd-stm32h7xxvx_classicv19\cmake-build-debug\_deps\stm32h7xx_cmsis_include\drivers\cmsis\include\cmsis_gcc.h" 1
	dsb 0xF
@ 0 "" 2
	.thumb
	.syntax unified
.LBE465:
.LBE464:
	.loc 1 931 11
	.loc 1 931 75 is_stmt 0
	ubfx	r2, r7, #16, #8
	.loc 1 931 73
	strb	r2, [r3]
	.loc 1 932 11 is_stmt 1
.LBB466:
.LBB467:
	.loc 2 946 3
	.syntax unified
@ 946 "d:\rtos\board\yd-stm32h7xxvx_classicv19\cmake-build-debug\_deps\stm32h7xx_cmsis_include\drivers\cmsis\include\cmsis_gcc.h" 1
	dsb 0xF
@ 0 "" 2
	.loc 2 947 1 is_stmt 0
	.thumb
	.syntax unified
	b	.L131
.LVL123:
.L142:
.LBE467:
.LBE466:
	.loc 1 944 7 is_stmt 1
	.loc 1 944 69 is_stmt 0
	ldr	r3, .L144
	movs	r2, #16
	strb	r2, [r3]
	.loc 1 945 7 is_stmt 1
.LBB468:
.LBB469:
	.loc 2 946 3
	.syntax unified
@ 946 "d:\rtos\board\yd-stm32h7xxvx_classicv19\cmake-build-debug\_deps\stm32h7xx_cmsis_include\drivers\cmsis\include\cmsis_gcc.h" 1
	dsb 0xF
@ 0 "" 2
	.thumb
	.syntax unified
.LBE469:
.LBE468:
	.loc 1 948 7
	.loc 1 948 19 is_stmt 0
	bl	HAL_GetTick
.LVL124:
	mov	r8, r0
.LVL125:
	.loc 1 951 7 is_stmt 1
.L135:
	.loc 1 951 42
	.loc 1 951 14 is_stmt 0
	mov	r0, r4
	bl	HAL_NAND_Read_Status
.LVL126:
	.loc 1 951 42
	cmp	r0, #64
	beq	.L143
	.loc 1 953 9 is_stmt 1
	.loc 1 953 14 is_stmt 0
	bl	HAL_GetTick
.LVL127:
	.loc 1 953 28
	sub	r1, r0, r8
	.loc 1 953 12
	cmp	r1, #16777216
	bls	.L135
	.loc 1 956 11 is_stmt 1
	.loc 1 956 24 is_stmt 0
	movs	r0, #3
	strb	r0, [r4, #33]
	.loc 1 959 11 is_stmt 1
	.loc 1 959 15
	.loc 1 959 29 is_stmt 0
	movs	r3, #0
	strb	r3, [r4, #32]
	.loc 1 959 13 is_stmt 1
	.loc 1 961 11
	.loc 1 961 18 is_stmt 0
	b	.L127
.L143:
	.loc 1 966 7 is_stmt 1
	.loc 1 969 7
	.loc 1 969 14 is_stmt 0
	subs	r6, r6, #1
.LVL128:
	.loc 1 972 7 is_stmt 1
	.loc 1 972 19 is_stmt 0
	adds	r7, r7, #1
.LVL129:
	b	.L128
.LVL130:
.L137:
	.loc 1 976 5 is_stmt 1
	.loc 1 976 18 is_stmt 0
	movs	r3, #1
	strb	r3, [r4, #33]
	.loc 1 979 5 is_stmt 1
	.loc 1 979 9
	.loc 1 979 23 is_stmt 0
	movs	r0, #0
	strb	r0, [r4, #32]
	.loc 1 979 7 is_stmt 1
	.loc 1 986 3
	.loc 1 986 10 is_stmt 0
	b	.L127
.LVL131:
.L139:
	.loc 1 983 12
	movs	r0, #1
.LVL132:
.L127:
	.loc 1 987 1
	pop	{r4, r5, r6, r7, r8, pc}
.LVL133:
.L140:
	.loc 1 864 50
	movs	r0, #2
	b	.L127
.L145:
	.align	2
.L144:
	.word	-2147418112
	.word	-2147352576
	.cfi_endproc
.LFE346:
	.size	HAL_NAND_Write_Page_8b, .-HAL_NAND_Write_Page_8b
	.section	.text.HAL_NAND_Write_Page_16b,"ax",%progbits
	.align	1
	.global	HAL_NAND_Write_Page_16b
	.syntax unified
	.thumb
	.thumb_func
	.type	HAL_NAND_Write_Page_16b, %function
HAL_NAND_Write_Page_16b:
.LFB347:
	.loc 1 1000 1 is_stmt 1
	.cfi_startproc
	@ args = 0, pretend = 0, frame = 0
	@ frame_needed = 0, uses_anonymous_args = 0
.LVL134:
	push	{r4, r5, r6, r7, r8, lr}
	.cfi_def_cfa_offset 24
	.cfi_offset 4, -24
	.cfi_offset 5, -20
	.cfi_offset 6, -16
	.cfi_offset 7, -12
	.cfi_offset 8, -8
	.cfi_offset 14, -4
	mov	r4, r0
	.loc 1 1001 3
	.loc 1 1002 3
	.loc 1 1003 3
	.loc 1 1004 3
.LVL135:
	.loc 1 1005 3
	.loc 1 1006 3
	.loc 1 1007 3
	.loc 1 1010 3
	.loc 1 1010 12 is_stmt 0
	ldrb	r0, [r0, #33]	@ zero_extendqisi2
.LVL136:
	uxtb	r0, r0
	.loc 1 1010 6
	cmp	r0, #2
	beq	.L147
	mov	r5, r2
	mov	r6, r3
	.loc 1 1014 8 is_stmt 1
	.loc 1 1014 17 is_stmt 0
	ldrb	r3, [r4, #33]	@ zero_extendqisi2
.LVL137:
	uxtb	r3, r3
	.loc 1 1014 11
	cmp	r3, #1
	bne	.L160
	.loc 1 1017 5 is_stmt 1
	.loc 1 1017 9
	.loc 1 1017 19 is_stmt 0
	ldrb	r3, [r4, #32]	@ zero_extendqisi2
	.loc 1 1017 11
	cmp	r3, #1
	beq	.L161
	.loc 1 1017 69 is_stmt 1 discriminator 2
	.loc 1 1017 83 is_stmt 0 discriminator 2
	movs	r3, #1
	strb	r3, [r4, #32]
	.loc 1 1017 7 is_stmt 1 discriminator 2
	.loc 1 1020 5 discriminator 2
	.loc 1 1020 18 is_stmt 0 discriminator 2
	movs	r3, #2
	strb	r3, [r4, #33]
	.loc 1 1023 5 is_stmt 1 discriminator 2
.LVL138:
	.loc 1 1026 5 discriminator 2
	.loc 1 1026 30 is_stmt 0 discriminator 2
	ldrh	r7, [r1]
	.loc 1 1026 51 discriminator 2
	ldrh	r3, [r1, #4]
	.loc 1 1026 73 discriminator 2
	ldrh	r2, [r1, #2]
.LVL139:
	.loc 1 1026 100 discriminator 2
	ldr	r1, [r4, #56]
.LVL140:
	.loc 1 1026 59 discriminator 2
	mla	r3, r1, r2, r3
	.loc 1 1026 132 discriminator 2
	ldr	r2, [r4, #44]
	.loc 1 1026 17 discriminator 2
	mla	r7, r2, r3, r7
.LVL141:
	.loc 1 1029 5 is_stmt 1 discriminator 2
.L148:
	.loc 1 1029 28
	cmp	r6, #0
	beq	.L158
	.loc 1 1029 61 is_stmt 0 discriminator 1
	ldr	r3, [r4, #44]
	.loc 1 1029 89 discriminator 1
	ldr	r2, [r4, #48]
	.loc 1 1029 73 discriminator 1
	mul	r3, r2, r3
	.loc 1 1029 28 discriminator 1
	cmp	r3, r7
	bls	.L158
	.loc 1 1032 7 is_stmt 1
	.loc 1 1032 69 is_stmt 0
	ldr	r3, .L165
	movs	r2, #0
	strb	r2, [r3]
	.loc 1 1033 7 is_stmt 1
.LBB470:
.LBB471:
	.loc 2 946 3
	.syntax unified
@ 946 "d:\rtos\board\yd-stm32h7xxvx_classicv19\cmake-build-debug\_deps\stm32h7xx_cmsis_include\drivers\cmsis\include\cmsis_gcc.h" 1
	dsb 0xF
@ 0 "" 2
	.thumb
	.syntax unified
.LBE471:
.LBE470:
	.loc 1 1034 7
	.loc 1 1034 69 is_stmt 0
	movs	r2, #128
	strb	r2, [r3]
	.loc 1 1035 7 is_stmt 1
.LBB472:
.LBB473:
	.loc 2 946 3
	.syntax unified
@ 946 "d:\rtos\board\yd-stm32h7xxvx_classicv19\cmake-build-debug\_deps\stm32h7xx_cmsis_include\drivers\cmsis\include\cmsis_gcc.h" 1
	dsb 0xF
@ 0 "" 2
	.thumb
	.syntax unified
.LBE473:
.LBE472:
	.loc 1 1038 7
	.loc 1 1038 25 is_stmt 0
	ldr	r3, [r4, #36]
	.loc 1 1038 10
	cmp	r3, #512
	bhi	.L149
	.loc 1 1040 9 is_stmt 1
	.loc 1 1040 28 is_stmt 0
	ldr	r3, [r4, #44]
	.loc 1 1040 56
	ldr	r2, [r4, #48]
	.loc 1 1040 40
	mul	r3, r2, r3
	.loc 1 1040 12
	cmp	r3, #65536
	bcs	.L150
	.loc 1 1042 11 is_stmt 1
	.loc 1 1042 73 is_stmt 0
	ldr	r3, .L165+4
	movs	r2, #0
	strb	r2, [r3]
	.loc 1 1043 11 is_stmt 1
.LBB474:
.LBB475:
	.loc 2 946 3
	.syntax unified
@ 946 "d:\rtos\board\yd-stm32h7xxvx_classicv19\cmake-build-debug\_deps\stm32h7xx_cmsis_include\drivers\cmsis\include\cmsis_gcc.h" 1
	dsb 0xF
@ 0 "" 2
	.thumb
	.syntax unified
.LBE475:
.LBE474:
	.loc 1 1044 11
	.loc 1 1044 75 is_stmt 0
	uxtb	r2, r7
	.loc 1 1044 73
	strb	r2, [r3]
	.loc 1 1045 11 is_stmt 1
.LBB476:
.LBB477:
	.loc 2 946 3
	.syntax unified
@ 946 "d:\rtos\board\yd-stm32h7xxvx_classicv19\cmake-build-debug\_deps\stm32h7xx_cmsis_include\drivers\cmsis\include\cmsis_gcc.h" 1
	dsb 0xF
@ 0 "" 2
	.thumb
	.syntax unified
.LBE477:
.LBE476:
	.loc 1 1046 11
	.loc 1 1046 75 is_stmt 0
	ubfx	r2, r7, #8, #8
	.loc 1 1046 73
	strb	r2, [r3]
	.loc 1 1047 11 is_stmt 1
.LBB478:
.LBB479:
	.loc 2 946 3
	.syntax unified
@ 946 "d:\rtos\board\yd-stm32h7xxvx_classicv19\cmake-build-debug\_deps\stm32h7xx_cmsis_include\drivers\cmsis\include\cmsis_gcc.h" 1
	dsb 0xF
@ 0 "" 2
	.thumb
	.syntax unified
.L151:
.LBE479:
.LBE478:
	.loc 1 1090 7
	.loc 1 1090 22 is_stmt 0
	ldr	r3, [r4, #12]
	.loc 1 1090 10
	cbnz	r3, .L153
	.loc 1 1092 9 is_stmt 1
	.loc 1 1092 47 is_stmt 0
	ldr	r3, [r4, #36]
	.loc 1 1092 57
	lsrs	r3, r3, #1
	.loc 1 1092 32
	str	r3, [r4, #36]
.L153:
	.loc 1 1000 1 discriminator 1
	movs	r1, #0
.L154:
.LVL142:
	.loc 1 1101 30 is_stmt 1 discriminator 1
	.loc 1 1101 45 is_stmt 0 discriminator 1
	ldr	r3, [r4, #36]
	.loc 1 1101 30 discriminator 1
	cmp	r3, r1
	bls	.L163
	.loc 1 1103 9 is_stmt 1 discriminator 3
	.loc 1 1103 47 is_stmt 0 discriminator 3
	ldrh	r2, [r5], #2
.LVL143:
	.loc 1 1103 45 discriminator 3
	mov	r3, #-2147483648
	strh	r2, [r3]	@ movhi
	.loc 1 1104 9 is_stmt 1 discriminator 3
.LVL144:
	.loc 1 1105 9 discriminator 3
.LBB480:
.LBB481:
	.loc 2 946 3 discriminator 3
	.syntax unified
@ 946 "d:\rtos\board\yd-stm32h7xxvx_classicv19\cmake-build-debug\_deps\stm32h7xx_cmsis_include\drivers\cmsis\include\cmsis_gcc.h" 1
	dsb 0xF
@ 0 "" 2
	.thumb
	.syntax unified
.LBE481:
.LBE480:
	.loc 1 1101 61 discriminator 3
	adds	r1, r1, #1
.LVL145:
	b	.L154
.LVL146:
.L150:
	.loc 1 1051 11
	.loc 1 1051 73 is_stmt 0
	ldr	r3, .L165+4
	movs	r2, #0
	strb	r2, [r3]
	.loc 1 1052 11 is_stmt 1
.LBB482:
.LBB483:
	.loc 2 946 3
	.syntax unified
@ 946 "d:\rtos\board\yd-stm32h7xxvx_classicv19\cmake-build-debug\_deps\stm32h7xx_cmsis_include\drivers\cmsis\include\cmsis_gcc.h" 1
	dsb 0xF
@ 0 "" 2
	.thumb
	.syntax unified
.LBE483:
.LBE482:
	.loc 1 1053 11
	.loc 1 1053 75 is_stmt 0
	uxtb	r2, r7
	.loc 1 1053 73
	strb	r2, [r3]
	.loc 1 1054 11 is_stmt 1
.LBB484:
.LBB485:
	.loc 2 946 3
	.syntax unified
@ 946 "d:\rtos\board\yd-stm32h7xxvx_classicv19\cmake-build-debug\_deps\stm32h7xx_cmsis_include\drivers\cmsis\include\cmsis_gcc.h" 1
	dsb 0xF
@ 0 "" 2
	.thumb
	.syntax unified
.LBE485:
.LBE484:
	.loc 1 1055 11
	.loc 1 1055 75 is_stmt 0
	ubfx	r2, r7, #8, #8
	.loc 1 1055 73
	strb	r2, [r3]
	.loc 1 1056 11 is_stmt 1
.LBB486:
.LBB487:
	.loc 2 946 3
	.syntax unified
@ 946 "d:\rtos\board\yd-stm32h7xxvx_classicv19\cmake-build-debug\_deps\stm32h7xx_cmsis_include\drivers\cmsis\include\cmsis_gcc.h" 1
	dsb 0xF
@ 0 "" 2
	.thumb
	.syntax unified
.LBE487:
.LBE486:
	.loc 1 1057 11
	.loc 1 1057 75 is_stmt 0
	ubfx	r2, r7, #16, #8
	.loc 1 1057 73
	strb	r2, [r3]
	.loc 1 1058 11 is_stmt 1
.LBB488:
.LBB489:
	.loc 2 946 3
	.syntax unified
@ 946 "d:\rtos\board\yd-stm32h7xxvx_classicv19\cmake-build-debug\_deps\stm32h7xx_cmsis_include\drivers\cmsis\include\cmsis_gcc.h" 1
	dsb 0xF
@ 0 "" 2
	.loc 2 947 1 is_stmt 0
	.thumb
	.syntax unified
	b	.L151
.L149:
.LBE489:
.LBE488:
	.loc 1 1063 9 is_stmt 1
	.loc 1 1063 28 is_stmt 0
	ldr	r3, [r4, #44]
	.loc 1 1063 56
	ldr	r2, [r4, #48]
	.loc 1 1063 40
	mul	r3, r2, r3
	.loc 1 1063 12
	cmp	r3, #65536
	bcs	.L152
	.loc 1 1065 11 is_stmt 1
	.loc 1 1065 73 is_stmt 0
	ldr	r3, .L165+4
	movs	r2, #0
	strb	r2, [r3]
	.loc 1 1066 11 is_stmt 1
.LBB490:
.LBB491:
	.loc 2 946 3
	.syntax unified
@ 946 "d:\rtos\board\yd-stm32h7xxvx_classicv19\cmake-build-debug\_deps\stm32h7xx_cmsis_include\drivers\cmsis\include\cmsis_gcc.h" 1
	dsb 0xF
@ 0 "" 2
	.thumb
	.syntax unified
.LBE491:
.LBE490:
	.loc 1 1067 11
	.loc 1 1067 73 is_stmt 0
	strb	r2, [r3]
	.loc 1 1068 11 is_stmt 1
.LBB492:
.LBB493:
	.loc 2 946 3
	.syntax unified
@ 946 "d:\rtos\board\yd-stm32h7xxvx_classicv19\cmake-build-debug\_deps\stm32h7xx_cmsis_include\drivers\cmsis\include\cmsis_gcc.h" 1
	dsb 0xF
@ 0 "" 2
	.thumb
	.syntax unified
.LBE493:
.LBE492:
	.loc 1 1069 11
	.loc 1 1069 75 is_stmt 0
	uxtb	r2, r7
	.loc 1 1069 73
	strb	r2, [r3]
	.loc 1 1070 11 is_stmt 1
.LBB494:
.LBB495:
	.loc 2 946 3
	.syntax unified
@ 946 "d:\rtos\board\yd-stm32h7xxvx_classicv19\cmake-build-debug\_deps\stm32h7xx_cmsis_include\drivers\cmsis\include\cmsis_gcc.h" 1
	dsb 0xF
@ 0 "" 2
	.thumb
	.syntax unified
.LBE495:
.LBE494:
	.loc 1 1071 11
	.loc 1 1071 75 is_stmt 0
	ubfx	r2, r7, #8, #8
	.loc 1 1071 73
	strb	r2, [r3]
	.loc 1 1072 11 is_stmt 1
.LBB496:
.LBB497:
	.loc 2 946 3
	.syntax unified
@ 946 "d:\rtos\board\yd-stm32h7xxvx_classicv19\cmake-build-debug\_deps\stm32h7xx_cmsis_include\drivers\cmsis\include\cmsis_gcc.h" 1
	dsb 0xF
@ 0 "" 2
	.loc 2 947 1 is_stmt 0
	.thumb
	.syntax unified
	b	.L151
.L152:
.LBE497:
.LBE496:
	.loc 1 1076 11 is_stmt 1
	.loc 1 1076 73 is_stmt 0
	ldr	r3, .L165+4
	movs	r2, #0
	strb	r2, [r3]
	.loc 1 1077 11 is_stmt 1
.LBB498:
.LBB499:
	.loc 2 946 3
	.syntax unified
@ 946 "d:\rtos\board\yd-stm32h7xxvx_classicv19\cmake-build-debug\_deps\stm32h7xx_cmsis_include\drivers\cmsis\include\cmsis_gcc.h" 1
	dsb 0xF
@ 0 "" 2
	.thumb
	.syntax unified
.LBE499:
.LBE498:
	.loc 1 1078 11
	.loc 1 1078 73 is_stmt 0
	strb	r2, [r3]
	.loc 1 1079 11 is_stmt 1
.LBB500:
.LBB501:
	.loc 2 946 3
	.syntax unified
@ 946 "d:\rtos\board\yd-stm32h7xxvx_classicv19\cmake-build-debug\_deps\stm32h7xx_cmsis_include\drivers\cmsis\include\cmsis_gcc.h" 1
	dsb 0xF
@ 0 "" 2
	.thumb
	.syntax unified
.LBE501:
.LBE500:
	.loc 1 1080 11
	.loc 1 1080 75 is_stmt 0
	uxtb	r2, r7
	.loc 1 1080 73
	strb	r2, [r3]
	.loc 1 1081 11 is_stmt 1
.LBB502:
.LBB503:
	.loc 2 946 3
	.syntax unified
@ 946 "d:\rtos\board\yd-stm32h7xxvx_classicv19\cmake-build-debug\_deps\stm32h7xx_cmsis_include\drivers\cmsis\include\cmsis_gcc.h" 1
	dsb 0xF
@ 0 "" 2
	.thumb
	.syntax unified
.LBE503:
.LBE502:
	.loc 1 1082 11
	.loc 1 1082 75 is_stmt 0
	ubfx	r2, r7, #8, #8
	.loc 1 1082 73
	strb	r2, [r3]
	.loc 1 1083 11 is_stmt 1
.LBB504:
.LBB505:
	.loc 2 946 3
	.syntax unified
@ 946 "d:\rtos\board\yd-stm32h7xxvx_classicv19\cmake-build-debug\_deps\stm32h7xx_cmsis_include\drivers\cmsis\include\cmsis_gcc.h" 1
	dsb 0xF
@ 0 "" 2
	.thumb
	.syntax unified
.LBE505:
.LBE504:
	.loc 1 1084 11
	.loc 1 1084 75 is_stmt 0
	ubfx	r2, r7, #16, #8
	.loc 1 1084 73
	strb	r2, [r3]
	.loc 1 1085 11 is_stmt 1
.LBB506:
.LBB507:
	.loc 2 946 3
	.syntax unified
@ 946 "d:\rtos\board\yd-stm32h7xxvx_classicv19\cmake-build-debug\_deps\stm32h7xx_cmsis_include\drivers\cmsis\include\cmsis_gcc.h" 1
	dsb 0xF
@ 0 "" 2
	.loc 2 947 1 is_stmt 0
	.thumb
	.syntax unified
	b	.L151
.LVL147:
.L163:
.LBE507:
.LBE506:
	.loc 1 1108 7 is_stmt 1
	.loc 1 1108 69 is_stmt 0
	ldr	r3, .L165
	movs	r2, #16
	strb	r2, [r3]
	.loc 1 1109 7 is_stmt 1
.LBB508:
.LBB509:
	.loc 2 946 3
	.syntax unified
@ 946 "d:\rtos\board\yd-stm32h7xxvx_classicv19\cmake-build-debug\_deps\stm32h7xx_cmsis_include\drivers\cmsis\include\cmsis_gcc.h" 1
	dsb 0xF
@ 0 "" 2
	.thumb
	.syntax unified
.LBE509:
.LBE508:
	.loc 1 1112 7
	.loc 1 1112 19 is_stmt 0
	bl	HAL_GetTick
.LVL148:
	mov	r8, r0
.LVL149:
	.loc 1 1115 7 is_stmt 1
.L156:
	.loc 1 1115 42
	.loc 1 1115 14 is_stmt 0
	mov	r0, r4
	bl	HAL_NAND_Read_Status
.LVL150:
	.loc 1 1115 42
	cmp	r0, #64
	beq	.L164
	.loc 1 1117 9 is_stmt 1
	.loc 1 1117 14 is_stmt 0
	bl	HAL_GetTick
.LVL151:
	.loc 1 1117 28
	sub	r0, r0, r8
	.loc 1 1117 12
	cmp	r0, #16777216
	bls	.L156
	.loc 1 1120 11 is_stmt 1
	.loc 1 1120 24 is_stmt 0
	movs	r0, #3
	strb	r0, [r4, #33]
	.loc 1 1123 11 is_stmt 1
	.loc 1 1123 15
	.loc 1 1123 29 is_stmt 0
	movs	r3, #0
	strb	r3, [r4, #32]
	.loc 1 1123 13 is_stmt 1
	.loc 1 1125 11
	.loc 1 1125 18 is_stmt 0
	b	.L147
.L164:
	.loc 1 1130 7 is_stmt 1
	.loc 1 1133 7
	.loc 1 1133 14 is_stmt 0
	subs	r6, r6, #1
.LVL152:
	.loc 1 1136 7 is_stmt 1
	.loc 1 1136 19 is_stmt 0
	adds	r7, r7, #1
.LVL153:
	b	.L148
.LVL154:
.L158:
	.loc 1 1140 5 is_stmt 1
	.loc 1 1140 18 is_stmt 0
	movs	r3, #1
	strb	r3, [r4, #33]
	.loc 1 1143 5 is_stmt 1
	.loc 1 1143 9
	.loc 1 1143 23 is_stmt 0
	movs	r0, #0
	strb	r0, [r4, #32]
	.loc 1 1143 7 is_stmt 1
	.loc 1 1150 3
	.loc 1 1150 10 is_stmt 0
	b	.L147
.LVL155:
.L160:
	.loc 1 1147 12
	movs	r0, #1
.LVL156:
.L147:
	.loc 1 1151 1
	pop	{r4, r5, r6, r7, r8, pc}
.LVL157:
.L161:
	.loc 1 1017 50
	movs	r0, #2
	b	.L147
.L166:
	.align	2
.L165:
	.word	-2147418112
	.word	-2147352576
	.cfi_endproc
.LFE347:
	.size	HAL_NAND_Write_Page_16b, .-HAL_NAND_Write_Page_16b
	.section	.text.HAL_NAND_Read_SpareArea_8b,"ax",%progbits
	.align	1
	.global	HAL_NAND_Read_SpareArea_8b
	.syntax unified
	.thumb
	.thumb_func
	.type	HAL_NAND_Read_SpareArea_8b, %function
HAL_NAND_Read_SpareArea_8b:
.LFB348:
	.loc 1 1164 1 is_stmt 1
	.cfi_startproc
	@ args = 0, pretend = 0, frame = 0
	@ frame_needed = 0, uses_anonymous_args = 0
.LVL158:
	push	{r3, r4, r5, r6, r7, r8, r9, lr}
	.cfi_def_cfa_offset 32
	.cfi_offset 3, -32
	.cfi_offset 4, -28
	.cfi_offset 5, -24
	.cfi_offset 6, -20
	.cfi_offset 7, -16
	.cfi_offset 8, -12
	.cfi_offset 9, -8
	.cfi_offset 14, -4
	mov	r4, r0
	.loc 1 1165 3
	.loc 1 1166 3
	.loc 1 1167 3
	.loc 1 1168 3
.LVL159:
	.loc 1 1169 3
	.loc 1 1170 3
	.loc 1 1171 3
	.loc 1 1172 3
	.loc 1 1175 3
	.loc 1 1175 12 is_stmt 0
	ldrb	r0, [r0, #33]	@ zero_extendqisi2
.LVL160:
	uxtb	r0, r0
	.loc 1 1175 6
	cmp	r0, #2
	beq	.L168
	mov	r5, r2
	mov	r7, r3
	.loc 1 1179 8 is_stmt 1
	.loc 1 1179 17 is_stmt 0
	ldrb	r3, [r4, #33]	@ zero_extendqisi2
.LVL161:
	uxtb	r3, r3
	.loc 1 1179 11
	cmp	r3, #1
	bne	.L181
	.loc 1 1182 5 is_stmt 1
	.loc 1 1182 9
	.loc 1 1182 19 is_stmt 0
	ldrb	r3, [r4, #32]	@ zero_extendqisi2
	.loc 1 1182 11
	cmp	r3, #1
	beq	.L182
	.loc 1 1182 69 is_stmt 1 discriminator 2
	.loc 1 1182 83 is_stmt 0 discriminator 2
	movs	r3, #1
	strb	r3, [r4, #32]
	.loc 1 1182 7 is_stmt 1 discriminator 2
	.loc 1 1185 5 discriminator 2
	.loc 1 1185 18 is_stmt 0 discriminator 2
	movs	r3, #2
	strb	r3, [r4, #33]
	.loc 1 1188 5 is_stmt 1 discriminator 2
.LVL162:
	.loc 1 1191 5 discriminator 2
	.loc 1 1191 30 is_stmt 0 discriminator 2
	ldrh	r6, [r1]
	.loc 1 1191 51 discriminator 2
	ldrh	r3, [r1, #4]
	.loc 1 1191 73 discriminator 2
	ldrh	r2, [r1, #2]
.LVL163:
	.loc 1 1191 100 discriminator 2
	ldr	r1, [r4, #56]
.LVL164:
	.loc 1 1191 59 discriminator 2
	mla	r3, r1, r2, r3
	.loc 1 1191 132 discriminator 2
	ldr	r2, [r4, #44]
	.loc 1 1191 17 discriminator 2
	mla	r6, r2, r3, r6
.LVL165:
	.loc 1 1194 5 is_stmt 1 discriminator 2
	.loc 1 1194 19 is_stmt 0 discriminator 2
	ldr	r8, [r4, #36]
.LVL166:
	.loc 1 1197 5 is_stmt 1 discriminator 2
	.loc 1 1197 11 is_stmt 0 discriminator 2
	b	.L169
.LVL167:
.L171:
	.loc 1 1217 11 is_stmt 1
	.loc 1 1217 73 is_stmt 0
	ldr	r3, .L186
	movs	r2, #0
	strb	r2, [r3]
	.loc 1 1218 11 is_stmt 1
.LBB510:
.LBB511:
	.loc 2 946 3
	.syntax unified
@ 946 "d:\rtos\board\yd-stm32h7xxvx_classicv19\cmake-build-debug\_deps\stm32h7xx_cmsis_include\drivers\cmsis\include\cmsis_gcc.h" 1
	dsb 0xF
@ 0 "" 2
	.thumb
	.syntax unified
.LBE511:
.LBE510:
	.loc 1 1219 11
	.loc 1 1219 75 is_stmt 0
	uxtb	r2, r6
	.loc 1 1219 73
	strb	r2, [r3]
	.loc 1 1220 11 is_stmt 1
.LBB512:
.LBB513:
	.loc 2 946 3
	.syntax unified
@ 946 "d:\rtos\board\yd-stm32h7xxvx_classicv19\cmake-build-debug\_deps\stm32h7xx_cmsis_include\drivers\cmsis\include\cmsis_gcc.h" 1
	dsb 0xF
@ 0 "" 2
	.thumb
	.syntax unified
.LBE513:
.LBE512:
	.loc 1 1221 11
	.loc 1 1221 75 is_stmt 0
	ubfx	r2, r6, #8, #8
	.loc 1 1221 73
	strb	r2, [r3]
	.loc 1 1222 11 is_stmt 1
.LBB514:
.LBB515:
	.loc 2 946 3
	.syntax unified
@ 946 "d:\rtos\board\yd-stm32h7xxvx_classicv19\cmake-build-debug\_deps\stm32h7xx_cmsis_include\drivers\cmsis\include\cmsis_gcc.h" 1
	dsb 0xF
@ 0 "" 2
	.thumb
	.syntax unified
.LBE515:
.LBE514:
	.loc 1 1223 11
	.loc 1 1223 75 is_stmt 0
	ubfx	r2, r6, #16, #8
	.loc 1 1223 73
	strb	r2, [r3]
	.loc 1 1224 11 is_stmt 1
.LBB516:
.LBB517:
	.loc 2 946 3
	.syntax unified
@ 946 "d:\rtos\board\yd-stm32h7xxvx_classicv19\cmake-build-debug\_deps\stm32h7xx_cmsis_include\drivers\cmsis\include\cmsis_gcc.h" 1
	dsb 0xF
@ 0 "" 2
	.loc 2 947 1 is_stmt 0
	.thumb
	.syntax unified
	b	.L172
.L170:
.LBE517:
.LBE516:
	.loc 1 1230 9 is_stmt 1
	.loc 1 1230 71 is_stmt 0
	ldr	r3, .L186+4
	movs	r2, #0
	strb	r2, [r3]
	.loc 1 1231 9 is_stmt 1
.LBB518:
.LBB519:
	.loc 2 946 3
	.syntax unified
@ 946 "d:\rtos\board\yd-stm32h7xxvx_classicv19\cmake-build-debug\_deps\stm32h7xx_cmsis_include\drivers\cmsis\include\cmsis_gcc.h" 1
	dsb 0xF
@ 0 "" 2
	.thumb
	.syntax unified
.LBE519:
.LBE518:
	.loc 1 1233 9
	.loc 1 1233 28 is_stmt 0
	ldr	r3, [r4, #44]
	.loc 1 1233 56
	ldr	r2, [r4, #48]
	.loc 1 1233 40
	mul	r3, r2, r3
	.loc 1 1233 12
	cmp	r3, #65536
	bcs	.L173
	.loc 1 1235 11 is_stmt 1
	.loc 1 1235 75 is_stmt 0
	uxtb	r2, r8
	.loc 1 1235 73
	ldr	r3, .L186
	strb	r2, [r3]
	.loc 1 1236 11 is_stmt 1
.LBB520:
.LBB521:
	.loc 2 946 3
	.syntax unified
@ 946 "d:\rtos\board\yd-stm32h7xxvx_classicv19\cmake-build-debug\_deps\stm32h7xx_cmsis_include\drivers\cmsis\include\cmsis_gcc.h" 1
	dsb 0xF
@ 0 "" 2
	.thumb
	.syntax unified
.LBE521:
.LBE520:
	.loc 1 1237 11
	.loc 1 1237 75 is_stmt 0
	ubfx	r2, r8, #8, #8
	.loc 1 1237 73
	strb	r2, [r3]
	.loc 1 1238 11 is_stmt 1
.LBB522:
.LBB523:
	.loc 2 946 3
	.syntax unified
@ 946 "d:\rtos\board\yd-stm32h7xxvx_classicv19\cmake-build-debug\_deps\stm32h7xx_cmsis_include\drivers\cmsis\include\cmsis_gcc.h" 1
	dsb 0xF
@ 0 "" 2
	.thumb
	.syntax unified
.LBE523:
.LBE522:
	.loc 1 1239 11
	.loc 1 1239 75 is_stmt 0
	uxtb	r2, r6
	.loc 1 1239 73
	strb	r2, [r3]
	.loc 1 1240 11 is_stmt 1
.LBB524:
.LBB525:
	.loc 2 946 3
	.syntax unified
@ 946 "d:\rtos\board\yd-stm32h7xxvx_classicv19\cmake-build-debug\_deps\stm32h7xx_cmsis_include\drivers\cmsis\include\cmsis_gcc.h" 1
	dsb 0xF
@ 0 "" 2
	.thumb
	.syntax unified
.LBE525:
.LBE524:
	.loc 1 1241 11
	.loc 1 1241 75 is_stmt 0
	ubfx	r2, r6, #8, #8
	.loc 1 1241 73
	strb	r2, [r3]
	.loc 1 1242 11 is_stmt 1
.LBB526:
.LBB527:
	.loc 2 946 3
	.syntax unified
@ 946 "d:\rtos\board\yd-stm32h7xxvx_classicv19\cmake-build-debug\_deps\stm32h7xx_cmsis_include\drivers\cmsis\include\cmsis_gcc.h" 1
	dsb 0xF
@ 0 "" 2
	.loc 2 947 1 is_stmt 0
	.thumb
	.syntax unified
	b	.L172
.L173:
.LBE527:
.LBE526:
	.loc 1 1246 11 is_stmt 1
	.loc 1 1246 75 is_stmt 0
	uxtb	r2, r8
	.loc 1 1246 73
	ldr	r3, .L186
	strb	r2, [r3]
	.loc 1 1247 11 is_stmt 1
.LBB528:
.LBB529:
	.loc 2 946 3
	.syntax unified
@ 946 "d:\rtos\board\yd-stm32h7xxvx_classicv19\cmake-build-debug\_deps\stm32h7xx_cmsis_include\drivers\cmsis\include\cmsis_gcc.h" 1
	dsb 0xF
@ 0 "" 2
	.thumb
	.syntax unified
.LBE529:
.LBE528:
	.loc 1 1248 11
	.loc 1 1248 75 is_stmt 0
	ubfx	r2, r8, #8, #8
	.loc 1 1248 73
	strb	r2, [r3]
	.loc 1 1249 11 is_stmt 1
.LBB530:
.LBB531:
	.loc 2 946 3
	.syntax unified
@ 946 "d:\rtos\board\yd-stm32h7xxvx_classicv19\cmake-build-debug\_deps\stm32h7xx_cmsis_include\drivers\cmsis\include\cmsis_gcc.h" 1
	dsb 0xF
@ 0 "" 2
	.thumb
	.syntax unified
.LBE531:
.LBE530:
	.loc 1 1250 11
	.loc 1 1250 75 is_stmt 0
	uxtb	r2, r6
	.loc 1 1250 73
	strb	r2, [r3]
	.loc 1 1251 11 is_stmt 1
.LBB532:
.LBB533:
	.loc 2 946 3
	.syntax unified
@ 946 "d:\rtos\board\yd-stm32h7xxvx_classicv19\cmake-build-debug\_deps\stm32h7xx_cmsis_include\drivers\cmsis\include\cmsis_gcc.h" 1
	dsb 0xF
@ 0 "" 2
	.thumb
	.syntax unified
.LBE533:
.LBE532:
	.loc 1 1252 11
	.loc 1 1252 75 is_stmt 0
	ubfx	r2, r6, #8, #8
	.loc 1 1252 73
	strb	r2, [r3]
	.loc 1 1253 11 is_stmt 1
.LBB534:
.LBB535:
	.loc 2 946 3
	.syntax unified
@ 946 "d:\rtos\board\yd-stm32h7xxvx_classicv19\cmake-build-debug\_deps\stm32h7xx_cmsis_include\drivers\cmsis\include\cmsis_gcc.h" 1
	dsb 0xF
@ 0 "" 2
	.thumb
	.syntax unified
.LBE535:
.LBE534:
	.loc 1 1254 11
	.loc 1 1254 75 is_stmt 0
	ubfx	r2, r6, #16, #8
	.loc 1 1254 73
	strb	r2, [r3]
	.loc 1 1255 11 is_stmt 1
.LBB536:
.LBB537:
	.loc 2 946 3
	.syntax unified
@ 946 "d:\rtos\board\yd-stm32h7xxvx_classicv19\cmake-build-debug\_deps\stm32h7xx_cmsis_include\drivers\cmsis\include\cmsis_gcc.h" 1
	dsb 0xF
@ 0 "" 2
	.loc 2 947 1 is_stmt 0
	.thumb
	.syntax unified
	b	.L172
.L185:
.LBE537:
.LBE536:
	.loc 1 1265 9 is_stmt 1
	.loc 1 1265 21 is_stmt 0
	bl	HAL_GetTick
.LVL168:
	mov	r9, r0
.LVL169:
	.loc 1 1268 9 is_stmt 1
.L175:
	.loc 1 1268 44
	.loc 1 1268 16 is_stmt 0
	mov	r0, r4
	bl	HAL_NAND_Read_Status
.LVL170:
	.loc 1 1268 44
	cmp	r0, #64
	beq	.L184
	.loc 1 1270 11 is_stmt 1
	.loc 1 1270 16 is_stmt 0
	bl	HAL_GetTick
.LVL171:
	.loc 1 1270 30
	sub	r0, r0, r9
	.loc 1 1270 14
	cmp	r0, #16777216
	bls	.L175
	.loc 1 1273 13 is_stmt 1
	.loc 1 1273 26 is_stmt 0
	movs	r0, #3
	strb	r0, [r4, #33]
	.loc 1 1276 13 is_stmt 1
	.loc 1 1276 17
	.loc 1 1276 31 is_stmt 0
	movs	r3, #0
	strb	r3, [r4, #32]
	.loc 1 1276 15 is_stmt 1
	.loc 1 1278 13
	.loc 1 1278 20 is_stmt 0
	b	.L168
.L184:
	.loc 1 1283 9 is_stmt 1
	.loc 1 1283 71 is_stmt 0
	ldr	r3, .L186+4
	movs	r2, #0
	strb	r2, [r3]
	.loc 1 1284 9 is_stmt 1
.LBB538:
.LBB539:
	.loc 2 946 3
	.syntax unified
@ 946 "d:\rtos\board\yd-stm32h7xxvx_classicv19\cmake-build-debug\_deps\stm32h7xx_cmsis_include\drivers\cmsis\include\cmsis_gcc.h" 1
	dsb 0xF
@ 0 "" 2
	.loc 2 947 1 is_stmt 0
	.thumb
	.syntax unified
	b	.L174
.LVL172:
.L178:
.LBE539:
.LBE538:
	.loc 1 1290 9 is_stmt 1 discriminator 3
	.loc 1 1290 17 is_stmt 0 discriminator 3
	mov	r3, #-2147483648
	ldrb	r2, [r3]	@ zero_extendqisi2
	.loc 1 1290 15 discriminator 3
	strb	r2, [r5], #1
.LVL173:
	.loc 1 1291 9 is_stmt 1 discriminator 3
	.loc 1 1288 66 discriminator 3
	adds	r1, r1, #1
.LVL174:
.L177:
	.loc 1 1288 30 discriminator 1
	.loc 1 1288 45 is_stmt 0 discriminator 1
	ldr	r0, [r4, #40]
	.loc 1 1288 30 discriminator 1
	cmp	r0, r1
	bhi	.L178
	.loc 1 1295 7 is_stmt 1
	.loc 1 1298 7
	.loc 1 1298 14 is_stmt 0
	subs	r7, r7, #1
.LVL175:
	.loc 1 1301 7 is_stmt 1
	.loc 1 1301 19 is_stmt 0
	adds	r6, r6, #1
.LVL176:
.L169:
	.loc 1 1197 28 is_stmt 1
	cbz	r7, .L179
	.loc 1 1197 61 is_stmt 0 discriminator 1
	ldr	r3, [r4, #44]
	.loc 1 1197 89 discriminator 1
	ldr	r2, [r4, #48]
	.loc 1 1197 73 discriminator 1
	mul	r3, r2, r3
	.loc 1 1197 28 discriminator 1
	cmp	r3, r6
	bls	.L179
	.loc 1 1200 7 is_stmt 1
	.loc 1 1200 25 is_stmt 0
	ldr	r3, [r4, #36]
	.loc 1 1200 10
	cmp	r3, #512
	bhi	.L170
	.loc 1 1203 9 is_stmt 1
	.loc 1 1203 71 is_stmt 0
	ldr	r3, .L186+4
	movs	r2, #80
	strb	r2, [r3]
	.loc 1 1204 9 is_stmt 1
.LBB540:
.LBB541:
	.loc 2 946 3
	.syntax unified
@ 946 "d:\rtos\board\yd-stm32h7xxvx_classicv19\cmake-build-debug\_deps\stm32h7xx_cmsis_include\drivers\cmsis\include\cmsis_gcc.h" 1
	dsb 0xF
@ 0 "" 2
	.thumb
	.syntax unified
.LBE541:
.LBE540:
	.loc 1 1206 9
	.loc 1 1206 28 is_stmt 0
	ldr	r3, [r4, #44]
	.loc 1 1206 56
	ldr	r2, [r4, #48]
	.loc 1 1206 40
	mul	r3, r2, r3
	.loc 1 1206 12
	cmp	r3, #65536
	bcs	.L171
	.loc 1 1208 11 is_stmt 1
	.loc 1 1208 73 is_stmt 0
	ldr	r3, .L186
	movs	r2, #0
	strb	r2, [r3]
	.loc 1 1209 11 is_stmt 1
.LBB542:
.LBB543:
	.loc 2 946 3
	.syntax unified
@ 946 "d:\rtos\board\yd-stm32h7xxvx_classicv19\cmake-build-debug\_deps\stm32h7xx_cmsis_include\drivers\cmsis\include\cmsis_gcc.h" 1
	dsb 0xF
@ 0 "" 2
	.thumb
	.syntax unified
.LBE543:
.LBE542:
	.loc 1 1210 11
	.loc 1 1210 75 is_stmt 0
	uxtb	r2, r6
	.loc 1 1210 73
	strb	r2, [r3]
	.loc 1 1211 11 is_stmt 1
.LBB544:
.LBB545:
	.loc 2 946 3
	.syntax unified
@ 946 "d:\rtos\board\yd-stm32h7xxvx_classicv19\cmake-build-debug\_deps\stm32h7xx_cmsis_include\drivers\cmsis\include\cmsis_gcc.h" 1
	dsb 0xF
@ 0 "" 2
	.thumb
	.syntax unified
.LBE545:
.LBE544:
	.loc 1 1212 11
	.loc 1 1212 75 is_stmt 0
	ubfx	r2, r6, #8, #8
	.loc 1 1212 73
	strb	r2, [r3]
	.loc 1 1213 11 is_stmt 1
.LBB546:
.LBB547:
	.loc 2 946 3
	.syntax unified
@ 946 "d:\rtos\board\yd-stm32h7xxvx_classicv19\cmake-build-debug\_deps\stm32h7xx_cmsis_include\drivers\cmsis\include\cmsis_gcc.h" 1
	dsb 0xF
@ 0 "" 2
	.thumb
	.syntax unified
.L172:
.LBE547:
.LBE546:
	.loc 1 1259 7
	.loc 1 1259 69 is_stmt 0
	ldr	r3, .L186+4
	movs	r2, #48
	strb	r2, [r3]
	.loc 1 1260 7 is_stmt 1
.LBB548:
.LBB549:
	.loc 2 946 3
	.syntax unified
@ 946 "d:\rtos\board\yd-stm32h7xxvx_classicv19\cmake-build-debug\_deps\stm32h7xx_cmsis_include\drivers\cmsis\include\cmsis_gcc.h" 1
	dsb 0xF
@ 0 "" 2
	.thumb
	.syntax unified
.LBE549:
.LBE548:
	.loc 1 1262 7
	.loc 1 1262 24 is_stmt 0
	ldrb	r3, [r4, #60]	@ zero_extendqisi2
	.loc 1 1262 10
	cmp	r3, #1
	beq	.L185
.L174:
	.loc 1 1164 1 discriminator 1
	movs	r1, #0
	b	.L177
.L179:
	.loc 1 1305 5 is_stmt 1
	.loc 1 1305 18 is_stmt 0
	movs	r3, #1
	strb	r3, [r4, #33]
	.loc 1 1308 5 is_stmt 1
	.loc 1 1308 9
	.loc 1 1308 23 is_stmt 0
	movs	r0, #0
	strb	r0, [r4, #32]
	.loc 1 1308 7 is_stmt 1
	.loc 1 1315 3
	.loc 1 1315 10 is_stmt 0
	b	.L168
.LVL177:
.L181:
	.loc 1 1312 12
	movs	r0, #1
.LVL178:
.L168:
	.loc 1 1316 1
	pop	{r3, r4, r5, r6, r7, r8, r9, pc}
.LVL179:
.L182:
	.loc 1 1182 50
	movs	r0, #2
	b	.L168
.L187:
	.align	2
.L186:
	.word	-2147352576
	.word	-2147418112
	.cfi_endproc
.LFE348:
	.size	HAL_NAND_Read_SpareArea_8b, .-HAL_NAND_Read_SpareArea_8b
	.section	.text.HAL_NAND_Read_SpareArea_16b,"ax",%progbits
	.align	1
	.global	HAL_NAND_Read_SpareArea_16b
	.syntax unified
	.thumb
	.thumb_func
	.type	HAL_NAND_Read_SpareArea_16b, %function
HAL_NAND_Read_SpareArea_16b:
.LFB349:
	.loc 1 1329 1 is_stmt 1
	.cfi_startproc
	@ args = 0, pretend = 0, frame = 0
	@ frame_needed = 0, uses_anonymous_args = 0
.LVL180:
	push	{r3, r4, r5, r6, r7, r8, r9, lr}
	.cfi_def_cfa_offset 32
	.cfi_offset 3, -32
	.cfi_offset 4, -28
	.cfi_offset 5, -24
	.cfi_offset 6, -20
	.cfi_offset 7, -16
	.cfi_offset 8, -12
	.cfi_offset 9, -8
	.cfi_offset 14, -4
	mov	r4, r0
	.loc 1 1330 3
	.loc 1 1331 3
	.loc 1 1332 3
	.loc 1 1333 3
.LVL181:
	.loc 1 1334 3
	.loc 1 1335 3
	.loc 1 1336 3
	.loc 1 1337 3
	.loc 1 1340 3
	.loc 1 1340 12 is_stmt 0
	ldrb	r0, [r0, #33]	@ zero_extendqisi2
.LVL182:
	uxtb	r0, r0
	.loc 1 1340 6
	cmp	r0, #2
	beq	.L189
	mov	r5, r2
	mov	r7, r3
	.loc 1 1344 8 is_stmt 1
	.loc 1 1344 17 is_stmt 0
	ldrb	r3, [r4, #33]	@ zero_extendqisi2
.LVL183:
	uxtb	r3, r3
	.loc 1 1344 11
	cmp	r3, #1
	bne	.L202
	.loc 1 1347 5 is_stmt 1
	.loc 1 1347 9
	.loc 1 1347 19 is_stmt 0
	ldrb	r3, [r4, #32]	@ zero_extendqisi2
	.loc 1 1347 11
	cmp	r3, #1
	beq	.L203
	.loc 1 1347 69 is_stmt 1 discriminator 2
	.loc 1 1347 83 is_stmt 0 discriminator 2
	movs	r3, #1
	strb	r3, [r4, #32]
	.loc 1 1347 7 is_stmt 1 discriminator 2
	.loc 1 1350 5 discriminator 2
	.loc 1 1350 18 is_stmt 0 discriminator 2
	movs	r3, #2
	strb	r3, [r4, #33]
	.loc 1 1353 5 is_stmt 1 discriminator 2
.LVL184:
	.loc 1 1356 5 discriminator 2
	.loc 1 1356 30 is_stmt 0 discriminator 2
	ldrh	r6, [r1]
	.loc 1 1356 51 discriminator 2
	ldrh	r3, [r1, #4]
	.loc 1 1356 73 discriminator 2
	ldrh	r2, [r1, #2]
.LVL185:
	.loc 1 1356 100 discriminator 2
	ldr	r1, [r4, #56]
.LVL186:
	.loc 1 1356 59 discriminator 2
	mla	r3, r1, r2, r3
	.loc 1 1356 132 discriminator 2
	ldr	r2, [r4, #44]
	.loc 1 1356 17 discriminator 2
	mla	r6, r2, r3, r6
.LVL187:
	.loc 1 1359 5 is_stmt 1 discriminator 2
	.loc 1 1359 19 is_stmt 0 discriminator 2
	ldr	r8, [r4, #36]
.LVL188:
	.loc 1 1362 5 is_stmt 1 discriminator 2
	.loc 1 1362 11 is_stmt 0 discriminator 2
	b	.L190
.LVL189:
.L192:
	.loc 1 1382 11 is_stmt 1
	.loc 1 1382 73 is_stmt 0
	ldr	r3, .L207
	movs	r2, #0
	strb	r2, [r3]
	.loc 1 1383 11 is_stmt 1
.LBB550:
.LBB551:
	.loc 2 946 3
	.syntax unified
@ 946 "d:\rtos\board\yd-stm32h7xxvx_classicv19\cmake-build-debug\_deps\stm32h7xx_cmsis_include\drivers\cmsis\include\cmsis_gcc.h" 1
	dsb 0xF
@ 0 "" 2
	.thumb
	.syntax unified
.LBE551:
.LBE550:
	.loc 1 1384 11
	.loc 1 1384 75 is_stmt 0
	uxtb	r2, r6
	.loc 1 1384 73
	strb	r2, [r3]
	.loc 1 1385 11 is_stmt 1
.LBB552:
.LBB553:
	.loc 2 946 3
	.syntax unified
@ 946 "d:\rtos\board\yd-stm32h7xxvx_classicv19\cmake-build-debug\_deps\stm32h7xx_cmsis_include\drivers\cmsis\include\cmsis_gcc.h" 1
	dsb 0xF
@ 0 "" 2
	.thumb
	.syntax unified
.LBE553:
.LBE552:
	.loc 1 1386 11
	.loc 1 1386 75 is_stmt 0
	ubfx	r2, r6, #8, #8
	.loc 1 1386 73
	strb	r2, [r3]
	.loc 1 1387 11 is_stmt 1
.LBB554:
.LBB555:
	.loc 2 946 3
	.syntax unified
@ 946 "d:\rtos\board\yd-stm32h7xxvx_classicv19\cmake-build-debug\_deps\stm32h7xx_cmsis_include\drivers\cmsis\include\cmsis_gcc.h" 1
	dsb 0xF
@ 0 "" 2
	.thumb
	.syntax unified
.LBE555:
.LBE554:
	.loc 1 1388 11
	.loc 1 1388 75 is_stmt 0
	ubfx	r2, r6, #16, #8
	.loc 1 1388 73
	strb	r2, [r3]
	.loc 1 1389 11 is_stmt 1
.LBB556:
.LBB557:
	.loc 2 946 3
	.syntax unified
@ 946 "d:\rtos\board\yd-stm32h7xxvx_classicv19\cmake-build-debug\_deps\stm32h7xx_cmsis_include\drivers\cmsis\include\cmsis_gcc.h" 1
	dsb 0xF
@ 0 "" 2
	.loc 2 947 1 is_stmt 0
	.thumb
	.syntax unified
	b	.L193
.L191:
.LBE557:
.LBE556:
	.loc 1 1395 9 is_stmt 1
	.loc 1 1395 71 is_stmt 0
	ldr	r3, .L207+4
	movs	r2, #0
	strb	r2, [r3]
	.loc 1 1396 9 is_stmt 1
.LBB558:
.LBB559:
	.loc 2 946 3
	.syntax unified
@ 946 "d:\rtos\board\yd-stm32h7xxvx_classicv19\cmake-build-debug\_deps\stm32h7xx_cmsis_include\drivers\cmsis\include\cmsis_gcc.h" 1
	dsb 0xF
@ 0 "" 2
	.thumb
	.syntax unified
.LBE559:
.LBE558:
	.loc 1 1398 9
	.loc 1 1398 28 is_stmt 0
	ldr	r3, [r4, #44]
	.loc 1 1398 56
	ldr	r2, [r4, #48]
	.loc 1 1398 40
	mul	r3, r2, r3
	.loc 1 1398 12
	cmp	r3, #65536
	bcs	.L194
	.loc 1 1400 11 is_stmt 1
	.loc 1 1400 75 is_stmt 0
	uxtb	r2, r8
	.loc 1 1400 73
	ldr	r3, .L207
	strb	r2, [r3]
	.loc 1 1401 11 is_stmt 1
.LBB560:
.LBB561:
	.loc 2 946 3
	.syntax unified
@ 946 "d:\rtos\board\yd-stm32h7xxvx_classicv19\cmake-build-debug\_deps\stm32h7xx_cmsis_include\drivers\cmsis\include\cmsis_gcc.h" 1
	dsb 0xF
@ 0 "" 2
	.thumb
	.syntax unified
.LBE561:
.LBE560:
	.loc 1 1402 11
	.loc 1 1402 75 is_stmt 0
	ubfx	r2, r8, #8, #8
	.loc 1 1402 73
	strb	r2, [r3]
	.loc 1 1403 11 is_stmt 1
.LBB562:
.LBB563:
	.loc 2 946 3
	.syntax unified
@ 946 "d:\rtos\board\yd-stm32h7xxvx_classicv19\cmake-build-debug\_deps\stm32h7xx_cmsis_include\drivers\cmsis\include\cmsis_gcc.h" 1
	dsb 0xF
@ 0 "" 2
	.thumb
	.syntax unified
.LBE563:
.LBE562:
	.loc 1 1404 11
	.loc 1 1404 75 is_stmt 0
	uxtb	r2, r6
	.loc 1 1404 73
	strb	r2, [r3]
	.loc 1 1405 11 is_stmt 1
.LBB564:
.LBB565:
	.loc 2 946 3
	.syntax unified
@ 946 "d:\rtos\board\yd-stm32h7xxvx_classicv19\cmake-build-debug\_deps\stm32h7xx_cmsis_include\drivers\cmsis\include\cmsis_gcc.h" 1
	dsb 0xF
@ 0 "" 2
	.thumb
	.syntax unified
.LBE565:
.LBE564:
	.loc 1 1406 11
	.loc 1 1406 75 is_stmt 0
	ubfx	r2, r6, #8, #8
	.loc 1 1406 73
	strb	r2, [r3]
	.loc 1 1407 11 is_stmt 1
.LBB566:
.LBB567:
	.loc 2 946 3
	.syntax unified
@ 946 "d:\rtos\board\yd-stm32h7xxvx_classicv19\cmake-build-debug\_deps\stm32h7xx_cmsis_include\drivers\cmsis\include\cmsis_gcc.h" 1
	dsb 0xF
@ 0 "" 2
	.loc 2 947 1 is_stmt 0
	.thumb
	.syntax unified
	b	.L193
.L194:
.LBE567:
.LBE566:
	.loc 1 1411 11 is_stmt 1
	.loc 1 1411 75 is_stmt 0
	uxtb	r2, r8
	.loc 1 1411 73
	ldr	r3, .L207
	strb	r2, [r3]
	.loc 1 1412 11 is_stmt 1
.LBB568:
.LBB569:
	.loc 2 946 3
	.syntax unified
@ 946 "d:\rtos\board\yd-stm32h7xxvx_classicv19\cmake-build-debug\_deps\stm32h7xx_cmsis_include\drivers\cmsis\include\cmsis_gcc.h" 1
	dsb 0xF
@ 0 "" 2
	.thumb
	.syntax unified
.LBE569:
.LBE568:
	.loc 1 1413 11
	.loc 1 1413 75 is_stmt 0
	ubfx	r2, r8, #8, #8
	.loc 1 1413 73
	strb	r2, [r3]
	.loc 1 1414 11 is_stmt 1
.LBB570:
.LBB571:
	.loc 2 946 3
	.syntax unified
@ 946 "d:\rtos\board\yd-stm32h7xxvx_classicv19\cmake-build-debug\_deps\stm32h7xx_cmsis_include\drivers\cmsis\include\cmsis_gcc.h" 1
	dsb 0xF
@ 0 "" 2
	.thumb
	.syntax unified
.LBE571:
.LBE570:
	.loc 1 1415 11
	.loc 1 1415 75 is_stmt 0
	uxtb	r2, r6
	.loc 1 1415 73
	strb	r2, [r3]
	.loc 1 1416 11 is_stmt 1
.LBB572:
.LBB573:
	.loc 2 946 3
	.syntax unified
@ 946 "d:\rtos\board\yd-stm32h7xxvx_classicv19\cmake-build-debug\_deps\stm32h7xx_cmsis_include\drivers\cmsis\include\cmsis_gcc.h" 1
	dsb 0xF
@ 0 "" 2
	.thumb
	.syntax unified
.LBE573:
.LBE572:
	.loc 1 1417 11
	.loc 1 1417 75 is_stmt 0
	ubfx	r2, r6, #8, #8
	.loc 1 1417 73
	strb	r2, [r3]
	.loc 1 1418 11 is_stmt 1
.LBB574:
.LBB575:
	.loc 2 946 3
	.syntax unified
@ 946 "d:\rtos\board\yd-stm32h7xxvx_classicv19\cmake-build-debug\_deps\stm32h7xx_cmsis_include\drivers\cmsis\include\cmsis_gcc.h" 1
	dsb 0xF
@ 0 "" 2
	.thumb
	.syntax unified
.LBE575:
.LBE574:
	.loc 1 1419 11
	.loc 1 1419 75 is_stmt 0
	ubfx	r2, r6, #16, #8
	.loc 1 1419 73
	strb	r2, [r3]
	.loc 1 1420 11 is_stmt 1
.LBB576:
.LBB577:
	.loc 2 946 3
	.syntax unified
@ 946 "d:\rtos\board\yd-stm32h7xxvx_classicv19\cmake-build-debug\_deps\stm32h7xx_cmsis_include\drivers\cmsis\include\cmsis_gcc.h" 1
	dsb 0xF
@ 0 "" 2
	.loc 2 947 1 is_stmt 0
	.thumb
	.syntax unified
	b	.L193
.L206:
.LBE577:
.LBE576:
	.loc 1 1430 9 is_stmt 1
	.loc 1 1430 21 is_stmt 0
	bl	HAL_GetTick
.LVL190:
	mov	r9, r0
.LVL191:
	.loc 1 1433 9 is_stmt 1
.L196:
	.loc 1 1433 44
	.loc 1 1433 16 is_stmt 0
	mov	r0, r4
	bl	HAL_NAND_Read_Status
.LVL192:
	.loc 1 1433 44
	cmp	r0, #64
	beq	.L205
	.loc 1 1435 11 is_stmt 1
	.loc 1 1435 16 is_stmt 0
	bl	HAL_GetTick
.LVL193:
	.loc 1 1435 30
	sub	r0, r0, r9
	.loc 1 1435 14
	cmp	r0, #16777216
	bls	.L196
	.loc 1 1438 13 is_stmt 1
	.loc 1 1438 26 is_stmt 0
	movs	r0, #3
	strb	r0, [r4, #33]
	.loc 1 1441 13 is_stmt 1
	.loc 1 1441 17
	.loc 1 1441 31 is_stmt 0
	movs	r3, #0
	strb	r3, [r4, #32]
	.loc 1 1441 15 is_stmt 1
	.loc 1 1443 13
	.loc 1 1443 20 is_stmt 0
	b	.L189
.L205:
	.loc 1 1448 9 is_stmt 1
	.loc 1 1448 71 is_stmt 0
	ldr	r3, .L207+4
	movs	r2, #0
	strb	r2, [r3]
	.loc 1 1449 9 is_stmt 1
.LBB578:
.LBB579:
	.loc 2 946 3
	.syntax unified
@ 946 "d:\rtos\board\yd-stm32h7xxvx_classicv19\cmake-build-debug\_deps\stm32h7xx_cmsis_include\drivers\cmsis\include\cmsis_gcc.h" 1
	dsb 0xF
@ 0 "" 2
	.loc 2 947 1 is_stmt 0
	.thumb
	.syntax unified
	b	.L195
.LVL194:
.L199:
.LBE579:
.LBE578:
	.loc 1 1455 9 is_stmt 1 discriminator 3
	.loc 1 1455 17 is_stmt 0 discriminator 3
	mov	r3, #-2147483648
	ldrh	r2, [r3]
	.loc 1 1455 15 discriminator 3
	strh	r2, [r5], #2	@ movhi
.LVL195:
	.loc 1 1456 9 is_stmt 1 discriminator 3
	.loc 1 1453 66 discriminator 3
	adds	r1, r1, #1
.LVL196:
.L198:
	.loc 1 1453 30 discriminator 1
	.loc 1 1453 45 is_stmt 0 discriminator 1
	ldr	r0, [r4, #40]
	.loc 1 1453 30 discriminator 1
	cmp	r0, r1
	bhi	.L199
	.loc 1 1460 7 is_stmt 1
	.loc 1 1463 7
	.loc 1 1463 14 is_stmt 0
	subs	r7, r7, #1
.LVL197:
	.loc 1 1466 7 is_stmt 1
	.loc 1 1466 19 is_stmt 0
	adds	r6, r6, #1
.LVL198:
.L190:
	.loc 1 1362 28 is_stmt 1
	cbz	r7, .L200
	.loc 1 1362 61 is_stmt 0 discriminator 1
	ldr	r3, [r4, #44]
	.loc 1 1362 89 discriminator 1
	ldr	r2, [r4, #48]
	.loc 1 1362 73 discriminator 1
	mul	r3, r2, r3
	.loc 1 1362 28 discriminator 1
	cmp	r3, r6
	bls	.L200
	.loc 1 1365 7 is_stmt 1
	.loc 1 1365 25 is_stmt 0
	ldr	r3, [r4, #36]
	.loc 1 1365 10
	cmp	r3, #512
	bhi	.L191
	.loc 1 1368 9 is_stmt 1
	.loc 1 1368 71 is_stmt 0
	ldr	r3, .L207+4
	movs	r2, #80
	strb	r2, [r3]
	.loc 1 1369 9 is_stmt 1
.LBB580:
.LBB581:
	.loc 2 946 3
	.syntax unified
@ 946 "d:\rtos\board\yd-stm32h7xxvx_classicv19\cmake-build-debug\_deps\stm32h7xx_cmsis_include\drivers\cmsis\include\cmsis_gcc.h" 1
	dsb 0xF
@ 0 "" 2
	.thumb
	.syntax unified
.LBE581:
.LBE580:
	.loc 1 1371 9
	.loc 1 1371 28 is_stmt 0
	ldr	r3, [r4, #44]
	.loc 1 1371 56
	ldr	r2, [r4, #48]
	.loc 1 1371 40
	mul	r3, r2, r3
	.loc 1 1371 12
	cmp	r3, #65536
	bcs	.L192
	.loc 1 1373 11 is_stmt 1
	.loc 1 1373 73 is_stmt 0
	ldr	r3, .L207
	movs	r2, #0
	strb	r2, [r3]
	.loc 1 1374 11 is_stmt 1
.LBB582:
.LBB583:
	.loc 2 946 3
	.syntax unified
@ 946 "d:\rtos\board\yd-stm32h7xxvx_classicv19\cmake-build-debug\_deps\stm32h7xx_cmsis_include\drivers\cmsis\include\cmsis_gcc.h" 1
	dsb 0xF
@ 0 "" 2
	.thumb
	.syntax unified
.LBE583:
.LBE582:
	.loc 1 1375 11
	.loc 1 1375 75 is_stmt 0
	uxtb	r2, r6
	.loc 1 1375 73
	strb	r2, [r3]
	.loc 1 1376 11 is_stmt 1
.LBB584:
.LBB585:
	.loc 2 946 3
	.syntax unified
@ 946 "d:\rtos\board\yd-stm32h7xxvx_classicv19\cmake-build-debug\_deps\stm32h7xx_cmsis_include\drivers\cmsis\include\cmsis_gcc.h" 1
	dsb 0xF
@ 0 "" 2
	.thumb
	.syntax unified
.LBE585:
.LBE584:
	.loc 1 1377 11
	.loc 1 1377 75 is_stmt 0
	ubfx	r2, r6, #8, #8
	.loc 1 1377 73
	strb	r2, [r3]
	.loc 1 1378 11 is_stmt 1
.LBB586:
.LBB587:
	.loc 2 946 3
	.syntax unified
@ 946 "d:\rtos\board\yd-stm32h7xxvx_classicv19\cmake-build-debug\_deps\stm32h7xx_cmsis_include\drivers\cmsis\include\cmsis_gcc.h" 1
	dsb 0xF
@ 0 "" 2
	.thumb
	.syntax unified
.L193:
.LBE587:
.LBE586:
	.loc 1 1424 7
	.loc 1 1424 69 is_stmt 0
	ldr	r3, .L207+4
	movs	r2, #48
	strb	r2, [r3]
	.loc 1 1425 7 is_stmt 1
.LBB588:
.LBB589:
	.loc 2 946 3
	.syntax unified
@ 946 "d:\rtos\board\yd-stm32h7xxvx_classicv19\cmake-build-debug\_deps\stm32h7xx_cmsis_include\drivers\cmsis\include\cmsis_gcc.h" 1
	dsb 0xF
@ 0 "" 2
	.thumb
	.syntax unified
.LBE589:
.LBE588:
	.loc 1 1427 7
	.loc 1 1427 24 is_stmt 0
	ldrb	r3, [r4, #60]	@ zero_extendqisi2
	.loc 1 1427 10
	cmp	r3, #1
	beq	.L206
.L195:
	.loc 1 1329 1 discriminator 1
	movs	r1, #0
	b	.L198
.L200:
	.loc 1 1470 5 is_stmt 1
	.loc 1 1470 18 is_stmt 0
	movs	r3, #1
	strb	r3, [r4, #33]
	.loc 1 1473 5 is_stmt 1
	.loc 1 1473 9
	.loc 1 1473 23 is_stmt 0
	movs	r0, #0
	strb	r0, [r4, #32]
	.loc 1 1473 7 is_stmt 1
	.loc 1 1480 3
	.loc 1 1480 10 is_stmt 0
	b	.L189
.LVL199:
.L202:
	.loc 1 1477 12
	movs	r0, #1
.LVL200:
.L189:
	.loc 1 1481 1
	pop	{r3, r4, r5, r6, r7, r8, r9, pc}
.LVL201:
.L203:
	.loc 1 1347 50
	movs	r0, #2
	b	.L189
.L208:
	.align	2
.L207:
	.word	-2147352576
	.word	-2147418112
	.cfi_endproc
.LFE349:
	.size	HAL_NAND_Read_SpareArea_16b, .-HAL_NAND_Read_SpareArea_16b
	.section	.text.HAL_NAND_Write_SpareArea_8b,"ax",%progbits
	.align	1
	.global	HAL_NAND_Write_SpareArea_8b
	.syntax unified
	.thumb
	.thumb_func
	.type	HAL_NAND_Write_SpareArea_8b, %function
HAL_NAND_Write_SpareArea_8b:
.LFB350:
	.loc 1 1494 1 is_stmt 1
	.cfi_startproc
	@ args = 0, pretend = 0, frame = 0
	@ frame_needed = 0, uses_anonymous_args = 0
.LVL202:
	push	{r3, r4, r5, r6, r7, r8, r9, lr}
	.cfi_def_cfa_offset 32
	.cfi_offset 3, -32
	.cfi_offset 4, -28
	.cfi_offset 5, -24
	.cfi_offset 6, -20
	.cfi_offset 7, -16
	.cfi_offset 8, -12
	.cfi_offset 9, -8
	.cfi_offset 14, -4
	mov	r4, r0
	.loc 1 1495 3
	.loc 1 1496 3
	.loc 1 1497 3
	.loc 1 1498 3
.LVL203:
	.loc 1 1499 3
	.loc 1 1500 3
	.loc 1 1501 3
	.loc 1 1502 3
	.loc 1 1505 3
	.loc 1 1505 12 is_stmt 0
	ldrb	r0, [r0, #33]	@ zero_extendqisi2
.LVL204:
	uxtb	r0, r0
	.loc 1 1505 6
	cmp	r0, #2
	beq	.L210
	mov	r5, r2
	mov	r6, r3
	.loc 1 1509 8 is_stmt 1
	.loc 1 1509 17 is_stmt 0
	ldrb	r3, [r4, #33]	@ zero_extendqisi2
.LVL205:
	uxtb	r3, r3
	.loc 1 1509 11
	cmp	r3, #1
	bne	.L222
	.loc 1 1512 5 is_stmt 1
	.loc 1 1512 9
	.loc 1 1512 19 is_stmt 0
	ldrb	r3, [r4, #32]	@ zero_extendqisi2
	.loc 1 1512 11
	cmp	r3, #1
	beq	.L223
	.loc 1 1512 69 is_stmt 1 discriminator 2
	.loc 1 1512 83 is_stmt 0 discriminator 2
	movs	r3, #1
	strb	r3, [r4, #32]
	.loc 1 1512 7 is_stmt 1 discriminator 2
	.loc 1 1515 5 discriminator 2
	.loc 1 1515 18 is_stmt 0 discriminator 2
	movs	r3, #2
	strb	r3, [r4, #33]
	.loc 1 1518 5 is_stmt 1 discriminator 2
.LVL206:
	.loc 1 1521 5 discriminator 2
	.loc 1 1521 30 is_stmt 0 discriminator 2
	ldrh	r7, [r1]
	.loc 1 1521 51 discriminator 2
	ldrh	r3, [r1, #4]
	.loc 1 1521 73 discriminator 2
	ldrh	r2, [r1, #2]
.LVL207:
	.loc 1 1521 100 discriminator 2
	ldr	r1, [r4, #56]
.LVL208:
	.loc 1 1521 59 discriminator 2
	mla	r3, r1, r2, r3
	.loc 1 1521 132 discriminator 2
	ldr	r2, [r4, #44]
	.loc 1 1521 17 discriminator 2
	mla	r7, r2, r3, r7
.LVL209:
	.loc 1 1524 5 is_stmt 1 discriminator 2
	.loc 1 1524 19 is_stmt 0 discriminator 2
	ldr	r8, [r4, #36]
.LVL210:
	.loc 1 1527 5 is_stmt 1 discriminator 2
.L211:
	.loc 1 1527 28
	cmp	r6, #0
	beq	.L220
	.loc 1 1527 61 is_stmt 0 discriminator 1
	ldr	r3, [r4, #44]
	.loc 1 1527 89 discriminator 1
	ldr	r2, [r4, #48]
	.loc 1 1527 73 discriminator 1
	mul	r3, r2, r3
	.loc 1 1527 28 discriminator 1
	cmp	r3, r7
	bls	.L220
	.loc 1 1530 7 is_stmt 1
	.loc 1 1530 25 is_stmt 0
	ldr	r3, [r4, #36]
	.loc 1 1530 10
	cmp	r3, #512
	bhi	.L212
	.loc 1 1533 9 is_stmt 1
	.loc 1 1533 71 is_stmt 0
	ldr	r3, .L227
	movs	r2, #80
	strb	r2, [r3]
	.loc 1 1534 9 is_stmt 1
.LBB590:
.LBB591:
	.loc 2 946 3
	.syntax unified
@ 946 "d:\rtos\board\yd-stm32h7xxvx_classicv19\cmake-build-debug\_deps\stm32h7xx_cmsis_include\drivers\cmsis\include\cmsis_gcc.h" 1
	dsb 0xF
@ 0 "" 2
	.thumb
	.syntax unified
.LBE591:
.LBE590:
	.loc 1 1535 9
	.loc 1 1535 71 is_stmt 0
	movs	r2, #128
	strb	r2, [r3]
	.loc 1 1536 9 is_stmt 1
.LBB592:
.LBB593:
	.loc 2 946 3
	.syntax unified
@ 946 "d:\rtos\board\yd-stm32h7xxvx_classicv19\cmake-build-debug\_deps\stm32h7xx_cmsis_include\drivers\cmsis\include\cmsis_gcc.h" 1
	dsb 0xF
@ 0 "" 2
	.thumb
	.syntax unified
.LBE593:
.LBE592:
	.loc 1 1538 9
	.loc 1 1538 28 is_stmt 0
	ldr	r3, [r4, #44]
	.loc 1 1538 56
	ldr	r2, [r4, #48]
	.loc 1 1538 40
	mul	r3, r2, r3
	.loc 1 1538 12
	cmp	r3, #65536
	bcs	.L213
	.loc 1 1540 11 is_stmt 1
	.loc 1 1540 73 is_stmt 0
	ldr	r3, .L227+4
	movs	r2, #0
	strb	r2, [r3]
	.loc 1 1541 11 is_stmt 1
.LBB594:
.LBB595:
	.loc 2 946 3
	.syntax unified
@ 946 "d:\rtos\board\yd-stm32h7xxvx_classicv19\cmake-build-debug\_deps\stm32h7xx_cmsis_include\drivers\cmsis\include\cmsis_gcc.h" 1
	dsb 0xF
@ 0 "" 2
	.thumb
	.syntax unified
.LBE595:
.LBE594:
	.loc 1 1542 11
	.loc 1 1542 75 is_stmt 0
	uxtb	r2, r7
	.loc 1 1542 73
	strb	r2, [r3]
	.loc 1 1543 11 is_stmt 1
.LBB596:
.LBB597:
	.loc 2 946 3
	.syntax unified
@ 946 "d:\rtos\board\yd-stm32h7xxvx_classicv19\cmake-build-debug\_deps\stm32h7xx_cmsis_include\drivers\cmsis\include\cmsis_gcc.h" 1
	dsb 0xF
@ 0 "" 2
	.thumb
	.syntax unified
.LBE597:
.LBE596:
	.loc 1 1544 11
	.loc 1 1544 75 is_stmt 0
	ubfx	r2, r7, #8, #8
	.loc 1 1544 73
	strb	r2, [r3]
	.loc 1 1545 11 is_stmt 1
.LBB598:
.LBB599:
	.loc 2 946 3
	.syntax unified
@ 946 "d:\rtos\board\yd-stm32h7xxvx_classicv19\cmake-build-debug\_deps\stm32h7xx_cmsis_include\drivers\cmsis\include\cmsis_gcc.h" 1
	dsb 0xF
@ 0 "" 2
	.thumb
	.syntax unified
.L214:
.LBE599:
.LBE598:
	.loc 1 1494 1 is_stmt 0 discriminator 1
	movs	r1, #0
.L216:
.LVL211:
	.loc 1 1594 30 is_stmt 1 discriminator 1
	.loc 1 1594 45 is_stmt 0 discriminator 1
	ldr	r3, [r4, #40]
	.loc 1 1594 30 discriminator 1
	cmp	r3, r1
	bls	.L225
	.loc 1 1596 9 is_stmt 1 discriminator 3
	.loc 1 1596 46 is_stmt 0 discriminator 3
	ldrb	r2, [r5], #1	@ zero_extendqisi2
.LVL212:
	.loc 1 1596 44 discriminator 3
	mov	r3, #-2147483648
	strb	r2, [r3]
	.loc 1 1597 9 is_stmt 1 discriminator 3
.LVL213:
	.loc 1 1598 9 discriminator 3
.LBB600:
.LBB601:
	.loc 2 946 3 discriminator 3
	.syntax unified
@ 946 "d:\rtos\board\yd-stm32h7xxvx_classicv19\cmake-build-debug\_deps\stm32h7xx_cmsis_include\drivers\cmsis\include\cmsis_gcc.h" 1
	dsb 0xF
@ 0 "" 2
	.thumb
	.syntax unified
.LBE601:
.LBE600:
	.loc 1 1594 66 discriminator 3
	adds	r1, r1, #1
.LVL214:
	b	.L216
.LVL215:
.L213:
	.loc 1 1549 11
	.loc 1 1549 73 is_stmt 0
	ldr	r3, .L227+4
	movs	r2, #0
	strb	r2, [r3]
	.loc 1 1550 11 is_stmt 1
.LBB602:
.LBB603:
	.loc 2 946 3
	.syntax unified
@ 946 "d:\rtos\board\yd-stm32h7xxvx_classicv19\cmake-build-debug\_deps\stm32h7xx_cmsis_include\drivers\cmsis\include\cmsis_gcc.h" 1
	dsb 0xF
@ 0 "" 2
	.thumb
	.syntax unified
.LBE603:
.LBE602:
	.loc 1 1551 11
	.loc 1 1551 75 is_stmt 0
	uxtb	r2, r7
	.loc 1 1551 73
	strb	r2, [r3]
	.loc 1 1552 11 is_stmt 1
.LBB604:
.LBB605:
	.loc 2 946 3
	.syntax unified
@ 946 "d:\rtos\board\yd-stm32h7xxvx_classicv19\cmake-build-debug\_deps\stm32h7xx_cmsis_include\drivers\cmsis\include\cmsis_gcc.h" 1
	dsb 0xF
@ 0 "" 2
	.thumb
	.syntax unified
.LBE605:
.LBE604:
	.loc 1 1553 11
	.loc 1 1553 75 is_stmt 0
	ubfx	r2, r7, #8, #8
	.loc 1 1553 73
	strb	r2, [r3]
	.loc 1 1554 11 is_stmt 1
.LBB606:
.LBB607:
	.loc 2 946 3
	.syntax unified
@ 946 "d:\rtos\board\yd-stm32h7xxvx_classicv19\cmake-build-debug\_deps\stm32h7xx_cmsis_include\drivers\cmsis\include\cmsis_gcc.h" 1
	dsb 0xF
@ 0 "" 2
	.thumb
	.syntax unified
.LBE607:
.LBE606:
	.loc 1 1555 11
	.loc 1 1555 75 is_stmt 0
	ubfx	r2, r7, #16, #8
	.loc 1 1555 73
	strb	r2, [r3]
	.loc 1 1556 11 is_stmt 1
.LBB608:
.LBB609:
	.loc 2 946 3
	.syntax unified
@ 946 "d:\rtos\board\yd-stm32h7xxvx_classicv19\cmake-build-debug\_deps\stm32h7xx_cmsis_include\drivers\cmsis\include\cmsis_gcc.h" 1
	dsb 0xF
@ 0 "" 2
	.loc 2 947 1 is_stmt 0
	.thumb
	.syntax unified
	b	.L214
.L212:
.LBE609:
.LBE608:
	.loc 1 1562 9 is_stmt 1
	.loc 1 1562 71 is_stmt 0
	ldr	r3, .L227
	movs	r2, #0
	strb	r2, [r3]
	.loc 1 1563 9 is_stmt 1
.LBB610:
.LBB611:
	.loc 2 946 3
	.syntax unified
@ 946 "d:\rtos\board\yd-stm32h7xxvx_classicv19\cmake-build-debug\_deps\stm32h7xx_cmsis_include\drivers\cmsis\include\cmsis_gcc.h" 1
	dsb 0xF
@ 0 "" 2
	.thumb
	.syntax unified
.LBE611:
.LBE610:
	.loc 1 1564 9
	.loc 1 1564 71 is_stmt 0
	movs	r2, #128
	strb	r2, [r3]
	.loc 1 1565 9 is_stmt 1
.LBB612:
.LBB613:
	.loc 2 946 3
	.syntax unified
@ 946 "d:\rtos\board\yd-stm32h7xxvx_classicv19\cmake-build-debug\_deps\stm32h7xx_cmsis_include\drivers\cmsis\include\cmsis_gcc.h" 1
	dsb 0xF
@ 0 "" 2
	.thumb
	.syntax unified
.LBE613:
.LBE612:
	.loc 1 1567 9
	.loc 1 1567 28 is_stmt 0
	ldr	r3, [r4, #44]
	.loc 1 1567 56
	ldr	r2, [r4, #48]
	.loc 1 1567 40
	mul	r3, r2, r3
	.loc 1 1567 12
	cmp	r3, #65536
	bcs	.L215
	.loc 1 1569 11 is_stmt 1
	.loc 1 1569 75 is_stmt 0
	uxtb	r2, r8
	.loc 1 1569 73
	ldr	r3, .L227+4
	strb	r2, [r3]
	.loc 1 1570 11 is_stmt 1
.LBB614:
.LBB615:
	.loc 2 946 3
	.syntax unified
@ 946 "d:\rtos\board\yd-stm32h7xxvx_classicv19\cmake-build-debug\_deps\stm32h7xx_cmsis_include\drivers\cmsis\include\cmsis_gcc.h" 1
	dsb 0xF
@ 0 "" 2
	.thumb
	.syntax unified
.LBE615:
.LBE614:
	.loc 1 1571 11
	.loc 1 1571 75 is_stmt 0
	ubfx	r2, r8, #8, #8
	.loc 1 1571 73
	strb	r2, [r3]
	.loc 1 1572 11 is_stmt 1
.LBB616:
.LBB617:
	.loc 2 946 3
	.syntax unified
@ 946 "d:\rtos\board\yd-stm32h7xxvx_classicv19\cmake-build-debug\_deps\stm32h7xx_cmsis_include\drivers\cmsis\include\cmsis_gcc.h" 1
	dsb 0xF
@ 0 "" 2
	.thumb
	.syntax unified
.LBE617:
.LBE616:
	.loc 1 1573 11
	.loc 1 1573 75 is_stmt 0
	uxtb	r2, r7
	.loc 1 1573 73
	strb	r2, [r3]
	.loc 1 1574 11 is_stmt 1
.LBB618:
.LBB619:
	.loc 2 946 3
	.syntax unified
@ 946 "d:\rtos\board\yd-stm32h7xxvx_classicv19\cmake-build-debug\_deps\stm32h7xx_cmsis_include\drivers\cmsis\include\cmsis_gcc.h" 1
	dsb 0xF
@ 0 "" 2
	.thumb
	.syntax unified
.LBE619:
.LBE618:
	.loc 1 1575 11
	.loc 1 1575 75 is_stmt 0
	ubfx	r2, r7, #8, #8
	.loc 1 1575 73
	strb	r2, [r3]
	.loc 1 1576 11 is_stmt 1
.LBB620:
.LBB621:
	.loc 2 946 3
	.syntax unified
@ 946 "d:\rtos\board\yd-stm32h7xxvx_classicv19\cmake-build-debug\_deps\stm32h7xx_cmsis_include\drivers\cmsis\include\cmsis_gcc.h" 1
	dsb 0xF
@ 0 "" 2
	.loc 2 947 1 is_stmt 0
	.thumb
	.syntax unified
	b	.L214
.L215:
.LBE621:
.LBE620:
	.loc 1 1580 11 is_stmt 1
	.loc 1 1580 75 is_stmt 0
	uxtb	r2, r8
	.loc 1 1580 73
	ldr	r3, .L227+4
	strb	r2, [r3]
	.loc 1 1581 11 is_stmt 1
.LBB622:
.LBB623:
	.loc 2 946 3
	.syntax unified
@ 946 "d:\rtos\board\yd-stm32h7xxvx_classicv19\cmake-build-debug\_deps\stm32h7xx_cmsis_include\drivers\cmsis\include\cmsis_gcc.h" 1
	dsb 0xF
@ 0 "" 2
	.thumb
	.syntax unified
.LBE623:
.LBE622:
	.loc 1 1582 11
	.loc 1 1582 75 is_stmt 0
	ubfx	r2, r8, #8, #8
	.loc 1 1582 73
	strb	r2, [r3]
	.loc 1 1583 11 is_stmt 1
.LBB624:
.LBB625:
	.loc 2 946 3
	.syntax unified
@ 946 "d:\rtos\board\yd-stm32h7xxvx_classicv19\cmake-build-debug\_deps\stm32h7xx_cmsis_include\drivers\cmsis\include\cmsis_gcc.h" 1
	dsb 0xF
@ 0 "" 2
	.thumb
	.syntax unified
.LBE625:
.LBE624:
	.loc 1 1584 11
	.loc 1 1584 75 is_stmt 0
	uxtb	r2, r7
	.loc 1 1584 73
	strb	r2, [r3]
	.loc 1 1585 11 is_stmt 1
.LBB626:
.LBB627:
	.loc 2 946 3
	.syntax unified
@ 946 "d:\rtos\board\yd-stm32h7xxvx_classicv19\cmake-build-debug\_deps\stm32h7xx_cmsis_include\drivers\cmsis\include\cmsis_gcc.h" 1
	dsb 0xF
@ 0 "" 2
	.thumb
	.syntax unified
.LBE627:
.LBE626:
	.loc 1 1586 11
	.loc 1 1586 75 is_stmt 0
	ubfx	r2, r7, #8, #8
	.loc 1 1586 73
	strb	r2, [r3]
	.loc 1 1587 11 is_stmt 1
.LBB628:
.LBB629:
	.loc 2 946 3
	.syntax unified
@ 946 "d:\rtos\board\yd-stm32h7xxvx_classicv19\cmake-build-debug\_deps\stm32h7xx_cmsis_include\drivers\cmsis\include\cmsis_gcc.h" 1
	dsb 0xF
@ 0 "" 2
	.thumb
	.syntax unified
.LBE629:
.LBE628:
	.loc 1 1588 11
	.loc 1 1588 75 is_stmt 0
	ubfx	r2, r7, #16, #8
	.loc 1 1588 73
	strb	r2, [r3]
	.loc 1 1589 11 is_stmt 1
.LBB630:
.LBB631:
	.loc 2 946 3
	.syntax unified
@ 946 "d:\rtos\board\yd-stm32h7xxvx_classicv19\cmake-build-debug\_deps\stm32h7xx_cmsis_include\drivers\cmsis\include\cmsis_gcc.h" 1
	dsb 0xF
@ 0 "" 2
	.loc 2 947 1 is_stmt 0
	.thumb
	.syntax unified
	b	.L214
.LVL216:
.L225:
.LBE631:
.LBE630:
	.loc 1 1601 7 is_stmt 1
	.loc 1 1601 69 is_stmt 0
	ldr	r3, .L227
	movs	r2, #16
	strb	r2, [r3]
	.loc 1 1602 7 is_stmt 1
.LBB632:
.LBB633:
	.loc 2 946 3
	.syntax unified
@ 946 "d:\rtos\board\yd-stm32h7xxvx_classicv19\cmake-build-debug\_deps\stm32h7xx_cmsis_include\drivers\cmsis\include\cmsis_gcc.h" 1
	dsb 0xF
@ 0 "" 2
	.thumb
	.syntax unified
.LBE633:
.LBE632:
	.loc 1 1605 7
	.loc 1 1605 19 is_stmt 0
	bl	HAL_GetTick
.LVL217:
	mov	r9, r0
.LVL218:
	.loc 1 1608 7 is_stmt 1
.L218:
	.loc 1 1608 42
	.loc 1 1608 14 is_stmt 0
	mov	r0, r4
	bl	HAL_NAND_Read_Status
.LVL219:
	.loc 1 1608 42
	cmp	r0, #64
	beq	.L226
	.loc 1 1610 9 is_stmt 1
	.loc 1 1610 14 is_stmt 0
	bl	HAL_GetTick
.LVL220:
	.loc 1 1610 28
	sub	r1, r0, r9
	.loc 1 1610 12
	cmp	r1, #16777216
	bls	.L218
	.loc 1 1613 11 is_stmt 1
	.loc 1 1613 24 is_stmt 0
	movs	r0, #3
	strb	r0, [r4, #33]
	.loc 1 1616 11 is_stmt 1
	.loc 1 1616 15
	.loc 1 1616 29 is_stmt 0
	movs	r3, #0
	strb	r3, [r4, #32]
	.loc 1 1616 13 is_stmt 1
	.loc 1 1618 11
	.loc 1 1618 18 is_stmt 0
	b	.L210
.L226:
	.loc 1 1623 7 is_stmt 1
	.loc 1 1626 7
	.loc 1 1626 14 is_stmt 0
	subs	r6, r6, #1
.LVL221:
	.loc 1 1629 7 is_stmt 1
	.loc 1 1629 19 is_stmt 0
	adds	r7, r7, #1
.LVL222:
	b	.L211
.LVL223:
.L220:
	.loc 1 1633 5 is_stmt 1
	.loc 1 1633 18 is_stmt 0
	movs	r3, #1
	strb	r3, [r4, #33]
	.loc 1 1636 5 is_stmt 1
	.loc 1 1636 9
	.loc 1 1636 23 is_stmt 0
	movs	r0, #0
	strb	r0, [r4, #32]
	.loc 1 1636 7 is_stmt 1
	.loc 1 1643 3
	.loc 1 1643 10 is_stmt 0
	b	.L210
.LVL224:
.L222:
	.loc 1 1640 12
	movs	r0, #1
.LVL225:
.L210:
	.loc 1 1644 1
	pop	{r3, r4, r5, r6, r7, r8, r9, pc}
.LVL226:
.L223:
	.loc 1 1512 50
	movs	r0, #2
	b	.L210
.L228:
	.align	2
.L227:
	.word	-2147418112
	.word	-2147352576
	.cfi_endproc
.LFE350:
	.size	HAL_NAND_Write_SpareArea_8b, .-HAL_NAND_Write_SpareArea_8b
	.section	.text.HAL_NAND_Write_SpareArea_16b,"ax",%progbits
	.align	1
	.global	HAL_NAND_Write_SpareArea_16b
	.syntax unified
	.thumb
	.thumb_func
	.type	HAL_NAND_Write_SpareArea_16b, %function
HAL_NAND_Write_SpareArea_16b:
.LFB351:
	.loc 1 1657 1 is_stmt 1
	.cfi_startproc
	@ args = 0, pretend = 0, frame = 0
	@ frame_needed = 0, uses_anonymous_args = 0
.LVL227:
	push	{r3, r4, r5, r6, r7, r8, r9, lr}
	.cfi_def_cfa_offset 32
	.cfi_offset 3, -32
	.cfi_offset 4, -28
	.cfi_offset 5, -24
	.cfi_offset 6, -20
	.cfi_offset 7, -16
	.cfi_offset 8, -12
	.cfi_offset 9, -8
	.cfi_offset 14, -4
	mov	r4, r0
	.loc 1 1658 3
	.loc 1 1659 3
	.loc 1 1660 3
	.loc 1 1661 3
.LVL228:
	.loc 1 1662 3
	.loc 1 1663 3
	.loc 1 1664 3
	.loc 1 1665 3
	.loc 1 1668 3
	.loc 1 1668 12 is_stmt 0
	ldrb	r0, [r0, #33]	@ zero_extendqisi2
.LVL229:
	uxtb	r0, r0
	.loc 1 1668 6
	cmp	r0, #2
	beq	.L230
	mov	r5, r2
	mov	r6, r3
	.loc 1 1672 8 is_stmt 1
	.loc 1 1672 17 is_stmt 0
	ldrb	r3, [r4, #33]	@ zero_extendqisi2
.LVL230:
	uxtb	r3, r3
	.loc 1 1672 11
	cmp	r3, #1
	bne	.L242
	.loc 1 1675 5 is_stmt 1
	.loc 1 1675 9
	.loc 1 1675 19 is_stmt 0
	ldrb	r3, [r4, #32]	@ zero_extendqisi2
	.loc 1 1675 11
	cmp	r3, #1
	beq	.L243
	.loc 1 1675 69 is_stmt 1 discriminator 2
	.loc 1 1675 83 is_stmt 0 discriminator 2
	movs	r3, #1
	strb	r3, [r4, #32]
	.loc 1 1675 7 is_stmt 1 discriminator 2
	.loc 1 1678 5 discriminator 2
	.loc 1 1678 18 is_stmt 0 discriminator 2
	movs	r3, #2
	strb	r3, [r4, #33]
	.loc 1 1681 5 is_stmt 1 discriminator 2
.LVL231:
	.loc 1 1684 5 discriminator 2
	.loc 1 1684 30 is_stmt 0 discriminator 2
	ldrh	r7, [r1]
	.loc 1 1684 51 discriminator 2
	ldrh	r3, [r1, #4]
	.loc 1 1684 73 discriminator 2
	ldrh	r2, [r1, #2]
.LVL232:
	.loc 1 1684 100 discriminator 2
	ldr	r1, [r4, #56]
.LVL233:
	.loc 1 1684 59 discriminator 2
	mla	r3, r1, r2, r3
	.loc 1 1684 132 discriminator 2
	ldr	r2, [r4, #44]
	.loc 1 1684 17 discriminator 2
	mla	r7, r2, r3, r7
.LVL234:
	.loc 1 1687 5 is_stmt 1 discriminator 2
	.loc 1 1687 19 is_stmt 0 discriminator 2
	ldr	r8, [r4, #36]
.LVL235:
	.loc 1 1690 5 is_stmt 1 discriminator 2
.L231:
	.loc 1 1690 28
	cmp	r6, #0
	beq	.L240
	.loc 1 1690 61 is_stmt 0 discriminator 1
	ldr	r3, [r4, #44]
	.loc 1 1690 89 discriminator 1
	ldr	r2, [r4, #48]
	.loc 1 1690 73 discriminator 1
	mul	r3, r2, r3
	.loc 1 1690 28 discriminator 1
	cmp	r3, r7
	bls	.L240
	.loc 1 1693 7 is_stmt 1
	.loc 1 1693 25 is_stmt 0
	ldr	r3, [r4, #36]
	.loc 1 1693 10
	cmp	r3, #512
	bhi	.L232
	.loc 1 1696 9 is_stmt 1
	.loc 1 1696 71 is_stmt 0
	ldr	r3, .L247
	movs	r2, #80
	strb	r2, [r3]
	.loc 1 1697 9 is_stmt 1
.LBB634:
.LBB635:
	.loc 2 946 3
	.syntax unified
@ 946 "d:\rtos\board\yd-stm32h7xxvx_classicv19\cmake-build-debug\_deps\stm32h7xx_cmsis_include\drivers\cmsis\include\cmsis_gcc.h" 1
	dsb 0xF
@ 0 "" 2
	.thumb
	.syntax unified
.LBE635:
.LBE634:
	.loc 1 1698 9
	.loc 1 1698 71 is_stmt 0
	movs	r2, #128
	strb	r2, [r3]
	.loc 1 1699 9 is_stmt 1
.LBB636:
.LBB637:
	.loc 2 946 3
	.syntax unified
@ 946 "d:\rtos\board\yd-stm32h7xxvx_classicv19\cmake-build-debug\_deps\stm32h7xx_cmsis_include\drivers\cmsis\include\cmsis_gcc.h" 1
	dsb 0xF
@ 0 "" 2
	.thumb
	.syntax unified
.LBE637:
.LBE636:
	.loc 1 1701 9
	.loc 1 1701 28 is_stmt 0
	ldr	r3, [r4, #44]
	.loc 1 1701 56
	ldr	r2, [r4, #48]
	.loc 1 1701 40
	mul	r3, r2, r3
	.loc 1 1701 12
	cmp	r3, #65536
	bcs	.L233
	.loc 1 1703 11 is_stmt 1
	.loc 1 1703 73 is_stmt 0
	ldr	r3, .L247+4
	movs	r2, #0
	strb	r2, [r3]
	.loc 1 1704 11 is_stmt 1
.LBB638:
.LBB639:
	.loc 2 946 3
	.syntax unified
@ 946 "d:\rtos\board\yd-stm32h7xxvx_classicv19\cmake-build-debug\_deps\stm32h7xx_cmsis_include\drivers\cmsis\include\cmsis_gcc.h" 1
	dsb 0xF
@ 0 "" 2
	.thumb
	.syntax unified
.LBE639:
.LBE638:
	.loc 1 1705 11
	.loc 1 1705 75 is_stmt 0
	uxtb	r2, r7
	.loc 1 1705 73
	strb	r2, [r3]
	.loc 1 1706 11 is_stmt 1
.LBB640:
.LBB641:
	.loc 2 946 3
	.syntax unified
@ 946 "d:\rtos\board\yd-stm32h7xxvx_classicv19\cmake-build-debug\_deps\stm32h7xx_cmsis_include\drivers\cmsis\include\cmsis_gcc.h" 1
	dsb 0xF
@ 0 "" 2
	.thumb
	.syntax unified
.LBE641:
.LBE640:
	.loc 1 1707 11
	.loc 1 1707 75 is_stmt 0
	ubfx	r2, r7, #8, #8
	.loc 1 1707 73
	strb	r2, [r3]
	.loc 1 1708 11 is_stmt 1
.LBB642:
.LBB643:
	.loc 2 946 3
	.syntax unified
@ 946 "d:\rtos\board\yd-stm32h7xxvx_classicv19\cmake-build-debug\_deps\stm32h7xx_cmsis_include\drivers\cmsis\include\cmsis_gcc.h" 1
	dsb 0xF
@ 0 "" 2
	.thumb
	.syntax unified
.L234:
.LBE643:
.LBE642:
	.loc 1 1657 1 is_stmt 0 discriminator 1
	movs	r1, #0
.L236:
.LVL236:
	.loc 1 1757 30 is_stmt 1 discriminator 1
	.loc 1 1757 45 is_stmt 0 discriminator 1
	ldr	r3, [r4, #40]
	.loc 1 1757 30 discriminator 1
	cmp	r3, r1
	bls	.L245
	.loc 1 1759 9 is_stmt 1 discriminator 3
	.loc 1 1759 47 is_stmt 0 discriminator 3
	ldrh	r2, [r5], #2
.LVL237:
	.loc 1 1759 45 discriminator 3
	mov	r3, #-2147483648
	strh	r2, [r3]	@ movhi
	.loc 1 1760 9 is_stmt 1 discriminator 3
.LVL238:
	.loc 1 1761 9 discriminator 3
.LBB644:
.LBB645:
	.loc 2 946 3 discriminator 3
	.syntax unified
@ 946 "d:\rtos\board\yd-stm32h7xxvx_classicv19\cmake-build-debug\_deps\stm32h7xx_cmsis_include\drivers\cmsis\include\cmsis_gcc.h" 1
	dsb 0xF
@ 0 "" 2
	.thumb
	.syntax unified
.LBE645:
.LBE644:
	.loc 1 1757 66 discriminator 3
	adds	r1, r1, #1
.LVL239:
	b	.L236
.LVL240:
.L233:
	.loc 1 1712 11
	.loc 1 1712 73 is_stmt 0
	ldr	r3, .L247+4
	movs	r2, #0
	strb	r2, [r3]
	.loc 1 1713 11 is_stmt 1
.LBB646:
.LBB647:
	.loc 2 946 3
	.syntax unified
@ 946 "d:\rtos\board\yd-stm32h7xxvx_classicv19\cmake-build-debug\_deps\stm32h7xx_cmsis_include\drivers\cmsis\include\cmsis_gcc.h" 1
	dsb 0xF
@ 0 "" 2
	.thumb
	.syntax unified
.LBE647:
.LBE646:
	.loc 1 1714 11
	.loc 1 1714 75 is_stmt 0
	uxtb	r2, r7
	.loc 1 1714 73
	strb	r2, [r3]
	.loc 1 1715 11 is_stmt 1
.LBB648:
.LBB649:
	.loc 2 946 3
	.syntax unified
@ 946 "d:\rtos\board\yd-stm32h7xxvx_classicv19\cmake-build-debug\_deps\stm32h7xx_cmsis_include\drivers\cmsis\include\cmsis_gcc.h" 1
	dsb 0xF
@ 0 "" 2
	.thumb
	.syntax unified
.LBE649:
.LBE648:
	.loc 1 1716 11
	.loc 1 1716 75 is_stmt 0
	ubfx	r2, r7, #8, #8
	.loc 1 1716 73
	strb	r2, [r3]
	.loc 1 1717 11 is_stmt 1
.LBB650:
.LBB651:
	.loc 2 946 3
	.syntax unified
@ 946 "d:\rtos\board\yd-stm32h7xxvx_classicv19\cmake-build-debug\_deps\stm32h7xx_cmsis_include\drivers\cmsis\include\cmsis_gcc.h" 1
	dsb 0xF
@ 0 "" 2
	.thumb
	.syntax unified
.LBE651:
.LBE650:
	.loc 1 1718 11
	.loc 1 1718 75 is_stmt 0
	ubfx	r2, r7, #16, #8
	.loc 1 1718 73
	strb	r2, [r3]
	.loc 1 1719 11 is_stmt 1
.LBB652:
.LBB653:
	.loc 2 946 3
	.syntax unified
@ 946 "d:\rtos\board\yd-stm32h7xxvx_classicv19\cmake-build-debug\_deps\stm32h7xx_cmsis_include\drivers\cmsis\include\cmsis_gcc.h" 1
	dsb 0xF
@ 0 "" 2
	.loc 2 947 1 is_stmt 0
	.thumb
	.syntax unified
	b	.L234
.L232:
.LBE653:
.LBE652:
	.loc 1 1725 9 is_stmt 1
	.loc 1 1725 71 is_stmt 0
	ldr	r3, .L247
	movs	r2, #0
	strb	r2, [r3]
	.loc 1 1726 9 is_stmt 1
.LBB654:
.LBB655:
	.loc 2 946 3
	.syntax unified
@ 946 "d:\rtos\board\yd-stm32h7xxvx_classicv19\cmake-build-debug\_deps\stm32h7xx_cmsis_include\drivers\cmsis\include\cmsis_gcc.h" 1
	dsb 0xF
@ 0 "" 2
	.thumb
	.syntax unified
.LBE655:
.LBE654:
	.loc 1 1727 9
	.loc 1 1727 71 is_stmt 0
	movs	r2, #128
	strb	r2, [r3]
	.loc 1 1728 9 is_stmt 1
.LBB656:
.LBB657:
	.loc 2 946 3
	.syntax unified
@ 946 "d:\rtos\board\yd-stm32h7xxvx_classicv19\cmake-build-debug\_deps\stm32h7xx_cmsis_include\drivers\cmsis\include\cmsis_gcc.h" 1
	dsb 0xF
@ 0 "" 2
	.thumb
	.syntax unified
.LBE657:
.LBE656:
	.loc 1 1730 9
	.loc 1 1730 28 is_stmt 0
	ldr	r3, [r4, #44]
	.loc 1 1730 56
	ldr	r2, [r4, #48]
	.loc 1 1730 40
	mul	r3, r2, r3
	.loc 1 1730 12
	cmp	r3, #65536
	bcs	.L235
	.loc 1 1732 11 is_stmt 1
	.loc 1 1732 75 is_stmt 0
	uxtb	r2, r8
	.loc 1 1732 73
	ldr	r3, .L247+4
	strb	r2, [r3]
	.loc 1 1733 11 is_stmt 1
.LBB658:
.LBB659:
	.loc 2 946 3
	.syntax unified
@ 946 "d:\rtos\board\yd-stm32h7xxvx_classicv19\cmake-build-debug\_deps\stm32h7xx_cmsis_include\drivers\cmsis\include\cmsis_gcc.h" 1
	dsb 0xF
@ 0 "" 2
	.thumb
	.syntax unified
.LBE659:
.LBE658:
	.loc 1 1734 11
	.loc 1 1734 75 is_stmt 0
	ubfx	r2, r8, #8, #8
	.loc 1 1734 73
	strb	r2, [r3]
	.loc 1 1735 11 is_stmt 1
.LBB660:
.LBB661:
	.loc 2 946 3
	.syntax unified
@ 946 "d:\rtos\board\yd-stm32h7xxvx_classicv19\cmake-build-debug\_deps\stm32h7xx_cmsis_include\drivers\cmsis\include\cmsis_gcc.h" 1
	dsb 0xF
@ 0 "" 2
	.thumb
	.syntax unified
.LBE661:
.LBE660:
	.loc 1 1736 11
	.loc 1 1736 75 is_stmt 0
	uxtb	r2, r7
	.loc 1 1736 73
	strb	r2, [r3]
	.loc 1 1737 11 is_stmt 1
.LBB662:
.LBB663:
	.loc 2 946 3
	.syntax unified
@ 946 "d:\rtos\board\yd-stm32h7xxvx_classicv19\cmake-build-debug\_deps\stm32h7xx_cmsis_include\drivers\cmsis\include\cmsis_gcc.h" 1
	dsb 0xF
@ 0 "" 2
	.thumb
	.syntax unified
.LBE663:
.LBE662:
	.loc 1 1738 11
	.loc 1 1738 75 is_stmt 0
	ubfx	r2, r7, #8, #8
	.loc 1 1738 73
	strb	r2, [r3]
	.loc 1 1739 11 is_stmt 1
.LBB664:
.LBB665:
	.loc 2 946 3
	.syntax unified
@ 946 "d:\rtos\board\yd-stm32h7xxvx_classicv19\cmake-build-debug\_deps\stm32h7xx_cmsis_include\drivers\cmsis\include\cmsis_gcc.h" 1
	dsb 0xF
@ 0 "" 2
	.loc 2 947 1 is_stmt 0
	.thumb
	.syntax unified
	b	.L234
.L235:
.LBE665:
.LBE664:
	.loc 1 1743 11 is_stmt 1
	.loc 1 1743 75 is_stmt 0
	uxtb	r2, r8
	.loc 1 1743 73
	ldr	r3, .L247+4
	strb	r2, [r3]
	.loc 1 1744 11 is_stmt 1
.LBB666:
.LBB667:
	.loc 2 946 3
	.syntax unified
@ 946 "d:\rtos\board\yd-stm32h7xxvx_classicv19\cmake-build-debug\_deps\stm32h7xx_cmsis_include\drivers\cmsis\include\cmsis_gcc.h" 1
	dsb 0xF
@ 0 "" 2
	.thumb
	.syntax unified
.LBE667:
.LBE666:
	.loc 1 1745 11
	.loc 1 1745 75 is_stmt 0
	ubfx	r2, r8, #8, #8
	.loc 1 1745 73
	strb	r2, [r3]
	.loc 1 1746 11 is_stmt 1
.LBB668:
.LBB669:
	.loc 2 946 3
	.syntax unified
@ 946 "d:\rtos\board\yd-stm32h7xxvx_classicv19\cmake-build-debug\_deps\stm32h7xx_cmsis_include\drivers\cmsis\include\cmsis_gcc.h" 1
	dsb 0xF
@ 0 "" 2
	.thumb
	.syntax unified
.LBE669:
.LBE668:
	.loc 1 1747 11
	.loc 1 1747 75 is_stmt 0
	uxtb	r2, r7
	.loc 1 1747 73
	strb	r2, [r3]
	.loc 1 1748 11 is_stmt 1
.LBB670:
.LBB671:
	.loc 2 946 3
	.syntax unified
@ 946 "d:\rtos\board\yd-stm32h7xxvx_classicv19\cmake-build-debug\_deps\stm32h7xx_cmsis_include\drivers\cmsis\include\cmsis_gcc.h" 1
	dsb 0xF
@ 0 "" 2
	.thumb
	.syntax unified
.LBE671:
.LBE670:
	.loc 1 1749 11
	.loc 1 1749 75 is_stmt 0
	ubfx	r2, r7, #8, #8
	.loc 1 1749 73
	strb	r2, [r3]
	.loc 1 1750 11 is_stmt 1
.LBB672:
.LBB673:
	.loc 2 946 3
	.syntax unified
@ 946 "d:\rtos\board\yd-stm32h7xxvx_classicv19\cmake-build-debug\_deps\stm32h7xx_cmsis_include\drivers\cmsis\include\cmsis_gcc.h" 1
	dsb 0xF
@ 0 "" 2
	.thumb
	.syntax unified
.LBE673:
.LBE672:
	.loc 1 1751 11
	.loc 1 1751 75 is_stmt 0
	ubfx	r2, r7, #16, #8
	.loc 1 1751 73
	strb	r2, [r3]
	.loc 1 1752 11 is_stmt 1
.LBB674:
.LBB675:
	.loc 2 946 3
	.syntax unified
@ 946 "d:\rtos\board\yd-stm32h7xxvx_classicv19\cmake-build-debug\_deps\stm32h7xx_cmsis_include\drivers\cmsis\include\cmsis_gcc.h" 1
	dsb 0xF
@ 0 "" 2
	.loc 2 947 1 is_stmt 0
	.thumb
	.syntax unified
	b	.L234
.LVL241:
.L245:
.LBE675:
.LBE674:
	.loc 1 1764 7 is_stmt 1
	.loc 1 1764 69 is_stmt 0
	ldr	r3, .L247
	movs	r2, #16
	strb	r2, [r3]
	.loc 1 1765 7 is_stmt 1
.LBB676:
.LBB677:
	.loc 2 946 3
	.syntax unified
@ 946 "d:\rtos\board\yd-stm32h7xxvx_classicv19\cmake-build-debug\_deps\stm32h7xx_cmsis_include\drivers\cmsis\include\cmsis_gcc.h" 1
	dsb 0xF
@ 0 "" 2
	.thumb
	.syntax unified
.LBE677:
.LBE676:
	.loc 1 1768 7
	.loc 1 1768 19 is_stmt 0
	bl	HAL_GetTick
.LVL242:
	mov	r9, r0
.LVL243:
	.loc 1 1771 7 is_stmt 1
.L238:
	.loc 1 1771 42
	.loc 1 1771 14 is_stmt 0
	mov	r0, r4
	bl	HAL_NAND_Read_Status
.LVL244:
	.loc 1 1771 42
	cmp	r0, #64
	beq	.L246
	.loc 1 1773 9 is_stmt 1
	.loc 1 1773 14 is_stmt 0
	bl	HAL_GetTick
.LVL245:
	.loc 1 1773 28
	sub	r1, r0, r9
	.loc 1 1773 12
	cmp	r1, #16777216
	bls	.L238
	.loc 1 1776 11 is_stmt 1
	.loc 1 1776 24 is_stmt 0
	movs	r0, #3
	strb	r0, [r4, #33]
	.loc 1 1779 11 is_stmt 1
	.loc 1 1779 15
	.loc 1 1779 29 is_stmt 0
	movs	r3, #0
	strb	r3, [r4, #32]
	.loc 1 1779 13 is_stmt 1
	.loc 1 1781 11
	.loc 1 1781 18 is_stmt 0
	b	.L230
.L246:
	.loc 1 1786 7 is_stmt 1
	.loc 1 1789 7
	.loc 1 1789 14 is_stmt 0
	subs	r6, r6, #1
.LVL246:
	.loc 1 1792 7 is_stmt 1
	.loc 1 1792 19 is_stmt 0
	adds	r7, r7, #1
.LVL247:
	b	.L231
.LVL248:
.L240:
	.loc 1 1796 5 is_stmt 1
	.loc 1 1796 18 is_stmt 0
	movs	r3, #1
	strb	r3, [r4, #33]
	.loc 1 1799 5 is_stmt 1
	.loc 1 1799 9
	.loc 1 1799 23 is_stmt 0
	movs	r0, #0
	strb	r0, [r4, #32]
	.loc 1 1799 7 is_stmt 1
	.loc 1 1806 3
	.loc 1 1806 10 is_stmt 0
	b	.L230
.LVL249:
.L242:
	.loc 1 1803 12
	movs	r0, #1
.LVL250:
.L230:
	.loc 1 1807 1
	pop	{r3, r4, r5, r6, r7, r8, r9, pc}
.LVL251:
.L243:
	.loc 1 1675 50
	movs	r0, #2
	b	.L230
.L248:
	.align	2
.L247:
	.word	-2147418112
	.word	-2147352576
	.cfi_endproc
.LFE351:
	.size	HAL_NAND_Write_SpareArea_16b, .-HAL_NAND_Write_SpareArea_16b
	.text
.Letext0:
	.file 3 "m:\\noinstall\\arm-gnu-toolchain-12.2.rel1-mingw-w64-i686-arm-none-eabi\\arm-none-eabi\\include\\machine\\_default_types.h"
	.file 4 "m:\\noinstall\\arm-gnu-toolchain-12.2.rel1-mingw-w64-i686-arm-none-eabi\\arm-none-eabi\\include\\sys\\_stdint.h"
	.file 5 "D:/RTOS/Board/YD-STM32H7xxVx_ClassicV19/cmake-build-debug/_deps/stm32h7xx_cmsis_device-src/Include/stm32h743xx.h"
	.file 6 "D:/RTOS/Board/YD-STM32H7xxVx_ClassicV19/cmake-build-debug/_deps/stm32h7xx_cmsis_device-src/Include/stm32h7xx.h"
	.file 7 "D:/RTOS/Board/YD-STM32H7xxVx_ClassicV19/cmake-build-debug/_deps/stm32h7xx_hal_driver-src/Inc/stm32h7xx_hal_def.h"
	.file 8 "D:/RTOS/Board/YD-STM32H7xxVx_ClassicV19/cmake-build-debug/_deps/stm32h7xx_hal_driver-src/Inc/stm32h7xx_ll_fmc.h"
	.file 9 "D:/RTOS/Board/YD-STM32H7xxVx_ClassicV19/cmake-build-debug/_deps/stm32h7xx_hal_driver-src/Inc/stm32h7xx_hal_nand.h"
	.file 10 "D:/RTOS/Board/YD-STM32H7xxVx_ClassicV19/cmake-build-debug/_deps/stm32h7xx_hal_driver-src/Inc/stm32h7xx_hal.h"