	.cpu cortex-m7
	.arch armv7e-m
	.fpu fpv5-d16
	.eabi_attribute 28, 1
	.eabi_attribute 20, 1
	.eabi_attribute 21, 1
	.eabi_attribute 23, 3
	.eabi_attribute 24, 1
	.eabi_attribute 25, 1
	.eabi_attribute 26, 1
	.eabi_attribute 30, 1
	.eabi_attribute 34, 1
	.eabi_attribute 18, 4
	.file	"stm32h7xx_hal_smartcard.c"
	.text
.Ltext0:
	.cfi_sections	.debug_frame
	.file 1 "D:/RTOS/Board/YD-STM32H7xxVx_ClassicV19/cmake-build-debug/_deps/stm32h7xx_hal_driver-src/Src/stm32h7xx_hal_smartcard.c"
	.section	.text.SMARTCARD_AdvFeatureConfig,"ax",%progbits
	.align	1
	.syntax unified
	.thumb
	.thumb_func
	.type	SMARTCARD_AdvFeatureConfig, %function
SMARTCARD_AdvFeatureConfig:
.LFB361:
	.loc 1 2493 1
	.cfi_startproc
	@ args = 0, pretend = 0, frame = 0
	@ frame_needed = 0, uses_anonymous_args = 0
	@ link register save eliminated.
.LVL0:
	.loc 1 2495 3
	.loc 1 2498 3
	.loc 1 2498 34 is_stmt 0
	ldr	r3, [r0, #48]
	.loc 1 2498 6
	tst	r3, #1
	beq	.L2
	.loc 1 2500 5 is_stmt 1
	.loc 1 2501 5
	.loc 1 2501 54 is_stmt 0
	ldr	r2, [r0]
	.loc 1 2501 64
	ldr	r3, [r2, #4]
	.loc 1 2501 73
	bic	r3, r3, #131072
	.loc 1 2501 125
	ldr	r1, [r0, #52]
	.loc 1 2501 98
	orrs	r3, r3, r1
	.loc 1 2501 36
	str	r3, [r2, #4]
.L2:
	.loc 1 2505 3 is_stmt 1
	.loc 1 2505 34 is_stmt 0
	ldr	r3, [r0, #48]
	.loc 1 2505 6
	tst	r3, #2
	beq	.L3
	.loc 1 2507 5 is_stmt 1
	.loc 1 2508 5
	.loc 1 2508 54 is_stmt 0
	ldr	r2, [r0]
	.loc 1 2508 64
	ldr	r3, [r2, #4]
	.loc 1 2508 73
	bic	r3, r3, #65536
	.loc 1 2508 125
	ldr	r1, [r0, #56]
	.loc 1 2508 98
	orrs	r3, r3, r1
	.loc 1 2508 36
	str	r3, [r2, #4]
.L3:
	.loc 1 2512 3 is_stmt 1
	.loc 1 2512 34 is_stmt 0
	ldr	r3, [r0, #48]
	.loc 1 2512 6
	tst	r3, #4
	beq	.L4
	.loc 1 2514 5 is_stmt 1
	.loc 1 2515 5
	.loc 1 2515 54 is_stmt 0
	ldr	r2, [r0]
	.loc 1 2515 64
	ldr	r3, [r2, #4]
	.loc 1 2515 73
	bic	r3, r3, #262144
	.loc 1 2515 125
	ldr	r1, [r0, #60]
	.loc 1 2515 98
	orrs	r3, r3, r1
	.loc 1 2515 36
	str	r3, [r2, #4]
.L4:
	.loc 1 2519 3 is_stmt 1
	.loc 1 2519 34 is_stmt 0
	ldr	r3, [r0, #48]
	.loc 1 2519 6
	tst	r3, #8
	beq	.L5
	.loc 1 2521 5 is_stmt 1
	.loc 1 2522 5
	.loc 1 2522 54 is_stmt 0
	ldr	r2, [r0]
	.loc 1 2522 64
	ldr	r3, [r2, #4]
	.loc 1 2522 73
	bic	r3, r3, #32768
	.loc 1 2522 125
	ldr	r1, [r0, #64]
	.loc 1 2522 98
	orrs	r3, r3, r1
	.loc 1 2522 36
	str	r3, [r2, #4]
.L5:
	.loc 1 2526 3 is_stmt 1
	.loc 1 2526 34 is_stmt 0
	ldr	r3, [r0, #48]
	.loc 1 2526 6
	tst	r3, #16
	beq	.L6
	.loc 1 2528 5 is_stmt 1
	.loc 1 2529 5
	.loc 1 2529 54 is_stmt 0
	ldr	r2, [r0]
	.loc 1 2529 64
	ldr	r3, [r2, #8]
	.loc 1 2529 73
	bic	r3, r3, #4096
	.loc 1 2529 125
	ldr	r1, [r0, #68]
	.loc 1 2529 98
	orrs	r3, r3, r1
	.loc 1 2529 36
	str	r3, [r2, #8]
.L6:
	.loc 1 2533 3 is_stmt 1
	.loc 1 2533 34 is_stmt 0
	ldr	r3, [r0, #48]
	.loc 1 2533 6
	tst	r3, #32
	beq	.L7
	.loc 1 2535 5 is_stmt 1
	.loc 1 2536 5
	.loc 1 2536 54 is_stmt 0
	ldr	r2, [r0]
	.loc 1 2536 64
	ldr	r3, [r2, #8]
	.loc 1 2536 73
	bic	r3, r3, #8192
	.loc 1 2536 125
	ldr	r1, [r0, #72]
	.loc 1 2536 98
	orrs	r3, r3, r1
	.loc 1 2536 36
	str	r3, [r2, #8]
.L7:
	.loc 1 2540 3 is_stmt 1
	.loc 1 2540 34 is_stmt 0
	ldr	r3, [r0, #48]
	.loc 1 2540 6
	tst	r3, #128
	beq	.L1
	.loc 1 2542 5 is_stmt 1
	.loc 1 2543 5
	.loc 1 2543 54 is_stmt 0
	ldr	r2, [r0]
	.loc 1 2543 64
	ldr	r3, [r2, #4]
	.loc 1 2543 73
	bic	r3, r3, #524288
	.loc 1 2543 125
	ldr	r1, [r0, #76]
	.loc 1 2543 98
	orrs	r3, r3, r1
	.loc 1 2543 36
	str	r3, [r2, #4]
.L1:
	.loc 1 2546 1
	bx	lr
	.cfi_endproc
.LFE361:
	.size	SMARTCARD_AdvFeatureConfig, .-SMARTCARD_AdvFeatureConfig
	.section	.text.SMARTCARD_EndTxTransfer,"ax",%progbits
	.align	1
	.syntax unified
	.thumb
	.thumb_func
	.type	SMARTCARD_EndTxTransfer, %function
SMARTCARD_EndTxTransfer:
.LFB364:
	.loc 1 2644 1 is_stmt 1
	.cfi_startproc
	@ args = 0, pretend = 0, frame = 0
	@ frame_needed = 0, uses_anonymous_args = 0
	@ link register save eliminated.
.LVL1:
	.loc 1 2646 3
	.loc 1 2646 15 is_stmt 0
	ldr	r2, [r0]
	.loc 1 2646 25
	ldr	r3, [r2]
	.loc 1 2646 32
	bic	r3, r3, #192
	str	r3, [r2]
	.loc 1 2647 3 is_stmt 1
	.loc 1 2647 15 is_stmt 0
	ldr	r2, [r0]
	.loc 1 2647 25
	ldr	r3, [r2, #8]
	.loc 1 2647 32
	bic	r3, r3, #1
	str	r3, [r2, #8]
	.loc 1 2650 3 is_stmt 1
	.loc 1 2650 22 is_stmt 0
	movs	r3, #32
	str	r3, [r0, #128]
	.loc 1 2651 1
	bx	lr
	.cfi_endproc
.LFE364:
	.size	SMARTCARD_EndTxTransfer, .-SMARTCARD_EndTxTransfer
	.section	.text.SMARTCARD_EndRxTransfer,"ax",%progbits
	.align	1
	.syntax unified
	.thumb
	.thumb_func
	.type	SMARTCARD_EndRxTransfer, %function
SMARTCARD_EndRxTransfer:
.LFB365:
	.loc 1 2661 1 is_stmt 1
	.cfi_startproc
	@ args = 0, pretend = 0, frame = 0
	@ frame_needed = 0, uses_anonymous_args = 0
	@ link register save eliminated.
.LVL2:
	.loc 1 2663 3
	.loc 1 2663 15 is_stmt 0
	ldr	r2, [r0]
	.loc 1 2663 25
	ldr	r3, [r2]
	.loc 1 2663 32
	bic	r3, r3, #288
	str	r3, [r2]
	.loc 1 2664 3 is_stmt 1
	.loc 1 2664 15 is_stmt 0
	ldr	r2, [r0]
	.loc 1 2664 25
	ldr	r3, [r2, #8]
	.loc 1 2664 32
	bic	r3, r3, #1
	str	r3, [r2, #8]
	.loc 1 2667 3 is_stmt 1
	.loc 1 2667 23 is_stmt 0
	movs	r3, #32
	str	r3, [r0, #132]
	.loc 1 2668 1
	bx	lr
	.cfi_endproc
.LFE365:
	.size	SMARTCARD_EndRxTransfer, .-SMARTCARD_EndRxTransfer
	.section	.text.SMARTCARD_DMATransmitCplt,"ax",%progbits
	.align	1
	.syntax unified
	.thumb
	.thumb_func
	.type	SMARTCARD_DMATransmitCplt, %function
SMARTCARD_DMATransmitCplt:
.LFB366:
	.loc 1 2678 1 is_stmt 1
	.cfi_startproc
	@ args = 0, pretend = 0, frame = 0
	@ frame_needed = 0, uses_anonymous_args = 0
	@ link register save eliminated.
.LVL3:
	.loc 1 2679 3
	.loc 1 2679 28 is_stmt 0
	ldr	r3, [r0, #56]
.LVL4:
	.loc 1 2680 3 is_stmt 1
	.loc 1 2680 27 is_stmt 0
	movs	r2, #0
	strh	r2, [r3, #90]	@ movhi
	.loc 1 2684 3 is_stmt 1
	.loc 1 2684 15 is_stmt 0
	ldr	r1, [r3]
	.loc 1 2684 25
	ldr	r2, [r1, #8]
	.loc 1 2684 32
	bic	r2, r2, #128
	str	r2, [r1, #8]
	.loc 1 2687 3 is_stmt 1
	.loc 1 2687 32 is_stmt 0
	ldrh	r2, [r3, #80]
	.loc 1 2687 68
	ubfx	r1, r2, #5, #3
	.loc 1 2687 186
	cmp	r1, #1
	beq	.L15
	.loc 1 2687 370 discriminator 2
	cmp	r1, #2
	beq	.L16
	.loc 1 2687 385 discriminator 4
	ldr	r0, [r3]
.LVL5:
	.loc 1 2687 395 discriminator 4
	ldr	r3, [r0, #8]
.LVL6:
	.loc 1 2687 463 discriminator 4
	and	r2, r2, #31
	.loc 1 2687 409 discriminator 4
	movs	r1, #1
	lsl	r2, r1, r2
	.loc 1 2687 401 discriminator 4
	orrs	r3, r3, r2
	str	r3, [r0, #8]
	.loc 1 2688 1 discriminator 4
	bx	lr
.LVL7:
.L15:
	.loc 1 2687 96 discriminator 1
	ldr	r0, [r3]
.LVL8:
	.loc 1 2687 106 discriminator 1
	ldr	r3, [r0]
.LVL9:
	.loc 1 2687 174 discriminator 1
	and	r2, r2, #31
	.loc 1 2687 120 discriminator 1
	lsl	r2, r1, r2
	.loc 1 2687 112 discriminator 1
	orrs	r3, r3, r2
	str	r3, [r0]
	bx	lr
.LVL10:
.L16:
	.loc 1 2687 280 discriminator 3
	ldr	r0, [r3]
.LVL11:
	.loc 1 2687 290 discriminator 3
	ldr	r3, [r0, #4]
.LVL12:
	.loc 1 2687 358 discriminator 3
	and	r2, r2, #31
	.loc 1 2687 304 discriminator 3
	movs	r1, #1
	lsl	r2, r1, r2
	.loc 1 2687 296 discriminator 3
	orrs	r3, r3, r2
	str	r3, [r0, #4]
	bx	lr
	.cfi_endproc
.LFE366:
	.size	SMARTCARD_DMATransmitCplt, .-SMARTCARD_DMATransmitCplt
	.section	.text.SMARTCARD_TxISR,"ax",%progbits
	.align	1
	.syntax unified
	.thumb
	.thumb_func
	.type	SMARTCARD_TxISR, %function
SMARTCARD_TxISR:
.LFB374:
	.loc 1 2950 1 is_stmt 1
	.cfi_startproc
	@ args = 0, pretend = 0, frame = 0
	@ frame_needed = 0, uses_anonymous_args = 0
	@ link register save eliminated.
.LVL13:
	.loc 1 2952 3
	.loc 1 2952 17 is_stmt 0
	ldr	r3, [r0, #128]
	.loc 1 2952 6
	cmp	r3, #33
	beq	.L22
.L17:
	.loc 1 2969 1
	bx	lr
.L22:
	.loc 1 2954 5 is_stmt 1
	.loc 1 2954 19 is_stmt 0
	ldrh	r3, [r0, #90]
	uxth	r3, r3
	.loc 1 2954 8
	cbnz	r3, .L19
	.loc 1 2957 7 is_stmt 1
	.loc 1 2957 19 is_stmt 0
	ldr	r2, [r0]
	.loc 1 2957 29
	ldr	r3, [r2]
	.loc 1 2957 36
	bic	r3, r3, #128
	str	r3, [r2]
	.loc 1 2960 7 is_stmt 1
	.loc 1 2960 36 is_stmt 0
	ldrh	r3, [r0, #80]
	.loc 1 2960 72
	ubfx	r2, r3, #5, #3
	.loc 1 2960 190
	cmp	r2, #1
	beq	.L23
	.loc 1 2960 374 discriminator 2
	cmp	r2, #2
	beq	.L24
	.loc 1 2960 389 discriminator 4
	ldr	r0, [r0]
.LVL14:
	.loc 1 2960 399 discriminator 4
	ldr	r2, [r0, #8]
	.loc 1 2960 467 discriminator 4
	and	r3, r3, #31
	.loc 1 2960 413 discriminator 4
	movs	r1, #1
	lsl	r3, r1, r3
	.loc 1 2960 405 discriminator 4
	orrs	r3, r3, r2
	str	r3, [r0, #8]
	bx	lr
.LVL15:
.L23:
	.loc 1 2960 100 discriminator 1
	ldr	r0, [r0]
.LVL16:
	.loc 1 2960 110 discriminator 1
	ldr	r2, [r0]
	.loc 1 2960 178 discriminator 1
	and	r3, r3, #31
	.loc 1 2960 124 discriminator 1
	movs	r1, #1
	lsl	r3, r1, r3
	.loc 1 2960 116 discriminator 1
	orrs	r3, r3, r2
	str	r3, [r0]
	bx	lr
.LVL17:
.L24:
	.loc 1 2960 284 discriminator 3
	ldr	r0, [r0]
.LVL18:
	.loc 1 2960 294 discriminator 3
	ldr	r2, [r0, #4]
	.loc 1 2960 362 discriminator 3
	and	r3, r3, #31
	.loc 1 2960 308 discriminator 3
	movs	r1, #1
	lsl	r3, r1, r3
	.loc 1 2960 300 discriminator 3
	orrs	r3, r3, r2
	str	r3, [r0, #4]
	bx	lr
.LVL19:
.L19:
	.loc 1 2964 7 is_stmt 1
	.loc 1 2964 56 is_stmt 0
	ldr	r3, [r0, #84]
	.loc 1 2964 45
	ldrb	r2, [r3]	@ zero_extendqisi2
	.loc 1 2964 17
	ldr	r3, [r0]
	.loc 1 2964 33
	str	r2, [r3, #40]
	.loc 1 2965 7 is_stmt 1
	.loc 1 2965 17 is_stmt 0
	ldr	r3, [r0, #84]
	.loc 1 2965 29
	adds	r3, r3, #1
	str	r3, [r0, #84]
	.loc 1 2966 7 is_stmt 1
	.loc 1 2966 17 is_stmt 0
	ldrh	r3, [r0, #90]
	uxth	r3, r3
	.loc 1 2966 30
	subs	r3, r3, #1
	uxth	r3, r3
	strh	r3, [r0, #90]	@ movhi
	.loc 1 2969 1
	b	.L17
	.cfi_endproc
.LFE374:
	.size	SMARTCARD_TxISR, .-SMARTCARD_TxISR
	.section	.text.SMARTCARD_TxISR_FIFOEN,"ax",%progbits
	.align	1
	.syntax unified
	.thumb
	.thumb_func
	.type	SMARTCARD_TxISR_FIFOEN, %function
SMARTCARD_TxISR_FIFOEN:
.LFB375:
	.loc 1 2981 1 is_stmt 1
	.cfi_startproc
	@ args = 0, pretend = 0, frame = 0
	@ frame_needed = 0, uses_anonymous_args = 0
	@ link register save eliminated.
.LVL20:
	.loc 1 2982 3
	.loc 1 2985 3
	.loc 1 2985 17 is_stmt 0
	ldr	r3, [r0, #128]
	.loc 1 2985 6
	cmp	r3, #33
	beq	.L38
	bx	lr
.LVL21:
.L40:
	.cfi_def_cfa_offset 8
	.cfi_offset 4, -8
	.cfi_offset 5, -4
	.loc 1 2995 102 discriminator 1
	ldr	r4, [r0]
	.loc 1 2995 112 discriminator 1
	ldr	r1, [r4]
	.loc 1 2995 180 discriminator 1
	and	r2, r2, #31
	.loc 1 2995 126 discriminator 1
	mov	ip, #1
	lsl	r2, ip, r2
	.loc 1 2995 118 discriminator 1
	orrs	r2, r2, r1
	str	r2, [r4]
	b	.L30
.L41:
	.loc 1 2995 286 discriminator 3
	ldr	r5, [r0]
	.loc 1 2995 296 discriminator 3
	ldr	r1, [r5, #4]
	.loc 1 2995 364 discriminator 3
	and	r2, r2, #31
	.loc 1 2995 310 discriminator 3
	movs	r4, #1
	lsl	r2, r4, r2
	.loc 1 2995 302 discriminator 3
	orrs	r2, r2, r1
	str	r2, [r5, #4]
	b	.L30
.L28:
	.loc 1 2997 12 is_stmt 1
	.loc 1 2997 28 is_stmt 0
	ldr	r2, [r0]
	.loc 1 2997 38
	ldr	r1, [r2, #28]
	.loc 1 2997 15
	tst	r1, #128
	beq	.L30
	.loc 1 2999 9 is_stmt 1
	.loc 1 2999 58 is_stmt 0
	ldr	r1, [r0, #84]
	.loc 1 2999 47
	ldrb	r1, [r1]	@ zero_extendqisi2
	.loc 1 2999 35
	str	r1, [r2, #40]
	.loc 1 3000 9 is_stmt 1
	.loc 1 3000 19 is_stmt 0
	ldr	r2, [r0, #84]
	.loc 1 3000 31
	adds	r2, r2, #1
	str	r2, [r0, #84]
	.loc 1 3001 9 is_stmt 1
	.loc 1 3001 19 is_stmt 0
	ldrh	r2, [r0, #90]
	uxth	r2, r2
	.loc 1 3001 32
	subs	r2, r2, #1
	uxth	r2, r2
	strh	r2, [r0, #90]	@ movhi
.L30:
	.loc 1 3006 7 is_stmt 1 discriminator 2
	.loc 1 2987 83 discriminator 2
	subs	r3, r3, #1
.LVL22:
	uxth	r3, r3
.LVL23:
	.loc 1 2987 66 discriminator 2
	cbz	r3, .L39
.L32:
	.loc 1 2989 7
	.loc 1 2989 21 is_stmt 0
	ldrh	r2, [r0, #90]
	uxth	r2, r2
	.loc 1 2989 10
	cmp	r2, #0
	bne	.L28
	.loc 1 2992 9 is_stmt 1
	.loc 1 2992 21 is_stmt 0
	ldr	r1, [r0]
	.loc 1 2992 31
	ldr	r2, [r1]
	.loc 1 2992 38
	bic	r2, r2, #128
	str	r2, [r1]
	.loc 1 2995 9 is_stmt 1
	.loc 1 2995 38 is_stmt 0
	ldrh	r2, [r0, #80]
	.loc 1 2995 74
	ubfx	r1, r2, #5, #3
	.loc 1 2995 192
	cmp	r1, #1
	beq	.L40
	.loc 1 2995 376 discriminator 2
	cmp	r1, #2
	beq	.L41
	.loc 1 2995 391 discriminator 4
	ldr	r4, [r0]
	.loc 1 2995 401 discriminator 4
	ldr	r1, [r4, #8]
	.loc 1 2995 469 discriminator 4
	and	r2, r2, #31
	.loc 1 2995 415 discriminator 4
	mov	ip, #1
	lsl	r2, ip, r2
	.loc 1 2995 407 discriminator 4
	orrs	r2, r2, r1
	str	r2, [r4, #8]
	b	.L30
.L39:
	.loc 1 3009 1
	pop	{r4, r5}
	.cfi_restore 5
	.cfi_restore 4
	.cfi_def_cfa_offset 0
	bx	lr
.LVL24:
.L38:
	.loc 1 2987 5 is_stmt 1
	.loc 1 2987 21 is_stmt 0
	ldrh	r3, [r0, #102]
.LVL25:
	.loc 1 2987 66 is_stmt 1
	cbz	r3, .L42
	.loc 1 2981 1 is_stmt 0
	push	{r4, r5}
	.cfi_def_cfa_offset 8
	.cfi_offset 4, -8
	.cfi_offset 5, -4
	b	.L32
.L42:
	.cfi_def_cfa_offset 0
	.cfi_restore 4
	.cfi_restore 5
	bx	lr
	.cfi_endproc
.LFE375:
	.size	SMARTCARD_TxISR_FIFOEN, .-SMARTCARD_TxISR_FIFOEN
	.section	.text.SMARTCARD_SetConfig,"ax",%progbits
	.align	1
	.syntax unified
	.thumb
	.thumb_func
	.type	SMARTCARD_SetConfig, %function
SMARTCARD_SetConfig:
.LFB360:
	.loc 1 2340 1 is_stmt 1
	.cfi_startproc
	@ args = 0, pretend = 0, frame = 24
	@ frame_needed = 0, uses_anonymous_args = 0
.LVL26:
	push	{r4, r5, lr}
	.cfi_def_cfa_offset 12
	.cfi_offset 4, -12
	.cfi_offset 5, -8
	.cfi_offset 14, -4
	sub	sp, sp, #28
	.cfi_def_cfa_offset 40
	mov	r4, r0
	.loc 1 2341 3
	.loc 1 2342 3
	.loc 1 2343 3
.LVL27:
	.loc 1 2344 3
	.loc 1 2345 3
	.loc 1 2346 3
	.loc 1 2347 3
	.loc 1 2350 3
	.loc 1 2351 3
	.loc 1 2352 3
	.loc 1 2353 3
	.loc 1 2354 3
	.loc 1 2355 3
	.loc 1 2356 3
	.loc 1 2357 3
	.loc 1 2358 3
	.loc 1 2359 3
	.loc 1 2360 3
	.loc 1 2361 3
	.loc 1 2362 3
	.loc 1 2363 3
	.loc 1 2371 3
	.loc 1 2371 40 is_stmt 0
	ldrh	r2, [r0, #16]
	.loc 1 2371 78
	ldrh	r3, [r0, #18]
	.loc 1 2371 49
	orrs	r2, r2, r3
	.loc 1 2372 40
	ldr	r3, [r0, #8]
	.loc 1 2371 10
	orrs	r2, r2, r3
.LVL28:
	.loc 1 2373 3 is_stmt 1
	.loc 1 2373 52 is_stmt 0
	ldr	r1, [r0]
	.loc 1 2373 62
	ldr	r0, [r1]
.LVL29:
	.loc 1 2373 71
	ldr	r3, .L98
	ands	r3, r3, r0
	.loc 1 2373 224
	orrs	r3, r3, r2
	.loc 1 2373 34
	str	r3, [r1]
	.loc 1 2376 3 is_stmt 1
	.loc 1 2376 10 is_stmt 0
	ldr	r3, [r4, #12]
.LVL30:
	.loc 1 2378 3 is_stmt 1
	.loc 1 2378 59 is_stmt 0
	ldrh	r2, [r4, #20]
	.loc 1 2378 41
	orr	r2, r2, #2048
	.loc 1 2378 10
	orrs	r2, r2, r3
.LVL31:
	.loc 1 2379 3 is_stmt 1
	.loc 1 2379 40 is_stmt 0
	ldrh	r3, [r4, #22]
	.loc 1 2379 68
	ldrh	r1, [r4, #24]
	.loc 1 2379 50
	orrs	r3, r3, r1
	.loc 1 2379 10
	orrs	r3, r3, r2
.LVL32:
	.loc 1 2380 3 is_stmt 1
	.loc 1 2380 40 is_stmt 0
	ldr	r2, [r4, #32]
	.loc 1 2380 10
	orrs	r2, r2, r3
.LVL33:
	.loc 1 2381 3 is_stmt 1
	.loc 1 2381 52 is_stmt 0
	ldr	r1, [r4]
	.loc 1 2381 62
	ldr	r0, [r1, #4]
	.loc 1 2381 71
	ldr	r3, .L98+4
	ands	r3, r3, r0
	.loc 1 2381 217
	orrs	r3, r3, r2
	.loc 1 2381 34
	str	r3, [r1, #4]
	.loc 1 2391 3 is_stmt 1
	.loc 1 2391 39 is_stmt 0
	ldrh	r2, [r4, #26]
.LVL34:
	.loc 1 2391 73
	ldrh	r3, [r4, #30]
	.loc 1 2391 55
	orrs	r2, r2, r3
.LVL35:
	.loc 1 2392 3 is_stmt 1
	.loc 1 2392 40 is_stmt 0
	ldrb	r3, [r4, #41]	@ zero_extendqisi2
	.loc 1 2392 10
	orr	r2, r2, r3, lsl #17
.LVL36:
	.loc 1 2393 3 is_stmt 1
	.loc 1 2393 52 is_stmt 0
	ldr	r1, [r4]
	.loc 1 2393 62
	ldr	r0, [r1, #8]
	.loc 1 2393 71
	ldr	r3, .L98+8
	ands	r3, r3, r0
	.loc 1 2393 186
	orrs	r3, r3, r2
	.loc 1 2393 34
	str	r3, [r1, #8]
	.loc 1 2398 3 is_stmt 1
	.loc 1 2398 54 is_stmt 0
	ldr	r2, [r4]
.LVL37:
	.loc 1 2398 64
	ldr	r3, [r2, #44]
	.loc 1 2398 75
	bic	r3, r3, #15
	.loc 1 2398 118
	ldr	r1, [r4, #44]
	.loc 1 2398 99
	orrs	r3, r3, r1
	.loc 1 2398 36
	str	r3, [r2, #44]
	.loc 1 2401 3 is_stmt 1
	.loc 1 2401 29 is_stmt 0
	ldrb	r3, [r4, #28]	@ zero_extendqisi2
	.loc 1 2401 69
	ldrb	r0, [r4, #29]	@ zero_extendqisi2
.LVL38:
	.loc 1 2402 3 is_stmt 1
	.loc 1 2402 53 is_stmt 0
	ldr	r1, [r4]
	.loc 1 2402 63
	ldr	r5, [r1, #16]
	.loc 1 2402 73
	ldr	r2, .L98+12
	ands	r2, r2, r5
	.loc 1 2402 129
	orr	r3, r3, r0, lsl #8
.LVL39:
	orrs	r3, r3, r2
.LVL40:
	.loc 1 2402 35
	str	r3, [r1, #16]
.LVL41:
	.loc 1 2405 3 is_stmt 1
	.loc 1 2405 39 is_stmt 0
	ldrb	r3, [r4, #40]	@ zero_extendqisi2
	.loc 1 2405 10
	lsls	r3, r3, #24
.LVL42:
	.loc 1 2406 3 is_stmt 1
	.loc 1 2406 23 is_stmt 0
	ldr	r2, [r4, #32]
	.loc 1 2406 6
	cmp	r2, #8388608
	beq	.L93
.L44:
	.loc 1 2411 3 is_stmt 1
	.loc 1 2411 53 is_stmt 0
	ldr	r2, [r4]
	.loc 1 2411 63
	ldr	r1, [r2, #20]
	.loc 1 2411 35
	str	r3, [r2, #20]
	.loc 1 2414 3 is_stmt 1
	.loc 1 2414 8
	.loc 1 2414 24 is_stmt 0
	ldr	r3, [r4]
.LVL43:
	.loc 1 2414 11
	ldr	r2, .L98+16
.LVL44:
	cmp	r3, r2
	beq	.L94
	.loc 1 2414 780 is_stmt 1 discriminator 2
	.loc 1 2414 783 is_stmt 0 discriminator 2
	ldr	r2, .L98+20
	cmp	r3, r2
	beq	.L95
	.loc 1 2414 1535 is_stmt 1 discriminator 11
	.loc 1 2414 1538 is_stmt 0 discriminator 11
	ldr	r2, .L98+24
	cmp	r3, r2
	beq	.L96
	.loc 1 2414 2290 is_stmt 1 discriminator 20
	.loc 1 2414 2293 is_stmt 0 discriminator 20
	ldr	r2, .L98+28
	cmp	r3, r2
	beq	.L97
	.loc 1 2460 11
	movs	r0, #1
	.loc 1 2415 10
	movs	r3, #0
.LVL45:
.L46:
	.loc 1 2465 3 is_stmt 1
	.loc 1 2465 25 is_stmt 0
	sub	r1, r3, #16
	.loc 1 2465 6
	movw	r2, #65519
	cmp	r1, r2
	bhi	.L67
	.loc 1 2467 5 is_stmt 1
	.loc 1 2467 15 is_stmt 0
	ldr	r2, [r4]
	uxth	r3, r3
.LVL46:
	.loc 1 2467 31
	str	r3, [r2, #12]
	b	.L61
.LVL47:
.L93:
	.loc 1 2408 5 is_stmt 1
	.loc 1 2409 5
	.loc 1 2409 42 is_stmt 0
	ldr	r2, [r4, #36]
	.loc 1 2409 12
	orrs	r3, r3, r2
.LVL48:
	b	.L44
.LVL49:
.L94:
	.loc 1 2414 106 is_stmt 1 discriminator 1
	.loc 1 2414 190 is_stmt 0 discriminator 1
	ldr	r3, .L98+32
	ldr	r3, [r3, #84]
	.loc 1 2414 115 discriminator 1
	and	r3, r3, #56
	.loc 1 2414 106 discriminator 1
	cmp	r3, #40
	bhi	.L62
	tbh	[pc, r3, lsl #1]
.L48:
	.2byte	(.L53-.L48)/2
	.2byte	(.L62-.L48)/2
	.2byte	(.L62-.L48)/2
	.2byte	(.L62-.L48)/2
	.2byte	(.L62-.L48)/2
	.2byte	(.L62-.L48)/2
	.2byte	(.L62-.L48)/2
	.2byte	(.L62-.L48)/2
	.2byte	(.L52-.L48)/2
	.2byte	(.L62-.L48)/2
	.2byte	(.L62-.L48)/2
	.2byte	(.L62-.L48)/2
	.2byte	(.L62-.L48)/2
	.2byte	(.L62-.L48)/2
	.2byte	(.L62-.L48)/2
	.2byte	(.L62-.L48)/2
	.2byte	(.L51-.L48)/2
	.2byte	(.L62-.L48)/2
	.2byte	(.L62-.L48)/2
	.2byte	(.L62-.L48)/2
	.2byte	(.L62-.L48)/2
	.2byte	(.L62-.L48)/2
	.2byte	(.L62-.L48)/2
	.2byte	(.L62-.L48)/2
	.2byte	(.L50-.L48)/2
	.2byte	(.L62-.L48)/2
	.2byte	(.L62-.L48)/2
	.2byte	(.L62-.L48)/2
	.2byte	(.L62-.L48)/2
	.2byte	(.L62-.L48)/2
	.2byte	(.L62-.L48)/2
	.2byte	(.L62-.L48)/2
	.2byte	(.L49-.L48)/2
	.2byte	(.L62-.L48)/2
	.2byte	(.L62-.L48)/2
	.2byte	(.L62-.L48)/2
	.2byte	(.L62-.L48)/2
	.2byte	(.L62-.L48)/2
	.2byte	(.L62-.L48)/2
	.2byte	(.L62-.L48)/2
	.2byte	(.L47-.L48)/2
	.p2align 1
.L95:
	.loc 1 2414 861 is_stmt 1 discriminator 10
	.loc 1 2414 945 is_stmt 0 discriminator 10
	ldr	r3, .L98+32
	ldr	r3, [r3, #84]
	.loc 1 2414 870 discriminator 10
	and	r3, r3, #7
	.loc 1 2414 861 discriminator 10
	cmp	r3, #5
	bhi	.L63
	tbb	[pc, r3]
.L55:
	.byte	(.L56-.L55)/2
	.byte	(.L52-.L55)/2
	.byte	(.L51-.L55)/2
	.byte	(.L50-.L55)/2
	.byte	(.L49-.L55)/2
	.byte	(.L47-.L55)/2
	.p2align 1
.L96:
	.loc 1 2414 1616 is_stmt 1 discriminator 19
	.loc 1 2414 1700 is_stmt 0 discriminator 19
	ldr	r3, .L98+32
	ldr	r3, [r3, #84]
	.loc 1 2414 1625 discriminator 19
	and	r3, r3, #7
	.loc 1 2414 1616 discriminator 19
	cmp	r3, #5
	bhi	.L64
	tbb	[pc, r3]
.L58:
	.byte	(.L56-.L58)/2
	.byte	(.L52-.L58)/2
	.byte	(.L51-.L58)/2
	.byte	(.L50-.L58)/2
	.byte	(.L49-.L58)/2
	.byte	(.L47-.L58)/2
	.p2align 1
.L97:
	.loc 1 2414 2388 is_stmt 1 discriminator 28
	.loc 1 2414 2472 is_stmt 0 discriminator 28
	ldr	r3, .L98+32
	ldr	r3, [r3, #84]
	.loc 1 2414 2397 discriminator 28
	and	r3, r3, #56
	.loc 1 2414 2388 discriminator 28
	cmp	r3, #40
	bhi	.L66
	tbb	[pc, r3]
.L59:
	.byte	(.L53-.L59)/2
	.byte	(.L66-.L59)/2
	.byte	(.L66-.L59)/2
	.byte	(.L66-.L59)/2
	.byte	(.L66-.L59)/2
	.byte	(.L66-.L59)/2
	.byte	(.L66-.L59)/2
	.byte	(.L66-.L59)/2
	.byte	(.L52-.L59)/2
	.byte	(.L66-.L59)/2
	.byte	(.L66-.L59)/2
	.byte	(.L66-.L59)/2
	.byte	(.L66-.L59)/2
	.byte	(.L66-.L59)/2
	.byte	(.L66-.L59)/2
	.byte	(.L66-.L59)/2
	.byte	(.L51-.L59)/2
	.byte	(.L66-.L59)/2
	.byte	(.L66-.L59)/2
	.byte	(.L66-.L59)/2
	.byte	(.L66-.L59)/2
	.byte	(.L66-.L59)/2
	.byte	(.L66-.L59)/2
	.byte	(.L66-.L59)/2
	.byte	(.L50-.L59)/2
	.byte	(.L66-.L59)/2
	.byte	(.L66-.L59)/2
	.byte	(.L66-.L59)/2
	.byte	(.L66-.L59)/2
	.byte	(.L66-.L59)/2
	.byte	(.L66-.L59)/2
	.byte	(.L66-.L59)/2
	.byte	(.L49-.L59)/2
	.byte	(.L66-.L59)/2
	.byte	(.L66-.L59)/2
	.byte	(.L66-.L59)/2
	.byte	(.L66-.L59)/2
	.byte	(.L66-.L59)/2
	.byte	(.L66-.L59)/2
	.byte	(.L66-.L59)/2
	.byte	(.L47-.L59)/2
	.p2align 1
.L56:
.LVL50:
	.loc 1 2419 7 is_stmt 1
	.loc 1 2419 14 is_stmt 0
	bl	HAL_RCC_GetPCLK1Freq
.LVL51:
	.loc 1 2420 7 is_stmt 1
	.loc 1 2420 72 is_stmt 0
	ldr	r2, [r4, #44]
	.loc 1 2420 55
	ldr	r3, .L98+36
	ldrh	r3, [r3, r2, lsl #1]
	.loc 1 2420 34
	udiv	r3, r0, r3
	.loc 1 2421 45
	ldr	r2, [r4, #4]
	.loc 1 2420 90
	add	r3, r3, r2, lsr #1
	.loc 1 2420 14
	udiv	r3, r3, r2
.LVL52:
	.loc 1 2422 7 is_stmt 1
	.loc 1 2343 21 is_stmt 0
	movs	r0, #0
.LVL53:
	.loc 1 2422 7
	b	.L46
.LVL54:
.L53:
	.loc 1 2424 7 is_stmt 1
	.loc 1 2424 14 is_stmt 0
	bl	HAL_RCC_GetPCLK2Freq
.LVL55:
	.loc 1 2425 7 is_stmt 1
	.loc 1 2425 72 is_stmt 0
	ldr	r2, [r4, #44]
	.loc 1 2425 55
	ldr	r3, .L98+36
	ldrh	r3, [r3, r2, lsl #1]
	.loc 1 2425 34
	udiv	r3, r0, r3
	.loc 1 2426 45
	ldr	r2, [r4, #4]
	.loc 1 2425 90
	add	r3, r3, r2, lsr #1
	.loc 1 2425 14
	udiv	r3, r3, r2
.LVL56:
	.loc 1 2427 7 is_stmt 1
	.loc 1 2343 21 is_stmt 0
	movs	r0, #0
.LVL57:
	.loc 1 2427 7
	b	.L46
.LVL58:
.L52:
	.loc 1 2429 7 is_stmt 1
	mov	r0, sp
	bl	HAL_RCCEx_GetPLL2ClockFreq
.LVL59:
	.loc 1 2430 7
	.loc 1 2430 96 is_stmt 0
	ldr	r2, [r4, #44]
	.loc 1 2430 79
	ldr	r3, .L98+36
	ldrh	r2, [r3, r2, lsl #1]
	.loc 1 2430 58
	ldr	r3, [sp, #4]
	udiv	r3, r3, r2
	.loc 1 2431 45
	ldr	r2, [r4, #4]
	.loc 1 2430 114
	add	r3, r3, r2, lsr #1
	.loc 1 2430 14
	udiv	r3, r3, r2
.LVL60:
	.loc 1 2432 7 is_stmt 1
	.loc 1 2343 21 is_stmt 0
	movs	r0, #0
	.loc 1 2432 7
	b	.L46
.LVL61:
.L51:
	.loc 1 2434 7 is_stmt 1
	add	r0, sp, #12
	bl	HAL_RCCEx_GetPLL3ClockFreq
.LVL62:
	.loc 1 2435 7
	.loc 1 2435 96 is_stmt 0
	ldr	r2, [r4, #44]
	.loc 1 2435 79
	ldr	r3, .L98+36
	ldrh	r2, [r3, r2, lsl #1]
	.loc 1 2435 58
	ldr	r3, [sp, #16]
	udiv	r3, r3, r2
	.loc 1 2436 45
	ldr	r2, [r4, #4]
	.loc 1 2435 114
	add	r3, r3, r2, lsr #1
	.loc 1 2435 14
	udiv	r3, r3, r2
.LVL63:
	.loc 1 2437 7 is_stmt 1
	.loc 1 2343 21 is_stmt 0
	movs	r0, #0
	.loc 1 2437 7
	b	.L46
.L99:
	.align	2
.L98:
	.word	-805344781
	.word	-8404737
	.word	301070319
	.word	-65536
	.word	1073811456
	.word	1073759232
	.word	1073760256
	.word	1073812480
	.word	1476543488
	.word	SMARTCARDPrescTable.0
.LVL64:
.L50:
	.loc 1 2439 7 is_stmt 1
	.loc 1 2439 112 is_stmt 0
	ldr	r3, .L100
	ldr	r3, [r3]
	.loc 1 2439 10
	tst	r3, #32
	beq	.L60
	.loc 1 2441 9 is_stmt 1
	.loc 1 2441 125 is_stmt 0
	ldr	r3, .L100
	ldr	r2, [r3]
	.loc 1 2441 154
	ubfx	r2, r2, #3, #2
	.loc 1 2441 45
	ldr	r3, .L100+4
	lsrs	r3, r3, r2
	.loc 1 2442 67
	ldr	r1, [r4, #44]
	.loc 1 2442 50
	ldr	r2, .L100+8
	ldrh	r2, [r2, r1, lsl #1]
	.loc 1 2441 162
	udiv	r3, r3, r2
	.loc 1 2443 47
	ldr	r2, [r4, #4]
	.loc 1 2442 85
	add	r3, r3, r2, lsr #1
	.loc 1 2441 16
	udiv	r3, r3, r2
.LVL65:
	.loc 1 2343 21
	movs	r0, #0
	b	.L46
.LVL66:
.L60:
	.loc 1 2447 9 is_stmt 1
	.loc 1 2447 82 is_stmt 0
	ldr	r2, [r4, #44]
	.loc 1 2447 65
	ldr	r3, .L100+8
	ldrh	r2, [r3, r2, lsl #1]
	.loc 1 2447 44
	ldr	r3, .L100+4
	udiv	r3, r3, r2
	.loc 1 2448 47
	ldr	r2, [r4, #4]
	.loc 1 2447 100
	add	r3, r3, r2, lsr #1
	.loc 1 2447 16
	udiv	r3, r3, r2
.LVL67:
	.loc 1 2343 21
	movs	r0, #0
	b	.L46
.LVL68:
.L49:
	.loc 1 2452 7 is_stmt 1
	.loc 1 2452 79 is_stmt 0
	ldr	r2, [r4, #44]
	.loc 1 2452 62
	ldr	r3, .L100+8
	ldrh	r2, [r3, r2, lsl #1]
	.loc 1 2452 41
	ldr	r3, .L100+12
	udiv	r3, r3, r2
	.loc 1 2453 45
	ldr	r2, [r4, #4]
	.loc 1 2452 97
	add	r3, r3, r2, lsr #1
	.loc 1 2452 14
	udiv	r3, r3, r2
.LVL69:
	.loc 1 2454 7 is_stmt 1
	.loc 1 2343 21 is_stmt 0
	movs	r0, #0
	.loc 1 2454 7
	b	.L46
.LVL70:
.L47:
	.loc 1 2456 7 is_stmt 1
	.loc 1 2456 87 is_stmt 0
	ldr	r2, [r4, #44]
	.loc 1 2456 70
	ldr	r3, .L100+8
	ldrh	r2, [r3, r2, lsl #1]
	.loc 1 2456 28
	mov	r3, #32768
	udiv	r3, r3, r2
	.loc 1 2457 45
	ldr	r2, [r4, #4]
	.loc 1 2456 105
	add	r3, r3, r2, lsr #1
	.loc 1 2456 14
	udiv	r3, r3, r2
.LVL71:
	.loc 1 2458 7 is_stmt 1
	.loc 1 2343 21 is_stmt 0
	movs	r0, #0
	.loc 1 2458 7
	b	.L46
.LVL72:
.L62:
	.loc 1 2414 106
	movs	r0, #1
	movs	r3, #0
	b	.L46
.L63:
	.loc 1 2414 861
	movs	r0, #1
	movs	r3, #0
	b	.L46
.L64:
	.loc 1 2414 1616
	movs	r0, #1
	movs	r3, #0
	b	.L46
.L66:
	.loc 1 2414 2388
	movs	r0, #1
	movs	r3, #0
	b	.L46
.LVL73:
.L67:
	.loc 1 2471 9
	movs	r0, #1
.LVL74:
.L61:
	.loc 1 2475 3 is_stmt 1
	.loc 1 2475 33 is_stmt 0
	movs	r3, #1
	strh	r3, [r4, #102]	@ movhi
	.loc 1 2476 3 is_stmt 1
	.loc 1 2476 33 is_stmt 0
	strh	r3, [r4, #100]	@ movhi
	.loc 1 2479 3 is_stmt 1
	.loc 1 2479 21 is_stmt 0
	movs	r3, #0
	str	r3, [r4, #108]
	.loc 1 2480 3 is_stmt 1
	.loc 1 2480 21 is_stmt 0
	str	r3, [r4, #112]
	.loc 1 2482 3 is_stmt 1
	.loc 1 2483 1 is_stmt 0
	add	sp, sp, #28
	.cfi_def_cfa_offset 12
	@ sp needed
	pop	{r4, r5, pc}
.LVL75:
.L101:
	.align	2
.L100:
	.word	1476543488
	.word	64000000
	.word	SMARTCARDPrescTable.0
	.word	4000000
	.cfi_endproc
.LFE360:
	.size	SMARTCARD_SetConfig, .-SMARTCARD_SetConfig
	.section	.text.SMARTCARD_WaitOnFlagUntilTimeout,"ax",%progbits
	.align	1
	.syntax unified
	.thumb
	.thumb_func
	.type	SMARTCARD_WaitOnFlagUntilTimeout, %function
SMARTCARD_WaitOnFlagUntilTimeout:
.LFB363:
	.loc 1 2610 1 is_stmt 1
	.cfi_startproc
	@ args = 4, pretend = 0, frame = 0
	@ frame_needed = 0, uses_anonymous_args = 0
.LVL76:
	push	{r3, r4, r5, r6, r7, r8, r9, lr}
	.cfi_def_cfa_offset 32
	.cfi_offset 3, -32
	.cfi_offset 4, -28
	.cfi_offset 5, -24
	.cfi_offset 6, -20
	.cfi_offset 7, -16
	.cfi_offset 8, -12
	.cfi_offset 9, -8
	.cfi_offset 14, -4
	mov	r5, r0
	mov	r7, r1
	mov	r6, r2
	mov	r9, r3
	ldr	r8, [sp, #32]
	.loc 1 2612 3
.LVL77:
.L104:
	.loc 1 2612 77
	.loc 1 2612 25 is_stmt 0
	ldr	r3, [r5]
	.loc 1 2612 35
	ldr	r4, [r3, #28]
	.loc 1 2612 68
	bics	r4, r7, r4
	ite	eq
	moveq	r4, #1
	movne	r4, #0
	.loc 1 2612 77
	cmp	r4, r6
	bne	.L109
	.loc 1 2615 5 is_stmt 1
	.loc 1 2615 8 is_stmt 0
	cmp	r8, #-1
	beq	.L104
	.loc 1 2617 7 is_stmt 1
	.loc 1 2617 13 is_stmt 0
	bl	HAL_GetTick
.LVL78:
	.loc 1 2617 27
	sub	r0, r0, r9
	.loc 1 2617 10
	cmp	r0, r8
	bhi	.L105
	.loc 1 2617 51 discriminator 1
	cmp	r8, #0
	bne	.L104
.L105:
	.loc 1 2621 9 is_stmt 1
	.loc 1 2621 21 is_stmt 0
	ldr	r2, [r5]
	.loc 1 2621 31
	ldr	r3, [r2]
	.loc 1 2621 38
	bic	r3, r3, #416
	str	r3, [r2]
	.loc 1 2622 9 is_stmt 1
	.loc 1 2622 21 is_stmt 0
	ldr	r2, [r5]
	.loc 1 2622 31
	ldr	r3, [r2, #8]
	.loc 1 2622 38
	bic	r3, r3, #1
	str	r3, [r2, #8]
	.loc 1 2624 9 is_stmt 1
	.loc 1 2624 28 is_stmt 0
	movs	r3, #32
	str	r3, [r5, #128]
	.loc 1 2625 9 is_stmt 1
	.loc 1 2625 29 is_stmt 0
	str	r3, [r5, #132]
	.loc 1 2628 9 is_stmt 1
	.loc 1 2628 13
	.loc 1 2628 32 is_stmt 0
	movs	r3, #0
	strb	r3, [r5, #124]
	.loc 1 2628 11 is_stmt 1
	.loc 1 2629 9
	.loc 1 2629 16 is_stmt 0
	movs	r0, #3
	b	.L106
.L109:
	.loc 1 2633 10
	movs	r0, #0
.L106:
	.loc 1 2634 1
	pop	{r3, r4, r5, r6, r7, r8, r9, pc}
	.cfi_endproc
.LFE363:
	.size	SMARTCARD_WaitOnFlagUntilTimeout, .-SMARTCARD_WaitOnFlagUntilTimeout
	.section	.text.SMARTCARD_CheckIdleState,"ax",%progbits
	.align	1
	.syntax unified
	.thumb
	.thumb_func
	.type	SMARTCARD_CheckIdleState, %function
SMARTCARD_CheckIdleState:
.LFB362:
	.loc 1 2555 1 is_stmt 1
	.cfi_startproc
	@ args = 0, pretend = 0, frame = 0
	@ frame_needed = 0, uses_anonymous_args = 0
.LVL79:
	push	{r4, r5, lr}
	.cfi_def_cfa_offset 12
	.cfi_offset 4, -12
	.cfi_offset 5, -8
	.cfi_offset 14, -4
	sub	sp, sp, #12
	.cfi_def_cfa_offset 24
	mov	r4, r0
	.loc 1 2556 3
	.loc 1 2559 3
	.loc 1 2559 25 is_stmt 0
	movs	r3, #0
	str	r3, [r0, #136]
	.loc 1 2562 3 is_stmt 1
	.loc 1 2562 15 is_stmt 0
	bl	HAL_GetTick
.LVL80:
	mov	r5, r0
.LVL81:
	.loc 1 2565 3 is_stmt 1
	.loc 1 2565 18 is_stmt 0
	ldr	r2, [r4]
	.loc 1 2565 28
	ldr	r2, [r2]
	.loc 1 2565 6
	tst	r2, #8
	bne	.L117
.LVL82:
.L111:
	.loc 1 2576 3 is_stmt 1
	.loc 1 2576 18 is_stmt 0
	ldr	r3, [r4]
	.loc 1 2576 28
	ldr	r3, [r3]
	.loc 1 2576 6
	tst	r3, #4
	bne	.L118
.L113:
	.loc 1 2588 3 is_stmt 1
	.loc 1 2588 22 is_stmt 0
	movs	r3, #32
	str	r3, [r4, #128]
	.loc 1 2589 3 is_stmt 1
	.loc 1 2589 23 is_stmt 0
	str	r3, [r4, #132]
	.loc 1 2592 3 is_stmt 1
	.loc 1 2592 7
	.loc 1 2592 26 is_stmt 0
	movs	r0, #0
	strb	r0, [r4, #124]
	.loc 1 2592 5 is_stmt 1
	.loc 1 2594 3
.L112:
	.loc 1 2595 1 is_stmt 0
	add	sp, sp, #12
	.cfi_remember_state
	.cfi_def_cfa_offset 12
	@ sp needed
	pop	{r4, r5, pc}
.LVL83:
.L117:
	.cfi_restore_state
	.loc 1 2568 5 is_stmt 1
	.loc 1 2568 9 is_stmt 0
	mov	r3, #1000
	str	r3, [sp]
	mov	r3, r0
	movs	r2, #0
	mov	r1, #2097152
	mov	r0, r4
.LVL84:
	bl	SMARTCARD_WaitOnFlagUntilTimeout
.LVL85:
	.loc 1 2568 8
	cmp	r0, #0
	beq	.L111
	.loc 1 2572 14
	movs	r0, #3
	b	.L112
.L118:
	.loc 1 2579 5 is_stmt 1
	.loc 1 2579 9 is_stmt 0
	mov	r3, #1000
	str	r3, [sp]
	mov	r3, r5
	movs	r2, #0
	mov	r1, #4194304
	mov	r0, r4
	bl	SMARTCARD_WaitOnFlagUntilTimeout
.LVL86:
	.loc 1 2579 8
	cmp	r0, #0
	beq	.L113
	.loc 1 2583 14
	movs	r0, #3
	b	.L112
	.cfi_endproc
.LFE362:
	.size	SMARTCARD_CheckIdleState, .-SMARTCARD_CheckIdleState
	.section	.text.HAL_SMARTCARD_MspInit,"ax",%progbits
	.align	1
	.weak	HAL_SMARTCARD_MspInit
	.syntax unified
	.thumb
	.thumb_func
	.type	HAL_SMARTCARD_MspInit, %function
HAL_SMARTCARD_MspInit:
.LFB337:
	.loc 1 442 1 is_stmt 1
	.cfi_startproc
	@ args = 0, pretend = 0, frame = 0
	@ frame_needed = 0, uses_anonymous_args = 0
	@ link register save eliminated.
.LVL87:
	.loc 1 444 3
	.loc 1 449 1 is_stmt 0
	bx	lr
	.cfi_endproc
.LFE337:
	.size	HAL_SMARTCARD_MspInit, .-HAL_SMARTCARD_MspInit
	.section	.text.HAL_SMARTCARD_Init,"ax",%progbits
	.align	1
	.global	HAL_SMARTCARD_Init
	.syntax unified
	.thumb
	.thumb_func
	.type	HAL_SMARTCARD_Init, %function
HAL_SMARTCARD_Init:
.LFB335:
	.loc 1 319 1 is_stmt 1
	.cfi_startproc
	@ args = 0, pretend = 0, frame = 0
	@ frame_needed = 0, uses_anonymous_args = 0
.LVL88:
	.loc 1 321 3
	.loc 1 321 6 is_stmt 0
	cmp	r0, #0
	beq	.L125
	.loc 1 319 1
	push	{r4, lr}
	.cfi_def_cfa_offset 8
	.cfi_offset 4, -8
	.cfi_offset 14, -4
	mov	r4, r0
	.loc 1 327 3 is_stmt 1
	.loc 1 329 3
	.loc 1 329 17 is_stmt 0
	ldr	r3, [r0, #128]
	.loc 1 329 6
	cbz	r3, .L130
.LVL89:
.L122:
	.loc 1 350 3 is_stmt 1
	.loc 1 350 22 is_stmt 0
	movs	r3, #36
	str	r3, [r4, #128]
	.loc 1 353 3 is_stmt 1
	.loc 1 353 15 is_stmt 0
	ldr	r2, [r4]
	.loc 1 353 25
	ldr	r3, [r2]
	.loc 1 353 32
	bic	r3, r3, #1
	str	r3, [r2]
	.loc 1 358 3 is_stmt 1
	.loc 1 358 15 is_stmt 0
	ldr	r2, [r4]
	.loc 1 358 25
	ldr	r3, [r2, #4]
	.loc 1 358 32
	bic	r3, r3, #16384
	str	r3, [r2, #4]
	.loc 1 359 3 is_stmt 1
	.loc 1 359 15 is_stmt 0
	ldr	r2, [r4]
	.loc 1 359 25
	ldr	r3, [r2, #8]
	.loc 1 359 32
	bic	r3, r3, #10
	str	r3, [r2, #8]
	.loc 1 362 3 is_stmt 1
	.loc 1 362 15 is_stmt 0
	ldr	r2, [r4]
	.loc 1 362 25
	ldr	r3, [r2, #8]
	.loc 1 362 32
	orr	r3, r3, #32
	str	r3, [r2, #8]
	.loc 1 365 3 is_stmt 1
	.loc 1 365 7 is_stmt 0
	mov	r0, r4
	bl	SMARTCARD_SetConfig
.LVL90:
	.loc 1 365 6
	cmp	r0, #1
	beq	.L121
	.loc 1 371 3 is_stmt 1
	.loc 1 371 8
	.loc 1 371 41 is_stmt 0
	ldr	r3, [r4, #48]
	.loc 1 371 11
	tst	r3, #256
	bne	.L123
	.loc 1 371 85 is_stmt 1 discriminator 1
	.loc 1 371 135 is_stmt 0 discriminator 1
	movw	r2, #1574
	strh	r2, [r4, #80]	@ movhi
.L123:
	.loc 1 371 155 is_stmt 1 discriminator 3
	.loc 1 371 6 discriminator 3
	.loc 1 373 3 discriminator 3
	.loc 1 373 6 is_stmt 0 discriminator 3
	cbnz	r3, .L131
.L124:
	.loc 1 379 3 is_stmt 1
	.loc 1 379 15 is_stmt 0
	ldr	r2, [r4]
	.loc 1 379 25
	ldr	r3, [r2]
	.loc 1 379 32
	orr	r3, r3, #1
	str	r3, [r2]
	.loc 1 382 3 is_stmt 1
	.loc 1 382 11 is_stmt 0
	mov	r0, r4
	bl	SMARTCARD_CheckIdleState
.LVL91:
.L121:
	.loc 1 383 1
	pop	{r4, pc}
.LVL92:
.L130:
	.loc 1 332 5 is_stmt 1
	.loc 1 332 22 is_stmt 0
	strb	r3, [r0, #124]
	.loc 1 346 5 is_stmt 1
	bl	HAL_SMARTCARD_MspInit
.LVL93:
	b	.L122
.L131:
	.loc 1 375 5
	mov	r0, r4
	bl	SMARTCARD_AdvFeatureConfig
.LVL94:
	b	.L124
.LVL95:
.L125:
	.cfi_def_cfa_offset 0
	.cfi_restore 4
	.cfi_restore 14
	.loc 1 323 12 is_stmt 0
	movs	r0, #1
.LVL96:
	.loc 1 383 1
	bx	lr
	.cfi_endproc
.LFE335:
	.size	HAL_SMARTCARD_Init, .-HAL_SMARTCARD_Init
	.section	.text.HAL_SMARTCARD_MspDeInit,"ax",%progbits
	.align	1
	.weak	HAL_SMARTCARD_MspDeInit
	.syntax unified
	.thumb
	.thumb_func
	.type	HAL_SMARTCARD_MspDeInit, %function
HAL_SMARTCARD_MspDeInit:
.LFB338:
	.loc 1 458 1 is_stmt 1
	.cfi_startproc
	@ args = 0, pretend = 0, frame = 0
	@ frame_needed = 0, uses_anonymous_args = 0
	@ link register save eliminated.
.LVL97:
	.loc 1 460 3
	.loc 1 465 1 is_stmt 0
	bx	lr
	.cfi_endproc
.LFE338:
	.size	HAL_SMARTCARD_MspDeInit, .-HAL_SMARTCARD_MspDeInit
	.section	.text.HAL_SMARTCARD_DeInit,"ax",%progbits
	.align	1
	.global	HAL_SMARTCARD_DeInit
	.syntax unified
	.thumb
	.thumb_func
	.type	HAL_SMARTCARD_DeInit, %function
HAL_SMARTCARD_DeInit:
.LFB336:
	.loc 1 392 1 is_stmt 1
	.cfi_startproc
	@ args = 0, pretend = 0, frame = 0
	@ frame_needed = 0, uses_anonymous_args = 0
.LVL98:
	.loc 1 394 3
	.loc 1 394 6 is_stmt 0
	cbz	r0, .L135
	.loc 1 392 1
	push	{r3, r4, r5, lr}
	.cfi_def_cfa_offset 16
	.cfi_offset 3, -16
	.cfi_offset 4, -12
	.cfi_offset 5, -8
	.cfi_offset 14, -4
	mov	r5, r0
	.loc 1 400 3 is_stmt 1
	.loc 1 402 3
	.loc 1 402 22 is_stmt 0
	movs	r3, #36
	str	r3, [r0, #128]
	.loc 1 405 3 is_stmt 1
	.loc 1 405 15 is_stmt 0
	ldr	r2, [r0]
	.loc 1 405 25
	ldr	r3, [r2]
	.loc 1 405 32
	bic	r3, r3, #1
	str	r3, [r2]
	.loc 1 407 3 is_stmt 1
	.loc 1 407 15 is_stmt 0
	ldr	r3, [r0]
	.loc 1 407 32
	movs	r4, #0
	str	r4, [r3]
	.loc 1 408 3 is_stmt 1
	.loc 1 408 15 is_stmt 0
	ldr	r3, [r0]
	.loc 1 408 32
	str	r4, [r3, #4]
	.loc 1 409 3 is_stmt 1
	.loc 1 409 15 is_stmt 0
	ldr	r3, [r0]
	.loc 1 409 32
	str	r4, [r3, #8]
	.loc 1 410 3 is_stmt 1
	.loc 1 410 15 is_stmt 0
	ldr	r3, [r0]
	.loc 1 410 33
	str	r4, [r3, #20]
	.loc 1 411 3 is_stmt 1
	.loc 1 411 15 is_stmt 0
	ldr	r3, [r0]
	.loc 1 411 33
	str	r4, [r3, #16]
	.loc 1 422 3 is_stmt 1
	bl	HAL_SMARTCARD_MspDeInit
.LVL99:
	.loc 1 425 3
	.loc 1 425 25 is_stmt 0
	str	r4, [r5, #136]
	.loc 1 426 3 is_stmt 1
	.loc 1 426 22 is_stmt 0
	str	r4, [r5, #128]
	.loc 1 427 3 is_stmt 1
	.loc 1 427 23 is_stmt 0
	str	r4, [r5, #132]
	.loc 1 430 3 is_stmt 1
	.loc 1 430 7
	.loc 1 430 26 is_stmt 0
	strb	r4, [r5, #124]
	.loc 1 430 5 is_stmt 1
	.loc 1 432 3
	.loc 1 432 10 is_stmt 0
	mov	r0, r4
	.loc 1 433 1
	pop	{r3, r4, r5, pc}
.LVL100:
.L135:
	.cfi_def_cfa_offset 0
	.cfi_restore 3
	.cfi_restore 4
	.cfi_restore 5
	.cfi_restore 14
	.loc 1 396 12
	movs	r0, #1
.LVL101:
	.loc 1 433 1
	bx	lr
	.cfi_endproc
.LFE336:
	.size	HAL_SMARTCARD_DeInit, .-HAL_SMARTCARD_DeInit
	.section	.text.HAL_SMARTCARD_Transmit,"ax",%progbits
	.align	1
	.global	HAL_SMARTCARD_Transmit
	.syntax unified
	.thumb
	.thumb_func
	.type	HAL_SMARTCARD_Transmit, %function
HAL_SMARTCARD_Transmit:
.LFB339:
	.loc 1 809 1 is_stmt 1
	.cfi_startproc
	@ args = 0, pretend = 0, frame = 0
	@ frame_needed = 0, uses_anonymous_args = 0
.LVL102:
	push	{r4, r5, r6, r7, r8, lr}
	.cfi_def_cfa_offset 24
	.cfi_offset 4, -24
	.cfi_offset 5, -20
	.cfi_offset 6, -16
	.cfi_offset 7, -12
	.cfi_offset 8, -8
	.cfi_offset 14, -4
	sub	sp, sp, #8
	.cfi_def_cfa_offset 32
	mov	r6, r3
	.loc 1 810 3
	.loc 1 811 3
.LVL103:
	.loc 1 814 3
	.loc 1 814 17 is_stmt 0
	ldr	r3, [r0, #128]
.LVL104:
	.loc 1 814 6
	cmp	r3, #32
	bne	.L149
	mov	r4, r0
	mov	r5, r1
	mov	r8, r2
	.loc 1 816 5 is_stmt 1
	.loc 1 816 8 is_stmt 0
	cmp	r2, #0
	it	ne
	cmpne	r1, #0
	beq	.L150
	.loc 1 822 5 is_stmt 1
	.loc 1 822 9
	.loc 1 822 24 is_stmt 0
	ldrb	r3, [r0, #124]	@ zero_extendqisi2
	.loc 1 822 11
	cmp	r3, #1
	beq	.L151
	.loc 1 822 74 is_stmt 1 discriminator 2
	.loc 1 822 93 is_stmt 0 discriminator 2
	movs	r3, #1
	strb	r3, [r0, #124]
	.loc 1 822 7 is_stmt 1 discriminator 2
	.loc 1 824 5 discriminator 2
	.loc 1 824 24 is_stmt 0 discriminator 2
	movs	r3, #33
	str	r3, [r0, #128]
	.loc 1 827 5 is_stmt 1 discriminator 2
	.loc 1 827 17 is_stmt 0 discriminator 2
	bl	HAL_GetTick
.LVL105:
	mov	r7, r0
.LVL106:
	.loc 1 830 5 is_stmt 1 discriminator 2
	.loc 1 830 17 is_stmt 0 discriminator 2
	ldr	r2, [r4]
	.loc 1 830 27 discriminator 2
	ldr	r3, [r2]
	.loc 1 830 34 discriminator 2
	bic	r3, r3, #1
	str	r3, [r2]
	.loc 1 835 5 is_stmt 1 discriminator 2
	.loc 1 835 26 is_stmt 0 discriminator 2
	ldrh	r3, [r4, #18]
	.loc 1 835 8 discriminator 2
	cmp	r3, #8
	beq	.L156
.L142:
	.loc 1 841 5 is_stmt 1
	.loc 1 841 17 is_stmt 0
	ldr	r2, [r4]
	.loc 1 841 27
	ldr	r3, [r2]
	.loc 1 841 34
	orr	r3, r3, #8
	str	r3, [r2]
	.loc 1 844 5 is_stmt 1
	.loc 1 844 17 is_stmt 0
	ldr	r2, [r4]
	.loc 1 844 27
	ldr	r3, [r2]
	.loc 1 844 34
	orr	r3, r3, #1
	str	r3, [r2]
	.loc 1 847 5 is_stmt 1
	.loc 1 847 9
	.loc 1 847 23 is_stmt 0
	ldr	r2, [r4]
	.loc 1 847 33
	ldr	r3, [r2, #24]
	.loc 1 847 40
	orr	r3, r3, #8
	str	r3, [r2, #24]
	.loc 1 847 63 is_stmt 1
	.loc 1 847 77 is_stmt 0
	ldr	r2, [r4]
	.loc 1 847 87
	ldr	r3, [r2, #24]
	.loc 1 847 94
	orr	r3, r3, #16
	str	r3, [r2, #24]
	.loc 1 847 7 is_stmt 1
	.loc 1 849 5
	.loc 1 849 27 is_stmt 0
	movs	r3, #0
	str	r3, [r4, #136]
	.loc 1 850 5 is_stmt 1
	.loc 1 850 28 is_stmt 0
	strh	r8, [r4, #88]	@ movhi
	.loc 1 851 5 is_stmt 1
	.loc 1 851 29 is_stmt 0
	strh	r8, [r4, #90]	@ movhi
	.loc 1 853 5 is_stmt 1
.LVL107:
.L143:
	.loc 1 853 36
	.loc 1 853 22 is_stmt 0
	ldrh	r3, [r4, #90]
	uxth	r3, r3
	.loc 1 853 36
	cbz	r3, .L157
	.loc 1 855 7 is_stmt 1
	.loc 1 855 17 is_stmt 0
	ldrh	r2, [r4, #90]
	uxth	r2, r2
	.loc 1 855 30
	subs	r2, r2, #1
	uxth	r2, r2
	strh	r2, [r4, #90]	@ movhi
	.loc 1 856 7 is_stmt 1
	.loc 1 856 11 is_stmt 0
	str	r6, [sp]
	mov	r3, r7
	movs	r2, #0
	movs	r1, #128
	mov	r0, r4
	bl	SMARTCARD_WaitOnFlagUntilTimeout
.LVL108:
	.loc 1 856 10
	cmp	r0, #0
	bne	.L152
	.loc 1 860 7 is_stmt 1
	.loc 1 860 45 is_stmt 0
	ldrb	r2, [r5], #1	@ zero_extendqisi2
.LVL109:
	.loc 1 860 17
	ldr	r3, [r4]
	.loc 1 860 33
	str	r2, [r3, #40]
	.loc 1 861 7 is_stmt 1
.LVL110:
	b	.L143
.LVL111:
.L156:
	.loc 1 836 29 is_stmt 0
	ldrh	r3, [r4, #30]
	.loc 1 836 9
	cmp	r3, #16
	bne	.L142
	.loc 1 838 7 is_stmt 1
	.loc 1 838 19 is_stmt 0
	ldr	r2, [r4]
	.loc 1 838 29
	ldr	r3, [r2]
	.loc 1 838 36
	orr	r3, r3, #4
	str	r3, [r2]
	b	.L142
.LVL112:
.L157:
	.loc 1 863 5 is_stmt 1
	.loc 1 863 82 is_stmt 0
	ldrh	r2, [r4, #80]
	.loc 1 863 9
	movw	r3, #1574
	cmp	r2, r3
	beq	.L158
	mov	r1, #33554432
.L145:
	.loc 1 863 9 discriminator 4
	str	r6, [sp]
	mov	r3, r7
	movs	r2, #0
	mov	r0, r4
	bl	SMARTCARD_WaitOnFlagUntilTimeout
.LVL113:
	.loc 1 863 8 discriminator 4
	cmp	r0, #0
	bne	.L154
	.loc 1 870 5 is_stmt 1
	.loc 1 870 17 is_stmt 0
	ldr	r2, [r4]
	.loc 1 870 27
	ldr	r3, [r2]
	.loc 1 870 34
	bic	r3, r3, #1
	str	r3, [r2]
	.loc 1 871 5 is_stmt 1
	.loc 1 871 26 is_stmt 0
	ldrh	r3, [r4, #18]
	.loc 1 871 8
	cmp	r3, #8
	beq	.L159
.L146:
	.loc 1 878 5 is_stmt 1
	.loc 1 878 26 is_stmt 0
	ldrh	r3, [r4, #18]
	.loc 1 878 8
	cmp	r3, #12
	beq	.L147
	.loc 1 879 29
	ldrh	r3, [r4, #30]
	.loc 1 879 9
	cmp	r3, #16
	bne	.L148
.L147:
	.loc 1 882 7 is_stmt 1
	.loc 1 882 11
	.loc 1 882 25 is_stmt 0
	ldr	r2, [r4]
	.loc 1 882 35
	ldr	r3, [r2, #24]
	.loc 1 882 42
	orr	r3, r3, #8
	str	r3, [r2, #24]
	.loc 1 882 65 is_stmt 1
	.loc 1 882 79 is_stmt 0
	ldr	r2, [r4]
	.loc 1 882 89
	ldr	r3, [r2, #24]
	.loc 1 882 96
	orr	r3, r3, #16
	str	r3, [r2, #24]
.L148:
	.loc 1 882 9 is_stmt 1 discriminator 1
	.loc 1 884 5 discriminator 1
	.loc 1 884 17 is_stmt 0 discriminator 1
	ldr	r2, [r4]
	.loc 1 884 27 discriminator 1
	ldr	r3, [r2]
	.loc 1 884 34 discriminator 1
	orr	r3, r3, #1
	str	r3, [r2]
	.loc 1 887 5 is_stmt 1 discriminator 1
	.loc 1 887 24 is_stmt 0 discriminator 1
	movs	r3, #32
	str	r3, [r4, #128]
	.loc 1 890 5 is_stmt 1 discriminator 1
	.loc 1 890 9 discriminator 1
	.loc 1 890 28 is_stmt 0 discriminator 1
	movs	r3, #0
	strb	r3, [r4, #124]
	.loc 1 890 7 is_stmt 1 discriminator 1
	.loc 1 892 5 discriminator 1
	.loc 1 892 12 is_stmt 0 discriminator 1
	b	.L141
.L158:
	.loc 1 863 9
	movs	r1, #64
	b	.L145
.L159:
	.loc 1 872 29
	ldrh	r3, [r4, #30]
	.loc 1 872 9
	cmp	r3, #16
	bne	.L146
	.loc 1 876 7 is_stmt 1
	.loc 1 876 19 is_stmt 0
	ldr	r2, [r4]
	.loc 1 876 29
	ldr	r3, [r2]
	.loc 1 876 36
	bic	r3, r3, #4
	str	r3, [r2]
	b	.L146
.LVL114:
.L149:
	.loc 1 896 12
	movs	r0, #2
.LVL115:
.L141:
	.loc 1 898 1
	add	sp, sp, #8
	.cfi_remember_state
	.cfi_def_cfa_offset 24
	@ sp needed
	pop	{r4, r5, r6, r7, r8, pc}
.LVL116:
.L150:
	.cfi_restore_state
	.loc 1 818 14
	movs	r0, #1
.LVL117:
	b	.L141
.LVL118:
.L151:
	.loc 1 822 55
	movs	r0, #2
.LVL119:
	b	.L141
.LVL120:
.L152:
	.loc 1 858 16
	movs	r0, #3
	b	.L141
.L154:
	.loc 1 866 14
	movs	r0, #3
	b	.L141
	.cfi_endproc
.LFE339:
	.size	HAL_SMARTCARD_Transmit, .-HAL_SMARTCARD_Transmit
	.section	.text.HAL_SMARTCARD_Receive,"ax",%progbits
	.align	1
	.global	HAL_SMARTCARD_Receive
	.syntax unified
	.thumb
	.thumb_func
	.type	HAL_SMARTCARD_Receive, %function
HAL_SMARTCARD_Receive:
.LFB340:
	.loc 1 915 1 is_stmt 1
	.cfi_startproc
	@ args = 0, pretend = 0, frame = 0
	@ frame_needed = 0, uses_anonymous_args = 0
.LVL121:
	push	{r4, r5, r6, r7, r8, lr}
	.cfi_def_cfa_offset 24
	.cfi_offset 4, -24
	.cfi_offset 5, -20
	.cfi_offset 6, -16
	.cfi_offset 7, -12
	.cfi_offset 8, -8
	.cfi_offset 14, -4
	sub	sp, sp, #8
	.cfi_def_cfa_offset 32
	mov	r6, r3
	.loc 1 916 3
	.loc 1 917 3
.LVL122:
	.loc 1 920 3
	.loc 1 920 17 is_stmt 0
	ldr	r3, [r0, #132]
.LVL123:
	.loc 1 920 6
	cmp	r3, #32
	bne	.L164
	mov	r4, r0
	mov	r5, r1
	mov	r8, r2
	.loc 1 922 5 is_stmt 1
	.loc 1 922 8 is_stmt 0
	cmp	r2, #0
	it	ne
	cmpne	r1, #0
	beq	.L165
	.loc 1 928 5 is_stmt 1
	.loc 1 928 9
	.loc 1 928 24 is_stmt 0
	ldrb	r3, [r0, #124]	@ zero_extendqisi2
	.loc 1 928 11
	cmp	r3, #1
	beq	.L166
	.loc 1 928 74 is_stmt 1 discriminator 2
	.loc 1 928 93 is_stmt 0 discriminator 2
	movs	r3, #1
	strb	r3, [r0, #124]
	.loc 1 928 7 is_stmt 1 discriminator 2
	.loc 1 930 5 discriminator 2
	.loc 1 930 27 is_stmt 0 discriminator 2
	movs	r3, #0
	str	r3, [r0, #136]
	.loc 1 931 5 is_stmt 1 discriminator 2
	.loc 1 931 25 is_stmt 0 discriminator 2
	movs	r3, #34
	str	r3, [r0, #132]
	.loc 1 934 5 is_stmt 1 discriminator 2
	.loc 1 934 17 is_stmt 0 discriminator 2
	bl	HAL_GetTick
.LVL124:
	mov	r7, r0
.LVL125:
	.loc 1 936 5 is_stmt 1 discriminator 2
	.loc 1 936 28 is_stmt 0 discriminator 2
	strh	r8, [r4, #96]	@ movhi
	.loc 1 937 5 is_stmt 1 discriminator 2
	.loc 1 937 29 is_stmt 0 discriminator 2
	strh	r8, [r4, #98]	@ movhi
	.loc 1 940 5 is_stmt 1 discriminator 2
.LVL126:
.L162:
	.loc 1 940 36
	.loc 1 940 22 is_stmt 0
	ldrh	r3, [r4, #98]
	uxth	r3, r3
	.loc 1 940 36
	cbz	r3, .L169
	.loc 1 942 7 is_stmt 1
	.loc 1 942 17 is_stmt 0
	ldrh	r2, [r4, #98]
	uxth	r2, r2
	.loc 1 942 30
	subs	r2, r2, #1
	uxth	r2, r2
	strh	r2, [r4, #98]	@ movhi
	.loc 1 944 7 is_stmt 1
	.loc 1 944 11 is_stmt 0
	str	r6, [sp]
	mov	r3, r7
	movs	r2, #0
	movs	r1, #32
	mov	r0, r4
	bl	SMARTCARD_WaitOnFlagUntilTimeout
.LVL127:
	.loc 1 944 10
	cbnz	r0, .L167
	.loc 1 948 7 is_stmt 1
	.loc 1 948 39 is_stmt 0
	ldr	r3, [r4]
	.loc 1 948 49
	ldr	r3, [r3, #36]
	.loc 1 948 17
	strb	r3, [r5], #1
.LVL128:
	.loc 1 949 7 is_stmt 1
	b	.L162
.L169:
	.loc 1 953 5
	.loc 1 953 25 is_stmt 0
	movs	r3, #32
	str	r3, [r4, #132]
	.loc 1 956 5 is_stmt 1
	.loc 1 956 9
	.loc 1 956 28 is_stmt 0
	movs	r0, #0
	strb	r0, [r4, #124]
	.loc 1 956 7 is_stmt 1
	.loc 1 958 5
	.loc 1 958 12 is_stmt 0
	b	.L161
.LVL129:
.L164:
	.loc 1 962 12
	movs	r0, #2
.LVL130:
.L161:
	.loc 1 964 1
	add	sp, sp, #8
	.cfi_remember_state
	.cfi_def_cfa_offset 24
	@ sp needed
	pop	{r4, r5, r6, r7, r8, pc}
.LVL131:
.L165:
	.cfi_restore_state
	.loc 1 924 14
	movs	r0, #1
.LVL132:
	b	.L161
.LVL133:
.L166:
	.loc 1 928 55
	movs	r0, #2
.LVL134:
	b	.L161
.LVL135:
.L167:
	.loc 1 946 16
	movs	r0, #3
	b	.L161
	.cfi_endproc
.LFE340:
	.size	HAL_SMARTCARD_Receive, .-HAL_SMARTCARD_Receive
	.section	.text.HAL_SMARTCARD_Transmit_IT,"ax",%progbits
	.align	1
	.global	HAL_SMARTCARD_Transmit_IT
	.syntax unified
	.thumb
	.thumb_func
	.type	HAL_SMARTCARD_Transmit_IT, %function
HAL_SMARTCARD_Transmit_IT:
.LFB341:
	.loc 1 982 1 is_stmt 1
	.cfi_startproc
	@ args = 0, pretend = 0, frame = 0
	@ frame_needed = 0, uses_anonymous_args = 0
	@ link register save eliminated.
.LVL136:
	.loc 1 984 3
	.loc 1 984 17 is_stmt 0
	ldr	r3, [r0, #128]
	.loc 1 984 6
	cmp	r3, #32
	bne	.L175
	.loc 1 986 5 is_stmt 1
	.loc 1 986 8 is_stmt 0
	cmp	r2, #0
	it	ne
	cmpne	r1, #0
	beq	.L176
	.loc 1 992 5 is_stmt 1
	.loc 1 992 9
	.loc 1 992 24 is_stmt 0
	ldrb	r3, [r0, #124]	@ zero_extendqisi2
	.loc 1 992 11
	cmp	r3, #1
	beq	.L177
	.loc 1 982 1 discriminator 2
	push	{r4}
	.cfi_def_cfa_offset 4
	.cfi_offset 4, -4
	.loc 1 992 74 is_stmt 1 discriminator 2
	.loc 1 992 93 is_stmt 0 discriminator 2
	movs	r3, #1
	strb	r3, [r0, #124]
	.loc 1 992 7 is_stmt 1 discriminator 2
	.loc 1 994 5 discriminator 2
	.loc 1 994 27 is_stmt 0 discriminator 2
	movs	r3, #0
	str	r3, [r0, #136]
	.loc 1 995 5 is_stmt 1 discriminator 2
	.loc 1 995 24 is_stmt 0 discriminator 2
	movs	r4, #33
	str	r4, [r0, #128]
	.loc 1 997 5 is_stmt 1 discriminator 2
	.loc 1 997 28 is_stmt 0 discriminator 2
	str	r1, [r0, #84]
	.loc 1 998 5 is_stmt 1 discriminator 2
	.loc 1 998 28 is_stmt 0 discriminator 2
	strh	r2, [r0, #88]	@ movhi
	.loc 1 999 5 is_stmt 1 discriminator 2
	.loc 1 999 29 is_stmt 0 discriminator 2
	strh	r2, [r0, #90]	@ movhi
	.loc 1 1000 5 is_stmt 1 discriminator 2
	.loc 1 1000 23 is_stmt 0 discriminator 2
	str	r3, [r0, #112]
	.loc 1 1003 5 is_stmt 1 discriminator 2
	.loc 1 1003 17 is_stmt 0 discriminator 2
	ldr	r2, [r0]
.LVL137:
	.loc 1 1003 27 discriminator 2
	ldr	r3, [r2]
	.loc 1 1003 34 discriminator 2
	bic	r3, r3, #1
	str	r3, [r2]
.LVL138:
	.loc 1 1008 5 is_stmt 1 discriminator 2
	.loc 1 1008 26 is_stmt 0 discriminator 2
	ldrh	r3, [r0, #18]
	.loc 1 1008 8 discriminator 2
	cmp	r3, #8
	beq	.L182
.L172:
	.loc 1 1014 5 is_stmt 1
	.loc 1 1014 17 is_stmt 0
	ldr	r2, [r0]
	.loc 1 1014 27
	ldr	r3, [r2]
	.loc 1 1014 34
	orr	r3, r3, #8
	str	r3, [r2]
	.loc 1 1017 5 is_stmt 1
	.loc 1 1017 17 is_stmt 0
	ldr	r2, [r0]
	.loc 1 1017 27
	ldr	r3, [r2]
	.loc 1 1017 34
	orr	r3, r3, #1
	str	r3, [r2]
	.loc 1 1020 5 is_stmt 1
	.loc 1 1020 9
	.loc 1 1020 23 is_stmt 0
	ldr	r2, [r0]
	.loc 1 1020 33
	ldr	r3, [r2, #24]
	.loc 1 1020 40
	orr	r3, r3, #8
	str	r3, [r2, #24]
	.loc 1 1020 63 is_stmt 1
	.loc 1 1020 77 is_stmt 0
	ldr	r2, [r0]
	.loc 1 1020 87
	ldr	r3, [r2, #24]
	.loc 1 1020 94
	orr	r3, r3, #16
	str	r3, [r2, #24]
	.loc 1 1020 7 is_stmt 1
	.loc 1 1023 5
	.loc 1 1023 19 is_stmt 0
	ldr	r3, [r0, #104]
	.loc 1 1023 8
	cmp	r3, #536870912
	beq	.L183
	.loc 1 1040 7 is_stmt 1
	.loc 1 1040 25 is_stmt 0
	ldr	r3, .L184
	str	r3, [r0, #112]
	.loc 1 1043 7 is_stmt 1
	.loc 1 1043 11
	.loc 1 1043 30 is_stmt 0
	movs	r3, #0
	strb	r3, [r0, #124]
	.loc 1 1043 9 is_stmt 1
	.loc 1 1046 7
	.loc 1 1046 19 is_stmt 0
	ldr	r2, [r0]
	.loc 1 1046 29
	ldr	r3, [r2, #8]
	.loc 1 1046 36
	orr	r3, r3, #1
	str	r3, [r2, #8]
	.loc 1 1049 7 is_stmt 1
	.loc 1 1049 19 is_stmt 0
	ldr	r2, [r0]
	.loc 1 1049 29
	ldr	r3, [r2]
	.loc 1 1049 36
	orr	r3, r3, #128
	str	r3, [r2]
.L174:
	.loc 1 1052 5 is_stmt 1
	.loc 1 1052 12 is_stmt 0
	movs	r0, #0
.LVL139:
	.loc 1 1058 1
	ldr	r4, [sp], #4
	.cfi_remember_state
	.cfi_restore 4
	.cfi_def_cfa_offset 0
	bx	lr
.LVL140:
.L182:
	.cfi_restore_state
	.loc 1 1009 29
	ldrh	r3, [r0, #30]
	.loc 1 1009 9
	cmp	r3, #16
	bne	.L172
	.loc 1 1011 7 is_stmt 1
	.loc 1 1011 19 is_stmt 0
	ldr	r2, [r0]
	.loc 1 1011 29
	ldr	r3, [r2]
	.loc 1 1011 36
	orr	r3, r3, #4
	str	r3, [r2]
	b	.L172
.L183:
	.loc 1 1026 7 is_stmt 1
	.loc 1 1026 25 is_stmt 0
	ldr	r3, .L184+4
	str	r3, [r0, #112]
	.loc 1 1029 7 is_stmt 1
	.loc 1 1029 11
	.loc 1 1029 30 is_stmt 0
	movs	r3, #0
	strb	r3, [r0, #124]
	.loc 1 1029 9 is_stmt 1
	.loc 1 1032 7
	.loc 1 1032 19 is_stmt 0
	ldr	r2, [r0]
	.loc 1 1032 29
	ldr	r3, [r2, #8]
	.loc 1 1032 36
	orr	r3, r3, #1
	str	r3, [r2, #8]
	.loc 1 1035 7 is_stmt 1
	.loc 1 1035 19 is_stmt 0
	ldr	r2, [r0]
	.loc 1 1035 29
	ldr	r3, [r2, #8]
	.loc 1 1035 36
	orr	r3, r3, #8388608
	str	r3, [r2, #8]
	b	.L174
.LVL141:
.L175:
	.cfi_def_cfa_offset 0
	.cfi_restore 4
	.loc 1 1056 12
	movs	r0, #2
.LVL142:
	bx	lr
.LVL143:
.L176:
	.loc 1 988 14
	movs	r0, #1
.LVL144:
	bx	lr
.LVL145:
.L177:
	.loc 1 992 55
	movs	r0, #2
.LVL146:
	.loc 1 1058 1
	bx	lr
.L185:
	.align	2
.L184:
	.word	SMARTCARD_TxISR
	.word	SMARTCARD_TxISR_FIFOEN
	.cfi_endproc
.LFE341:
	.size	HAL_SMARTCARD_Transmit_IT, .-HAL_SMARTCARD_Transmit_IT
	.section	.text.HAL_SMARTCARD_Receive_IT,"ax",%progbits
	.align	1
	.global	HAL_SMARTCARD_Receive_IT
	.syntax unified
	.thumb
	.thumb_func
	.type	HAL_SMARTCARD_Receive_IT, %function
HAL_SMARTCARD_Receive_IT:
.LFB342:
	.loc 1 1076 1 is_stmt 1
	.cfi_startproc
	@ args = 0, pretend = 0, frame = 0
	@ frame_needed = 0, uses_anonymous_args = 0
	@ link register save eliminated.
.LVL147:
	.loc 1 1078 3
	.loc 1 1078 17 is_stmt 0
	ldr	r3, [r0, #132]
	.loc 1 1078 6
	cmp	r3, #32
	bne	.L190
	.loc 1 1080 5 is_stmt 1
	.loc 1 1080 8 is_stmt 0
	cmp	r2, #0
	it	ne
	cmpne	r1, #0
	beq	.L191
	.loc 1 1086 5 is_stmt 1
	.loc 1 1086 9
	.loc 1 1086 24 is_stmt 0
	ldrb	r3, [r0, #124]	@ zero_extendqisi2
	.loc 1 1086 11
	cmp	r3, #1
	beq	.L192
	.loc 1 1086 74 is_stmt 1 discriminator 2
	.loc 1 1086 93 is_stmt 0 discriminator 2
	movs	r3, #1
	strb	r3, [r0, #124]
	.loc 1 1086 7 is_stmt 1 discriminator 2
	.loc 1 1088 5 discriminator 2
	.loc 1 1088 27 is_stmt 0 discriminator 2
	movs	r3, #0
	str	r3, [r0, #136]
	.loc 1 1089 5 is_stmt 1 discriminator 2
	.loc 1 1089 25 is_stmt 0 discriminator 2
	movs	r3, #34
	str	r3, [r0, #132]
	.loc 1 1091 5 is_stmt 1 discriminator 2
	.loc 1 1091 28 is_stmt 0 discriminator 2
	str	r1, [r0, #92]
	.loc 1 1092 5 is_stmt 1 discriminator 2
	.loc 1 1092 28 is_stmt 0 discriminator 2
	strh	r2, [r0, #96]	@ movhi
	.loc 1 1093 5 is_stmt 1 discriminator 2
	.loc 1 1093 29 is_stmt 0 discriminator 2
	strh	r2, [r0, #98]	@ movhi
	.loc 1 1096 5 is_stmt 1 discriminator 2
	.loc 1 1096 20 is_stmt 0 discriminator 2
	ldr	r3, [r0, #104]
	.loc 1 1096 8 discriminator 2
	cmp	r3, #536870912
	beq	.L193
.L188:
	.loc 1 1111 7 is_stmt 1
	.loc 1 1111 25 is_stmt 0
	ldr	r3, .L194
	str	r3, [r0, #108]
	.loc 1 1114 7 is_stmt 1
	.loc 1 1114 11
	.loc 1 1114 30 is_stmt 0
	movs	r3, #0
	strb	r3, [r0, #124]
	.loc 1 1114 9 is_stmt 1
	.loc 1 1117 7
	.loc 1 1117 19 is_stmt 0
	ldr	r2, [r0]
.LVL148:
	.loc 1 1117 29
	ldr	r3, [r2]
	.loc 1 1117 36
	orr	r3, r3, #288
	str	r3, [r2]
.LVL149:
.L189:
	.loc 1 1121 5 is_stmt 1
	.loc 1 1121 17 is_stmt 0
	ldr	r2, [r0]
	.loc 1 1121 27
	ldr	r3, [r2, #8]
	.loc 1 1121 34
	orr	r3, r3, #1
	str	r3, [r2, #8]
	.loc 1 1123 5 is_stmt 1
	.loc 1 1123 12 is_stmt 0
	movs	r0, #0
.LVL150:
	bx	lr
.LVL151:
.L193:
	.loc 1 1096 74 discriminator 1
	ldrh	r3, [r0, #100]
	.loc 1 1096 52 discriminator 1
	cmp	r3, r2
	bhi	.L188
	.loc 1 1099 7 is_stmt 1
	.loc 1 1099 25 is_stmt 0
	ldr	r3, .L194+4
	str	r3, [r0, #108]
	.loc 1 1102 7 is_stmt 1
	.loc 1 1102 11
	.loc 1 1102 30 is_stmt 0
	movs	r3, #0
	strb	r3, [r0, #124]
	.loc 1 1102 9 is_stmt 1
	.loc 1 1105 7
	.loc 1 1105 19 is_stmt 0
	ldr	r2, [r0]
.LVL152:
	.loc 1 1105 29
	ldr	r3, [r2]
	.loc 1 1105 36
	orr	r3, r3, #256
	str	r3, [r2]
.LVL153:
	.loc 1 1106 7 is_stmt 1
	.loc 1 1106 19 is_stmt 0
	ldr	r2, [r0]
	.loc 1 1106 29
	ldr	r3, [r2, #8]
	.loc 1 1106 36
	orr	r3, r3, #268435456
	str	r3, [r2, #8]
	b	.L189
.LVL154:
.L190:
	.loc 1 1127 12
	movs	r0, #2
.LVL155:
	bx	lr
.LVL156:
.L191:
	.loc 1 1082 14
	movs	r0, #1
.LVL157:
	bx	lr
.LVL158:
.L192:
	.loc 1 1086 55
	movs	r0, #2
.LVL159:
	.loc 1 1129 1
	bx	lr
.L195:
	.align	2
.L194:
	.word	SMARTCARD_RxISR
	.word	SMARTCARD_RxISR_FIFOEN
	.cfi_endproc
.LFE342:
	.size	HAL_SMARTCARD_Receive_IT, .-HAL_SMARTCARD_Receive_IT
	.section	.text.HAL_SMARTCARD_Transmit_DMA,"ax",%progbits
	.align	1
	.global	HAL_SMARTCARD_Transmit_DMA
	.syntax unified
	.thumb
	.thumb_func
	.type	HAL_SMARTCARD_Transmit_DMA, %function
HAL_SMARTCARD_Transmit_DMA:
.LFB343:
	.loc 1 1140 1 is_stmt 1
	.cfi_startproc
	@ args = 0, pretend = 0, frame = 0
	@ frame_needed = 0, uses_anonymous_args = 0
.LVL160:
	mov	r3, r2
	.loc 1 1142 3
	.loc 1 1142 17 is_stmt 0
	ldr	r2, [r0, #128]
.LVL161:
	.loc 1 1142 6
	cmp	r2, #32
	bne	.L200
	.loc 1 1140 1
	push	{r4, lr}
	.cfi_def_cfa_offset 8
	.cfi_offset 4, -8
	.cfi_offset 14, -4
	mov	r4, r0
	.loc 1 1144 5 is_stmt 1
	.loc 1 1144 8 is_stmt 0
	cmp	r3, #0
	it	ne
	cmpne	r1, #0
	beq	.L201
	.loc 1 1150 5 is_stmt 1
	.loc 1 1150 9
	.loc 1 1150 24 is_stmt 0
	ldrb	r2, [r0, #124]	@ zero_extendqisi2
	.loc 1 1150 11
	cmp	r2, #1
	beq	.L202
	.loc 1 1150 74 is_stmt 1 discriminator 2
	.loc 1 1150 93 is_stmt 0 discriminator 2
	movs	r2, #1
	strb	r2, [r0, #124]
	.loc 1 1150 7 is_stmt 1 discriminator 2
	.loc 1 1152 5 discriminator 2
	.loc 1 1152 24 is_stmt 0 discriminator 2
	movs	r2, #33
	str	r2, [r0, #128]
	.loc 1 1154 5 is_stmt 1 discriminator 2
	.loc 1 1154 27 is_stmt 0 discriminator 2
	movs	r2, #0
	str	r2, [r0, #136]
	.loc 1 1155 5 is_stmt 1 discriminator 2
	.loc 1 1155 28 is_stmt 0 discriminator 2
	str	r1, [r0, #84]
	.loc 1 1156 5 is_stmt 1 discriminator 2
	.loc 1 1156 28 is_stmt 0 discriminator 2
	strh	r3, [r0, #88]	@ movhi
	.loc 1 1157 5 is_stmt 1 discriminator 2
	.loc 1 1157 29 is_stmt 0 discriminator 2
	strh	r3, [r0, #90]	@ movhi
	.loc 1 1160 5 is_stmt 1 discriminator 2
	.loc 1 1160 17 is_stmt 0 discriminator 2
	ldr	r1, [r0]
.LVL162:
	.loc 1 1160 27 discriminator 2
	ldr	r2, [r1]
	.loc 1 1160 34 discriminator 2
	bic	r2, r2, #1
	str	r2, [r1]
.LVL163:
	.loc 1 1165 5 is_stmt 1 discriminator 2
	.loc 1 1165 26 is_stmt 0 discriminator 2
	ldrh	r2, [r0, #18]
	.loc 1 1165 8 discriminator 2
	cmp	r2, #8
	beq	.L207
.L198:
	.loc 1 1171 5 is_stmt 1
	.loc 1 1171 17 is_stmt 0
	ldr	r1, [r4]
	.loc 1 1171 27
	ldr	r2, [r1]
	.loc 1 1171 34
	orr	r2, r2, #8
	str	r2, [r1]
	.loc 1 1174 5 is_stmt 1
	.loc 1 1174 17 is_stmt 0
	ldr	r1, [r4]
	.loc 1 1174 27
	ldr	r2, [r1]
	.loc 1 1174 34
	orr	r2, r2, #1
	str	r2, [r1]
	.loc 1 1177 5 is_stmt 1
	.loc 1 1177 9
	.loc 1 1177 23 is_stmt 0
	ldr	r1, [r4]
	.loc 1 1177 33
	ldr	r2, [r1, #24]
	.loc 1 1177 40
	orr	r2, r2, #8
	str	r2, [r1, #24]
	.loc 1 1177 63 is_stmt 1
	.loc 1 1177 77 is_stmt 0
	ldr	r1, [r4]
	.loc 1 1177 87
	ldr	r2, [r1, #24]
	.loc 1 1177 94
	orr	r2, r2, #16
	str	r2, [r1, #24]
	.loc 1 1177 7 is_stmt 1
	.loc 1 1180 5
	.loc 1 1180 15 is_stmt 0
	ldr	r2, [r4, #116]
	.loc 1 1180 42
	ldr	r1, .L208
	str	r1, [r2, #60]
	.loc 1 1183 5 is_stmt 1
	.loc 1 1183 15 is_stmt 0
	ldr	r2, [r4, #116]
	.loc 1 1183 43
	ldr	r1, .L208+4
	str	r1, [r2, #76]
	.loc 1 1186 5 is_stmt 1
	.loc 1 1186 15 is_stmt 0
	ldr	r2, [r4, #116]
	.loc 1 1186 43
	movs	r1, #0
	str	r1, [r2, #80]
	.loc 1 1189 5 is_stmt 1
	.loc 1 1189 101 is_stmt 0
	ldr	r2, [r4]
	.loc 1 1189 9
	adds	r2, r2, #40
	ldr	r1, [r4, #84]
	ldr	r0, [r4, #116]
.LVL164:
	bl	HAL_DMA_Start_IT
.LVL165:
	.loc 1 1189 8
	cbnz	r0, .L199
	.loc 1 1193 7 is_stmt 1
	.loc 1 1193 19 is_stmt 0
	ldr	r2, [r4]
	.loc 1 1193 29
	ldr	r3, [r2, #32]
	.loc 1 1193 36
	bic	r3, r3, #64
	str	r3, [r2, #32]
	.loc 1 1196 7 is_stmt 1
	.loc 1 1196 11
	.loc 1 1196 30 is_stmt 0
	movs	r3, #0
	strb	r3, [r4, #124]
	.loc 1 1196 9 is_stmt 1
	.loc 1 1199 7
	.loc 1 1199 19 is_stmt 0
	ldr	r2, [r4]
	.loc 1 1199 29
	ldr	r3, [r2, #8]
	.loc 1 1199 36
	orr	r3, r3, #1
	str	r3, [r2, #8]
	.loc 1 1203 7 is_stmt 1
	.loc 1 1203 19 is_stmt 0
	ldr	r2, [r4]
	.loc 1 1203 29
	ldr	r3, [r2, #8]
	.loc 1 1203 36
	orr	r3, r3, #128
	str	r3, [r2, #8]
	.loc 1 1205 7 is_stmt 1
	.loc 1 1205 14 is_stmt 0
	b	.L197
.LVL166:
.L207:
	.loc 1 1166 29
	ldrh	r2, [r0, #30]
	.loc 1 1166 9
	cmp	r2, #16
	bne	.L198
	.loc 1 1168 7 is_stmt 1
	.loc 1 1168 19 is_stmt 0
	ldr	r1, [r0]
	.loc 1 1168 29
	ldr	r2, [r1]
	.loc 1 1168 36
	orr	r2, r2, #4
	str	r2, [r1]
	b	.L198
.LVL167:
.L199:
	.loc 1 1210 7 is_stmt 1
	.loc 1 1210 29 is_stmt 0
	movs	r3, #16
	str	r3, [r4, #136]
	.loc 1 1213 7 is_stmt 1
	.loc 1 1213 11
	.loc 1 1213 30 is_stmt 0
	movs	r3, #0
	strb	r3, [r4, #124]
	.loc 1 1213 9 is_stmt 1
	.loc 1 1216 7
	.loc 1 1216 26 is_stmt 0
	movs	r3, #32
	str	r3, [r4, #128]
	.loc 1 1218 7 is_stmt 1
	.loc 1 1218 14 is_stmt 0
	movs	r0, #1
	b	.L197
.LVL168:
.L200:
	.cfi_def_cfa_offset 0
	.cfi_restore 4
	.cfi_restore 14
	.loc 1 1223 12
	movs	r0, #2
.LVL169:
	.loc 1 1225 1
	bx	lr
.LVL170:
.L201:
	.cfi_def_cfa_offset 8
	.cfi_offset 4, -8
	.cfi_offset 14, -4
	.loc 1 1146 14
	movs	r0, #1
.LVL171:
.L197:
	.loc 1 1225 1
	pop	{r4, pc}
.LVL172:
.L202:
	.loc 1 1150 55
	movs	r0, #2
.LVL173:
	b	.L197
.L209:
	.align	2
.L208:
	.word	SMARTCARD_DMATransmitCplt
	.word	SMARTCARD_DMAError
	.cfi_endproc
.LFE343:
	.size	HAL_SMARTCARD_Transmit_DMA, .-HAL_SMARTCARD_Transmit_DMA
	.section	.text.HAL_SMARTCARD_Receive_DMA,"ax",%progbits
	.align	1
	.global	HAL_SMARTCARD_Receive_DMA
	.syntax unified
	.thumb
	.thumb_func
	.type	HAL_SMARTCARD_Receive_DMA, %function
HAL_SMARTCARD_Receive_DMA:
.LFB344:
	.loc 1 1238 1 is_stmt 1
	.cfi_startproc
	@ args = 0, pretend = 0, frame = 0
	@ frame_needed = 0, uses_anonymous_args = 0
.LVL174:
	mov	r3, r2
	.loc 1 1240 3
	.loc 1 1240 17 is_stmt 0
	ldr	r2, [r0, #132]
.LVL175:
	.loc 1 1240 6
	cmp	r2, #32
	bne	.L213
	.loc 1 1238 1
	push	{r4, lr}
	.cfi_def_cfa_offset 8
	.cfi_offset 4, -8
	.cfi_offset 14, -4
	mov	r4, r0
	.loc 1 1242 5 is_stmt 1
	.loc 1 1242 8 is_stmt 0
	cmp	r3, #0
	it	ne
	cmpne	r1, #0
	beq	.L214
	.loc 1 1248 5 is_stmt 1
	.loc 1 1248 9
	.loc 1 1248 24 is_stmt 0
	ldrb	r2, [r0, #124]	@ zero_extendqisi2
	.loc 1 1248 11
	cmp	r2, #1
	beq	.L215
	.loc 1 1248 74 is_stmt 1 discriminator 2
	.loc 1 1248 93 is_stmt 0 discriminator 2
	movs	r2, #1
	strb	r2, [r0, #124]
	.loc 1 1248 7 is_stmt 1 discriminator 2
	.loc 1 1250 5 discriminator 2
	.loc 1 1250 27 is_stmt 0 discriminator 2
	movs	r2, #0
	str	r2, [r0, #136]
	.loc 1 1251 5 is_stmt 1 discriminator 2
	.loc 1 1251 25 is_stmt 0 discriminator 2
	movs	r0, #34
.LVL176:
	str	r0, [r4, #132]
	.loc 1 1253 5 is_stmt 1 discriminator 2
	.loc 1 1253 28 is_stmt 0 discriminator 2
	str	r1, [r4, #92]
	.loc 1 1254 5 is_stmt 1 discriminator 2
	.loc 1 1254 28 is_stmt 0 discriminator 2
	strh	r3, [r4, #96]	@ movhi
	.loc 1 1257 5 is_stmt 1 discriminator 2
	.loc 1 1257 15 is_stmt 0 discriminator 2
	ldr	r1, [r4, #120]
.LVL177:
	.loc 1 1257 42 discriminator 2
	ldr	r0, .L220
	str	r0, [r1, #60]
.LVL178:
	.loc 1 1260 5 is_stmt 1 discriminator 2
	.loc 1 1260 15 is_stmt 0 discriminator 2
	ldr	r1, [r4, #120]
	.loc 1 1260 43 discriminator 2
	ldr	r0, .L220+4
	str	r0, [r1, #76]
	.loc 1 1263 5 is_stmt 1 discriminator 2
	.loc 1 1263 15 is_stmt 0 discriminator 2
	ldr	r1, [r4, #120]
	.loc 1 1263 43 discriminator 2
	str	r2, [r1, #80]
	.loc 1 1266 5 is_stmt 1 discriminator 2
	.loc 1 1266 67 is_stmt 0 discriminator 2
	ldr	r1, [r4]
	.loc 1 1266 9 discriminator 2
	ldr	r2, [r4, #92]
	adds	r1, r1, #36
	ldr	r0, [r4, #120]
	bl	HAL_DMA_Start_IT
.LVL179:
	.loc 1 1266 8 discriminator 2
	cbnz	r0, .L212
	.loc 1 1270 7 is_stmt 1
	.loc 1 1270 11
	.loc 1 1270 30 is_stmt 0
	strb	r0, [r4, #124]
	.loc 1 1270 9 is_stmt 1
	.loc 1 1273 7
	.loc 1 1273 19 is_stmt 0
	ldr	r2, [r4]
	.loc 1 1273 29
	ldr	r3, [r2]
	.loc 1 1273 36
	orr	r3, r3, #256
	str	r3, [r2]
	.loc 1 1276 7 is_stmt 1
	.loc 1 1276 19 is_stmt 0
	ldr	r2, [r4]
	.loc 1 1276 29
	ldr	r3, [r2, #8]
	.loc 1 1276 36
	orr	r3, r3, #1
	str	r3, [r2, #8]
	.loc 1 1280 7 is_stmt 1
	.loc 1 1280 19 is_stmt 0
	ldr	r2, [r4]
	.loc 1 1280 29
	ldr	r3, [r2, #8]
	.loc 1 1280 36
	orr	r3, r3, #64
	str	r3, [r2, #8]
	.loc 1 1282 7 is_stmt 1
	.loc 1 1282 14 is_stmt 0
	b	.L211
.L212:
	.loc 1 1287 7 is_stmt 1
	.loc 1 1287 29 is_stmt 0
	movs	r3, #16
	str	r3, [r4, #136]
	.loc 1 1290 7 is_stmt 1
	.loc 1 1290 11
	.loc 1 1290 30 is_stmt 0
	movs	r3, #0
	strb	r3, [r4, #124]
	.loc 1 1290 9 is_stmt 1
	.loc 1 1293 7
	.loc 1 1293 27 is_stmt 0
	movs	r3, #32
	str	r3, [r4, #132]
	.loc 1 1295 7 is_stmt 1
	.loc 1 1295 14 is_stmt 0
	movs	r0, #1
	b	.L211
.LVL180:
.L213:
	.cfi_def_cfa_offset 0
	.cfi_restore 4
	.cfi_restore 14
	.loc 1 1300 12
	movs	r0, #2
.LVL181:
	.loc 1 1302 1
	bx	lr
.LVL182:
.L214:
	.cfi_def_cfa_offset 8
	.cfi_offset 4, -8
	.cfi_offset 14, -4
	.loc 1 1244 14
	movs	r0, #1
.LVL183:
.L211:
	.loc 1 1302 1
	pop	{r4, pc}
.LVL184:
.L215:
	.loc 1 1248 55
	movs	r0, #2
.LVL185:
	b	.L211
.L221:
	.align	2
.L220:
	.word	SMARTCARD_DMAReceiveCplt
	.word	SMARTCARD_DMAError
	.cfi_endproc
.LFE344:
	.size	HAL_SMARTCARD_Receive_DMA, .-HAL_SMARTCARD_Receive_DMA
	.section	.text.HAL_SMARTCARD_Abort,"ax",%progbits
	.align	1
	.global	HAL_SMARTCARD_Abort
	.syntax unified
	.thumb
	.thumb_func
	.type	HAL_SMARTCARD_Abort, %function
HAL_SMARTCARD_Abort:
.LFB345:
	.loc 1 1318 1 is_stmt 1
	.cfi_startproc
	@ args = 0, pretend = 0, frame = 0
	@ frame_needed = 0, uses_anonymous_args = 0
.LVL186:
	push	{r4, lr}
	.cfi_def_cfa_offset 8
	.cfi_offset 4, -8
	.cfi_offset 14, -4
	mov	r4, r0
	.loc 1 1321 3
	.loc 1 1321 15 is_stmt 0
	ldr	r2, [r0]
	.loc 1 1321 25
	ldr	r1, [r2]
	.loc 1 1321 32
	ldr	r3, .L229
	ands	r3, r3, r1
	str	r3, [r2]
	.loc 1 1324 3 is_stmt 1
	.loc 1 1324 15 is_stmt 0
	ldr	r2, [r0]
	.loc 1 1324 25
	ldr	r1, [r2, #8]
	.loc 1 1324 32
	ldr	r3, .L229+4
	ands	r3, r3, r1
	str	r3, [r2, #8]
	.loc 1 1327 3 is_stmt 1
	.loc 1 1327 20 is_stmt 0
	ldr	r3, [r0]
	.loc 1 1327 30
	ldr	r2, [r3, #8]
	.loc 1 1327 6
	tst	r2, #128
	beq	.L223
	.loc 1 1329 5 is_stmt 1
	.loc 1 1329 27 is_stmt 0
	ldr	r2, [r3, #8]
	.loc 1 1329 34
	bic	r2, r2, #128
	str	r2, [r3, #8]
	.loc 1 1332 5 is_stmt 1
	.loc 1 1332 19 is_stmt 0
	ldr	r3, [r0, #116]
	.loc 1 1332 8
	cbz	r3, .L223
	.loc 1 1336 7 is_stmt 1
	.loc 1 1336 45 is_stmt 0
	movs	r2, #0
	str	r2, [r3, #80]
	.loc 1 1338 7 is_stmt 1
	.loc 1 1338 11 is_stmt 0
	ldr	r0, [r0, #116]
.LVL187:
	bl	HAL_DMA_Abort
.LVL188:
	.loc 1 1338 10
	cbnz	r0, .L227
.L223:
	.loc 1 1352 3 is_stmt 1
	.loc 1 1352 20 is_stmt 0
	ldr	r3, [r4]
	.loc 1 1352 30
	ldr	r2, [r3, #8]
	.loc 1 1352 6
	tst	r2, #64
	beq	.L225
	.loc 1 1354 5 is_stmt 1
	.loc 1 1354 27 is_stmt 0
	ldr	r2, [r3, #8]
	.loc 1 1354 34
	bic	r2, r2, #64
	str	r2, [r3, #8]
	.loc 1 1357 5 is_stmt 1
	.loc 1 1357 19 is_stmt 0
	ldr	r3, [r4, #120]
	.loc 1 1357 8
	cbz	r3, .L225
	.loc 1 1361 7 is_stmt 1
	.loc 1 1361 45 is_stmt 0
	movs	r2, #0
	str	r2, [r3, #80]
	.loc 1 1363 7 is_stmt 1
	.loc 1 1363 11 is_stmt 0
	ldr	r0, [r4, #120]
	bl	HAL_DMA_Abort
.LVL189:
	.loc 1 1363 10
	cbnz	r0, .L228
.L225:
	.loc 1 1377 3 is_stmt 1
	.loc 1 1377 27 is_stmt 0
	movs	r0, #0
	strh	r0, [r4, #90]	@ movhi
	.loc 1 1378 3 is_stmt 1
	.loc 1 1378 27 is_stmt 0
	strh	r0, [r4, #98]	@ movhi
	.loc 1 1381 3 is_stmt 1
	.loc 1 1381 16 is_stmt 0
	ldr	r3, [r4]
	.loc 1 1381 32
	movw	r2, #6159
	str	r2, [r3, #32]
	.loc 1 1386 3 is_stmt 1
	.loc 1 1386 22 is_stmt 0
	movs	r3, #32
	str	r3, [r4, #128]
	.loc 1 1387 3 is_stmt 1
	.loc 1 1387 23 is_stmt 0
	str	r3, [r4, #132]
	.loc 1 1390 3 is_stmt 1
	.loc 1 1390 25 is_stmt 0
	str	r0, [r4, #136]
	.loc 1 1392 3 is_stmt 1
.L224:
	.loc 1 1393 1 is_stmt 0
	pop	{r4, pc}
.LVL190:
.L227:
	.loc 1 1340 9 is_stmt 1
	.loc 1 1340 13 is_stmt 0
	ldr	r0, [r4, #116]
	bl	HAL_DMA_GetError
.LVL191:
	.loc 1 1340 12
	cmp	r0, #32
	bne	.L223
	.loc 1 1343 11 is_stmt 1
	.loc 1 1343 33 is_stmt 0
	movs	r3, #16
	str	r3, [r4, #136]
	.loc 1 1345 11 is_stmt 1
	.loc 1 1345 18 is_stmt 0
	movs	r0, #3
	b	.L224
.L228:
	.loc 1 1365 9 is_stmt 1
	.loc 1 1365 13 is_stmt 0
	ldr	r0, [r4, #120]
	bl	HAL_DMA_GetError
.LVL192:
	.loc 1 1365 12
	cmp	r0, #32
	bne	.L225
	.loc 1 1368 11 is_stmt 1
	.loc 1 1368 33 is_stmt 0
	movs	r3, #16
	str	r3, [r4, #136]
	.loc 1 1370 11 is_stmt 1
	.loc 1 1370 18 is_stmt 0
	movs	r0, #3
	b	.L224
.L230:
	.align	2
.L229:
	.word	-201327073
	.word	-276824066
	.cfi_endproc
.LFE345:
	.size	HAL_SMARTCARD_Abort, .-HAL_SMARTCARD_Abort
	.section	.text.HAL_SMARTCARD_AbortTransmit,"ax",%progbits
	.align	1
	.global	HAL_SMARTCARD_AbortTransmit
	.syntax unified
	.thumb
	.thumb_func
	.type	HAL_SMARTCARD_AbortTransmit, %function
HAL_SMARTCARD_AbortTransmit:
.LFB346:
	.loc 1 1409 1 is_stmt 1
	.cfi_startproc
	@ args = 0, pretend = 0, frame = 0
	@ frame_needed = 0, uses_anonymous_args = 0
.LVL193:
	push	{r4, lr}
	.cfi_def_cfa_offset 8
	.cfi_offset 4, -8
	.cfi_offset 14, -4
	mov	r4, r0
	.loc 1 1411 3
	.loc 1 1411 15 is_stmt 0
	ldr	r2, [r0]
	.loc 1 1411 25
	ldr	r3, [r2]
	.loc 1 1411 32
	bic	r3, r3, #192
	str	r3, [r2]
	.loc 1 1412 3 is_stmt 1
	.loc 1 1412 15 is_stmt 0
	ldr	r2, [r0]
	.loc 1 1412 25
	ldr	r3, [r2, #8]
	.loc 1 1412 32
	bic	r3, r3, #8388608
	str	r3, [r2, #8]
	.loc 1 1415 3 is_stmt 1
	.loc 1 1415 17 is_stmt 0
	ldr	r3, [r0, #132]
	.loc 1 1415 6
	cmp	r3, #32
	beq	.L236
.L232:
	.loc 1 1422 3 is_stmt 1
	.loc 1 1422 20 is_stmt 0
	ldr	r3, [r4]
	.loc 1 1422 30
	ldr	r2, [r3, #8]
	.loc 1 1422 6
	tst	r2, #128
	beq	.L233
	.loc 1 1424 5 is_stmt 1
	.loc 1 1424 27 is_stmt 0
	ldr	r2, [r3, #8]
	.loc 1 1424 34
	bic	r2, r2, #128
	str	r2, [r3, #8]
	.loc 1 1427 5 is_stmt 1
	.loc 1 1427 19 is_stmt 0
	ldr	r3, [r4, #116]
	.loc 1 1427 8
	cbz	r3, .L233
	.loc 1 1431 7 is_stmt 1
	.loc 1 1431 45 is_stmt 0
	movs	r2, #0
	str	r2, [r3, #80]
	.loc 1 1433 7 is_stmt 1
	.loc 1 1433 11 is_stmt 0
	ldr	r0, [r4, #116]
.LVL194:
	bl	HAL_DMA_Abort
.LVL195:
	.loc 1 1433 10
	cbnz	r0, .L237
.L233:
	.loc 1 1447 3 is_stmt 1
	.loc 1 1447 27 is_stmt 0
	movs	r0, #0
	strh	r0, [r4, #90]	@ movhi
	.loc 1 1450 3 is_stmt 1
	.loc 1 1450 16 is_stmt 0
	ldr	r3, [r4]
	.loc 1 1450 32
	movs	r2, #2
	str	r2, [r3, #32]
	.loc 1 1453 3 is_stmt 1
	.loc 1 1453 22 is_stmt 0
	movs	r3, #32
	str	r3, [r4, #128]
	.loc 1 1455 3 is_stmt 1
.L234:
	.loc 1 1456 1 is_stmt 0
	pop	{r4, pc}
.LVL196:
.L236:
	.loc 1 1418 5 is_stmt 1
	.loc 1 1418 17 is_stmt 0
	ldr	r2, [r0]
	.loc 1 1418 27
	ldr	r3, [r2, #8]
	.loc 1 1418 34
	bic	r3, r3, #1
	str	r3, [r2, #8]
	b	.L232
.LVL197:
.L237:
	.loc 1 1435 9 is_stmt 1
	.loc 1 1435 13 is_stmt 0
	ldr	r0, [r4, #116]
	bl	HAL_DMA_GetError
.LVL198:
	.loc 1 1435 12
	cmp	r0, #32
	bne	.L233
	.loc 1 1438 11 is_stmt 1
	.loc 1 1438 33 is_stmt 0
	movs	r3, #16
	str	r3, [r4, #136]
	.loc 1 1440 11 is_stmt 1
	.loc 1 1440 18 is_stmt 0
	movs	r0, #3
	b	.L234
	.cfi_endproc
.LFE346:
	.size	HAL_SMARTCARD_AbortTransmit, .-HAL_SMARTCARD_AbortTransmit
	.section	.text.HAL_SMARTCARD_AbortReceive,"ax",%progbits
	.align	1
	.global	HAL_SMARTCARD_AbortReceive
	.syntax unified
	.thumb
	.thumb_func
	.type	HAL_SMARTCARD_AbortReceive, %function
HAL_SMARTCARD_AbortReceive:
.LFB347:
	.loc 1 1472 1 is_stmt 1
	.cfi_startproc
	@ args = 0, pretend = 0, frame = 0
	@ frame_needed = 0, uses_anonymous_args = 0
.LVL199:
	push	{r4, lr}
	.cfi_def_cfa_offset 8
	.cfi_offset 4, -8
	.cfi_offset 14, -4
	mov	r4, r0
	.loc 1 1474 3
	.loc 1 1474 15 is_stmt 0
	ldr	r2, [r0]
	.loc 1 1474 25
	ldr	r1, [r2]
	.loc 1 1474 32
	ldr	r3, .L245
	ands	r3, r3, r1
	str	r3, [r2]
	.loc 1 1476 3 is_stmt 1
	.loc 1 1476 15 is_stmt 0
	ldr	r2, [r0]
	.loc 1 1476 25
	ldr	r1, [r2, #8]
	.loc 1 1476 32
	ldr	r3, .L245+4
	ands	r3, r3, r1
	str	r3, [r2, #8]
	.loc 1 1479 3 is_stmt 1
	.loc 1 1479 17 is_stmt 0
	ldr	r3, [r0, #128]
	.loc 1 1479 6
	cmp	r3, #32
	beq	.L243
.L239:
	.loc 1 1486 3 is_stmt 1
	.loc 1 1486 20 is_stmt 0
	ldr	r3, [r4]
	.loc 1 1486 30
	ldr	r2, [r3, #8]
	.loc 1 1486 6
	tst	r2, #64
	beq	.L240
	.loc 1 1488 5 is_stmt 1
	.loc 1 1488 27 is_stmt 0
	ldr	r2, [r3, #8]
	.loc 1 1488 34
	bic	r2, r2, #64
	str	r2, [r3, #8]
	.loc 1 1491 5 is_stmt 1
	.loc 1 1491 19 is_stmt 0
	ldr	r3, [r4, #120]
	.loc 1 1491 8
	cbz	r3, .L240
	.loc 1 1495 7 is_stmt 1
	.loc 1 1495 45 is_stmt 0
	movs	r2, #0
	str	r2, [r3, #80]
	.loc 1 1497 7 is_stmt 1
	.loc 1 1497 11 is_stmt 0
	ldr	r0, [r4, #120]
.LVL200:
	bl	HAL_DMA_Abort
.LVL201:
	.loc 1 1497 10
	cbnz	r0, .L244
.L240:
	.loc 1 1511 3 is_stmt 1
	.loc 1 1511 27 is_stmt 0
	movs	r0, #0
	strh	r0, [r4, #98]	@ movhi
	.loc 1 1514 3 is_stmt 1
	.loc 1 1514 16 is_stmt 0
	ldr	r3, [r4]
	.loc 1 1514 32
	movw	r2, #6159
	str	r2, [r3, #32]
	.loc 1 1519 3 is_stmt 1
	.loc 1 1519 23 is_stmt 0
	movs	r3, #32
	str	r3, [r4, #132]
	.loc 1 1521 3 is_stmt 1
.L241:
	.loc 1 1522 1 is_stmt 0
	pop	{r4, pc}
.LVL202:
.L243:
	.loc 1 1482 5 is_stmt 1
	.loc 1 1482 17 is_stmt 0
	ldr	r2, [r0]
	.loc 1 1482 27
	ldr	r3, [r2, #8]
	.loc 1 1482 34
	bic	r3, r3, #1
	str	r3, [r2, #8]
	b	.L239
.LVL203:
.L244:
	.loc 1 1499 9 is_stmt 1
	.loc 1 1499 13 is_stmt 0
	ldr	r0, [r4, #120]
	bl	HAL_DMA_GetError
.LVL204:
	.loc 1 1499 12
	cmp	r0, #32
	bne	.L240
	.loc 1 1502 11 is_stmt 1
	.loc 1 1502 33 is_stmt 0
	movs	r3, #16
	str	r3, [r4, #136]
	.loc 1 1504 11 is_stmt 1
	.loc 1 1504 18 is_stmt 0
	movs	r0, #3
	b	.L241
.L246:
	.align	2
.L245:
	.word	-201326881
	.word	-268435458
	.cfi_endproc
.LFE347:
	.size	HAL_SMARTCARD_AbortReceive, .-HAL_SMARTCARD_AbortReceive
	.section	.text.HAL_SMARTCARD_TxCpltCallback,"ax",%progbits
	.align	1
	.weak	HAL_SMARTCARD_TxCpltCallback
	.syntax unified
	.thumb
	.thumb_func
	.type	HAL_SMARTCARD_TxCpltCallback, %function
HAL_SMARTCARD_TxCpltCallback:
.LFB352:
	.loc 1 2156 1 is_stmt 1
	.cfi_startproc
	@ args = 0, pretend = 0, frame = 0
	@ frame_needed = 0, uses_anonymous_args = 0
	@ link register save eliminated.
.LVL205:
	.loc 1 2158 3
	.loc 1 2163 1 is_stmt 0
	bx	lr
	.cfi_endproc
.LFE352:
	.size	HAL_SMARTCARD_TxCpltCallback, .-HAL_SMARTCARD_TxCpltCallback
	.section	.text.SMARTCARD_EndTransmit_IT,"ax",%progbits
	.align	1
	.syntax unified
	.thumb
	.thumb_func
	.type	SMARTCARD_EndTransmit_IT, %function
SMARTCARD_EndTransmit_IT:
.LFB376:
	.loc 1 3018 1 is_stmt 1
	.cfi_startproc
	@ args = 0, pretend = 0, frame = 0
	@ frame_needed = 0, uses_anonymous_args = 0
.LVL206:
	push	{r4, lr}
	.cfi_def_cfa_offset 8
	.cfi_offset 4, -8
	.cfi_offset 14, -4
	.loc 1 3020 3
	.loc 1 3020 32 is_stmt 0
	ldrh	r3, [r0, #80]
	.loc 1 3020 68
	ubfx	r2, r3, #5, #3
	.loc 1 3020 187
	cmp	r2, #1
	beq	.L257
	.loc 1 3020 372 discriminator 2
	cmp	r2, #2
	beq	.L258
	.loc 1 3020 387 discriminator 4
	ldr	r4, [r0]
	.loc 1 3020 397 discriminator 4
	ldr	r2, [r4, #8]
	.loc 1 3020 466 discriminator 4
	and	r3, r3, #31
	.loc 1 3020 412 discriminator 4
	movs	r1, #1
	lsl	r3, r1, r3
	.loc 1 3020 403 discriminator 4
	bic	r3, r2, r3
	str	r3, [r4, #8]
.L250:
	.loc 1 3023 3 is_stmt 1
	.loc 1 3023 17 is_stmt 0
	ldr	r3, [r0, #132]
	.loc 1 3023 6
	cmp	r3, #32
	beq	.L259
.L252:
	.loc 1 3030 3 is_stmt 1
	.loc 1 3030 15 is_stmt 0
	ldr	r2, [r0]
	.loc 1 3030 25
	ldr	r3, [r2]
	.loc 1 3030 32
	bic	r3, r3, #1
	str	r3, [r2]
	.loc 1 3031 3 is_stmt 1
	.loc 1 3031 24 is_stmt 0
	ldrh	r3, [r0, #18]
	.loc 1 3031 6
	cmp	r3, #8
	beq	.L260
.L253:
	.loc 1 3038 3 is_stmt 1
	.loc 1 3038 24 is_stmt 0
	ldrh	r3, [r0, #18]
	.loc 1 3038 6
	cmp	r3, #12
	beq	.L254
	.loc 1 3039 27
	ldrh	r3, [r0, #30]
	.loc 1 3039 7
	cmp	r3, #16
	bne	.L255
.L254:
	.loc 1 3042 5 is_stmt 1
	.loc 1 3042 9
	.loc 1 3042 23 is_stmt 0
	ldr	r2, [r0]
	.loc 1 3042 33
	ldr	r3, [r2, #24]
	.loc 1 3042 40
	orr	r3, r3, #8
	str	r3, [r2, #24]
	.loc 1 3042 63 is_stmt 1
	.loc 1 3042 77 is_stmt 0
	ldr	r2, [r0]
	.loc 1 3042 87
	ldr	r3, [r2, #24]
	.loc 1 3042 94
	orr	r3, r3, #16
	str	r3, [r2, #24]
.L255:
	.loc 1 3042 7 is_stmt 1 discriminator 1
	.loc 1 3044 3 discriminator 1
	.loc 1 3044 15 is_stmt 0 discriminator 1
	ldr	r2, [r0]
	.loc 1 3044 25 discriminator 1
	ldr	r3, [r2]
	.loc 1 3044 32 discriminator 1
	orr	r3, r3, #1
	str	r3, [r2]
	.loc 1 3047 3 is_stmt 1 discriminator 1
	.loc 1 3047 22 is_stmt 0 discriminator 1
	movs	r3, #32
	str	r3, [r0, #128]
	.loc 1 3050 3 is_stmt 1 discriminator 1
	.loc 1 3050 21 is_stmt 0 discriminator 1
	movs	r3, #0
	str	r3, [r0, #112]
	.loc 1 3057 3 is_stmt 1 discriminator 1
	bl	HAL_SMARTCARD_TxCpltCallback
.LVL207:
	.loc 1 3059 1 is_stmt 0 discriminator 1
	pop	{r4, pc}
.LVL208:
.L257:
	.loc 1 3020 96 discriminator 1
	ldr	r4, [r0]
	.loc 1 3020 106 discriminator 1
	ldr	r2, [r4]
	.loc 1 3020 175 discriminator 1
	and	r3, r3, #31
	.loc 1 3020 121 discriminator 1
	movs	r1, #1
	lsl	r3, r1, r3
	.loc 1 3020 112 discriminator 1
	bic	r3, r2, r3
	str	r3, [r4]
	b	.L250
.L258:
	.loc 1 3020 281 discriminator 3
	ldr	r4, [r0]
	.loc 1 3020 291 discriminator 3
	ldr	r2, [r4, #4]
	.loc 1 3020 360 discriminator 3
	and	r3, r3, #31
	.loc 1 3020 306 discriminator 3
	movs	r1, #1
	lsl	r3, r1, r3
	.loc 1 3020 297 discriminator 3
	bic	r3, r2, r3
	str	r3, [r4, #4]
	b	.L250
.L259:
	.loc 1 3026 5 is_stmt 1
	.loc 1 3026 17 is_stmt 0
	ldr	r2, [r0]
	.loc 1 3026 27
	ldr	r3, [r2, #8]
	.loc 1 3026 34
	bic	r3, r3, #1
	str	r3, [r2, #8]
	b	.L252
.L260:
	.loc 1 3032 27
	ldrh	r3, [r0, #30]
	.loc 1 3032 7
	cmp	r3, #16
	bne	.L253
	.loc 1 3036 5 is_stmt 1
	.loc 1 3036 17 is_stmt 0
	ldr	r2, [r0]
	.loc 1 3036 27
	ldr	r3, [r2]
	.loc 1 3036 34
	bic	r3, r3, #4
	str	r3, [r2]
	b	.L253
	.cfi_endproc
.LFE376:
	.size	SMARTCARD_EndTransmit_IT, .-SMARTCARD_EndTransmit_IT
	.section	.text.HAL_SMARTCARD_RxCpltCallback,"ax",%progbits
	.align	1
	.weak	HAL_SMARTCARD_RxCpltCallback
	.syntax unified
	.thumb
	.thumb_func
	.type	HAL_SMARTCARD_RxCpltCallback, %function
HAL_SMARTCARD_RxCpltCallback:
.LFB353:
	.loc 1 2172 1 is_stmt 1
	.cfi_startproc
	@ args = 0, pretend = 0, frame = 0
	@ frame_needed = 0, uses_anonymous_args = 0
	@ link register save eliminated.
.LVL209:
	.loc 1 2174 3
	.loc 1 2179 1 is_stmt 0
	bx	lr
	.cfi_endproc
.LFE353:
	.size	HAL_SMARTCARD_RxCpltCallback, .-HAL_SMARTCARD_RxCpltCallback
	.section	.text.SMARTCARD_RxISR,"ax",%progbits
	.align	1
	.syntax unified
	.thumb
	.thumb_func
	.type	SMARTCARD_RxISR, %function
SMARTCARD_RxISR:
.LFB377:
	.loc 1 3071 1 is_stmt 1
	.cfi_startproc
	@ args = 0, pretend = 0, frame = 0
	@ frame_needed = 0, uses_anonymous_args = 0
.LVL210:
	push	{r3, lr}
	.cfi_def_cfa_offset 8
	.cfi_offset 3, -8
	.cfi_offset 14, -4
	.loc 1 3073 3
	.loc 1 3073 17 is_stmt 0
	ldr	r3, [r0, #132]
	.loc 1 3073 6
	cmp	r3, #34
	beq	.L267
	.loc 1 3110 5 is_stmt 1
	.loc 1 3110 18 is_stmt 0
	ldr	r2, [r0]
	.loc 1 3110 28
	ldr	r3, [r2, #24]
	.loc 1 3110 34
	orr	r3, r3, #8
	str	r3, [r2, #24]
.LVL211:
.L262:
	.loc 1 3112 1
	pop	{r3, pc}
.LVL212:
.L267:
	.loc 1 3075 5 is_stmt 1
	.loc 1 3075 51 is_stmt 0
	ldr	r3, [r0]
	.loc 1 3075 61
	ldr	r2, [r3, #36]
	.loc 1 3075 16
	ldr	r3, [r0, #92]
	.loc 1 3075 29
	strb	r2, [r3]
	.loc 1 3076 5 is_stmt 1
	.loc 1 3076 15 is_stmt 0
	ldr	r3, [r0, #92]
	.loc 1 3076 27
	adds	r3, r3, #1
	str	r3, [r0, #92]
	.loc 1 3078 5 is_stmt 1
	.loc 1 3078 15 is_stmt 0
	ldrh	r3, [r0, #98]
	uxth	r3, r3
	.loc 1 3078 28
	subs	r3, r3, #1
	uxth	r3, r3
	strh	r3, [r0, #98]	@ movhi
	.loc 1 3079 5 is_stmt 1
	.loc 1 3079 19 is_stmt 0
	ldrh	r3, [r0, #98]
	uxth	r3, r3
	.loc 1 3079 8
	cmp	r3, #0
	bne	.L262
	.loc 1 3081 7 is_stmt 1
	.loc 1 3081 19 is_stmt 0
	ldr	r2, [r0]
	.loc 1 3081 29
	ldr	r3, [r2]
	.loc 1 3081 36
	bic	r3, r3, #32
	str	r3, [r2]
	.loc 1 3084 7 is_stmt 1
	.loc 1 3084 21 is_stmt 0
	ldr	r3, [r0, #128]
	.loc 1 3084 10
	cmp	r3, #32
	beq	.L268
.L265:
	.loc 1 3091 7 is_stmt 1
	.loc 1 3091 19 is_stmt 0
	ldr	r2, [r0]
	.loc 1 3091 29
	ldr	r3, [r2]
	.loc 1 3091 36
	bic	r3, r3, #256
	str	r3, [r2]
	.loc 1 3093 7 is_stmt 1
	.loc 1 3093 27 is_stmt 0
	movs	r3, #32
	str	r3, [r0, #132]
	.loc 1 3096 7 is_stmt 1
	.loc 1 3096 25 is_stmt 0
	movs	r3, #0
	str	r3, [r0, #108]
	.loc 1 3103 7 is_stmt 1
	bl	HAL_SMARTCARD_RxCpltCallback
.LVL213:
	b	.L262
.LVL214:
.L268:
	.loc 1 3087 9
	.loc 1 3087 21 is_stmt 0
	ldr	r2, [r0]
	.loc 1 3087 31
	ldr	r3, [r2, #8]
	.loc 1 3087 38
	bic	r3, r3, #1
	str	r3, [r2, #8]
	b	.L265
	.cfi_endproc
.LFE377:
	.size	SMARTCARD_RxISR, .-SMARTCARD_RxISR
	.section	.text.SMARTCARD_RxISR_FIFOEN,"ax",%progbits
	.align	1
	.syntax unified
	.thumb
	.thumb_func
	.type	SMARTCARD_RxISR_FIFOEN, %function
SMARTCARD_RxISR_FIFOEN:
.LFB378:
	.loc 1 3124 1 is_stmt 1
	.cfi_startproc
	@ args = 0, pretend = 0, frame = 0
	@ frame_needed = 0, uses_anonymous_args = 0
.LVL215:
	push	{r3, r4, r5, lr}
	.cfi_def_cfa_offset 16
	.cfi_offset 3, -16
	.cfi_offset 4, -12
	.cfi_offset 5, -8
	.cfi_offset 14, -4
	mov	r4, r0
	.loc 1 3125 3
	.loc 1 3126 3
	.loc 1 3129 3
	.loc 1 3129 17 is_stmt 0
	ldr	r3, [r0, #132]
	.loc 1 3129 6
	cmp	r3, #34
	beq	.L277
	.loc 1 3186 5 is_stmt 1
	.loc 1 3186 18 is_stmt 0
	ldr	r2, [r0]
	.loc 1 3186 28
	ldr	r3, [r2, #24]
	.loc 1 3186 34
	orr	r3, r3, #8
	str	r3, [r2, #24]
.LVL216:
.L269:
	.loc 1 3188 1
	pop	{r3, r4, r5, pc}
.LVL217:
.L277:
	.loc 1 3131 5 is_stmt 1
	.loc 1 3131 21 is_stmt 0
	ldrh	r5, [r0, #100]
.LVL218:
	.loc 1 3131 5
	b	.L271
.LVL219:
.L273:
	.loc 1 3149 9 is_stmt 1
	.loc 1 3149 21 is_stmt 0
	ldr	r2, [r4]
	.loc 1 3149 31
	ldr	r3, [r2]
	.loc 1 3149 38
	bic	r3, r3, #256
	str	r3, [r2]
	.loc 1 3151 9 is_stmt 1
	.loc 1 3151 29 is_stmt 0
	movs	r3, #32
	str	r3, [r4, #132]
	.loc 1 3154 9 is_stmt 1
	.loc 1 3154 27 is_stmt 0
	movs	r3, #0
	str	r3, [r4, #108]
	.loc 1 3161 9 is_stmt 1
	mov	r0, r4
	bl	HAL_SMARTCARD_RxCpltCallback
.LVL220:
.L272:
	.loc 1 3131 83 discriminator 2
	subs	r5, r5, #1
.LVL221:
	uxth	r5, r5
.LVL222:
.L271:
	.loc 1 3131 66 discriminator 1
	cbz	r5, .L278
	.loc 1 3133 7
	.loc 1 3133 53 is_stmt 0
	ldr	r3, [r4]
	.loc 1 3133 63
	ldr	r2, [r3, #36]
	.loc 1 3133 18
	ldr	r3, [r4, #92]
	.loc 1 3133 31
	strb	r2, [r3]
	.loc 1 3134 7 is_stmt 1
	.loc 1 3134 17 is_stmt 0
	ldr	r3, [r4, #92]
	.loc 1 3134 29
	adds	r3, r3, #1
	str	r3, [r4, #92]
	.loc 1 3136 7 is_stmt 1
	.loc 1 3136 17 is_stmt 0
	ldrh	r3, [r4, #98]
	uxth	r3, r3
	.loc 1 3136 30
	subs	r3, r3, #1
	uxth	r3, r3
	strh	r3, [r4, #98]	@ movhi
	.loc 1 3137 7 is_stmt 1
	.loc 1 3137 21 is_stmt 0
	ldrh	r3, [r4, #98]
	uxth	r3, r3
	.loc 1 3137 10
	cmp	r3, #0
	bne	.L272
	.loc 1 3139 9 is_stmt 1
	.loc 1 3139 21 is_stmt 0
	ldr	r2, [r4]
	.loc 1 3139 31
	ldr	r3, [r2]
	.loc 1 3139 38
	bic	r3, r3, #32
	str	r3, [r2]
	.loc 1 3142 9 is_stmt 1
	.loc 1 3142 23 is_stmt 0
	ldr	r3, [r4, #128]
	.loc 1 3142 12
	cmp	r3, #32
	bne	.L273
	.loc 1 3145 11 is_stmt 1
	.loc 1 3145 23 is_stmt 0
	ldr	r2, [r4]
	.loc 1 3145 33
	ldr	r3, [r2, #8]
	.loc 1 3145 40
	bic	r3, r3, #1
	str	r3, [r2, #8]
	b	.L273
.L278:
	.loc 1 3170 5 is_stmt 1
	.loc 1 3170 17 is_stmt 0
	ldrh	r3, [r4, #98]
	uxth	r3, r3
.LVL223:
	.loc 1 3171 5 is_stmt 1
	.loc 1 3171 8 is_stmt 0
	cmp	r3, #0
	beq	.L269
	.loc 1 3171 59 discriminator 1
	ldrh	r2, [r4, #100]
	.loc 1 3171 31 discriminator 1
	cmp	r2, r3
	bls	.L269
	.loc 1 3174 7 is_stmt 1
	.loc 1 3174 19 is_stmt 0
	ldr	r2, [r4]
	.loc 1 3174 29
	ldr	r3, [r2, #8]
.LVL224:
	.loc 1 3174 36
	bic	r3, r3, #268435456
	str	r3, [r2, #8]
	.loc 1 3177 7 is_stmt 1
	.loc 1 3177 25 is_stmt 0
	ldr	r3, .L279
	str	r3, [r4, #108]
	.loc 1 3180 7 is_stmt 1
	.loc 1 3180 19 is_stmt 0
	ldr	r2, [r4]
	.loc 1 3180 29
	ldr	r3, [r2]
	.loc 1 3180 36
	orr	r3, r3, #32
	str	r3, [r2]
	b	.L269
.L280:
	.align	2
.L279:
	.word	SMARTCARD_RxISR
	.cfi_endproc
.LFE378:
	.size	SMARTCARD_RxISR_FIFOEN, .-SMARTCARD_RxISR_FIFOEN
	.section	.text.SMARTCARD_DMAReceiveCplt,"ax",%progbits
	.align	1
	.syntax unified
	.thumb
	.thumb_func
	.type	SMARTCARD_DMAReceiveCplt, %function
SMARTCARD_DMAReceiveCplt:
.LFB367:
	.loc 1 2697 1 is_stmt 1
	.cfi_startproc
	@ args = 0, pretend = 0, frame = 0
	@ frame_needed = 0, uses_anonymous_args = 0
.LVL225:
	push	{r3, lr}
	.cfi_def_cfa_offset 8
	.cfi_offset 3, -8
	.cfi_offset 14, -4
	.loc 1 2698 3
	.loc 1 2698 28 is_stmt 0
	ldr	r0, [r0, #56]
.LVL226:
	.loc 1 2699 3 is_stmt 1
	.loc 1 2699 27 is_stmt 0
	movs	r3, #0
	strh	r3, [r0, #98]	@ movhi
	.loc 1 2702 3 is_stmt 1
	.loc 1 2702 15 is_stmt 0
	ldr	r2, [r0]
	.loc 1 2702 25
	ldr	r3, [r2]
	.loc 1 2702 32
	bic	r3, r3, #256
	str	r3, [r2]
	.loc 1 2703 3 is_stmt 1
	.loc 1 2703 15 is_stmt 0
	ldr	r2, [r0]
	.loc 1 2703 25
	ldr	r3, [r2, #8]
	.loc 1 2703 32
	bic	r3, r3, #1
	str	r3, [r2, #8]
	.loc 1 2707 3 is_stmt 1
	.loc 1 2707 15 is_stmt 0
	ldr	r2, [r0]
	.loc 1 2707 25
	ldr	r3, [r2, #8]
	.loc 1 2707 32
	bic	r3, r3, #64
	str	r3, [r2, #8]
	.loc 1 2710 3 is_stmt 1
	.loc 1 2710 23 is_stmt 0
	movs	r3, #32
	str	r3, [r0, #132]
	.loc 1 2717 3 is_stmt 1
	bl	HAL_SMARTCARD_RxCpltCallback
.LVL227:
	.loc 1 2719 1 is_stmt 0
	pop	{r3, pc}
	.cfi_endproc
.LFE367:
	.size	SMARTCARD_DMAReceiveCplt, .-SMARTCARD_DMAReceiveCplt
	.section	.text.HAL_SMARTCARD_ErrorCallback,"ax",%progbits
	.align	1
	.weak	HAL_SMARTCARD_ErrorCallback
	.syntax unified
	.thumb
	.thumb_func
	.type	HAL_SMARTCARD_ErrorCallback, %function
HAL_SMARTCARD_ErrorCallback:
.LFB354:
	.loc 1 2188 1 is_stmt 1
	.cfi_startproc
	@ args = 0, pretend = 0, frame = 0
	@ frame_needed = 0, uses_anonymous_args = 0
	@ link register save eliminated.
.LVL228:
	.loc 1 2190 3
	.loc 1 2195 1 is_stmt 0
	bx	lr
	.cfi_endproc
.LFE354:
	.size	HAL_SMARTCARD_ErrorCallback, .-HAL_SMARTCARD_ErrorCallback
	.section	.text.SMARTCARD_DMAError,"ax",%progbits
	.align	1
	.syntax unified
	.thumb
	.thumb_func
	.type	SMARTCARD_DMAError, %function
SMARTCARD_DMAError:
.LFB368:
	.loc 1 2728 1 is_stmt 1
	.cfi_startproc
	@ args = 0, pretend = 0, frame = 0
	@ frame_needed = 0, uses_anonymous_args = 0
.LVL229:
	push	{r4, lr}
	.cfi_def_cfa_offset 8
	.cfi_offset 4, -8
	.cfi_offset 14, -4
	.loc 1 2729 3
	.loc 1 2729 28 is_stmt 0
	ldr	r4, [r0, #56]
.LVL230:
	.loc 1 2732 3 is_stmt 1
	.loc 1 2732 17 is_stmt 0
	ldr	r3, [r4, #128]
	.loc 1 2732 6
	cmp	r3, #33
	beq	.L288
.LVL231:
.L285:
	.loc 1 2742 3 is_stmt 1
	.loc 1 2742 17 is_stmt 0
	ldr	r3, [r4, #132]
	.loc 1 2742 6
	cmp	r3, #34
	beq	.L289
.L286:
	.loc 1 2751 3 is_stmt 1
	.loc 1 2751 13 is_stmt 0
	ldr	r3, [r4, #136]
	.loc 1 2751 25
	orr	r3, r3, #16
	str	r3, [r4, #136]
	.loc 1 2757 3 is_stmt 1
	mov	r0, r4
	bl	HAL_SMARTCARD_ErrorCallback
.LVL232:
	.loc 1 2759 1 is_stmt 0
	pop	{r4, pc}
.LVL233:
.L288:
	.loc 1 2734 5 is_stmt 1
	.loc 1 2734 22 is_stmt 0
	ldr	r3, [r4]
	.loc 1 2734 32
	ldr	r3, [r3, #8]
	.loc 1 2734 8
	tst	r3, #128
	beq	.L285
	.loc 1 2736 7 is_stmt 1
	.loc 1 2736 31 is_stmt 0
	movs	r3, #0
	strh	r3, [r4, #90]	@ movhi
	.loc 1 2737 7 is_stmt 1
	mov	r0, r4
.LVL234:
	bl	SMARTCARD_EndTxTransfer
.LVL235:
	b	.L285
.L289:
	.loc 1 2744 5
	.loc 1 2744 22 is_stmt 0
	ldr	r3, [r4]
	.loc 1 2744 32
	ldr	r3, [r3, #8]
	.loc 1 2744 8
	tst	r3, #64
	beq	.L286
	.loc 1 2746 7 is_stmt 1
	.loc 1 2746 31 is_stmt 0
	movs	r3, #0
	strh	r3, [r4, #98]	@ movhi
	.loc 1 2747 7 is_stmt 1
	mov	r0, r4
	bl	SMARTCARD_EndRxTransfer
.LVL236:
	b	.L286
	.cfi_endproc
.LFE368:
	.size	SMARTCARD_DMAError, .-SMARTCARD_DMAError
	.section	.text.HAL_SMARTCARD_IRQHandler,"ax",%progbits
	.align	1
	.global	HAL_SMARTCARD_IRQHandler
	.syntax unified
	.thumb
	.thumb_func
	.type	HAL_SMARTCARD_IRQHandler, %function
HAL_SMARTCARD_IRQHandler:
.LFB351:
	.loc 1 1871 1
	.cfi_startproc
	@ args = 0, pretend = 0, frame = 0
	@ frame_needed = 0, uses_anonymous_args = 0
.LVL237:
	push	{r4, r5, r6, lr}
	.cfi_def_cfa_offset 16
	.cfi_offset 4, -16
	.cfi_offset 5, -12
	.cfi_offset 6, -8
	.cfi_offset 14, -4
	mov	r4, r0
	.loc 1 1872 3
	.loc 1 1872 35 is_stmt 0
	ldr	r2, [r0]
	.loc 1 1872 12
	ldr	r3, [r2, #28]
.LVL238:
	.loc 1 1873 3 is_stmt 1
	.loc 1 1873 12 is_stmt 0
	ldr	r1, [r2]
.LVL239:
	.loc 1 1874 3 is_stmt 1
	.loc 1 1874 12 is_stmt 0
	ldr	r0, [r2, #8]
.LVL240:
	.loc 1 1875 3 is_stmt 1
	.loc 1 1876 3
	.loc 1 1879 3
	.loc 1 1880 3
	.loc 1 1880 6 is_stmt 0
	movw	ip, #2063
	tst	r3, ip
	bne	.L291
	.loc 1 1883 5 is_stmt 1
	.loc 1 1883 8 is_stmt 0
	tst	r3, #32
	beq	.L292
	.loc 1 1884 9
	tst	r1, #32
	bne	.L293
	.loc 1 1885 13
	tst	r0, #268435456
	beq	.L292
.L293:
	.loc 1 1887 7 is_stmt 1
	.loc 1 1887 21 is_stmt 0
	ldr	r3, [r4, #108]
.LVL241:
	.loc 1 1887 10
	cmp	r3, #0
	beq	.L290
	.loc 1 1889 9 is_stmt 1
	mov	r0, r4
.LVL242:
	blx	r3
.LVL243:
	.loc 1 1891 7
	b	.L290
.LVL244:
.L291:
	.loc 1 1897 21 is_stmt 0
	ldr	r5, .L330
	.loc 1 1897 7
	ands	r5, r0, r5
	bne	.L296
	.loc 1 1898 12
	tst	r1, #288
	bne	.L296
.L292:
	.loc 1 2083 3 is_stmt 1
	.loc 1 2083 6 is_stmt 0
	tst	r3, #4096
	beq	.L313
	.loc 1 2083 45 discriminator 1
	tst	r1, #134217728
	bne	.L323
.L313:
	.loc 1 2101 3 is_stmt 1
	.loc 1 2101 6 is_stmt 0
	tst	r3, #128
	beq	.L314
	.loc 1 2102 7
	tst	r1, #128
	bne	.L315
	.loc 1 2103 11
	tst	r0, #8388608
	bne	.L315
.L314:
	.loc 1 2113 3 is_stmt 1
	.loc 1 2113 33 is_stmt 0
	ldr	r5, [r2, #28]
	.loc 1 2113 79
	ldrh	r0, [r4, #80]
.LVL245:
	.loc 1 2113 114
	ubfx	ip, r0, #8, #5
	.loc 1 2113 122
	lsr	r5, r5, ip
	.loc 1 2113 6
	tst	r5, #1
	beq	.L317
	.loc 1 2115 5 is_stmt 1
	.loc 1 2115 77 is_stmt 0
	ubfx	r5, r0, #5, #3
	.loc 1 2115 123
	cmp	r5, #1
	beq	.L324
	.loc 1 2115 123 discriminator 2
	cmp	r5, #2
	beq	.L325
	.loc 1 2115 123 discriminator 5
	ldr	r2, [r2, #8]
.L319:
	.loc 1 2115 344 discriminator 8
	and	r0, r0, #31
	.loc 1 2115 357 discriminator 8
	lsrs	r2, r2, r0
	.loc 1 2115 8 discriminator 8
	tst	r2, #1
	bne	.L326
.L317:
	.loc 1 2123 3 is_stmt 1
	.loc 1 2123 6 is_stmt 0
	tst	r3, #8388608
	beq	.L321
	.loc 1 2123 45 discriminator 1
	tst	r1, #1073741824
	bne	.L327
.L321:
	.loc 1 2136 3 is_stmt 1
	.loc 1 2136 6 is_stmt 0
	tst	r3, #16777216
	beq	.L290
	.loc 1 2136 45 discriminator 1
	cmp	r1, #0
	blt	.L328
.LVL246:
.L290:
	.loc 1 2147 1
	pop	{r4, r5, r6, pc}
.LVL247:
.L296:
	.loc 1 1901 5 is_stmt 1
	.loc 1 1901 8 is_stmt 0
	tst	r3, #1
	beq	.L297
	.loc 1 1901 46 discriminator 1
	tst	r1, #256
	beq	.L297
	.loc 1 1903 7 is_stmt 1
	.loc 1 1903 30 is_stmt 0
	ldr	r6, [r2, #32]
	.loc 1 1903 36
	orr	r6, r6, #1
	str	r6, [r2, #32]
	.loc 1 1905 7 is_stmt 1
	.loc 1 1905 17 is_stmt 0
	ldr	r2, [r4, #136]
	.loc 1 1905 29
	orr	r2, r2, #1
	str	r2, [r4, #136]
.L297:
	.loc 1 1909 5 is_stmt 1
	.loc 1 1909 8 is_stmt 0
	tst	r3, #2
	beq	.L298
	.loc 1 1909 46 discriminator 1
	tst	r0, #1
	beq	.L298
	.loc 1 1911 7 is_stmt 1
	.loc 1 1911 20 is_stmt 0
	ldr	r6, [r4]
	.loc 1 1911 30
	ldr	r2, [r6, #32]
	.loc 1 1911 36
	orr	r2, r2, #2
	str	r2, [r6, #32]
	.loc 1 1913 7 is_stmt 1
	.loc 1 1913 17 is_stmt 0
	ldr	r2, [r4, #136]
	.loc 1 1913 29
	orr	r2, r2, #4
	str	r2, [r4, #136]
.L298:
	.loc 1 1917 5 is_stmt 1
	.loc 1 1917 8 is_stmt 0
	tst	r3, #4
	beq	.L299
	.loc 1 1917 46 discriminator 1
	tst	r0, #1
	beq	.L299
	.loc 1 1919 7 is_stmt 1
	.loc 1 1919 20 is_stmt 0
	ldr	r6, [r4]
	.loc 1 1919 30
	ldr	r2, [r6, #32]
	.loc 1 1919 36
	orr	r2, r2, #4
	str	r2, [r6, #32]
	.loc 1 1921 7 is_stmt 1
	.loc 1 1921 17 is_stmt 0
	ldr	r2, [r4, #136]
	.loc 1 1921 29
	orr	r2, r2, #2
	str	r2, [r4, #136]
.L299:
	.loc 1 1925 5 is_stmt 1
	.loc 1 1925 8 is_stmt 0
	tst	r3, #8
	beq	.L300
	.loc 1 1926 9
	tst	r1, #32
	bne	.L301
	.loc 1 1928 13
	cbz	r5, .L300
.L301:
	.loc 1 1930 7 is_stmt 1
	.loc 1 1930 20 is_stmt 0
	ldr	r5, [r4]
	.loc 1 1930 30
	ldr	r2, [r5, #32]
	.loc 1 1930 36
	orr	r2, r2, #8
	str	r2, [r5, #32]
	.loc 1 1932 7 is_stmt 1
	.loc 1 1932 17 is_stmt 0
	ldr	r2, [r4, #136]
	.loc 1 1932 29
	orr	r2, r2, #8
	str	r2, [r4, #136]
.L300:
	.loc 1 1936 5 is_stmt 1
	.loc 1 1936 8 is_stmt 0
	tst	r3, #2048
	beq	.L302
	.loc 1 1936 47 discriminator 1
	tst	r1, #67108864
	beq	.L302
	.loc 1 1938 7 is_stmt 1
	.loc 1 1938 20 is_stmt 0
	ldr	r5, [r4]
	.loc 1 1938 30
	ldr	r2, [r5, #32]
	.loc 1 1938 36
	orr	r2, r2, #2048
	str	r2, [r5, #32]
	.loc 1 1940 7 is_stmt 1
	.loc 1 1940 17 is_stmt 0
	ldr	r2, [r4, #136]
	.loc 1 1940 29
	orr	r2, r2, #32
	str	r2, [r4, #136]
.L302:
	.loc 1 1944 5 is_stmt 1
	.loc 1 1944 19 is_stmt 0
	ldr	r2, [r4, #136]
	.loc 1 1944 8
	cmp	r2, #0
	beq	.L290
	.loc 1 1947 7 is_stmt 1
	.loc 1 1947 10 is_stmt 0
	tst	r3, #32
	beq	.L304
	.loc 1 1948 11
	tst	r1, #32
	bne	.L305
	.loc 1 1949 15
	tst	r0, #268435456
	beq	.L304
.L305:
	.loc 1 1951 9 is_stmt 1
	.loc 1 1951 23 is_stmt 0
	ldr	r3, [r4, #108]
.LVL248:
	.loc 1 1951 12
	cbz	r3, .L304
	.loc 1 1953 11 is_stmt 1
	mov	r0, r4
.LVL249:
	blx	r3
.LVL250:
.L304:
	.loc 1 1962 7
	.loc 1 1962 17 is_stmt 0
	ldr	r2, [r4, #136]
.LVL251:
	.loc 1 1963 7 is_stmt 1
	.loc 1 1963 25 is_stmt 0
	ldr	r3, [r4]
	.loc 1 1963 35
	ldr	r3, [r3, #8]
	.loc 1 1963 10
	tst	r3, #64
	bne	.L306
	.loc 1 1964 11
	tst	r2, #40
	beq	.L307
.L306:
	.loc 1 1969 9 is_stmt 1
	mov	r0, r4
	bl	SMARTCARD_EndRxTransfer
.LVL252:
	.loc 1 1972 9
	.loc 1 1972 26 is_stmt 0
	ldr	r3, [r4]
	.loc 1 1972 36
	ldr	r2, [r3, #8]
	.loc 1 1972 12
	tst	r2, #64
	beq	.L308
	.loc 1 1974 11 is_stmt 1
	.loc 1 1974 33 is_stmt 0
	ldr	r2, [r3, #8]
	.loc 1 1974 40
	bic	r2, r2, #64
	str	r2, [r3, #8]
	.loc 1 1977 11 is_stmt 1
	.loc 1 1977 25 is_stmt 0
	ldr	r3, [r4, #120]
	.loc 1 1977 14
	cbz	r3, .L309
	.loc 1 1981 13 is_stmt 1
	.loc 1 1981 51 is_stmt 0
	ldr	r2, .L330+4
	str	r2, [r3, #80]
	.loc 1 1984 13 is_stmt 1
	.loc 1 1984 17 is_stmt 0
	ldr	r0, [r4, #120]
	bl	HAL_DMA_Abort_IT
.LVL253:
	.loc 1 1984 16
	cmp	r0, #0
	beq	.L290
	.loc 1 1987 15 is_stmt 1
	.loc 1 1987 25 is_stmt 0
	ldr	r0, [r4, #120]
	.loc 1 1987 33
	ldr	r3, [r0, #80]
	.loc 1 1987 15
	blx	r3
.LVL254:
	b	.L290
.L309:
	.loc 1 1997 13 is_stmt 1
	mov	r0, r4
	bl	HAL_SMARTCARD_ErrorCallback
.LVL255:
	b	.L290
.L308:
	.loc 1 2008 11
	mov	r0, r4
	bl	HAL_SMARTCARD_ErrorCallback
.LVL256:
	b	.L290
.LVL257:
.L307:
	.loc 1 2015 12
	.loc 1 2015 27 is_stmt 0
	ldr	r3, [r4, #128]
	.loc 1 2015 15
	cmp	r3, #33
	bne	.L310
	.loc 1 2016 16
	tst	r2, #4
	bne	.L329
.L310:
	.loc 1 2073 9 is_stmt 1
	mov	r0, r4
	bl	HAL_SMARTCARD_ErrorCallback
.LVL258:
	.loc 1 2075 9
	.loc 1 2075 31 is_stmt 0
	movs	r3, #0
	str	r3, [r4, #136]
	.loc 1 2078 5 is_stmt 1
	b	.L290
.LVL259:
.L329:
	.loc 1 2021 9
	mov	r0, r4
	bl	SMARTCARD_EndTxTransfer
.LVL260:
	.loc 1 2024 9
	.loc 1 2024 26 is_stmt 0
	ldr	r3, [r4]
	.loc 1 2024 36
	ldr	r2, [r3, #8]
	.loc 1 2024 12
	tst	r2, #128
	beq	.L311
	.loc 1 2026 11 is_stmt 1
	.loc 1 2026 33 is_stmt 0
	ldr	r2, [r3, #8]
	.loc 1 2026 40
	bic	r2, r2, #128
	str	r2, [r3, #8]
	.loc 1 2029 11 is_stmt 1
	.loc 1 2029 25 is_stmt 0
	ldr	r3, [r4, #116]
	.loc 1 2029 14
	cbz	r3, .L312
	.loc 1 2033 13 is_stmt 1
	.loc 1 2033 51 is_stmt 0
	ldr	r2, .L330+4
	str	r2, [r3, #80]
	.loc 1 2036 13 is_stmt 1
	.loc 1 2036 17 is_stmt 0
	ldr	r0, [r4, #116]
	bl	HAL_DMA_Abort_IT
.LVL261:
	.loc 1 2036 16
	cmp	r0, #0
	beq	.L290
	.loc 1 2039 15 is_stmt 1
	.loc 1 2039 25 is_stmt 0
	ldr	r0, [r4, #116]
	.loc 1 2039 33
	ldr	r3, [r0, #80]
	.loc 1 2039 15
	blx	r3
.LVL262:
	b	.L290
.L312:
	.loc 1 2049 13 is_stmt 1
	mov	r0, r4
	bl	HAL_SMARTCARD_ErrorCallback
.LVL263:
	b	.L290
.L311:
	.loc 1 2060 11
	mov	r0, r4
	bl	HAL_SMARTCARD_ErrorCallback
.LVL264:
	b	.L290
.LVL265:
.L323:
	.loc 1 2085 5
	.loc 1 2085 25 is_stmt 0
	movs	r3, #32
.LVL266:
	str	r3, [r4, #132]
	.loc 1 2086 5 is_stmt 1
	.loc 1 2086 9
	.loc 1 2086 28 is_stmt 0
	movs	r3, #0
	strb	r3, [r4, #124]
	.loc 1 2086 7 is_stmt 1
	.loc 1 2092 5
	mov	r0, r4
.LVL267:
	bl	HAL_SMARTCARD_RxCpltCallback
.LVL268:
	.loc 1 2096 5
	.loc 1 2096 18 is_stmt 0
	ldr	r2, [r4]
	.loc 1 2096 28
	ldr	r3, [r2, #32]
	.loc 1 2096 34
	orr	r3, r3, #4096
	str	r3, [r2, #32]
	.loc 1 2097 5 is_stmt 1
	b	.L290
.LVL269:
.L315:
	.loc 1 2105 5
	.loc 1 2105 19 is_stmt 0
	ldr	r3, [r4, #112]
.LVL270:
	.loc 1 2105 8
	cmp	r3, #0
	beq	.L290
	.loc 1 2107 7 is_stmt 1
	mov	r0, r4
.LVL271:
	blx	r3
.LVL272:
	.loc 1 2109 5
	b	.L290
.LVL273:
.L324:
	.loc 1 2115 123 is_stmt 0 discriminator 1
	ldr	r2, [r2]
	b	.L319
.L325:
	.loc 1 2115 123 discriminator 4
	ldr	r2, [r2, #4]
	b	.L319
.L326:
	.loc 1 2117 7 is_stmt 1
	mov	r0, r4
	bl	SMARTCARD_EndTransmit_IT
.LVL274:
	.loc 1 2118 7
	b	.L290
.LVL275:
.L327:
	.loc 1 2130 5
	mov	r0, r4
	bl	HAL_SMARTCARDEx_TxFifoEmptyCallback
.LVL276:
	.loc 1 2132 5
	b	.L290
.LVL277:
.L328:
	.loc 1 2143 5
	mov	r0, r4
	bl	HAL_SMARTCARDEx_RxFifoFullCallback
.LVL278:
	.loc 1 2145 5
	b	.L290
.L331:
	.align	2
.L330:
	.word	268435457
	.word	SMARTCARD_DMAAbortOnError
	.cfi_endproc
.LFE351:
	.size	HAL_SMARTCARD_IRQHandler, .-HAL_SMARTCARD_IRQHandler
	.section	.text.SMARTCARD_DMAAbortOnError,"ax",%progbits
	.align	1
	.syntax unified
	.thumb
	.thumb_func
	.type	SMARTCARD_DMAAbortOnError, %function
SMARTCARD_DMAAbortOnError:
.LFB369:
	.loc 1 2768 1
	.cfi_startproc
	@ args = 0, pretend = 0, frame = 0
	@ frame_needed = 0, uses_anonymous_args = 0
.LVL279:
	push	{r3, lr}
	.cfi_def_cfa_offset 8
	.cfi_offset 3, -8
	.cfi_offset 14, -4
	.loc 1 2769 3
	.loc 1 2769 28 is_stmt 0
	ldr	r0, [r0, #56]
.LVL280:
	.loc 1 2770 3 is_stmt 1
	.loc 1 2770 27 is_stmt 0
	movs	r3, #0
	strh	r3, [r0, #98]	@ movhi
	.loc 1 2771 3 is_stmt 1
	.loc 1 2771 27 is_stmt 0
	strh	r3, [r0, #90]	@ movhi
	.loc 1 2778 3 is_stmt 1
	bl	HAL_SMARTCARD_ErrorCallback
.LVL281:
	.loc 1 2780 1 is_stmt 0
	pop	{r3, pc}
	.cfi_endproc
.LFE369:
	.size	SMARTCARD_DMAAbortOnError, .-SMARTCARD_DMAAbortOnError
	.section	.text.HAL_SMARTCARD_AbortCpltCallback,"ax",%progbits
	.align	1
	.weak	HAL_SMARTCARD_AbortCpltCallback
	.syntax unified
	.thumb
	.thumb_func
	.type	HAL_SMARTCARD_AbortCpltCallback, %function
HAL_SMARTCARD_AbortCpltCallback:
.LFB355:
	.loc 1 2204 1 is_stmt 1
	.cfi_startproc
	@ args = 0, pretend = 0, frame = 0
	@ frame_needed = 0, uses_anonymous_args = 0
	@ link register save eliminated.
.LVL282:
	.loc 1 2206 3
	.loc 1 2211 1 is_stmt 0
	bx	lr
	.cfi_endproc
.LFE355:
	.size	HAL_SMARTCARD_AbortCpltCallback, .-HAL_SMARTCARD_AbortCpltCallback
	.section	.text.HAL_SMARTCARD_Abort_IT,"ax",%progbits
	.align	1
	.global	HAL_SMARTCARD_Abort_IT
	.syntax unified
	.thumb
	.thumb_func
	.type	HAL_SMARTCARD_Abort_IT, %function
HAL_SMARTCARD_Abort_IT:
.LFB348:
	.loc 1 1540 1 is_stmt 1
	.cfi_startproc
	@ args = 0, pretend = 0, frame = 0
	@ frame_needed = 0, uses_anonymous_args = 0
.LVL283:
	push	{r4, lr}
	.cfi_def_cfa_offset 8
	.cfi_offset 4, -8
	.cfi_offset 14, -4
	mov	r4, r0
	.loc 1 1541 3
.LVL284:
	.loc 1 1545 3
	.loc 1 1545 15 is_stmt 0
	ldr	r2, [r0]
	.loc 1 1545 25
	ldr	r1, [r2]
	.loc 1 1545 32
	ldr	r3, .L348
	ands	r3, r3, r1
	str	r3, [r2]
	.loc 1 1548 3 is_stmt 1
	.loc 1 1548 15 is_stmt 0
	ldr	r2, [r0]
	.loc 1 1548 25
	ldr	r1, [r2, #8]
	.loc 1 1548 32
	ldr	r3, .L348+4
	ands	r3, r3, r1
	str	r3, [r2, #8]
	.loc 1 1554 3 is_stmt 1
	.loc 1 1554 17 is_stmt 0
	ldr	r3, [r0, #116]
	.loc 1 1554 6
	cbz	r3, .L336
	.loc 1 1558 5 is_stmt 1
	.loc 1 1558 22 is_stmt 0
	ldr	r2, [r0]
	.loc 1 1558 32
	ldr	r2, [r2, #8]
	.loc 1 1558 8
	tst	r2, #128
	beq	.L337
	.loc 1 1560 7 is_stmt 1
	.loc 1 1560 45 is_stmt 0
	ldr	r2, .L348+8
	str	r2, [r3, #80]
.L336:
	.loc 1 1568 3 is_stmt 1
	.loc 1 1568 17 is_stmt 0
	ldr	r3, [r4, #120]
	.loc 1 1568 6
	cbz	r3, .L338
	.loc 1 1572 5 is_stmt 1
	.loc 1 1572 22 is_stmt 0
	ldr	r2, [r4]
	.loc 1 1572 32
	ldr	r2, [r2, #8]
	.loc 1 1572 8
	tst	r2, #64
	beq	.L339
	.loc 1 1574 7 is_stmt 1
	.loc 1 1574 45 is_stmt 0
	ldr	r2, .L348+12
	str	r2, [r3, #80]
.L338:
	.loc 1 1583 3 is_stmt 1
	.loc 1 1583 20 is_stmt 0
	ldr	r3, [r4]
	.loc 1 1583 30
	ldr	r2, [r3, #8]
	.loc 1 1583 6
	tst	r2, #128
	beq	.L344
	.loc 1 1586 5 is_stmt 1
	.loc 1 1586 27 is_stmt 0
	ldr	r2, [r3, #8]
	.loc 1 1586 34
	bic	r2, r2, #128
	str	r2, [r3, #8]
	.loc 1 1589 5 is_stmt 1
	.loc 1 1589 19 is_stmt 0
	ldr	r0, [r4, #116]
.LVL285:
	.loc 1 1589 8
	cmp	r0, #0
	beq	.L345
	.loc 1 1595 7 is_stmt 1
	.loc 1 1595 11 is_stmt 0
	bl	HAL_DMA_Abort_IT
.LVL286:
	.loc 1 1595 10
	cmp	r0, #0
	beq	.L346
	.loc 1 1597 9 is_stmt 1
	.loc 1 1597 19 is_stmt 0
	ldr	r3, [r4, #116]
	.loc 1 1597 47
	movs	r2, #0
	str	r2, [r3, #80]
	.loc 1 1541 12
	movs	r1, #1
	b	.L340
.LVL287:
.L337:
	.loc 1 1564 7 is_stmt 1
	.loc 1 1564 45 is_stmt 0
	movs	r2, #0
	str	r2, [r3, #80]
	b	.L336
.L339:
	.loc 1 1578 7 is_stmt 1
	.loc 1 1578 45 is_stmt 0
	movs	r2, #0
	str	r2, [r3, #80]
	b	.L338
.L344:
	.loc 1 1541 12
	movs	r1, #1
.LVL288:
.L340:
	.loc 1 1607 3 is_stmt 1
	.loc 1 1607 20 is_stmt 0
	ldr	r3, [r4]
	.loc 1 1607 30
	ldr	r2, [r3, #8]
	.loc 1 1607 6
	tst	r2, #64
	beq	.L341
	.loc 1 1609 5 is_stmt 1
	.loc 1 1609 27 is_stmt 0
	ldr	r2, [r3, #8]
	.loc 1 1609 34
	bic	r2, r2, #64
	str	r2, [r3, #8]
	.loc 1 1612 5 is_stmt 1
	.loc 1 1612 19 is_stmt 0
	ldr	r0, [r4, #120]
	.loc 1 1612 8
	cbz	r0, .L341
	.loc 1 1618 7 is_stmt 1
	.loc 1 1618 11 is_stmt 0
	bl	HAL_DMA_Abort_IT
.LVL289:
	.loc 1 1618 10
	cbz	r0, .L342
	.loc 1 1620 9 is_stmt 1
	.loc 1 1620 19 is_stmt 0
	ldr	r3, [r4, #120]
	.loc 1 1620 47
	movs	r2, #0
	str	r2, [r3, #80]
	.loc 1 1621 9 is_stmt 1
.LVL290:
	.loc 1 1631 3
.L343:
	.loc 1 1634 5
	.loc 1 1634 29 is_stmt 0
	movs	r3, #0
	strh	r3, [r4, #90]	@ movhi
	.loc 1 1635 5 is_stmt 1
	.loc 1 1635 29 is_stmt 0
	strh	r3, [r4, #98]	@ movhi
	.loc 1 1638 5 is_stmt 1
	.loc 1 1638 23 is_stmt 0
	str	r3, [r4, #108]
	.loc 1 1639 5 is_stmt 1
	.loc 1 1639 23 is_stmt 0
	str	r3, [r4, #112]
	.loc 1 1642 5 is_stmt 1
	.loc 1 1642 27 is_stmt 0
	str	r3, [r4, #136]
	.loc 1 1645 5 is_stmt 1
	.loc 1 1645 18 is_stmt 0
	ldr	r3, [r4]
	.loc 1 1645 34
	movw	r2, #6159
	str	r2, [r3, #32]
	.loc 1 1650 5 is_stmt 1
	.loc 1 1650 24 is_stmt 0
	movs	r3, #32
	str	r3, [r4, #128]
	.loc 1 1651 5 is_stmt 1
	.loc 1 1651 25 is_stmt 0
	str	r3, [r4, #132]
	.loc 1 1659 5 is_stmt 1
	mov	r0, r4
	bl	HAL_SMARTCARD_AbortCpltCallback
.LVL291:
	b	.L342
.LVL292:
.L345:
	.loc 1 1541 12 is_stmt 0
	movs	r1, #1
	b	.L340
.L346:
	.loc 1 1601 19
	movs	r1, #0
	b	.L340
.LVL293:
.L341:
	.loc 1 1631 3 is_stmt 1
	.loc 1 1631 6 is_stmt 0
	cmp	r1, #0
	bne	.L343
.LVL294:
.L342:
	.loc 1 1663 3 is_stmt 1
	.loc 1 1664 1 is_stmt 0
	movs	r0, #0
	pop	{r4, pc}
.LVL295:
.L349:
	.align	2
.L348:
	.word	-201327073
	.word	-276824066
	.word	SMARTCARD_DMATxAbortCallback
	.word	SMARTCARD_DMARxAbortCallback
	.cfi_endproc
.LFE348:
	.size	HAL_SMARTCARD_Abort_IT, .-HAL_SMARTCARD_Abort_IT
	.section	.text.SMARTCARD_DMARxAbortCallback,"ax",%progbits
	.align	1
	.syntax unified
	.thumb
	.thumb_func
	.type	SMARTCARD_DMARxAbortCallback, %function
SMARTCARD_DMARxAbortCallback:
.LFB371:
	.loc 1 2840 1 is_stmt 1
	.cfi_startproc
	@ args = 0, pretend = 0, frame = 0
	@ frame_needed = 0, uses_anonymous_args = 0
.LVL296:
	push	{r3, lr}
	.cfi_def_cfa_offset 8
	.cfi_offset 3, -8
	.cfi_offset 14, -4
	.loc 1 2841 3
	.loc 1 2841 28 is_stmt 0
	ldr	r0, [r0, #56]
.LVL297:
	.loc 1 2843 3 is_stmt 1
	.loc 1 2843 13 is_stmt 0
	ldr	r3, [r0, #120]
	.loc 1 2843 41
	movs	r2, #0
	str	r2, [r3, #80]
	.loc 1 2846 3 is_stmt 1
	.loc 1 2846 17 is_stmt 0
	ldr	r3, [r0, #116]
	.loc 1 2846 6
	cbz	r3, .L351
	.loc 1 2848 5 is_stmt 1
	.loc 1 2848 27 is_stmt 0
	ldr	r3, [r3, #80]
	.loc 1 2848 8
	cbnz	r3, .L350
.L351:
	.loc 1 2855 3 is_stmt 1
	.loc 1 2855 27 is_stmt 0
	movs	r3, #0
	strh	r3, [r0, #90]	@ movhi
	.loc 1 2856 3 is_stmt 1
	.loc 1 2856 27 is_stmt 0
	strh	r3, [r0, #98]	@ movhi
	.loc 1 2859 3 is_stmt 1
	.loc 1 2859 25 is_stmt 0
	str	r3, [r0, #136]
	.loc 1 2862 3 is_stmt 1
	.loc 1 2862 16 is_stmt 0
	ldr	r3, [r0]
	.loc 1 2862 32
	movw	r2, #6159
	str	r2, [r3, #32]
	.loc 1 2867 3 is_stmt 1
	.loc 1 2867 22 is_stmt 0
	movs	r3, #32
	str	r3, [r0, #128]
	.loc 1 2868 3 is_stmt 1
	.loc 1 2868 23 is_stmt 0
	str	r3, [r0, #132]
	.loc 1 2875 3 is_stmt 1
	bl	HAL_SMARTCARD_AbortCpltCallback
.LVL298:
.L350:
	.loc 1 2877 1 is_stmt 0
	pop	{r3, pc}
	.cfi_endproc
.LFE371:
	.size	SMARTCARD_DMARxAbortCallback, .-SMARTCARD_DMARxAbortCallback
	.section	.text.SMARTCARD_DMATxAbortCallback,"ax",%progbits
	.align	1
	.syntax unified
	.thumb
	.thumb_func
	.type	SMARTCARD_DMATxAbortCallback, %function
SMARTCARD_DMATxAbortCallback:
.LFB370:
	.loc 1 2791 1 is_stmt 1
	.cfi_startproc
	@ args = 0, pretend = 0, frame = 0
	@ frame_needed = 0, uses_anonymous_args = 0
.LVL299:
	push	{r3, lr}
	.cfi_def_cfa_offset 8
	.cfi_offset 3, -8
	.cfi_offset 14, -4
	.loc 1 2792 3
	.loc 1 2792 28 is_stmt 0
	ldr	r0, [r0, #56]
.LVL300:
	.loc 1 2794 3 is_stmt 1
	.loc 1 2794 13 is_stmt 0
	ldr	r3, [r0, #116]
	.loc 1 2794 41
	movs	r2, #0
	str	r2, [r3, #80]
	.loc 1 2797 3 is_stmt 1
	.loc 1 2797 17 is_stmt 0
	ldr	r3, [r0, #120]
	.loc 1 2797 6
	cbz	r3, .L355
	.loc 1 2799 5 is_stmt 1
	.loc 1 2799 27 is_stmt 0
	ldr	r3, [r3, #80]
	.loc 1 2799 8
	cbnz	r3, .L354
.L355:
	.loc 1 2806 3 is_stmt 1
	.loc 1 2806 27 is_stmt 0
	movs	r3, #0
	strh	r3, [r0, #90]	@ movhi
	.loc 1 2807 3 is_stmt 1
	.loc 1 2807 27 is_stmt 0
	strh	r3, [r0, #98]	@ movhi
	.loc 1 2810 3 is_stmt 1
	.loc 1 2810 25 is_stmt 0
	str	r3, [r0, #136]
	.loc 1 2813 3 is_stmt 1
	.loc 1 2813 16 is_stmt 0
	ldr	r3, [r0]
	.loc 1 2813 32
	movw	r2, #6159
	str	r2, [r3, #32]
	.loc 1 2818 3 is_stmt 1
	.loc 1 2818 22 is_stmt 0
	movs	r3, #32
	str	r3, [r0, #128]
	.loc 1 2819 3 is_stmt 1
	.loc 1 2819 23 is_stmt 0
	str	r3, [r0, #132]
	.loc 1 2826 3 is_stmt 1
	bl	HAL_SMARTCARD_AbortCpltCallback
.LVL301:
.L354:
	.loc 1 2828 1 is_stmt 0
	pop	{r3, pc}
	.cfi_endproc
.LFE370:
	.size	SMARTCARD_DMATxAbortCallback, .-SMARTCARD_DMATxAbortCallback
	.section	.text.HAL_SMARTCARD_AbortTransmitCpltCallback,"ax",%progbits
	.align	1
	.weak	HAL_SMARTCARD_AbortTransmitCpltCallback
	.syntax unified
	.thumb
	.thumb_func
	.type	HAL_SMARTCARD_AbortTransmitCpltCallback, %function
HAL_SMARTCARD_AbortTransmitCpltCallback:
.LFB356:
	.loc 1 2220 1 is_stmt 1
	.cfi_startproc
	@ args = 0, pretend = 0, frame = 0
	@ frame_needed = 0, uses_anonymous_args = 0
	@ link register save eliminated.
.LVL302:
	.loc 1 2222 3
	.loc 1 2227 1 is_stmt 0
	bx	lr
	.cfi_endproc
.LFE356:
	.size	HAL_SMARTCARD_AbortTransmitCpltCallback, .-HAL_SMARTCARD_AbortTransmitCpltCallback
	.section	.text.HAL_SMARTCARD_AbortTransmit_IT,"ax",%progbits
	.align	1
	.global	HAL_SMARTCARD_AbortTransmit_IT
	.syntax unified
	.thumb
	.thumb_func
	.type	HAL_SMARTCARD_AbortTransmit_IT, %function
HAL_SMARTCARD_AbortTransmit_IT:
.LFB349:
	.loc 1 1682 1 is_stmt 1
	.cfi_startproc
	@ args = 0, pretend = 0, frame = 0
	@ frame_needed = 0, uses_anonymous_args = 0
.LVL303:
	push	{r4, lr}
	.cfi_def_cfa_offset 8
	.cfi_offset 4, -8
	.cfi_offset 14, -4
	mov	r4, r0
	.loc 1 1684 3
	.loc 1 1684 15 is_stmt 0
	ldr	r2, [r0]
	.loc 1 1684 25
	ldr	r3, [r2]
	.loc 1 1684 32
	bic	r3, r3, #192
	str	r3, [r2]
	.loc 1 1685 3 is_stmt 1
	.loc 1 1685 15 is_stmt 0
	ldr	r2, [r0]
	.loc 1 1685 25
	ldr	r3, [r2, #8]
	.loc 1 1685 32
	bic	r3, r3, #8388608
	str	r3, [r2, #8]
	.loc 1 1688 3 is_stmt 1
	.loc 1 1688 17 is_stmt 0
	ldr	r3, [r0, #132]
	.loc 1 1688 6
	cmp	r3, #32
	beq	.L365
.L360:
	.loc 1 1695 3 is_stmt 1
	.loc 1 1695 20 is_stmt 0
	ldr	r3, [r4]
	.loc 1 1695 30
	ldr	r2, [r3, #8]
	.loc 1 1695 6
	tst	r2, #128
	beq	.L361
	.loc 1 1697 5 is_stmt 1
	.loc 1 1697 27 is_stmt 0
	ldr	r2, [r3, #8]
	.loc 1 1697 34
	bic	r2, r2, #128
	str	r2, [r3, #8]
	.loc 1 1700 5 is_stmt 1
	.loc 1 1700 19 is_stmt 0
	ldr	r3, [r4, #116]
	.loc 1 1700 8
	cbz	r3, .L362
	.loc 1 1704 7 is_stmt 1
	.loc 1 1704 45 is_stmt 0
	ldr	r2, .L366
	str	r2, [r3, #80]
	.loc 1 1707 7 is_stmt 1
	.loc 1 1707 11 is_stmt 0
	ldr	r0, [r4, #116]
.LVL304:
	bl	HAL_DMA_Abort_IT
.LVL305:
	.loc 1 1707 10
	cbz	r0, .L363
	.loc 1 1710 9 is_stmt 1
	.loc 1 1710 19 is_stmt 0
	ldr	r0, [r4, #116]
	.loc 1 1710 27
	ldr	r3, [r0, #80]
	.loc 1 1710 9
	blx	r3
.LVL306:
	b	.L363
.LVL307:
.L365:
	.loc 1 1691 5 is_stmt 1
	.loc 1 1691 17 is_stmt 0
	ldr	r2, [r0]
	.loc 1 1691 27
	ldr	r3, [r2, #8]
	.loc 1 1691 34
	bic	r3, r3, #1
	str	r3, [r2, #8]
	b	.L360
.L362:
	.loc 1 1716 7 is_stmt 1
	.loc 1 1716 31 is_stmt 0
	movs	r3, #0
	strh	r3, [r4, #90]	@ movhi
	.loc 1 1719 7 is_stmt 1
	.loc 1 1719 25 is_stmt 0
	str	r3, [r4, #112]
	.loc 1 1722 7 is_stmt 1
	.loc 1 1722 26 is_stmt 0
	movs	r3, #32
	str	r3, [r4, #128]
	.loc 1 1730 7 is_stmt 1
	mov	r0, r4
.LVL308:
	bl	HAL_SMARTCARD_AbortTransmitCpltCallback
.LVL309:
	b	.L363
.LVL310:
.L361:
	.loc 1 1737 5
	.loc 1 1737 29 is_stmt 0
	movs	r2, #0
	strh	r2, [r4, #90]	@ movhi
	.loc 1 1740 5 is_stmt 1
	.loc 1 1740 23 is_stmt 0
	str	r2, [r4, #112]
	.loc 1 1743 5 is_stmt 1
	.loc 1 1743 34 is_stmt 0
	movs	r2, #2
	str	r2, [r3, #32]
	.loc 1 1746 5 is_stmt 1
	.loc 1 1746 24 is_stmt 0
	movs	r3, #32
	str	r3, [r4, #128]
	.loc 1 1754 5 is_stmt 1
	mov	r0, r4
.LVL311:
	bl	HAL_SMARTCARD_AbortTransmitCpltCallback
.LVL312:
.L363:
	.loc 1 1758 3
	.loc 1 1759 1 is_stmt 0
	movs	r0, #0
	pop	{r4, pc}
.LVL313:
.L367:
	.align	2
.L366:
	.word	SMARTCARD_DMATxOnlyAbortCallback
	.cfi_endproc
.LFE349:
	.size	HAL_SMARTCARD_AbortTransmit_IT, .-HAL_SMARTCARD_AbortTransmit_IT
	.section	.text.SMARTCARD_DMATxOnlyAbortCallback,"ax",%progbits
	.align	1
	.syntax unified
	.thumb
	.thumb_func
	.type	SMARTCARD_DMATxOnlyAbortCallback, %function
SMARTCARD_DMATxOnlyAbortCallback:
.LFB372:
	.loc 1 2889 1 is_stmt 1
	.cfi_startproc
	@ args = 0, pretend = 0, frame = 0
	@ frame_needed = 0, uses_anonymous_args = 0
.LVL314:
	push	{r3, lr}
	.cfi_def_cfa_offset 8
	.cfi_offset 3, -8
	.cfi_offset 14, -4
	.loc 1 2890 3
	.loc 1 2890 28 is_stmt 0
	ldr	r0, [r0, #56]
.LVL315:
	.loc 1 2892 3 is_stmt 1
	.loc 1 2892 27 is_stmt 0
	movs	r3, #0
	strh	r3, [r0, #90]	@ movhi
	.loc 1 2895 3 is_stmt 1
	.loc 1 2895 16 is_stmt 0
	ldr	r3, [r0]
	.loc 1 2895 32
	movs	r2, #2
	str	r2, [r3, #32]
	.loc 1 2898 3 is_stmt 1
	.loc 1 2898 22 is_stmt 0
	movs	r3, #32
	str	r3, [r0, #128]
	.loc 1 2905 3 is_stmt 1
	bl	HAL_SMARTCARD_AbortTransmitCpltCallback
.LVL316:
	.loc 1 2907 1 is_stmt 0
	pop	{r3, pc}
	.cfi_endproc
.LFE372:
	.size	SMARTCARD_DMATxOnlyAbortCallback, .-SMARTCARD_DMATxOnlyAbortCallback
	.section	.text.HAL_SMARTCARD_AbortReceiveCpltCallback,"ax",%progbits
	.align	1
	.weak	HAL_SMARTCARD_AbortReceiveCpltCallback
	.syntax unified
	.thumb
	.thumb_func
	.type	HAL_SMARTCARD_AbortReceiveCpltCallback, %function
HAL_SMARTCARD_AbortReceiveCpltCallback:
.LFB357:
	.loc 1 2236 1 is_stmt 1
	.cfi_startproc
	@ args = 0, pretend = 0, frame = 0
	@ frame_needed = 0, uses_anonymous_args = 0
	@ link register save eliminated.
.LVL317:
	.loc 1 2238 3
	.loc 1 2243 1 is_stmt 0
	bx	lr
	.cfi_endproc
.LFE357:
	.size	HAL_SMARTCARD_AbortReceiveCpltCallback, .-HAL_SMARTCARD_AbortReceiveCpltCallback
	.section	.text.HAL_SMARTCARD_AbortReceive_IT,"ax",%progbits
	.align	1
	.global	HAL_SMARTCARD_AbortReceive_IT
	.syntax unified
	.thumb
	.thumb_func
	.type	HAL_SMARTCARD_AbortReceive_IT, %function
HAL_SMARTCARD_AbortReceive_IT:
.LFB350:
	.loc 1 1777 1 is_stmt 1
	.cfi_startproc
	@ args = 0, pretend = 0, frame = 0
	@ frame_needed = 0, uses_anonymous_args = 0
.LVL318:
	push	{r4, lr}
	.cfi_def_cfa_offset 8
	.cfi_offset 4, -8
	.cfi_offset 14, -4
	mov	r4, r0
	.loc 1 1779 3
	.loc 1 1779 15 is_stmt 0
	ldr	r2, [r0]
	.loc 1 1779 25
	ldr	r1, [r2]
	.loc 1 1779 32
	ldr	r3, .L378
	ands	r3, r3, r1
	str	r3, [r2]
	.loc 1 1781 3 is_stmt 1
	.loc 1 1781 15 is_stmt 0
	ldr	r2, [r0]
	.loc 1 1781 25
	ldr	r1, [r2, #8]
	.loc 1 1781 32
	ldr	r3, .L378+4
	ands	r3, r3, r1
	str	r3, [r2, #8]
	.loc 1 1784 3 is_stmt 1
	.loc 1 1784 17 is_stmt 0
	ldr	r3, [r0, #128]
	.loc 1 1784 6
	cmp	r3, #32
	beq	.L377
.L372:
	.loc 1 1791 3 is_stmt 1
	.loc 1 1791 20 is_stmt 0
	ldr	r3, [r4]
	.loc 1 1791 30
	ldr	r2, [r3, #8]
	.loc 1 1791 6
	tst	r2, #64
	beq	.L373
	.loc 1 1793 5 is_stmt 1
	.loc 1 1793 27 is_stmt 0
	ldr	r2, [r3, #8]
	.loc 1 1793 34
	bic	r2, r2, #64
	str	r2, [r3, #8]
	.loc 1 1796 5 is_stmt 1
	.loc 1 1796 19 is_stmt 0
	ldr	r3, [r4, #120]
	.loc 1 1796 8
	cbz	r3, .L374
	.loc 1 1800 7 is_stmt 1
	.loc 1 1800 45 is_stmt 0
	ldr	r2, .L378+8
	str	r2, [r3, #80]
	.loc 1 1803 7 is_stmt 1
	.loc 1 1803 11 is_stmt 0
	ldr	r0, [r4, #120]
.LVL319:
	bl	HAL_DMA_Abort_IT
.LVL320:
	.loc 1 1803 10
	cbz	r0, .L375
	.loc 1 1806 9 is_stmt 1
	.loc 1 1806 19 is_stmt 0
	ldr	r0, [r4, #120]
	.loc 1 1806 27
	ldr	r3, [r0, #80]
	.loc 1 1806 9
	blx	r3
.LVL321:
	b	.L375
.LVL322:
.L377:
	.loc 1 1787 5 is_stmt 1
	.loc 1 1787 17 is_stmt 0
	ldr	r2, [r0]
	.loc 1 1787 27
	ldr	r3, [r2, #8]
	.loc 1 1787 34
	bic	r3, r3, #1
	str	r3, [r2, #8]
	b	.L372
.L374:
	.loc 1 1812 7 is_stmt 1
	.loc 1 1812 31 is_stmt 0
	movs	r3, #0
	strh	r3, [r4, #98]	@ movhi
	.loc 1 1815 7 is_stmt 1
	.loc 1 1815 25 is_stmt 0
	str	r3, [r4, #108]
	.loc 1 1818 7 is_stmt 1
	.loc 1 1818 20 is_stmt 0
	ldr	r3, [r4]
	.loc 1 1818 36
	movw	r2, #6159
	str	r2, [r3, #32]
	.loc 1 1823 7 is_stmt 1
	.loc 1 1823 27 is_stmt 0
	movs	r3, #32
	str	r3, [r4, #132]
	.loc 1 1831 7 is_stmt 1
	mov	r0, r4
.LVL323:
	bl	HAL_SMARTCARD_AbortReceiveCpltCallback
.LVL324:
	b	.L375
.LVL325:
.L373:
	.loc 1 1838 5
	.loc 1 1838 29 is_stmt 0
	movs	r2, #0
	strh	r2, [r4, #98]	@ movhi
	.loc 1 1841 5 is_stmt 1
	.loc 1 1841 23 is_stmt 0
	str	r2, [r4, #108]
	.loc 1 1844 5 is_stmt 1
	.loc 1 1844 34 is_stmt 0
	movw	r2, #6159
	str	r2, [r3, #32]
	.loc 1 1849 5 is_stmt 1
	.loc 1 1849 25 is_stmt 0
	movs	r3, #32
	str	r3, [r4, #132]
	.loc 1 1857 5 is_stmt 1
	mov	r0, r4
.LVL326:
	bl	HAL_SMARTCARD_AbortReceiveCpltCallback
.LVL327:
.L375:
	.loc 1 1861 3
	.loc 1 1862 1 is_stmt 0
	movs	r0, #0
	pop	{r4, pc}
.LVL328:
.L379:
	.align	2
.L378:
	.word	-201326881
	.word	-268435458
	.word	SMARTCARD_DMARxOnlyAbortCallback
	.cfi_endproc
.LFE350:
	.size	HAL_SMARTCARD_AbortReceive_IT, .-HAL_SMARTCARD_AbortReceive_IT
	.section	.text.SMARTCARD_DMARxOnlyAbortCallback,"ax",%progbits
	.align	1
	.syntax unified
	.thumb
	.thumb_func
	.type	SMARTCARD_DMARxOnlyAbortCallback, %function
SMARTCARD_DMARxOnlyAbortCallback:
.LFB373:
	.loc 1 2918 1 is_stmt 1
	.cfi_startproc
	@ args = 0, pretend = 0, frame = 0
	@ frame_needed = 0, uses_anonymous_args = 0
.LVL329:
	push	{r3, lr}
	.cfi_def_cfa_offset 8
	.cfi_offset 3, -8
	.cfi_offset 14, -4
	.loc 1 2919 3
	.loc 1 2919 28 is_stmt 0
	ldr	r0, [r0, #56]
.LVL330:
	.loc 1 2921 3 is_stmt 1
	.loc 1 2921 27 is_stmt 0
	movs	r3, #0
	strh	r3, [r0, #98]	@ movhi
	.loc 1 2924 3 is_stmt 1
	.loc 1 2924 16 is_stmt 0
	ldr	r3, [r0]
	.loc 1 2924 32
	movw	r2, #6159
	str	r2, [r3, #32]
	.loc 1 2929 3 is_stmt 1
	.loc 1 2929 23 is_stmt 0
	movs	r3, #32
	str	r3, [r0, #132]
	.loc 1 2936 3 is_stmt 1
	bl	HAL_SMARTCARD_AbortReceiveCpltCallback
.LVL331:
	.loc 1 2938 1 is_stmt 0
	pop	{r3, pc}
	.cfi_endproc
.LFE373:
	.size	SMARTCARD_DMARxOnlyAbortCallback, .-SMARTCARD_DMARxOnlyAbortCallback
	.section	.text.HAL_SMARTCARD_GetState,"ax",%progbits
	.align	1
	.global	HAL_SMARTCARD_GetState
	.syntax unified
	.thumb
	.thumb_func
	.type	HAL_SMARTCARD_GetState, %function
HAL_SMARTCARD_GetState:
.LFB358:
	.loc 1 2275 1 is_stmt 1
	.cfi_startproc
	@ args = 0, pretend = 0, frame = 0
	@ frame_needed = 0, uses_anonymous_args = 0
	@ link register save eliminated.
.LVL332:
	.loc 1 2277 3
	.loc 1 2278 3
	.loc 1 2279 3
	.loc 1 2279 9 is_stmt 0
	ldr	r2, [r0, #128]
.LVL333:
	.loc 1 2280 3 is_stmt 1
	.loc 1 2280 9 is_stmt 0
	ldr	r0, [r0, #132]
.LVL334:
	.loc 1 2282 3 is_stmt 1
	.loc 1 2283 1 is_stmt 0
	orrs	r0, r0, r2
.LVL335:
	bx	lr
	.cfi_endproc
.LFE358:
	.size	HAL_SMARTCARD_GetState, .-HAL_SMARTCARD_GetState
	.section	.text.HAL_SMARTCARD_GetError,"ax",%progbits
	.align	1
	.global	HAL_SMARTCARD_GetError
	.syntax unified
	.thumb
	.thumb_func
	.type	HAL_SMARTCARD_GetError, %function
HAL_SMARTCARD_GetError:
.LFB359:
	.loc 1 2292 1 is_stmt 1
	.cfi_startproc
	@ args = 0, pretend = 0, frame = 0
	@ frame_needed = 0, uses_anonymous_args = 0
	@ link register save eliminated.
.LVL336:
	.loc 1 2293 3
	.loc 1 2293 20 is_stmt 0
	ldr	r0, [r0, #136]
.LVL337:
	.loc 1 2294 1
	bx	lr
	.cfi_endproc
.LFE359:
	.size	HAL_SMARTCARD_GetError, .-HAL_SMARTCARD_GetError
	.section	.rodata.SMARTCARDPrescTable.0,"a"
	.align	2
	.type	SMARTCARDPrescTable.0, %object
	.size	SMARTCARDPrescTable.0, 24
SMARTCARDPrescTable.0:
	.short	1
	.short	2
	.short	4
	.short	6
	.short	8
	.short	10
	.short	12
	.short	16
	.short	32
	.short	64
	.short	128
	.short	256
	.text
.Letext0:
	.file 2 "m:\\noinstall\\arm-gnu-toolchain-12.2.rel1-mingw-w64-i686-arm-none-eabi\\arm-none-eabi\\include\\machine\\_default_types.h"
	.file 3 "m:\\noinstall\\arm-gnu-toolchain-12.2.rel1-mingw-w64-i686-arm-none-eabi\\arm-none-eabi\\include\\sys\\_stdint.h"
	.file 4 "D:/RTOS/Board/YD-STM32H7xxVx_ClassicV19/cmake-build-debug/_deps/stm32h7xx_cmsis_device-src/Include/stm32h743xx.h"
	.file 5 "D:/RTOS/Board/YD-STM32H7xxVx_ClassicV19/cmake-build-debug/_deps/stm32h7xx_cmsis_device-src/Include/stm32h7xx.h"
	.file 6 "D:/RTOS/Board/YD-STM32H7xxVx_ClassicV19/cmake-build-debug/_deps/stm32h7xx_hal_driver-src/Inc/stm32h7xx_hal_def.h"
	.file 7 "D:/RTOS/Board/YD-STM32H7xxVx_ClassicV19/cmake-build-debug/_deps/stm32h7xx_hal_driver-src/Inc/stm32h7xx_hal_rcc_ex.h"
	.file 8 "D:/RTOS/Board/YD-STM32H7xxVx_ClassicV19/cmake-build-debug/_deps/stm32h7xx_hal_driver-src/Inc/stm32h7xx_hal_dma.h"
	.file 9 "D:/RTOS/Board/YD-STM32H7xxVx_ClassicV19/cmake-build-debug/_deps/stm32h7xx_hal_driver-src/Inc/stm32h7xx_hal_smartcard.h"
	.file 10 "D:/RTOS/Board/YD-STM32H7xxVx_ClassicV19/cmake-build-debug/_deps/stm32h7xx_hal_driver-src/Inc/stm32h7xx_hal_smartcard_ex.h"
	.file 11 "D:/RTOS/Board/YD-STM32H7xxVx_ClassicV19/cmake-build-debug/_deps/stm32h7xx_hal_driver-src/Inc/stm32h7xx_hal.h"
	.file 12 "D:/RTOS/Board/YD-STM32H7xxVx_ClassicV19/cmake-build-debug/_deps/stm32h7xx_hal_driver-src/Inc/stm32h7xx_hal_rcc.h"