	.cpu cortex-m7
	.arch armv7e-m
	.fpu fpv5-d16
	.eabi_attribute 28, 1
	.eabi_attribute 20, 1
	.eabi_attribute 21, 1
	.eabi_attribute 23, 3
	.eabi_attribute 24, 1
	.eabi_attribute 25, 1
	.eabi_attribute 26, 1
	.eabi_attribute 30, 1
	.eabi_attribute 34, 1
	.eabi_attribute 18, 4
	.file	"stm32h7xx_hal_usart.c"
	.text
.Ltext0:
	.cfi_sections	.debug_frame
	.file 1 "D:/RTOS/Board/YD-STM32H7xxVx_ClassicV19/cmake-build-debug/_deps/stm32h7xx_hal_driver-src/Src/stm32h7xx_hal_usart.c"
	.section	.text.USART_EndTransfer,"ax",%progbits
	.align	1
	.syntax unified
	.thumb
	.thumb_func
	.type	USART_EndTransfer, %function
USART_EndTransfer:
.LFB363:
	.loc 1 2537 1
	.cfi_startproc
	@ args = 0, pretend = 0, frame = 0
	@ frame_needed = 0, uses_anonymous_args = 0
	@ link register save eliminated.
.LVL0:
	.loc 1 2539 3
	.loc 1 2539 11 is_stmt 0
	ldr	r2, [r0]
	.loc 1 2539 21
	ldr	r3, [r2]
	.loc 1 2539 28
	bic	r3, r3, #480
	str	r3, [r2]
	.loc 1 2541 3 is_stmt 1
	.loc 1 2541 11 is_stmt 0
	ldr	r2, [r0]
	.loc 1 2541 21
	ldr	r1, [r2, #8]
	.loc 1 2541 28
	ldr	r3, .L2
	ands	r3, r3, r1
	str	r3, [r2, #8]
	.loc 1 2544 3 is_stmt 1
	.loc 1 2544 17 is_stmt 0
	movs	r3, #1
	strb	r3, [r0, #89]
	.loc 1 2545 1
	bx	lr
.L3:
	.align	2
.L2:
	.word	-276824066
	.cfi_endproc
.LFE363:
	.size	USART_EndTransfer, .-USART_EndTransfer
	.section	.text.USART_TxISR_8BIT,"ax",%progbits
	.align	1
	.syntax unified
	.thumb
	.thumb_func
	.type	USART_TxISR_8BIT, %function
USART_TxISR_8BIT:
.LFB375:
	.loc 1 3051 1 is_stmt 1
	.cfi_startproc
	@ args = 0, pretend = 0, frame = 0
	@ frame_needed = 0, uses_anonymous_args = 0
	@ link register save eliminated.
.LVL1:
	.loc 1 3052 3
	.loc 1 3052 32 is_stmt 0
	ldrb	r3, [r0, #89]	@ zero_extendqisi2
	uxtb	r3, r3
.LVL2:
	.loc 1 3055 3 is_stmt 1
	.loc 1 3055 6 is_stmt 0
	cmp	r3, #50
	it	ne
	cmpne	r3, #18
	bne	.L4
	.loc 1 3058 5 is_stmt 1
	.loc 1 3058 15 is_stmt 0
	ldrh	r3, [r0, #46]
.LVL3:
	uxth	r3, r3
	.loc 1 3058 8
	cbnz	r3, .L6
	.loc 1 3061 7 is_stmt 1
	.loc 1 3061 56 is_stmt 0
	ldr	r2, [r0]
	.loc 1 3061 66
	ldr	r3, [r2]
	.loc 1 3061 72
	bic	r3, r3, #128
	.loc 1 3061 107
	str	r3, [r2]
	.loc 1 3064 7 is_stmt 1
	.loc 1 3064 56 is_stmt 0
	ldr	r2, [r0]
	.loc 1 3064 66
	ldr	r3, [r2]
	.loc 1 3064 72
	orr	r3, r3, #64
	.loc 1 3064 105
	str	r3, [r2]
	bx	lr
.L6:
	.loc 1 3068 7 is_stmt 1
	.loc 1 3068 48 is_stmt 0
	ldr	r3, [r0, #40]
	.loc 1 3068 41
	ldrb	r2, [r3]	@ zero_extendqisi2
	.loc 1 3068 13
	ldr	r3, [r0]
	.loc 1 3068 29
	str	r2, [r3, #40]
	.loc 1 3069 7 is_stmt 1
	.loc 1 3069 13 is_stmt 0
	ldr	r3, [r0, #40]
	.loc 1 3069 25
	adds	r3, r3, #1
	str	r3, [r0, #40]
	.loc 1 3070 7 is_stmt 1
	.loc 1 3070 13 is_stmt 0
	ldrh	r3, [r0, #46]
	uxth	r3, r3
	.loc 1 3070 26
	subs	r3, r3, #1
	uxth	r3, r3
	strh	r3, [r0, #46]	@ movhi
.L4:
	.loc 1 3073 1
	bx	lr
	.cfi_endproc
.LFE375:
	.size	USART_TxISR_8BIT, .-USART_TxISR_8BIT
	.section	.text.USART_TxISR_16BIT,"ax",%progbits
	.align	1
	.syntax unified
	.thumb
	.thumb_func
	.type	USART_TxISR_16BIT, %function
USART_TxISR_16BIT:
.LFB376:
	.loc 1 3086 1 is_stmt 1
	.cfi_startproc
	@ args = 0, pretend = 0, frame = 0
	@ frame_needed = 0, uses_anonymous_args = 0
	@ link register save eliminated.
.LVL4:
	.loc 1 3087 3
	.loc 1 3087 32 is_stmt 0
	ldrb	r3, [r0, #89]	@ zero_extendqisi2
	uxtb	r3, r3
.LVL5:
	.loc 1 3088 3 is_stmt 1
	.loc 1 3090 3
	.loc 1 3090 6 is_stmt 0
	cmp	r3, #50
	it	ne
	cmpne	r3, #18
	bne	.L7
	.loc 1 3093 5 is_stmt 1
	.loc 1 3093 15 is_stmt 0
	ldrh	r3, [r0, #46]
.LVL6:
	uxth	r3, r3
	.loc 1 3093 8
	cbnz	r3, .L9
	.loc 1 3096 7 is_stmt 1
	.loc 1 3096 56 is_stmt 0
	ldr	r2, [r0]
	.loc 1 3096 66
	ldr	r3, [r2]
	.loc 1 3096 72
	bic	r3, r3, #128
	.loc 1 3096 107
	str	r3, [r2]
	.loc 1 3099 7 is_stmt 1
	.loc 1 3099 56 is_stmt 0
	ldr	r2, [r0]
	.loc 1 3099 66
	ldr	r3, [r2]
	.loc 1 3099 72
	orr	r3, r3, #64
	.loc 1 3099 105
	str	r3, [r2]
	bx	lr
.L9:
	.loc 1 3103 7 is_stmt 1
	.loc 1 3103 11 is_stmt 0
	ldr	r3, [r0, #40]
.LVL7:
	.loc 1 3104 7 is_stmt 1
	.loc 1 3104 42 is_stmt 0
	ldrh	r3, [r3]
.LVL8:
	.loc 1 3104 13
	ldr	r2, [r0]
	.loc 1 3104 31
	ubfx	r3, r3, #0, #9
	.loc 1 3104 29
	str	r3, [r2, #40]
.LVL9:
	.loc 1 3105 7 is_stmt 1
	.loc 1 3105 13 is_stmt 0
	ldr	r3, [r0, #40]
	.loc 1 3105 26
	adds	r3, r3, #2
	str	r3, [r0, #40]
	.loc 1 3106 7 is_stmt 1
	.loc 1 3106 13 is_stmt 0
	ldrh	r3, [r0, #46]
	uxth	r3, r3
	.loc 1 3106 26
	subs	r3, r3, #1
	uxth	r3, r3
	strh	r3, [r0, #46]	@ movhi
.LVL10:
.L7:
	.loc 1 3109 1
	bx	lr
	.cfi_endproc
.LFE376:
	.size	USART_TxISR_16BIT, .-USART_TxISR_16BIT
	.section	.text.USART_TxISR_8BIT_FIFOEN,"ax",%progbits
	.align	1
	.syntax unified
	.thumb
	.thumb_func
	.type	USART_TxISR_8BIT_FIFOEN, %function
USART_TxISR_8BIT_FIFOEN:
.LFB377:
	.loc 1 3122 1 is_stmt 1
	.cfi_startproc
	@ args = 0, pretend = 0, frame = 0
	@ frame_needed = 0, uses_anonymous_args = 0
	@ link register save eliminated.
.LVL11:
	.loc 1 3123 3
	.loc 1 3123 32 is_stmt 0
	ldrb	r3, [r0, #89]	@ zero_extendqisi2
	uxtb	r3, r3
.LVL12:
	.loc 1 3124 3 is_stmt 1
	.loc 1 3127 3
	.loc 1 3127 6 is_stmt 0
	cmp	r3, #50
	it	ne
	cmpne	r3, #18
	bne	.L10
	.loc 1 3130 5 is_stmt 1
	.loc 1 3130 21 is_stmt 0
	ldrh	r3, [r0, #60]
.LVL13:
	.loc 1 3130 5
	b	.L12
.L16:
	.loc 1 3135 9 is_stmt 1
	.loc 1 3135 221 is_stmt 0
	ldr	r2, [r0]
	.loc 1 3135 231
	ldr	r3, [r2, #8]
.LVL14:
	.loc 1 3135 237
	bic	r3, r3, #8388608
	.loc 1 3135 109
	str	r3, [r2, #8]
	.loc 1 3138 9 is_stmt 1
	.loc 1 3138 58 is_stmt 0
	ldr	r2, [r0]
	.loc 1 3138 68
	ldr	r3, [r2]
	.loc 1 3138 74
	orr	r3, r3, #64
	.loc 1 3138 107
	str	r3, [r2]
	.loc 1 3140 9 is_stmt 1
	bx	lr
.LVL15:
.L14:
	.loc 1 3151 7 discriminator 2
	.loc 1 3130 79 discriminator 2
	subs	r3, r3, #1
.LVL16:
	uxth	r3, r3
.LVL17:
.L12:
	.loc 1 3130 62 discriminator 1
	cbz	r3, .L10
	.loc 1 3132 7
	.loc 1 3132 17 is_stmt 0
	ldrh	r2, [r0, #46]
	uxth	r2, r2
	.loc 1 3132 10
	cmp	r2, #0
	beq	.L16
	.loc 1 3142 12 is_stmt 1
	.loc 1 3142 26 is_stmt 0
	ldr	r2, [r0]
	.loc 1 3142 36
	ldr	r1, [r2, #28]
	.loc 1 3142 15
	tst	r1, #128
	beq	.L14
	.loc 1 3144 9 is_stmt 1
	.loc 1 3144 50 is_stmt 0
	ldr	r1, [r0, #40]
	.loc 1 3144 43
	ldrb	r1, [r1]	@ zero_extendqisi2
	.loc 1 3144 31
	str	r1, [r2, #40]
	.loc 1 3145 9 is_stmt 1
	.loc 1 3145 15 is_stmt 0
	ldr	r2, [r0, #40]
	.loc 1 3145 27
	adds	r2, r2, #1
	str	r2, [r0, #40]
	.loc 1 3146 9 is_stmt 1
	.loc 1 3146 15 is_stmt 0
	ldrh	r2, [r0, #46]
	uxth	r2, r2
	.loc 1 3146 28
	subs	r2, r2, #1
	uxth	r2, r2
	strh	r2, [r0, #46]	@ movhi
	b	.L14
.LVL18:
.L10:
	.loc 1 3154 1
	bx	lr
	.cfi_endproc
.LFE377:
	.size	USART_TxISR_8BIT_FIFOEN, .-USART_TxISR_8BIT_FIFOEN
	.section	.text.USART_TxISR_16BIT_FIFOEN,"ax",%progbits
	.align	1
	.syntax unified
	.thumb
	.thumb_func
	.type	USART_TxISR_16BIT_FIFOEN, %function
USART_TxISR_16BIT_FIFOEN:
.LFB378:
	.loc 1 3167 1 is_stmt 1
	.cfi_startproc
	@ args = 0, pretend = 0, frame = 0
	@ frame_needed = 0, uses_anonymous_args = 0
	@ link register save eliminated.
.LVL19:
	.loc 1 3168 3
	.loc 1 3168 32 is_stmt 0
	ldrb	r3, [r0, #89]	@ zero_extendqisi2
	uxtb	r3, r3
.LVL20:
	.loc 1 3169 3 is_stmt 1
	.loc 1 3170 3
	.loc 1 3173 3
	.loc 1 3173 6 is_stmt 0
	cmp	r3, #50
	it	ne
	cmpne	r3, #18
	bne	.L17
	.loc 1 3176 5 is_stmt 1
	.loc 1 3176 21 is_stmt 0
	ldrh	r3, [r0, #60]
.LVL21:
	.loc 1 3176 5
	b	.L19
.L23:
	.loc 1 3181 9 is_stmt 1
	.loc 1 3181 221 is_stmt 0
	ldr	r2, [r0]
	.loc 1 3181 231
	ldr	r3, [r2, #8]
.LVL22:
	.loc 1 3181 237
	bic	r3, r3, #8388608
	.loc 1 3181 109
	str	r3, [r2, #8]
	.loc 1 3184 9 is_stmt 1
	.loc 1 3184 58 is_stmt 0
	ldr	r2, [r0]
	.loc 1 3184 68
	ldr	r3, [r2]
	.loc 1 3184 74
	orr	r3, r3, #64
	.loc 1 3184 107
	str	r3, [r2]
	.loc 1 3186 9 is_stmt 1
	bx	lr
.LVL23:
.L21:
	.loc 1 3198 7 discriminator 2
	.loc 1 3176 79 discriminator 2
	subs	r3, r3, #1
.LVL24:
	uxth	r3, r3
.LVL25:
.L19:
	.loc 1 3176 62 discriminator 1
	cbz	r3, .L17
	.loc 1 3178 7
	.loc 1 3178 17 is_stmt 0
	ldrh	r2, [r0, #46]
	uxth	r2, r2
	.loc 1 3178 10
	cmp	r2, #0
	beq	.L23
	.loc 1 3188 12 is_stmt 1
	.loc 1 3188 26 is_stmt 0
	ldr	r2, [r0]
	.loc 1 3188 36
	ldr	r1, [r2, #28]
	.loc 1 3188 15
	tst	r1, #128
	beq	.L21
	.loc 1 3190 9 is_stmt 1
	.loc 1 3190 13 is_stmt 0
	ldr	r1, [r0, #40]
.LVL26:
	.loc 1 3191 9 is_stmt 1
	.loc 1 3191 44 is_stmt 0
	ldrh	r1, [r1]
.LVL27:
	.loc 1 3191 33
	ubfx	r1, r1, #0, #9
	.loc 1 3191 31
	str	r1, [r2, #40]
.LVL28:
	.loc 1 3192 9 is_stmt 1
	.loc 1 3192 15 is_stmt 0
	ldr	r2, [r0, #40]
	.loc 1 3192 28
	adds	r2, r2, #2
	str	r2, [r0, #40]
	.loc 1 3193 9 is_stmt 1
	.loc 1 3193 15 is_stmt 0
	ldrh	r2, [r0, #46]
	uxth	r2, r2
	.loc 1 3193 28
	subs	r2, r2, #1
	uxth	r2, r2
	strh	r2, [r0, #46]	@ movhi
	b	.L21
.LVL29:
.L17:
	.loc 1 3201 1
	bx	lr
	.cfi_endproc
.LFE378:
	.size	USART_TxISR_16BIT_FIFOEN, .-USART_TxISR_16BIT_FIFOEN
	.section	.text.USART_SetConfig,"ax",%progbits
	.align	1
	.syntax unified
	.thumb
	.thumb_func
	.type	USART_SetConfig, %function
USART_SetConfig:
.LFB373:
	.loc 1 2878 1 is_stmt 1
	.cfi_startproc
	@ args = 0, pretend = 0, frame = 24
	@ frame_needed = 0, uses_anonymous_args = 0
.LVL30:
	push	{r4, lr}
	.cfi_def_cfa_offset 8
	.cfi_offset 4, -8
	.cfi_offset 14, -4
	sub	sp, sp, #24
	.cfi_def_cfa_offset 32
	mov	r4, r0
	.loc 1 2879 3
	.loc 1 2880 3
	.loc 1 2881 3
.LVL31:
	.loc 1 2882 3
	.loc 1 2883 3
	.loc 1 2884 3
	.loc 1 2885 3
	.loc 1 2886 3
	.loc 1 2889 3
	.loc 1 2890 3
	.loc 1 2891 3
	.loc 1 2892 3
	.loc 1 2893 3
	.loc 1 2894 3
	.loc 1 2895 3
	.loc 1 2896 3
	.loc 1 2897 3
	.loc 1 2906 3
	.loc 1 2906 34 is_stmt 0
	ldr	r3, [r0, #8]
	.loc 1 2906 60
	ldr	r2, [r0, #16]
	.loc 1 2906 46
	orrs	r3, r3, r2
	.loc 1 2906 82
	ldr	r2, [r0, #20]
	.loc 1 2906 68
	orrs	r3, r3, r2
	.loc 1 2906 10
	orr	r3, r3, #32768
.LVL32:
	.loc 1 2907 3 is_stmt 1
	.loc 1 2907 44 is_stmt 0
	ldr	r1, [r0]
	.loc 1 2907 54
	ldr	r0, [r1]
.LVL33:
	.loc 1 2907 63
	ldr	r2, .L197
	ands	r2, r2, r0
	.loc 1 2907 218
	orrs	r2, r2, r3
	.loc 1 2907 30
	str	r2, [r1]
	.loc 1 2915 3 is_stmt 1
.LVL34:
	.loc 1 2916 3
	.loc 1 2916 35 is_stmt 0
	ldr	r3, [r4, #32]
	.loc 1 2916 10
	orr	r2, r3, #2048
.LVL35:
	.loc 1 2917 3 is_stmt 1
	.loc 1 2917 36 is_stmt 0
	ldr	r3, [r4, #24]
	.loc 1 2917 73
	ldr	r1, [r4, #28]
	.loc 1 2917 49
	orrs	r3, r3, r1
	.loc 1 2917 10
	orrs	r3, r3, r2
.LVL36:
	.loc 1 2918 3 is_stmt 1
	.loc 1 2918 35 is_stmt 0
	ldr	r2, [r4, #12]
	.loc 1 2918 10
	orrs	r2, r2, r3
.LVL37:
	.loc 1 2919 3 is_stmt 1
	.loc 1 2919 44 is_stmt 0
	ldr	r1, [r4]
	.loc 1 2919 54
	ldr	r0, [r1, #4]
	.loc 1 2919 63
	ldr	r3, .L197+4
	ands	r3, r3, r0
	.loc 1 2919 212
	orrs	r3, r3, r2
	.loc 1 2919 30
	str	r3, [r1, #4]
	.loc 1 2924 3 is_stmt 1
	.loc 1 2924 46 is_stmt 0
	ldr	r2, [r4]
.LVL38:
	.loc 1 2924 56
	ldr	r3, [r2, #44]
	.loc 1 2924 67
	bic	r3, r3, #15
	.loc 1 2924 106
	ldr	r1, [r4, #36]
	.loc 1 2924 91
	orrs	r3, r3, r1
	.loc 1 2924 32
	str	r3, [r2, #44]
	.loc 1 2928 3 is_stmt 1
	.loc 1 2928 8
	.loc 1 2928 19 is_stmt 0
	ldr	r3, [r4]
	.loc 1 2928 10
	ldr	r2, .L197+8
	cmp	r3, r2
	beq	.L193
	.loc 1 2928 744 is_stmt 1 discriminator 2
	.loc 1 2928 746 is_stmt 0 discriminator 2
	ldr	r2, .L197+12
	cmp	r3, r2
	beq	.L194
	.loc 1 2928 1463 is_stmt 1 discriminator 11
	.loc 1 2928 1465 is_stmt 0 discriminator 11
	ldr	r2, .L197+16
	cmp	r3, r2
	beq	.L195
	.loc 1 2928 2182 is_stmt 1 discriminator 20
	.loc 1 2928 2184 is_stmt 0 discriminator 20
	ldr	r2, .L197+20
	cmp	r3, r2
	beq	.L196
	.loc 1 2883 12
	movs	r3, #0
	.loc 1 2968 11
	movs	r0, #1
.LVL39:
.L26:
	.loc 1 2973 3 is_stmt 1
	.loc 1 2973 27 is_stmt 0
	sub	r1, r3, #16
	.loc 1 2973 6
	movw	r2, #65519
	cmp	r1, r2
	bhi	.L167
	.loc 1 2975 5 is_stmt 1
	.loc 1 2975 15 is_stmt 0
	uxth	r2, r3
	.loc 1 2975 13
	bic	r2, r2, #15
.LVL40:
	.loc 1 2976 5 is_stmt 1
	.loc 1 2976 16 is_stmt 0
	ubfx	r3, r3, #1, #3
.LVL41:
	.loc 1 2976 13
	orrs	r3, r3, r2
.LVL42:
	.loc 1 2977 5 is_stmt 1
	.loc 1 2977 11 is_stmt 0
	ldr	r2, [r4]
	.loc 1 2977 27
	str	r3, [r2, #12]
.LVL43:
.L145:
	.loc 1 2985 3 is_stmt 1
	.loc 1 2985 29 is_stmt 0
	movs	r3, #1
	strh	r3, [r4, #60]	@ movhi
	.loc 1 2986 3 is_stmt 1
	.loc 1 2986 29 is_stmt 0
	strh	r3, [r4, #58]	@ movhi
	.loc 1 2989 3 is_stmt 1
	.loc 1 2989 17 is_stmt 0
	movs	r3, #0
	str	r3, [r4, #72]
	.loc 1 2990 3 is_stmt 1
	.loc 1 2990 17 is_stmt 0
	str	r3, [r4, #76]
	.loc 1 2992 3 is_stmt 1
	.loc 1 2993 1 is_stmt 0
	add	sp, sp, #24
	.cfi_remember_state
	.cfi_def_cfa_offset 8
	@ sp needed
	pop	{r4, pc}
.LVL44:
.L193:
	.cfi_restore_state
	.loc 1 2928 101 is_stmt 1 discriminator 1
	.loc 1 2928 184 is_stmt 0 discriminator 1
	ldr	r3, .L197+24
	ldr	r3, [r3, #84]
	.loc 1 2928 109 discriminator 1
	and	r3, r3, #56
	.loc 1 2928 101 discriminator 1
	cmp	r3, #40
	bhi	.L146
	tbh	[pc, r3, lsl #1]
.L28:
	.2byte	(.L33-.L28)/2
	.2byte	(.L146-.L28)/2
	.2byte	(.L146-.L28)/2
	.2byte	(.L146-.L28)/2
	.2byte	(.L146-.L28)/2
	.2byte	(.L146-.L28)/2
	.2byte	(.L146-.L28)/2
	.2byte	(.L146-.L28)/2
	.2byte	(.L32-.L28)/2
	.2byte	(.L146-.L28)/2
	.2byte	(.L146-.L28)/2
	.2byte	(.L146-.L28)/2
	.2byte	(.L146-.L28)/2
	.2byte	(.L146-.L28)/2
	.2byte	(.L146-.L28)/2
	.2byte	(.L146-.L28)/2
	.2byte	(.L31-.L28)/2
	.2byte	(.L146-.L28)/2
	.2byte	(.L146-.L28)/2
	.2byte	(.L146-.L28)/2
	.2byte	(.L146-.L28)/2
	.2byte	(.L146-.L28)/2
	.2byte	(.L146-.L28)/2
	.2byte	(.L146-.L28)/2
	.2byte	(.L30-.L28)/2
	.2byte	(.L146-.L28)/2
	.2byte	(.L146-.L28)/2
	.2byte	(.L146-.L28)/2
	.2byte	(.L146-.L28)/2
	.2byte	(.L146-.L28)/2
	.2byte	(.L146-.L28)/2
	.2byte	(.L146-.L28)/2
	.2byte	(.L29-.L28)/2
	.2byte	(.L146-.L28)/2
	.2byte	(.L146-.L28)/2
	.2byte	(.L146-.L28)/2
	.2byte	(.L146-.L28)/2
	.2byte	(.L146-.L28)/2
	.2byte	(.L146-.L28)/2
	.2byte	(.L146-.L28)/2
	.2byte	(.L27-.L28)/2
	.p2align 1
.L194:
	.loc 1 2928 820 is_stmt 1 discriminator 10
	.loc 1 2928 903 is_stmt 0 discriminator 10
	ldr	r3, .L197+24
	ldr	r3, [r3, #84]
	.loc 1 2928 828 discriminator 10
	and	r3, r3, #7
	.loc 1 2928 820 discriminator 10
	cmp	r3, #5
	bhi	.L147
	tbh	[pc, r3, lsl #1]
.L35:
	.2byte	(.L36-.L35)/2
	.2byte	(.L32-.L35)/2
	.2byte	(.L31-.L35)/2
	.2byte	(.L30-.L35)/2
	.2byte	(.L29-.L35)/2
	.2byte	(.L27-.L35)/2
	.p2align 1
.L195:
	.loc 1 2928 1539 is_stmt 1 discriminator 19
	.loc 1 2928 1622 is_stmt 0 discriminator 19
	ldr	r3, .L197+24
	ldr	r3, [r3, #84]
	.loc 1 2928 1547 discriminator 19
	and	r3, r3, #7
	.loc 1 2928 1539 discriminator 19
	cmp	r3, #5
	bhi	.L148
	tbh	[pc, r3, lsl #1]
.L38:
	.2byte	(.L36-.L38)/2
	.2byte	(.L32-.L38)/2
	.2byte	(.L31-.L38)/2
	.2byte	(.L30-.L38)/2
	.2byte	(.L29-.L38)/2
	.2byte	(.L27-.L38)/2
	.p2align 1
.L196:
	.loc 1 2928 2275 is_stmt 1 discriminator 28
	.loc 1 2928 2358 is_stmt 0 discriminator 28
	ldr	r3, .L197+24
	ldr	r3, [r3, #84]
	.loc 1 2928 2283 discriminator 28
	and	r3, r3, #56
	.loc 1 2928 2275 discriminator 28
	cmp	r3, #40
	bhi	.L150
	tbh	[pc, r3, lsl #1]
.L39:
	.2byte	(.L33-.L39)/2
	.2byte	(.L150-.L39)/2
	.2byte	(.L150-.L39)/2
	.2byte	(.L150-.L39)/2
	.2byte	(.L150-.L39)/2
	.2byte	(.L150-.L39)/2
	.2byte	(.L150-.L39)/2
	.2byte	(.L150-.L39)/2
	.2byte	(.L32-.L39)/2
	.2byte	(.L150-.L39)/2
	.2byte	(.L150-.L39)/2
	.2byte	(.L150-.L39)/2
	.2byte	(.L150-.L39)/2
	.2byte	(.L150-.L39)/2
	.2byte	(.L150-.L39)/2
	.2byte	(.L150-.L39)/2
	.2byte	(.L31-.L39)/2
	.2byte	(.L150-.L39)/2
	.2byte	(.L150-.L39)/2
	.2byte	(.L150-.L39)/2
	.2byte	(.L150-.L39)/2
	.2byte	(.L150-.L39)/2
	.2byte	(.L150-.L39)/2
	.2byte	(.L150-.L39)/2
	.2byte	(.L30-.L39)/2
	.2byte	(.L150-.L39)/2
	.2byte	(.L150-.L39)/2
	.2byte	(.L150-.L39)/2
	.2byte	(.L150-.L39)/2
	.2byte	(.L150-.L39)/2
	.2byte	(.L150-.L39)/2
	.2byte	(.L150-.L39)/2
	.2byte	(.L29-.L39)/2
	.2byte	(.L150-.L39)/2
	.2byte	(.L150-.L39)/2
	.2byte	(.L150-.L39)/2
	.2byte	(.L150-.L39)/2
	.2byte	(.L150-.L39)/2
	.2byte	(.L150-.L39)/2
	.2byte	(.L150-.L39)/2
	.2byte	(.L27-.L39)/2
	.p2align 1
.L36:
	.loc 1 2933 7 is_stmt 1
	.loc 1 2933 14 is_stmt 0
	bl	HAL_RCC_GetPCLK1Freq
.LVL45:
	.loc 1 2934 7 is_stmt 1
	.loc 1 2934 55 is_stmt 0
	ldr	r3, [r4, #36]
	.loc 1 2934 93
	cbz	r3, .L151
	subs	r3, r3, #1
	cmp	r3, #10
	bhi	.L41
	tbb	[pc, r3]
.L43:
	.byte	(.L152-.L43)/2
	.byte	(.L52-.L43)/2
	.byte	(.L51-.L43)/2
	.byte	(.L50-.L43)/2
	.byte	(.L49-.L43)/2
	.byte	(.L48-.L43)/2
	.byte	(.L47-.L43)/2
	.byte	(.L46-.L43)/2
	.byte	(.L45-.L43)/2
	.byte	(.L44-.L43)/2
	.byte	(.L42-.L43)/2
	.p2align 1
.L41:
	movs	r3, #1
	b	.L40
.L52:
	movs	r3, #4
	b	.L40
.L51:
	movs	r3, #6
	b	.L40
.L50:
	movs	r3, #8
	b	.L40
.L49:
	movs	r3, #10
	b	.L40
.L48:
	movs	r3, #12
	b	.L40
.L47:
	movs	r3, #16
	b	.L40
.L46:
	movs	r3, #32
	b	.L40
.L45:
	movs	r3, #64
	b	.L40
.L44:
	movs	r3, #128
	b	.L40
.L42:
	mov	r3, #256
	b	.L40
.L151:
	movs	r3, #1
.L40:
	.loc 1 2934 39 discriminator 48
	udiv	r2, r0, r3
	.loc 1 2934 723 discriminator 48
	ldr	r1, [r4, #4]
	.loc 1 2934 733 discriminator 48
	lsrs	r3, r1, #1
	.loc 1 2934 707 discriminator 48
	add	r3, r3, r2, lsl #1
	.loc 1 2934 16 discriminator 48
	udiv	r3, r3, r1
.LVL46:
	.loc 1 2935 7 is_stmt 1 discriminator 48
	.loc 1 2881 21 is_stmt 0 discriminator 48
	movs	r0, #0
.LVL47:
	.loc 1 2935 7 discriminator 48
	b	.L26
.LVL48:
.L152:
	.loc 1 2934 93
	movs	r3, #2
	b	.L40
.LVL49:
.L33:
	.loc 1 2937 7 is_stmt 1
	.loc 1 2937 14 is_stmt 0
	bl	HAL_RCC_GetPCLK2Freq
.LVL50:
	.loc 1 2938 7 is_stmt 1
	.loc 1 2938 55 is_stmt 0
	ldr	r3, [r4, #36]
	.loc 1 2938 93
	cbz	r3, .L153
	subs	r3, r3, #1
	cmp	r3, #10
	bhi	.L54
	tbb	[pc, r3]
.L56:
	.byte	(.L154-.L56)/2
	.byte	(.L65-.L56)/2
	.byte	(.L64-.L56)/2
	.byte	(.L63-.L56)/2
	.byte	(.L62-.L56)/2
	.byte	(.L61-.L56)/2
	.byte	(.L60-.L56)/2
	.byte	(.L59-.L56)/2
	.byte	(.L58-.L56)/2
	.byte	(.L57-.L56)/2
	.byte	(.L55-.L56)/2
	.p2align 1
.L54:
	movs	r3, #1
	b	.L53
.L65:
	movs	r3, #4
	b	.L53
.L64:
	movs	r3, #6
	b	.L53
.L63:
	movs	r3, #8
	b	.L53
.L62:
	movs	r3, #10
	b	.L53
.L61:
	movs	r3, #12
	b	.L53
.L60:
	movs	r3, #16
	b	.L53
.L59:
	movs	r3, #32
	b	.L53
.L58:
	movs	r3, #64
	b	.L53
.L57:
	movs	r3, #128
	b	.L53
.L198:
	.align	2
.L197:
	.word	-805344781
	.word	-16138
	.word	1073811456
	.word	1073759232
	.word	1073760256
	.word	1073812480
	.word	1476543488
.L55:
	mov	r3, #256
	b	.L53
.L153:
	movs	r3, #1
.L53:
	.loc 1 2938 39 discriminator 48
	udiv	r2, r0, r3
	.loc 1 2938 723 discriminator 48
	ldr	r1, [r4, #4]
	.loc 1 2938 733 discriminator 48
	lsrs	r3, r1, #1
	.loc 1 2938 707 discriminator 48
	add	r3, r3, r2, lsl #1
	.loc 1 2938 16 discriminator 48
	udiv	r3, r3, r1
.LVL51:
	.loc 1 2939 7 is_stmt 1 discriminator 48
	.loc 1 2881 21 is_stmt 0 discriminator 48
	movs	r0, #0
.LVL52:
	.loc 1 2939 7 discriminator 48
	b	.L26
.LVL53:
.L154:
	.loc 1 2938 93
	movs	r3, #2
	b	.L53
.LVL54:
.L32:
	.loc 1 2941 7 is_stmt 1
	mov	r0, sp
	bl	HAL_RCCEx_GetPLL2ClockFreq
.LVL55:
	.loc 1 2942 7
	.loc 1 2942 45 is_stmt 0
	ldr	r2, [sp, #4]
	.loc 1 2942 79
	ldr	r3, [r4, #36]
	.loc 1 2942 117
	cbz	r3, .L155
	subs	r3, r3, #1
	cmp	r3, #10
	bhi	.L67
	tbb	[pc, r3]
.L69:
	.byte	(.L156-.L69)/2
	.byte	(.L78-.L69)/2
	.byte	(.L77-.L69)/2
	.byte	(.L76-.L69)/2
	.byte	(.L75-.L69)/2
	.byte	(.L74-.L69)/2
	.byte	(.L73-.L69)/2
	.byte	(.L72-.L69)/2
	.byte	(.L71-.L69)/2
	.byte	(.L70-.L69)/2
	.byte	(.L68-.L69)/2
	.p2align 1
.L67:
	movs	r3, #1
	b	.L66
.L78:
	movs	r3, #4
	b	.L66
.L77:
	movs	r3, #6
	b	.L66
.L76:
	movs	r3, #8
	b	.L66
.L75:
	movs	r3, #10
	b	.L66
.L74:
	movs	r3, #12
	b	.L66
.L73:
	movs	r3, #16
	b	.L66
.L72:
	movs	r3, #32
	b	.L66
.L71:
	movs	r3, #64
	b	.L66
.L70:
	movs	r3, #128
	b	.L66
.L68:
	mov	r3, #256
	b	.L66
.L155:
	movs	r3, #1
.L66:
	.loc 1 2942 63 discriminator 48
	udiv	r2, r2, r3
	.loc 1 2942 747 discriminator 48
	ldr	r1, [r4, #4]
	.loc 1 2942 757 discriminator 48
	lsrs	r3, r1, #1
	.loc 1 2942 731 discriminator 48
	add	r3, r3, r2, lsl #1
	.loc 1 2942 16 discriminator 48
	udiv	r3, r3, r1
.LVL56:
	.loc 1 2944 7 is_stmt 1 discriminator 48
	.loc 1 2881 21 is_stmt 0 discriminator 48
	movs	r0, #0
	.loc 1 2944 7 discriminator 48
	b	.L26
.LVL57:
.L156:
	.loc 1 2942 117
	movs	r3, #2
	b	.L66
.L31:
	.loc 1 2946 7 is_stmt 1
	add	r0, sp, #12
	bl	HAL_RCCEx_GetPLL3ClockFreq
.LVL58:
	.loc 1 2947 7
	.loc 1 2947 45 is_stmt 0
	ldr	r2, [sp, #16]
	.loc 1 2947 79
	ldr	r3, [r4, #36]
	.loc 1 2947 117
	cbz	r3, .L157
	subs	r3, r3, #1
	cmp	r3, #10
	bhi	.L80
	tbb	[pc, r3]
.L82:
	.byte	(.L158-.L82)/2
	.byte	(.L91-.L82)/2
	.byte	(.L90-.L82)/2
	.byte	(.L89-.L82)/2
	.byte	(.L88-.L82)/2
	.byte	(.L87-.L82)/2
	.byte	(.L86-.L82)/2
	.byte	(.L85-.L82)/2
	.byte	(.L84-.L82)/2
	.byte	(.L83-.L82)/2
	.byte	(.L81-.L82)/2
	.p2align 1
.L80:
	movs	r3, #1
	b	.L79
.L91:
	movs	r3, #4
	b	.L79
.L90:
	movs	r3, #6
	b	.L79
.L89:
	movs	r3, #8
	b	.L79
.L88:
	movs	r3, #10
	b	.L79
.L87:
	movs	r3, #12
	b	.L79
.L86:
	movs	r3, #16
	b	.L79
.L85:
	movs	r3, #32
	b	.L79
.L84:
	movs	r3, #64
	b	.L79
.L83:
	movs	r3, #128
	b	.L79
.L81:
	mov	r3, #256
	b	.L79
.L157:
	movs	r3, #1
.L79:
	.loc 1 2947 63 discriminator 48
	udiv	r2, r2, r3
	.loc 1 2947 747 discriminator 48
	ldr	r1, [r4, #4]
	.loc 1 2947 757 discriminator 48
	lsrs	r3, r1, #1
	.loc 1 2947 731 discriminator 48
	add	r3, r3, r2, lsl #1
	.loc 1 2947 16 discriminator 48
	udiv	r3, r3, r1
.LVL59:
	.loc 1 2949 7 is_stmt 1 discriminator 48
	.loc 1 2881 21 is_stmt 0 discriminator 48
	movs	r0, #0
	.loc 1 2949 7 discriminator 48
	b	.L26
.LVL60:
.L158:
	.loc 1 2947 117
	movs	r3, #2
	b	.L79
.L30:
	.loc 1 2951 7 is_stmt 1
	.loc 1 2951 112 is_stmt 0
	ldr	r3, .L199
	ldr	r3, [r3]
	.loc 1 2951 10
	tst	r3, #32
	beq	.L92
	.loc 1 2953 9 is_stmt 1
	.loc 1 2953 130 is_stmt 0
	ldr	r3, .L199
	ldr	r3, [r3]
	.loc 1 2953 159
	ubfx	r3, r3, #3, #2
	.loc 1 2953 50
	ldr	r2, .L199+4
	lsrs	r2, r2, r3
	.loc 1 2953 183
	ldr	r3, [r4, #36]
	.loc 1 2953 221
	cbz	r3, .L159
	subs	r3, r3, #1
	cmp	r3, #10
	bhi	.L94
	tbb	[pc, r3]
.L96:
	.byte	(.L160-.L96)/2
	.byte	(.L105-.L96)/2
	.byte	(.L104-.L96)/2
	.byte	(.L103-.L96)/2
	.byte	(.L102-.L96)/2
	.byte	(.L101-.L96)/2
	.byte	(.L100-.L96)/2
	.byte	(.L99-.L96)/2
	.byte	(.L98-.L96)/2
	.byte	(.L97-.L96)/2
	.byte	(.L95-.L96)/2
	.p2align 1
.L94:
	movs	r3, #1
	b	.L93
.L105:
	movs	r3, #4
	b	.L93
.L104:
	movs	r3, #6
	b	.L93
.L103:
	movs	r3, #8
	b	.L93
.L102:
	movs	r3, #10
	b	.L93
.L101:
	movs	r3, #12
	b	.L93
.L100:
	movs	r3, #16
	b	.L93
.L99:
	movs	r3, #32
	b	.L93
.L98:
	movs	r3, #64
	b	.L93
.L97:
	movs	r3, #128
	b	.L93
.L95:
	mov	r3, #256
	b	.L93
.L159:
	movs	r3, #1
.L93:
	.loc 1 2953 167 discriminator 48
	udiv	r2, r2, r3
	.loc 1 2953 851 discriminator 48
	ldr	r1, [r4, #4]
	.loc 1 2953 861 discriminator 48
	lsrs	r3, r1, #1
	.loc 1 2953 835 discriminator 48
	add	r3, r3, r2, lsl #1
	.loc 1 2953 18 discriminator 48
	udiv	r3, r3, r1
.LVL61:
	.loc 1 2881 21 discriminator 48
	movs	r0, #0
	b	.L26
.LVL62:
.L160:
	.loc 1 2953 221
	movs	r3, #2
	b	.L93
.L92:
	.loc 1 2958 9 is_stmt 1
	.loc 1 2958 65 is_stmt 0
	ldr	r3, [r4, #36]
	.loc 1 2958 103
	cbz	r3, .L161
	subs	r3, r3, #1
	cmp	r3, #10
	bhi	.L107
	tbb	[pc, r3]
.L109:
	.byte	(.L162-.L109)/2
	.byte	(.L118-.L109)/2
	.byte	(.L117-.L109)/2
	.byte	(.L116-.L109)/2
	.byte	(.L115-.L109)/2
	.byte	(.L114-.L109)/2
	.byte	(.L113-.L109)/2
	.byte	(.L112-.L109)/2
	.byte	(.L111-.L109)/2
	.byte	(.L110-.L109)/2
	.byte	(.L108-.L109)/2
	.p2align 1
.L107:
	movs	r3, #1
	b	.L106
.L118:
	movs	r3, #4
	b	.L106
.L117:
	movs	r3, #6
	b	.L106
.L116:
	movs	r3, #8
	b	.L106
.L115:
	movs	r3, #10
	b	.L106
.L114:
	movs	r3, #12
	b	.L106
.L113:
	movs	r3, #16
	b	.L106
.L112:
	movs	r3, #32
	b	.L106
.L111:
	movs	r3, #64
	b	.L106
.L110:
	movs	r3, #128
	b	.L106
.L108:
	mov	r3, #256
	b	.L106
.L161:
	movs	r3, #1
.L106:
	.loc 1 2958 49 discriminator 48
	ldr	r2, .L199+4
	udiv	r2, r2, r3
	.loc 1 2958 733 discriminator 48
	ldr	r1, [r4, #4]
	.loc 1 2958 743 discriminator 48
	lsrs	r3, r1, #1
	.loc 1 2958 717 discriminator 48
	add	r3, r3, r2, lsl #1
	.loc 1 2958 18 discriminator 48
	udiv	r3, r3, r1
.LVL63:
	.loc 1 2881 21 discriminator 48
	movs	r0, #0
	b	.L26
.LVL64:
.L162:
	.loc 1 2958 103
	movs	r3, #2
	b	.L106
.L29:
	.loc 1 2962 7 is_stmt 1
	.loc 1 2962 62 is_stmt 0
	ldr	r3, [r4, #36]
	.loc 1 2962 100
	cbz	r3, .L163
	subs	r3, r3, #1
	cmp	r3, #10
	bhi	.L120
	tbb	[pc, r3]
.L122:
	.byte	(.L164-.L122)/2
	.byte	(.L131-.L122)/2
	.byte	(.L130-.L122)/2
	.byte	(.L129-.L122)/2
	.byte	(.L128-.L122)/2
	.byte	(.L127-.L122)/2
	.byte	(.L126-.L122)/2
	.byte	(.L125-.L122)/2
	.byte	(.L124-.L122)/2
	.byte	(.L123-.L122)/2
	.byte	(.L121-.L122)/2
	.p2align 1
.L120:
	movs	r3, #1
	b	.L119
.L131:
	movs	r3, #4
	b	.L119
.L130:
	movs	r3, #6
	b	.L119
.L129:
	movs	r3, #8
	b	.L119
.L128:
	movs	r3, #10
	b	.L119
.L127:
	movs	r3, #12
	b	.L119
.L126:
	movs	r3, #16
	b	.L119
.L125:
	movs	r3, #32
	b	.L119
.L124:
	movs	r3, #64
	b	.L119
.L123:
	movs	r3, #128
	b	.L119
.L121:
	mov	r3, #256
	b	.L119
.L163:
	movs	r3, #1
.L119:
	.loc 1 2962 46 discriminator 48
	ldr	r2, .L199+8
	udiv	r2, r2, r3
	.loc 1 2962 730 discriminator 48
	ldr	r1, [r4, #4]
	.loc 1 2962 740 discriminator 48
	lsrs	r3, r1, #1
	.loc 1 2962 714 discriminator 48
	add	r3, r3, r2, lsl #1
	.loc 1 2962 16 discriminator 48
	udiv	r3, r3, r1
.LVL65:
	.loc 1 2963 7 is_stmt 1 discriminator 48
	.loc 1 2881 21 is_stmt 0 discriminator 48
	movs	r0, #0
	.loc 1 2963 7 discriminator 48
	b	.L26
.LVL66:
.L164:
	.loc 1 2962 100
	movs	r3, #2
	b	.L119
.L27:
	.loc 1 2965 7 is_stmt 1
	.loc 1 2965 60 is_stmt 0
	ldr	r3, [r4, #36]
	.loc 1 2965 98
	cbz	r3, .L165
	subs	r3, r3, #1
	cmp	r3, #10
	bhi	.L133
	tbb	[pc, r3]
.L135:
	.byte	(.L166-.L135)/2
	.byte	(.L144-.L135)/2
	.byte	(.L143-.L135)/2
	.byte	(.L142-.L135)/2
	.byte	(.L141-.L135)/2
	.byte	(.L140-.L135)/2
	.byte	(.L139-.L135)/2
	.byte	(.L138-.L135)/2
	.byte	(.L137-.L135)/2
	.byte	(.L136-.L135)/2
	.byte	(.L134-.L135)/2
	.p2align 1
.L133:
	movs	r3, #1
	b	.L132
.L144:
	movs	r3, #4
	b	.L132
.L143:
	movs	r3, #6
	b	.L132
.L142:
	movs	r3, #8
	b	.L132
.L141:
	movs	r3, #10
	b	.L132
.L140:
	movs	r3, #12
	b	.L132
.L139:
	movs	r3, #16
	b	.L132
.L138:
	movs	r3, #32
	b	.L132
.L137:
	movs	r3, #64
	b	.L132
.L136:
	movs	r3, #128
	b	.L132
.L134:
	mov	r3, #256
	b	.L132
.L165:
	movs	r3, #1
.L132:
	.loc 1 2965 44 discriminator 48
	mov	r2, #32768
	udiv	r2, r2, r3
	.loc 1 2965 728 discriminator 48
	ldr	r1, [r4, #4]
	.loc 1 2965 738 discriminator 48
	lsrs	r3, r1, #1
	.loc 1 2965 712 discriminator 48
	add	r3, r3, r2, lsl #1
	.loc 1 2965 16 discriminator 48
	udiv	r3, r3, r1
.LVL67:
	.loc 1 2966 7 is_stmt 1 discriminator 48
	.loc 1 2881 21 is_stmt 0 discriminator 48
	movs	r0, #0
	.loc 1 2966 7 discriminator 48
	b	.L26
.LVL68:
.L166:
	.loc 1 2965 98
	movs	r3, #2
	b	.L132
.L146:
	.loc 1 2928 101
	movs	r3, #0
	movs	r0, #1
	b	.L26
.L147:
	.loc 1 2928 820
	movs	r3, #0
	movs	r0, #1
	b	.L26
.L148:
	.loc 1 2928 1539
	movs	r3, #0
	movs	r0, #1
	b	.L26
.L150:
	.loc 1 2928 2275
	movs	r3, #0
	movs	r0, #1
	b	.L26
.LVL69:
.L167:
	.loc 1 2981 9
	movs	r0, #1
.LVL70:
	b	.L145
.L200:
	.align	2
.L199:
	.word	1476543488
	.word	64000000
	.word	4000000
	.cfi_endproc
.LFE373:
	.size	USART_SetConfig, .-USART_SetConfig
	.section	.text.USART_WaitOnFlagUntilTimeout,"ax",%progbits
	.align	1
	.syntax unified
	.thumb
	.thumb_func
	.type	USART_WaitOnFlagUntilTimeout, %function
USART_WaitOnFlagUntilTimeout:
.LFB372:
	.loc 1 2851 1 is_stmt 1
	.cfi_startproc
	@ args = 4, pretend = 0, frame = 0
	@ frame_needed = 0, uses_anonymous_args = 0
.LVL71:
	push	{r3, r4, r5, r6, r7, r8, r9, lr}
	.cfi_def_cfa_offset 32
	.cfi_offset 3, -32
	.cfi_offset 4, -28
	.cfi_offset 5, -24
	.cfi_offset 6, -20
	.cfi_offset 7, -16
	.cfi_offset 8, -12
	.cfi_offset 9, -8
	.cfi_offset 14, -4
	mov	r5, r0
	mov	r7, r1
	mov	r6, r2
	mov	r9, r3
	ldr	r8, [sp, #32]
	.loc 1 2853 3
.LVL72:
.L203:
	.loc 1 2853 73
	.loc 1 2853 21 is_stmt 0
	ldr	r3, [r5]
	.loc 1 2853 31
	ldr	r4, [r3, #28]
	.loc 1 2853 64
	bics	r4, r7, r4
	ite	eq
	moveq	r4, #1
	movne	r4, #0
	.loc 1 2853 73
	cmp	r4, r6
	bne	.L208
	.loc 1 2856 5 is_stmt 1
	.loc 1 2856 8 is_stmt 0
	cmp	r8, #-1
	beq	.L203
	.loc 1 2858 7 is_stmt 1
	.loc 1 2858 13 is_stmt 0
	bl	HAL_GetTick
.LVL73:
	.loc 1 2858 27
	sub	r0, r0, r9
	.loc 1 2858 10
	cmp	r0, r8
	bhi	.L204
	.loc 1 2858 51 discriminator 1
	cmp	r8, #0
	bne	.L203
.L204:
	.loc 1 2860 9 is_stmt 1
	.loc 1 2860 23 is_stmt 0
	movs	r3, #1
	strb	r3, [r5, #89]
	.loc 1 2863 9 is_stmt 1
	.loc 1 2863 13
	.loc 1 2863 28 is_stmt 0
	movs	r3, #0
	strb	r3, [r5, #88]
	.loc 1 2863 11 is_stmt 1
	.loc 1 2865 9
	.loc 1 2865 16 is_stmt 0
	movs	r0, #3
	b	.L205
.L208:
	.loc 1 2869 10
	movs	r0, #0
.L205:
	.loc 1 2870 1
	pop	{r3, r4, r5, r6, r7, r8, r9, pc}
	.cfi_endproc
.LFE372:
	.size	USART_WaitOnFlagUntilTimeout, .-USART_WaitOnFlagUntilTimeout
	.section	.text.USART_CheckIdleState,"ax",%progbits
	.align	1
	.syntax unified
	.thumb
	.thumb_func
	.type	USART_CheckIdleState, %function
USART_CheckIdleState:
.LFB374:
	.loc 1 3001 1 is_stmt 1
	.cfi_startproc
	@ args = 0, pretend = 0, frame = 0
	@ frame_needed = 0, uses_anonymous_args = 0
.LVL74:
	push	{r4, r5, lr}
	.cfi_def_cfa_offset 12
	.cfi_offset 4, -12
	.cfi_offset 5, -8
	.cfi_offset 14, -4
	sub	sp, sp, #12
	.cfi_def_cfa_offset 24
	mov	r4, r0
	.loc 1 3002 3
	.loc 1 3005 3
	.loc 1 3005 21 is_stmt 0
	movs	r3, #0
	str	r3, [r0, #92]
	.loc 1 3008 3 is_stmt 1
	.loc 1 3008 15 is_stmt 0
	bl	HAL_GetTick
.LVL75:
	mov	r5, r0
.LVL76:
	.loc 1 3011 3 is_stmt 1
	.loc 1 3011 14 is_stmt 0
	ldr	r2, [r4]
	.loc 1 3011 24
	ldr	r2, [r2]
	.loc 1 3011 6
	tst	r2, #8
	bne	.L216
.LVL77:
.L210:
	.loc 1 3021 3 is_stmt 1
	.loc 1 3021 14 is_stmt 0
	ldr	r3, [r4]
	.loc 1 3021 24
	ldr	r3, [r3]
	.loc 1 3021 6
	tst	r3, #4
	bne	.L217
.L212:
	.loc 1 3032 3 is_stmt 1
	.loc 1 3032 17 is_stmt 0
	movs	r3, #1
	strb	r3, [r4, #89]
	.loc 1 3035 3 is_stmt 1
	.loc 1 3035 7
	.loc 1 3035 22 is_stmt 0
	movs	r0, #0
	strb	r0, [r4, #88]
	.loc 1 3035 5 is_stmt 1
	.loc 1 3037 3
.L211:
	.loc 1 3038 1 is_stmt 0
	add	sp, sp, #12
	.cfi_remember_state
	.cfi_def_cfa_offset 12
	@ sp needed
	pop	{r4, r5, pc}
.LVL78:
.L216:
	.cfi_restore_state
	.loc 1 3014 5 is_stmt 1
	.loc 1 3014 9 is_stmt 0
	mov	r3, #1000
	str	r3, [sp]
	mov	r3, r0
	movs	r2, #0
	mov	r1, #2097152
	mov	r0, r4
.LVL79:
	bl	USART_WaitOnFlagUntilTimeout
.LVL80:
	.loc 1 3014 8
	cmp	r0, #0
	beq	.L210
	.loc 1 3017 14
	movs	r0, #3
	b	.L211
.L217:
	.loc 1 3024 5 is_stmt 1
	.loc 1 3024 9 is_stmt 0
	mov	r3, #1000
	str	r3, [sp]
	mov	r3, r5
	movs	r2, #0
	mov	r1, #4194304
	mov	r0, r4
	bl	USART_WaitOnFlagUntilTimeout
.LVL81:
	.loc 1 3024 8
	cmp	r0, #0
	beq	.L212
	.loc 1 3027 14
	movs	r0, #3
	b	.L211
	.cfi_endproc
.LFE374:
	.size	USART_CheckIdleState, .-USART_CheckIdleState
	.section	.text.HAL_USART_MspInit,"ax",%progbits
	.align	1
	.weak	HAL_USART_MspInit
	.syntax unified
	.thumb
	.thumb_func
	.type	HAL_USART_MspInit, %function
HAL_USART_MspInit:
.LFB337:
	.loc 1 382 1 is_stmt 1
	.cfi_startproc
	@ args = 0, pretend = 0, frame = 0
	@ frame_needed = 0, uses_anonymous_args = 0
	@ link register save eliminated.
.LVL82:
	.loc 1 384 3
	.loc 1 389 1 is_stmt 0
	bx	lr
	.cfi_endproc
.LFE337:
	.size	HAL_USART_MspInit, .-HAL_USART_MspInit
	.section	.text.HAL_USART_Init,"ax",%progbits
	.align	1
	.global	HAL_USART_Init
	.syntax unified
	.thumb
	.thumb_func
	.type	HAL_USART_Init, %function
HAL_USART_Init:
.LFB335:
	.loc 1 277 1 is_stmt 1
	.cfi_startproc
	@ args = 0, pretend = 0, frame = 0
	@ frame_needed = 0, uses_anonymous_args = 0
.LVL83:
	.loc 1 279 3
	.loc 1 279 6 is_stmt 0
	cbz	r0, .L222
	.loc 1 277 1
	push	{r4, lr}
	.cfi_def_cfa_offset 8
	.cfi_offset 4, -8
	.cfi_offset 14, -4
	mov	r4, r0
	.loc 1 285 3 is_stmt 1
	.loc 1 287 3
	.loc 1 287 13 is_stmt 0
	ldrb	r3, [r0, #89]	@ zero_extendqisi2
	.loc 1 287 6
	cbz	r3, .L227
.LVL84:
.L221:
	.loc 1 308 3 is_stmt 1
	.loc 1 308 17 is_stmt 0
	movs	r3, #2
	strb	r3, [r4, #89]
	.loc 1 311 3 is_stmt 1
	.loc 1 311 12 is_stmt 0
	ldr	r2, [r4]
	.loc 1 311 22
	ldr	r3, [r2]
	.loc 1 311 28
	bic	r3, r3, #1
	str	r3, [r2]
	.loc 1 314 3 is_stmt 1
	.loc 1 314 7 is_stmt 0
	mov	r0, r4
	bl	USART_SetConfig
.LVL85:
	.loc 1 314 6
	cmp	r0, #1
	beq	.L220
	.loc 1 323 3 is_stmt 1
	.loc 1 323 9 is_stmt 0
	ldr	r2, [r4]
	.loc 1 323 19
	ldr	r3, [r2, #4]
	.loc 1 323 25
	bic	r3, r3, #16384
	str	r3, [r2, #4]
	.loc 1 324 3 is_stmt 1
	.loc 1 324 9 is_stmt 0
	ldr	r2, [r4]
	.loc 1 324 19
	ldr	r3, [r2, #8]
	.loc 1 324 25
	bic	r3, r3, #42
	str	r3, [r2, #8]
	.loc 1 327 3 is_stmt 1
	.loc 1 327 12 is_stmt 0
	ldr	r2, [r4]
	.loc 1 327 22
	ldr	r3, [r2]
	.loc 1 327 28
	orr	r3, r3, #1
	str	r3, [r2]
	.loc 1 330 3 is_stmt 1
	.loc 1 330 11 is_stmt 0
	mov	r0, r4
	bl	USART_CheckIdleState
.LVL86:
.L220:
	.loc 1 331 1
	pop	{r4, pc}
.LVL87:
.L227:
	.loc 1 290 5 is_stmt 1
	.loc 1 290 18 is_stmt 0
	strb	r3, [r0, #88]
	.loc 1 304 5 is_stmt 1
	bl	HAL_USART_MspInit
.LVL88:
	b	.L221
.LVL89:
.L222:
	.cfi_def_cfa_offset 0
	.cfi_restore 4
	.cfi_restore 14
	.loc 1 281 12 is_stmt 0
	movs	r0, #1
.LVL90:
	.loc 1 331 1
	bx	lr
	.cfi_endproc
.LFE335:
	.size	HAL_USART_Init, .-HAL_USART_Init
	.section	.text.HAL_USART_MspDeInit,"ax",%progbits
	.align	1
	.weak	HAL_USART_MspDeInit
	.syntax unified
	.thumb
	.thumb_func
	.type	HAL_USART_MspDeInit, %function
HAL_USART_MspDeInit:
.LFB338:
	.loc 1 397 1 is_stmt 1
	.cfi_startproc
	@ args = 0, pretend = 0, frame = 0
	@ frame_needed = 0, uses_anonymous_args = 0
	@ link register save eliminated.
.LVL91:
	.loc 1 399 3
	.loc 1 404 1 is_stmt 0
	bx	lr
	.cfi_endproc
.LFE338:
	.size	HAL_USART_MspDeInit, .-HAL_USART_MspDeInit
	.section	.text.HAL_USART_DeInit,"ax",%progbits
	.align	1
	.global	HAL_USART_DeInit
	.syntax unified
	.thumb
	.thumb_func
	.type	HAL_USART_DeInit, %function
HAL_USART_DeInit:
.LFB336:
	.loc 1 339 1 is_stmt 1
	.cfi_startproc
	@ args = 0, pretend = 0, frame = 0
	@ frame_needed = 0, uses_anonymous_args = 0
.LVL92:
	.loc 1 341 3
	.loc 1 341 6 is_stmt 0
	cbz	r0, .L231
	.loc 1 339 1
	push	{r3, r4, r5, lr}
	.cfi_def_cfa_offset 16
	.cfi_offset 3, -16
	.cfi_offset 4, -12
	.cfi_offset 5, -8
	.cfi_offset 14, -4
	mov	r5, r0
	.loc 1 347 3 is_stmt 1
	.loc 1 349 3
	.loc 1 349 17 is_stmt 0
	movs	r3, #2
	strb	r3, [r0, #89]
	.loc 1 351 3 is_stmt 1
	.loc 1 351 9 is_stmt 0
	ldr	r3, [r0]
	.loc 1 351 25
	movs	r4, #0
	str	r4, [r3]
	.loc 1 352 3 is_stmt 1
	.loc 1 352 9 is_stmt 0
	ldr	r3, [r0]
	.loc 1 352 25
	str	r4, [r3, #4]
	.loc 1 353 3 is_stmt 1
	.loc 1 353 9 is_stmt 0
	ldr	r3, [r0]
	.loc 1 353 25
	str	r4, [r3, #8]
	.loc 1 364 3 is_stmt 1
	bl	HAL_USART_MspDeInit
.LVL93:
	.loc 1 367 3
	.loc 1 367 21 is_stmt 0
	str	r4, [r5, #92]
	.loc 1 368 3 is_stmt 1
	.loc 1 368 17 is_stmt 0
	strb	r4, [r5, #89]
	.loc 1 371 3 is_stmt 1
	.loc 1 371 7
	.loc 1 371 22 is_stmt 0
	strb	r4, [r5, #88]
	.loc 1 371 5 is_stmt 1
	.loc 1 373 3
	.loc 1 373 10 is_stmt 0
	mov	r0, r4
	.loc 1 374 1
	pop	{r3, r4, r5, pc}
.LVL94:
.L231:
	.cfi_def_cfa_offset 0
	.cfi_restore 3
	.cfi_restore 4
	.cfi_restore 5
	.cfi_restore 14
	.loc 1 343 12
	movs	r0, #1
.LVL95:
	.loc 1 374 1
	bx	lr
	.cfi_endproc
.LFE336:
	.size	HAL_USART_DeInit, .-HAL_USART_DeInit
	.section	.text.HAL_USART_Transmit,"ax",%progbits
	.align	1
	.global	HAL_USART_Transmit
	.syntax unified
	.thumb
	.thumb_func
	.type	HAL_USART_Transmit, %function
HAL_USART_Transmit:
.LFB339:
	.loc 1 746 1 is_stmt 1
	.cfi_startproc
	@ args = 0, pretend = 0, frame = 0
	@ frame_needed = 0, uses_anonymous_args = 0
.LVL96:
	push	{r4, r5, r6, r7, r8, lr}
	.cfi_def_cfa_offset 24
	.cfi_offset 4, -24
	.cfi_offset 5, -20
	.cfi_offset 6, -16
	.cfi_offset 7, -12
	.cfi_offset 8, -8
	.cfi_offset 14, -4
	sub	sp, sp, #8
	.cfi_def_cfa_offset 32
	mov	r4, r0
	.loc 1 747 3
	.loc 1 748 3
	.loc 1 749 3
	.loc 1 751 3
	.loc 1 751 13 is_stmt 0
	ldrb	r0, [r0, #89]	@ zero_extendqisi2
.LVL97:
	uxtb	r0, r0
	.loc 1 751 6
	cmp	r0, #1
	bne	.L243
	mov	r5, r1
	mov	r8, r2
	mov	r6, r3
	.loc 1 753 5 is_stmt 1
	.loc 1 753 8 is_stmt 0
	cmp	r2, #0
	it	ne
	cmpne	r1, #0
	beq	.L237
	.loc 1 759 5 is_stmt 1
	.loc 1 759 9
	.loc 1 759 20 is_stmt 0
	ldrb	r3, [r4, #88]	@ zero_extendqisi2
.LVL98:
	.loc 1 759 11
	cmp	r3, #1
	beq	.L244
	.loc 1 759 70 is_stmt 1 discriminator 2
	.loc 1 759 85 is_stmt 0 discriminator 2
	movs	r3, #1
	strb	r3, [r4, #88]
	.loc 1 759 7 is_stmt 1 discriminator 2
	.loc 1 761 5 discriminator 2
	.loc 1 761 23 is_stmt 0 discriminator 2
	movs	r3, #0
	str	r3, [r4, #92]
	.loc 1 762 5 is_stmt 1 discriminator 2
	.loc 1 762 19 is_stmt 0 discriminator 2
	movs	r3, #18
	strb	r3, [r4, #89]
	.loc 1 765 5 is_stmt 1 discriminator 2
	.loc 1 765 17 is_stmt 0 discriminator 2
	bl	HAL_GetTick
.LVL99:
	mov	r7, r0
.LVL100:
	.loc 1 767 5 is_stmt 1 discriminator 2
	.loc 1 767 24 is_stmt 0 discriminator 2
	strh	r8, [r4, #44]	@ movhi
	.loc 1 768 5 is_stmt 1 discriminator 2
	.loc 1 768 25 is_stmt 0 discriminator 2
	strh	r8, [r4, #46]	@ movhi
	.loc 1 771 5 is_stmt 1 discriminator 2
	.loc 1 771 22 is_stmt 0 discriminator 2
	ldr	r3, [r4, #8]
	.loc 1 771 8 discriminator 2
	cmp	r3, #4096
	beq	.L250
	.loc 1 779 21
	mov	r8, #0
	b	.L241
.L250:
	.loc 1 771 73 discriminator 1
	ldr	r3, [r4, #16]
	.loc 1 771 57 discriminator 1
	cbz	r3, .L246
	.loc 1 779 21
	mov	r8, #0
	b	.L241
.LVL101:
.L239:
	.loc 1 796 9 is_stmt 1
	.loc 1 796 43 is_stmt 0
	ldrb	r2, [r5], #1	@ zero_extendqisi2
.LVL102:
	.loc 1 796 15
	ldr	r3, [r4]
	.loc 1 796 31
	str	r2, [r3, #40]
	.loc 1 797 9 is_stmt 1
.LVL103:
.L240:
	.loc 1 800 7
	.loc 1 800 13 is_stmt 0
	ldrh	r2, [r4, #46]
	uxth	r2, r2
	.loc 1 800 26
	subs	r2, r2, #1
	uxth	r2, r2
	strh	r2, [r4, #46]	@ movhi
.LVL104:
.L241:
	.loc 1 783 32 is_stmt 1
	.loc 1 783 18 is_stmt 0
	ldrh	r3, [r4, #46]
	uxth	r3, r3
	.loc 1 783 32
	cbz	r3, .L251
	.loc 1 785 7 is_stmt 1
	.loc 1 785 11 is_stmt 0
	str	r6, [sp]
	mov	r3, r7
	movs	r2, #0
	movs	r1, #128
	mov	r0, r4
	bl	USART_WaitOnFlagUntilTimeout
.LVL105:
	.loc 1 785 10
	cmp	r0, #0
	bne	.L247
	.loc 1 789 7 is_stmt 1
	.loc 1 789 10 is_stmt 0
	cmp	r5, #0
	bne	.L239
	.loc 1 791 9 is_stmt 1
	.loc 1 791 44 is_stmt 0
	ldrh	r3, [r8], #2
.LVL106:
	.loc 1 791 15
	ldr	r2, [r4]
	.loc 1 791 33
	ubfx	r3, r3, #0, #9
	.loc 1 791 31
	str	r3, [r2, #40]
	.loc 1 792 9 is_stmt 1
.LVL107:
	b	.L240
.LVL108:
.L246:
	.loc 1 774 21 is_stmt 0
	mov	r8, r5
	.loc 1 773 20
	movs	r5, #0
.LVL109:
	b	.L241
.LVL110:
.L251:
	.loc 1 803 5 is_stmt 1
	.loc 1 803 9 is_stmt 0
	str	r6, [sp]
	mov	r3, r7
	movs	r2, #0
	movs	r1, #64
	mov	r0, r4
	bl	USART_WaitOnFlagUntilTimeout
.LVL111:
	.loc 1 803 8
	cbnz	r0, .L248
	.loc 1 809 5 is_stmt 1
	.loc 1 809 14 is_stmt 0
	ldr	r3, [r4]
	.loc 1 809 30
	movs	r2, #64
	str	r2, [r3, #32]
	.loc 1 812 5 is_stmt 1
	.loc 1 812 16 is_stmt 0
	ldr	r3, [r4]
	.loc 1 812 32
	movs	r2, #8
	str	r2, [r3, #32]
	.loc 1 813 5 is_stmt 1
	.loc 1 813 14 is_stmt 0
	ldr	r2, [r4]
	.loc 1 813 24
	ldr	r3, [r2, #24]
	.loc 1 813 30
	orr	r3, r3, #8
	str	r3, [r2, #24]
	.loc 1 814 5 is_stmt 1
	.loc 1 814 14 is_stmt 0
	ldr	r2, [r4]
	.loc 1 814 24
	ldr	r3, [r2, #24]
	.loc 1 814 30
	orr	r3, r3, #16
	str	r3, [r2, #24]
	.loc 1 817 5 is_stmt 1
	.loc 1 817 19 is_stmt 0
	movs	r3, #1
	strb	r3, [r4, #89]
	.loc 1 820 5 is_stmt 1
	.loc 1 820 9
	.loc 1 820 24 is_stmt 0
	movs	r3, #0
	strb	r3, [r4, #88]
	.loc 1 820 7 is_stmt 1
	.loc 1 822 5
	.loc 1 822 12 is_stmt 0
	b	.L237
.LVL112:
.L243:
	.loc 1 826 12
	movs	r0, #2
.LVL113:
.L237:
	.loc 1 828 1
	add	sp, sp, #8
	.cfi_remember_state
	.cfi_def_cfa_offset 24
	@ sp needed
	pop	{r4, r5, r6, r7, r8, pc}
.LVL114:
.L244:
	.cfi_restore_state
	.loc 1 759 51
	movs	r0, #2
	b	.L237
.LVL115:
.L247:
	.loc 1 787 16
	movs	r0, #3
	b	.L237
.L248:
	.loc 1 805 14
	movs	r0, #3
	b	.L237
	.cfi_endproc
.LFE339:
	.size	HAL_USART_Transmit, .-HAL_USART_Transmit
	.section	.text.HAL_USART_Receive,"ax",%progbits
	.align	1
	.global	HAL_USART_Receive
	.syntax unified
	.thumb
	.thumb_func
	.type	HAL_USART_Receive, %function
HAL_USART_Receive:
.LFB340:
	.loc 1 843 1 is_stmt 1
	.cfi_startproc
	@ args = 0, pretend = 0, frame = 0
	@ frame_needed = 0, uses_anonymous_args = 0
.LVL116:
	push	{r4, r5, r6, r7, r8, r9, lr}
	.cfi_def_cfa_offset 28
	.cfi_offset 4, -28
	.cfi_offset 5, -24
	.cfi_offset 6, -20
	.cfi_offset 7, -16
	.cfi_offset 8, -12
	.cfi_offset 9, -8
	.cfi_offset 14, -4
	sub	sp, sp, #12
	.cfi_def_cfa_offset 40
	mov	r4, r0
	.loc 1 844 3
	.loc 1 845 3
	.loc 1 846 3
	.loc 1 847 3
	.loc 1 849 3
	.loc 1 849 13 is_stmt 0
	ldrb	r0, [r0, #89]	@ zero_extendqisi2
.LVL117:
	uxtb	r0, r0
	.loc 1 849 6
	cmp	r0, #1
	bne	.L268
	mov	r5, r1
	mov	r8, r2
	mov	r6, r3
	.loc 1 851 5 is_stmt 1
	.loc 1 851 8 is_stmt 0
	cmp	r2, #0
	it	ne
	cmpne	r1, #0
	beq	.L253
	.loc 1 857 5 is_stmt 1
	.loc 1 857 9
	.loc 1 857 20 is_stmt 0
	ldrb	r3, [r4, #88]	@ zero_extendqisi2
.LVL118:
	.loc 1 857 11
	cmp	r3, #1
	beq	.L269
	.loc 1 857 70 is_stmt 1 discriminator 2
	.loc 1 857 85 is_stmt 0 discriminator 2
	movs	r3, #1
	strb	r3, [r4, #88]
	.loc 1 857 7 is_stmt 1 discriminator 2
	.loc 1 859 5 discriminator 2
	.loc 1 859 23 is_stmt 0 discriminator 2
	movs	r3, #0
	str	r3, [r4, #92]
	.loc 1 860 5 is_stmt 1 discriminator 2
	.loc 1 860 19 is_stmt 0 discriminator 2
	movs	r3, #34
	strb	r3, [r4, #89]
	.loc 1 863 5 is_stmt 1 discriminator 2
	.loc 1 863 17 is_stmt 0 discriminator 2
	bl	HAL_GetTick
.LVL119:
	mov	r7, r0
.LVL120:
	.loc 1 865 5 is_stmt 1 discriminator 2
	.loc 1 865 24 is_stmt 0 discriminator 2
	strh	r8, [r4, #52]	@ movhi
	.loc 1 866 5 is_stmt 1 discriminator 2
	.loc 1 866 25 is_stmt 0 discriminator 2
	strh	r8, [r4, #54]	@ movhi
	.loc 1 869 5 is_stmt 1 discriminator 2
	.loc 1 869 10 discriminator 2
	.loc 1 869 28 is_stmt 0 discriminator 2
	ldr	r3, [r4, #8]
	.loc 1 869 13 discriminator 2
	cmp	r3, #4096
	beq	.L275
	.loc 1 869 179 is_stmt 1 discriminator 2
	.loc 1 869 182 is_stmt 0 discriminator 2
	cbnz	r3, .L257
	.loc 1 869 229 is_stmt 1 discriminator 5
	.loc 1 869 247 is_stmt 0 discriminator 5
	ldr	r2, [r4, #16]
	.loc 1 869 232 discriminator 5
	cbnz	r2, .L258
	.loc 1 869 273 is_stmt 1 discriminator 7
	.loc 1 869 288 is_stmt 0 discriminator 7
	movs	r2, #255
	strh	r2, [r4, #56]	@ movhi
	b	.L256
.L275:
	.loc 1 869 65 is_stmt 1 discriminator 1
	.loc 1 869 83 is_stmt 0 discriminator 1
	ldr	r2, [r4, #16]
	.loc 1 869 68 discriminator 1
	cbnz	r2, .L255
	.loc 1 869 109 is_stmt 1 discriminator 3
	.loc 1 869 124 is_stmt 0 discriminator 3
	movw	r2, #511
	strh	r2, [r4, #56]	@ movhi
	b	.L256
.L255:
	.loc 1 869 144 is_stmt 1 discriminator 4
	.loc 1 869 159 is_stmt 0 discriminator 4
	movs	r2, #255
	strh	r2, [r4, #56]	@ movhi
	b	.L256
.L258:
	.loc 1 869 308 is_stmt 1 discriminator 8
	.loc 1 869 323 is_stmt 0 discriminator 8
	movs	r2, #127
	strh	r2, [r4, #56]	@ movhi
	b	.L256
.L257:
	.loc 1 869 343 is_stmt 1 discriminator 6
	.loc 1 869 346 is_stmt 0 discriminator 6
	cmp	r3, #268435456
	beq	.L276
	.loc 1 869 514 is_stmt 1 discriminator 10
	.loc 1 869 529 is_stmt 0 discriminator 10
	movs	r2, #0
	strh	r2, [r4, #56]	@ movhi
.L256:
	.loc 1 869 8 is_stmt 1 discriminator 13
	.loc 1 870 5 discriminator 13
	.loc 1 870 12 is_stmt 0 discriminator 13
	ldrh	r8, [r4, #56]
.LVL121:
	.loc 1 873 5 is_stmt 1 discriminator 13
	.loc 1 873 8 is_stmt 0 discriminator 13
	cmp	r3, #4096
	beq	.L277
	.loc 1 881 21
	mov	r9, #0
	b	.L262
.LVL122:
.L276:
	.loc 1 869 398 is_stmt 1 discriminator 9
	.loc 1 869 416 is_stmt 0 discriminator 9
	ldr	r2, [r4, #16]
	.loc 1 869 401 discriminator 9
	cbnz	r2, .L260
	.loc 1 869 442 is_stmt 1 discriminator 11
	.loc 1 869 457 is_stmt 0 discriminator 11
	movs	r2, #127
	strh	r2, [r4, #56]	@ movhi
	b	.L256
.L260:
	.loc 1 869 477 is_stmt 1 discriminator 12
	.loc 1 869 492 is_stmt 0 discriminator 12
	movs	r2, #63
	strh	r2, [r4, #56]	@ movhi
	b	.L256
.LVL123:
.L277:
	.loc 1 873 73 discriminator 1
	ldr	r3, [r4, #16]
	.loc 1 873 57 discriminator 1
	cbz	r3, .L271
	.loc 1 881 21
	mov	r9, #0
	b	.L262
.L271:
	.loc 1 876 21
	mov	r9, r5
	.loc 1 875 20
	movs	r5, #0
.LVL124:
	b	.L262
.LVL125:
.L263:
	.loc 1 901 7 is_stmt 1
	.loc 1 901 11 is_stmt 0
	str	r6, [sp]
	mov	r3, r7
	movs	r2, #0
	movs	r1, #32
	mov	r0, r4
	bl	USART_WaitOnFlagUntilTimeout
.LVL126:
	.loc 1 901 10
	cmp	r0, #0
	bne	.L273
	.loc 1 906 7 is_stmt 1
	.loc 1 906 10 is_stmt 0
	cbz	r5, .L278
	.loc 1 913 9 is_stmt 1
	.loc 1 913 41 is_stmt 0
	ldr	r3, [r4]
	.loc 1 913 51
	ldr	r2, [r3, #36]
	.loc 1 913 59
	uxtb	r3, r8
	.loc 1 913 25
	ands	r3, r3, r2
	.loc 1 913 23
	strb	r3, [r5], #1
.LVL127:
	.loc 1 914 9 is_stmt 1
.L265:
	.loc 1 917 7
	.loc 1 917 13 is_stmt 0
	ldrh	r2, [r4, #54]
	uxth	r2, r2
	.loc 1 917 26
	subs	r2, r2, #1
	uxth	r2, r2
	strh	r2, [r4, #54]	@ movhi
.LVL128:
.L262:
	.loc 1 885 32 is_stmt 1
	.loc 1 885 18 is_stmt 0
	ldrh	r3, [r4, #54]
	uxth	r3, r3
	.loc 1 885 32
	cbz	r3, .L279
	.loc 1 887 7 is_stmt 1
	.loc 1 887 17 is_stmt 0
	ldr	r3, [r4, #64]
	.loc 1 887 10
	cmp	r3, #0
	bne	.L263
	.loc 1 893 9 is_stmt 1
	.loc 1 893 13 is_stmt 0
	str	r6, [sp]
	mov	r3, r7
	movs	r2, #0
	movs	r1, #128
	mov	r0, r4
	bl	USART_WaitOnFlagUntilTimeout
.LVL129:
	.loc 1 893 12
	cbnz	r0, .L272
	.loc 1 897 9 is_stmt 1
	.loc 1 897 15 is_stmt 0
	ldr	r3, [r4]
	.loc 1 897 31
	movs	r2, #255
	str	r2, [r3, #40]
	b	.L263
.L278:
	.loc 1 908 9 is_stmt 1
	.loc 1 908 43 is_stmt 0
	ldr	r3, [r4]
	.loc 1 908 53
	ldr	r3, [r3, #36]
	.loc 1 908 26
	and	r3, r8, r3
	.loc 1 908 24
	strh	r3, [r9], #2	@ movhi
.LVL130:
	.loc 1 909 9 is_stmt 1
	b	.L265
.L279:
	.loc 1 922 5
	.loc 1 922 15 is_stmt 0
	ldr	r3, [r4, #64]
	.loc 1 922 8
	cmp	r3, #1
	beq	.L280
.L267:
	.loc 1 929 5 is_stmt 1
	.loc 1 929 19 is_stmt 0
	movs	r3, #1
	strb	r3, [r4, #89]
	.loc 1 932 5 is_stmt 1
	.loc 1 932 9
	.loc 1 932 24 is_stmt 0
	movs	r0, #0
	strb	r0, [r4, #88]
	.loc 1 932 7 is_stmt 1
	.loc 1 934 5
	.loc 1 934 12 is_stmt 0
	b	.L253
.L280:
	.loc 1 924 7 is_stmt 1
	.loc 1 924 18 is_stmt 0
	ldr	r3, [r4]
	.loc 1 924 34
	mov	r2, #8192
	str	r2, [r3, #32]
	.loc 1 925 7 is_stmt 1
	.loc 1 925 16 is_stmt 0
	ldr	r2, [r4]
	.loc 1 925 26
	ldr	r3, [r2, #24]
	.loc 1 925 32
	orr	r3, r3, #16
	str	r3, [r2, #24]
	b	.L267
.LVL131:
.L268:
	.loc 1 938 12
	movs	r0, #2
.LVL132:
.L253:
	.loc 1 940 1
	add	sp, sp, #12
	.cfi_remember_state
	.cfi_def_cfa_offset 28
	@ sp needed
	pop	{r4, r5, r6, r7, r8, r9, pc}
.LVL133:
.L269:
	.cfi_restore_state
	.loc 1 857 51
	movs	r0, #2
	b	.L253
.LVL134:
.L272:
	.loc 1 895 18
	movs	r0, #3
	b	.L253
.L273:
	.loc 1 903 16
	movs	r0, #3
	b	.L253
	.cfi_endproc
.LFE340:
	.size	HAL_USART_Receive, .-HAL_USART_Receive
	.section	.text.HAL_USART_TransmitReceive,"ax",%progbits
	.align	1
	.global	HAL_USART_TransmitReceive
	.syntax unified
	.thumb
	.thumb_func
	.type	HAL_USART_TransmitReceive, %function
HAL_USART_TransmitReceive:
.LFB341:
	.loc 1 956 1 is_stmt 1
	.cfi_startproc
	@ args = 4, pretend = 0, frame = 0
	@ frame_needed = 0, uses_anonymous_args = 0
.LVL135:
	push	{r4, r5, r6, r7, r8, r9, r10, fp, lr}
	.cfi_def_cfa_offset 36
	.cfi_offset 4, -36
	.cfi_offset 5, -32
	.cfi_offset 6, -28
	.cfi_offset 7, -24
	.cfi_offset 8, -20
	.cfi_offset 9, -16
	.cfi_offset 10, -12
	.cfi_offset 11, -8
	.cfi_offset 14, -4
	sub	sp, sp, #12
	.cfi_def_cfa_offset 48
	mov	r4, r0
	ldr	r7, [sp, #48]
	.loc 1 957 3
	.loc 1 958 3
	.loc 1 959 3
	.loc 1 960 3
	.loc 1 961 3
	.loc 1 962 3
	.loc 1 963 3
	.loc 1 965 3
	.loc 1 965 13 is_stmt 0
	ldrb	r0, [r0, #89]	@ zero_extendqisi2
.LVL136:
	uxtb	r0, r0
	.loc 1 965 6
	cmp	r0, #1
	bne	.L303
	mov	r5, r1
	mov	r6, r2
	mov	r9, r3
	.loc 1 967 5 is_stmt 1
	.loc 1 967 8 is_stmt 0
	cmp	r2, #0
	it	ne
	cmpne	r1, #0
	beq	.L282
	.loc 1 967 47 discriminator 1
	cmp	r3, #0
	beq	.L282
	.loc 1 973 5 is_stmt 1
	.loc 1 973 9
	.loc 1 973 20 is_stmt 0
	ldrb	r3, [r4, #88]	@ zero_extendqisi2
.LVL137:
	.loc 1 973 11
	cmp	r3, #1
	beq	.L304
	.loc 1 973 70 is_stmt 1 discriminator 2
	.loc 1 973 85 is_stmt 0 discriminator 2
	movs	r3, #1
	strb	r3, [r4, #88]
	.loc 1 973 7 is_stmt 1 discriminator 2
	.loc 1 975 5 discriminator 2
	.loc 1 975 23 is_stmt 0 discriminator 2
	movs	r3, #0
	str	r3, [r4, #92]
	.loc 1 976 5 is_stmt 1 discriminator 2
	.loc 1 976 19 is_stmt 0 discriminator 2
	movs	r3, #34
	strb	r3, [r4, #89]
	.loc 1 979 5 is_stmt 1 discriminator 2
	.loc 1 979 17 is_stmt 0 discriminator 2
	bl	HAL_GetTick
.LVL138:
	mov	r8, r0
.LVL139:
	.loc 1 981 5 is_stmt 1 discriminator 2
	.loc 1 981 24 is_stmt 0 discriminator 2
	strh	r9, [r4, #52]	@ movhi
	.loc 1 982 5 is_stmt 1 discriminator 2
	.loc 1 982 24 is_stmt 0 discriminator 2
	strh	r9, [r4, #44]	@ movhi
	.loc 1 983 5 is_stmt 1 discriminator 2
	.loc 1 983 25 is_stmt 0 discriminator 2
	strh	r9, [r4, #46]	@ movhi
	.loc 1 984 5 is_stmt 1 discriminator 2
	.loc 1 984 25 is_stmt 0 discriminator 2
	strh	r9, [r4, #54]	@ movhi
	.loc 1 987 5 is_stmt 1 discriminator 2
	.loc 1 987 10 discriminator 2
	.loc 1 987 28 is_stmt 0 discriminator 2
	ldr	r3, [r4, #8]
	.loc 1 987 13 discriminator 2
	cmp	r3, #4096
	beq	.L311
	.loc 1 987 179 is_stmt 1 discriminator 2
	.loc 1 987 182 is_stmt 0 discriminator 2
	cbnz	r3, .L286
	.loc 1 987 229 is_stmt 1 discriminator 5
	.loc 1 987 247 is_stmt 0 discriminator 5
	ldr	r2, [r4, #16]
	.loc 1 987 232 discriminator 5
	cbnz	r2, .L287
	.loc 1 987 273 is_stmt 1 discriminator 7
	.loc 1 987 288 is_stmt 0 discriminator 7
	movs	r2, #255
	strh	r2, [r4, #56]	@ movhi
	b	.L285
.L311:
	.loc 1 987 65 is_stmt 1 discriminator 1
	.loc 1 987 83 is_stmt 0 discriminator 1
	ldr	r2, [r4, #16]
	.loc 1 987 68 discriminator 1
	cbnz	r2, .L284
	.loc 1 987 109 is_stmt 1 discriminator 3
	.loc 1 987 124 is_stmt 0 discriminator 3
	movw	r2, #511
	strh	r2, [r4, #56]	@ movhi
	b	.L285
.L284:
	.loc 1 987 144 is_stmt 1 discriminator 4
	.loc 1 987 159 is_stmt 0 discriminator 4
	movs	r2, #255
	strh	r2, [r4, #56]	@ movhi
	b	.L285
.L287:
	.loc 1 987 308 is_stmt 1 discriminator 8
	.loc 1 987 323 is_stmt 0 discriminator 8
	movs	r2, #127
	strh	r2, [r4, #56]	@ movhi
	b	.L285
.L286:
	.loc 1 987 343 is_stmt 1 discriminator 6
	.loc 1 987 346 is_stmt 0 discriminator 6
	cmp	r3, #268435456
	beq	.L312
	.loc 1 987 514 is_stmt 1 discriminator 10
	.loc 1 987 529 is_stmt 0 discriminator 10
	movs	r2, #0
	strh	r2, [r4, #56]	@ movhi
.L285:
	.loc 1 987 8 is_stmt 1 discriminator 13
	.loc 1 988 5 discriminator 13
	.loc 1 988 12 is_stmt 0 discriminator 13
	ldrh	r9, [r4, #56]
.LVL140:
	.loc 1 991 5 is_stmt 1 discriminator 13
	.loc 1 991 8 is_stmt 0 discriminator 13
	cmp	r3, #4096
	beq	.L313
	.loc 1 1002 21
	mov	r10, #0
	.loc 1 1003 21
	mov	fp, r10
.LVL141:
.L290:
	.loc 1 1006 5 is_stmt 1
	.loc 1 1006 16 is_stmt 0
	ldrh	r3, [r4, #46]
	uxth	r3, r3
	.loc 1 1006 8
	cmp	r3, #1
	beq	.L291
	.loc 1 1006 50 discriminator 1
	ldr	r3, [r4, #64]
	.loc 1 1006 40 discriminator 1
	cmp	r3, #1
	beq	.L291
.LVL142:
.L292:
	.loc 1 1029 5 is_stmt 1
	.loc 1 1029 17 is_stmt 0
	ldrh	r3, [r4, #54]
	uxth	r2, r3
.LVL143:
	.loc 1 1030 5 is_stmt 1
	.loc 1 1030 11 is_stmt 0
	b	.L295
.LVL144:
.L312:
	.loc 1 987 398 is_stmt 1 discriminator 9
	.loc 1 987 416 is_stmt 0 discriminator 9
	ldr	r2, [r4, #16]
	.loc 1 987 401 discriminator 9
	cbnz	r2, .L289
	.loc 1 987 442 is_stmt 1 discriminator 11
	.loc 1 987 457 is_stmt 0 discriminator 11
	movs	r2, #127
	strh	r2, [r4, #56]	@ movhi
	b	.L285
.L289:
	.loc 1 987 477 is_stmt 1 discriminator 12
	.loc 1 987 492 is_stmt 0 discriminator 12
	movs	r2, #63
	strh	r2, [r4, #56]	@ movhi
	b	.L285
.LVL145:
.L313:
	.loc 1 991 73 discriminator 1
	ldr	r3, [r4, #16]
	.loc 1 991 57 discriminator 1
	cbz	r3, .L306
	.loc 1 1002 21
	mov	r10, #0
	.loc 1 1003 21
	mov	fp, r10
	b	.L290
.L306:
	.loc 1 995 21
	mov	r10, r5
	.loc 1 996 21
	mov	fp, r6
	.loc 1 994 20
	movs	r5, #0
.LVL146:
	.loc 1 993 20
	mov	r6, r5
.LVL147:
	b	.L290
.LVL148:
.L291:
	.loc 1 1009 7 is_stmt 1
	.loc 1 1009 11 is_stmt 0
	str	r7, [sp]
	mov	r3, r8
	movs	r2, #0
	movs	r1, #128
	mov	r0, r4
.LVL149:
	bl	USART_WaitOnFlagUntilTimeout
.LVL150:
	.loc 1 1009 10
	cmp	r0, #0
	bne	.L307
	.loc 1 1013 7 is_stmt 1
	.loc 1 1013 10 is_stmt 0
	cbz	r5, .L314
	.loc 1 1020 9 is_stmt 1
	.loc 1 1020 43 is_stmt 0
	ldrb	r3, [r5], #1	@ zero_extendqisi2
.LVL151:
	.loc 1 1020 15
	ldr	r2, [r4]
	.loc 1 1020 33
	and	r3, r9, r3
	.loc 1 1020 31
	str	r3, [r2, #40]
	.loc 1 1021 9 is_stmt 1
.LVL152:
.L294:
	.loc 1 1024 7
	.loc 1 1024 13 is_stmt 0
	ldrh	r3, [r4, #46]
	uxth	r3, r3
	.loc 1 1024 26
	subs	r3, r3, #1
	uxth	r3, r3
	strh	r3, [r4, #46]	@ movhi
	b	.L292
.L314:
	.loc 1 1015 9 is_stmt 1
	.loc 1 1015 44 is_stmt 0
	ldrh	r3, [r10], #2
.LVL153:
	.loc 1 1015 15
	ldr	r2, [r4]
	.loc 1 1015 33
	and	r3, r3, r9
	.loc 1 1015 31
	str	r3, [r2, #40]
	.loc 1 1016 9 is_stmt 1
.LVL154:
	b	.L294
.LVL155:
.L302:
	.loc 1 1032 7
	.loc 1 1032 17 is_stmt 0
	ldrh	r3, [r4, #46]
	uxth	r3, r3
	.loc 1 1032 10
	cbnz	r3, .L315
.LVL156:
.L296:
	.loc 1 1053 7 is_stmt 1
	.loc 1 1053 17 is_stmt 0
	ldrh	r3, [r4, #54]
	uxth	r3, r3
	.loc 1 1053 10
	cbnz	r3, .L316
.L299:
	.loc 1 1074 7 is_stmt 1
	.loc 1 1074 19 is_stmt 0
	ldrh	r3, [r4, #54]
	uxth	r2, r3
.LVL157:
.L295:
	.loc 1 1030 39 is_stmt 1
	.loc 1 1030 19 is_stmt 0
	ldrh	r3, [r4, #46]
	uxth	r3, r3
	.loc 1 1030 39
	cmp	r3, #0
	bne	.L302
	.loc 1 1030 39 discriminator 1
	cmp	r2, #0
	bne	.L302
	.loc 1 1078 5 is_stmt 1
	.loc 1 1078 19 is_stmt 0
	movs	r3, #1
	strb	r3, [r4, #89]
	.loc 1 1081 5 is_stmt 1
	.loc 1 1081 9
	.loc 1 1081 24 is_stmt 0
	movs	r0, #0
	strb	r0, [r4, #88]
	.loc 1 1081 7 is_stmt 1
	.loc 1 1083 5
	.loc 1 1083 12 is_stmt 0
	b	.L282
.L315:
	.loc 1 1035 9 is_stmt 1
	.loc 1 1035 13 is_stmt 0
	str	r7, [sp]
	mov	r3, r8
	movs	r2, #0
.LVL158:
	movs	r1, #128
	mov	r0, r4
	bl	USART_WaitOnFlagUntilTimeout
.LVL159:
	.loc 1 1035 12
	cmp	r0, #0
	bne	.L308
	.loc 1 1039 9 is_stmt 1
	.loc 1 1039 12 is_stmt 0
	cbz	r5, .L317
	.loc 1 1046 11 is_stmt 1
	.loc 1 1046 45 is_stmt 0
	ldrb	r3, [r5], #1	@ zero_extendqisi2
.LVL160:
	.loc 1 1046 17
	ldr	r2, [r4]
	.loc 1 1046 35
	and	r3, r9, r3
	.loc 1 1046 33
	str	r3, [r2, #40]
	.loc 1 1047 11 is_stmt 1
.LVL161:
.L298:
	.loc 1 1050 9
	.loc 1 1050 15 is_stmt 0
	ldrh	r3, [r4, #46]
	uxth	r3, r3
	.loc 1 1050 28
	subs	r3, r3, #1
	uxth	r3, r3
	strh	r3, [r4, #46]	@ movhi
	b	.L296
.L317:
	.loc 1 1041 11 is_stmt 1
	.loc 1 1041 46 is_stmt 0
	ldrh	r3, [r10], #2
.LVL162:
	.loc 1 1041 17
	ldr	r2, [r4]
	.loc 1 1041 35
	and	r3, r3, r9
	.loc 1 1041 33
	str	r3, [r2, #40]
	.loc 1 1042 11 is_stmt 1
.LVL163:
	b	.L298
.L316:
	.loc 1 1056 9
	.loc 1 1056 13 is_stmt 0
	str	r7, [sp]
	mov	r3, r8
	movs	r2, #0
	movs	r1, #32
	mov	r0, r4
	bl	USART_WaitOnFlagUntilTimeout
.LVL164:
	.loc 1 1056 12
	cbnz	r0, .L309
	.loc 1 1061 9 is_stmt 1
	.loc 1 1061 12 is_stmt 0
	cbz	r6, .L318
	.loc 1 1068 11 is_stmt 1
	.loc 1 1068 43 is_stmt 0
	ldr	r3, [r4]
	.loc 1 1068 53
	ldr	r2, [r3, #36]
	.loc 1 1068 61
	uxtb	r3, r9
	.loc 1 1068 27
	ands	r3, r3, r2
	.loc 1 1068 25
	strb	r3, [r6], #1
.LVL165:
	.loc 1 1069 11 is_stmt 1
.L301:
	.loc 1 1072 9
	.loc 1 1072 15 is_stmt 0
	ldrh	r3, [r4, #54]
	uxth	r3, r3
	.loc 1 1072 28
	subs	r3, r3, #1
	uxth	r3, r3
	strh	r3, [r4, #54]	@ movhi
	b	.L299
.L318:
	.loc 1 1063 11 is_stmt 1
	.loc 1 1063 45 is_stmt 0
	ldr	r3, [r4]
	.loc 1 1063 55
	ldr	r3, [r3, #36]
	.loc 1 1063 28
	and	r3, r9, r3
	.loc 1 1063 26
	strh	r3, [fp], #2	@ movhi
.LVL166:
	.loc 1 1064 11 is_stmt 1
	b	.L301
.LVL167:
.L303:
	.loc 1 1087 12 is_stmt 0
	movs	r0, #2
.LVL168:
.L282:
	.loc 1 1089 1
	add	sp, sp, #12
	.cfi_remember_state
	.cfi_def_cfa_offset 36
	@ sp needed
	pop	{r4, r5, r6, r7, r8, r9, r10, fp, pc}
.LVL169:
.L304:
	.cfi_restore_state
	.loc 1 973 51
	movs	r0, #2
	b	.L282
.LVL170:
.L307:
	.loc 1 1011 16
	movs	r0, #3
	b	.L282
.LVL171:
.L308:
	.loc 1 1037 18
	movs	r0, #3
	b	.L282
.L309:
	.loc 1 1058 18
	movs	r0, #3
	b	.L282
	.cfi_endproc
.LFE341:
	.size	HAL_USART_TransmitReceive, .-HAL_USART_TransmitReceive
	.section	.text.HAL_USART_Transmit_IT,"ax",%progbits
	.align	1
	.global	HAL_USART_Transmit_IT
	.syntax unified
	.thumb
	.thumb_func
	.type	HAL_USART_Transmit_IT, %function
HAL_USART_Transmit_IT:
.LFB342:
	.loc 1 1102 1 is_stmt 1
	.cfi_startproc
	@ args = 0, pretend = 0, frame = 0
	@ frame_needed = 0, uses_anonymous_args = 0
	@ link register save eliminated.
.LVL172:
	mov	r3, r0
	.loc 1 1103 3
	.loc 1 1103 13 is_stmt 0
	ldrb	r0, [r0, #89]	@ zero_extendqisi2
.LVL173:
	uxtb	r0, r0
	.loc 1 1103 6
	cmp	r0, #1
	bne	.L327
	.loc 1 1105 5 is_stmt 1
	.loc 1 1105 8 is_stmt 0
	cmp	r2, #0
	it	ne
	cmpne	r1, #0
	beq	.L320
	.loc 1 1111 5 is_stmt 1
	.loc 1 1111 9
	.loc 1 1111 20 is_stmt 0
	ldrb	r0, [r3, #88]	@ zero_extendqisi2
	.loc 1 1111 11
	cmp	r0, #1
	beq	.L328
	.loc 1 1111 70 is_stmt 1 discriminator 2
	.loc 1 1111 85 is_stmt 0 discriminator 2
	movs	r0, #1
	strb	r0, [r3, #88]
	.loc 1 1111 7 is_stmt 1 discriminator 2
	.loc 1 1113 5 discriminator 2
	.loc 1 1113 24 is_stmt 0 discriminator 2
	str	r1, [r3, #40]
	.loc 1 1114 5 is_stmt 1 discriminator 2
	.loc 1 1114 24 is_stmt 0 discriminator 2
	strh	r2, [r3, #44]	@ movhi
	.loc 1 1115 5 is_stmt 1 discriminator 2
	.loc 1 1115 25 is_stmt 0 discriminator 2
	strh	r2, [r3, #46]	@ movhi
	.loc 1 1116 5 is_stmt 1 discriminator 2
	.loc 1 1116 19 is_stmt 0 discriminator 2
	movs	r2, #0
.LVL174:
	str	r2, [r3, #76]
	.loc 1 1118 5 is_stmt 1 discriminator 2
	.loc 1 1118 23 is_stmt 0 discriminator 2
	str	r2, [r3, #92]
	.loc 1 1119 5 is_stmt 1 discriminator 2
	.loc 1 1119 19 is_stmt 0 discriminator 2
	movs	r2, #18
	strb	r2, [r3, #89]
	.loc 1 1128 5 is_stmt 1 discriminator 2
	.loc 1 1128 15 is_stmt 0 discriminator 2
	ldr	r2, [r3, #68]
	.loc 1 1128 8 discriminator 2
	cmp	r2, #536870912
	beq	.L329
	.loc 1 1149 7 is_stmt 1
	.loc 1 1149 24 is_stmt 0
	ldr	r2, [r3, #8]
	.loc 1 1149 10
	cmp	r2, #4096
	beq	.L330
.L325:
	.loc 1 1155 9 is_stmt 1
	.loc 1 1155 23 is_stmt 0
	ldr	r2, .L332
	str	r2, [r3, #76]
.L326:
	.loc 1 1159 7 is_stmt 1
	.loc 1 1159 11
	.loc 1 1159 26 is_stmt 0
	movs	r2, #0
	strb	r2, [r3, #88]
	.loc 1 1159 9 is_stmt 1
	.loc 1 1162 7
	.loc 1 1162 56 is_stmt 0
	ldr	r2, [r3]
	.loc 1 1162 66
	ldr	r3, [r2]
.LVL175:
	.loc 1 1162 72
	orr	r3, r3, #128
	.loc 1 1162 105
	str	r3, [r2]
.LVL176:
.L324:
	.loc 1 1165 5 is_stmt 1
	.loc 1 1165 12 is_stmt 0
	movs	r0, #0
	bx	lr
.LVL177:
.L329:
	.loc 1 1131 7 is_stmt 1
	.loc 1 1131 24 is_stmt 0
	ldr	r2, [r3, #8]
	.loc 1 1131 10
	cmp	r2, #4096
	beq	.L331
.L322:
	.loc 1 1137 9 is_stmt 1
	.loc 1 1137 23 is_stmt 0
	ldr	r2, .L332+4
	str	r2, [r3, #76]
.L323:
	.loc 1 1141 7 is_stmt 1
	.loc 1 1141 11
	.loc 1 1141 26 is_stmt 0
	movs	r2, #0
	strb	r2, [r3, #88]
	.loc 1 1141 9 is_stmt 1
	.loc 1 1144 7
	.loc 1 1144 215 is_stmt 0
	ldr	r2, [r3]
	.loc 1 1144 225
	ldr	r3, [r2, #8]
.LVL178:
	.loc 1 1144 231
	orr	r3, r3, #8388608
	.loc 1 1144 105
	str	r3, [r2, #8]
.LVL179:
	b	.L324
.LVL180:
.L331:
	.loc 1 1131 75 discriminator 1
	ldr	r2, [r3, #16]
	.loc 1 1131 59 discriminator 1
	cmp	r2, #0
	bne	.L322
	.loc 1 1133 9 is_stmt 1
	.loc 1 1133 23 is_stmt 0
	ldr	r2, .L332+8
	str	r2, [r3, #76]
	b	.L323
.L330:
	.loc 1 1149 75 discriminator 1
	ldr	r2, [r3, #16]
	.loc 1 1149 59 discriminator 1
	cmp	r2, #0
	bne	.L325
	.loc 1 1151 9 is_stmt 1
	.loc 1 1151 23 is_stmt 0
	ldr	r2, .L332+12
	str	r2, [r3, #76]
	b	.L326
.LVL181:
.L327:
	.loc 1 1169 12
	movs	r0, #2
	bx	lr
.L328:
	.loc 1 1111 51
	movs	r0, #2
.L320:
	.loc 1 1171 1
	bx	lr
.L333:
	.align	2
.L332:
	.word	USART_TxISR_8BIT
	.word	USART_TxISR_8BIT_FIFOEN
	.word	USART_TxISR_16BIT_FIFOEN
	.word	USART_TxISR_16BIT
	.cfi_endproc
.LFE342:
	.size	HAL_USART_Transmit_IT, .-HAL_USART_Transmit_IT
	.section	.text.HAL_USART_Receive_IT,"ax",%progbits
	.align	1
	.global	HAL_USART_Receive_IT
	.syntax unified
	.thumb
	.thumb_func
	.type	HAL_USART_Receive_IT, %function
HAL_USART_Receive_IT:
.LFB343:
	.loc 1 1185 1 is_stmt 1
	.cfi_startproc
	@ args = 0, pretend = 0, frame = 0
	@ frame_needed = 0, uses_anonymous_args = 0
	@ link register save eliminated.
.LVL182:
	mov	r3, r0
	.loc 1 1186 3
	.loc 1 1188 3
	.loc 1 1188 13 is_stmt 0
	ldrb	r0, [r0, #89]	@ zero_extendqisi2
.LVL183:
	uxtb	r0, r0
	.loc 1 1188 6
	cmp	r0, #1
	bne	.L355
	.loc 1 1190 5 is_stmt 1
	.loc 1 1190 8 is_stmt 0
	cmp	r2, #0
	it	ne
	cmpne	r1, #0
	beq	.L335
	.loc 1 1196 5 is_stmt 1
	.loc 1 1196 9
	.loc 1 1196 20 is_stmt 0
	ldrb	r0, [r3, #88]	@ zero_extendqisi2
	.loc 1 1196 11
	cmp	r0, #1
	beq	.L356
	.loc 1 1196 70 is_stmt 1 discriminator 2
	.loc 1 1196 85 is_stmt 0 discriminator 2
	movs	r0, #1
	strb	r0, [r3, #88]
	.loc 1 1196 7 is_stmt 1 discriminator 2
	.loc 1 1198 5 discriminator 2
	.loc 1 1198 24 is_stmt 0 discriminator 2
	str	r1, [r3, #48]
	.loc 1 1199 5 is_stmt 1 discriminator 2
	.loc 1 1199 24 is_stmt 0 discriminator 2
	strh	r2, [r3, #52]	@ movhi
	.loc 1 1200 5 is_stmt 1 discriminator 2
	.loc 1 1200 25 is_stmt 0 discriminator 2
	strh	r2, [r3, #54]	@ movhi
	.loc 1 1201 5 is_stmt 1 discriminator 2
	.loc 1 1201 19 is_stmt 0 discriminator 2
	movs	r1, #0
.LVL184:
	str	r1, [r3, #72]
	.loc 1 1203 5 is_stmt 1 discriminator 2
	.loc 1 1203 10 discriminator 2
	.loc 1 1203 28 is_stmt 0 discriminator 2
	ldr	r1, [r3, #8]
	.loc 1 1203 13 discriminator 2
	cmp	r1, #4096
	beq	.L357
	.loc 1 1203 179 is_stmt 1 discriminator 2
	.loc 1 1203 182 is_stmt 0 discriminator 2
	cbnz	r1, .L339
	.loc 1 1203 229 is_stmt 1 discriminator 5
	.loc 1 1203 247 is_stmt 0 discriminator 5
	ldr	r1, [r3, #16]
	.loc 1 1203 232 discriminator 5
	cbnz	r1, .L340
	.loc 1 1203 273 is_stmt 1 discriminator 7
	.loc 1 1203 288 is_stmt 0 discriminator 7
	movs	r1, #255
	strh	r1, [r3, #56]	@ movhi
	b	.L338
.L357:
	.loc 1 1203 65 is_stmt 1 discriminator 1
	.loc 1 1203 83 is_stmt 0 discriminator 1
	ldr	r1, [r3, #16]
	.loc 1 1203 68 discriminator 1
	cbnz	r1, .L337
	.loc 1 1203 109 is_stmt 1 discriminator 3
	.loc 1 1203 124 is_stmt 0 discriminator 3
	movw	r1, #511
	strh	r1, [r3, #56]	@ movhi
	b	.L338
.L337:
	.loc 1 1203 144 is_stmt 1 discriminator 4
	.loc 1 1203 159 is_stmt 0 discriminator 4
	movs	r1, #255
	strh	r1, [r3, #56]	@ movhi
	b	.L338
.L340:
	.loc 1 1203 308 is_stmt 1 discriminator 8
	.loc 1 1203 323 is_stmt 0 discriminator 8
	movs	r1, #127
	strh	r1, [r3, #56]	@ movhi
	b	.L338
.L339:
	.loc 1 1203 343 is_stmt 1 discriminator 6
	.loc 1 1203 346 is_stmt 0 discriminator 6
	cmp	r1, #268435456
	beq	.L358
	.loc 1 1203 514 is_stmt 1 discriminator 10
	.loc 1 1203 529 is_stmt 0 discriminator 10
	movs	r1, #0
	strh	r1, [r3, #56]	@ movhi
.L338:
	.loc 1 1203 8 is_stmt 1 discriminator 13
	.loc 1 1205 5 discriminator 13
	.loc 1 1205 23 is_stmt 0 discriminator 13
	movs	r1, #0
	str	r1, [r3, #92]
	.loc 1 1206 5 is_stmt 1 discriminator 13
	.loc 1 1206 19 is_stmt 0 discriminator 13
	movs	r1, #34
	strb	r1, [r3, #89]
	.loc 1 1209 5 is_stmt 1 discriminator 13
	.loc 1 1209 13 is_stmt 0 discriminator 13
	ldr	r0, [r3]
	.loc 1 1209 23 discriminator 13
	ldr	r1, [r0, #8]
	.loc 1 1209 30 discriminator 13
	orr	r1, r1, #1
	str	r1, [r0, #8]
.LVL185:
	.loc 1 1212 5 is_stmt 1 discriminator 13
	.loc 1 1212 16 is_stmt 0 discriminator 13
	ldr	r1, [r3, #68]
	.loc 1 1212 8 discriminator 13
	cmp	r1, #536870912
	beq	.L359
.L343:
	.loc 1 1237 7 is_stmt 1
	.loc 1 1237 24 is_stmt 0
	ldr	r1, [r3, #8]
	.loc 1 1237 10
	cmp	r1, #4096
	beq	.L360
.L348:
	.loc 1 1243 9 is_stmt 1
	.loc 1 1243 23 is_stmt 0
	ldr	r1, .L363
	str	r1, [r3, #72]
.L349:
	.loc 1 1247 7 is_stmt 1
	.loc 1 1247 11
	.loc 1 1247 26 is_stmt 0
	movs	r1, #0
	strb	r1, [r3, #88]
	.loc 1 1247 9 is_stmt 1
	.loc 1 1250 7
	.loc 1 1250 23 is_stmt 0
	ldr	r1, [r3, #16]
	.loc 1 1250 10
	cmp	r1, #0
	beq	.L350
	.loc 1 1252 9 is_stmt 1
	.loc 1 1252 17 is_stmt 0
	ldr	r0, [r3]
	.loc 1 1252 27
	ldr	r1, [r0]
	.loc 1 1252 34
	orr	r1, r1, #288
	str	r1, [r0]
.L347:
	.loc 1 1260 5 is_stmt 1
	.loc 1 1260 15 is_stmt 0
	ldr	r1, [r3, #64]
	.loc 1 1260 8
	cbnz	r1, .L351
	.loc 1 1266 7 is_stmt 1
	.loc 1 1266 18 is_stmt 0
	ldr	r1, [r3, #68]
	.loc 1 1266 10
	cmp	r1, #536870912
	beq	.L361
.L352:
	.loc 1 1275 9 is_stmt 1
	.loc 1 1275 15 is_stmt 0
	ldr	r3, [r3]
.LVL186:
	.loc 1 1275 31
	movs	r2, #255
.LVL187:
	str	r2, [r3, #40]
.L351:
	.loc 1 1279 5 is_stmt 1
	.loc 1 1279 12 is_stmt 0
	movs	r0, #0
	bx	lr
.LVL188:
.L358:
	.loc 1 1203 398 is_stmt 1 discriminator 9
	.loc 1 1203 416 is_stmt 0 discriminator 9
	ldr	r1, [r3, #16]
	.loc 1 1203 401 discriminator 9
	cbnz	r1, .L342
	.loc 1 1203 442 is_stmt 1 discriminator 11
	.loc 1 1203 457 is_stmt 0 discriminator 11
	movs	r1, #127
	strh	r1, [r3, #56]	@ movhi
	b	.L338
.L342:
	.loc 1 1203 477 is_stmt 1 discriminator 12
	.loc 1 1203 492 is_stmt 0 discriminator 12
	movs	r1, #63
	strh	r1, [r3, #56]	@ movhi
	b	.L338
.LVL189:
.L359:
	.loc 1 1212 66 discriminator 1
	ldrh	r1, [r3, #58]
	.loc 1 1212 48 discriminator 1
	cmp	r1, r2
	bhi	.L343
	.loc 1 1215 7 is_stmt 1
	.loc 1 1215 24 is_stmt 0
	ldr	r1, [r3, #8]
	.loc 1 1215 10
	cmp	r1, #4096
	beq	.L362
.L344:
	.loc 1 1221 9 is_stmt 1
	.loc 1 1221 23 is_stmt 0
	ldr	r1, .L363+4
	str	r1, [r3, #72]
.L345:
	.loc 1 1225 7 is_stmt 1
	.loc 1 1225 11
	.loc 1 1225 26 is_stmt 0
	movs	r1, #0
	strb	r1, [r3, #88]
	.loc 1 1225 9 is_stmt 1
	.loc 1 1228 7
	.loc 1 1228 23 is_stmt 0
	ldr	r1, [r3, #16]
	.loc 1 1228 10
	cbz	r1, .L346
	.loc 1 1230 9 is_stmt 1
	.loc 1 1230 17 is_stmt 0
	ldr	r0, [r3]
	.loc 1 1230 27
	ldr	r1, [r0]
	.loc 1 1230 34
	orr	r1, r1, #256
	str	r1, [r0]
.L346:
	.loc 1 1232 7 is_stmt 1
	.loc 1 1232 15 is_stmt 0
	ldr	r0, [r3]
	.loc 1 1232 25
	ldr	r1, [r0, #8]
	.loc 1 1232 32
	orr	r1, r1, #268435456
	str	r1, [r0, #8]
	b	.L347
.L362:
	.loc 1 1215 75 discriminator 1
	ldr	r1, [r3, #16]
	.loc 1 1215 59 discriminator 1
	cmp	r1, #0
	bne	.L344
	.loc 1 1217 9 is_stmt 1
	.loc 1 1217 23 is_stmt 0
	ldr	r1, .L363+8
	str	r1, [r3, #72]
	b	.L345
.L360:
	.loc 1 1237 75 discriminator 1
	ldr	r1, [r3, #16]
	.loc 1 1237 59 discriminator 1
	cmp	r1, #0
	bne	.L348
	.loc 1 1239 9 is_stmt 1
	.loc 1 1239 23 is_stmt 0
	ldr	r1, .L363+12
	str	r1, [r3, #72]
	b	.L349
.L350:
	.loc 1 1256 9 is_stmt 1
	.loc 1 1256 17 is_stmt 0
	ldr	r0, [r3]
	.loc 1 1256 27
	ldr	r1, [r0]
	.loc 1 1256 34
	orr	r1, r1, #32
	str	r1, [r0]
	b	.L347
.L361:
	.loc 1 1266 68 discriminator 1
	ldrh	r1, [r3, #58]
	.loc 1 1266 50 discriminator 1
	cmp	r1, r2
	bls	.L353
	b	.L352
.LVL190:
.L354:
	.loc 1 1270 11 is_stmt 1 discriminator 3
	.loc 1 1270 17 is_stmt 0 discriminator 3
	ldr	r2, [r3]
	.loc 1 1270 33 discriminator 3
	movs	r0, #255
	str	r0, [r2, #40]
	.loc 1 1268 92 is_stmt 1 discriminator 3
	subs	r1, r1, #1
.LVL191:
	uxth	r1, r1
.LVL192:
.L353:
	.loc 1 1268 72 discriminator 1
	cmp	r1, #0
	bne	.L354
	b	.L351
.LVL193:
.L355:
	.loc 1 1283 12 is_stmt 0
	movs	r0, #2
	bx	lr
.L356:
	.loc 1 1196 51
	movs	r0, #2
.L335:
	.loc 1 1285 1
	bx	lr
.L364:
	.align	2
.L363:
	.word	USART_RxISR_8BIT
	.word	USART_RxISR_8BIT_FIFOEN
	.word	USART_RxISR_16BIT_FIFOEN
	.word	USART_RxISR_16BIT
	.cfi_endproc
.LFE343:
	.size	HAL_USART_Receive_IT, .-HAL_USART_Receive_IT
	.section	.text.HAL_USART_TransmitReceive_IT,"ax",%progbits
	.align	1
	.global	HAL_USART_TransmitReceive_IT
	.syntax unified
	.thumb
	.thumb_func
	.type	HAL_USART_TransmitReceive_IT, %function
HAL_USART_TransmitReceive_IT:
.LFB344:
	.loc 1 1300 1 is_stmt 1
	.cfi_startproc
	@ args = 0, pretend = 0, frame = 0
	@ frame_needed = 0, uses_anonymous_args = 0
	@ link register save eliminated.
.LVL194:
	mov	ip, r0
	.loc 1 1302 3
	.loc 1 1302 13 is_stmt 0
	ldrb	r0, [r0, #89]	@ zero_extendqisi2
.LVL195:
	uxtb	r0, r0
	.loc 1 1302 6
	cmp	r0, #1
	bne	.L383
	.loc 1 1304 5 is_stmt 1
	.loc 1 1304 8 is_stmt 0
	cmp	r2, #0
	it	ne
	cmpne	r1, #0
	beq	.L366
	.loc 1 1304 47 discriminator 1
	cmp	r3, #0
	beq	.L366
	.loc 1 1310 5 is_stmt 1
	.loc 1 1310 9
	.loc 1 1310 20 is_stmt 0
	ldrb	r0, [ip, #88]	@ zero_extendqisi2
	.loc 1 1310 11
	cmp	r0, #1
	beq	.L384
	.loc 1 1310 70 is_stmt 1 discriminator 2
	.loc 1 1310 85 is_stmt 0 discriminator 2
	movs	r0, #1
	strb	r0, [ip, #88]
	.loc 1 1310 7 is_stmt 1 discriminator 2
	.loc 1 1312 5 discriminator 2
	.loc 1 1312 24 is_stmt 0 discriminator 2
	str	r2, [ip, #48]
	.loc 1 1313 5 is_stmt 1 discriminator 2
	.loc 1 1313 24 is_stmt 0 discriminator 2
	strh	r3, [ip, #52]	@ movhi
	.loc 1 1314 5 is_stmt 1 discriminator 2
	.loc 1 1314 25 is_stmt 0 discriminator 2
	strh	r3, [ip, #54]	@ movhi
	.loc 1 1315 5 is_stmt 1 discriminator 2
	.loc 1 1315 24 is_stmt 0 discriminator 2
	str	r1, [ip, #40]
	.loc 1 1316 5 is_stmt 1 discriminator 2
	.loc 1 1316 24 is_stmt 0 discriminator 2
	strh	r3, [ip, #44]	@ movhi
	.loc 1 1317 5 is_stmt 1 discriminator 2
	.loc 1 1317 25 is_stmt 0 discriminator 2
	strh	r3, [ip, #46]	@ movhi
	.loc 1 1320 5 is_stmt 1 discriminator 2
	.loc 1 1320 10 discriminator 2
	.loc 1 1320 28 is_stmt 0 discriminator 2
	ldr	r2, [ip, #8]
.LVL196:
	.loc 1 1320 13 discriminator 2
	cmp	r2, #4096
	beq	.L385
	.loc 1 1320 179 is_stmt 1 discriminator 2
	.loc 1 1320 182 is_stmt 0 discriminator 2
	cbnz	r2, .L370
	.loc 1 1320 229 is_stmt 1 discriminator 5
	.loc 1 1320 247 is_stmt 0 discriminator 5
	ldr	r1, [ip, #16]
.LVL197:
	.loc 1 1320 232 discriminator 5
	cbnz	r1, .L371
	.loc 1 1320 273 is_stmt 1 discriminator 7
	.loc 1 1320 288 is_stmt 0 discriminator 7
	movs	r1, #255
	strh	r1, [ip, #56]	@ movhi
	b	.L369
.LVL198:
.L385:
	.loc 1 1320 65 is_stmt 1 discriminator 1
	.loc 1 1320 83 is_stmt 0 discriminator 1
	ldr	r1, [ip, #16]
.LVL199:
	.loc 1 1320 68 discriminator 1
	cbnz	r1, .L368
	.loc 1 1320 109 is_stmt 1 discriminator 3
	.loc 1 1320 124 is_stmt 0 discriminator 3
	movw	r1, #511
	strh	r1, [ip, #56]	@ movhi
	b	.L369
.L368:
	.loc 1 1320 144 is_stmt 1 discriminator 4
	.loc 1 1320 159 is_stmt 0 discriminator 4
	movs	r1, #255
	strh	r1, [ip, #56]	@ movhi
	b	.L369
.L371:
	.loc 1 1320 308 is_stmt 1 discriminator 8
	.loc 1 1320 323 is_stmt 0 discriminator 8
	movs	r1, #127
	strh	r1, [ip, #56]	@ movhi
	b	.L369
.LVL200:
.L370:
	.loc 1 1320 343 is_stmt 1 discriminator 6
	.loc 1 1320 346 is_stmt 0 discriminator 6
	cmp	r2, #268435456
	beq	.L386
	.loc 1 1320 514 is_stmt 1 discriminator 10
	.loc 1 1320 529 is_stmt 0 discriminator 10
	movs	r1, #0
.LVL201:
	strh	r1, [ip, #56]	@ movhi
.L369:
	.loc 1 1320 8 is_stmt 1 discriminator 13
	.loc 1 1322 5 discriminator 13
	.loc 1 1322 23 is_stmt 0 discriminator 13
	movs	r1, #0
	str	r1, [ip, #92]
	.loc 1 1323 5 is_stmt 1 discriminator 13
	.loc 1 1323 19 is_stmt 0 discriminator 13
	movs	r1, #50
	strb	r1, [ip, #89]
	.loc 1 1326 5 is_stmt 1 discriminator 13
	.loc 1 1326 16 is_stmt 0 discriminator 13
	ldr	r1, [ip, #68]
	.loc 1 1326 8 discriminator 13
	cmp	r1, #536870912
	beq	.L387
.L374:
	.loc 1 1357 7 is_stmt 1
	.loc 1 1357 10 is_stmt 0
	cmp	r2, #4096
	beq	.L388
.LVL202:
.L379:
	.loc 1 1364 9 is_stmt 1
	.loc 1 1364 23 is_stmt 0
	ldr	r3, .L390
	str	r3, [ip, #76]
	.loc 1 1365 9 is_stmt 1
	.loc 1 1365 23 is_stmt 0
	ldr	r3, .L390+4
	str	r3, [ip, #72]
.L380:
	.loc 1 1369 7 is_stmt 1
	.loc 1 1369 11
	.loc 1 1369 26 is_stmt 0
	movs	r3, #0
	strb	r3, [ip, #88]
	.loc 1 1369 9 is_stmt 1
	.loc 1 1372 7
	.loc 1 1372 15 is_stmt 0
	ldr	r2, [ip]
	.loc 1 1372 25
	ldr	r3, [r2, #8]
	.loc 1 1372 32
	orr	r3, r3, #1
	str	r3, [r2, #8]
.LVL203:
	.loc 1 1375 7 is_stmt 1
	.loc 1 1375 23 is_stmt 0
	ldr	r3, [ip, #16]
	.loc 1 1375 10
	cmp	r3, #0
	beq	.L381
	.loc 1 1377 9 is_stmt 1
	.loc 1 1377 17 is_stmt 0
	ldr	r2, [ip]
	.loc 1 1377 27
	ldr	r3, [r2]
	.loc 1 1377 34
	orr	r3, r3, #288
	str	r3, [r2]
.L382:
	.loc 1 1385 7 is_stmt 1
	.loc 1 1385 15 is_stmt 0
	ldr	r2, [ip]
	.loc 1 1385 25
	ldr	r3, [r2]
	.loc 1 1385 32
	orr	r3, r3, #128
	str	r3, [r2]
.L378:
	.loc 1 1388 5 is_stmt 1
	.loc 1 1388 12 is_stmt 0
	movs	r0, #0
	bx	lr
.LVL204:
.L386:
	.loc 1 1320 398 is_stmt 1 discriminator 9
	.loc 1 1320 416 is_stmt 0 discriminator 9
	ldr	r1, [ip, #16]
.LVL205:
	.loc 1 1320 401 discriminator 9
	cbnz	r1, .L373
	.loc 1 1320 442 is_stmt 1 discriminator 11
	.loc 1 1320 457 is_stmt 0 discriminator 11
	movs	r1, #127
	strh	r1, [ip, #56]	@ movhi
	b	.L369
.L373:
	.loc 1 1320 477 is_stmt 1 discriminator 12
	.loc 1 1320 492 is_stmt 0 discriminator 12
	movs	r1, #63
	strh	r1, [ip, #56]	@ movhi
	b	.L369
.L387:
	.loc 1 1326 66 discriminator 1
	ldrh	r1, [ip, #58]
	.loc 1 1326 48 discriminator 1
	cmp	r1, r3
	bhi	.L374
	.loc 1 1329 7 is_stmt 1
	.loc 1 1329 10 is_stmt 0
	cmp	r2, #4096
	beq	.L389
.LVL206:
.L375:
	.loc 1 1336 9 is_stmt 1
	.loc 1 1336 23 is_stmt 0
	ldr	r3, .L390+8
	str	r3, [ip, #76]
	.loc 1 1337 9 is_stmt 1
	.loc 1 1337 23 is_stmt 0
	ldr	r3, .L390+12
	str	r3, [ip, #72]
.L376:
	.loc 1 1341 7 is_stmt 1
	.loc 1 1341 11
	.loc 1 1341 26 is_stmt 0
	movs	r3, #0
	strb	r3, [ip, #88]
	.loc 1 1341 9 is_stmt 1
	.loc 1 1344 7
	.loc 1 1344 15 is_stmt 0
	ldr	r2, [ip]
	.loc 1 1344 25
	ldr	r3, [r2, #8]
	.loc 1 1344 32
	orr	r3, r3, #1
	str	r3, [r2, #8]
.LVL207:
	.loc 1 1346 7 is_stmt 1
	.loc 1 1346 23 is_stmt 0
	ldr	r3, [ip, #16]
	.loc 1 1346 10
	cbz	r3, .L377
	.loc 1 1349 9 is_stmt 1
	.loc 1 1349 17 is_stmt 0
	ldr	r2, [ip]
	.loc 1 1349 27
	ldr	r3, [r2]
	.loc 1 1349 34
	orr	r3, r3, #256
	str	r3, [r2]
.L377:
	.loc 1 1353 7 is_stmt 1
	.loc 1 1353 15 is_stmt 0
	ldr	r2, [ip]
	.loc 1 1353 25
	ldr	r3, [r2, #8]
	.loc 1 1353 32
	orr	r3, r3, #276824064
	str	r3, [r2, #8]
	b	.L378
.LVL208:
.L389:
	.loc 1 1329 75 discriminator 1
	ldr	r3, [ip, #16]
.LVL209:
	.loc 1 1329 59 discriminator 1
	cmp	r3, #0
	bne	.L375
	.loc 1 1331 9 is_stmt 1
	.loc 1 1331 23 is_stmt 0
	ldr	r3, .L390+16
	str	r3, [ip, #76]
	.loc 1 1332 9 is_stmt 1
	.loc 1 1332 23 is_stmt 0
	ldr	r3, .L390+20
	str	r3, [ip, #72]
	b	.L376
.LVL210:
.L388:
	.loc 1 1357 75 discriminator 1
	ldr	r3, [ip, #16]
.LVL211:
	.loc 1 1357 59 discriminator 1
	cmp	r3, #0
	bne	.L379
	.loc 1 1359 9 is_stmt 1
	.loc 1 1359 23 is_stmt 0
	ldr	r3, .L390+24
	str	r3, [ip, #76]
	.loc 1 1360 9 is_stmt 1
	.loc 1 1360 23 is_stmt 0
	ldr	r3, .L390+28
	str	r3, [ip, #72]
	b	.L380
.LVL212:
.L381:
	.loc 1 1381 9 is_stmt 1
	.loc 1 1381 17 is_stmt 0
	ldr	r2, [ip]
	.loc 1 1381 27
	ldr	r3, [r2]
	.loc 1 1381 34
	orr	r3, r3, #32
	str	r3, [r2]
	b	.L382
.LVL213:
.L383:
	.loc 1 1392 12
	movs	r0, #2
	bx	lr
.L384:
	.loc 1 1310 51
	movs	r0, #2
.L366:
	.loc 1 1394 1
	bx	lr
.L391:
	.align	2
.L390:
	.word	USART_TxISR_8BIT
	.word	USART_RxISR_8BIT
	.word	USART_TxISR_8BIT_FIFOEN
	.word	USART_RxISR_8BIT_FIFOEN
	.word	USART_TxISR_16BIT_FIFOEN
	.word	USART_RxISR_16BIT_FIFOEN
	.word	USART_TxISR_16BIT
	.word	USART_RxISR_16BIT
	.cfi_endproc
.LFE344:
	.size	HAL_USART_TransmitReceive_IT, .-HAL_USART_TransmitReceive_IT
	.section	.text.HAL_USART_Transmit_DMA,"ax",%progbits
	.align	1
	.global	HAL_USART_Transmit_DMA
	.syntax unified
	.thumb
	.thumb_func
	.type	HAL_USART_Transmit_DMA, %function
HAL_USART_Transmit_DMA:
.LFB345:
	.loc 1 1407 1 is_stmt 1
	.cfi_startproc
	@ args = 0, pretend = 0, frame = 0
	@ frame_needed = 0, uses_anonymous_args = 0
.LVL214:
	push	{r3, r4, r5, lr}
	.cfi_def_cfa_offset 16
	.cfi_offset 3, -16
	.cfi_offset 4, -12
	.cfi_offset 5, -8
	.cfi_offset 14, -4
	.loc 1 1408 3
.LVL215:
	.loc 1 1409 3
	.loc 1 1411 3
	.loc 1 1411 13 is_stmt 0
	ldrb	r5, [r0, #89]	@ zero_extendqisi2
	uxtb	r5, r5
	.loc 1 1411 6
	cmp	r5, #1
	bne	.L396
	mov	r4, r0
	mov	r3, r2
	.loc 1 1413 5 is_stmt 1
	.loc 1 1413 8 is_stmt 0
	cmp	r2, #0
	it	ne
	cmpne	r1, #0
	beq	.L393
	.loc 1 1419 5 is_stmt 1
	.loc 1 1419 9
	.loc 1 1419 20 is_stmt 0
	ldrb	r2, [r0, #88]	@ zero_extendqisi2
.LVL216:
	.loc 1 1419 11
	cmp	r2, #1
	beq	.L397
	.loc 1 1419 70 is_stmt 1 discriminator 2
	.loc 1 1419 85 is_stmt 0 discriminator 2
	movs	r2, #1
	strb	r2, [r0, #88]
	.loc 1 1419 7 is_stmt 1 discriminator 2
	.loc 1 1421 5 discriminator 2
	.loc 1 1421 24 is_stmt 0 discriminator 2
	str	r1, [r0, #40]
	.loc 1 1422 5 is_stmt 1 discriminator 2
	.loc 1 1422 24 is_stmt 0 discriminator 2
	strh	r3, [r0, #44]	@ movhi
	.loc 1 1423 5 is_stmt 1 discriminator 2
	.loc 1 1423 25 is_stmt 0 discriminator 2
	strh	r3, [r0, #46]	@ movhi
	.loc 1 1425 5 is_stmt 1 discriminator 2
	.loc 1 1425 23 is_stmt 0 discriminator 2
	movs	r2, #0
	str	r2, [r0, #92]
	.loc 1 1426 5 is_stmt 1 discriminator 2
	.loc 1 1426 19 is_stmt 0 discriminator 2
	movs	r2, #18
	strb	r2, [r0, #89]
	.loc 1 1428 5 is_stmt 1 discriminator 2
	.loc 1 1428 15 is_stmt 0 discriminator 2
	ldr	r2, [r0, #80]
	.loc 1 1428 8 discriminator 2
	cbz	r2, .L394
	.loc 1 1431 7 is_stmt 1
	.loc 1 1431 40 is_stmt 0
	ldr	r0, .L399
.LVL217:
	str	r0, [r2, #60]
	.loc 1 1434 7 is_stmt 1
	.loc 1 1434 13 is_stmt 0
	ldr	r2, [r4, #80]
	.loc 1 1434 44
	ldr	r0, .L399+4
	str	r0, [r2, #64]
	.loc 1 1437 7 is_stmt 1
	.loc 1 1437 13 is_stmt 0
	ldr	r2, [r4, #80]
	.loc 1 1437 41
	ldr	r0, .L399+8
	str	r0, [r2, #76]
	.loc 1 1440 7 is_stmt 1
.LVL218:
	.loc 1 1441 7
	.loc 1 1441 90 is_stmt 0
	ldr	r2, [r4]
	.loc 1 1441 16
	adds	r2, r2, #40
	ldr	r0, [r4, #80]
	bl	HAL_DMA_Start_IT
.LVL219:
	.loc 1 1444 5 is_stmt 1
	.loc 1 1444 8 is_stmt 0
	cbnz	r0, .L395
.LVL220:
.L394:
	.loc 1 1447 7 is_stmt 1
	.loc 1 1447 16 is_stmt 0
	ldr	r3, [r4]
	.loc 1 1447 32
	movs	r2, #64
	str	r2, [r3, #32]
	.loc 1 1450 7 is_stmt 1
	.loc 1 1450 11
	.loc 1 1450 26 is_stmt 0
	movs	r5, #0
	strb	r5, [r4, #88]
	.loc 1 1450 9 is_stmt 1
	.loc 1 1454 7
	.loc 1 1454 15 is_stmt 0
	ldr	r2, [r4]
	.loc 1 1454 25
	ldr	r3, [r2, #8]
	.loc 1 1454 32
	orr	r3, r3, #128
	str	r3, [r2, #8]
	.loc 1 1456 7 is_stmt 1
	.loc 1 1456 14 is_stmt 0
	b	.L393
.LVL221:
.L395:
	.loc 1 1461 7 is_stmt 1
	.loc 1 1461 25 is_stmt 0
	movs	r3, #16
	str	r3, [r4, #92]
	.loc 1 1464 7 is_stmt 1
	.loc 1 1464 11
	.loc 1 1464 26 is_stmt 0
	movs	r3, #0
	strb	r3, [r4, #88]
	.loc 1 1464 9 is_stmt 1
	.loc 1 1467 7
	.loc 1 1467 21 is_stmt 0
	movs	r3, #1
	strb	r3, [r4, #89]
	.loc 1 1469 7 is_stmt 1
	.loc 1 1469 14 is_stmt 0
	b	.L393
.LVL222:
.L396:
	.loc 1 1474 12
	movs	r5, #2
.LVL223:
.L393:
	.loc 1 1476 1
	mov	r0, r5
	pop	{r3, r4, r5, pc}
.LVL224:
.L397:
	.loc 1 1419 51
	movs	r5, #2
	b	.L393
.L400:
	.align	2
.L399:
	.word	USART_DMATransmitCplt
	.word	USART_DMATxHalfCplt
	.word	USART_DMAError
	.cfi_endproc
.LFE345:
	.size	HAL_USART_Transmit_DMA, .-HAL_USART_Transmit_DMA
	.section	.text.HAL_USART_Receive_DMA,"ax",%progbits
	.align	1
	.global	HAL_USART_Receive_DMA
	.syntax unified
	.thumb
	.thumb_func
	.type	HAL_USART_Receive_DMA, %function
HAL_USART_Receive_DMA:
.LFB346:
	.loc 1 1492 1 is_stmt 1
	.cfi_startproc
	@ args = 0, pretend = 0, frame = 0
	@ frame_needed = 0, uses_anonymous_args = 0
.LVL225:
	push	{r3, r4, r5, r6, r7, lr}
	.cfi_def_cfa_offset 24
	.cfi_offset 3, -24
	.cfi_offset 4, -20
	.cfi_offset 5, -16
	.cfi_offset 6, -12
	.cfi_offset 7, -8
	.cfi_offset 14, -4
	.loc 1 1493 3
.LVL226:
	.loc 1 1494 3
	.loc 1 1497 3
	.loc 1 1497 13 is_stmt 0
	ldrb	r5, [r0, #89]	@ zero_extendqisi2
	uxtb	r5, r5
	.loc 1 1497 6
	cmp	r5, #1
	bne	.L408
	mov	r4, r0
	mov	r6, r1
	mov	r7, r2
	.loc 1 1499 5 is_stmt 1
	.loc 1 1499 8 is_stmt 0
	cmp	r1, #0
	beq	.L402
	.loc 1 1499 26 discriminator 1
	cmp	r2, #0
	beq	.L402
	.loc 1 1505 5 is_stmt 1
	.loc 1 1505 9
	.loc 1 1505 20 is_stmt 0
	ldrb	r3, [r0, #88]	@ zero_extendqisi2
	.loc 1 1505 11
	cmp	r3, #1
	beq	.L409
	.loc 1 1505 70 is_stmt 1 discriminator 2
	.loc 1 1505 85 is_stmt 0 discriminator 2
	movs	r3, #1
	strb	r3, [r0, #88]
	.loc 1 1505 7 is_stmt 1 discriminator 2
	.loc 1 1507 5 discriminator 2
	.loc 1 1507 24 is_stmt 0 discriminator 2
	str	r1, [r0, #48]
	.loc 1 1508 5 is_stmt 1 discriminator 2
	.loc 1 1508 24 is_stmt 0 discriminator 2
	strh	r2, [r0, #52]	@ movhi
	.loc 1 1509 5 is_stmt 1 discriminator 2
	.loc 1 1509 24 is_stmt 0 discriminator 2
	str	r1, [r0, #40]
	.loc 1 1510 5 is_stmt 1 discriminator 2
	.loc 1 1510 24 is_stmt 0 discriminator 2
	strh	r2, [r0, #44]	@ movhi
	.loc 1 1512 5 is_stmt 1 discriminator 2
	.loc 1 1512 23 is_stmt 0 discriminator 2
	movs	r3, #0
	str	r3, [r0, #92]
	.loc 1 1513 5 is_stmt 1 discriminator 2
	.loc 1 1513 19 is_stmt 0 discriminator 2
	movs	r3, #34
	strb	r3, [r0, #89]
	.loc 1 1515 5 is_stmt 1 discriminator 2
	.loc 1 1515 15 is_stmt 0 discriminator 2
	ldr	r3, [r0, #84]
	.loc 1 1515 8 discriminator 2
	cbz	r3, .L410
	.loc 1 1518 7 is_stmt 1
	.loc 1 1518 40 is_stmt 0
	ldr	r2, .L412
.LVL227:
	str	r2, [r3, #60]
.LVL228:
	.loc 1 1521 7 is_stmt 1
	.loc 1 1521 13 is_stmt 0
	ldr	r3, [r0, #84]
	.loc 1 1521 44
	ldr	r2, .L412+4
	str	r2, [r3, #64]
	.loc 1 1524 7 is_stmt 1
	.loc 1 1524 13 is_stmt 0
	ldr	r3, [r0, #84]
	.loc 1 1524 41
	ldr	r2, .L412+8
	str	r2, [r3, #76]
	.loc 1 1527 7 is_stmt 1
	.loc 1 1527 66 is_stmt 0
	ldr	r1, [r0]
.LVL229:
	.loc 1 1527 16
	mov	r3, r7
	mov	r2, r6
	adds	r1, r1, #36
	ldr	r0, [r0, #84]
.LVL230:
	bl	HAL_DMA_Start_IT
.LVL231:
	.loc 1 1530 5 is_stmt 1
	.loc 1 1530 8 is_stmt 0
	mov	r3, r0
	cbz	r0, .L403
.LVL232:
.L404:
	.loc 1 1573 7 is_stmt 1
	.loc 1 1573 17 is_stmt 0
	ldr	r0, [r4, #84]
	.loc 1 1573 10
	cbz	r0, .L407
	.loc 1 1575 9 is_stmt 1
	.loc 1 1575 18 is_stmt 0
	bl	HAL_DMA_Abort
.LVL233:
.L407:
	.loc 1 1579 7 is_stmt 1
	.loc 1 1582 7
	.loc 1 1582 25 is_stmt 0
	movs	r3, #16
	str	r3, [r4, #92]
	.loc 1 1585 7 is_stmt 1
	.loc 1 1585 11
	.loc 1 1585 26 is_stmt 0
	movs	r3, #0
	strb	r3, [r4, #88]
	.loc 1 1585 9 is_stmt 1
	.loc 1 1588 7
	.loc 1 1588 21 is_stmt 0
	movs	r3, #1
	strb	r3, [r4, #89]
	.loc 1 1590 7 is_stmt 1
	.loc 1 1590 14 is_stmt 0
	b	.L402
.LVL234:
.L410:
	.loc 1 1493 21
	movs	r3, #0
.LVL235:
.L403:
	.loc 1 1531 16 discriminator 1
	ldr	r2, [r4, #64]
	.loc 1 1530 28 discriminator 1
	cbnz	r2, .L405
	.loc 1 1538 7 is_stmt 1
	.loc 1 1538 17 is_stmt 0
	ldr	r2, [r4, #80]
	.loc 1 1538 10
	cbz	r2, .L405
	.loc 1 1540 9 is_stmt 1
	.loc 1 1540 43 is_stmt 0
	movs	r3, #0
	str	r3, [r2, #76]
	.loc 1 1541 9 is_stmt 1
	.loc 1 1541 15 is_stmt 0
	ldr	r2, [r4, #80]
	.loc 1 1541 46
	str	r3, [r2, #64]
	.loc 1 1542 9 is_stmt 1
	.loc 1 1542 15 is_stmt 0
	ldr	r2, [r4, #80]
	.loc 1 1542 42
	str	r3, [r2, #60]
	.loc 1 1543 9 is_stmt 1
	.loc 1 1543 86 is_stmt 0
	ldr	r2, [r4]
	.loc 1 1543 18
	mov	r3, r7
	adds	r2, r2, #40
	mov	r1, r6
	ldr	r0, [r4, #80]
	bl	HAL_DMA_Start_IT
.LVL236:
	mov	r3, r0
.LVL237:
.L405:
	.loc 1 1547 5 is_stmt 1
	.loc 1 1547 8 is_stmt 0
	cmp	r3, #0
	bne	.L404
	.loc 1 1550 7 is_stmt 1
	.loc 1 1550 11
	.loc 1 1550 26 is_stmt 0
	movs	r2, #0
	strb	r2, [r4, #88]
	.loc 1 1550 9 is_stmt 1
	.loc 1 1552 7
	.loc 1 1552 23 is_stmt 0
	ldr	r2, [r4, #16]
	.loc 1 1552 10
	cbz	r2, .L406
	.loc 1 1555 9 is_stmt 1
	.loc 1 1555 17 is_stmt 0
	ldr	r1, [r4]
	.loc 1 1555 27
	ldr	r2, [r1]
	.loc 1 1555 34
	orr	r2, r2, #256
	str	r2, [r1]
.L406:
	.loc 1 1559 7 is_stmt 1
	.loc 1 1559 15 is_stmt 0
	ldr	r1, [r4]
	.loc 1 1559 25
	ldr	r2, [r1, #8]
	.loc 1 1559 32
	orr	r2, r2, #1
	str	r2, [r1, #8]
	.loc 1 1563 7 is_stmt 1
	.loc 1 1563 15 is_stmt 0
	ldr	r1, [r4]
	.loc 1 1563 25
	ldr	r2, [r1, #8]
	.loc 1 1563 32
	orr	r2, r2, #64
	str	r2, [r1, #8]
	.loc 1 1567 7 is_stmt 1
	.loc 1 1567 15 is_stmt 0
	ldr	r1, [r4]
	.loc 1 1567 25
	ldr	r2, [r1, #8]
	.loc 1 1567 32
	orr	r2, r2, #128
	str	r2, [r1, #8]
	.loc 1 1569 7 is_stmt 1
	.loc 1 1569 14 is_stmt 0
	mov	r5, r3
	b	.L402
.LVL238:
.L408:
	.loc 1 1595 12
	movs	r5, #2
.LVL239:
.L402:
	.loc 1 1597 1
	mov	r0, r5
	pop	{r3, r4, r5, r6, r7, pc}
.LVL240:
.L409:
	.loc 1 1505 51
	movs	r5, #2
	b	.L402
.L413:
	.align	2
.L412:
	.word	USART_DMAReceiveCplt
	.word	USART_DMARxHalfCplt
	.word	USART_DMAError
	.cfi_endproc
.LFE346:
	.size	HAL_USART_Receive_DMA, .-HAL_USART_Receive_DMA
	.section	.text.HAL_USART_TransmitReceive_DMA,"ax",%progbits
	.align	1
	.global	HAL_USART_TransmitReceive_DMA
	.syntax unified
	.thumb
	.thumb_func
	.type	HAL_USART_TransmitReceive_DMA, %function
HAL_USART_TransmitReceive_DMA:
.LFB347:
	.loc 1 1613 1 is_stmt 1
	.cfi_startproc
	@ args = 0, pretend = 0, frame = 0
	@ frame_needed = 0, uses_anonymous_args = 0
.LVL241:
	push	{r3, r4, r5, r6, r7, lr}
	.cfi_def_cfa_offset 24
	.cfi_offset 3, -24
	.cfi_offset 4, -20
	.cfi_offset 5, -16
	.cfi_offset 6, -12
	.cfi_offset 7, -8
	.cfi_offset 14, -4
	.loc 1 1614 3
	.loc 1 1615 3
	.loc 1 1617 3
	.loc 1 1617 13 is_stmt 0
	ldrb	r5, [r0, #89]	@ zero_extendqisi2
	uxtb	r5, r5
	.loc 1 1617 6
	cmp	r5, #1
	bne	.L419
	mov	r4, r0
	mov	r7, r1
	mov	r6, r3
	.loc 1 1619 5 is_stmt 1
	.loc 1 1619 8 is_stmt 0
	cmp	r2, #0
	it	ne
	cmpne	r1, #0
	beq	.L415
	.loc 1 1619 47 discriminator 1
	cmp	r3, #0
	beq	.L415
	.loc 1 1625 5 is_stmt 1
	.loc 1 1625 9
	.loc 1 1625 20 is_stmt 0
	ldrb	r3, [r0, #88]	@ zero_extendqisi2
.LVL242:
	.loc 1 1625 11
	cmp	r3, #1
	beq	.L420
	.loc 1 1625 70 is_stmt 1 discriminator 2
	.loc 1 1625 85 is_stmt 0 discriminator 2
	movs	r3, #1
	strb	r3, [r0, #88]
	.loc 1 1625 7 is_stmt 1 discriminator 2
	.loc 1 1627 5 discriminator 2
	.loc 1 1627 24 is_stmt 0 discriminator 2
	str	r2, [r0, #48]
	.loc 1 1628 5 is_stmt 1 discriminator 2
	.loc 1 1628 24 is_stmt 0 discriminator 2
	strh	r6, [r0, #52]	@ movhi
	.loc 1 1629 5 is_stmt 1 discriminator 2
	.loc 1 1629 24 is_stmt 0 discriminator 2
	str	r1, [r0, #40]
	.loc 1 1630 5 is_stmt 1 discriminator 2
	.loc 1 1630 24 is_stmt 0 discriminator 2
	strh	r6, [r0, #44]	@ movhi
	.loc 1 1632 5 is_stmt 1 discriminator 2
	.loc 1 1632 23 is_stmt 0 discriminator 2
	movs	r3, #0
	str	r3, [r0, #92]
	.loc 1 1633 5 is_stmt 1 discriminator 2
	.loc 1 1633 19 is_stmt 0 discriminator 2
	movs	r3, #50
	strb	r3, [r0, #89]
	.loc 1 1635 5 is_stmt 1 discriminator 2
	.loc 1 1635 16 is_stmt 0 discriminator 2
	ldr	r3, [r0, #84]
	.loc 1 1635 8 discriminator 2
	cbz	r3, .L416
	.loc 1 1635 43 discriminator 1
	ldr	r1, [r0, #80]
.LVL243:
	.loc 1 1635 33 discriminator 1
	cbz	r1, .L416
	.loc 1 1638 7 is_stmt 1
	.loc 1 1638 40 is_stmt 0
	ldr	r1, .L423
	str	r1, [r3, #60]
	.loc 1 1641 7 is_stmt 1
	.loc 1 1641 13 is_stmt 0
	ldr	r3, [r0, #84]
	.loc 1 1641 44
	ldr	r1, .L423+4
	str	r1, [r3, #64]
	.loc 1 1644 7 is_stmt 1
	.loc 1 1644 13 is_stmt 0
	ldr	r3, [r0, #80]
	.loc 1 1644 40
	ldr	r1, .L423+8
	str	r1, [r3, #60]
	.loc 1 1647 7 is_stmt 1
	.loc 1 1647 13 is_stmt 0
	ldr	r3, [r0, #80]
	.loc 1 1647 44
	ldr	r1, .L423+12
	str	r1, [r3, #64]
	.loc 1 1650 7 is_stmt 1
	.loc 1 1650 13 is_stmt 0
	ldr	r1, [r0, #80]
	.loc 1 1650 41
	ldr	r3, .L423+16
	str	r3, [r1, #76]
	.loc 1 1653 7 is_stmt 1
	.loc 1 1653 13 is_stmt 0
	ldr	r1, [r0, #84]
	.loc 1 1653 41
	str	r3, [r1, #76]
	.loc 1 1656 7 is_stmt 1
.LVL244:
	.loc 1 1657 7
	.loc 1 1657 66 is_stmt 0
	ldr	r1, [r0]
	.loc 1 1657 16
	mov	r3, r6
	adds	r1, r1, #36
	ldr	r0, [r0, #84]
.LVL245:
	bl	HAL_DMA_Start_IT
.LVL246:
	.loc 1 1660 7 is_stmt 1
	.loc 1 1660 10 is_stmt 0
	cbz	r0, .L422
.LVL247:
.L416:
	.loc 1 1700 7 is_stmt 1
	.loc 1 1700 17 is_stmt 0
	ldr	r0, [r4, #84]
	.loc 1 1700 10
	cbz	r0, .L418
	.loc 1 1702 9 is_stmt 1
	.loc 1 1702 18 is_stmt 0
	bl	HAL_DMA_Abort
.LVL248:
.L418:
	.loc 1 1706 7 is_stmt 1
	.loc 1 1709 7
	.loc 1 1709 25 is_stmt 0
	movs	r3, #16
	str	r3, [r4, #92]
	.loc 1 1712 7 is_stmt 1
	.loc 1 1712 11
	.loc 1 1712 26 is_stmt 0
	movs	r3, #0
	strb	r3, [r4, #88]
	.loc 1 1712 9 is_stmt 1
	.loc 1 1715 7
	.loc 1 1715 21 is_stmt 0
	movs	r3, #1
	strb	r3, [r4, #89]
	.loc 1 1717 7 is_stmt 1
	.loc 1 1717 14 is_stmt 0
	b	.L415
.LVL249:
.L422:
	.loc 1 1662 9 is_stmt 1
	.loc 1 1663 9
	.loc 1 1663 92 is_stmt 0
	ldr	r2, [r4]
	.loc 1 1663 18
	mov	r3, r6
	adds	r2, r2, #40
	mov	r1, r7
	ldr	r0, [r4, #80]
.LVL250:
	bl	HAL_DMA_Start_IT
.LVL251:
	.loc 1 1671 5 is_stmt 1
	.loc 1 1671 8 is_stmt 0
	mov	r2, r0
	cmp	r0, #0
	bne	.L416
	.loc 1 1674 7 is_stmt 1
	.loc 1 1674 11
	.loc 1 1674 26 is_stmt 0
	movs	r3, #0
	strb	r3, [r4, #88]
	.loc 1 1674 9 is_stmt 1
	.loc 1 1676 7
	.loc 1 1676 23 is_stmt 0
	ldr	r3, [r4, #16]
	.loc 1 1676 10
	cbz	r3, .L417
	.loc 1 1679 9 is_stmt 1
	.loc 1 1679 17 is_stmt 0
	ldr	r1, [r4]
	.loc 1 1679 27
	ldr	r3, [r1]
	.loc 1 1679 34
	orr	r3, r3, #256
	str	r3, [r1]
.L417:
	.loc 1 1683 7 is_stmt 1
	.loc 1 1683 15 is_stmt 0
	ldr	r1, [r4]
	.loc 1 1683 25
	ldr	r3, [r1, #8]
	.loc 1 1683 32
	orr	r3, r3, #1
	str	r3, [r1, #8]
	.loc 1 1686 7 is_stmt 1
	.loc 1 1686 16 is_stmt 0
	ldr	r3, [r4]
	.loc 1 1686 32
	movs	r1, #64
	str	r1, [r3, #32]
	.loc 1 1690 7 is_stmt 1
	.loc 1 1690 15 is_stmt 0
	ldr	r1, [r4]
	.loc 1 1690 25
	ldr	r3, [r1, #8]
	.loc 1 1690 32
	orr	r3, r3, #64
	str	r3, [r1, #8]
	.loc 1 1694 7 is_stmt 1
	.loc 1 1694 15 is_stmt 0
	ldr	r1, [r4]
	.loc 1 1694 25
	ldr	r3, [r1, #8]
	.loc 1 1694 32
	orr	r3, r3, #128
	str	r3, [r1, #8]
	.loc 1 1696 7 is_stmt 1
	.loc 1 1696 14 is_stmt 0
	mov	r5, r2
	b	.L415
.LVL252:
.L419:
	.loc 1 1722 12
	movs	r5, #2
.LVL253:
.L415:
	.loc 1 1724 1
	mov	r0, r5
	pop	{r3, r4, r5, r6, r7, pc}
.LVL254:
.L420:
	.loc 1 1625 51
	movs	r5, #2
	b	.L415
.L424:
	.align	2
.L423:
	.word	USART_DMAReceiveCplt
	.word	USART_DMARxHalfCplt
	.word	USART_DMATransmitCplt
	.word	USART_DMATxHalfCplt
	.word	USART_DMAError
	.cfi_endproc
.LFE347:
	.size	HAL_USART_TransmitReceive_DMA, .-HAL_USART_TransmitReceive_DMA
	.section	.text.HAL_USART_DMAPause,"ax",%progbits
	.align	1
	.global	HAL_USART_DMAPause
	.syntax unified
	.thumb
	.thumb_func
	.type	HAL_USART_DMAPause, %function
HAL_USART_DMAPause:
.LFB348:
	.loc 1 1732 1 is_stmt 1
	.cfi_startproc
	@ args = 0, pretend = 0, frame = 0
	@ frame_needed = 0, uses_anonymous_args = 0
	@ link register save eliminated.
.LVL255:
	mov	r3, r0
	.loc 1 1733 3
	.loc 1 1733 32 is_stmt 0
	ldrb	r2, [r0, #89]	@ zero_extendqisi2
	uxtb	r2, r2
.LVL256:
	.loc 1 1736 3 is_stmt 1
	.loc 1 1736 7
	.loc 1 1736 18 is_stmt 0
	ldrb	r1, [r0, #88]	@ zero_extendqisi2
	.loc 1 1736 9
	cmp	r1, #1
	beq	.L430
	.loc 1 1736 68 is_stmt 1 discriminator 2
	.loc 1 1736 83 is_stmt 0 discriminator 2
	movs	r1, #1
	strb	r1, [r0, #88]
	.loc 1 1736 5 is_stmt 1 discriminator 2
	.loc 1 1738 3 discriminator 2
	.loc 1 1738 17 is_stmt 0 discriminator 2
	ldr	r1, [r0]
	.loc 1 1738 27 discriminator 2
	ldr	r0, [r1, #8]
.LVL257:
	.loc 1 1738 6 discriminator 2
	tst	r0, #128
	beq	.L427
	.loc 1 1738 78 discriminator 1
	cmp	r2, #18
	beq	.L431
.L427:
	.loc 1 1744 8 is_stmt 1
	.loc 1 1744 11 is_stmt 0
	cmp	r2, #50
	it	ne
	cmpne	r2, #34
	bne	.L428
	.loc 1 1747 5 is_stmt 1
	.loc 1 1747 28 is_stmt 0
	ldr	r2, [r1, #8]
.LVL258:
	.loc 1 1747 8
	tst	r2, #128
	beq	.L429
	.loc 1 1750 7 is_stmt 1
	.loc 1 1750 25 is_stmt 0
	ldr	r2, [r1, #8]
	.loc 1 1750 32
	bic	r2, r2, #128
	str	r2, [r1, #8]
.L429:
	.loc 1 1752 5 is_stmt 1
	.loc 1 1752 18 is_stmt 0
	ldr	r2, [r3]
	.loc 1 1752 28
	ldr	r1, [r2, #8]
	.loc 1 1752 8
	tst	r1, #64
	beq	.L428
	.loc 1 1755 7 is_stmt 1
	.loc 1 1755 25 is_stmt 0
	ldr	r1, [r2]
	.loc 1 1755 32
	bic	r1, r1, #256
	str	r1, [r2]
	.loc 1 1756 7 is_stmt 1
	.loc 1 1756 15 is_stmt 0
	ldr	r1, [r3]
	.loc 1 1756 25
	ldr	r2, [r1, #8]
	.loc 1 1756 32
	bic	r2, r2, #1
	str	r2, [r1, #8]
	.loc 1 1759 7 is_stmt 1
	.loc 1 1759 15 is_stmt 0
	ldr	r1, [r3]
	.loc 1 1759 25
	ldr	r2, [r1, #8]
	.loc 1 1759 32
	bic	r2, r2, #64
	str	r2, [r1, #8]
.L428:
	.loc 1 1765 3 is_stmt 1
	.loc 1 1768 3
	.loc 1 1768 7
	.loc 1 1768 22 is_stmt 0
	movs	r0, #0
	strb	r0, [r3, #88]
	.loc 1 1768 5 is_stmt 1
	.loc 1 1770 3
	.loc 1 1770 10 is_stmt 0
	bx	lr
.LVL259:
.L431:
	.loc 1 1742 5 is_stmt 1
	.loc 1 1742 23 is_stmt 0
	ldr	r2, [r1, #8]
.LVL260:
	.loc 1 1742 30
	bic	r2, r2, #128
	str	r2, [r1, #8]
	b	.L428
.LVL261:
.L430:
	.loc 1 1736 49
	movs	r0, #2
.LVL262:
	.loc 1 1771 1
	bx	lr
	.cfi_endproc
.LFE348:
	.size	HAL_USART_DMAPause, .-HAL_USART_DMAPause
	.section	.text.HAL_USART_DMAResume,"ax",%progbits
	.align	1
	.global	HAL_USART_DMAResume
	.syntax unified
	.thumb
	.thumb_func
	.type	HAL_USART_DMAResume, %function
HAL_USART_DMAResume:
.LFB349:
	.loc 1 1779 1 is_stmt 1
	.cfi_startproc
	@ args = 0, pretend = 0, frame = 0
	@ frame_needed = 0, uses_anonymous_args = 0
	@ link register save eliminated.
.LVL263:
	mov	r3, r0
	.loc 1 1780 3
	.loc 1 1780 32 is_stmt 0
	ldrb	r2, [r0, #89]	@ zero_extendqisi2
	uxtb	r2, r2
.LVL264:
	.loc 1 1783 3 is_stmt 1
	.loc 1 1783 7
	.loc 1 1783 18 is_stmt 0
	ldrb	r1, [r0, #88]	@ zero_extendqisi2
	.loc 1 1783 9
	cmp	r1, #1
	beq	.L437
	.loc 1 1783 68 is_stmt 1 discriminator 2
	.loc 1 1783 83 is_stmt 0 discriminator 2
	movs	r1, #1
	strb	r1, [r0, #88]
	.loc 1 1783 5 is_stmt 1 discriminator 2
	.loc 1 1785 3 discriminator 2
	.loc 1 1785 6 is_stmt 0 discriminator 2
	cmp	r2, #18
	beq	.L438
	.loc 1 1790 8 is_stmt 1
	.loc 1 1790 11 is_stmt 0
	cmp	r2, #50
	it	ne
	cmpne	r2, #34
	bne	.L435
	.loc 1 1794 5 is_stmt 1
	.loc 1 1794 14 is_stmt 0
	ldr	r2, [r0]
.LVL265:
	.loc 1 1794 30
	movs	r1, #8
	str	r1, [r2, #32]
	.loc 1 1797 5 is_stmt 1
	.loc 1 1797 21 is_stmt 0
	ldr	r2, [r0, #16]
	.loc 1 1797 8
	cbz	r2, .L436
	.loc 1 1799 7 is_stmt 1
	.loc 1 1799 15 is_stmt 0
	ldr	r1, [r0]
	.loc 1 1799 25
	ldr	r2, [r1]
	.loc 1 1799 32
	orr	r2, r2, #256
	str	r2, [r1]
.L436:
	.loc 1 1801 5 is_stmt 1
	.loc 1 1801 13 is_stmt 0
	ldr	r1, [r3]
	.loc 1 1801 23
	ldr	r2, [r1, #8]
	.loc 1 1801 30
	orr	r2, r2, #1
	str	r2, [r1, #8]
	.loc 1 1804 5 is_stmt 1
	.loc 1 1804 13 is_stmt 0
	ldr	r1, [r3]
	.loc 1 1804 23
	ldr	r2, [r1, #8]
	.loc 1 1804 30
	orr	r2, r2, #64
	str	r2, [r1, #8]
	.loc 1 1807 5 is_stmt 1
	.loc 1 1807 13 is_stmt 0
	ldr	r1, [r3]
	.loc 1 1807 23
	ldr	r2, [r1, #8]
	.loc 1 1807 30
	orr	r2, r2, #128
	str	r2, [r1, #8]
	b	.L435
.LVL266:
.L438:
	.loc 1 1788 5 is_stmt 1
	.loc 1 1788 13 is_stmt 0
	ldr	r1, [r0]
	.loc 1 1788 23
	ldr	r2, [r1, #8]
.LVL267:
	.loc 1 1788 30
	orr	r2, r2, #128
	str	r2, [r1, #8]
.L435:
	.loc 1 1812 3 is_stmt 1
	.loc 1 1815 3
	.loc 1 1815 7
	.loc 1 1815 22 is_stmt 0
	movs	r0, #0
.LVL268:
	strb	r0, [r3, #88]
	.loc 1 1815 5 is_stmt 1
	.loc 1 1817 3
	.loc 1 1817 10 is_stmt 0
	bx	lr
.LVL269:
.L437:
	.loc 1 1783 49
	movs	r0, #2
.LVL270:
	.loc 1 1818 1
	bx	lr
	.cfi_endproc
.LFE349:
	.size	HAL_USART_DMAResume, .-HAL_USART_DMAResume
	.section	.text.HAL_USART_DMAStop,"ax",%progbits
	.align	1
	.global	HAL_USART_DMAStop
	.syntax unified
	.thumb
	.thumb_func
	.type	HAL_USART_DMAStop, %function
HAL_USART_DMAStop:
.LFB350:
	.loc 1 1826 1 is_stmt 1
	.cfi_startproc
	@ args = 0, pretend = 0, frame = 0
	@ frame_needed = 0, uses_anonymous_args = 0
.LVL271:
	push	{r4, lr}
	.cfi_def_cfa_offset 8
	.cfi_offset 4, -8
	.cfi_offset 14, -4
	mov	r4, r0
	.loc 1 1835 3
	.loc 1 1835 11 is_stmt 0
	ldr	r2, [r0]
	.loc 1 1835 21
	ldr	r3, [r2, #8]
	.loc 1 1835 28
	bic	r3, r3, #128
	str	r3, [r2, #8]
	.loc 1 1836 3 is_stmt 1
	.loc 1 1836 11 is_stmt 0
	ldr	r2, [r0]
	.loc 1 1836 21
	ldr	r3, [r2, #8]
	.loc 1 1836 28
	bic	r3, r3, #64
	str	r3, [r2, #8]
	.loc 1 1839 3 is_stmt 1
	.loc 1 1839 13 is_stmt 0
	ldr	r0, [r0, #80]
.LVL272:
	.loc 1 1839 6
	cbz	r0, .L440
	.loc 1 1841 5 is_stmt 1
	.loc 1 1841 9 is_stmt 0
	bl	HAL_DMA_Abort
.LVL273:
	.loc 1 1841 8
	cbnz	r0, .L444
.L440:
	.loc 1 1853 3 is_stmt 1
	.loc 1 1853 13 is_stmt 0
	ldr	r0, [r4, #84]
	.loc 1 1853 6
	cbz	r0, .L442
	.loc 1 1855 5 is_stmt 1
	.loc 1 1855 9 is_stmt 0
	bl	HAL_DMA_Abort
.LVL274:
	.loc 1 1855 8
	cbnz	r0, .L445
.L442:
	.loc 1 1867 3 is_stmt 1
	mov	r0, r4
	bl	USART_EndTransfer
.LVL275:
	.loc 1 1868 3
	.loc 1 1868 17 is_stmt 0
	movs	r3, #1
	strb	r3, [r4, #89]
	.loc 1 1870 3 is_stmt 1
	.loc 1 1870 10 is_stmt 0
	movs	r0, #0
.L441:
	.loc 1 1871 1
	pop	{r4, pc}
.LVL276:
.L444:
	.loc 1 1843 7 is_stmt 1
	.loc 1 1843 11 is_stmt 0
	ldr	r0, [r4, #80]
	bl	HAL_DMA_GetError
.LVL277:
	.loc 1 1843 10
	cmp	r0, #32
	bne	.L440
	.loc 1 1846 9 is_stmt 1
	.loc 1 1846 27 is_stmt 0
	movs	r3, #16
	str	r3, [r4, #92]
	.loc 1 1848 9 is_stmt 1
	.loc 1 1848 16 is_stmt 0
	movs	r0, #3
	b	.L441
.L445:
	.loc 1 1857 7 is_stmt 1
	.loc 1 1857 11 is_stmt 0
	ldr	r0, [r4, #84]
	bl	HAL_DMA_GetError
.LVL278:
	.loc 1 1857 10
	cmp	r0, #32
	bne	.L442
	.loc 1 1860 9 is_stmt 1
	.loc 1 1860 27 is_stmt 0
	movs	r3, #16
	str	r3, [r4, #92]
	.loc 1 1862 9 is_stmt 1
	.loc 1 1862 16 is_stmt 0
	movs	r0, #3
	b	.L441
	.cfi_endproc
.LFE350:
	.size	HAL_USART_DMAStop, .-HAL_USART_DMAStop
	.section	.text.HAL_USART_Abort,"ax",%progbits
	.align	1
	.global	HAL_USART_Abort
	.syntax unified
	.thumb
	.thumb_func
	.type	HAL_USART_Abort, %function
HAL_USART_Abort:
.LFB351:
	.loc 1 1886 1 is_stmt 1
	.cfi_startproc
	@ args = 0, pretend = 0, frame = 0
	@ frame_needed = 0, uses_anonymous_args = 0
.LVL279:
	push	{r4, lr}
	.cfi_def_cfa_offset 8
	.cfi_offset 4, -8
	.cfi_offset 14, -4
	mov	r4, r0
	.loc 1 1888 3
	.loc 1 1888 11 is_stmt 0
	ldr	r2, [r0]
	.loc 1 1888 21
	ldr	r3, [r2]
	.loc 1 1888 28
	bic	r3, r3, #480
	str	r3, [r2]
	.loc 1 1890 3 is_stmt 1
	.loc 1 1890 11 is_stmt 0
	ldr	r2, [r0]
	.loc 1 1890 21
	ldr	r1, [r2, #8]
	.loc 1 1890 28
	ldr	r3, .L455
	ands	r3, r3, r1
	str	r3, [r2, #8]
	.loc 1 1893 3 is_stmt 1
	.loc 1 1893 16 is_stmt 0
	ldr	r3, [r0]
	.loc 1 1893 26
	ldr	r2, [r3, #8]
	.loc 1 1893 6
	tst	r2, #128
	beq	.L447
	.loc 1 1896 5 is_stmt 1
	.loc 1 1896 23 is_stmt 0
	ldr	r2, [r3, #8]
	.loc 1 1896 30
	bic	r2, r2, #128
	str	r2, [r3, #8]
	.loc 1 1899 5 is_stmt 1
	.loc 1 1899 15 is_stmt 0
	ldr	r3, [r0, #80]
	.loc 1 1899 8
	cbz	r3, .L447
	.loc 1 1903 7 is_stmt 1
	.loc 1 1903 41 is_stmt 0
	movs	r2, #0
	str	r2, [r3, #80]
	.loc 1 1905 7 is_stmt 1
	.loc 1 1905 11 is_stmt 0
	ldr	r0, [r0, #80]
.LVL280:
	bl	HAL_DMA_Abort
.LVL281:
	.loc 1 1905 10
	cbnz	r0, .L452
.L447:
	.loc 1 1919 3 is_stmt 1
	.loc 1 1919 16 is_stmt 0
	ldr	r3, [r4]
	.loc 1 1919 26
	ldr	r2, [r3, #8]
	.loc 1 1919 6
	tst	r2, #64
	beq	.L449
	.loc 1 1922 5 is_stmt 1
	.loc 1 1922 23 is_stmt 0
	ldr	r2, [r3, #8]
	.loc 1 1922 30
	bic	r2, r2, #64
	str	r2, [r3, #8]
	.loc 1 1925 5 is_stmt 1
	.loc 1 1925 15 is_stmt 0
	ldr	r3, [r4, #84]
	.loc 1 1925 8
	cbz	r3, .L449
	.loc 1 1929 7 is_stmt 1
	.loc 1 1929 41 is_stmt 0
	movs	r2, #0
	str	r2, [r3, #80]
	.loc 1 1931 7 is_stmt 1
	.loc 1 1931 11 is_stmt 0
	ldr	r0, [r4, #84]
	bl	HAL_DMA_Abort
.LVL282:
	.loc 1 1931 10
	cbnz	r0, .L453
.L449:
	.loc 1 1945 3 is_stmt 1
	.loc 1 1945 23 is_stmt 0
	movs	r3, #0
	strh	r3, [r4, #46]	@ movhi
	.loc 1 1946 3 is_stmt 1
	.loc 1 1946 23 is_stmt 0
	strh	r3, [r4, #54]	@ movhi
	.loc 1 1949 3 is_stmt 1
	.loc 1 1949 12 is_stmt 0
	ldr	r3, [r4]
	.loc 1 1949 28
	movs	r2, #15
	str	r2, [r3, #32]
	.loc 1 1952 3 is_stmt 1
	.loc 1 1952 13 is_stmt 0
	ldr	r3, [r4, #68]
	.loc 1 1952 6
	cmp	r3, #536870912
	beq	.L454
.L450:
	.loc 1 1958 3 is_stmt 1
	.loc 1 1958 12 is_stmt 0
	ldr	r2, [r4]
	.loc 1 1958 22
	ldr	r3, [r2, #24]
	.loc 1 1958 28
	orr	r3, r3, #8
	str	r3, [r2, #24]
	.loc 1 1961 3 is_stmt 1
	.loc 1 1961 17 is_stmt 0
	movs	r3, #1
	strb	r3, [r4, #89]
	.loc 1 1964 3 is_stmt 1
	.loc 1 1964 21 is_stmt 0
	movs	r0, #0
	str	r0, [r4, #92]
	.loc 1 1966 3 is_stmt 1
.L448:
	.loc 1 1967 1 is_stmt 0
	pop	{r4, pc}
.LVL283:
.L452:
	.loc 1 1907 9 is_stmt 1
	.loc 1 1907 13 is_stmt 0
	ldr	r0, [r4, #80]
	bl	HAL_DMA_GetError
.LVL284:
	.loc 1 1907 12
	cmp	r0, #32
	bne	.L447
	.loc 1 1910 11 is_stmt 1
	.loc 1 1910 29 is_stmt 0
	movs	r3, #16
	str	r3, [r4, #92]
	.loc 1 1912 11 is_stmt 1
	.loc 1 1912 18 is_stmt 0
	movs	r0, #3
	b	.L448
.L453:
	.loc 1 1933 9 is_stmt 1
	.loc 1 1933 13 is_stmt 0
	ldr	r0, [r4, #84]
	bl	HAL_DMA_GetError
.LVL285:
	.loc 1 1933 12
	cmp	r0, #32
	bne	.L449
	.loc 1 1936 11 is_stmt 1
	.loc 1 1936 29 is_stmt 0
	movs	r3, #16
	str	r3, [r4, #92]
	.loc 1 1938 11 is_stmt 1
	.loc 1 1938 18 is_stmt 0
	movs	r0, #3
	b	.L448
.L454:
	.loc 1 1954 5 is_stmt 1
	.loc 1 1954 14 is_stmt 0
	ldr	r2, [r4]
	.loc 1 1954 24
	ldr	r3, [r2, #24]
	.loc 1 1954 30
	orr	r3, r3, #16
	str	r3, [r2, #24]
	b	.L450
.L456:
	.align	2
.L455:
	.word	-276824066
	.cfi_endproc
.LFE351:
	.size	HAL_USART_Abort, .-HAL_USART_Abort
	.section	.text.HAL_USART_TxCpltCallback,"ax",%progbits
	.align	1
	.weak	HAL_USART_TxCpltCallback
	.syntax unified
	.thumb
	.thumb_func
	.type	HAL_USART_TxCpltCallback, %function
HAL_USART_TxCpltCallback:
.LFB354:
	.loc 1 2356 1 is_stmt 1
	.cfi_startproc
	@ args = 0, pretend = 0, frame = 0
	@ frame_needed = 0, uses_anonymous_args = 0
	@ link register save eliminated.
.LVL286:
	.loc 1 2358 3
	.loc 1 2363 1 is_stmt 0
	bx	lr
	.cfi_endproc
.LFE354:
	.size	HAL_USART_TxCpltCallback, .-HAL_USART_TxCpltCallback
	.section	.text.USART_DMATransmitCplt,"ax",%progbits
	.align	1
	.syntax unified
	.thumb
	.thumb_func
	.type	USART_DMATransmitCplt, %function
USART_DMATransmitCplt:
.LFB364:
	.loc 1 2553 1 is_stmt 1
	.cfi_startproc
	@ args = 0, pretend = 0, frame = 0
	@ frame_needed = 0, uses_anonymous_args = 0
.LVL287:
	push	{r3, lr}
	.cfi_def_cfa_offset 8
	.cfi_offset 3, -8
	.cfi_offset 14, -4
	.loc 1 2554 3
	.loc 1 2554 24 is_stmt 0
	ldr	r3, [r0, #56]
.LVL288:
	.loc 1 2557 3 is_stmt 1
	.loc 1 2557 17 is_stmt 0
	ldr	r2, [r0, #28]
	.loc 1 2557 6
	cmp	r2, #256
	beq	.L459
	.loc 1 2559 5 is_stmt 1
	.loc 1 2559 25 is_stmt 0
	movs	r2, #0
	strh	r2, [r3, #46]	@ movhi
	.loc 1 2561 5 is_stmt 1
	.loc 1 2561 15 is_stmt 0
	ldrb	r2, [r3, #89]	@ zero_extendqisi2
	uxtb	r2, r2
	.loc 1 2561 8
	cmp	r2, #18
	beq	.L462
.LVL289:
.L458:
	.loc 1 2585 1
	pop	{r3, pc}
.LVL290:
.L462:
	.loc 1 2565 7 is_stmt 1
	.loc 1 2565 15 is_stmt 0
	ldr	r1, [r3]
	.loc 1 2565 25
	ldr	r2, [r1, #8]
	.loc 1 2565 32
	bic	r2, r2, #128
	str	r2, [r1, #8]
	.loc 1 2568 7 is_stmt 1
	.loc 1 2568 56 is_stmt 0
	ldr	r2, [r3]
	.loc 1 2568 66
	ldr	r3, [r2]
.LVL291:
	.loc 1 2568 72
	orr	r3, r3, #64
	.loc 1 2568 105
	str	r3, [r2]
	b	.L458
.LVL292:
.L459:
	.loc 1 2574 5 is_stmt 1
	.loc 1 2574 15 is_stmt 0
	ldrb	r2, [r3, #89]	@ zero_extendqisi2
	uxtb	r2, r2
	.loc 1 2574 8
	cmp	r2, #18
	bne	.L458
	.loc 1 2581 7 is_stmt 1
	mov	r0, r3
.LVL293:
	bl	HAL_USART_TxCpltCallback
.LVL294:
	.loc 1 2585 1 is_stmt 0
	b	.L458
	.cfi_endproc
.LFE364:
	.size	USART_DMATransmitCplt, .-USART_DMATransmitCplt
	.section	.text.HAL_USART_TxHalfCpltCallback,"ax",%progbits
	.align	1
	.weak	HAL_USART_TxHalfCpltCallback
	.syntax unified
	.thumb
	.thumb_func
	.type	HAL_USART_TxHalfCpltCallback, %function
HAL_USART_TxHalfCpltCallback:
.LFB355:
	.loc 1 2371 1 is_stmt 1
	.cfi_startproc
	@ args = 0, pretend = 0, frame = 0
	@ frame_needed = 0, uses_anonymous_args = 0
	@ link register save eliminated.
.LVL295:
	.loc 1 2373 3
	.loc 1 2378 1 is_stmt 0
	bx	lr
	.cfi_endproc
.LFE355:
	.size	HAL_USART_TxHalfCpltCallback, .-HAL_USART_TxHalfCpltCallback
	.section	.text.USART_DMATxHalfCplt,"ax",%progbits
	.align	1
	.syntax unified
	.thumb
	.thumb_func
	.type	USART_DMATxHalfCplt, %function
USART_DMATxHalfCplt:
.LFB365:
	.loc 1 2593 1 is_stmt 1
	.cfi_startproc
	@ args = 0, pretend = 0, frame = 0
	@ frame_needed = 0, uses_anonymous_args = 0
.LVL296:
	push	{r3, lr}
	.cfi_def_cfa_offset 8
	.cfi_offset 3, -8
	.cfi_offset 14, -4
	.loc 1 2594 3
.LVL297:
	.loc 1 2601 3
	ldr	r0, [r0, #56]
.LVL298:
	bl	HAL_USART_TxHalfCpltCallback
.LVL299:
	.loc 1 2603 1 is_stmt 0
	pop	{r3, pc}
	.cfi_endproc
.LFE365:
	.size	USART_DMATxHalfCplt, .-USART_DMATxHalfCplt
	.section	.text.HAL_USART_RxCpltCallback,"ax",%progbits
	.align	1
	.weak	HAL_USART_RxCpltCallback
	.syntax unified
	.thumb
	.thumb_func
	.type	HAL_USART_RxCpltCallback, %function
HAL_USART_RxCpltCallback:
.LFB356:
	.loc 1 2386 1 is_stmt 1
	.cfi_startproc
	@ args = 0, pretend = 0, frame = 0
	@ frame_needed = 0, uses_anonymous_args = 0
	@ link register save eliminated.
.LVL300:
	.loc 1 2388 3
	.loc 1 2393 1 is_stmt 0
	bx	lr
	.cfi_endproc
.LFE356:
	.size	HAL_USART_RxCpltCallback, .-HAL_USART_RxCpltCallback
	.section	.text.HAL_USART_RxHalfCpltCallback,"ax",%progbits
	.align	1
	.weak	HAL_USART_RxHalfCpltCallback
	.syntax unified
	.thumb
	.thumb_func
	.type	HAL_USART_RxHalfCpltCallback, %function
HAL_USART_RxHalfCpltCallback:
.LFB357:
	.loc 1 2401 1 is_stmt 1
	.cfi_startproc
	@ args = 0, pretend = 0, frame = 0
	@ frame_needed = 0, uses_anonymous_args = 0
	@ link register save eliminated.
.LVL301:
	.loc 1 2403 3
	.loc 1 2408 1 is_stmt 0
	bx	lr
	.cfi_endproc
.LFE357:
	.size	HAL_USART_RxHalfCpltCallback, .-HAL_USART_RxHalfCpltCallback
	.section	.text.USART_DMARxHalfCplt,"ax",%progbits
	.align	1
	.syntax unified
	.thumb
	.thumb_func
	.type	USART_DMARxHalfCplt, %function
USART_DMARxHalfCplt:
.LFB367:
	.loc 1 2686 1 is_stmt 1
	.cfi_startproc
	@ args = 0, pretend = 0, frame = 0
	@ frame_needed = 0, uses_anonymous_args = 0
.LVL302:
	push	{r3, lr}
	.cfi_def_cfa_offset 8
	.cfi_offset 3, -8
	.cfi_offset 14, -4
	.loc 1 2687 3
.LVL303:
	.loc 1 2694 3
	ldr	r0, [r0, #56]
.LVL304:
	bl	HAL_USART_RxHalfCpltCallback
.LVL305:
	.loc 1 2696 1 is_stmt 0
	pop	{r3, pc}
	.cfi_endproc
.LFE367:
	.size	USART_DMARxHalfCplt, .-USART_DMARxHalfCplt
	.section	.text.HAL_USART_TxRxCpltCallback,"ax",%progbits
	.align	1
	.weak	HAL_USART_TxRxCpltCallback
	.syntax unified
	.thumb
	.thumb_func
	.type	HAL_USART_TxRxCpltCallback, %function
HAL_USART_TxRxCpltCallback:
.LFB358:
	.loc 1 2416 1 is_stmt 1
	.cfi_startproc
	@ args = 0, pretend = 0, frame = 0
	@ frame_needed = 0, uses_anonymous_args = 0
	@ link register save eliminated.
.LVL306:
	.loc 1 2418 3
	.loc 1 2423 1 is_stmt 0
	bx	lr
	.cfi_endproc
.LFE358:
	.size	HAL_USART_TxRxCpltCallback, .-HAL_USART_TxRxCpltCallback
	.section	.text.USART_RxISR_8BIT,"ax",%progbits
	.align	1
	.syntax unified
	.thumb
	.thumb_func
	.type	USART_RxISR_8BIT, %function
USART_RxISR_8BIT:
.LFB380:
	.loc 1 3267 1 is_stmt 1
	.cfi_startproc
	@ args = 0, pretend = 0, frame = 0
	@ frame_needed = 0, uses_anonymous_args = 0
.LVL307:
	.loc 1 3268 3
	.loc 1 3268 32 is_stmt 0
	ldrb	r3, [r0, #89]	@ zero_extendqisi2
	uxtb	r3, r3
.LVL308:
	.loc 1 3269 3 is_stmt 1
	.loc 1 3270 3
	.loc 1 3270 12 is_stmt 0
	ldrh	r2, [r0, #56]
.LVL309:
	.loc 1 3271 3 is_stmt 1
	.loc 1 3273 3
	.loc 1 3273 6 is_stmt 0
	cmp	r3, #50
	it	ne
	cmpne	r3, #34
	bne	.L477
	.loc 1 3267 1
	push	{r4, lr}
	.cfi_def_cfa_offset 8
	.cfi_offset 4, -8
	.cfi_offset 14, -4
	.loc 1 3276 5 is_stmt 1
	.loc 1 3276 43 is_stmt 0
	ldr	r1, [r0]
	.loc 1 3276 53
	ldr	r4, [r1, #36]
	.loc 1 3276 61
	uxtb	r2, r2
	.loc 1 3276 12
	ldr	r1, [r0, #48]
	.loc 1 3276 27
	ands	r2, r2, r4
	.loc 1 3276 25
	strb	r2, [r1]
.LVL310:
	.loc 1 3277 5 is_stmt 1
	.loc 1 3277 11 is_stmt 0
	ldr	r2, [r0, #48]
	.loc 1 3277 23
	adds	r2, r2, #1
	str	r2, [r0, #48]
	.loc 1 3278 5 is_stmt 1
	.loc 1 3278 11 is_stmt 0
	ldrh	r2, [r0, #54]
	uxth	r2, r2
	.loc 1 3278 24
	subs	r2, r2, #1
	uxth	r2, r2
	strh	r2, [r0, #54]	@ movhi
	.loc 1 3280 5 is_stmt 1
	.loc 1 3280 15 is_stmt 0
	ldrh	r2, [r0, #54]
	uxth	r2, r2
	.loc 1 3280 8
	cmp	r2, #0
	bne	.L473
	.loc 1 3283 7 is_stmt 1
	.loc 1 3283 15 is_stmt 0
	ldr	r1, [r0]
	.loc 1 3283 25
	ldr	r2, [r1]
	.loc 1 3283 32
	bic	r2, r2, #288
	str	r2, [r1]
	.loc 1 3286 7 is_stmt 1
	.loc 1 3286 15 is_stmt 0
	ldr	r1, [r0]
	.loc 1 3286 25
	ldr	r2, [r1, #8]
	.loc 1 3286 32
	bic	r2, r2, #1
	str	r2, [r1, #8]
	.loc 1 3289 7 is_stmt 1
	.loc 1 3289 21 is_stmt 0
	movs	r2, #0
	str	r2, [r0, #72]
	.loc 1 3292 7 is_stmt 1
	.loc 1 3292 24 is_stmt 0
	ldr	r4, [r0]
	.loc 1 3292 34
	ldr	r1, [r4, #8]
	.loc 1 3292 14
	and	r1, r1, #8388608
.LVL311:
	.loc 1 3293 7 is_stmt 1
	.loc 1 3293 19 is_stmt 0
	ldrh	r2, [r0, #46]
	uxth	r2, r2
.LVL312:
	.loc 1 3295 7 is_stmt 1
	.loc 1 3295 10 is_stmt 0
	cmp	r3, #34
	beq	.L480
	.loc 1 3315 12 is_stmt 1
	.loc 1 3315 35 is_stmt 0
	ldr	r3, [r4]
.LVL313:
	.loc 1 3315 15
	tst	r3, #64
	bne	.L471
	.loc 1 3317 29
	clz	r2, r2
.LVL314:
	lsrs	r2, r2, #5
	.loc 1 3316 45
	cbnz	r1, .L471
	cbz	r2, .L471
	.loc 1 3320 9 is_stmt 1
	.loc 1 3320 23 is_stmt 0
	movs	r3, #1
	strb	r3, [r0, #89]
	.loc 1 3327 9 is_stmt 1
	bl	HAL_USART_TxRxCpltCallback
.LVL315:
	b	.L471
.LVL316:
.L480:
	.loc 1 3298 9
	.loc 1 3298 19 is_stmt 0
	ldr	r3, [r0, #64]
.LVL317:
	.loc 1 3298 12
	cmp	r3, #1
	beq	.L481
.LVL318:
.L475:
	.loc 1 3305 9 is_stmt 1
	.loc 1 3305 23 is_stmt 0
	movs	r3, #1
	strb	r3, [r0, #89]
	.loc 1 3312 9 is_stmt 1
	bl	HAL_USART_RxCpltCallback
.LVL319:
	b	.L471
.LVL320:
.L481:
	.loc 1 3300 11
	.loc 1 3300 38 is_stmt 0
	mov	r3, #8192
	str	r3, [r4, #32]
	.loc 1 3301 11 is_stmt 1
	.loc 1 3301 20 is_stmt 0
	ldr	r2, [r0]
.LVL321:
	.loc 1 3301 30
	ldr	r3, [r2, #24]
	.loc 1 3301 36
	orr	r3, r3, #16
	str	r3, [r2, #24]
	b	.L475
.LVL322:
.L473:
	.loc 1 3335 10 is_stmt 1
	.loc 1 3335 13 is_stmt 0
	cmp	r3, #34
	beq	.L482
.LVL323:
.L471:
	.loc 1 3346 1
	pop	{r4, pc}
.LVL324:
.L482:
	.loc 1 3336 21 discriminator 1
	ldr	r3, [r0, #64]
.LVL325:
	.loc 1 3335 49 discriminator 1
	cmp	r3, #0
	bne	.L471
	.loc 1 3339 7 is_stmt 1
	.loc 1 3339 13 is_stmt 0
	ldr	r3, [r0]
	.loc 1 3339 29
	movs	r2, #255
	str	r2, [r3, #40]
	.loc 1 3344 5 is_stmt 1
	.loc 1 3346 1 is_stmt 0
	b	.L471
.LVL326:
.L477:
	.cfi_def_cfa_offset 0
	.cfi_restore 4
	.cfi_restore 14
	bx	lr
	.cfi_endproc
.LFE380:
	.size	USART_RxISR_8BIT, .-USART_RxISR_8BIT
	.section	.text.USART_RxISR_16BIT,"ax",%progbits
	.align	1
	.syntax unified
	.thumb
	.thumb_func
	.type	USART_RxISR_16BIT, %function
USART_RxISR_16BIT:
.LFB381:
	.loc 1 3358 1 is_stmt 1
	.cfi_startproc
	@ args = 0, pretend = 0, frame = 0
	@ frame_needed = 0, uses_anonymous_args = 0
.LVL327:
	.loc 1 3359 3
	.loc 1 3359 32 is_stmt 0
	ldrb	r3, [r0, #89]	@ zero_extendqisi2
	uxtb	r3, r3
.LVL328:
	.loc 1 3360 3 is_stmt 1
	.loc 1 3361 3
	.loc 1 3362 3
	.loc 1 3362 12 is_stmt 0
	ldrh	r2, [r0, #56]
.LVL329:
	.loc 1 3363 3 is_stmt 1
	.loc 1 3365 3
	.loc 1 3365 6 is_stmt 0
	cmp	r3, #50
	it	ne
	cmpne	r3, #34
	bne	.L489
	.loc 1 3358 1
	push	{r4, lr}
	.cfi_def_cfa_offset 8
	.cfi_offset 4, -8
	.cfi_offset 14, -4
	.loc 1 3368 5 is_stmt 1
	.loc 1 3368 9 is_stmt 0
	ldr	r1, [r0, #48]
.LVL330:
	.loc 1 3369 5 is_stmt 1
	.loc 1 3369 29 is_stmt 0
	ldr	r4, [r0]
	.loc 1 3369 39
	ldr	r4, [r4, #36]
	.loc 1 3369 12
	ands	r2, r2, r4
	.loc 1 3369 10
	strh	r2, [r1]	@ movhi
.LVL331:
	.loc 1 3370 5 is_stmt 1
	.loc 1 3370 11 is_stmt 0
	ldr	r2, [r0, #48]
	.loc 1 3370 24
	adds	r2, r2, #2
	str	r2, [r0, #48]
	.loc 1 3371 5 is_stmt 1
	.loc 1 3371 11 is_stmt 0
	ldrh	r2, [r0, #54]
	uxth	r2, r2
	.loc 1 3371 24
	subs	r2, r2, #1
	uxth	r2, r2
	strh	r2, [r0, #54]	@ movhi
	.loc 1 3373 5 is_stmt 1
	.loc 1 3373 15 is_stmt 0
	ldrh	r2, [r0, #54]
	uxth	r2, r2
	.loc 1 3373 8
	cmp	r2, #0
	bne	.L485
	.loc 1 3376 7 is_stmt 1
	.loc 1 3376 15 is_stmt 0
	ldr	r1, [r0]
.LVL332:
	.loc 1 3376 25
	ldr	r2, [r1]
	.loc 1 3376 32
	bic	r2, r2, #288
	str	r2, [r1]
	.loc 1 3379 7 is_stmt 1
	.loc 1 3379 15 is_stmt 0
	ldr	r1, [r0]
	.loc 1 3379 25
	ldr	r2, [r1, #8]
	.loc 1 3379 32
	bic	r2, r2, #1
	str	r2, [r1, #8]
	.loc 1 3382 7 is_stmt 1
	.loc 1 3382 21 is_stmt 0
	movs	r2, #0
	str	r2, [r0, #72]
	.loc 1 3385 7 is_stmt 1
	.loc 1 3385 24 is_stmt 0
	ldr	r4, [r0]
	.loc 1 3385 34
	ldr	r1, [r4, #8]
	.loc 1 3385 14
	and	r1, r1, #8388608
.LVL333:
	.loc 1 3386 7 is_stmt 1
	.loc 1 3386 19 is_stmt 0
	ldrh	r2, [r0, #46]
	uxth	r2, r2
.LVL334:
	.loc 1 3388 7 is_stmt 1
	.loc 1 3388 10 is_stmt 0
	cmp	r3, #34
	beq	.L492
	.loc 1 3408 12 is_stmt 1
	.loc 1 3408 35 is_stmt 0
	ldr	r3, [r4]
.LVL335:
	.loc 1 3408 15
	tst	r3, #64
	bne	.L483
	.loc 1 3410 29
	clz	r2, r2
.LVL336:
	lsrs	r2, r2, #5
	.loc 1 3409 45
	cbnz	r1, .L483
	cbz	r2, .L483
	.loc 1 3413 9 is_stmt 1
	.loc 1 3413 23 is_stmt 0
	movs	r3, #1
	strb	r3, [r0, #89]
	.loc 1 3420 9 is_stmt 1
	bl	HAL_USART_TxRxCpltCallback
.LVL337:
	b	.L483
.LVL338:
.L492:
	.loc 1 3391 9
	.loc 1 3391 19 is_stmt 0
	ldr	r3, [r0, #64]
.LVL339:
	.loc 1 3391 12
	cmp	r3, #1
	beq	.L493
.LVL340:
.L487:
	.loc 1 3398 9 is_stmt 1
	.loc 1 3398 23 is_stmt 0
	movs	r3, #1
	strb	r3, [r0, #89]
	.loc 1 3405 9 is_stmt 1
	bl	HAL_USART_RxCpltCallback
.LVL341:
	b	.L483
.LVL342:
.L493:
	.loc 1 3393 11
	.loc 1 3393 38 is_stmt 0
	mov	r3, #8192
	str	r3, [r4, #32]
	.loc 1 3394 11 is_stmt 1
	.loc 1 3394 20 is_stmt 0
	ldr	r2, [r0]
.LVL343:
	.loc 1 3394 30
	ldr	r3, [r2, #24]
	.loc 1 3394 36
	orr	r3, r3, #16
	str	r3, [r2, #24]
	b	.L487
.LVL344:
.L485:
	.loc 1 3428 10 is_stmt 1
	.loc 1 3428 13 is_stmt 0
	cmp	r3, #34
	beq	.L494
.LVL345:
.L483:
	.loc 1 3439 1
	pop	{r4, pc}
.LVL346:
.L494:
	.loc 1 3429 21 discriminator 1
	ldr	r3, [r0, #64]
.LVL347:
	.loc 1 3428 49 discriminator 1
	cmp	r3, #0
	bne	.L483
	.loc 1 3432 7 is_stmt 1
	.loc 1 3432 13 is_stmt 0
	ldr	r3, [r0]
	.loc 1 3432 29
	movs	r2, #255
	str	r2, [r3, #40]
	.loc 1 3437 5 is_stmt 1
	.loc 1 3439 1 is_stmt 0
	b	.L483
.LVL348:
.L489:
	.cfi_def_cfa_offset 0
	.cfi_restore 4
	.cfi_restore 14
	bx	lr
	.cfi_endproc
.LFE381:
	.size	USART_RxISR_16BIT, .-USART_RxISR_16BIT
	.section	.text.USART_RxISR_8BIT_FIFOEN,"ax",%progbits
	.align	1
	.syntax unified
	.thumb
	.thumb_func
	.type	USART_RxISR_8BIT_FIFOEN, %function
USART_RxISR_8BIT_FIFOEN:
.LFB382:
	.loc 1 3451 1 is_stmt 1
	.cfi_startproc
	@ args = 0, pretend = 0, frame = 0
	@ frame_needed = 0, uses_anonymous_args = 0
.LVL349:
	push	{r3, r4, r5, r6, r7, lr}
	.cfi_def_cfa_offset 24
	.cfi_offset 3, -24
	.cfi_offset 4, -20
	.cfi_offset 5, -16
	.cfi_offset 6, -12
	.cfi_offset 7, -8
	.cfi_offset 14, -4
	mov	r4, r0
	.loc 1 3452 3
	.loc 1 3452 26 is_stmt 0
	ldrb	r2, [r0, #89]	@ zero_extendqisi2
	uxtb	r2, r2
.LVL350:
	.loc 1 3453 3 is_stmt 1
	.loc 1 3454 3
	.loc 1 3455 3
	.loc 1 3455 12 is_stmt 0
	ldrh	r6, [r0, #56]
.LVL351:
	.loc 1 3456 3 is_stmt 1
	.loc 1 3457 3
	.loc 1 3460 3
	.loc 1 3460 6 is_stmt 0
	cmp	r2, #50
	it	ne
	cmpne	r2, #34
	bne	.L496
	.loc 1 3463 5 is_stmt 1
	.loc 1 3463 21 is_stmt 0
	ldrh	r5, [r0, #58]
.LVL352:
	.loc 1 3463 5
	b	.L497
.LVL353:
.L508:
	.loc 1 3490 13 is_stmt 1
	.loc 1 3490 23 is_stmt 0
	ldr	r3, [r4, #64]
.LVL354:
	.loc 1 3490 16
	cmp	r3, #1
	beq	.L505
.LVL355:
.L501:
	.loc 1 3497 13 is_stmt 1
	.loc 1 3497 27 is_stmt 0
	movs	r7, #1
	strb	r7, [r4, #89]
	.loc 1 3498 13 is_stmt 1
.LVL356:
	.loc 1 3505 13
	mov	r0, r4
	bl	HAL_USART_RxCpltCallback
.LVL357:
	.loc 1 3498 19 is_stmt 0
	mov	r2, r7
	b	.L498
.LVL358:
.L505:
	.loc 1 3492 15 is_stmt 1
	.loc 1 3492 42 is_stmt 0
	mov	r3, #8192
	str	r3, [r0, #32]
	.loc 1 3493 15 is_stmt 1
	.loc 1 3493 24 is_stmt 0
	ldr	r2, [r4]
.LVL359:
	.loc 1 3493 34
	ldr	r3, [r2, #24]
	.loc 1 3493 40
	orr	r3, r3, #16
	str	r3, [r2, #24]
	b	.L501
.LVL360:
.L499:
	.loc 1 3529 14 is_stmt 1
	.loc 1 3529 17 is_stmt 0
	cmp	r2, #34
	beq	.L506
.LVL361:
.L498:
	.loc 1 3538 9 is_stmt 1 discriminator 2
	.loc 1 3463 79 discriminator 2
	subs	r5, r5, #1
.LVL362:
	uxth	r5, r5
.LVL363:
.L497:
	.loc 1 3463 62 discriminator 1
	cmp	r5, #0
	beq	.L507
	.loc 1 3465 7
	.loc 1 3465 21 is_stmt 0
	ldr	r3, [r4]
	.loc 1 3465 31
	ldr	r1, [r3, #28]
	.loc 1 3465 10
	tst	r1, #32
	beq	.L498
	.loc 1 3467 9 is_stmt 1
	.loc 1 3467 57 is_stmt 0
	ldr	r0, [r3, #36]
	.loc 1 3467 65
	uxtb	r3, r6
	.loc 1 3467 16
	ldr	r1, [r4, #48]
	.loc 1 3467 31
	ands	r3, r3, r0
	.loc 1 3467 29
	strb	r3, [r1]
	.loc 1 3468 9 is_stmt 1
	.loc 1 3468 15 is_stmt 0
	ldr	r3, [r4, #48]
	.loc 1 3468 27
	adds	r3, r3, #1
	str	r3, [r4, #48]
	.loc 1 3469 9 is_stmt 1
	.loc 1 3469 15 is_stmt 0
	ldrh	r3, [r4, #54]
	uxth	r3, r3
	.loc 1 3469 28
	subs	r3, r3, #1
	uxth	r3, r3
	strh	r3, [r4, #54]	@ movhi
	.loc 1 3471 9 is_stmt 1
	.loc 1 3471 19 is_stmt 0
	ldrh	r3, [r4, #54]
	uxth	r3, r3
	.loc 1 3471 12
	cmp	r3, #0
	bne	.L499
	.loc 1 3474 11 is_stmt 1
	.loc 1 3474 19 is_stmt 0
	ldr	r1, [r4]
	.loc 1 3474 29
	ldr	r3, [r1]
	.loc 1 3474 36
	bic	r3, r3, #256
	str	r3, [r1]
	.loc 1 3478 11 is_stmt 1
	.loc 1 3478 19 is_stmt 0
	ldr	r1, [r4]
	.loc 1 3478 29
	ldr	r0, [r1, #8]
	.loc 1 3478 36
	ldr	r3, .L509
	ands	r3, r3, r0
	str	r3, [r1, #8]
	.loc 1 3481 11 is_stmt 1
	.loc 1 3481 25 is_stmt 0
	movs	r3, #0
	str	r3, [r4, #72]
	.loc 1 3484 11 is_stmt 1
	.loc 1 3484 28 is_stmt 0
	ldr	r0, [r4]
	.loc 1 3484 38
	ldr	r1, [r0, #8]
	.loc 1 3484 18
	and	r1, r1, #8388608
.LVL364:
	.loc 1 3485 11 is_stmt 1
	.loc 1 3485 23 is_stmt 0
	ldrh	r3, [r4, #46]
	uxth	r3, r3
.LVL365:
	.loc 1 3487 11 is_stmt 1
	.loc 1 3487 14 is_stmt 0
	cmp	r2, #34
	beq	.L508
	.loc 1 3508 16 is_stmt 1
	.loc 1 3508 39 is_stmt 0
	ldr	r0, [r0]
	.loc 1 3508 19
	tst	r0, #64
	bne	.L498
	.loc 1 3510 33
	clz	r3, r3
.LVL366:
	lsrs	r3, r3, #5
	.loc 1 3509 49
	cmp	r1, #0
	bne	.L498
	cmp	r3, #0
	beq	.L498
	.loc 1 3513 13 is_stmt 1
	.loc 1 3513 27 is_stmt 0
	movs	r7, #1
	strb	r7, [r4, #89]
	.loc 1 3514 13 is_stmt 1
.LVL367:
	.loc 1 3521 13
	mov	r0, r4
	bl	HAL_USART_TxRxCpltCallback
.LVL368:
	.loc 1 3514 19 is_stmt 0
	mov	r2, r7
	b	.L498
.LVL369:
.L506:
	.loc 1 3530 25 discriminator 1
	ldr	r3, [r4, #64]
	.loc 1 3529 53 discriminator 1
	cmp	r3, #0
	bne	.L498
	.loc 1 3533 11 is_stmt 1
	.loc 1 3533 17 is_stmt 0
	ldr	r3, [r4]
	.loc 1 3533 33
	movs	r1, #255
	str	r1, [r3, #40]
	b	.L498
.L507:
	.loc 1 3546 5 is_stmt 1
	.loc 1 3546 17 is_stmt 0
	ldrh	r3, [r4, #54]
	uxth	r3, r3
.LVL370:
	.loc 1 3547 5 is_stmt 1
	.loc 1 3547 8 is_stmt 0
	cbz	r3, .L495
	.loc 1 3547 55 discriminator 1
	ldrh	r1, [r4, #58]
	.loc 1 3547 31 discriminator 1
	cmp	r1, r3
	bls	.L495
	.loc 1 3550 7 is_stmt 1
	.loc 1 3550 15 is_stmt 0
	ldr	r1, [r4]
	.loc 1 3550 25
	ldr	r3, [r1, #8]
.LVL371:
	.loc 1 3550 32
	bic	r3, r3, #268435456
	str	r3, [r1, #8]
	.loc 1 3553 7 is_stmt 1
	.loc 1 3553 21 is_stmt 0
	ldr	r3, .L509+4
	str	r3, [r4, #72]
	.loc 1 3556 7 is_stmt 1
	.loc 1 3556 15 is_stmt 0
	ldr	r1, [r4]
	.loc 1 3556 25
	ldr	r3, [r1]
	.loc 1 3556 32
	orr	r3, r3, #32
	str	r3, [r1]
	.loc 1 3558 7 is_stmt 1
	.loc 1 3558 18 is_stmt 0
	ldrh	r3, [r4, #46]
	uxth	r3, r3
	.loc 1 3558 10
	cbnz	r3, .L495
	.loc 1 3558 39 discriminator 1
	cmp	r2, #50
	bne	.L495
	.loc 1 3560 18
	ldr	r3, [r4, #64]
	.loc 1 3559 49
	cbnz	r3, .L495
	.loc 1 3563 9 is_stmt 1
	.loc 1 3563 15 is_stmt 0
	ldr	r3, [r4]
	.loc 1 3563 31
	movs	r2, #255
.LVL372:
	str	r2, [r3, #40]
	b	.L495
.LVL373:
.L496:
	.loc 1 3570 5 is_stmt 1
	.loc 1 3570 14 is_stmt 0
	ldr	r2, [r0]
.LVL374:
	.loc 1 3570 24
	ldr	r3, [r2, #24]
	.loc 1 3570 30
	orr	r3, r3, #8
	str	r3, [r2, #24]
.LVL375:
.L495:
	.loc 1 3572 1
	pop	{r3, r4, r5, r6, r7, pc}
.LVL376:
.L510:
	.align	2
.L509:
	.word	-268435458
	.word	USART_RxISR_8BIT
	.cfi_endproc
.LFE382:
	.size	USART_RxISR_8BIT_FIFOEN, .-USART_RxISR_8BIT_FIFOEN
	.section	.text.USART_RxISR_16BIT_FIFOEN,"ax",%progbits
	.align	1
	.syntax unified
	.thumb
	.thumb_func
	.type	USART_RxISR_16BIT_FIFOEN, %function
USART_RxISR_16BIT_FIFOEN:
.LFB383:
	.loc 1 3584 1 is_stmt 1
	.cfi_startproc
	@ args = 0, pretend = 0, frame = 0
	@ frame_needed = 0, uses_anonymous_args = 0
.LVL377:
	push	{r3, r4, r5, r6, r7, lr}
	.cfi_def_cfa_offset 24
	.cfi_offset 3, -24
	.cfi_offset 4, -20
	.cfi_offset 5, -16
	.cfi_offset 6, -12
	.cfi_offset 7, -8
	.cfi_offset 14, -4
	mov	r4, r0
	.loc 1 3585 3
	.loc 1 3585 26 is_stmt 0
	ldrb	r2, [r0, #89]	@ zero_extendqisi2
	uxtb	r2, r2
.LVL378:
	.loc 1 3586 3 is_stmt 1
	.loc 1 3587 3
	.loc 1 3588 3
	.loc 1 3589 3
	.loc 1 3589 12 is_stmt 0
	ldrh	r6, [r0, #56]
.LVL379:
	.loc 1 3590 3 is_stmt 1
	.loc 1 3591 3
	.loc 1 3594 3
	.loc 1 3594 6 is_stmt 0
	cmp	r2, #50
	it	ne
	cmpne	r2, #34
	bne	.L512
	.loc 1 3597 5 is_stmt 1
	.loc 1 3597 21 is_stmt 0
	ldrh	r5, [r0, #58]
.LVL380:
	.loc 1 3597 5
	b	.L513
.LVL381:
.L524:
	.loc 1 3625 13 is_stmt 1
	.loc 1 3625 23 is_stmt 0
	ldr	r3, [r4, #64]
.LVL382:
	.loc 1 3625 16
	cmp	r3, #1
	beq	.L521
.LVL383:
.L517:
	.loc 1 3632 13 is_stmt 1
	.loc 1 3632 27 is_stmt 0
	movs	r7, #1
	strb	r7, [r4, #89]
	.loc 1 3633 13 is_stmt 1
.LVL384:
	.loc 1 3640 13
	mov	r0, r4
	bl	HAL_USART_RxCpltCallback
.LVL385:
	.loc 1 3633 19 is_stmt 0
	mov	r2, r7
	b	.L514
.LVL386:
.L521:
	.loc 1 3627 15 is_stmt 1
	.loc 1 3627 42 is_stmt 0
	mov	r3, #8192
	str	r3, [r0, #32]
	.loc 1 3628 15 is_stmt 1
	.loc 1 3628 24 is_stmt 0
	ldr	r2, [r4]
.LVL387:
	.loc 1 3628 34
	ldr	r3, [r2, #24]
	.loc 1 3628 40
	orr	r3, r3, #16
	str	r3, [r2, #24]
	b	.L517
.LVL388:
.L515:
	.loc 1 3664 14 is_stmt 1
	.loc 1 3664 17 is_stmt 0
	cmp	r2, #34
	beq	.L522
.LVL389:
.L514:
	.loc 1 3673 9 is_stmt 1 discriminator 2
	.loc 1 3597 79 discriminator 2
	subs	r5, r5, #1
.LVL390:
	uxth	r5, r5
.LVL391:
.L513:
	.loc 1 3597 62 discriminator 1
	cmp	r5, #0
	beq	.L523
	.loc 1 3599 7
	.loc 1 3599 21 is_stmt 0
	ldr	r3, [r4]
	.loc 1 3599 31
	ldr	r1, [r3, #28]
	.loc 1 3599 10
	tst	r1, #32
	beq	.L514
	.loc 1 3601 9 is_stmt 1
	.loc 1 3601 13 is_stmt 0
	ldr	r1, [r4, #48]
.LVL392:
	.loc 1 3602 9 is_stmt 1
	.loc 1 3602 43 is_stmt 0
	ldr	r3, [r3, #36]
	.loc 1 3602 16
	ands	r3, r3, r6
	.loc 1 3602 14
	strh	r3, [r1]	@ movhi
	.loc 1 3603 9 is_stmt 1
	.loc 1 3603 15 is_stmt 0
	ldr	r3, [r4, #48]
	.loc 1 3603 28
	adds	r3, r3, #2
	str	r3, [r4, #48]
	.loc 1 3604 9 is_stmt 1
	.loc 1 3604 15 is_stmt 0
	ldrh	r3, [r4, #54]
	uxth	r3, r3
	.loc 1 3604 28
	subs	r3, r3, #1
	uxth	r3, r3
	strh	r3, [r4, #54]	@ movhi
	.loc 1 3606 9 is_stmt 1
	.loc 1 3606 19 is_stmt 0
	ldrh	r3, [r4, #54]
	uxth	r3, r3
	.loc 1 3606 12
	cmp	r3, #0
	bne	.L515
	.loc 1 3609 11 is_stmt 1
	.loc 1 3609 19 is_stmt 0
	ldr	r1, [r4]
.LVL393:
	.loc 1 3609 29
	ldr	r3, [r1]
	.loc 1 3609 36
	bic	r3, r3, #256
	str	r3, [r1]
	.loc 1 3613 11 is_stmt 1
	.loc 1 3613 19 is_stmt 0
	ldr	r1, [r4]
	.loc 1 3613 29
	ldr	r0, [r1, #8]
	.loc 1 3613 36
	ldr	r3, .L525
	ands	r3, r3, r0
	str	r3, [r1, #8]
	.loc 1 3616 11 is_stmt 1
	.loc 1 3616 25 is_stmt 0
	movs	r3, #0
	str	r3, [r4, #72]
	.loc 1 3619 11 is_stmt 1
	.loc 1 3619 28 is_stmt 0
	ldr	r0, [r4]
	.loc 1 3619 38
	ldr	r1, [r0, #8]
	.loc 1 3619 18
	and	r1, r1, #8388608
.LVL394:
	.loc 1 3620 11 is_stmt 1
	.loc 1 3620 23 is_stmt 0
	ldrh	r3, [r4, #46]
	uxth	r3, r3
.LVL395:
	.loc 1 3622 11 is_stmt 1
	.loc 1 3622 14 is_stmt 0
	cmp	r2, #34
	beq	.L524
	.loc 1 3643 16 is_stmt 1
	.loc 1 3643 39 is_stmt 0
	ldr	r0, [r0]
	.loc 1 3643 19
	tst	r0, #64
	bne	.L514
	.loc 1 3645 33
	clz	r3, r3
.LVL396:
	lsrs	r3, r3, #5
	.loc 1 3644 49
	cmp	r1, #0
	bne	.L514
	cmp	r3, #0
	beq	.L514
	.loc 1 3648 13 is_stmt 1
	.loc 1 3648 27 is_stmt 0
	movs	r7, #1
	strb	r7, [r4, #89]
	.loc 1 3649 13 is_stmt 1
.LVL397:
	.loc 1 3656 13
	mov	r0, r4
	bl	HAL_USART_TxRxCpltCallback
.LVL398:
	.loc 1 3649 19 is_stmt 0
	mov	r2, r7
	b	.L514
.LVL399:
.L522:
	.loc 1 3665 25 discriminator 1
	ldr	r3, [r4, #64]
	.loc 1 3664 53 discriminator 1
	cmp	r3, #0
	bne	.L514
	.loc 1 3668 11 is_stmt 1
	.loc 1 3668 17 is_stmt 0
	ldr	r3, [r4]
	.loc 1 3668 33
	movs	r1, #255
.LVL400:
	str	r1, [r3, #40]
	b	.L514
.LVL401:
.L523:
	.loc 1 3681 5 is_stmt 1
	.loc 1 3681 17 is_stmt 0
	ldrh	r3, [r4, #54]
	uxth	r3, r3
.LVL402:
	.loc 1 3682 5 is_stmt 1
	.loc 1 3682 8 is_stmt 0
	cbz	r3, .L511
	.loc 1 3682 55 discriminator 1
	ldrh	r1, [r4, #58]
	.loc 1 3682 31 discriminator 1
	cmp	r1, r3
	bls	.L511
	.loc 1 3685 7 is_stmt 1
	.loc 1 3685 15 is_stmt 0
	ldr	r1, [r4]
	.loc 1 3685 25
	ldr	r3, [r1, #8]
.LVL403:
	.loc 1 3685 32
	bic	r3, r3, #268435456
	str	r3, [r1, #8]
	.loc 1 3688 7 is_stmt 1
	.loc 1 3688 21 is_stmt 0
	ldr	r3, .L525+4
	str	r3, [r4, #72]
	.loc 1 3691 7 is_stmt 1
	.loc 1 3691 15 is_stmt 0
	ldr	r1, [r4]
	.loc 1 3691 25
	ldr	r3, [r1]
	.loc 1 3691 32
	orr	r3, r3, #32
	str	r3, [r1]
	.loc 1 3693 7 is_stmt 1
	.loc 1 3693 18 is_stmt 0
	ldrh	r3, [r4, #46]
	uxth	r3, r3
	.loc 1 3693 10
	cbnz	r3, .L511
	.loc 1 3693 39 discriminator 1
	cmp	r2, #50
	bne	.L511
	.loc 1 3695 18
	ldr	r3, [r4, #64]
	.loc 1 3694 49
	cbnz	r3, .L511
	.loc 1 3698 9 is_stmt 1
	.loc 1 3698 15 is_stmt 0
	ldr	r3, [r4]
	.loc 1 3698 31
	movs	r2, #255
.LVL404:
	str	r2, [r3, #40]
	b	.L511
.LVL405:
.L512:
	.loc 1 3705 5 is_stmt 1
	.loc 1 3705 14 is_stmt 0
	ldr	r2, [r0]
.LVL406:
	.loc 1 3705 24
	ldr	r3, [r2, #24]
	.loc 1 3705 30
	orr	r3, r3, #8
	str	r3, [r2, #24]
.LVL407:
.L511:
	.loc 1 3707 1
	pop	{r3, r4, r5, r6, r7, pc}
.LVL408:
.L526:
	.align	2
.L525:
	.word	-268435458
	.word	USART_RxISR_16BIT
	.cfi_endproc
.LFE383:
	.size	USART_RxISR_16BIT_FIFOEN, .-USART_RxISR_16BIT_FIFOEN
	.section	.text.USART_DMAReceiveCplt,"ax",%progbits
	.align	1
	.syntax unified
	.thumb
	.thumb_func
	.type	USART_DMAReceiveCplt, %function
USART_DMAReceiveCplt:
.LFB366:
	.loc 1 2611 1 is_stmt 1
	.cfi_startproc
	@ args = 0, pretend = 0, frame = 0
	@ frame_needed = 0, uses_anonymous_args = 0
.LVL409:
	push	{r4, lr}
	.cfi_def_cfa_offset 8
	.cfi_offset 4, -8
	.cfi_offset 14, -4
	.loc 1 2612 3
	.loc 1 2612 24 is_stmt 0
	ldr	r4, [r0, #56]
.LVL410:
	.loc 1 2615 3 is_stmt 1
	.loc 1 2615 17 is_stmt 0
	ldr	r3, [r0, #28]
	.loc 1 2615 6
	cmp	r3, #256
	beq	.L528
	.loc 1 2617 5 is_stmt 1
	.loc 1 2617 25 is_stmt 0
	movs	r3, #0
	strh	r3, [r4, #54]	@ movhi
	.loc 1 2620 5 is_stmt 1
	.loc 1 2620 13 is_stmt 0
	ldr	r2, [r4]
	.loc 1 2620 23
	ldr	r3, [r2]
	.loc 1 2620 30
	bic	r3, r3, #256
	str	r3, [r2]
	.loc 1 2621 5 is_stmt 1
	.loc 1 2621 13 is_stmt 0
	ldr	r2, [r4]
	.loc 1 2621 23
	ldr	r3, [r2, #8]
	.loc 1 2621 30
	bic	r3, r3, #1
	str	r3, [r2, #8]
	.loc 1 2625 5 is_stmt 1
	.loc 1 2625 13 is_stmt 0
	ldr	r2, [r4]
	.loc 1 2625 23
	ldr	r3, [r2, #8]
	.loc 1 2625 30
	bic	r3, r3, #64
	str	r3, [r2, #8]
	.loc 1 2628 5 is_stmt 1
	.loc 1 2628 13 is_stmt 0
	ldr	r2, [r4]
	.loc 1 2628 23
	ldr	r3, [r2, #8]
	.loc 1 2628 30
	bic	r3, r3, #128
	str	r3, [r2, #8]
	.loc 1 2630 5 is_stmt 1
	.loc 1 2630 15 is_stmt 0
	ldrb	r3, [r4, #89]	@ zero_extendqisi2
	uxtb	r3, r3
	.loc 1 2630 8
	cmp	r3, #34
	beq	.L534
	.loc 1 2648 7 is_stmt 1
	mov	r0, r4
.LVL411:
	bl	HAL_USART_TxRxCpltCallback
.LVL412:
.L530:
	.loc 1 2651 5
	.loc 1 2651 19 is_stmt 0
	movs	r3, #1
	strb	r3, [r4, #89]
.L527:
	.loc 1 2678 1
	pop	{r4, pc}
.LVL413:
.L534:
	.loc 1 2637 7 is_stmt 1
	mov	r0, r4
.LVL414:
	bl	HAL_USART_RxCpltCallback
.LVL415:
	b	.L530
.LVL416:
.L528:
	.loc 1 2656 5
	.loc 1 2656 15 is_stmt 0
	ldrb	r3, [r4, #89]	@ zero_extendqisi2
	uxtb	r3, r3
	.loc 1 2656 8
	cmp	r3, #34
	beq	.L535
	.loc 1 2674 7 is_stmt 1
	mov	r0, r4
.LVL417:
	bl	HAL_USART_TxRxCpltCallback
.LVL418:
	.loc 1 2678 1 is_stmt 0
	b	.L527
.LVL419:
.L535:
	.loc 1 2663 7 is_stmt 1
	mov	r0, r4
.LVL420:
	bl	HAL_USART_RxCpltCallback
.LVL421:
	b	.L527
	.cfi_endproc
.LFE366:
	.size	USART_DMAReceiveCplt, .-USART_DMAReceiveCplt
	.section	.text.USART_EndTransmit_IT,"ax",%progbits
	.align	1
	.syntax unified
	.thumb
	.thumb_func
	.type	USART_EndTransmit_IT, %function
USART_EndTransmit_IT:
.LFB379:
	.loc 1 3210 1
	.cfi_startproc
	@ args = 0, pretend = 0, frame = 0
	@ frame_needed = 0, uses_anonymous_args = 0
.LVL422:
	push	{r3, lr}
	.cfi_def_cfa_offset 8
	.cfi_offset 3, -8
	.cfi_offset 14, -4
	.loc 1 3212 3
	.loc 1 3212 52 is_stmt 0
	ldr	r2, [r0]
	.loc 1 3212 62
	ldr	r3, [r2]
	.loc 1 3212 68
	bic	r3, r3, #64
	.loc 1 3212 103
	str	r3, [r2]
	.loc 1 3215 3 is_stmt 1
	.loc 1 3215 215 is_stmt 0
	ldr	r2, [r0]
	.loc 1 3215 225
	ldr	r3, [r2, #8]
	.loc 1 3215 231
	bic	r3, r3, #1
	.loc 1 3215 103
	str	r3, [r2, #8]
	.loc 1 3218 3 is_stmt 1
	.loc 1 3218 17 is_stmt 0
	movs	r3, #0
	str	r3, [r0, #76]
	.loc 1 3220 3 is_stmt 1
	.loc 1 3220 13 is_stmt 0
	ldrb	r3, [r0, #89]	@ zero_extendqisi2
	uxtb	r3, r3
	.loc 1 3220 6
	cmp	r3, #18
	beq	.L540
	.loc 1 3237 8 is_stmt 1
	.loc 1 3237 18 is_stmt 0
	ldrh	r3, [r0, #54]
	uxth	r3, r3
	.loc 1 3237 11
	cbz	r3, .L541
.LVL423:
.L536:
	.loc 1 3254 1
	pop	{r3, pc}
.LVL424:
.L540:
	.loc 1 3223 5 is_stmt 1
	.loc 1 3223 16 is_stmt 0
	ldr	r3, [r0]
	.loc 1 3223 32
	movs	r2, #8
	str	r2, [r3, #32]
	.loc 1 3224 5 is_stmt 1
	.loc 1 3224 14 is_stmt 0
	ldr	r2, [r0]
	.loc 1 3224 24
	ldr	r3, [r2, #24]
	.loc 1 3224 30
	orr	r3, r3, #8
	str	r3, [r2, #24]
	.loc 1 3227 5 is_stmt 1
	.loc 1 3227 19 is_stmt 0
	movs	r3, #1
	strb	r3, [r0, #89]
	.loc 1 3234 5 is_stmt 1
	bl	HAL_USART_TxCpltCallback
.LVL425:
	b	.L536
.LVL426:
.L541:
	.loc 1 3240 5
	.loc 1 3240 19 is_stmt 0
	movs	r3, #1
	strb	r3, [r0, #89]
	.loc 1 3247 5 is_stmt 1
	bl	HAL_USART_TxRxCpltCallback
.LVL427:
	.loc 1 3253 3
	.loc 1 3254 1 is_stmt 0
	b	.L536
	.cfi_endproc
.LFE379:
	.size	USART_EndTransmit_IT, .-USART_EndTransmit_IT
	.section	.text.HAL_USART_ErrorCallback,"ax",%progbits
	.align	1
	.weak	HAL_USART_ErrorCallback
	.syntax unified
	.thumb
	.thumb_func
	.type	HAL_USART_ErrorCallback, %function
HAL_USART_ErrorCallback:
.LFB359:
	.loc 1 2431 1 is_stmt 1
	.cfi_startproc
	@ args = 0, pretend = 0, frame = 0
	@ frame_needed = 0, uses_anonymous_args = 0
	@ link register save eliminated.
.LVL428:
	.loc 1 2433 3
	.loc 1 2438 1 is_stmt 0
	bx	lr
	.cfi_endproc
.LFE359:
	.size	HAL_USART_ErrorCallback, .-HAL_USART_ErrorCallback
	.section	.text.USART_DMAError,"ax",%progbits
	.align	1
	.syntax unified
	.thumb
	.thumb_func
	.type	USART_DMAError, %function
USART_DMAError:
.LFB368:
	.loc 1 2704 1 is_stmt 1
	.cfi_startproc
	@ args = 0, pretend = 0, frame = 0
	@ frame_needed = 0, uses_anonymous_args = 0
.LVL429:
	push	{r4, lr}
	.cfi_def_cfa_offset 8
	.cfi_offset 4, -8
	.cfi_offset 14, -4
	.loc 1 2705 3
	.loc 1 2705 24 is_stmt 0
	ldr	r4, [r0, #56]
.LVL430:
	.loc 1 2707 3 is_stmt 1
	.loc 1 2707 23 is_stmt 0
	movs	r3, #0
	strh	r3, [r4, #54]	@ movhi
	.loc 1 2708 3 is_stmt 1
	.loc 1 2708 23 is_stmt 0
	strh	r3, [r4, #46]	@ movhi
	.loc 1 2709 3 is_stmt 1
	mov	r0, r4
.LVL431:
	bl	USART_EndTransfer
.LVL432:
	.loc 1 2711 3
	.loc 1 2711 9 is_stmt 0
	ldr	r3, [r4, #92]
	.loc 1 2711 21
	orr	r3, r3, #16
	str	r3, [r4, #92]
	.loc 1 2712 3 is_stmt 1
	.loc 1 2712 17 is_stmt 0
	movs	r3, #1
	strb	r3, [r4, #89]
	.loc 1 2719 3 is_stmt 1
	mov	r0, r4
	bl	HAL_USART_ErrorCallback
.LVL433:
	.loc 1 2721 1 is_stmt 0
	pop	{r4, pc}
	.cfi_endproc
.LFE368:
	.size	USART_DMAError, .-USART_DMAError
	.section	.text.HAL_USART_IRQHandler,"ax",%progbits
	.align	1
	.global	HAL_USART_IRQHandler
	.syntax unified
	.thumb
	.thumb_func
	.type	HAL_USART_IRQHandler, %function
HAL_USART_IRQHandler:
.LFB353:
	.loc 1 2116 1 is_stmt 1
	.cfi_startproc
	@ args = 0, pretend = 0, frame = 0
	@ frame_needed = 0, uses_anonymous_args = 0
.LVL434:
	push	{r4, r5, r6, lr}
	.cfi_def_cfa_offset 16
	.cfi_offset 4, -16
	.cfi_offset 5, -12
	.cfi_offset 6, -8
	.cfi_offset 14, -4
	mov	r4, r0
	.loc 1 2117 3
	.loc 1 2117 31 is_stmt 0
	ldr	r2, [r0]
	.loc 1 2117 12
	ldr	r3, [r2, #28]
.LVL435:
	.loc 1 2118 3 is_stmt 1
	.loc 1 2118 12 is_stmt 0
	ldr	r0, [r2]
.LVL436:
	.loc 1 2119 3 is_stmt 1
	.loc 1 2119 12 is_stmt 0
	ldr	r1, [r2, #8]
.LVL437:
	.loc 1 2121 3 is_stmt 1
	.loc 1 2122 3
	.loc 1 2125 3
	.loc 1 2127 3
	.loc 1 2127 6 is_stmt 0
	movw	ip, #10255
	tst	r3, ip
	bne	.L546
	.loc 1 2130 5 is_stmt 1
	.loc 1 2130 8 is_stmt 0
	tst	r3, #32
	beq	.L547
	.loc 1 2131 9
	tst	r0, #32
	bne	.L548
	.loc 1 2132 13
	tst	r1, #268435456
	bne	.L548
.L547:
	.loc 1 2305 3 is_stmt 1
	.loc 1 2305 6 is_stmt 0
	tst	r3, #128
	beq	.L568
	.loc 1 2306 7
	tst	r0, #128
	bne	.L569
	.loc 1 2307 11
	tst	r1, #8388608
	bne	.L569
.L568:
	.loc 1 2317 3 is_stmt 1
	.loc 1 2317 6 is_stmt 0
	tst	r3, #64
	beq	.L571
	.loc 1 2317 44 discriminator 1
	tst	r0, #64
	bne	.L574
.L571:
	.loc 1 2324 3 is_stmt 1
	.loc 1 2324 6 is_stmt 0
	tst	r3, #8388608
	beq	.L572
	.loc 1 2324 45 discriminator 1
	tst	r0, #1073741824
	bne	.L575
.L572:
	.loc 1 2337 3 is_stmt 1
	.loc 1 2337 6 is_stmt 0
	tst	r3, #16777216
	beq	.L545
	.loc 1 2337 45 discriminator 1
	cmp	r0, #0
	blt	.L576
.LVL438:
.L545:
	.loc 1 2348 1
	pop	{r4, r5, r6, pc}
.LVL439:
.L548:
	.loc 1 2134 7 is_stmt 1
	.loc 1 2134 17 is_stmt 0
	ldr	r3, [r4, #72]
.LVL440:
	.loc 1 2134 10
	cmp	r3, #0
	beq	.L545
	.loc 1 2136 9 is_stmt 1
	mov	r0, r4
.LVL441:
	blx	r3
.LVL442:
	.loc 1 2138 7
	b	.L545
.LVL443:
.L546:
	.loc 1 2144 20 is_stmt 0
	ldr	r5, .L578
	.loc 1 2144 7
	ands	r5, r1, r5
	bne	.L551
	.loc 1 2145 11
	tst	r0, #288
	beq	.L547
.L551:
	.loc 1 2148 5 is_stmt 1
	.loc 1 2148 8 is_stmt 0
	tst	r3, #1
	beq	.L552
	.loc 1 2148 46 discriminator 1
	tst	r0, #256
	beq	.L552
	.loc 1 2150 7 is_stmt 1
	.loc 1 2150 32 is_stmt 0
	movs	r6, #1
	str	r6, [r2, #32]
	.loc 1 2152 7 is_stmt 1
	.loc 1 2152 13 is_stmt 0
	ldr	r2, [r4, #92]
	.loc 1 2152 25
	orrs	r2, r2, r6
	str	r2, [r4, #92]
.L552:
	.loc 1 2156 5 is_stmt 1
	.loc 1 2156 8 is_stmt 0
	tst	r3, #2
	beq	.L553
	.loc 1 2156 46 discriminator 1
	tst	r1, #1
	beq	.L553
	.loc 1 2158 7 is_stmt 1
	.loc 1 2158 16 is_stmt 0
	ldr	r2, [r4]
	.loc 1 2158 32
	movs	r6, #2
	str	r6, [r2, #32]
	.loc 1 2160 7 is_stmt 1
	.loc 1 2160 13 is_stmt 0
	ldr	r2, [r4, #92]
	.loc 1 2160 25
	orr	r2, r2, #4
	str	r2, [r4, #92]
.L553:
	.loc 1 2164 5 is_stmt 1
	.loc 1 2164 8 is_stmt 0
	tst	r3, #4
	beq	.L554
	.loc 1 2164 46 discriminator 1
	tst	r1, #1
	beq	.L554
	.loc 1 2166 7 is_stmt 1
	.loc 1 2166 16 is_stmt 0
	ldr	r2, [r4]
	.loc 1 2166 32
	movs	r6, #4
	str	r6, [r2, #32]
	.loc 1 2168 7 is_stmt 1
	.loc 1 2168 13 is_stmt 0
	ldr	r2, [r4, #92]
	.loc 1 2168 25
	orr	r2, r2, #2
	str	r2, [r4, #92]
.L554:
	.loc 1 2172 5 is_stmt 1
	.loc 1 2172 8 is_stmt 0
	tst	r3, #8
	beq	.L555
	.loc 1 2173 9
	tst	r0, #32
	bne	.L556
	.loc 1 2173 48 discriminator 1
	cbz	r5, .L555
.L556:
	.loc 1 2176 7 is_stmt 1
	.loc 1 2176 16 is_stmt 0
	ldr	r2, [r4]
	.loc 1 2176 32
	movs	r5, #8
	str	r5, [r2, #32]
	.loc 1 2178 7 is_stmt 1
	.loc 1 2178 13 is_stmt 0
	ldr	r2, [r4, #92]
	.loc 1 2178 25
	orrs	r2, r2, r5
	str	r2, [r4, #92]
.L555:
	.loc 1 2182 5 is_stmt 1
	.loc 1 2182 8 is_stmt 0
	tst	r3, #2048
	beq	.L557
	.loc 1 2182 47 discriminator 1
	tst	r0, #67108864
	beq	.L557
	.loc 1 2184 7 is_stmt 1
	.loc 1 2184 16 is_stmt 0
	ldr	r2, [r4]
	.loc 1 2184 32
	mov	r5, #2048
	str	r5, [r2, #32]
	.loc 1 2186 7 is_stmt 1
	.loc 1 2186 13 is_stmt 0
	ldr	r2, [r4, #92]
	.loc 1 2186 25
	orr	r2, r2, #128
	str	r2, [r4, #92]
.L557:
	.loc 1 2190 5 is_stmt 1
	.loc 1 2190 8 is_stmt 0
	tst	r3, #8192
	beq	.L558
	.loc 1 2190 47 discriminator 1
	tst	r1, #1
	beq	.L558
	.loc 1 2193 7 is_stmt 1
	.loc 1 2193 17 is_stmt 0
	ldrb	r2, [r4, #89]	@ zero_extendqisi2
	uxtb	r2, r2
	.loc 1 2193 10
	cmp	r2, #34
	beq	.L577
	.loc 1 2200 9 is_stmt 1
	.loc 1 2200 20 is_stmt 0
	ldr	r2, [r4]
	.loc 1 2200 36
	mov	r5, #8192
	str	r5, [r2, #32]
	.loc 1 2201 9 is_stmt 1
	.loc 1 2201 15 is_stmt 0
	ldr	r2, [r4, #92]
	.loc 1 2201 27
	orr	r2, r2, #32
	str	r2, [r4, #92]
.L558:
	.loc 1 2206 5 is_stmt 1
	.loc 1 2206 15 is_stmt 0
	ldr	r2, [r4, #92]
	.loc 1 2206 8
	cmp	r2, #0
	beq	.L545
	.loc 1 2209 7 is_stmt 1
	.loc 1 2209 10 is_stmt 0
	tst	r3, #32
	beq	.L561
	.loc 1 2210 11
	tst	r0, #32
	bne	.L562
	.loc 1 2211 15
	tst	r1, #268435456
	beq	.L561
.L562:
	.loc 1 2213 9 is_stmt 1
	.loc 1 2213 19 is_stmt 0
	ldr	r3, [r4, #72]
.LVL444:
	.loc 1 2213 12
	cbz	r3, .L561
	.loc 1 2215 11 is_stmt 1
	mov	r0, r4
.LVL445:
	blx	r3
.LVL446:
.L561:
	.loc 1 2221 7
	.loc 1 2221 25 is_stmt 0
	ldr	r3, [r4, #92]
	.loc 1 2221 17
	and	r3, r3, #8
.LVL447:
	.loc 1 2222 7 is_stmt 1
	.loc 1 2222 21 is_stmt 0
	ldr	r2, [r4]
	.loc 1 2222 31
	ldr	r2, [r2, #8]
	.loc 1 2222 10
	tst	r2, #64
	bne	.L563
	.loc 1 2222 82 discriminator 1
	cbz	r3, .L564
.L563:
	.loc 1 2228 9 is_stmt 1
	mov	r0, r4
	bl	USART_EndTransfer
.LVL448:
	.loc 1 2231 9
	.loc 1 2231 22 is_stmt 0
	ldr	r3, [r4]
	.loc 1 2231 32
	ldr	r2, [r3, #8]
	.loc 1 2231 12
	tst	r2, #64
	beq	.L565
	.loc 1 2234 11 is_stmt 1
	.loc 1 2234 29 is_stmt 0
	ldr	r2, [r3, #8]
	.loc 1 2234 36
	bic	r2, r2, #64
	str	r2, [r3, #8]
	.loc 1 2237 11 is_stmt 1
	.loc 1 2237 21 is_stmt 0
	ldr	r3, [r4, #80]
	.loc 1 2237 14
	cbz	r3, .L566
	.loc 1 2241 13 is_stmt 1
	.loc 1 2241 47 is_stmt 0
	movs	r2, #0
	str	r2, [r3, #80]
	.loc 1 2244 13 is_stmt 1
	.loc 1 2244 19 is_stmt 0
	ldr	r0, [r4, #80]
	bl	HAL_DMA_Abort_IT
.LVL449:
.L566:
	.loc 1 2248 11 is_stmt 1
	.loc 1 2248 21 is_stmt 0
	ldr	r3, [r4, #84]
	.loc 1 2248 14
	cbz	r3, .L567
	.loc 1 2252 13 is_stmt 1
	.loc 1 2252 47 is_stmt 0
	ldr	r2, .L578+4
	str	r2, [r3, #80]
	.loc 1 2255 13 is_stmt 1
	.loc 1 2255 17 is_stmt 0
	ldr	r0, [r4, #84]
	bl	HAL_DMA_Abort_IT
.LVL450:
	.loc 1 2255 16
	cmp	r0, #0
	beq	.L545
	.loc 1 2258 15 is_stmt 1
	.loc 1 2258 21 is_stmt 0
	ldr	r0, [r4, #84]
	.loc 1 2258 29
	ldr	r3, [r0, #80]
	.loc 1 2258 15
	blx	r3
.LVL451:
	b	.L545
.LVL452:
.L577:
	.loc 1 2195 9 is_stmt 1
	.loc 1 2195 20 is_stmt 0
	ldr	r3, [r4]
.LVL453:
	.loc 1 2195 36
	mov	r2, #8192
	str	r2, [r3, #32]
	.loc 1 2196 9 is_stmt 1
	b	.L545
.LVL454:
.L567:
	.loc 1 2269 13
	mov	r0, r4
	bl	HAL_USART_ErrorCallback
.LVL455:
	b	.L545
.L565:
	.loc 1 2281 11
	mov	r0, r4
	bl	HAL_USART_ErrorCallback
.LVL456:
	b	.L545
.LVL457:
.L564:
	.loc 1 2294 9
	mov	r0, r4
	bl	HAL_USART_ErrorCallback
.LVL458:
	.loc 1 2296 9
	.loc 1 2296 27 is_stmt 0
	movs	r3, #0
	str	r3, [r4, #92]
	.loc 1 2299 5 is_stmt 1
	b	.L545
.LVL459:
.L569:
	.loc 1 2309 5
	.loc 1 2309 15 is_stmt 0
	ldr	r3, [r4, #76]
.LVL460:
	.loc 1 2309 8
	cmp	r3, #0
	beq	.L545
	.loc 1 2311 7 is_stmt 1
	mov	r0, r4
.LVL461:
	blx	r3
.LVL462:
	.loc 1 2313 5
	b	.L545
.LVL463:
.L574:
	.loc 1 2319 5
	mov	r0, r4
.LVL464:
	bl	USART_EndTransmit_IT
.LVL465:
	.loc 1 2320 5
	b	.L545
.LVL466:
.L575:
	.loc 1 2331 5
	mov	r0, r4
.LVL467:
	bl	HAL_USARTEx_TxFifoEmptyCallback
.LVL468:
	.loc 1 2333 5
	b	.L545
.LVL469:
.L576:
	.loc 1 2344 5
	mov	r0, r4
.LVL470:
	bl	HAL_USARTEx_RxFifoFullCallback
.LVL471:
	.loc 1 2346 5
	b	.L545
.L579:
	.align	2
.L578:
	.word	268435457
	.word	USART_DMAAbortOnError
	.cfi_endproc
.LFE353:
	.size	HAL_USART_IRQHandler, .-HAL_USART_IRQHandler
	.section	.text.USART_DMAAbortOnError,"ax",%progbits
	.align	1
	.syntax unified
	.thumb
	.thumb_func
	.type	USART_DMAAbortOnError, %function
USART_DMAAbortOnError:
.LFB369:
	.loc 1 2730 1
	.cfi_startproc
	@ args = 0, pretend = 0, frame = 0
	@ frame_needed = 0, uses_anonymous_args = 0
.LVL472:
	push	{r3, lr}
	.cfi_def_cfa_offset 8
	.cfi_offset 3, -8
	.cfi_offset 14, -4
	.loc 1 2731 3
	.loc 1 2731 24 is_stmt 0
	ldr	r0, [r0, #56]
.LVL473:
	.loc 1 2732 3 is_stmt 1
	.loc 1 2732 23 is_stmt 0
	movs	r3, #0
	strh	r3, [r0, #54]	@ movhi
	.loc 1 2733 3 is_stmt 1
	.loc 1 2733 23 is_stmt 0
	strh	r3, [r0, #46]	@ movhi
	.loc 1 2740 3 is_stmt 1
	bl	HAL_USART_ErrorCallback
.LVL474:
	.loc 1 2742 1 is_stmt 0
	pop	{r3, pc}
	.cfi_endproc
.LFE369:
	.size	USART_DMAAbortOnError, .-USART_DMAAbortOnError
	.section	.text.HAL_USART_AbortCpltCallback,"ax",%progbits
	.align	1
	.weak	HAL_USART_AbortCpltCallback
	.syntax unified
	.thumb
	.thumb_func
	.type	HAL_USART_AbortCpltCallback, %function
HAL_USART_AbortCpltCallback:
.LFB360:
	.loc 1 2446 1 is_stmt 1
	.cfi_startproc
	@ args = 0, pretend = 0, frame = 0
	@ frame_needed = 0, uses_anonymous_args = 0
	@ link register save eliminated.
.LVL475:
	.loc 1 2448 3
	.loc 1 2453 1 is_stmt 0
	bx	lr
	.cfi_endproc
.LFE360:
	.size	HAL_USART_AbortCpltCallback, .-HAL_USART_AbortCpltCallback
	.section	.text.HAL_USART_Abort_IT,"ax",%progbits
	.align	1
	.global	HAL_USART_Abort_IT
	.syntax unified
	.thumb
	.thumb_func
	.type	HAL_USART_Abort_IT, %function
HAL_USART_Abort_IT:
.LFB352:
	.loc 1 1984 1 is_stmt 1
	.cfi_startproc
	@ args = 0, pretend = 0, frame = 0
	@ frame_needed = 0, uses_anonymous_args = 0
.LVL476:
	push	{r4, lr}
	.cfi_def_cfa_offset 8
	.cfi_offset 4, -8
	.cfi_offset 14, -4
	mov	r4, r0
	.loc 1 1985 3
.LVL477:
	.loc 1 1988 3
	.loc 1 1988 11 is_stmt 0
	ldr	r2, [r0]
	.loc 1 1988 21
	ldr	r3, [r2]
	.loc 1 1988 28
	bic	r3, r3, #480
	str	r3, [r2]
	.loc 1 1990 3 is_stmt 1
	.loc 1 1990 11 is_stmt 0
	ldr	r2, [r0]
	.loc 1 1990 21
	ldr	r1, [r2, #8]
	.loc 1 1990 28
	ldr	r3, .L598
	ands	r3, r3, r1
	str	r3, [r2, #8]
	.loc 1 1995 3 is_stmt 1
	.loc 1 1995 13 is_stmt 0
	ldr	r3, [r0, #80]
	.loc 1 1995 6
	cbz	r3, .L584
	.loc 1 1999 5 is_stmt 1
	.loc 1 1999 18 is_stmt 0
	ldr	r2, [r0]
	.loc 1 1999 28
	ldr	r2, [r2, #8]
	.loc 1 1999 8
	tst	r2, #128
	beq	.L585
	.loc 1 2001 7 is_stmt 1
	.loc 1 2001 41 is_stmt 0
	ldr	r2, .L598+4
	str	r2, [r3, #80]
.L584:
	.loc 1 2009 3 is_stmt 1
	.loc 1 2009 13 is_stmt 0
	ldr	r3, [r4, #84]
	.loc 1 2009 6
	cbz	r3, .L586
	.loc 1 2013 5 is_stmt 1
	.loc 1 2013 18 is_stmt 0
	ldr	r2, [r4]
	.loc 1 2013 28
	ldr	r2, [r2, #8]
	.loc 1 2013 8
	tst	r2, #64
	beq	.L587
	.loc 1 2015 7 is_stmt 1
	.loc 1 2015 41 is_stmt 0
	ldr	r2, .L598+8
	str	r2, [r3, #80]
.L586:
	.loc 1 2024 3 is_stmt 1
	.loc 1 2024 16 is_stmt 0
	ldr	r3, [r4]
	.loc 1 2024 26
	ldr	r2, [r3, #8]
	.loc 1 2024 6
	tst	r2, #128
	beq	.L593
	.loc 1 2027 5 is_stmt 1
	.loc 1 2027 23 is_stmt 0
	ldr	r2, [r3, #8]
	.loc 1 2027 30
	bic	r2, r2, #128
	str	r2, [r3, #8]
	.loc 1 2030 5 is_stmt 1
	.loc 1 2030 15 is_stmt 0
	ldr	r0, [r4, #80]
.LVL478:
	.loc 1 2030 8
	cmp	r0, #0
	beq	.L594
	.loc 1 2036 7 is_stmt 1
	.loc 1 2036 11 is_stmt 0
	bl	HAL_DMA_Abort_IT
.LVL479:
	.loc 1 2036 10
	cmp	r0, #0
	beq	.L595
	.loc 1 2038 9 is_stmt 1
	.loc 1 2038 15 is_stmt 0
	ldr	r3, [r4, #80]
	.loc 1 2038 43
	movs	r2, #0
	str	r2, [r3, #80]
	.loc 1 1985 12
	movs	r1, #1
	b	.L588
.LVL480:
.L585:
	.loc 1 2005 7 is_stmt 1
	.loc 1 2005 41 is_stmt 0
	movs	r2, #0
	str	r2, [r3, #80]
	b	.L584
.L587:
	.loc 1 2019 7 is_stmt 1
	.loc 1 2019 41 is_stmt 0
	movs	r2, #0
	str	r2, [r3, #80]
	b	.L586
.L593:
	.loc 1 1985 12
	movs	r1, #1
.LVL481:
.L588:
	.loc 1 2048 3 is_stmt 1
	.loc 1 2048 16 is_stmt 0
	ldr	r3, [r4]
	.loc 1 2048 26
	ldr	r2, [r3, #8]
	.loc 1 2048 6
	tst	r2, #64
	beq	.L589
	.loc 1 2051 5 is_stmt 1
	.loc 1 2051 23 is_stmt 0
	ldr	r2, [r3, #8]
	.loc 1 2051 30
	bic	r2, r2, #64
	str	r2, [r3, #8]
	.loc 1 2054 5 is_stmt 1
	.loc 1 2054 15 is_stmt 0
	ldr	r0, [r4, #84]
	.loc 1 2054 8
	cbz	r0, .L589
	.loc 1 2060 7 is_stmt 1
	.loc 1 2060 11 is_stmt 0
	bl	HAL_DMA_Abort_IT
.LVL482:
	.loc 1 2060 10
	cbz	r0, .L590
	.loc 1 2062 9 is_stmt 1
	.loc 1 2062 15 is_stmt 0
	ldr	r3, [r4, #84]
	.loc 1 2062 43
	movs	r2, #0
	str	r2, [r3, #80]
	.loc 1 2063 9 is_stmt 1
.LVL483:
	.loc 1 2073 3
.L591:
	.loc 1 2076 5
	.loc 1 2076 25 is_stmt 0
	movs	r3, #0
	strh	r3, [r4, #46]	@ movhi
	.loc 1 2077 5 is_stmt 1
	.loc 1 2077 25 is_stmt 0
	strh	r3, [r4, #54]	@ movhi
	.loc 1 2080 5 is_stmt 1
	.loc 1 2080 23 is_stmt 0
	str	r3, [r4, #92]
	.loc 1 2083 5 is_stmt 1
	.loc 1 2083 14 is_stmt 0
	ldr	r3, [r4]
	.loc 1 2083 30
	movs	r2, #15
	str	r2, [r3, #32]
	.loc 1 2086 5 is_stmt 1
	.loc 1 2086 15 is_stmt 0
	ldr	r3, [r4, #68]
	.loc 1 2086 8
	cmp	r3, #536870912
	beq	.L597
.L592:
	.loc 1 2092 5 is_stmt 1
	.loc 1 2092 14 is_stmt 0
	ldr	r2, [r4]
	.loc 1 2092 24
	ldr	r3, [r2, #24]
	.loc 1 2092 30
	orr	r3, r3, #8
	str	r3, [r2, #24]
	.loc 1 2095 5 is_stmt 1
	.loc 1 2095 19 is_stmt 0
	movs	r3, #1
	strb	r3, [r4, #89]
	.loc 1 2103 5 is_stmt 1
	mov	r0, r4
	bl	HAL_USART_AbortCpltCallback
.LVL484:
	b	.L590
.LVL485:
.L594:
	.loc 1 1985 12 is_stmt 0
	movs	r1, #1
	b	.L588
.L595:
	.loc 1 2042 19
	movs	r1, #0
	b	.L588
.LVL486:
.L589:
	.loc 1 2073 3 is_stmt 1
	.loc 1 2073 6 is_stmt 0
	cmp	r1, #0
	bne	.L591
.LVL487:
.L590:
	.loc 1 2107 3 is_stmt 1
	.loc 1 2108 1 is_stmt 0
	movs	r0, #0
	pop	{r4, pc}
.LVL488:
.L597:
	.loc 1 2088 7 is_stmt 1
	.loc 1 2088 16 is_stmt 0
	ldr	r2, [r4]
	.loc 1 2088 26
	ldr	r3, [r2, #24]
	.loc 1 2088 32
	orr	r3, r3, #16
	str	r3, [r2, #24]
	b	.L592
.L599:
	.align	2
.L598:
	.word	-276824066
	.word	USART_DMATxAbortCallback
	.word	USART_DMARxAbortCallback
	.cfi_endproc
.LFE352:
	.size	HAL_USART_Abort_IT, .-HAL_USART_Abort_IT
	.section	.text.USART_DMARxAbortCallback,"ax",%progbits
	.align	1
	.syntax unified
	.thumb
	.thumb_func
	.type	USART_DMARxAbortCallback, %function
USART_DMARxAbortCallback:
.LFB371:
	.loc 1 2801 1 is_stmt 1
	.cfi_startproc
	@ args = 0, pretend = 0, frame = 0
	@ frame_needed = 0, uses_anonymous_args = 0
.LVL489:
	push	{r3, lr}
	.cfi_def_cfa_offset 8
	.cfi_offset 3, -8
	.cfi_offset 14, -4
	.loc 1 2802 3
	.loc 1 2802 24 is_stmt 0
	ldr	r0, [r0, #56]
.LVL490:
	.loc 1 2804 3 is_stmt 1
	.loc 1 2804 9 is_stmt 0
	ldr	r3, [r0, #84]
	.loc 1 2804 37
	movs	r2, #0
	str	r2, [r3, #80]
	.loc 1 2807 3 is_stmt 1
	.loc 1 2807 13 is_stmt 0
	ldr	r3, [r0, #80]
	.loc 1 2807 6
	cbz	r3, .L601
	.loc 1 2809 5 is_stmt 1
	.loc 1 2809 23 is_stmt 0
	ldr	r3, [r3, #80]
	.loc 1 2809 8
	cbnz	r3, .L600
.L601:
	.loc 1 2816 3 is_stmt 1
	.loc 1 2816 23 is_stmt 0
	movs	r3, #0
	strh	r3, [r0, #46]	@ movhi
	.loc 1 2817 3 is_stmt 1
	.loc 1 2817 23 is_stmt 0
	strh	r3, [r0, #54]	@ movhi
	.loc 1 2820 3 is_stmt 1
	.loc 1 2820 21 is_stmt 0
	str	r3, [r0, #92]
	.loc 1 2823 3 is_stmt 1
	.loc 1 2823 12 is_stmt 0
	ldr	r3, [r0]
	.loc 1 2823 28
	movs	r2, #15
	str	r2, [r3, #32]
	.loc 1 2826 3 is_stmt 1
	.loc 1 2826 17 is_stmt 0
	movs	r3, #1
	strb	r3, [r0, #89]
	.loc 1 2834 3 is_stmt 1
	bl	HAL_USART_AbortCpltCallback
.LVL491:
.L600:
	.loc 1 2836 1 is_stmt 0
	pop	{r3, pc}
	.cfi_endproc
.LFE371:
	.size	USART_DMARxAbortCallback, .-USART_DMARxAbortCallback
	.section	.text.USART_DMATxAbortCallback,"ax",%progbits
	.align	1
	.syntax unified
	.thumb
	.thumb_func
	.type	USART_DMATxAbortCallback, %function
USART_DMATxAbortCallback:
.LFB370:
	.loc 1 2753 1 is_stmt 1
	.cfi_startproc
	@ args = 0, pretend = 0, frame = 0
	@ frame_needed = 0, uses_anonymous_args = 0
.LVL492:
	push	{r3, lr}
	.cfi_def_cfa_offset 8
	.cfi_offset 3, -8
	.cfi_offset 14, -4
	.loc 1 2754 3
	.loc 1 2754 24 is_stmt 0
	ldr	r0, [r0, #56]
.LVL493:
	.loc 1 2756 3 is_stmt 1
	.loc 1 2756 9 is_stmt 0
	ldr	r3, [r0, #80]
	.loc 1 2756 37
	movs	r2, #0
	str	r2, [r3, #80]
	.loc 1 2759 3 is_stmt 1
	.loc 1 2759 13 is_stmt 0
	ldr	r3, [r0, #84]
	.loc 1 2759 6
	cbz	r3, .L605
	.loc 1 2761 5 is_stmt 1
	.loc 1 2761 23 is_stmt 0
	ldr	r3, [r3, #80]
	.loc 1 2761 8
	cbnz	r3, .L604
.L605:
	.loc 1 2768 3 is_stmt 1
	.loc 1 2768 23 is_stmt 0
	movs	r3, #0
	strh	r3, [r0, #46]	@ movhi
	.loc 1 2769 3 is_stmt 1
	.loc 1 2769 23 is_stmt 0
	strh	r3, [r0, #54]	@ movhi
	.loc 1 2772 3 is_stmt 1
	.loc 1 2772 21 is_stmt 0
	str	r3, [r0, #92]
	.loc 1 2775 3 is_stmt 1
	.loc 1 2775 12 is_stmt 0
	ldr	r3, [r0]
	.loc 1 2775 28
	movs	r2, #15
	str	r2, [r3, #32]
	.loc 1 2778 3 is_stmt 1
	.loc 1 2778 17 is_stmt 0
	movs	r3, #1
	strb	r3, [r0, #89]
	.loc 1 2786 3 is_stmt 1
	bl	HAL_USART_AbortCpltCallback
.LVL494:
.L604:
	.loc 1 2789 1 is_stmt 0
	pop	{r3, pc}
	.cfi_endproc
.LFE370:
	.size	USART_DMATxAbortCallback, .-USART_DMATxAbortCallback
	.section	.text.HAL_USART_GetState,"ax",%progbits
	.align	1
	.global	HAL_USART_GetState
	.syntax unified
	.thumb
	.thumb_func
	.type	HAL_USART_GetState, %function
HAL_USART_GetState:
.LFB361:
	.loc 1 2483 1 is_stmt 1
	.cfi_startproc
	@ args = 0, pretend = 0, frame = 0
	@ frame_needed = 0, uses_anonymous_args = 0
	@ link register save eliminated.
.LVL495:
	.loc 1 2484 3
	.loc 1 2484 16 is_stmt 0
	ldrb	r0, [r0, #89]	@ zero_extendqisi2
.LVL496:
	.loc 1 2485 1
	bx	lr
	.cfi_endproc
.LFE361:
	.size	HAL_USART_GetState, .-HAL_USART_GetState
	.section	.text.HAL_USART_GetError,"ax",%progbits
	.align	1
	.global	HAL_USART_GetError
	.syntax unified
	.thumb
	.thumb_func
	.type	HAL_USART_GetError, %function
HAL_USART_GetError:
.LFB362:
	.loc 1 2494 1 is_stmt 1
	.cfi_startproc
	@ args = 0, pretend = 0, frame = 0
	@ frame_needed = 0, uses_anonymous_args = 0
	@ link register save eliminated.
.LVL497:
	.loc 1 2495 3
	.loc 1 2495 16 is_stmt 0
	ldr	r0, [r0, #92]
.LVL498:
	.loc 1 2496 1
	bx	lr
	.cfi_endproc
.LFE362:
	.size	HAL_USART_GetError, .-HAL_USART_GetError
	.text
.Letext0:
	.file 2 "m:\\noinstall\\arm-gnu-toolchain-12.2.rel1-mingw-w64-i686-arm-none-eabi\\arm-none-eabi\\include\\machine\\_default_types.h"
	.file 3 "m:\\noinstall\\arm-gnu-toolchain-12.2.rel1-mingw-w64-i686-arm-none-eabi\\arm-none-eabi\\include\\sys\\_stdint.h"
	.file 4 "D:/RTOS/Board/YD-STM32H7xxVx_ClassicV19/cmake-build-debug/_deps/stm32h7xx_cmsis_device-src/Include/stm32h743xx.h"
	.file 5 "D:/RTOS/Board/YD-STM32H7xxVx_ClassicV19/cmake-build-debug/_deps/stm32h7xx_cmsis_device-src/Include/stm32h7xx.h"
	.file 6 "D:/RTOS/Board/YD-STM32H7xxVx_ClassicV19/cmake-build-debug/_deps/stm32h7xx_hal_driver-src/Inc/stm32h7xx_hal_def.h"
	.file 7 "D:/RTOS/Board/YD-STM32H7xxVx_ClassicV19/cmake-build-debug/_deps/stm32h7xx_hal_driver-src/Inc/stm32h7xx_hal_rcc_ex.h"
	.file 8 "D:/RTOS/Board/YD-STM32H7xxVx_ClassicV19/cmake-build-debug/_deps/stm32h7xx_hal_driver-src/Inc/stm32h7xx_hal_dma.h"
	.file 9 "D:/RTOS/Board/YD-STM32H7xxVx_ClassicV19/cmake-build-debug/_deps/stm32h7xx_hal_driver-src/Inc/stm32h7xx_hal_usart.h"
	.file 10 "D:/RTOS/Board/YD-STM32H7xxVx_ClassicV19/cmake-build-debug/_deps/stm32h7xx_hal_driver-src/Inc/stm32h7xx_hal_usart_ex.h"
	.file 11 "D:/RTOS/Board/YD-STM32H7xxVx_ClassicV19/cmake-build-debug/_deps/stm32h7xx_hal_driver-src/Inc/stm32h7xx_hal.h"
	.file 12 "D:/RTOS/Board/YD-STM32H7xxVx_ClassicV19/cmake-build-debug/_deps/stm32h7xx_hal_driver-src/Inc/stm32h7xx_hal_rcc.h"