	.cpu cortex-m7
	.arch armv7e-m
	.fpu fpv5-d16
	.eabi_attribute 28, 1
	.eabi_attribute 20, 1
	.eabi_attribute 21, 1
	.eabi_attribute 23, 3
	.eabi_attribute 24, 1
	.eabi_attribute 25, 1
	.eabi_attribute 26, 1
	.eabi_attribute 30, 1
	.eabi_attribute 34, 1
	.eabi_attribute 18, 4
	.file	"stm32h7xx_hal_dfsdm.c"
	.text
.Ltext0:
	.cfi_sections	.debug_frame
	.file 1 "D:/RTOS/Board/YD-STM32H7xxVx_ClassicV19/cmake-build-debug/_deps/stm32h7xx_hal_driver-src/Src/stm32h7xx_hal_dfsdm.c"
	.section	.text.DFSDM_GetInjChannelsNbr,"ax",%progbits
	.align	1
	.syntax unified
	.thumb
	.thumb_func
	.type	DFSDM_GetInjChannelsNbr, %function
DFSDM_GetInjChannelsNbr:
.LFB399:
	.loc 1 3545 1
	.cfi_startproc
	@ args = 0, pretend = 0, frame = 0
	@ frame_needed = 0, uses_anonymous_args = 0
	@ link register save eliminated.
.LVL0:
	.loc 1 3546 3
	.loc 1 3547 3
	.loc 1 3550 3
	.loc 1 3550 7 is_stmt 0
	uxth	r3, r0
.LVL1:
	.loc 1 3551 3 is_stmt 1
	.loc 1 3546 12 is_stmt 0
	movs	r0, #0
.LVL2:
	.loc 1 3551 8
	b	.L2
.LVL3:
.L3:
	.loc 1 3557 5 is_stmt 1
	.loc 1 3557 9 is_stmt 0
	lsrs	r3, r3, #1
.LVL4:
.L2:
	.loc 1 3551 13 is_stmt 1
	cbz	r3, .L5
	.loc 1 3553 5
	.loc 1 3553 7 is_stmt 0
	tst	r3, #1
	beq	.L3
	.loc 1 3555 7 is_stmt 1
	.loc 1 3555 17 is_stmt 0
	adds	r0, r0, #1
.LVL5:
	b	.L3
.L5:
	.loc 1 3559 3 is_stmt 1
	.loc 1 3560 1 is_stmt 0
	bx	lr
	.cfi_endproc
.LFE399:
	.size	DFSDM_GetInjChannelsNbr, .-DFSDM_GetInjChannelsNbr
	.section	.text.DFSDM_GetChannelFromInstance,"ax",%progbits
	.align	1
	.syntax unified
	.thumb
	.thumb_func
	.type	DFSDM_GetChannelFromInstance, %function
DFSDM_GetChannelFromInstance:
.LFB400:
	.loc 1 3568 1 is_stmt 1
	.cfi_startproc
	@ args = 0, pretend = 0, frame = 0
	@ frame_needed = 0, uses_anonymous_args = 0
	@ link register save eliminated.
.LVL6:
	.loc 1 3569 3
	.loc 1 3572 3
	.loc 1 3572 5 is_stmt 0
	ldr	r3, .L16
	cmp	r0, r3
	beq	.L8
	.loc 1 3586 8 is_stmt 1
	.loc 1 3586 10 is_stmt 0
	adds	r3, r3, #32
	cmp	r0, r3
	beq	.L9
	.loc 1 3590 8 is_stmt 1
	.loc 1 3590 10 is_stmt 0
	adds	r3, r3, #32
	cmp	r0, r3
	beq	.L10
	.loc 1 3594 8 is_stmt 1
	.loc 1 3594 10 is_stmt 0
	adds	r3, r3, #32
	cmp	r0, r3
	beq	.L11
	.loc 1 3598 8 is_stmt 1
	.loc 1 3598 10 is_stmt 0
	adds	r3, r3, #32
	cmp	r0, r3
	beq	.L12
	.loc 1 3602 8 is_stmt 1
	.loc 1 3602 10 is_stmt 0
	adds	r3, r3, #32
	cmp	r0, r3
	beq	.L13
	.loc 1 3606 8 is_stmt 1
	.loc 1 3606 10 is_stmt 0
	adds	r3, r3, #32
	cmp	r0, r3
	beq	.L15
	.loc 1 3612 13
	movs	r0, #7
.LVL7:
	.loc 1 3615 3 is_stmt 1
	.loc 1 3616 1 is_stmt 0
	bx	lr
.LVL8:
.L15:
	.loc 1 3608 13
	movs	r0, #6
.LVL9:
	bx	lr
.LVL10:
.L8:
	.loc 1 3574 13
	movs	r0, #0
.LVL11:
	bx	lr
.LVL12:
.L9:
	.loc 1 3588 13
	movs	r0, #1
.LVL13:
	bx	lr
.LVL14:
.L10:
	.loc 1 3592 13
	movs	r0, #2
.LVL15:
	bx	lr
.LVL16:
.L11:
	.loc 1 3596 13
	movs	r0, #3
.LVL17:
	bx	lr
.LVL18:
.L12:
	.loc 1 3600 13
	movs	r0, #4
.LVL19:
	bx	lr
.LVL20:
.L13:
	.loc 1 3604 13
	movs	r0, #5
.LVL21:
	bx	lr
.L17:
	.align	2
.L16:
	.word	1073836032
	.cfi_endproc
.LFE400:
	.size	DFSDM_GetChannelFromInstance, .-DFSDM_GetChannelFromInstance
	.section	.text.DFSDM_RegConvStart,"ax",%progbits
	.align	1
	.syntax unified
	.thumb
	.thumb_func
	.type	DFSDM_RegConvStart, %function
DFSDM_RegConvStart:
.LFB401:
	.loc 1 3624 1 is_stmt 1
	.cfi_startproc
	@ args = 0, pretend = 0, frame = 0
	@ frame_needed = 0, uses_anonymous_args = 0
	@ link register save eliminated.
.LVL22:
	.loc 1 3626 3
	.loc 1 3626 19 is_stmt 0
	ldr	r3, [r0, #52]
	.loc 1 3626 5
	cbnz	r3, .L19
	.loc 1 3629 5 is_stmt 1
	.loc 1 3629 18 is_stmt 0
	ldr	r2, [r0]
	.loc 1 3629 28
	ldr	r3, [r2]
	.loc 1 3629 37
	orr	r3, r3, #131072
	str	r3, [r2]
.L20:
	.loc 1 3655 3 is_stmt 1
	.loc 1 3655 40 is_stmt 0
	ldrb	r3, [r0, #76]	@ zero_extendqisi2
	.loc 1 3656 53
	cmp	r3, #1
	beq	.L26
	movs	r3, #4
.L23:
	.loc 1 3655 24
	strb	r3, [r0, #76]
	.loc 1 3657 1
	bx	lr
.L19:
	.loc 1 3634 5 is_stmt 1
	.loc 1 3634 18 is_stmt 0
	ldr	r2, [r0]
	.loc 1 3634 28
	ldr	r3, [r2]
	.loc 1 3634 37
	bic	r3, r3, #1
	str	r3, [r2]
	.loc 1 3637 5 is_stmt 1
	.loc 1 3637 18 is_stmt 0
	ldr	r2, [r0]
	.loc 1 3637 28
	ldr	r3, [r2]
	.loc 1 3637 37
	orr	r3, r3, #524288
	str	r3, [r2]
	.loc 1 3640 5 is_stmt 1
	.loc 1 3640 18 is_stmt 0
	ldr	r2, [r0]
	.loc 1 3640 28
	ldr	r3, [r2]
	.loc 1 3640 37
	orr	r3, r3, #1
	str	r3, [r2]
	.loc 1 3643 5 is_stmt 1
	.loc 1 3643 21 is_stmt 0
	ldrb	r3, [r0, #76]	@ zero_extendqisi2
	.loc 1 3643 7
	cmp	r3, #3
	bne	.L20
	.loc 1 3645 7 is_stmt 1
	.loc 1 3645 23 is_stmt 0
	ldr	r3, [r0, #56]
	.loc 1 3645 9
	cbnz	r3, .L21
	.loc 1 3647 9 is_stmt 1
	.loc 1 3647 22 is_stmt 0
	ldr	r2, [r0]
	.loc 1 3647 32
	ldr	r3, [r2]
	.loc 1 3647 41
	orr	r3, r3, #2
	str	r3, [r2]
.L21:
	.loc 1 3650 7 is_stmt 1
	.loc 1 3650 55 is_stmt 0
	ldrb	r3, [r0, #64]	@ zero_extendqisi2
	.loc 1 3651 76
	cmp	r3, #1
	beq	.L27
	movs	r3, #1
.L22:
	.loc 1 3650 39
	str	r3, [r0, #72]
	b	.L20
.L27:
	.loc 1 3651 76 discriminator 1
	ldr	r3, [r0, #68]
	b	.L22
.L26:
	.loc 1 3656 53
	movs	r3, #2
	b	.L23
	.cfi_endproc
.LFE401:
	.size	DFSDM_RegConvStart, .-DFSDM_RegConvStart
	.section	.text.DFSDM_RegConvStop,"ax",%progbits
	.align	1
	.syntax unified
	.thumb
	.thumb_func
	.type	DFSDM_RegConvStop, %function
DFSDM_RegConvStop:
.LFB402:
	.loc 1 3665 1 is_stmt 1
	.cfi_startproc
	@ args = 0, pretend = 0, frame = 0
	@ frame_needed = 0, uses_anonymous_args = 0
	@ link register save eliminated.
.LVL23:
	.loc 1 3667 3
	.loc 1 3667 16 is_stmt 0
	ldr	r2, [r0]
	.loc 1 3667 26
	ldr	r3, [r2]
	.loc 1 3667 35
	bic	r3, r3, #1
	str	r3, [r2]
	.loc 1 3670 3 is_stmt 1
	.loc 1 3670 19 is_stmt 0
	ldr	r3, [r0, #52]
	.loc 1 3670 5
	cmp	r3, #1
	beq	.L36
.L29:
	.loc 1 3676 3 is_stmt 1
	.loc 1 3676 16 is_stmt 0
	ldr	r2, [r0]
	.loc 1 3676 26
	ldr	r3, [r2]
	.loc 1 3676 35
	orr	r3, r3, #1
	str	r3, [r2]
	.loc 1 3679 3 is_stmt 1
	.loc 1 3679 19 is_stmt 0
	ldrb	r3, [r0, #76]	@ zero_extendqisi2
	.loc 1 3679 5
	cmp	r3, #4
	beq	.L37
.L30:
	.loc 1 3691 3 is_stmt 1
	.loc 1 3691 40 is_stmt 0
	ldrb	r3, [r0, #76]	@ zero_extendqisi2
	.loc 1 3692 55
	cmp	r3, #2
	beq	.L38
	movs	r3, #3
.L33:
	.loc 1 3691 24
	strb	r3, [r0, #76]
	.loc 1 3693 1
	bx	lr
.L36:
	.loc 1 3672 5 is_stmt 1
	.loc 1 3672 18 is_stmt 0
	ldr	r2, [r0]
	.loc 1 3672 28
	ldr	r3, [r2]
	.loc 1 3672 37
	bic	r3, r3, #524288
	str	r3, [r2]
	b	.L29
.L37:
	.loc 1 3681 5 is_stmt 1
	.loc 1 3681 21 is_stmt 0
	ldr	r3, [r0, #56]
	.loc 1 3681 7
	cbnz	r3, .L31
	.loc 1 3683 7 is_stmt 1
	.loc 1 3683 20 is_stmt 0
	ldr	r2, [r0]
	.loc 1 3683 30
	ldr	r3, [r2]
	.loc 1 3683 39
	orr	r3, r3, #2
	str	r3, [r2]
.L31:
	.loc 1 3686 5 is_stmt 1
	.loc 1 3686 53 is_stmt 0
	ldrb	r3, [r0, #64]	@ zero_extendqisi2
	.loc 1 3687 74
	cmp	r3, #1
	beq	.L39
	movs	r3, #1
.L32:
	.loc 1 3686 37
	str	r3, [r0, #72]
	b	.L30
.L39:
	.loc 1 3687 74 discriminator 1
	ldr	r3, [r0, #68]
	b	.L32
.L38:
	.loc 1 3692 55
	movs	r3, #1
	b	.L33
	.cfi_endproc
.LFE402:
	.size	DFSDM_RegConvStop, .-DFSDM_RegConvStop
	.section	.text.DFSDM_InjConvStart,"ax",%progbits
	.align	1
	.syntax unified
	.thumb
	.thumb_func
	.type	DFSDM_InjConvStart, %function
DFSDM_InjConvStart:
.LFB403:
	.loc 1 3701 1 is_stmt 1
	.cfi_startproc
	@ args = 0, pretend = 0, frame = 0
	@ frame_needed = 0, uses_anonymous_args = 0
	@ link register save eliminated.
.LVL24:
	.loc 1 3703 3
	.loc 1 3703 19 is_stmt 0
	ldr	r3, [r0, #56]
	.loc 1 3703 5
	cbnz	r3, .L41
	.loc 1 3706 5 is_stmt 1
	.loc 1 3706 18 is_stmt 0
	ldr	r2, [r0]
	.loc 1 3706 28
	ldr	r3, [r2]
	.loc 1 3706 37
	orr	r3, r3, #2
	str	r3, [r2]
.L42:
	.loc 1 3735 3 is_stmt 1
	.loc 1 3735 40 is_stmt 0
	ldrb	r3, [r0, #76]	@ zero_extendqisi2
	.loc 1 3736 53
	cmp	r3, #1
	beq	.L47
	movs	r3, #4
.L45:
	.loc 1 3735 24
	strb	r3, [r0, #76]
	.loc 1 3737 1
	bx	lr
.L41:
	.loc 1 3711 5 is_stmt 1
	.loc 1 3711 18 is_stmt 0
	ldr	r2, [r0]
	.loc 1 3711 28
	ldr	r3, [r2]
	.loc 1 3711 37
	bic	r3, r3, #1
	str	r3, [r2]
	.loc 1 3713 5 is_stmt 1
	.loc 1 3713 21 is_stmt 0
	ldr	r3, [r0, #56]
	.loc 1 3713 7
	cmp	r3, #1
	beq	.L48
	.loc 1 3721 7 is_stmt 1
	.loc 1 3721 20 is_stmt 0
	ldr	r2, [r0]
	.loc 1 3721 30
	ldr	r3, [r2]
	.loc 1 3721 55
	ldr	r1, [r0, #60]
	.loc 1 3721 39
	orrs	r3, r3, r1
	str	r3, [r2]
.L44:
	.loc 1 3725 5 is_stmt 1
	.loc 1 3725 18 is_stmt 0
	ldr	r2, [r0]
	.loc 1 3725 28
	ldr	r3, [r2]
	.loc 1 3725 37
	orr	r3, r3, #1
	str	r3, [r2]
	.loc 1 3728 5 is_stmt 1
	.loc 1 3728 22 is_stmt 0
	ldrb	r3, [r0, #76]	@ zero_extendqisi2
	.loc 1 3728 7
	cmp	r3, #2
	bne	.L42
	.loc 1 3729 23 discriminator 1
	ldr	r3, [r0, #52]
	.loc 1 3728 61 discriminator 1
	cmp	r3, #0
	bne	.L42
	.loc 1 3731 7 is_stmt 1
	.loc 1 3731 20 is_stmt 0
	ldr	r2, [r0]
	.loc 1 3731 30
	ldr	r3, [r2]
	.loc 1 3731 39
	orr	r3, r3, #131072
	str	r3, [r2]
	b	.L42
.L48:
	.loc 1 3716 7 is_stmt 1
	.loc 1 3716 20 is_stmt 0
	ldr	r2, [r0]
	.loc 1 3716 30
	ldr	r3, [r2]
	.loc 1 3716 39
	orr	r3, r3, #8
	str	r3, [r2]
	b	.L44
.L47:
	.loc 1 3736 53
	movs	r3, #3
	b	.L45
	.cfi_endproc
.LFE403:
	.size	DFSDM_InjConvStart, .-DFSDM_InjConvStart
	.section	.text.DFSDM_InjConvStop,"ax",%progbits
	.align	1
	.syntax unified
	.thumb
	.thumb_func
	.type	DFSDM_InjConvStop, %function
DFSDM_InjConvStop:
.LFB404:
	.loc 1 3745 1 is_stmt 1
	.cfi_startproc
	@ args = 0, pretend = 0, frame = 0
	@ frame_needed = 0, uses_anonymous_args = 0
	@ link register save eliminated.
.LVL25:
	.loc 1 3747 3
	.loc 1 3747 16 is_stmt 0
	ldr	r2, [r0]
	.loc 1 3747 26
	ldr	r3, [r2]
	.loc 1 3747 35
	bic	r3, r3, #1
	str	r3, [r2]
	.loc 1 3750 3 is_stmt 1
	.loc 1 3750 19 is_stmt 0
	ldr	r3, [r0, #56]
	.loc 1 3750 5
	cmp	r3, #1
	beq	.L57
	.loc 1 3754 8 is_stmt 1
	.loc 1 3754 10 is_stmt 0
	cmp	r3, #2
	beq	.L58
.L51:
	.loc 1 3762 3 is_stmt 1
	.loc 1 3765 3
	.loc 1 3765 16 is_stmt 0
	ldr	r2, [r0]
	.loc 1 3765 26
	ldr	r3, [r2]
	.loc 1 3765 35
	orr	r3, r3, #1
	str	r3, [r2]
	.loc 1 3768 3 is_stmt 1
	.loc 1 3768 20 is_stmt 0
	ldrb	r3, [r0, #76]	@ zero_extendqisi2
	.loc 1 3768 5
	cmp	r3, #4
	beq	.L59
.L52:
	.loc 1 3775 3 is_stmt 1
	.loc 1 3775 51 is_stmt 0
	ldrb	r3, [r0, #64]	@ zero_extendqisi2
	.loc 1 3776 72
	cmp	r3, #1
	beq	.L60
	movs	r3, #1
.L53:
	.loc 1 3775 35
	str	r3, [r0, #72]
	.loc 1 3779 3 is_stmt 1
	.loc 1 3779 40 is_stmt 0
	ldrb	r3, [r0, #76]	@ zero_extendqisi2
	.loc 1 3780 55
	cmp	r3, #3
	beq	.L61
	movs	r3, #2
.L54:
	.loc 1 3779 24
	strb	r3, [r0, #76]
	.loc 1 3781 1
	bx	lr
.L57:
	.loc 1 3752 5 is_stmt 1
	.loc 1 3752 18 is_stmt 0
	ldr	r2, [r0]
	.loc 1 3752 28
	ldr	r3, [r2]
	.loc 1 3752 37
	bic	r3, r3, #8
	str	r3, [r2]
	b	.L51
.L58:
	.loc 1 3757 5 is_stmt 1
	.loc 1 3757 18 is_stmt 0
	ldr	r2, [r0]
	.loc 1 3757 28
	ldr	r3, [r2]
	.loc 1 3757 37
	bic	r3, r3, #24576
	str	r3, [r2]
	b	.L51
.L59:
	.loc 1 3769 21 discriminator 1
	ldr	r3, [r0, #52]
	.loc 1 3768 63 discriminator 1
	cmp	r3, #0
	bne	.L52
	.loc 1 3771 5 is_stmt 1
	.loc 1 3771 18 is_stmt 0
	ldr	r2, [r0]
	.loc 1 3771 28
	ldr	r3, [r2]
	.loc 1 3771 37
	orr	r3, r3, #131072
	str	r3, [r2]
	b	.L52
.L60:
	.loc 1 3776 72 discriminator 1
	ldr	r3, [r0, #68]
	b	.L53
.L61:
	.loc 1 3780 55
	movs	r3, #1
	b	.L54
	.cfi_endproc
.LFE404:
	.size	DFSDM_InjConvStop, .-DFSDM_InjConvStop
	.section	.text.HAL_DFSDM_ChannelMspInit,"ax",%progbits
	.align	1
	.weak	HAL_DFSDM_ChannelMspInit
	.syntax unified
	.thumb
	.thumb_func
	.type	HAL_DFSDM_ChannelMspInit, %function
HAL_DFSDM_ChannelMspInit:
.LFB337:
	.loc 1 564 1 is_stmt 1
	.cfi_startproc
	@ args = 0, pretend = 0, frame = 0
	@ frame_needed = 0, uses_anonymous_args = 0
	@ link register save eliminated.
.LVL26:
	.loc 1 566 3
	.loc 1 571 1 is_stmt 0
	bx	lr
	.cfi_endproc
.LFE337:
	.size	HAL_DFSDM_ChannelMspInit, .-HAL_DFSDM_ChannelMspInit
	.section	.text.HAL_DFSDM_ChannelInit,"ax",%progbits
	.align	1
	.global	HAL_DFSDM_ChannelInit
	.syntax unified
	.thumb
	.thumb_func
	.type	HAL_DFSDM_ChannelInit, %function
HAL_DFSDM_ChannelInit:
.LFB335:
	.loc 1 357 1 is_stmt 1
	.cfi_startproc
	@ args = 0, pretend = 0, frame = 0
	@ frame_needed = 0, uses_anonymous_args = 0
.LVL27:
	.loc 1 358 3
	.loc 1 359 3
	.loc 1 360 3
	.loc 1 363 3
	.loc 1 363 5 is_stmt 0
	cmp	r0, #0
	beq	.L67
	.loc 1 357 1
	push	{r4, lr}
	.cfi_def_cfa_offset 8
	.cfi_offset 4, -8
	.cfi_offset 14, -4
	mov	r4, r0
	.loc 1 369 3 is_stmt 1
	.loc 1 370 3
	.loc 1 371 3
	.loc 1 372 3
	.loc 1 373 3
	.loc 1 374 3
	.loc 1 375 3
	.loc 1 376 3
	.loc 1 377 3
	.loc 1 378 3
	.loc 1 379 3
	.loc 1 395 3
.LVL28:
	.loc 1 396 3
	.loc 1 397 3
	.loc 1 401 3
	.loc 1 401 26 is_stmt 0
	ldr	r0, [r0]
.LVL29:
	bl	DFSDM_GetChannelFromInstance
.LVL30:
	.loc 1 401 25
	ldr	r3, .L76
	ldr	r3, [r3, r0, lsl #2]
	.loc 1 401 6
	cbz	r3, .L73
	.loc 1 403 12
	movs	r0, #1
.L64:
	.loc 1 479 1
	pop	{r4, pc}
.LVL31:
.L73:
	.loc 1 419 3 is_stmt 1
	mov	r0, r4
	bl	HAL_DFSDM_ChannelMspInit
.LVL32:
	.loc 1 423 3
	.loc 1 423 4 is_stmt 0
	ldr	r3, .L76+4
	ldr	r2, [r3]
	.loc 1 423 23
	adds	r2, r2, #1
	str	r2, [r3]
	.loc 1 426 3 is_stmt 1
	.loc 1 426 6 is_stmt 0
	ldr	r3, [r3]
	.loc 1 426 5
	cmp	r3, #1
	beq	.L74
.L65:
	.loc 1 448 3 is_stmt 1
	.loc 1 448 17 is_stmt 0
	ldr	r2, [r4]
	.loc 1 448 27
	ldr	r3, [r2]
	.loc 1 448 37
	bic	r3, r3, #61696
	str	r3, [r2]
	.loc 1 450 3 is_stmt 1
	.loc 1 450 17 is_stmt 0
	ldr	r1, [r4]
	.loc 1 450 27
	ldr	r2, [r1]
	.loc 1 450 67
	ldr	r3, [r4, #16]
	.loc 1 451 67
	ldr	r0, [r4, #20]
	.loc 1 450 80
	orrs	r3, r3, r0
	.loc 1 452 67
	ldr	r0, [r4, #24]
	.loc 1 451 80
	orrs	r3, r3, r0
	.loc 1 450 37
	orrs	r3, r3, r2
	str	r3, [r1]
	.loc 1 455 3 is_stmt 1
	.loc 1 455 17 is_stmt 0
	ldr	r2, [r4]
	.loc 1 455 27
	ldr	r3, [r2]
	.loc 1 455 37
	bic	r3, r3, #15
	str	r3, [r2]
	.loc 1 456 3 is_stmt 1
	.loc 1 456 17 is_stmt 0
	ldr	r1, [r4]
	.loc 1 456 27
	ldr	r3, [r1]
	.loc 1 456 77
	ldr	r2, [r4, #28]
	.loc 1 457 77
	ldr	r0, [r4, #32]
	.loc 1 456 83
	orrs	r2, r2, r0
	.loc 1 456 37
	orrs	r3, r3, r2
	str	r3, [r1]
	.loc 1 460 3 is_stmt 1
	.loc 1 460 17 is_stmt 0
	ldr	r2, [r4]
	.loc 1 460 27
	ldr	r3, [r2, #8]
	.loc 1 460 38
	bic	r3, r3, #14614528
	str	r3, [r2, #8]
	.loc 1 461 3 is_stmt 1
	.loc 1 461 17 is_stmt 0
	ldr	r0, [r4]
	.loc 1 461 27
	ldr	r3, [r0, #8]
	.loc 1 461 66
	ldr	r2, [r4, #36]
	.loc 1 462 68
	ldr	r1, [r4, #40]
	.loc 1 462 82
	subs	r1, r1, #1
	.loc 1 461 79
	orr	r2, r2, r1, lsl #16
	.loc 1 461 38
	orrs	r3, r3, r2
	str	r3, [r0, #8]
	.loc 1 465 3 is_stmt 1
	.loc 1 465 17 is_stmt 0
	ldr	r2, [r4]
	.loc 1 465 27
	ldr	r3, [r2, #4]
	.loc 1 465 37
	and	r3, r3, #7
	str	r3, [r2, #4]
	.loc 1 466 3 is_stmt 1
	.loc 1 466 17 is_stmt 0
	ldr	r1, [r4]
	.loc 1 466 27
	ldr	r2, [r1, #4]
	.loc 1 466 73
	ldr	r0, [r4, #44]
	.loc 1 467 62
	ldr	r3, [r4, #48]
	.loc 1 467 77
	lsls	r3, r3, #3
	.loc 1 466 90
	orr	r3, r3, r0, lsl #8
	.loc 1 466 37
	orrs	r3, r3, r2
	str	r3, [r1, #4]
	.loc 1 470 3 is_stmt 1
	.loc 1 470 17 is_stmt 0
	ldr	r2, [r4]
	.loc 1 470 27
	ldr	r3, [r2]
	.loc 1 470 37
	orr	r3, r3, #128
	str	r3, [r2]
	.loc 1 473 3 is_stmt 1
	.loc 1 473 25 is_stmt 0
	movs	r3, #1
	strb	r3, [r4, #52]
	.loc 1 476 3 is_stmt 1
	.loc 1 476 22 is_stmt 0
	ldr	r0, [r4]
	bl	DFSDM_GetChannelFromInstance
.LVL33:
	.loc 1 476 21
	ldr	r3, .L76
	.loc 1 476 78
	str	r4, [r3, r0, lsl #2]
	.loc 1 478 3 is_stmt 1
	.loc 1 478 10 is_stmt 0
	movs	r0, #0
	b	.L64
.L74:
	.loc 1 428 5 is_stmt 1
	.loc 1 430 5
	.loc 1 430 21 is_stmt 0
	ldr	r3, .L76+8
	ldr	r2, [r3]
	.loc 1 430 31
	bic	r2, r2, #1073741824
	str	r2, [r3]
	.loc 1 431 5 is_stmt 1
	.loc 1 431 21 is_stmt 0
	ldr	r2, [r3]
	.loc 1 431 66
	ldr	r1, [r4, #8]
	.loc 1 431 31
	orrs	r2, r2, r1
	str	r2, [r3]
	.loc 1 434 5 is_stmt 1
	.loc 1 434 21 is_stmt 0
	ldr	r2, [r3]
	.loc 1 434 31
	bic	r2, r2, #16711680
	str	r2, [r3]
	.loc 1 435 5 is_stmt 1
	.loc 1 435 40 is_stmt 0
	ldrb	r3, [r4, #4]	@ zero_extendqisi2
	.loc 1 435 7
	cmp	r3, #1
	beq	.L75
.L66:
	.loc 1 444 5 is_stmt 1
	.loc 1 444 21 is_stmt 0
	ldr	r2, .L76+8
	ldr	r3, [r2]
	.loc 1 444 31
	orr	r3, r3, #-2147483648
	str	r3, [r2]
	b	.L65
.L75:
	.loc 1 437 7 is_stmt 1
	.loc 1 439 7
	.loc 1 439 23 is_stmt 0
	ldr	r1, .L76+8
	ldr	r3, [r1]
	.loc 1 439 80
	ldr	r2, [r4, #12]
	.loc 1 439 89
	subs	r2, r2, #1
	.loc 1 439 33
	orr	r3, r3, r2, lsl #16
	str	r3, [r1]
	b	.L66
.LVL34:
.L67:
	.cfi_def_cfa_offset 0
	.cfi_restore 4
	.cfi_restore 14
	.loc 1 365 12
	movs	r0, #1
.LVL35:
	.loc 1 479 1
	bx	lr
.L77:
	.align	2
.L76:
	.word	a_dfsdm1ChannelHandle
	.word	v_dfsdm1ChannelCounter
	.word	1073836032
	.cfi_endproc
.LFE335:
	.size	HAL_DFSDM_ChannelInit, .-HAL_DFSDM_ChannelInit
	.section	.text.HAL_DFSDM_ChannelMspDeInit,"ax",%progbits
	.align	1
	.weak	HAL_DFSDM_ChannelMspDeInit
	.syntax unified
	.thumb
	.thumb_func
	.type	HAL_DFSDM_ChannelMspDeInit, %function
HAL_DFSDM_ChannelMspDeInit:
.LFB338:
	.loc 1 579 1 is_stmt 1
	.cfi_startproc
	@ args = 0, pretend = 0, frame = 0
	@ frame_needed = 0, uses_anonymous_args = 0
	@ link register save eliminated.
.LVL36:
	.loc 1 581 3
	.loc 1 586 1 is_stmt 0
	bx	lr
	.cfi_endproc
.LFE338:
	.size	HAL_DFSDM_ChannelMspDeInit, .-HAL_DFSDM_ChannelMspDeInit
	.section	.text.HAL_DFSDM_ChannelDeInit,"ax",%progbits
	.align	1
	.global	HAL_DFSDM_ChannelDeInit
	.syntax unified
	.thumb
	.thumb_func
	.type	HAL_DFSDM_ChannelDeInit, %function
HAL_DFSDM_ChannelDeInit:
.LFB336:
	.loc 1 487 1 is_stmt 1
	.cfi_startproc
	@ args = 0, pretend = 0, frame = 0
	@ frame_needed = 0, uses_anonymous_args = 0
.LVL37:
	.loc 1 488 3
	.loc 1 489 3
	.loc 1 490 3
	.loc 1 493 3
	.loc 1 493 5 is_stmt 0
	cbz	r0, .L82
	.loc 1 487 1
	push	{r3, r4, r5, lr}
	.cfi_def_cfa_offset 16
	.cfi_offset 3, -16
	.cfi_offset 4, -12
	.cfi_offset 5, -8
	.cfi_offset 14, -4
	mov	r5, r0
	.loc 1 499 3 is_stmt 1
	.loc 1 515 3
.LVL38:
	.loc 1 516 3
	.loc 1 517 3
	.loc 1 521 3
	.loc 1 521 69 is_stmt 0
	ldr	r4, [r0]
	.loc 1 521 26
	mov	r0, r4
.LVL39:
	bl	DFSDM_GetChannelFromInstance
.LVL40:
	.loc 1 521 25
	ldr	r3, .L88
	ldr	r3, [r3, r0, lsl #2]
	.loc 1 521 6
	cbz	r3, .L83
	.loc 1 527 3 is_stmt 1
	.loc 1 527 27 is_stmt 0
	ldr	r3, [r4]
	.loc 1 527 37
	bic	r3, r3, #128
	str	r3, [r4]
	.loc 1 530 3 is_stmt 1
	.loc 1 530 4 is_stmt 0
	ldr	r3, .L88+4
	ldr	r2, [r3]
	.loc 1 530 23
	subs	r2, r2, #1
	str	r2, [r3]
	.loc 1 533 3 is_stmt 1
	.loc 1 533 7 is_stmt 0
	ldr	r3, [r3]
	.loc 1 533 6
	cbnz	r3, .L81
	.loc 1 535 5 is_stmt 1
	.loc 1 535 21 is_stmt 0
	ldr	r2, .L88+8
	ldr	r3, [r2]
	.loc 1 535 31
	bic	r3, r3, #-2147483648
	str	r3, [r2]
.L81:
	.loc 1 546 3 is_stmt 1
	mov	r0, r5
	bl	HAL_DFSDM_ChannelMspDeInit
.LVL41:
	.loc 1 550 3
	.loc 1 550 25 is_stmt 0
	movs	r4, #0
	strb	r4, [r5, #52]
	.loc 1 553 3 is_stmt 1
	.loc 1 553 22 is_stmt 0
	ldr	r0, [r5]
	bl	DFSDM_GetChannelFromInstance
.LVL42:
	.loc 1 553 21
	ldr	r3, .L88
	.loc 1 553 78
	str	r4, [r3, r0, lsl #2]
	.loc 1 555 3 is_stmt 1
	.loc 1 555 10 is_stmt 0
	mov	r0, r4
.L80:
	.loc 1 556 1
	pop	{r3, r4, r5, pc}
.LVL43:
.L82:
	.cfi_def_cfa_offset 0
	.cfi_restore 3
	.cfi_restore 4
	.cfi_restore 5
	.cfi_restore 14
	.loc 1 495 12
	movs	r0, #1
.LVL44:
	.loc 1 556 1
	bx	lr
.LVL45:
.L83:
	.cfi_def_cfa_offset 16
	.cfi_offset 3, -16
	.cfi_offset 4, -12
	.cfi_offset 5, -8
	.cfi_offset 14, -4
	.loc 1 523 12
	movs	r0, #1
	b	.L80
.L89:
	.align	2
.L88:
	.word	a_dfsdm1ChannelHandle
	.word	v_dfsdm1ChannelCounter
	.word	1073836032
	.cfi_endproc
.LFE336:
	.size	HAL_DFSDM_ChannelDeInit, .-HAL_DFSDM_ChannelDeInit
	.section	.text.HAL_DFSDM_ChannelCkabStart,"ax",%progbits
	.align	1
	.global	HAL_DFSDM_ChannelCkabStart
	.syntax unified
	.thumb
	.thumb_func
	.type	HAL_DFSDM_ChannelCkabStart, %function
HAL_DFSDM_ChannelCkabStart:
.LFB339:
	.loc 1 756 1 is_stmt 1
	.cfi_startproc
	@ args = 0, pretend = 0, frame = 0
	@ frame_needed = 0, uses_anonymous_args = 0
.LVL46:
	.loc 1 757 3
	.loc 1 758 3
	.loc 1 759 3
	.loc 1 760 3
	.loc 1 763 3
	.loc 1 775 3
	.loc 1 779 3
	.loc 1 779 20 is_stmt 0
	ldrb	r3, [r0, #52]	@ zero_extendqisi2
	.loc 1 779 5
	cmp	r3, #1
	beq	.L101
	.loc 1 782 12
	movs	r0, #1
.LVL47:
	.loc 1 813 3 is_stmt 1
	.loc 1 814 1 is_stmt 0
	bx	lr
.LVL48:
.L101:
	.loc 1 756 1
	push	{r4, r5, r6, lr}
	.cfi_def_cfa_offset 16
	.cfi_offset 4, -16
	.cfi_offset 5, -12
	.cfi_offset 6, -8
	.cfi_offset 14, -4
	mov	r4, r0
	.loc 1 787 5 is_stmt 1
	.loc 1 787 15 is_stmt 0
	ldr	r0, [r0]
.LVL49:
	bl	DFSDM_GetChannelFromInstance
.LVL50:
	mov	r5, r0
.LVL51:
	.loc 1 790 5 is_stmt 1
	.loc 1 790 17 is_stmt 0
	bl	HAL_GetTick
.LVL52:
	mov	r6, r0
.LVL53:
	.loc 1 793 5 is_stmt 1
.L92:
	.loc 1 793 88
	.loc 1 793 30 is_stmt 0
	ldr	r3, .L103
	ldr	r3, [r3, #8]
	.loc 1 793 39
	and	r3, r3, #16711680
	.loc 1 793 70
	add	r2, r5, #16
	.loc 1 793 60
	lsrs	r3, r3, r2
	.loc 1 793 88
	tst	r3, #1
	beq	.L102
	.loc 1 795 7 is_stmt 1
	.loc 1 795 38 is_stmt 0
	movs	r3, #1
	lsls	r3, r3, r2
	.loc 1 795 31
	ldr	r2, .L103
	str	r3, [r2, #12]
	.loc 1 798 7 is_stmt 1
	.loc 1 798 11 is_stmt 0
	bl	HAL_GetTick
.LVL54:
	.loc 1 798 24
	subs	r3, r0, r6
	.loc 1 798 9
	movw	r2, #5000
	cmp	r3, r2
	bls	.L92
	.loc 1 801 16
	movs	r0, #3
	b	.L93
.L102:
	.loc 1 757 21
	movs	r0, #0
.L93:
.LVL55:
	.loc 1 806 5 is_stmt 1
	.loc 1 806 7 is_stmt 0
	cbnz	r0, .L91
	.loc 1 809 7 is_stmt 1
	.loc 1 809 21 is_stmt 0
	ldr	r2, [r4]
	.loc 1 809 31
	ldr	r3, [r2]
	.loc 1 809 41
	orr	r3, r3, #64
	str	r3, [r2]
.L91:
	.loc 1 813 3 is_stmt 1
	.loc 1 814 1 is_stmt 0
	pop	{r4, r5, r6, pc}
.LVL56:
.L104:
	.align	2
.L103:
	.word	1073836288
	.cfi_endproc
.LFE339:
	.size	HAL_DFSDM_ChannelCkabStart, .-HAL_DFSDM_ChannelCkabStart
	.section	.text.HAL_DFSDM_ChannelPollForCkab,"ax",%progbits
	.align	1
	.global	HAL_DFSDM_ChannelPollForCkab
	.syntax unified
	.thumb
	.thumb_func
	.type	HAL_DFSDM_ChannelPollForCkab, %function
HAL_DFSDM_ChannelPollForCkab:
.LFB340:
	.loc 1 824 1 is_stmt 1
	.cfi_startproc
	@ args = 0, pretend = 0, frame = 0
	@ frame_needed = 0, uses_anonymous_args = 0
.LVL57:
	.loc 1 825 3
	.loc 1 826 3
	.loc 1 827 3
	.loc 1 830 3
	.loc 1 842 3
	.loc 1 846 3
	.loc 1 846 20 is_stmt 0
	ldrb	r3, [r0, #52]	@ zero_extendqisi2
	.loc 1 846 5
	cmp	r3, #1
	beq	.L117
	.loc 1 849 12
	movs	r0, #1
.LVL58:
	.loc 1 879 1
	bx	lr
.LVL59:
.L117:
	.loc 1 824 1
	push	{r4, r5, r6, lr}
	.cfi_def_cfa_offset 16
	.cfi_offset 4, -16
	.cfi_offset 5, -12
	.cfi_offset 6, -8
	.cfi_offset 14, -4
	mov	r4, r1
	.loc 1 854 5 is_stmt 1
	.loc 1 854 15 is_stmt 0
	ldr	r0, [r0]
.LVL60:
	bl	DFSDM_GetChannelFromInstance
.LVL61:
	mov	r5, r0
.LVL62:
	.loc 1 857 5 is_stmt 1
	.loc 1 857 17 is_stmt 0
	bl	HAL_GetTick
.LVL63:
	mov	r6, r0
.LVL64:
	.loc 1 860 5 is_stmt 1
.L108:
	.loc 1 860 88
	.loc 1 860 30 is_stmt 0
	ldr	r3, .L119
	ldr	r3, [r3, #8]
	.loc 1 860 39
	and	r3, r3, #16711680
	.loc 1 860 70
	add	r2, r5, #16
	.loc 1 860 60
	lsrs	r3, r3, r2
	.loc 1 860 88
	tst	r3, #1
	bne	.L118
	.loc 1 863 7 is_stmt 1
	.loc 1 863 9 is_stmt 0
	cmp	r4, #-1
	beq	.L108
	.loc 1 865 9 is_stmt 1
	.loc 1 865 14 is_stmt 0
	bl	HAL_GetTick
.LVL65:
	.loc 1 865 27
	subs	r0, r0, r6
	.loc 1 865 11
	cmp	r0, r4
	bhi	.L111
	.loc 1 865 50 discriminator 1
	cmp	r4, #0
	bne	.L108
	.loc 1 868 18
	movs	r0, #3
	b	.L106
.L118:
	.loc 1 874 5 is_stmt 1
	.loc 1 874 36 is_stmt 0
	movs	r3, #1
	lsls	r3, r3, r2
	.loc 1 874 29
	ldr	r2, .L119
	str	r3, [r2, #12]
	.loc 1 877 5 is_stmt 1
	.loc 1 877 12 is_stmt 0
	movs	r0, #0
.L106:
	.loc 1 879 1
	pop	{r4, r5, r6, pc}
.LVL66:
.L111:
	.loc 1 868 18
	movs	r0, #3
	b	.L106
.L120:
	.align	2
.L119:
	.word	1073836288
	.cfi_endproc
.LFE340:
	.size	HAL_DFSDM_ChannelPollForCkab, .-HAL_DFSDM_ChannelPollForCkab
	.section	.text.HAL_DFSDM_ChannelCkabStop,"ax",%progbits
	.align	1
	.global	HAL_DFSDM_ChannelCkabStop
	.syntax unified
	.thumb
	.thumb_func
	.type	HAL_DFSDM_ChannelCkabStop, %function
HAL_DFSDM_ChannelCkabStop:
.LFB341:
	.loc 1 887 1 is_stmt 1
	.cfi_startproc
	@ args = 0, pretend = 0, frame = 0
	@ frame_needed = 0, uses_anonymous_args = 0
.LVL67:
	push	{r3, lr}
	.cfi_def_cfa_offset 8
	.cfi_offset 3, -8
	.cfi_offset 14, -4
	.loc 1 888 3
.LVL68:
	.loc 1 889 3
	.loc 1 890 3
	.loc 1 893 3
	.loc 1 905 3
	.loc 1 909 3
	.loc 1 909 20 is_stmt 0
	ldrb	r3, [r0, #52]	@ zero_extendqisi2
	.loc 1 909 5
	cmp	r3, #1
	beq	.L125
	.loc 1 912 12
	movs	r0, #1
.LVL69:
.L122:
	.loc 1 924 3 is_stmt 1
	.loc 1 925 1 is_stmt 0
	pop	{r3, pc}
.LVL70:
.L125:
	.loc 1 917 5 is_stmt 1
	.loc 1 917 19 is_stmt 0
	ldr	r2, [r0]
	.loc 1 917 29
	ldr	r3, [r2]
	.loc 1 917 39
	bic	r3, r3, #64
	str	r3, [r2]
	.loc 1 920 5 is_stmt 1
	.loc 1 920 15 is_stmt 0
	ldr	r0, [r0]
.LVL71:
	bl	DFSDM_GetChannelFromInstance
.LVL72:
	.loc 1 921 5 is_stmt 1
	.loc 1 921 46 is_stmt 0
	adds	r0, r0, #16
.LVL73:
	.loc 1 921 36
	movs	r3, #1
	lsls	r3, r3, r0
	.loc 1 921 29
	ldr	r2, .L126
	str	r3, [r2, #12]
	.loc 1 888 21
	movs	r0, #0
.LVL74:
	b	.L122
.L127:
	.align	2
.L126:
	.word	1073836288
	.cfi_endproc
.LFE341:
	.size	HAL_DFSDM_ChannelCkabStop, .-HAL_DFSDM_ChannelCkabStop
	.section	.text.HAL_DFSDM_ChannelCkabStart_IT,"ax",%progbits
	.align	1
	.global	HAL_DFSDM_ChannelCkabStart_IT
	.syntax unified
	.thumb
	.thumb_func
	.type	HAL_DFSDM_ChannelCkabStart_IT, %function
HAL_DFSDM_ChannelCkabStart_IT:
.LFB342:
	.loc 1 937 1 is_stmt 1
	.cfi_startproc
	@ args = 0, pretend = 0, frame = 0
	@ frame_needed = 0, uses_anonymous_args = 0
.LVL75:
	.loc 1 938 3
	.loc 1 939 3
	.loc 1 940 3
	.loc 1 941 3
	.loc 1 944 3
	.loc 1 956 3
	.loc 1 960 3
	.loc 1 960 20 is_stmt 0
	ldrb	r3, [r0, #52]	@ zero_extendqisi2
	.loc 1 960 5
	cmp	r3, #1
	beq	.L139
	.loc 1 963 12
	movs	r0, #1
.LVL76:
	.loc 1 997 3 is_stmt 1
	.loc 1 998 1 is_stmt 0
	bx	lr
.LVL77:
.L139:
	.loc 1 937 1
	push	{r4, r5, r6, lr}
	.cfi_def_cfa_offset 16
	.cfi_offset 4, -16
	.cfi_offset 5, -12
	.cfi_offset 6, -8
	.cfi_offset 14, -4
	mov	r4, r0
	.loc 1 968 5 is_stmt 1
	.loc 1 968 15 is_stmt 0
	ldr	r0, [r0]
.LVL78:
	bl	DFSDM_GetChannelFromInstance
.LVL79:
	mov	r5, r0
.LVL80:
	.loc 1 971 5 is_stmt 1
	.loc 1 971 17 is_stmt 0
	bl	HAL_GetTick
.LVL81:
	mov	r6, r0
.LVL82:
	.loc 1 974 5 is_stmt 1
.L130:
	.loc 1 974 88
	.loc 1 974 30 is_stmt 0
	ldr	r3, .L141
	ldr	r3, [r3, #8]
	.loc 1 974 39
	and	r3, r3, #16711680
	.loc 1 974 70
	add	r2, r5, #16
	.loc 1 974 60
	lsrs	r3, r3, r2
	.loc 1 974 88
	tst	r3, #1
	beq	.L140
	.loc 1 976 7 is_stmt 1
	.loc 1 976 38 is_stmt 0
	movs	r3, #1
	lsls	r3, r3, r2
	.loc 1 976 31
	ldr	r2, .L141
	str	r3, [r2, #12]
	.loc 1 979 7 is_stmt 1
	.loc 1 979 11 is_stmt 0
	bl	HAL_GetTick
.LVL83:
	.loc 1 979 24
	subs	r3, r0, r6
	.loc 1 979 9
	movw	r2, #5000
	cmp	r3, r2
	bls	.L130
	.loc 1 982 16
	movs	r0, #3
	b	.L131
.L140:
	.loc 1 938 21
	movs	r0, #0
.L131:
.LVL84:
	.loc 1 987 5 is_stmt 1
	.loc 1 987 7 is_stmt 0
	cbnz	r0, .L129
	.loc 1 990 7 is_stmt 1
	.loc 1 990 22 is_stmt 0
	ldr	r2, .L141
	ldr	r3, [r2, #4]
	.loc 1 990 31
	orr	r3, r3, #64
	str	r3, [r2, #4]
	.loc 1 993 7 is_stmt 1
	.loc 1 993 21 is_stmt 0
	ldr	r2, [r4]
	.loc 1 993 31
	ldr	r3, [r2]
	.loc 1 993 41
	orr	r3, r3, #64
	str	r3, [r2]
.L129:
	.loc 1 997 3 is_stmt 1
	.loc 1 998 1 is_stmt 0
	pop	{r4, r5, r6, pc}
.LVL85:
.L142:
	.align	2
.L141:
	.word	1073836288
	.cfi_endproc
.LFE342:
	.size	HAL_DFSDM_ChannelCkabStart_IT, .-HAL_DFSDM_ChannelCkabStart_IT
	.section	.text.HAL_DFSDM_ChannelCkabCallback,"ax",%progbits
	.align	1
	.weak	HAL_DFSDM_ChannelCkabCallback
	.syntax unified
	.thumb
	.thumb_func
	.type	HAL_DFSDM_ChannelCkabCallback, %function
HAL_DFSDM_ChannelCkabCallback:
.LFB343:
	.loc 1 1006 1 is_stmt 1
	.cfi_startproc
	@ args = 0, pretend = 0, frame = 0
	@ frame_needed = 0, uses_anonymous_args = 0
	@ link register save eliminated.
.LVL86:
	.loc 1 1008 3
	.loc 1 1013 1 is_stmt 0
	bx	lr
	.cfi_endproc
.LFE343:
	.size	HAL_DFSDM_ChannelCkabCallback, .-HAL_DFSDM_ChannelCkabCallback
	.section	.text.HAL_DFSDM_ChannelCkabStop_IT,"ax",%progbits
	.align	1
	.global	HAL_DFSDM_ChannelCkabStop_IT
	.syntax unified
	.thumb
	.thumb_func
	.type	HAL_DFSDM_ChannelCkabStop_IT, %function
HAL_DFSDM_ChannelCkabStop_IT:
.LFB344:
	.loc 1 1022 1 is_stmt 1
	.cfi_startproc
	@ args = 0, pretend = 0, frame = 0
	@ frame_needed = 0, uses_anonymous_args = 0
.LVL87:
	push	{r3, lr}
	.cfi_def_cfa_offset 8
	.cfi_offset 3, -8
	.cfi_offset 14, -4
	.loc 1 1023 3
.LVL88:
	.loc 1 1024 3
	.loc 1 1025 3
	.loc 1 1028 3
	.loc 1 1040 3
	.loc 1 1044 3
	.loc 1 1044 20 is_stmt 0
	ldrb	r3, [r0, #52]	@ zero_extendqisi2
	.loc 1 1044 5
	cmp	r3, #1
	beq	.L148
	.loc 1 1047 12
	movs	r0, #1
.LVL89:
.L145:
	.loc 1 1062 3 is_stmt 1
	.loc 1 1063 1 is_stmt 0
	pop	{r3, pc}
.LVL90:
.L148:
	.loc 1 1052 5 is_stmt 1
	.loc 1 1052 19 is_stmt 0
	ldr	r2, [r0]
	.loc 1 1052 29
	ldr	r3, [r2]
	.loc 1 1052 39
	bic	r3, r3, #64
	str	r3, [r2]
	.loc 1 1055 5 is_stmt 1
	.loc 1 1055 15 is_stmt 0
	ldr	r0, [r0]
.LVL91:
	bl	DFSDM_GetChannelFromInstance
.LVL92:
	.loc 1 1056 5 is_stmt 1
	.loc 1 1056 46 is_stmt 0
	adds	r0, r0, #16
.LVL93:
	.loc 1 1056 36
	movs	r2, #1
	lsls	r2, r2, r0
	.loc 1 1056 29
	ldr	r3, .L149
	str	r2, [r3, #12]
	.loc 1 1059 5 is_stmt 1
	.loc 1 1059 20 is_stmt 0
	ldr	r2, [r3, #4]
	.loc 1 1059 29
	bic	r2, r2, #64
	str	r2, [r3, #4]
	.loc 1 1023 21
	movs	r0, #0
.LVL94:
	b	.L145
.L150:
	.align	2
.L149:
	.word	1073836288
	.cfi_endproc
.LFE344:
	.size	HAL_DFSDM_ChannelCkabStop_IT, .-HAL_DFSDM_ChannelCkabStop_IT
	.section	.text.HAL_DFSDM_ChannelScdStart,"ax",%progbits
	.align	1
	.global	HAL_DFSDM_ChannelScdStart
	.syntax unified
	.thumb
	.thumb_func
	.type	HAL_DFSDM_ChannelScdStart, %function
HAL_DFSDM_ChannelScdStart:
.LFB345:
	.loc 1 1078 1 is_stmt 1
	.cfi_startproc
	@ args = 0, pretend = 0, frame = 0
	@ frame_needed = 0, uses_anonymous_args = 0
	@ link register save eliminated.
.LVL95:
	.loc 1 1079 3
	.loc 1 1082 3
	.loc 1 1083 3
	.loc 1 1084 3
	.loc 1 1087 3
	.loc 1 1087 20 is_stmt 0
	ldrb	r3, [r0, #52]	@ zero_extendqisi2
	.loc 1 1087 5
	cmp	r3, #1
	beq	.L158
	.loc 1 1090 12
	movs	r0, #1
.LVL96:
	.loc 1 1103 3 is_stmt 1
	.loc 1 1104 1 is_stmt 0
	bx	lr
.LVL97:
.L158:
	.loc 1 1078 1
	push	{r4, r5}
	.cfi_def_cfa_offset 8
	.cfi_offset 4, -8
	.cfi_offset 5, -4
	.loc 1 1095 5 is_stmt 1
	.loc 1 1095 19 is_stmt 0
	ldr	r4, [r0]
	.loc 1 1095 29
	ldr	r5, [r4, #8]
	.loc 1 1095 40
	ldr	r3, .L159
	ands	r3, r3, r5
	str	r3, [r4, #8]
	.loc 1 1096 5 is_stmt 1
	.loc 1 1096 19 is_stmt 0
	ldr	r4, [r0]
	.loc 1 1096 29
	ldr	r3, [r4, #8]
	.loc 1 1096 67
	orr	r1, r1, r2, lsl #12
.LVL98:
	.loc 1 1096 40
	orrs	r3, r3, r1
	str	r3, [r4, #8]
	.loc 1 1100 5 is_stmt 1
	.loc 1 1100 19 is_stmt 0
	ldr	r2, [r0]
.LVL99:
	.loc 1 1100 29
	ldr	r3, [r2]
	.loc 1 1100 39
	orr	r3, r3, #32
	str	r3, [r2]
	.loc 1 1079 21
	movs	r0, #0
.LVL100:
	.loc 1 1103 3 is_stmt 1
	.loc 1 1104 1 is_stmt 0
	pop	{r4, r5}
	.cfi_restore 5
	.cfi_restore 4
	.cfi_def_cfa_offset 0
	bx	lr
.L160:
	.align	2
.L159:
	.word	-61696
	.cfi_endproc
.LFE345:
	.size	HAL_DFSDM_ChannelScdStart, .-HAL_DFSDM_ChannelScdStart
	.section	.text.HAL_DFSDM_ChannelPollForScd,"ax",%progbits
	.align	1
	.global	HAL_DFSDM_ChannelPollForScd
	.syntax unified
	.thumb
	.thumb_func
	.type	HAL_DFSDM_ChannelPollForScd, %function
HAL_DFSDM_ChannelPollForScd:
.LFB346:
	.loc 1 1114 1 is_stmt 1
	.cfi_startproc
	@ args = 0, pretend = 0, frame = 0
	@ frame_needed = 0, uses_anonymous_args = 0
.LVL101:
	.loc 1 1115 3
	.loc 1 1116 3
	.loc 1 1117 3
	.loc 1 1120 3
	.loc 1 1132 3
	.loc 1 1136 3
	.loc 1 1136 20 is_stmt 0
	ldrb	r3, [r0, #52]	@ zero_extendqisi2
	.loc 1 1136 5
	cmp	r3, #1
	beq	.L173
	.loc 1 1139 12
	movs	r0, #1
.LVL102:
	.loc 1 1169 1
	bx	lr
.LVL103:
.L173:
	.loc 1 1114 1
	push	{r4, r5, r6, lr}
	.cfi_def_cfa_offset 16
	.cfi_offset 4, -16
	.cfi_offset 5, -12
	.cfi_offset 6, -8
	.cfi_offset 14, -4
	mov	r4, r1
	.loc 1 1144 5 is_stmt 1
	.loc 1 1144 15 is_stmt 0
	ldr	r0, [r0]
.LVL104:
	bl	DFSDM_GetChannelFromInstance
.LVL105:
	mov	r5, r0
.LVL106:
	.loc 1 1147 5 is_stmt 1
	.loc 1 1147 17 is_stmt 0
	bl	HAL_GetTick
.LVL107:
	mov	r6, r0
.LVL108:
	.loc 1 1150 5 is_stmt 1
.L164:
	.loc 1 1150 81
	.loc 1 1150 29 is_stmt 0
	ldr	r3, .L175
	ldr	r3, [r3, #8]
	.loc 1 1150 38
	and	r3, r3, #-16777216
	.loc 1 1150 69
	add	r2, r5, #24
	.loc 1 1150 81
	lsrs	r3, r3, r2
	bne	.L174
	.loc 1 1153 7 is_stmt 1
	.loc 1 1153 9 is_stmt 0
	cmp	r4, #-1
	beq	.L164
	.loc 1 1155 9 is_stmt 1
	.loc 1 1155 14 is_stmt 0
	bl	HAL_GetTick
.LVL109:
	.loc 1 1155 27
	subs	r0, r0, r6
	.loc 1 1155 11
	cmp	r0, r4
	bhi	.L167
	.loc 1 1155 50 discriminator 1
	cmp	r4, #0
	bne	.L164
	.loc 1 1158 18
	movs	r0, #3
	b	.L162
.L174:
	.loc 1 1164 5 is_stmt 1
	.loc 1 1164 36 is_stmt 0
	movs	r3, #1
	lsls	r3, r3, r2
	.loc 1 1164 29
	ldr	r2, .L175
	str	r3, [r2, #12]
	.loc 1 1167 5 is_stmt 1
	.loc 1 1167 12 is_stmt 0
	movs	r0, #0
.L162:
	.loc 1 1169 1
	pop	{r4, r5, r6, pc}
.LVL110:
.L167:
	.loc 1 1158 18
	movs	r0, #3
	b	.L162
.L176:
	.align	2
.L175:
	.word	1073836288
	.cfi_endproc
.LFE346:
	.size	HAL_DFSDM_ChannelPollForScd, .-HAL_DFSDM_ChannelPollForScd
	.section	.text.HAL_DFSDM_ChannelScdStop,"ax",%progbits
	.align	1
	.global	HAL_DFSDM_ChannelScdStop
	.syntax unified
	.thumb
	.thumb_func
	.type	HAL_DFSDM_ChannelScdStop, %function
HAL_DFSDM_ChannelScdStop:
.LFB347:
	.loc 1 1177 1 is_stmt 1
	.cfi_startproc
	@ args = 0, pretend = 0, frame = 0
	@ frame_needed = 0, uses_anonymous_args = 0
.LVL111:
	push	{r3, lr}
	.cfi_def_cfa_offset 8
	.cfi_offset 3, -8
	.cfi_offset 14, -4
	.loc 1 1178 3
.LVL112:
	.loc 1 1179 3
	.loc 1 1180 3
	.loc 1 1183 3
	.loc 1 1195 3
	.loc 1 1199 3
	.loc 1 1199 20 is_stmt 0
	ldrb	r3, [r0, #52]	@ zero_extendqisi2
	.loc 1 1199 5
	cmp	r3, #1
	beq	.L181
	.loc 1 1202 12
	movs	r0, #1
.LVL113:
.L178:
	.loc 1 1214 3 is_stmt 1
	.loc 1 1215 1 is_stmt 0
	pop	{r3, pc}
.LVL114:
.L181:
	.loc 1 1207 5 is_stmt 1
	.loc 1 1207 19 is_stmt 0
	ldr	r2, [r0]
	.loc 1 1207 29
	ldr	r3, [r2]
	.loc 1 1207 39
	bic	r3, r3, #32
	str	r3, [r2]
	.loc 1 1210 5 is_stmt 1
	.loc 1 1210 15 is_stmt 0
	ldr	r0, [r0]
.LVL115:
	bl	DFSDM_GetChannelFromInstance
.LVL116:
	.loc 1 1211 5 is_stmt 1
	.loc 1 1211 46 is_stmt 0
	adds	r0, r0, #24
.LVL117:
	.loc 1 1211 36
	movs	r3, #1
	lsls	r3, r3, r0
	.loc 1 1211 29
	ldr	r2, .L182
	str	r3, [r2, #12]
	.loc 1 1178 21
	movs	r0, #0
.LVL118:
	b	.L178
.L183:
	.align	2
.L182:
	.word	1073836288
	.cfi_endproc
.LFE347:
	.size	HAL_DFSDM_ChannelScdStop, .-HAL_DFSDM_ChannelScdStop
	.section	.text.HAL_DFSDM_ChannelScdStart_IT,"ax",%progbits
	.align	1
	.global	HAL_DFSDM_ChannelScdStart_IT
	.syntax unified
	.thumb
	.thumb_func
	.type	HAL_DFSDM_ChannelScdStart_IT, %function
HAL_DFSDM_ChannelScdStart_IT:
.LFB348:
	.loc 1 1230 1 is_stmt 1
	.cfi_startproc
	@ args = 0, pretend = 0, frame = 0
	@ frame_needed = 0, uses_anonymous_args = 0
	@ link register save eliminated.
.LVL119:
	.loc 1 1231 3
	.loc 1 1232 3
	.loc 1 1235 3
	.loc 1 1236 3
	.loc 1 1237 3
	.loc 1 1249 3
	.loc 1 1253 3
	.loc 1 1253 20 is_stmt 0
	ldrb	r3, [r0, #52]	@ zero_extendqisi2
	.loc 1 1253 5
	cmp	r3, #1
	beq	.L191
	.loc 1 1256 12
	movs	r0, #1
.LVL120:
	.loc 1 1272 3 is_stmt 1
	.loc 1 1273 1 is_stmt 0
	bx	lr
.LVL121:
.L191:
	.loc 1 1230 1
	push	{r4, r5}
	.cfi_def_cfa_offset 8
	.cfi_offset 4, -8
	.cfi_offset 5, -4
	.loc 1 1261 5 is_stmt 1
	.loc 1 1261 20 is_stmt 0
	ldr	r4, .L192
	ldr	r3, [r4, #4]
	.loc 1 1261 29
	orr	r3, r3, #32
	str	r3, [r4, #4]
	.loc 1 1264 5 is_stmt 1
	.loc 1 1264 19 is_stmt 0
	ldr	r4, [r0]
	.loc 1 1264 29
	ldr	r5, [r4, #8]
	.loc 1 1264 40
	ldr	r3, .L192+4
	ands	r3, r3, r5
	str	r3, [r4, #8]
	.loc 1 1265 5 is_stmt 1
	.loc 1 1265 19 is_stmt 0
	ldr	r4, [r0]
	.loc 1 1265 29
	ldr	r3, [r4, #8]
	.loc 1 1265 67
	orr	r1, r1, r2, lsl #12
.LVL122:
	.loc 1 1265 40
	orrs	r3, r3, r1
	str	r3, [r4, #8]
	.loc 1 1269 5 is_stmt 1
	.loc 1 1269 19 is_stmt 0
	ldr	r2, [r0]
.LVL123:
	.loc 1 1269 29
	ldr	r3, [r2]
	.loc 1 1269 39
	orr	r3, r3, #32
	str	r3, [r2]
	.loc 1 1231 21
	movs	r0, #0
.LVL124:
	.loc 1 1272 3 is_stmt 1
	.loc 1 1273 1 is_stmt 0
	pop	{r4, r5}
	.cfi_restore 5
	.cfi_restore 4
	.cfi_def_cfa_offset 0
	bx	lr
.L193:
	.align	2
.L192:
	.word	1073836288
	.word	-61696
	.cfi_endproc
.LFE348:
	.size	HAL_DFSDM_ChannelScdStart_IT, .-HAL_DFSDM_ChannelScdStart_IT
	.section	.text.HAL_DFSDM_ChannelScdCallback,"ax",%progbits
	.align	1
	.weak	HAL_DFSDM_ChannelScdCallback
	.syntax unified
	.thumb
	.thumb_func
	.type	HAL_DFSDM_ChannelScdCallback, %function
HAL_DFSDM_ChannelScdCallback:
.LFB349:
	.loc 1 1281 1 is_stmt 1
	.cfi_startproc
	@ args = 0, pretend = 0, frame = 0
	@ frame_needed = 0, uses_anonymous_args = 0
	@ link register save eliminated.
.LVL125:
	.loc 1 1283 3
	.loc 1 1288 1 is_stmt 0
	bx	lr
	.cfi_endproc
.LFE349:
	.size	HAL_DFSDM_ChannelScdCallback, .-HAL_DFSDM_ChannelScdCallback
	.section	.text.HAL_DFSDM_ChannelScdStop_IT,"ax",%progbits
	.align	1
	.global	HAL_DFSDM_ChannelScdStop_IT
	.syntax unified
	.thumb
	.thumb_func
	.type	HAL_DFSDM_ChannelScdStop_IT, %function
HAL_DFSDM_ChannelScdStop_IT:
.LFB350:
	.loc 1 1297 1 is_stmt 1
	.cfi_startproc
	@ args = 0, pretend = 0, frame = 0
	@ frame_needed = 0, uses_anonymous_args = 0
.LVL126:
	push	{r3, lr}
	.cfi_def_cfa_offset 8
	.cfi_offset 3, -8
	.cfi_offset 14, -4
	.loc 1 1298 3
.LVL127:
	.loc 1 1299 3
	.loc 1 1300 3
	.loc 1 1303 3
	.loc 1 1315 3
	.loc 1 1319 3
	.loc 1 1319 20 is_stmt 0
	ldrb	r3, [r0, #52]	@ zero_extendqisi2
	.loc 1 1319 5
	cmp	r3, #1
	beq	.L199
	.loc 1 1322 12
	movs	r0, #1
.LVL128:
.L196:
	.loc 1 1337 3 is_stmt 1
	.loc 1 1338 1 is_stmt 0
	pop	{r3, pc}
.LVL129:
.L199:
	.loc 1 1327 5 is_stmt 1
	.loc 1 1327 19 is_stmt 0
	ldr	r2, [r0]
	.loc 1 1327 29
	ldr	r3, [r2]
	.loc 1 1327 39
	bic	r3, r3, #32
	str	r3, [r2]
	.loc 1 1330 5 is_stmt 1
	.loc 1 1330 15 is_stmt 0
	ldr	r0, [r0]
.LVL130:
	bl	DFSDM_GetChannelFromInstance
.LVL131:
	.loc 1 1331 5 is_stmt 1
	.loc 1 1331 46 is_stmt 0
	adds	r0, r0, #24
.LVL132:
	.loc 1 1331 36
	movs	r2, #1
	lsls	r2, r2, r0
	.loc 1 1331 29
	ldr	r3, .L200
	str	r2, [r3, #12]
	.loc 1 1334 5 is_stmt 1
	.loc 1 1334 20 is_stmt 0
	ldr	r2, [r3, #4]
	.loc 1 1334 29
	bic	r2, r2, #32
	str	r2, [r3, #4]
	.loc 1 1298 21
	movs	r0, #0
.LVL133:
	b	.L196
.L201:
	.align	2
.L200:
	.word	1073836288
	.cfi_endproc
.LFE350:
	.size	HAL_DFSDM_ChannelScdStop_IT, .-HAL_DFSDM_ChannelScdStop_IT
	.section	.text.HAL_DFSDM_ChannelGetAwdValue,"ax",%progbits
	.align	1
	.global	HAL_DFSDM_ChannelGetAwdValue
	.syntax unified
	.thumb
	.thumb_func
	.type	HAL_DFSDM_ChannelGetAwdValue, %function
HAL_DFSDM_ChannelGetAwdValue:
.LFB351:
	.loc 1 1346 1 is_stmt 1
	.cfi_startproc
	@ args = 0, pretend = 0, frame = 0
	@ frame_needed = 0, uses_anonymous_args = 0
	@ link register save eliminated.
.LVL134:
	.loc 1 1347 3
	.loc 1 1347 34 is_stmt 0
	ldr	r3, [r0]
	.loc 1 1347 44
	ldr	r0, [r3, #12]
.LVL135:
	.loc 1 1348 1
	sxth	r0, r0
	bx	lr
	.cfi_endproc
.LFE351:
	.size	HAL_DFSDM_ChannelGetAwdValue, .-HAL_DFSDM_ChannelGetAwdValue
	.section	.text.HAL_DFSDM_ChannelModifyOffset,"ax",%progbits
	.align	1
	.global	HAL_DFSDM_ChannelModifyOffset
	.syntax unified
	.thumb
	.thumb_func
	.type	HAL_DFSDM_ChannelModifyOffset, %function
HAL_DFSDM_ChannelModifyOffset:
.LFB352:
	.loc 1 1359 1 is_stmt 1
	.cfi_startproc
	@ args = 0, pretend = 0, frame = 0
	@ frame_needed = 0, uses_anonymous_args = 0
	@ link register save eliminated.
.LVL136:
	.loc 1 1360 3
	.loc 1 1363 3
	.loc 1 1364 3
	.loc 1 1367 3
	.loc 1 1367 20 is_stmt 0
	ldrb	r3, [r0, #52]	@ zero_extendqisi2
	.loc 1 1367 5
	cmp	r3, #1
	beq	.L206
	.loc 1 1370 12
	movs	r0, #1
.LVL137:
	.loc 1 1379 3 is_stmt 1
	.loc 1 1380 1 is_stmt 0
	bx	lr
.LVL138:
.L206:
	.loc 1 1375 5 is_stmt 1
	.loc 1 1375 19 is_stmt 0
	ldr	r2, [r0]
	.loc 1 1375 29
	ldr	r3, [r2, #4]
	.loc 1 1375 39
	uxtb	r3, r3
	str	r3, [r2, #4]
	.loc 1 1376 5 is_stmt 1
	.loc 1 1376 19 is_stmt 0
	ldr	r2, [r0]
	.loc 1 1376 29
	ldr	r3, [r2, #4]
	.loc 1 1376 39
	orr	r3, r3, r1, lsl #8
	str	r3, [r2, #4]
	.loc 1 1360 21
	movs	r0, #0
.LVL139:
	bx	lr
	.cfi_endproc
.LFE352:
	.size	HAL_DFSDM_ChannelModifyOffset, .-HAL_DFSDM_ChannelModifyOffset
	.section	.text.HAL_DFSDM_ChannelGetState,"ax",%progbits
	.align	1
	.global	HAL_DFSDM_ChannelGetState
	.syntax unified
	.thumb
	.thumb_func
	.type	HAL_DFSDM_ChannelGetState, %function
HAL_DFSDM_ChannelGetState:
.LFB353:
	.loc 1 1405 1 is_stmt 1
	.cfi_startproc
	@ args = 0, pretend = 0, frame = 0
	@ frame_needed = 0, uses_anonymous_args = 0
	@ link register save eliminated.
.LVL140:
	.loc 1 1407 3
	.loc 1 1408 1 is_stmt 0
	ldrb	r0, [r0, #52]	@ zero_extendqisi2
.LVL141:
	bx	lr
	.cfi_endproc
.LFE353:
	.size	HAL_DFSDM_ChannelGetState, .-HAL_DFSDM_ChannelGetState
	.section	.text.HAL_DFSDM_FilterMspInit,"ax",%progbits
	.align	1
	.weak	HAL_DFSDM_FilterMspInit
	.syntax unified
	.thumb
	.thumb_func
	.type	HAL_DFSDM_FilterMspInit, %function
HAL_DFSDM_FilterMspInit:
.LFB356:
	.loc 1 1613 1 is_stmt 1
	.cfi_startproc
	@ args = 0, pretend = 0, frame = 0
	@ frame_needed = 0, uses_anonymous_args = 0
	@ link register save eliminated.
.LVL142:
	.loc 1 1615 3
	.loc 1 1620 1 is_stmt 0
	bx	lr
	.cfi_endproc
.LFE356:
	.size	HAL_DFSDM_FilterMspInit, .-HAL_DFSDM_FilterMspInit
	.section	.text.HAL_DFSDM_FilterInit,"ax",%progbits
	.align	1
	.global	HAL_DFSDM_FilterInit
	.syntax unified
	.thumb
	.thumb_func
	.type	HAL_DFSDM_FilterInit, %function
HAL_DFSDM_FilterInit:
.LFB354:
	.loc 1 1435 1 is_stmt 1
	.cfi_startproc
	@ args = 0, pretend = 0, frame = 0
	@ frame_needed = 0, uses_anonymous_args = 0
.LVL143:
	.loc 1 1436 3
	.loc 1 1439 3
	.loc 1 1439 5 is_stmt 0
	cmp	r0, #0
	beq	.L221
	.loc 1 1435 1
	push	{r4, lr}
	.cfi_def_cfa_offset 8
	.cfi_offset 4, -8
	.cfi_offset 14, -4
	mov	r4, r0
	.loc 1 1445 3 is_stmt 1
	.loc 1 1446 3
	.loc 1 1447 3
	.loc 1 1448 3
	.loc 1 1449 3
	.loc 1 1450 3
	.loc 1 1451 3
	.loc 1 1452 3
	.loc 1 1453 3
	.loc 1 1454 3
	.loc 1 1466 3
.LVL144:
	.loc 1 1470 3
	.loc 1 1470 21 is_stmt 0
	ldr	r2, [r0]
	.loc 1 1470 6
	ldr	r3, .L234
	cmp	r2, r3
	beq	.L228
.L211:
	.loc 1 1478 3 is_stmt 1
	.loc 1 1478 34 is_stmt 0
	movs	r3, #0
	str	r3, [r4, #48]
	.loc 1 1479 3 is_stmt 1
	.loc 1 1479 38 is_stmt 0
	movs	r2, #1
	str	r2, [r4, #68]
	.loc 1 1480 3 is_stmt 1
	.loc 1 1480 35 is_stmt 0
	str	r2, [r4, #72]
	.loc 1 1481 3 is_stmt 1
	.loc 1 1481 28 is_stmt 0
	str	r3, [r4, #80]
	.loc 1 1500 3 is_stmt 1
	mov	r0, r4
.LVL145:
	bl	HAL_DFSDM_FilterMspInit
.LVL146:
	.loc 1 1504 3
	.loc 1 1504 16 is_stmt 0
	ldr	r2, [r4]
	.loc 1 1504 26
	ldr	r3, [r2]
	.loc 1 1504 35
	bic	r3, r3, #524288
	str	r3, [r2]
	.loc 1 1505 3 is_stmt 1
	.loc 1 1505 38 is_stmt 0
	ldrb	r3, [r4, #8]	@ zero_extendqisi2
	.loc 1 1505 5
	cmp	r3, #1
	beq	.L229
	.loc 1 1511 5 is_stmt 1
	.loc 1 1511 18 is_stmt 0
	ldr	r2, [r4]
	.loc 1 1511 28
	ldr	r3, [r2]
	.loc 1 1511 37
	bic	r3, r3, #536870912
	str	r3, [r2]
.L213:
	.loc 1 1514 3 is_stmt 1
	.loc 1 1514 38 is_stmt 0
	ldrb	r3, [r4, #9]	@ zero_extendqisi2
	.loc 1 1514 5
	cmp	r3, #1
	beq	.L230
	.loc 1 1520 5 is_stmt 1
	.loc 1 1520 18 is_stmt 0
	ldr	r2, [r4]
	.loc 1 1520 28
	ldr	r3, [r2]
	.loc 1 1520 37
	bic	r3, r3, #2097152
	str	r3, [r2]
.L215:
	.loc 1 1524 3 is_stmt 1
	.loc 1 1524 16 is_stmt 0
	ldr	r2, [r4]
	.loc 1 1524 26
	ldr	r1, [r2]
	.loc 1 1524 35
	ldr	r3, .L234+4
	ands	r3, r3, r1
	str	r3, [r2]
	.loc 1 1525 3 is_stmt 1
	.loc 1 1525 39 is_stmt 0
	ldr	r3, [r4, #12]
	.loc 1 1525 5
	cmp	r3, #2
	beq	.L231
.L216:
	.loc 1 1532 3 is_stmt 1
	.loc 1 1532 39 is_stmt 0
	ldrb	r3, [r4, #16]	@ zero_extendqisi2
	.loc 1 1532 5
	cmp	r3, #1
	beq	.L232
	.loc 1 1538 5 is_stmt 1
	.loc 1 1538 18 is_stmt 0
	ldr	r2, [r4]
	.loc 1 1538 28
	ldr	r3, [r2]
	.loc 1 1538 37
	bic	r3, r3, #16
	str	r3, [r2]
.L218:
	.loc 1 1541 3 is_stmt 1
	.loc 1 1541 39 is_stmt 0
	ldrb	r3, [r4, #17]	@ zero_extendqisi2
	.loc 1 1541 5
	cmp	r3, #1
	beq	.L233
	.loc 1 1547 5 is_stmt 1
	.loc 1 1547 18 is_stmt 0
	ldr	r2, [r4]
	.loc 1 1547 28
	ldr	r3, [r2]
	.loc 1 1547 37
	bic	r3, r3, #32
	str	r3, [r2]
.L220:
	.loc 1 1551 3 is_stmt 1
	.loc 1 1551 16 is_stmt 0
	ldr	r2, [r4]
	.loc 1 1551 26
	ldr	r1, [r2, #20]
	.loc 1 1551 35
	ldr	r3, .L234+8
	ands	r3, r3, r1
	str	r3, [r2, #20]
	.loc 1 1552 3 is_stmt 1
	.loc 1 1552 16 is_stmt 0
	ldr	r0, [r4]
	.loc 1 1552 26
	ldr	r2, [r0, #20]
	.loc 1 1552 70
	ldr	r3, [r4, #28]
	.loc 1 1553 72
	ldr	r1, [r4, #32]
	.loc 1 1553 86
	subs	r1, r1, #1
	.loc 1 1552 81
	orr	r3, r3, r1, lsl #16
	.loc 1 1554 71
	ldr	r1, [r4, #36]
	.loc 1 1554 88
	subs	r1, r1, #1
	.loc 1 1553 102
	orrs	r3, r3, r1
	.loc 1 1552 35
	orrs	r3, r3, r2
	str	r3, [r0, #20]
	.loc 1 1557 3 is_stmt 1
	.loc 1 1557 67 is_stmt 0
	ldr	r3, [r4, #4]
	.loc 1 1557 33
	str	r3, [r4, #52]
	.loc 1 1558 3 is_stmt 1
	.loc 1 1558 69 is_stmt 0
	ldr	r3, [r4, #12]
	.loc 1 1558 34
	str	r3, [r4, #56]
	.loc 1 1559 3 is_stmt 1
	.loc 1 1559 68 is_stmt 0
	ldr	r3, [r4, #24]
	.loc 1 1559 33
	str	r3, [r4, #60]
	.loc 1 1560 3 is_stmt 1
	.loc 1 1560 70 is_stmt 0
	ldrb	r3, [r4, #16]	@ zero_extendqisi2
	.loc 1 1560 35
	strb	r3, [r4, #64]
	.loc 1 1563 3 is_stmt 1
	.loc 1 1563 16 is_stmt 0
	ldr	r2, [r4]
	.loc 1 1563 26
	ldr	r3, [r2]
	.loc 1 1563 35
	orr	r3, r3, #1
	str	r3, [r2]
	.loc 1 1566 3 is_stmt 1
	.loc 1 1566 24 is_stmt 0
	movs	r3, #1
	strb	r3, [r4, #76]
	.loc 1 1568 3 is_stmt 1
	.loc 1 1568 10 is_stmt 0
	movs	r0, #0
.L210:
	.loc 1 1569 1
	pop	{r4, pc}
.LVL147:
.L228:
	.loc 1 1471 41 discriminator 1
	ldr	r3, [r0, #4]
	.loc 1 1470 52 discriminator 1
	cmp	r3, #1
	beq	.L222
	.loc 1 1472 42
	ldr	r3, [r0, #12]
	.loc 1 1471 66
	cmp	r3, #1
	bne	.L211
	.loc 1 1474 12
	movs	r0, #1
.LVL148:
	b	.L210
.L229:
	.loc 1 1507 5 is_stmt 1
	.loc 1 1507 18 is_stmt 0
	ldr	r2, [r4]
	.loc 1 1507 28
	ldr	r3, [r2]
	.loc 1 1507 37
	orr	r3, r3, #536870912
	str	r3, [r2]
	b	.L213
.L230:
	.loc 1 1516 5 is_stmt 1
	.loc 1 1516 18 is_stmt 0
	ldr	r2, [r4]
	.loc 1 1516 28
	ldr	r3, [r2]
	.loc 1 1516 37
	orr	r3, r3, #2097152
	str	r3, [r2]
	b	.L215
.L231:
	.loc 1 1527 5 is_stmt 1
	.loc 1 1528 5
	.loc 1 1529 5
	.loc 1 1529 18 is_stmt 0
	ldr	r2, [r4]
	.loc 1 1529 28
	ldr	r3, [r2]
	.loc 1 1529 74
	ldr	r1, [r4, #20]
	.loc 1 1529 37
	orrs	r3, r3, r1
	str	r3, [r2]
	b	.L216
.L232:
	.loc 1 1534 5 is_stmt 1
	.loc 1 1534 18 is_stmt 0
	ldr	r2, [r4]
	.loc 1 1534 28
	ldr	r3, [r2]
	.loc 1 1534 37
	orr	r3, r3, #16
	str	r3, [r2]
	b	.L218
.L233:
	.loc 1 1543 5 is_stmt 1
	.loc 1 1543 18 is_stmt 0
	ldr	r2, [r4]
	.loc 1 1543 28
	ldr	r3, [r2]
	.loc 1 1543 37
	orr	r3, r3, #32
	str	r3, [r2]
	b	.L220
.LVL149:
.L221:
	.cfi_def_cfa_offset 0
	.cfi_restore 4
	.cfi_restore 14
	.loc 1 1441 12
	movs	r0, #1
.LVL150:
	.loc 1 1569 1
	bx	lr
.LVL151:
.L222:
	.cfi_def_cfa_offset 8
	.cfi_offset 4, -8
	.cfi_offset 14, -4
	.loc 1 1474 12
	movs	r0, #1
.LVL152:
	b	.L210
.L235:
	.align	2
.L234:
	.word	1073836288
	.word	-32521
	.word	469827328
	.cfi_endproc
.LFE354:
	.size	HAL_DFSDM_FilterInit, .-HAL_DFSDM_FilterInit
	.section	.text.HAL_DFSDM_FilterMspDeInit,"ax",%progbits
	.align	1
	.weak	HAL_DFSDM_FilterMspDeInit
	.syntax unified
	.thumb
	.thumb_func
	.type	HAL_DFSDM_FilterMspDeInit, %function
HAL_DFSDM_FilterMspDeInit:
.LFB357:
	.loc 1 1628 1 is_stmt 1
	.cfi_startproc
	@ args = 0, pretend = 0, frame = 0
	@ frame_needed = 0, uses_anonymous_args = 0
	@ link register save eliminated.
.LVL153:
	.loc 1 1630 3
	.loc 1 1635 1 is_stmt 0
	bx	lr
	.cfi_endproc
.LFE357:
	.size	HAL_DFSDM_FilterMspDeInit, .-HAL_DFSDM_FilterMspDeInit
	.section	.text.HAL_DFSDM_FilterDeInit,"ax",%progbits
	.align	1
	.global	HAL_DFSDM_FilterDeInit
	.syntax unified
	.thumb
	.thumb_func
	.type	HAL_DFSDM_FilterDeInit, %function
HAL_DFSDM_FilterDeInit:
.LFB355:
	.loc 1 1577 1 is_stmt 1
	.cfi_startproc
	@ args = 0, pretend = 0, frame = 0
	@ frame_needed = 0, uses_anonymous_args = 0
.LVL154:
	.loc 1 1579 3
	.loc 1 1579 5 is_stmt 0
	cbz	r0, .L239
	.loc 1 1577 1
	push	{r4, lr}
	.cfi_def_cfa_offset 8
	.cfi_offset 4, -8
	.cfi_offset 14, -4
	mov	r4, r0
	.loc 1 1585 3 is_stmt 1
	.loc 1 1588 3
	.loc 1 1588 16 is_stmt 0
	ldr	r2, [r0]
	.loc 1 1588 26
	ldr	r3, [r2]
	.loc 1 1588 35
	bic	r3, r3, #1
	str	r3, [r2]
	.loc 1 1598 3 is_stmt 1
	bl	HAL_DFSDM_FilterMspDeInit
.LVL155:
	.loc 1 1602 3
	.loc 1 1602 24 is_stmt 0
	movs	r0, #0
	strb	r0, [r4, #76]
	.loc 1 1604 3 is_stmt 1
	.loc 1 1605 1 is_stmt 0
	pop	{r4, pc}
.LVL156:
.L239:
	.cfi_def_cfa_offset 0
	.cfi_restore 4
	.cfi_restore 14
	.loc 1 1581 12
	movs	r0, #1
.LVL157:
	.loc 1 1605 1
	bx	lr
	.cfi_endproc
.LFE355:
	.size	HAL_DFSDM_FilterDeInit, .-HAL_DFSDM_FilterDeInit
	.section	.text.HAL_DFSDM_FilterConfigRegChannel,"ax",%progbits
	.align	1
	.global	HAL_DFSDM_FilterConfigRegChannel
	.syntax unified
	.thumb
	.thumb_func
	.type	HAL_DFSDM_FilterConfigRegChannel, %function
HAL_DFSDM_FilterConfigRegChannel:
.LFB358:
	.loc 1 1904 1 is_stmt 1
	.cfi_startproc
	@ args = 0, pretend = 0, frame = 0
	@ frame_needed = 0, uses_anonymous_args = 0
	@ link register save eliminated.
.LVL158:
	.loc 1 1905 3
	.loc 1 1908 3
	.loc 1 1909 3
	.loc 1 1910 3
	.loc 1 1913 3
	.loc 1 1913 20 is_stmt 0
	ldrb	r3, [r0, #76]	@ zero_extendqisi2
	.loc 1 1913 61
	subs	r3, r3, #1
	uxtb	r3, r3
	.loc 1 1913 5
	cmp	r3, #253
	bhi	.L248
	.loc 1 1904 1
	push	{r4, r5}
	.cfi_def_cfa_offset 8
	.cfi_offset 4, -8
	.cfi_offset 5, -4
	.loc 1 1917 5 is_stmt 1
	.loc 1 1917 18 is_stmt 0
	ldr	r4, [r0]
	.loc 1 1917 28
	ldr	r5, [r4]
	.loc 1 1917 37
	ldr	r3, .L254
	ands	r3, r3, r5
	str	r3, [r4]
	.loc 1 1918 5 is_stmt 1
	.loc 1 1918 7 is_stmt 0
	cmp	r2, #1
	beq	.L253
	.loc 1 1925 7 is_stmt 1
	.loc 1 1925 20 is_stmt 0
	ldr	r4, [r0]
	.loc 1 1925 30
	ldr	r3, [r4]
	.loc 1 1925 42
	lsls	r1, r1, #8
.LVL159:
	and	r1, r1, #-16777216
	.loc 1 1925 39
	orrs	r3, r3, r1
	str	r3, [r4]
.L247:
	.loc 1 1928 5 is_stmt 1
	.loc 1 1928 36 is_stmt 0
	str	r2, [r0, #48]
	.loc 1 1905 21
	movs	r0, #0
.LVL160:
	.loc 1 1936 3 is_stmt 1
	.loc 1 1937 1 is_stmt 0
	pop	{r4, r5}
	.cfi_remember_state
	.cfi_restore 5
	.cfi_restore 4
	.cfi_def_cfa_offset 0
	bx	lr
.LVL161:
.L253:
	.cfi_restore_state
	.loc 1 1920 7 is_stmt 1
	.loc 1 1920 20 is_stmt 0
	ldr	r4, [r0]
	.loc 1 1920 30
	ldr	r3, [r4]
	.loc 1 1920 79
	lsls	r1, r1, #8
.LVL162:
	and	r1, r1, #-16777216
	.loc 1 1920 39
	orrs	r3, r3, r1
	orr	r3, r3, #262144
	str	r3, [r4]
	b	.L247
.LVL163:
.L248:
	.cfi_def_cfa_offset 0
	.cfi_restore 4
	.cfi_restore 5
	.loc 1 1932 12
	movs	r0, #1
.LVL164:
	.loc 1 1936 3 is_stmt 1
	.loc 1 1937 1 is_stmt 0
	bx	lr
.L255:
	.align	2
.L254:
	.word	-117702657
	.cfi_endproc
.LFE358:
	.size	HAL_DFSDM_FilterConfigRegChannel, .-HAL_DFSDM_FilterConfigRegChannel
	.section	.text.HAL_DFSDM_FilterConfigInjChannel,"ax",%progbits
	.align	1
	.global	HAL_DFSDM_FilterConfigInjChannel
	.syntax unified
	.thumb
	.thumb_func
	.type	HAL_DFSDM_FilterConfigInjChannel, %function
HAL_DFSDM_FilterConfigInjChannel:
.LFB359:
	.loc 1 1948 1 is_stmt 1
	.cfi_startproc
	@ args = 0, pretend = 0, frame = 0
	@ frame_needed = 0, uses_anonymous_args = 0
.LVL165:
	.loc 1 1949 3
	.loc 1 1952 3
	.loc 1 1953 3
	.loc 1 1956 3
	.loc 1 1956 20 is_stmt 0
	ldrb	r3, [r0, #76]	@ zero_extendqisi2
	.loc 1 1956 61
	subs	r3, r3, #1
	uxtb	r3, r3
	.loc 1 1956 5
	cmp	r3, #253
	bls	.L264
	.loc 1 1969 12
	movs	r0, #1
.LVL166:
	.loc 1 1972 3 is_stmt 1
	.loc 1 1973 1 is_stmt 0
	bx	lr
.LVL167:
.L264:
	.loc 1 1948 1
	push	{r4, lr}
	.cfi_def_cfa_offset 8
	.cfi_offset 4, -8
	.cfi_offset 14, -4
	mov	r4, r0
	.loc 1 1960 5 is_stmt 1
	.loc 1 1960 18 is_stmt 0
	ldr	r3, [r0]
	.loc 1 1960 41
	uxth	r2, r1
	.loc 1 1960 39
	str	r2, [r3, #16]
	.loc 1 1962 5 is_stmt 1
	.loc 1 1962 42 is_stmt 0
	mov	r0, r1
.LVL168:
	bl	DFSDM_GetInjChannelsNbr
.LVL169:
	.loc 1 1962 40
	str	r0, [r4, #68]
	.loc 1 1964 5 is_stmt 1
	.loc 1 1964 53 is_stmt 0
	ldrb	r3, [r4, #64]	@ zero_extendqisi2
	.loc 1 1965 74
	cmp	r3, #1
	beq	.L258
	movs	r0, #1
.L258:
	.loc 1 1964 37
	str	r0, [r4, #72]
	.loc 1 1949 21
	movs	r0, #0
.LVL170:
	.loc 1 1972 3 is_stmt 1
	.loc 1 1973 1 is_stmt 0
	pop	{r4, pc}
	.cfi_endproc
.LFE359:
	.size	HAL_DFSDM_FilterConfigInjChannel, .-HAL_DFSDM_FilterConfigInjChannel
	.section	.text.HAL_DFSDM_FilterRegularStart,"ax",%progbits
	.align	1
	.global	HAL_DFSDM_FilterRegularStart
	.syntax unified
	.thumb
	.thumb_func
	.type	HAL_DFSDM_FilterRegularStart, %function
HAL_DFSDM_FilterRegularStart:
.LFB360:
	.loc 1 2017 1 is_stmt 1
	.cfi_startproc
	@ args = 0, pretend = 0, frame = 0
	@ frame_needed = 0, uses_anonymous_args = 0
.LVL171:
	push	{r3, lr}
	.cfi_def_cfa_offset 8
	.cfi_offset 3, -8
	.cfi_offset 14, -4
	.loc 1 2018 3
.LVL172:
	.loc 1 2021 3
	.loc 1 2024 3
	.loc 1 2024 20 is_stmt 0
	ldrb	r3, [r0, #76]	@ zero_extendqisi2
	.loc 1 2024 5
	cmp	r3, #3
	it	ne
	cmpne	r3, #1
	beq	.L269
	.loc 1 2032 12
	movs	r0, #1
.LVL173:
.L266:
	.loc 1 2035 3 is_stmt 1
	.loc 1 2036 1 is_stmt 0
	pop	{r3, pc}
.LVL174:
.L269:
	.loc 1 2028 5 is_stmt 1
	bl	DFSDM_RegConvStart
.LVL175:
	.loc 1 2018 21 is_stmt 0
	movs	r0, #0
	b	.L266
	.cfi_endproc
.LFE360:
	.size	HAL_DFSDM_FilterRegularStart, .-HAL_DFSDM_FilterRegularStart
	.section	.text.HAL_DFSDM_FilterRegularStop,"ax",%progbits
	.align	1
	.global	HAL_DFSDM_FilterRegularStop
	.syntax unified
	.thumb
	.thumb_func
	.type	HAL_DFSDM_FilterRegularStop, %function
HAL_DFSDM_FilterRegularStop:
.LFB362:
	.loc 1 2111 1 is_stmt 1
	.cfi_startproc
	@ args = 0, pretend = 0, frame = 0
	@ frame_needed = 0, uses_anonymous_args = 0
.LVL176:
	push	{r3, lr}
	.cfi_def_cfa_offset 8
	.cfi_offset 3, -8
	.cfi_offset 14, -4
	.loc 1 2112 3
.LVL177:
	.loc 1 2115 3
	.loc 1 2118 3
	.loc 1 2118 20 is_stmt 0
	ldrb	r3, [r0, #76]	@ zero_extendqisi2
	.loc 1 2118 5
	cmp	r3, #2
	it	ne
	cmpne	r3, #4
	beq	.L274
	.loc 1 2122 12
	movs	r0, #1
.LVL178:
.L271:
	.loc 1 2130 3 is_stmt 1
	.loc 1 2131 1 is_stmt 0
	pop	{r3, pc}
.LVL179:
.L274:
	.loc 1 2127 5 is_stmt 1
	bl	DFSDM_RegConvStop
.LVL180:
	.loc 1 2112 21 is_stmt 0
	movs	r0, #0
	b	.L271
	.cfi_endproc
.LFE362:
	.size	HAL_DFSDM_FilterRegularStop, .-HAL_DFSDM_FilterRegularStop
	.section	.text.HAL_DFSDM_FilterRegularStart_IT,"ax",%progbits
	.align	1
	.global	HAL_DFSDM_FilterRegularStart_IT
	.syntax unified
	.thumb
	.thumb_func
	.type	HAL_DFSDM_FilterRegularStart_IT, %function
HAL_DFSDM_FilterRegularStart_IT:
.LFB363:
	.loc 1 2141 1 is_stmt 1
	.cfi_startproc
	@ args = 0, pretend = 0, frame = 0
	@ frame_needed = 0, uses_anonymous_args = 0
.LVL181:
	push	{r3, lr}
	.cfi_def_cfa_offset 8
	.cfi_offset 3, -8
	.cfi_offset 14, -4
	.loc 1 2142 3
.LVL182:
	.loc 1 2145 3
	.loc 1 2148 3
	.loc 1 2148 20 is_stmt 0
	ldrb	r3, [r0, #76]	@ zero_extendqisi2
	.loc 1 2148 5
	cmp	r3, #3
	it	ne
	cmpne	r3, #1
	beq	.L279
	.loc 1 2159 12
	movs	r0, #1
.LVL183:
.L276:
	.loc 1 2162 3 is_stmt 1
	.loc 1 2163 1 is_stmt 0
	pop	{r3, pc}
.LVL184:
.L279:
	.loc 1 2152 5 is_stmt 1
	.loc 1 2152 18 is_stmt 0
	ldr	r2, [r0]
	.loc 1 2152 28
	ldr	r3, [r2, #4]
	.loc 1 2152 37
	orr	r3, r3, #10
	str	r3, [r2, #4]
	.loc 1 2155 5 is_stmt 1
	bl	DFSDM_RegConvStart
.LVL185:
	.loc 1 2142 21 is_stmt 0
	movs	r0, #0
	b	.L276
	.cfi_endproc
.LFE363:
	.size	HAL_DFSDM_FilterRegularStart_IT, .-HAL_DFSDM_FilterRegularStart_IT
	.section	.text.HAL_DFSDM_FilterRegularStop_IT,"ax",%progbits
	.align	1
	.global	HAL_DFSDM_FilterRegularStop_IT
	.syntax unified
	.thumb
	.thumb_func
	.type	HAL_DFSDM_FilterRegularStop_IT, %function
HAL_DFSDM_FilterRegularStop_IT:
.LFB364:
	.loc 1 2172 1 is_stmt 1
	.cfi_startproc
	@ args = 0, pretend = 0, frame = 0
	@ frame_needed = 0, uses_anonymous_args = 0
.LVL186:
	push	{r3, lr}
	.cfi_def_cfa_offset 8
	.cfi_offset 3, -8
	.cfi_offset 14, -4
	.loc 1 2173 3
.LVL187:
	.loc 1 2176 3
	.loc 1 2179 3
	.loc 1 2179 20 is_stmt 0
	ldrb	r3, [r0, #76]	@ zero_extendqisi2
	.loc 1 2179 5
	cmp	r3, #2
	it	ne
	cmpne	r3, #4
	beq	.L284
	.loc 1 2183 12
	movs	r0, #1
.LVL188:
.L281:
	.loc 1 2194 3 is_stmt 1
	.loc 1 2195 1 is_stmt 0
	pop	{r3, pc}
.LVL189:
.L284:
	.loc 1 2188 5 is_stmt 1
	.loc 1 2188 18 is_stmt 0
	ldr	r2, [r0]
	.loc 1 2188 28
	ldr	r3, [r2, #4]
	.loc 1 2188 37
	bic	r3, r3, #10
	str	r3, [r2, #4]
	.loc 1 2191 5 is_stmt 1
	bl	DFSDM_RegConvStop
.LVL190:
	.loc 1 2173 21 is_stmt 0
	movs	r0, #0
	b	.L281
	.cfi_endproc
.LFE364:
	.size	HAL_DFSDM_FilterRegularStop_IT, .-HAL_DFSDM_FilterRegularStop_IT
	.section	.text.HAL_DFSDM_FilterRegularStart_DMA,"ax",%progbits
	.align	1
	.global	HAL_DFSDM_FilterRegularStart_DMA
	.syntax unified
	.thumb
	.thumb_func
	.type	HAL_DFSDM_FilterRegularStart_DMA, %function
HAL_DFSDM_FilterRegularStart_DMA:
.LFB365:
	.loc 1 2212 1 is_stmt 1
	.cfi_startproc
	@ args = 0, pretend = 0, frame = 0
	@ frame_needed = 0, uses_anonymous_args = 0
.LVL191:
	push	{r3, r4, r5, lr}
	.cfi_def_cfa_offset 16
	.cfi_offset 3, -16
	.cfi_offset 4, -12
	.cfi_offset 5, -8
	.cfi_offset 14, -4
	.loc 1 2213 3
.LVL192:
	.loc 1 2216 3
	.loc 1 2219 3
	.loc 1 2219 5 is_stmt 0
	cmp	r2, #0
	it	ne
	cmpne	r1, #0
	beq	.L291
	mov	r4, r0
	mov	r0, r1
.LVL193:
	mov	r3, r2
	.loc 1 2224 8 is_stmt 1
	.loc 1 2224 25 is_stmt 0
	ldr	r2, [r4]
.LVL194:
	.loc 1 2224 35
	ldr	r2, [r2]
	.loc 1 2224 10
	tst	r2, #2097152
	beq	.L292
	.loc 1 2229 8 is_stmt 1
	.loc 1 2229 25 is_stmt 0
	ldr	r2, [r4, #52]
	.loc 1 2229 10
	cbnz	r2, .L287
	.loc 1 2230 26 discriminator 1
	ldr	r1, [r4, #48]
.LVL195:
	.loc 1 2229 58 discriminator 1
	cbnz	r1, .L287
	.loc 1 2231 26
	ldr	r1, [r4, #40]
	.loc 1 2231 41
	ldr	r1, [r1, #28]
	.loc 1 2230 60
	cbnz	r1, .L287
	.loc 1 2231 75
	cmp	r3, #1
	beq	.L287
	.loc 1 2234 12
	movs	r5, #1
	b	.L286
.L287:
	.loc 1 2236 8 is_stmt 1
	.loc 1 2236 10 is_stmt 0
	cbnz	r2, .L288
	.loc 1 2237 26 discriminator 1
	ldr	r2, [r4, #48]
	.loc 1 2236 58 discriminator 1
	cbnz	r2, .L288
	.loc 1 2238 26
	ldr	r2, [r4, #40]
	.loc 1 2238 41
	ldr	r2, [r2, #28]
	.loc 1 2237 60
	cmp	r2, #256
	beq	.L294
.L288:
	.loc 1 2243 8 is_stmt 1
	.loc 1 2243 25 is_stmt 0
	ldrb	r2, [r4, #76]	@ zero_extendqisi2
	.loc 1 2243 10
	cmp	r2, #3
	it	ne
	cmpne	r2, #1
	bne	.L295
	.loc 1 2247 5 is_stmt 1
	.loc 1 2247 18 is_stmt 0
	ldr	r2, [r4, #40]
	.loc 1 2247 46
	ldr	r1, .L299
	str	r1, [r2, #60]
	.loc 1 2248 5 is_stmt 1
	.loc 1 2248 18 is_stmt 0
	ldr	r2, [r4, #40]
	.loc 1 2248 47
	ldr	r1, .L299+4
	str	r1, [r2, #76]
	.loc 1 2249 5 is_stmt 1
	.loc 1 2249 66 is_stmt 0
	ldr	r2, [r4, #40]
	.loc 1 2249 81
	ldr	r1, [r2, #28]
	.loc 1 2250 81
	cmp	r1, #256
	beq	.L298
	movs	r1, #0
.L289:
	.loc 1 2249 50
	str	r1, [r2, #64]
	.loc 1 2253 5 is_stmt 1
	.loc 1 2253 73 is_stmt 0
	ldr	r1, [r4]
	.loc 1 2253 8
	mov	r2, r0
	adds	r1, r1, #28
	ldr	r0, [r4, #40]
.LVL196:
	bl	HAL_DMA_Start_IT
.LVL197:
	.loc 1 2253 7
	mov	r5, r0
	cbz	r0, .L290
	.loc 1 2257 7 is_stmt 1
	.loc 1 2257 28 is_stmt 0
	movs	r3, #255
	strb	r3, [r4, #76]
	.loc 1 2258 7 is_stmt 1
.LVL198:
	.loc 1 2258 14 is_stmt 0
	movs	r5, #1
	b	.L286
.LVL199:
.L298:
	.loc 1 2250 81
	ldr	r1, .L299+8
	b	.L289
.LVL200:
.L290:
	.loc 1 2263 7 is_stmt 1
	mov	r0, r4
	bl	DFSDM_RegConvStart
.LVL201:
	b	.L286
.LVL202:
.L291:
	.loc 1 2221 12 is_stmt 0
	movs	r5, #1
.LVL203:
.L286:
	.loc 1 2271 3 is_stmt 1
	.loc 1 2272 1 is_stmt 0
	mov	r0, r5
	pop	{r3, r4, r5, pc}
.LVL204:
.L292:
	.loc 1 2226 12
	movs	r5, #1
	b	.L286
.L294:
	.loc 1 2240 12
	movs	r5, #1
	b	.L286
.L295:
	.loc 1 2268 12
	movs	r5, #1
	b	.L286
.L300:
	.align	2
.L299:
	.word	DFSDM_DMARegularConvCplt
	.word	DFSDM_DMAError
	.word	DFSDM_DMARegularHalfConvCplt
	.cfi_endproc
.LFE365:
	.size	HAL_DFSDM_FilterRegularStart_DMA, .-HAL_DFSDM_FilterRegularStart_DMA
	.section	.text.HAL_DFSDM_FilterRegularMsbStart_DMA,"ax",%progbits
	.align	1
	.global	HAL_DFSDM_FilterRegularMsbStart_DMA
	.syntax unified
	.thumb
	.thumb_func
	.type	HAL_DFSDM_FilterRegularMsbStart_DMA, %function
HAL_DFSDM_FilterRegularMsbStart_DMA:
.LFB366:
	.loc 1 2289 1 is_stmt 1
	.cfi_startproc
	@ args = 0, pretend = 0, frame = 0
	@ frame_needed = 0, uses_anonymous_args = 0
.LVL205:
	push	{r3, r4, r5, lr}
	.cfi_def_cfa_offset 16
	.cfi_offset 3, -16
	.cfi_offset 4, -12
	.cfi_offset 5, -8
	.cfi_offset 14, -4
	.loc 1 2290 3
.LVL206:
	.loc 1 2293 3
	.loc 1 2296 3
	.loc 1 2296 5 is_stmt 0
	cmp	r2, #0
	it	ne
	cmpne	r1, #0
	beq	.L307
	mov	r4, r0
	mov	r0, r1
.LVL207:
	mov	r3, r2
	.loc 1 2301 8 is_stmt 1
	.loc 1 2301 25 is_stmt 0
	ldr	r2, [r4]
.LVL208:
	.loc 1 2301 35
	ldr	r2, [r2]
	.loc 1 2301 10
	tst	r2, #2097152
	beq	.L308
	.loc 1 2306 8 is_stmt 1
	.loc 1 2306 25 is_stmt 0
	ldr	r2, [r4, #52]
	.loc 1 2306 10
	cbnz	r2, .L303
	.loc 1 2307 26 discriminator 1
	ldr	r1, [r4, #48]
.LVL209:
	.loc 1 2306 58 discriminator 1
	cbnz	r1, .L303
	.loc 1 2308 26
	ldr	r1, [r4, #40]
	.loc 1 2308 41
	ldr	r1, [r1, #28]
	.loc 1 2307 60
	cbnz	r1, .L303
	.loc 1 2308 75
	cmp	r3, #1
	beq	.L303
	.loc 1 2311 12
	movs	r5, #1
	b	.L302
.L303:
	.loc 1 2313 8 is_stmt 1
	.loc 1 2313 10 is_stmt 0
	cbnz	r2, .L304
	.loc 1 2314 26 discriminator 1
	ldr	r2, [r4, #48]
	.loc 1 2313 58 discriminator 1
	cbnz	r2, .L304
	.loc 1 2315 26
	ldr	r2, [r4, #40]
	.loc 1 2315 41
	ldr	r2, [r2, #28]
	.loc 1 2314 60
	cmp	r2, #256
	beq	.L310
.L304:
	.loc 1 2320 8 is_stmt 1
	.loc 1 2320 25 is_stmt 0
	ldrb	r2, [r4, #76]	@ zero_extendqisi2
	.loc 1 2320 10
	cmp	r2, #3
	it	ne
	cmpne	r2, #1
	bne	.L311
	.loc 1 2324 5 is_stmt 1
	.loc 1 2324 18 is_stmt 0
	ldr	r2, [r4, #40]
	.loc 1 2324 46
	ldr	r1, .L315
	str	r1, [r2, #60]
	.loc 1 2325 5 is_stmt 1
	.loc 1 2325 18 is_stmt 0
	ldr	r2, [r4, #40]
	.loc 1 2325 47
	ldr	r1, .L315+4
	str	r1, [r2, #76]
	.loc 1 2326 5 is_stmt 1
	.loc 1 2326 66 is_stmt 0
	ldr	r2, [r4, #40]
	.loc 1 2326 81
	ldr	r1, [r2, #28]
	.loc 1 2327 81
	cmp	r1, #256
	beq	.L314
	movs	r1, #0
.L305:
	.loc 1 2326 50
	str	r1, [r2, #64]
	.loc 1 2330 5 is_stmt 1
	.loc 1 2330 74 is_stmt 0
	ldr	r1, [r4]
	.loc 1 2330 8
	mov	r2, r0
	adds	r1, r1, #30
	ldr	r0, [r4, #40]
.LVL210:
	bl	HAL_DMA_Start_IT
.LVL211:
	.loc 1 2330 7
	mov	r5, r0
	cbz	r0, .L306
	.loc 1 2334 7 is_stmt 1
	.loc 1 2334 28 is_stmt 0
	movs	r3, #255
	strb	r3, [r4, #76]
	.loc 1 2335 7 is_stmt 1
.LVL212:
	.loc 1 2335 14 is_stmt 0
	movs	r5, #1
	b	.L302
.LVL213:
.L314:
	.loc 1 2327 81
	ldr	r1, .L315+8
	b	.L305
.LVL214:
.L306:
	.loc 1 2340 7 is_stmt 1
	mov	r0, r4
	bl	DFSDM_RegConvStart
.LVL215:
	b	.L302
.LVL216:
.L307:
	.loc 1 2298 12 is_stmt 0
	movs	r5, #1
.LVL217:
.L302:
	.loc 1 2348 3 is_stmt 1
	.loc 1 2349 1 is_stmt 0
	mov	r0, r5
	pop	{r3, r4, r5, pc}
.LVL218:
.L308:
	.loc 1 2303 12
	movs	r5, #1
	b	.L302
.L310:
	.loc 1 2317 12
	movs	r5, #1
	b	.L302
.L311:
	.loc 1 2345 12
	movs	r5, #1
	b	.L302
.L316:
	.align	2
.L315:
	.word	DFSDM_DMARegularConvCplt
	.word	DFSDM_DMAError
	.word	DFSDM_DMARegularHalfConvCplt
	.cfi_endproc
.LFE366:
	.size	HAL_DFSDM_FilterRegularMsbStart_DMA, .-HAL_DFSDM_FilterRegularMsbStart_DMA
	.section	.text.HAL_DFSDM_FilterRegularStop_DMA,"ax",%progbits
	.align	1
	.global	HAL_DFSDM_FilterRegularStop_DMA
	.syntax unified
	.thumb
	.thumb_func
	.type	HAL_DFSDM_FilterRegularStop_DMA, %function
HAL_DFSDM_FilterRegularStop_DMA:
.LFB367:
	.loc 1 2358 1 is_stmt 1
	.cfi_startproc
	@ args = 0, pretend = 0, frame = 0
	@ frame_needed = 0, uses_anonymous_args = 0
.LVL219:
	push	{r3, r4, r5, lr}
	.cfi_def_cfa_offset 16
	.cfi_offset 3, -16
	.cfi_offset 4, -12
	.cfi_offset 5, -8
	.cfi_offset 14, -4
	.loc 1 2359 3
.LVL220:
	.loc 1 2362 3
	.loc 1 2365 3
	.loc 1 2365 20 is_stmt 0
	ldrb	r3, [r0, #76]	@ zero_extendqisi2
	.loc 1 2365 5
	cmp	r3, #2
	it	ne
	cmpne	r3, #4
	beq	.L322
	.loc 1 2369 12
	movs	r5, #1
.LVL221:
.L318:
	.loc 1 2387 3 is_stmt 1
	.loc 1 2388 1 is_stmt 0
	mov	r0, r5
	pop	{r3, r4, r5, pc}
.LVL222:
.L322:
	mov	r4, r0
	.loc 1 2374 5 is_stmt 1
	.loc 1 2374 8 is_stmt 0
	ldr	r0, [r0, #40]
.LVL223:
	bl	HAL_DMA_Abort
.LVL224:
	.loc 1 2374 7
	mov	r5, r0
	cbz	r0, .L319
	.loc 1 2377 7 is_stmt 1
	.loc 1 2377 28 is_stmt 0
	movs	r3, #255
	strb	r3, [r4, #76]
	.loc 1 2378 7 is_stmt 1
.LVL225:
	.loc 1 2378 14 is_stmt 0
	movs	r5, #1
	b	.L318
.LVL226:
.L319:
	.loc 1 2383 7 is_stmt 1
	mov	r0, r4
	bl	DFSDM_RegConvStop
.LVL227:
	b	.L318
	.cfi_endproc
.LFE367:
	.size	HAL_DFSDM_FilterRegularStop_DMA, .-HAL_DFSDM_FilterRegularStop_DMA
	.section	.text.HAL_DFSDM_FilterGetRegularValue,"ax",%progbits
	.align	1
	.global	HAL_DFSDM_FilterGetRegularValue
	.syntax unified
	.thumb
	.thumb_func
	.type	HAL_DFSDM_FilterGetRegularValue, %function
HAL_DFSDM_FilterGetRegularValue:
.LFB368:
	.loc 1 2398 1
	.cfi_startproc
	@ args = 0, pretend = 0, frame = 0
	@ frame_needed = 0, uses_anonymous_args = 0
	@ link register save eliminated.
.LVL228:
	.loc 1 2399 3
	.loc 1 2400 3
	.loc 1 2403 3
	.loc 1 2404 3
	.loc 1 2407 3
	.loc 1 2407 22 is_stmt 0
	ldr	r3, [r0]
	.loc 1 2407 7
	ldr	r0, [r3, #28]
.LVL229:
	.loc 1 2410 3 is_stmt 1
	.loc 1 2410 19 is_stmt 0
	and	r3, r0, #7
	.loc 1 2410 12
	str	r3, [r1]
	.loc 1 2413 3 is_stmt 1
.LVL230:
	.loc 1 2414 3
	.loc 1 2417 3
	.loc 1 2418 1 is_stmt 0
	asrs	r0, r0, #8
.LVL231:
	bx	lr
	.cfi_endproc
.LFE368:
	.size	HAL_DFSDM_FilterGetRegularValue, .-HAL_DFSDM_FilterGetRegularValue
	.section	.text.HAL_DFSDM_FilterInjectedStart,"ax",%progbits
	.align	1
	.global	HAL_DFSDM_FilterInjectedStart
	.syntax unified
	.thumb
	.thumb_func
	.type	HAL_DFSDM_FilterInjectedStart, %function
HAL_DFSDM_FilterInjectedStart:
.LFB369:
	.loc 1 2428 1 is_stmt 1
	.cfi_startproc
	@ args = 0, pretend = 0, frame = 0
	@ frame_needed = 0, uses_anonymous_args = 0
.LVL232:
	push	{r3, lr}
	.cfi_def_cfa_offset 8
	.cfi_offset 3, -8
	.cfi_offset 14, -4
	.loc 1 2429 3
.LVL233:
	.loc 1 2432 3
	.loc 1 2435 3
	.loc 1 2435 20 is_stmt 0
	ldrb	r3, [r0, #76]	@ zero_extendqisi2
	.loc 1 2435 61
	subs	r3, r3, #1
	uxtb	r3, r3
	.loc 1 2435 5
	cmp	r3, #1
	bls	.L328
	.loc 1 2443 12
	movs	r0, #1
.LVL234:
.L325:
	.loc 1 2446 3 is_stmt 1
	.loc 1 2447 1 is_stmt 0
	pop	{r3, pc}
.LVL235:
.L328:
	.loc 1 2439 5 is_stmt 1
	bl	DFSDM_InjConvStart
.LVL236:
	.loc 1 2429 21 is_stmt 0
	movs	r0, #0
	b	.L325
	.cfi_endproc
.LFE369:
	.size	HAL_DFSDM_FilterInjectedStart, .-HAL_DFSDM_FilterInjectedStart
	.section	.text.HAL_DFSDM_FilterInjectedStop,"ax",%progbits
	.align	1
	.global	HAL_DFSDM_FilterInjectedStop
	.syntax unified
	.thumb
	.thumb_func
	.type	HAL_DFSDM_FilterInjectedStop, %function
HAL_DFSDM_FilterInjectedStop:
.LFB371:
	.loc 1 2532 1 is_stmt 1
	.cfi_startproc
	@ args = 0, pretend = 0, frame = 0
	@ frame_needed = 0, uses_anonymous_args = 0
.LVL237:
	push	{r3, lr}
	.cfi_def_cfa_offset 8
	.cfi_offset 3, -8
	.cfi_offset 14, -4
	.loc 1 2533 3
.LVL238:
	.loc 1 2536 3
	.loc 1 2539 3
	.loc 1 2539 20 is_stmt 0
	ldrb	r3, [r0, #76]	@ zero_extendqisi2
	.loc 1 2539 59
	subs	r3, r3, #3
	uxtb	r3, r3
	.loc 1 2539 5
	cmp	r3, #1
	bls	.L333
	.loc 1 2543 12
	movs	r0, #1
.LVL239:
.L330:
	.loc 1 2551 3 is_stmt 1
	.loc 1 2552 1 is_stmt 0
	pop	{r3, pc}
.LVL240:
.L333:
	.loc 1 2548 5 is_stmt 1
	bl	DFSDM_InjConvStop
.LVL241:
	.loc 1 2533 21 is_stmt 0
	movs	r0, #0
	b	.L330
	.cfi_endproc
.LFE371:
	.size	HAL_DFSDM_FilterInjectedStop, .-HAL_DFSDM_FilterInjectedStop
	.section	.text.HAL_DFSDM_FilterInjectedStart_IT,"ax",%progbits
	.align	1
	.global	HAL_DFSDM_FilterInjectedStart_IT
	.syntax unified
	.thumb
	.thumb_func
	.type	HAL_DFSDM_FilterInjectedStart_IT, %function
HAL_DFSDM_FilterInjectedStart_IT:
.LFB372:
	.loc 1 2562 1 is_stmt 1
	.cfi_startproc
	@ args = 0, pretend = 0, frame = 0
	@ frame_needed = 0, uses_anonymous_args = 0
.LVL242:
	push	{r3, lr}
	.cfi_def_cfa_offset 8
	.cfi_offset 3, -8
	.cfi_offset 14, -4
	.loc 1 2563 3
.LVL243:
	.loc 1 2566 3
	.loc 1 2569 3
	.loc 1 2569 20 is_stmt 0
	ldrb	r3, [r0, #76]	@ zero_extendqisi2
	.loc 1 2569 61
	subs	r3, r3, #1
	uxtb	r3, r3
	.loc 1 2569 5
	cmp	r3, #1
	bls	.L338
	.loc 1 2580 12
	movs	r0, #1
.LVL244:
.L335:
	.loc 1 2583 3 is_stmt 1
	.loc 1 2584 1 is_stmt 0
	pop	{r3, pc}
.LVL245:
.L338:
	.loc 1 2573 5 is_stmt 1
	.loc 1 2573 18 is_stmt 0
	ldr	r2, [r0]
	.loc 1 2573 28
	ldr	r3, [r2, #4]
	.loc 1 2573 37
	orr	r3, r3, #5
	str	r3, [r2, #4]
	.loc 1 2576 5 is_stmt 1
	bl	DFSDM_InjConvStart
.LVL246:
	.loc 1 2563 21 is_stmt 0
	movs	r0, #0
	b	.L335
	.cfi_endproc
.LFE372:
	.size	HAL_DFSDM_FilterInjectedStart_IT, .-HAL_DFSDM_FilterInjectedStart_IT
	.section	.text.HAL_DFSDM_FilterInjectedStop_IT,"ax",%progbits
	.align	1
	.global	HAL_DFSDM_FilterInjectedStop_IT
	.syntax unified
	.thumb
	.thumb_func
	.type	HAL_DFSDM_FilterInjectedStop_IT, %function
HAL_DFSDM_FilterInjectedStop_IT:
.LFB373:
	.loc 1 2593 1 is_stmt 1
	.cfi_startproc
	@ args = 0, pretend = 0, frame = 0
	@ frame_needed = 0, uses_anonymous_args = 0
.LVL247:
	push	{r3, lr}
	.cfi_def_cfa_offset 8
	.cfi_offset 3, -8
	.cfi_offset 14, -4
	.loc 1 2594 3
.LVL248:
	.loc 1 2597 3
	.loc 1 2600 3
	.loc 1 2600 20 is_stmt 0
	ldrb	r3, [r0, #76]	@ zero_extendqisi2
	.loc 1 2600 59
	subs	r3, r3, #3
	uxtb	r3, r3
	.loc 1 2600 5
	cmp	r3, #1
	bls	.L343
	.loc 1 2604 12
	movs	r0, #1
.LVL249:
.L340:
	.loc 1 2615 3 is_stmt 1
	.loc 1 2616 1 is_stmt 0
	pop	{r3, pc}
.LVL250:
.L343:
	.loc 1 2609 5 is_stmt 1
	.loc 1 2609 18 is_stmt 0
	ldr	r2, [r0]
	.loc 1 2609 28
	ldr	r3, [r2, #4]
	.loc 1 2609 37
	bic	r3, r3, #5
	str	r3, [r2, #4]
	.loc 1 2612 5 is_stmt 1
	bl	DFSDM_InjConvStop
.LVL251:
	.loc 1 2594 21 is_stmt 0
	movs	r0, #0
	b	.L340
	.cfi_endproc
.LFE373:
	.size	HAL_DFSDM_FilterInjectedStop_IT, .-HAL_DFSDM_FilterInjectedStop_IT
	.section	.text.HAL_DFSDM_FilterInjectedStart_DMA,"ax",%progbits
	.align	1
	.global	HAL_DFSDM_FilterInjectedStart_DMA
	.syntax unified
	.thumb
	.thumb_func
	.type	HAL_DFSDM_FilterInjectedStart_DMA, %function
HAL_DFSDM_FilterInjectedStart_DMA:
.LFB374:
	.loc 1 2633 1 is_stmt 1
	.cfi_startproc
	@ args = 0, pretend = 0, frame = 0
	@ frame_needed = 0, uses_anonymous_args = 0
.LVL252:
	push	{r3, r4, r5, lr}
	.cfi_def_cfa_offset 16
	.cfi_offset 3, -16
	.cfi_offset 4, -12
	.cfi_offset 5, -8
	.cfi_offset 14, -4
	.loc 1 2634 3
.LVL253:
	.loc 1 2637 3
	.loc 1 2640 3
	.loc 1 2640 5 is_stmt 0
	cmp	r2, #0
	it	ne
	cmpne	r1, #0
	beq	.L350
	mov	r4, r0
	mov	r0, r1
.LVL254:
	mov	r3, r2
	.loc 1 2645 8 is_stmt 1
	.loc 1 2645 25 is_stmt 0
	ldr	r2, [r4]
.LVL255:
	.loc 1 2645 35
	ldr	r2, [r2]
	.loc 1 2645 10
	tst	r2, #32
	beq	.L351
	.loc 1 2650 8 is_stmt 1
	.loc 1 2650 25 is_stmt 0
	ldr	r2, [r4, #56]
	.loc 1 2650 10
	cbnz	r2, .L346
	.loc 1 2651 26 discriminator 1
	ldr	r1, [r4, #44]
.LVL256:
	.loc 1 2651 41 discriminator 1
	ldr	r1, [r1, #28]
	.loc 1 2650 59 discriminator 1
	cbnz	r1, .L346
	.loc 1 2652 35
	ldr	r1, [r4, #72]
	.loc 1 2651 75
	cmp	r1, r3
	bcc	.L352
.L346:
	.loc 1 2656 8 is_stmt 1
	.loc 1 2656 10 is_stmt 0
	cbnz	r2, .L347
	.loc 1 2657 26 discriminator 1
	ldr	r2, [r4, #44]
	.loc 1 2657 41 discriminator 1
	ldr	r2, [r2, #28]
	.loc 1 2656 59 discriminator 1
	cmp	r2, #256
	beq	.L353
.L347:
	.loc 1 2662 8 is_stmt 1
	.loc 1 2662 25 is_stmt 0
	ldrb	r1, [r4, #76]	@ zero_extendqisi2
	.loc 1 2662 66
	subs	r1, r1, #1
	uxtb	r1, r1
	.loc 1 2662 10
	cmp	r1, #1
	bls	.L357
	.loc 1 2687 12
	movs	r5, #1
	b	.L345
.L357:
	.loc 1 2666 5 is_stmt 1
	.loc 1 2666 18 is_stmt 0
	ldr	r2, [r4, #44]
	.loc 1 2666 46
	ldr	r1, .L359
	str	r1, [r2, #60]
	.loc 1 2667 5 is_stmt 1
	.loc 1 2667 18 is_stmt 0
	ldr	r2, [r4, #44]
	.loc 1 2667 47
	ldr	r1, .L359+4
	str	r1, [r2, #76]
	.loc 1 2668 5 is_stmt 1
	.loc 1 2668 66 is_stmt 0
	ldr	r2, [r4, #44]
	.loc 1 2668 81
	ldr	r1, [r2, #28]
	.loc 1 2669 82
	cmp	r1, #256
	beq	.L358
	movs	r1, #0
.L348:
	.loc 1 2668 50
	str	r1, [r2, #64]
	.loc 1 2672 5 is_stmt 1
	.loc 1 2672 73 is_stmt 0
	ldr	r1, [r4]
	.loc 1 2672 8
	mov	r2, r0
	adds	r1, r1, #24
	ldr	r0, [r4, #44]
.LVL257:
	bl	HAL_DMA_Start_IT
.LVL258:
	.loc 1 2672 7
	mov	r5, r0
	cbz	r0, .L349
	.loc 1 2676 7 is_stmt 1
	.loc 1 2676 28 is_stmt 0
	movs	r3, #255
	strb	r3, [r4, #76]
	.loc 1 2677 7 is_stmt 1
.LVL259:
	.loc 1 2677 14 is_stmt 0
	movs	r5, #1
	b	.L345
.LVL260:
.L358:
	.loc 1 2669 82
	ldr	r1, .L359+8
	b	.L348
.LVL261:
.L349:
	.loc 1 2682 7 is_stmt 1
	mov	r0, r4
	bl	DFSDM_InjConvStart
.LVL262:
	b	.L345
.LVL263:
.L350:
	.loc 1 2642 12 is_stmt 0
	movs	r5, #1
.LVL264:
.L345:
	.loc 1 2690 3 is_stmt 1
	.loc 1 2691 1 is_stmt 0
	mov	r0, r5
	pop	{r3, r4, r5, pc}
.LVL265:
.L351:
	.loc 1 2647 12
	movs	r5, #1
	b	.L345
.L352:
	.loc 1 2654 12
	movs	r5, #1
	b	.L345
.L353:
	.loc 1 2659 12
	movs	r5, #1
	b	.L345
.L360:
	.align	2
.L359:
	.word	DFSDM_DMAInjectedConvCplt
	.word	DFSDM_DMAError
	.word	DFSDM_DMAInjectedHalfConvCplt
	.cfi_endproc
.LFE374:
	.size	HAL_DFSDM_FilterInjectedStart_DMA, .-HAL_DFSDM_FilterInjectedStart_DMA
	.section	.text.HAL_DFSDM_FilterInjectedMsbStart_DMA,"ax",%progbits
	.align	1
	.global	HAL_DFSDM_FilterInjectedMsbStart_DMA
	.syntax unified
	.thumb
	.thumb_func
	.type	HAL_DFSDM_FilterInjectedMsbStart_DMA, %function
HAL_DFSDM_FilterInjectedMsbStart_DMA:
.LFB375:
	.loc 1 2708 1 is_stmt 1
	.cfi_startproc
	@ args = 0, pretend = 0, frame = 0
	@ frame_needed = 0, uses_anonymous_args = 0
.LVL266:
	push	{r3, r4, r5, lr}
	.cfi_def_cfa_offset 16
	.cfi_offset 3, -16
	.cfi_offset 4, -12
	.cfi_offset 5, -8
	.cfi_offset 14, -4
	.loc 1 2709 3
.LVL267:
	.loc 1 2712 3
	.loc 1 2715 3
	.loc 1 2715 5 is_stmt 0
	cmp	r2, #0
	it	ne
	cmpne	r1, #0
	beq	.L367
	mov	r4, r0
	mov	r0, r1
.LVL268:
	mov	r3, r2
	.loc 1 2720 8 is_stmt 1
	.loc 1 2720 25 is_stmt 0
	ldr	r2, [r4]
.LVL269:
	.loc 1 2720 35
	ldr	r2, [r2]
	.loc 1 2720 10
	tst	r2, #32
	beq	.L368
	.loc 1 2725 8 is_stmt 1
	.loc 1 2725 25 is_stmt 0
	ldr	r2, [r4, #56]
	.loc 1 2725 10
	cbnz	r2, .L363
	.loc 1 2726 26 discriminator 1
	ldr	r1, [r4, #44]
.LVL270:
	.loc 1 2726 41 discriminator 1
	ldr	r1, [r1, #28]
	.loc 1 2725 59 discriminator 1
	cbnz	r1, .L363
	.loc 1 2727 35
	ldr	r1, [r4, #72]
	.loc 1 2726 75
	cmp	r1, r3
	bcc	.L369
.L363:
	.loc 1 2731 8 is_stmt 1
	.loc 1 2731 10 is_stmt 0
	cbnz	r2, .L364
	.loc 1 2732 26 discriminator 1
	ldr	r2, [r4, #44]
	.loc 1 2732 41 discriminator 1
	ldr	r2, [r2, #28]
	.loc 1 2731 59 discriminator 1
	cmp	r2, #256
	beq	.L370
.L364:
	.loc 1 2737 8 is_stmt 1
	.loc 1 2737 25 is_stmt 0
	ldrb	r1, [r4, #76]	@ zero_extendqisi2
	.loc 1 2737 66
	subs	r1, r1, #1
	uxtb	r1, r1
	.loc 1 2737 10
	cmp	r1, #1
	bls	.L374
	.loc 1 2762 12
	movs	r5, #1
	b	.L362
.L374:
	.loc 1 2741 5 is_stmt 1
	.loc 1 2741 18 is_stmt 0
	ldr	r2, [r4, #44]
	.loc 1 2741 46
	ldr	r1, .L376
	str	r1, [r2, #60]
	.loc 1 2742 5 is_stmt 1
	.loc 1 2742 18 is_stmt 0
	ldr	r2, [r4, #44]
	.loc 1 2742 47
	ldr	r1, .L376+4
	str	r1, [r2, #76]
	.loc 1 2743 5 is_stmt 1
	.loc 1 2743 66 is_stmt 0
	ldr	r2, [r4, #44]
	.loc 1 2743 81
	ldr	r1, [r2, #28]
	.loc 1 2744 82
	cmp	r1, #256
	beq	.L375
	movs	r1, #0
.L365:
	.loc 1 2743 50
	str	r1, [r2, #64]
	.loc 1 2747 5 is_stmt 1
	.loc 1 2747 74 is_stmt 0
	ldr	r1, [r4]
	.loc 1 2747 8
	mov	r2, r0
	adds	r1, r1, #26
	ldr	r0, [r4, #44]
.LVL271:
	bl	HAL_DMA_Start_IT
.LVL272:
	.loc 1 2747 7
	mov	r5, r0
	cbz	r0, .L366
	.loc 1 2751 7 is_stmt 1
	.loc 1 2751 28 is_stmt 0
	movs	r3, #255
	strb	r3, [r4, #76]
	.loc 1 2752 7 is_stmt 1
.LVL273:
	.loc 1 2752 14 is_stmt 0
	movs	r5, #1
	b	.L362
.LVL274:
.L375:
	.loc 1 2744 82
	ldr	r1, .L376+8
	b	.L365
.LVL275:
.L366:
	.loc 1 2757 7 is_stmt 1
	mov	r0, r4
	bl	DFSDM_InjConvStart
.LVL276:
	b	.L362
.LVL277:
.L367:
	.loc 1 2717 12 is_stmt 0
	movs	r5, #1
.LVL278:
.L362:
	.loc 1 2765 3 is_stmt 1
	.loc 1 2766 1 is_stmt 0
	mov	r0, r5
	pop	{r3, r4, r5, pc}
.LVL279:
.L368:
	.loc 1 2722 12
	movs	r5, #1
	b	.L362
.L369:
	.loc 1 2729 12
	movs	r5, #1
	b	.L362
.L370:
	.loc 1 2734 12
	movs	r5, #1
	b	.L362
.L377:
	.align	2
.L376:
	.word	DFSDM_DMAInjectedConvCplt
	.word	DFSDM_DMAError
	.word	DFSDM_DMAInjectedHalfConvCplt
	.cfi_endproc
.LFE375:
	.size	HAL_DFSDM_FilterInjectedMsbStart_DMA, .-HAL_DFSDM_FilterInjectedMsbStart_DMA
	.section	.text.HAL_DFSDM_FilterInjectedStop_DMA,"ax",%progbits
	.align	1
	.global	HAL_DFSDM_FilterInjectedStop_DMA
	.syntax unified
	.thumb
	.thumb_func
	.type	HAL_DFSDM_FilterInjectedStop_DMA, %function
HAL_DFSDM_FilterInjectedStop_DMA:
.LFB376:
	.loc 1 2775 1 is_stmt 1
	.cfi_startproc
	@ args = 0, pretend = 0, frame = 0
	@ frame_needed = 0, uses_anonymous_args = 0
.LVL280:
	push	{r3, r4, r5, lr}
	.cfi_def_cfa_offset 16
	.cfi_offset 3, -16
	.cfi_offset 4, -12
	.cfi_offset 5, -8
	.cfi_offset 14, -4
	.loc 1 2776 3
.LVL281:
	.loc 1 2779 3
	.loc 1 2782 3
	.loc 1 2782 20 is_stmt 0
	ldrb	r3, [r0, #76]	@ zero_extendqisi2
	.loc 1 2782 59
	subs	r3, r3, #3
	uxtb	r3, r3
	.loc 1 2782 5
	cmp	r3, #1
	bls	.L383
	.loc 1 2786 12
	movs	r5, #1
.LVL282:
.L379:
	.loc 1 2804 3 is_stmt 1
	.loc 1 2805 1 is_stmt 0
	mov	r0, r5
	pop	{r3, r4, r5, pc}
.LVL283:
.L383:
	mov	r4, r0
	.loc 1 2791 5 is_stmt 1
	.loc 1 2791 8 is_stmt 0
	ldr	r0, [r0, #44]
.LVL284:
	bl	HAL_DMA_Abort
.LVL285:
	.loc 1 2791 7
	mov	r5, r0
	cbz	r0, .L380
	.loc 1 2794 7 is_stmt 1
	.loc 1 2794 28 is_stmt 0
	movs	r3, #255
	strb	r3, [r4, #76]
	.loc 1 2795 7 is_stmt 1
.LVL286:
	.loc 1 2795 14 is_stmt 0
	movs	r5, #1
	b	.L379
.LVL287:
.L380:
	.loc 1 2800 7 is_stmt 1
	mov	r0, r4
	bl	DFSDM_InjConvStop
.LVL288:
	b	.L379
	.cfi_endproc
.LFE376:
	.size	HAL_DFSDM_FilterInjectedStop_DMA, .-HAL_DFSDM_FilterInjectedStop_DMA
	.section	.text.HAL_DFSDM_FilterGetInjectedValue,"ax",%progbits
	.align	1
	.global	HAL_DFSDM_FilterGetInjectedValue
	.syntax unified
	.thumb
	.thumb_func
	.type	HAL_DFSDM_FilterGetInjectedValue, %function
HAL_DFSDM_FilterGetInjectedValue:
.LFB377:
	.loc 1 2815 1
	.cfi_startproc
	@ args = 0, pretend = 0, frame = 0
	@ frame_needed = 0, uses_anonymous_args = 0
	@ link register save eliminated.
.LVL289:
	.loc 1 2816 3
	.loc 1 2817 3
	.loc 1 2820 3
	.loc 1 2821 3
	.loc 1 2824 3
	.loc 1 2824 22 is_stmt 0
	ldr	r3, [r0]
	.loc 1 2824 7
	ldr	r0, [r3, #24]
.LVL290:
	.loc 1 2827 3 is_stmt 1
	.loc 1 2827 19 is_stmt 0
	and	r3, r0, #7
	.loc 1 2827 12
	str	r3, [r1]
	.loc 1 2830 3 is_stmt 1
.LVL291:
	.loc 1 2831 3
	.loc 1 2834 3
	.loc 1 2835 1 is_stmt 0
	asrs	r0, r0, #8
.LVL292:
	bx	lr
	.cfi_endproc
.LFE377:
	.size	HAL_DFSDM_FilterGetInjectedValue, .-HAL_DFSDM_FilterGetInjectedValue
	.section	.text.HAL_DFSDM_FilterAwdStart_IT,"ax",%progbits
	.align	1
	.global	HAL_DFSDM_FilterAwdStart_IT
	.syntax unified
	.thumb
	.thumb_func
	.type	HAL_DFSDM_FilterAwdStart_IT, %function
HAL_DFSDM_FilterAwdStart_IT:
.LFB378:
	.loc 1 2845 1 is_stmt 1
	.cfi_startproc
	@ args = 0, pretend = 0, frame = 0
	@ frame_needed = 0, uses_anonymous_args = 0
	@ link register save eliminated.
.LVL293:
	.loc 1 2846 3
	.loc 1 2849 3
	.loc 1 2850 3
	.loc 1 2851 3
	.loc 1 2852 3
	.loc 1 2853 3
	.loc 1 2854 3
	.loc 1 2855 3
	.loc 1 2858 3
	.loc 1 2858 20 is_stmt 0
	ldrb	r3, [r0, #76]	@ zero_extendqisi2
	.loc 1 2858 61
	subs	r3, r3, #1
	uxtb	r3, r3
	.loc 1 2858 5
	cmp	r3, #253
	bhi	.L387
	.loc 1 2845 1
	push	{r4, r5}
	.cfi_def_cfa_offset 8
	.cfi_offset 4, -8
	.cfi_offset 5, -4
	.loc 1 2867 5 is_stmt 1
	.loc 1 2867 18 is_stmt 0
	ldr	r2, [r0]
	.loc 1 2867 28
	ldr	r3, [r2]
	.loc 1 2867 37
	bic	r3, r3, #1073741824
	str	r3, [r2]
	.loc 1 2868 5 is_stmt 1
	.loc 1 2868 18 is_stmt 0
	ldr	r2, [r0]
	.loc 1 2868 28
	ldr	r3, [r2]
	.loc 1 2868 48
	ldr	r4, [r1]
	.loc 1 2868 37
	orrs	r3, r3, r4
	str	r3, [r2]
	.loc 1 2871 5 is_stmt 1
	.loc 1 2871 18 is_stmt 0
	ldr	r2, [r0]
	.loc 1 2871 28
	ldr	r3, [r2, #32]
	.loc 1 2871 39
	and	r3, r3, #240
	str	r3, [r2, #32]
	.loc 1 2872 5 is_stmt 1
	.loc 1 2872 18 is_stmt 0
	ldr	r4, [r0]
	.loc 1 2872 28
	ldr	r3, [r4, #32]
	.loc 1 2873 51
	ldr	r2, [r1, #16]
	.loc 1 2872 88
	ldr	r5, [r1, #8]
	orr	r2, r2, r5, lsl #8
	.loc 1 2872 39
	orrs	r3, r3, r2
	str	r3, [r4, #32]
	.loc 1 2874 5 is_stmt 1
	.loc 1 2874 18 is_stmt 0
	ldr	r2, [r0]
	.loc 1 2874 28
	ldr	r3, [r2, #36]
	.loc 1 2874 39
	and	r3, r3, #240
	str	r3, [r2, #36]
	.loc 1 2875 5 is_stmt 1
	.loc 1 2875 18 is_stmt 0
	ldr	r4, [r0]
	.loc 1 2875 28
	ldr	r3, [r4, #36]
	.loc 1 2876 51
	ldr	r2, [r1, #20]
	.loc 1 2875 87
	ldr	r5, [r1, #12]
	orr	r2, r2, r5, lsl #8
	.loc 1 2875 39
	orrs	r3, r3, r2
	str	r3, [r4, #36]
	.loc 1 2879 5 is_stmt 1
	.loc 1 2879 18 is_stmt 0
	ldr	r2, [r0]
	.loc 1 2879 28
	ldr	r3, [r2, #4]
	.loc 1 2879 37
	bic	r3, r3, #16711680
	str	r3, [r2, #4]
	.loc 1 2880 5 is_stmt 1
	.loc 1 2880 18 is_stmt 0
	ldr	r2, [r0]
	.loc 1 2880 28
	ldr	r3, [r2, #4]
	.loc 1 2880 51
	ldr	r1, [r1, #4]
.LVL294:
	.loc 1 2880 37
	orr	r3, r3, r1, lsl #16
	orr	r3, r3, #16
	str	r3, [r2, #4]
	.loc 1 2846 21
	movs	r0, #0
.LVL295:
	.loc 1 2884 3 is_stmt 1
	.loc 1 2885 1 is_stmt 0
	pop	{r4, r5}
	.cfi_restore 5
	.cfi_restore 4
	.cfi_def_cfa_offset 0
	bx	lr
.LVL296:
.L387:
	.loc 1 2862 12
	movs	r0, #1
.LVL297:
	.loc 1 2884 3 is_stmt 1
	.loc 1 2885 1 is_stmt 0
	bx	lr
	.cfi_endproc
.LFE378:
	.size	HAL_DFSDM_FilterAwdStart_IT, .-HAL_DFSDM_FilterAwdStart_IT
	.section	.text.HAL_DFSDM_FilterAwdStop_IT,"ax",%progbits
	.align	1
	.global	HAL_DFSDM_FilterAwdStop_IT
	.syntax unified
	.thumb
	.thumb_func
	.type	HAL_DFSDM_FilterAwdStop_IT, %function
HAL_DFSDM_FilterAwdStop_IT:
.LFB379:
	.loc 1 2893 1 is_stmt 1
	.cfi_startproc
	@ args = 0, pretend = 0, frame = 0
	@ frame_needed = 0, uses_anonymous_args = 0
	@ link register save eliminated.
.LVL298:
	.loc 1 2894 3
	.loc 1 2897 3
	.loc 1 2900 3
	.loc 1 2900 20 is_stmt 0
	ldrb	r3, [r0, #76]	@ zero_extendqisi2
	.loc 1 2900 61
	subs	r3, r3, #1
	uxtb	r3, r3
	.loc 1 2900 5
	cmp	r3, #253
	bhi	.L394
	.loc 1 2909 5 is_stmt 1
	.loc 1 2909 18 is_stmt 0
	ldr	r2, [r0]
	.loc 1 2909 28
	ldr	r1, [r2, #4]
	.loc 1 2909 37
	ldr	r3, .L395
	ands	r3, r3, r1
	str	r3, [r2, #4]
	.loc 1 2912 5 is_stmt 1
	.loc 1 2912 18 is_stmt 0
	ldr	r3, [r0]
	.loc 1 2912 39
	movw	r2, #65535
	str	r2, [r3, #44]
	.loc 1 2915 5 is_stmt 1
	.loc 1 2915 18 is_stmt 0
	ldr	r2, [r0]
	.loc 1 2915 28
	ldr	r3, [r2, #32]
	.loc 1 2915 39
	and	r3, r3, #240
	str	r3, [r2, #32]
	.loc 1 2916 5 is_stmt 1
	.loc 1 2916 18 is_stmt 0
	ldr	r2, [r0]
	.loc 1 2916 28
	ldr	r3, [r2, #36]
	.loc 1 2916 39
	and	r3, r3, #240
	str	r3, [r2, #36]
	.loc 1 2919 5 is_stmt 1
	.loc 1 2919 18 is_stmt 0
	ldr	r2, [r0]
	.loc 1 2919 28
	ldr	r3, [r2]
	.loc 1 2919 37
	bic	r3, r3, #1073741824
	str	r3, [r2]
	.loc 1 2894 21
	movs	r0, #0
.LVL299:
	bx	lr
.LVL300:
.L394:
	.loc 1 2904 12
	movs	r0, #1
.LVL301:
	.loc 1 2922 3 is_stmt 1
	.loc 1 2923 1 is_stmt 0
	bx	lr
.L396:
	.align	2
.L395:
	.word	-16711697
	.cfi_endproc
.LFE379:
	.size	HAL_DFSDM_FilterAwdStop_IT, .-HAL_DFSDM_FilterAwdStop_IT
	.section	.text.HAL_DFSDM_FilterExdStart,"ax",%progbits
	.align	1
	.global	HAL_DFSDM_FilterExdStart
	.syntax unified
	.thumb
	.thumb_func
	.type	HAL_DFSDM_FilterExdStart, %function
HAL_DFSDM_FilterExdStart:
.LFB380:
	.loc 1 2934 1 is_stmt 1
	.cfi_startproc
	@ args = 0, pretend = 0, frame = 0
	@ frame_needed = 0, uses_anonymous_args = 0
	@ link register save eliminated.
.LVL302:
	.loc 1 2935 3
	.loc 1 2938 3
	.loc 1 2939 3
	.loc 1 2942 3
	.loc 1 2942 20 is_stmt 0
	ldrb	r3, [r0, #76]	@ zero_extendqisi2
	.loc 1 2942 61
	subs	r3, r3, #1
	uxtb	r3, r3
	.loc 1 2942 5
	cmp	r3, #253
	bhi	.L399
	.loc 1 2951 5 is_stmt 1
	.loc 1 2951 18 is_stmt 0
	ldr	r2, [r0]
	.loc 1 2951 28
	ldr	r3, [r2, #4]
	.loc 1 2951 37
	bic	r3, r3, #65280
	str	r3, [r2, #4]
	.loc 1 2952 5 is_stmt 1
	.loc 1 2952 18 is_stmt 0
	ldr	r0, [r0]
.LVL303:
	.loc 1 2952 28
	ldr	r3, [r0, #4]
	.loc 1 2952 65
	ldr	r2, .L400
	and	r2, r2, r1, lsl #8
	.loc 1 2952 37
	orrs	r3, r3, r2
	str	r3, [r0, #4]
	.loc 1 2935 21
	movs	r0, #0
	bx	lr
.LVL304:
.L399:
	.loc 1 2946 12
	movs	r0, #1
.LVL305:
	.loc 1 2955 3 is_stmt 1
	.loc 1 2956 1 is_stmt 0
	bx	lr
.L401:
	.align	2
.L400:
	.word	16776960
	.cfi_endproc
.LFE380:
	.size	HAL_DFSDM_FilterExdStart, .-HAL_DFSDM_FilterExdStart
	.section	.text.HAL_DFSDM_FilterExdStop,"ax",%progbits
	.align	1
	.global	HAL_DFSDM_FilterExdStop
	.syntax unified
	.thumb
	.thumb_func
	.type	HAL_DFSDM_FilterExdStop, %function
HAL_DFSDM_FilterExdStop:
.LFB381:
	.loc 1 2964 1 is_stmt 1
	.cfi_startproc
	@ args = 0, pretend = 0, frame = 8
	@ frame_needed = 0, uses_anonymous_args = 0
	@ link register save eliminated.
.LVL306:
	.loc 1 2965 3
	.loc 1 2966 3
	.loc 1 2967 3
	.loc 1 2970 3
	.loc 1 2973 3
	.loc 1 2973 20 is_stmt 0
	ldrb	r3, [r0, #76]	@ zero_extendqisi2
	.loc 1 2973 61
	subs	r3, r3, #1
	uxtb	r3, r3
	.loc 1 2973 5
	cmp	r3, #253
	bhi	.L404
	.loc 1 2964 1
	sub	sp, sp, #8
	.cfi_def_cfa_offset 8
	.loc 1 2982 5 is_stmt 1
	.loc 1 2982 18 is_stmt 0
	ldr	r2, [r0]
	.loc 1 2982 28
	ldr	r3, [r2, #4]
	.loc 1 2982 37
	bic	r3, r3, #65280
	str	r3, [r2, #4]
	.loc 1 2985 5 is_stmt 1
	.loc 1 2985 25 is_stmt 0
	ldr	r3, [r0]
	.loc 1 2985 35
	ldr	r2, [r3, #48]
	.loc 1 2985 10
	str	r2, [sp]
	.loc 1 2986 5 is_stmt 1
	.loc 1 2986 35 is_stmt 0
	ldr	r3, [r3, #52]
	.loc 1 2986 10
	str	r3, [sp, #4]
	.loc 1 2987 5 is_stmt 1
	.loc 1 2987 6 is_stmt 0
	ldr	r3, [sp]
	.loc 1 2988 5 is_stmt 1
	.loc 1 2988 6 is_stmt 0
	ldr	r3, [sp, #4]
	.loc 1 2965 21
	movs	r0, #0
.LVL307:
	.loc 1 2991 3 is_stmt 1
	.loc 1 2992 1 is_stmt 0
	add	sp, sp, #8
	.cfi_def_cfa_offset 0
	@ sp needed
	bx	lr
.LVL308:
.L404:
	.loc 1 2977 12
	movs	r0, #1
.LVL309:
	.loc 1 2991 3 is_stmt 1
	.loc 1 2992 1 is_stmt 0
	bx	lr
	.cfi_endproc
.LFE381:
	.size	HAL_DFSDM_FilterExdStop, .-HAL_DFSDM_FilterExdStop
	.section	.text.HAL_DFSDM_FilterGetExdMaxValue,"ax",%progbits
	.align	1
	.global	HAL_DFSDM_FilterGetExdMaxValue
	.syntax unified
	.thumb
	.thumb_func
	.type	HAL_DFSDM_FilterGetExdMaxValue, %function
HAL_DFSDM_FilterGetExdMaxValue:
.LFB382:
	.loc 1 3003 1 is_stmt 1
	.cfi_startproc
	@ args = 0, pretend = 0, frame = 0
	@ frame_needed = 0, uses_anonymous_args = 0
	@ link register save eliminated.
.LVL310:
	.loc 1 3004 3
	.loc 1 3005 3
	.loc 1 3008 3
	.loc 1 3009 3
	.loc 1 3012 3
	.loc 1 3012 22 is_stmt 0
	ldr	r3, [r0]
	.loc 1 3012 7
	ldr	r0, [r3, #48]
.LVL311:
	.loc 1 3015 3 is_stmt 1
	.loc 1 3015 19 is_stmt 0
	and	r3, r0, #7
	.loc 1 3015 12
	str	r3, [r1]
	.loc 1 3018 3 is_stmt 1
.LVL312:
	.loc 1 3019 3
	.loc 1 3022 3
	.loc 1 3023 1 is_stmt 0
	asrs	r0, r0, #8
.LVL313:
	bx	lr
	.cfi_endproc
.LFE382:
	.size	HAL_DFSDM_FilterGetExdMaxValue, .-HAL_DFSDM_FilterGetExdMaxValue
	.section	.text.HAL_DFSDM_FilterGetExdMinValue,"ax",%progbits
	.align	1
	.global	HAL_DFSDM_FilterGetExdMinValue
	.syntax unified
	.thumb
	.thumb_func
	.type	HAL_DFSDM_FilterGetExdMinValue, %function
HAL_DFSDM_FilterGetExdMinValue:
.LFB383:
	.loc 1 3034 1 is_stmt 1
	.cfi_startproc
	@ args = 0, pretend = 0, frame = 0
	@ frame_needed = 0, uses_anonymous_args = 0
	@ link register save eliminated.
.LVL314:
	.loc 1 3035 3
	.loc 1 3036 3
	.loc 1 3039 3
	.loc 1 3040 3
	.loc 1 3043 3
	.loc 1 3043 22 is_stmt 0
	ldr	r3, [r0]
	.loc 1 3043 7
	ldr	r0, [r3, #52]
.LVL315:
	.loc 1 3046 3 is_stmt 1
	.loc 1 3046 19 is_stmt 0
	and	r3, r0, #7
	.loc 1 3046 12
	str	r3, [r1]
	.loc 1 3049 3 is_stmt 1
.LVL316:
	.loc 1 3050 3
	.loc 1 3053 3
	.loc 1 3054 1 is_stmt 0
	asrs	r0, r0, #8
.LVL317:
	bx	lr
	.cfi_endproc
.LFE383:
	.size	HAL_DFSDM_FilterGetExdMinValue, .-HAL_DFSDM_FilterGetExdMinValue
	.section	.text.HAL_DFSDM_FilterGetConvTimeValue,"ax",%progbits
	.align	1
	.global	HAL_DFSDM_FilterGetConvTimeValue
	.syntax unified
	.thumb
	.thumb_func
	.type	HAL_DFSDM_FilterGetConvTimeValue, %function
HAL_DFSDM_FilterGetConvTimeValue:
.LFB384:
	.loc 1 3063 1 is_stmt 1
	.cfi_startproc
	@ args = 0, pretend = 0, frame = 0
	@ frame_needed = 0, uses_anonymous_args = 0
	@ link register save eliminated.
.LVL318:
	.loc 1 3064 3
	.loc 1 3065 3
	.loc 1 3068 3
	.loc 1 3071 3
	.loc 1 3071 22 is_stmt 0
	ldr	r3, [r0]
	.loc 1 3071 7
	ldr	r0, [r3, #56]
.LVL319:
	.loc 1 3074 3 is_stmt 1
	.loc 1 3077 3
	.loc 1 3078 1 is_stmt 0
	lsrs	r0, r0, #4
.LVL320:
	bx	lr
	.cfi_endproc
.LFE384:
	.size	HAL_DFSDM_FilterGetConvTimeValue, .-HAL_DFSDM_FilterGetConvTimeValue
	.section	.text.HAL_DFSDM_FilterRegConvCpltCallback,"ax",%progbits
	.align	1
	.weak	HAL_DFSDM_FilterRegConvCpltCallback
	.syntax unified
	.thumb
	.thumb_func
	.type	HAL_DFSDM_FilterRegConvCpltCallback, %function
HAL_DFSDM_FilterRegConvCpltCallback:
.LFB386:
	.loc 1 3302 1 is_stmt 1
	.cfi_startproc
	@ args = 0, pretend = 0, frame = 0
	@ frame_needed = 0, uses_anonymous_args = 0
	@ link register save eliminated.
.LVL321:
	.loc 1 3304 3
	.loc 1 3309 1 is_stmt 0
	bx	lr
	.cfi_endproc
.LFE386:
	.size	HAL_DFSDM_FilterRegConvCpltCallback, .-HAL_DFSDM_FilterRegConvCpltCallback
	.section	.text.DFSDM_DMARegularConvCplt,"ax",%progbits
	.align	1
	.syntax unified
	.thumb
	.thumb_func
	.type	DFSDM_DMARegularConvCplt, %function
DFSDM_DMARegularConvCplt:
.LFB395:
	.loc 1 3470 1 is_stmt 1
	.cfi_startproc
	@ args = 0, pretend = 0, frame = 0
	@ frame_needed = 0, uses_anonymous_args = 0
.LVL322:
	push	{r3, lr}
	.cfi_def_cfa_offset 8
	.cfi_offset 3, -8
	.cfi_offset 14, -4
	.loc 1 3472 3
.LVL323:
	.loc 1 3478 3
	ldr	r0, [r0, #56]
.LVL324:
	bl	HAL_DFSDM_FilterRegConvCpltCallback
.LVL325:
	.loc 1 3480 1 is_stmt 0
	pop	{r3, pc}
	.cfi_endproc
.LFE395:
	.size	DFSDM_DMARegularConvCplt, .-DFSDM_DMARegularConvCplt
	.section	.text.HAL_DFSDM_FilterRegConvHalfCpltCallback,"ax",%progbits
	.align	1
	.weak	HAL_DFSDM_FilterRegConvHalfCpltCallback
	.syntax unified
	.thumb
	.thumb_func
	.type	HAL_DFSDM_FilterRegConvHalfCpltCallback, %function
HAL_DFSDM_FilterRegConvHalfCpltCallback:
.LFB387:
	.loc 1 3317 1 is_stmt 1
	.cfi_startproc
	@ args = 0, pretend = 0, frame = 0
	@ frame_needed = 0, uses_anonymous_args = 0
	@ link register save eliminated.
.LVL326:
	.loc 1 3319 3
	.loc 1 3324 1 is_stmt 0
	bx	lr
	.cfi_endproc
.LFE387:
	.size	HAL_DFSDM_FilterRegConvHalfCpltCallback, .-HAL_DFSDM_FilterRegConvHalfCpltCallback
	.section	.text.DFSDM_DMARegularHalfConvCplt,"ax",%progbits
	.align	1
	.syntax unified
	.thumb
	.thumb_func
	.type	DFSDM_DMARegularHalfConvCplt, %function
DFSDM_DMARegularHalfConvCplt:
.LFB394:
	.loc 1 3452 1 is_stmt 1
	.cfi_startproc
	@ args = 0, pretend = 0, frame = 0
	@ frame_needed = 0, uses_anonymous_args = 0
.LVL327:
	push	{r3, lr}
	.cfi_def_cfa_offset 8
	.cfi_offset 3, -8
	.cfi_offset 14, -4
	.loc 1 3454 3
.LVL328:
	.loc 1 3460 3
	ldr	r0, [r0, #56]
.LVL329:
	bl	HAL_DFSDM_FilterRegConvHalfCpltCallback
.LVL330:
	.loc 1 3462 1 is_stmt 0
	pop	{r3, pc}
	.cfi_endproc
.LFE394:
	.size	DFSDM_DMARegularHalfConvCplt, .-DFSDM_DMARegularHalfConvCplt
	.section	.text.HAL_DFSDM_FilterInjConvCpltCallback,"ax",%progbits
	.align	1
	.weak	HAL_DFSDM_FilterInjConvCpltCallback
	.syntax unified
	.thumb
	.thumb_func
	.type	HAL_DFSDM_FilterInjConvCpltCallback, %function
HAL_DFSDM_FilterInjConvCpltCallback:
.LFB388:
	.loc 1 3334 1 is_stmt 1
	.cfi_startproc
	@ args = 0, pretend = 0, frame = 0
	@ frame_needed = 0, uses_anonymous_args = 0
	@ link register save eliminated.
.LVL331:
	.loc 1 3336 3
	.loc 1 3341 1 is_stmt 0
	bx	lr
	.cfi_endproc
.LFE388:
	.size	HAL_DFSDM_FilterInjConvCpltCallback, .-HAL_DFSDM_FilterInjConvCpltCallback
	.section	.text.DFSDM_DMAInjectedConvCplt,"ax",%progbits
	.align	1
	.syntax unified
	.thumb
	.thumb_func
	.type	DFSDM_DMAInjectedConvCplt, %function
DFSDM_DMAInjectedConvCplt:
.LFB397:
	.loc 1 3506 1 is_stmt 1
	.cfi_startproc
	@ args = 0, pretend = 0, frame = 0
	@ frame_needed = 0, uses_anonymous_args = 0
.LVL332:
	push	{r3, lr}
	.cfi_def_cfa_offset 8
	.cfi_offset 3, -8
	.cfi_offset 14, -4
	.loc 1 3508 3
.LVL333:
	.loc 1 3514 3
	ldr	r0, [r0, #56]
.LVL334:
	bl	HAL_DFSDM_FilterInjConvCpltCallback
.LVL335:
	.loc 1 3516 1 is_stmt 0
	pop	{r3, pc}
	.cfi_endproc
.LFE397:
	.size	DFSDM_DMAInjectedConvCplt, .-DFSDM_DMAInjectedConvCplt
	.section	.text.HAL_DFSDM_FilterInjConvHalfCpltCallback,"ax",%progbits
	.align	1
	.weak	HAL_DFSDM_FilterInjConvHalfCpltCallback
	.syntax unified
	.thumb
	.thumb_func
	.type	HAL_DFSDM_FilterInjConvHalfCpltCallback, %function
HAL_DFSDM_FilterInjConvHalfCpltCallback:
.LFB389:
	.loc 1 3349 1 is_stmt 1
	.cfi_startproc
	@ args = 0, pretend = 0, frame = 0
	@ frame_needed = 0, uses_anonymous_args = 0
	@ link register save eliminated.
.LVL336:
	.loc 1 3351 3
	.loc 1 3356 1 is_stmt 0
	bx	lr
	.cfi_endproc
.LFE389:
	.size	HAL_DFSDM_FilterInjConvHalfCpltCallback, .-HAL_DFSDM_FilterInjConvHalfCpltCallback
	.section	.text.DFSDM_DMAInjectedHalfConvCplt,"ax",%progbits
	.align	1
	.syntax unified
	.thumb
	.thumb_func
	.type	DFSDM_DMAInjectedHalfConvCplt, %function
DFSDM_DMAInjectedHalfConvCplt:
.LFB396:
	.loc 1 3488 1 is_stmt 1
	.cfi_startproc
	@ args = 0, pretend = 0, frame = 0
	@ frame_needed = 0, uses_anonymous_args = 0
.LVL337:
	push	{r3, lr}
	.cfi_def_cfa_offset 8
	.cfi_offset 3, -8
	.cfi_offset 14, -4
	.loc 1 3490 3
.LVL338:
	.loc 1 3496 3
	ldr	r0, [r0, #56]
.LVL339:
	bl	HAL_DFSDM_FilterInjConvHalfCpltCallback
.LVL340:
	.loc 1 3498 1 is_stmt 0
	pop	{r3, pc}
	.cfi_endproc
.LFE396:
	.size	DFSDM_DMAInjectedHalfConvCplt, .-DFSDM_DMAInjectedHalfConvCplt
	.section	.text.HAL_DFSDM_FilterAwdCallback,"ax",%progbits
	.align	1
	.weak	HAL_DFSDM_FilterAwdCallback
	.syntax unified
	.thumb
	.thumb_func
	.type	HAL_DFSDM_FilterAwdCallback, %function
HAL_DFSDM_FilterAwdCallback:
.LFB390:
	.loc 1 3367 1 is_stmt 1
	.cfi_startproc
	@ args = 0, pretend = 0, frame = 0
	@ frame_needed = 0, uses_anonymous_args = 0
	@ link register save eliminated.
.LVL341:
	.loc 1 3369 3
	.loc 1 3370 3
	.loc 1 3371 3
	.loc 1 3376 1 is_stmt 0
	bx	lr
	.cfi_endproc
.LFE390:
	.size	HAL_DFSDM_FilterAwdCallback, .-HAL_DFSDM_FilterAwdCallback
	.section	.text.HAL_DFSDM_FilterErrorCallback,"ax",%progbits
	.align	1
	.weak	HAL_DFSDM_FilterErrorCallback
	.syntax unified
	.thumb
	.thumb_func
	.type	HAL_DFSDM_FilterErrorCallback, %function
HAL_DFSDM_FilterErrorCallback:
.LFB391:
	.loc 1 3384 1 is_stmt 1
	.cfi_startproc
	@ args = 0, pretend = 0, frame = 0
	@ frame_needed = 0, uses_anonymous_args = 0
	@ link register save eliminated.
.LVL342:
	.loc 1 3386 3
	.loc 1 3391 1 is_stmt 0
	bx	lr
	.cfi_endproc
.LFE391:
	.size	HAL_DFSDM_FilterErrorCallback, .-HAL_DFSDM_FilterErrorCallback
	.section	.text.HAL_DFSDM_FilterPollForRegConversion,"ax",%progbits
	.align	1
	.global	HAL_DFSDM_FilterPollForRegConversion
	.syntax unified
	.thumb
	.thumb_func
	.type	HAL_DFSDM_FilterPollForRegConversion, %function
HAL_DFSDM_FilterPollForRegConversion:
.LFB361:
	.loc 1 2047 1 is_stmt 1
	.cfi_startproc
	@ args = 0, pretend = 0, frame = 0
	@ frame_needed = 0, uses_anonymous_args = 0
.LVL343:
	.loc 1 2048 3
	.loc 1 2051 3
	.loc 1 2054 3
	.loc 1 2054 20 is_stmt 0
	ldrb	r3, [r0, #76]	@ zero_extendqisi2
	.loc 1 2054 5
	cmp	r3, #2
	it	ne
	cmpne	r3, #4
	beq	.L442
	.loc 1 2058 12
	movs	r0, #1
.LVL344:
	.loc 1 2102 1
	bx	lr
.LVL345:
.L442:
	.loc 1 2047 1
	push	{r4, r5, r6, lr}
	.cfi_def_cfa_offset 16
	.cfi_offset 4, -16
	.cfi_offset 5, -12
	.cfi_offset 6, -8
	.cfi_offset 14, -4
	mov	r4, r0
	mov	r5, r1
	.loc 1 2063 5 is_stmt 1
	.loc 1 2063 17 is_stmt 0
	bl	HAL_GetTick
.LVL346:
	mov	r6, r0
.LVL347:
	.loc 1 2066 5 is_stmt 1
.L429:
	.loc 1 2066 63
	.loc 1 2066 25 is_stmt 0
	ldr	r3, [r4]
	.loc 1 2066 35
	ldr	r2, [r3, #8]
	.loc 1 2066 63
	tst	r2, #2
	bne	.L443
	.loc 1 2069 7 is_stmt 1
	.loc 1 2069 9 is_stmt 0
	cmp	r5, #-1
	beq	.L429
	.loc 1 2071 9 is_stmt 1
	.loc 1 2071 14 is_stmt 0
	bl	HAL_GetTick
.LVL348:
	.loc 1 2071 28
	subs	r0, r0, r6
	.loc 1 2071 11
	cmp	r0, r5
	bhi	.L435
	.loc 1 2071 52 discriminator 1
	cmp	r5, #0
	bne	.L429
	.loc 1 2074 18
	movs	r0, #3
	b	.L427
.L443:
	.loc 1 2079 5 is_stmt 1
	.loc 1 2079 32 is_stmt 0
	ldr	r3, [r3, #8]
	.loc 1 2079 7
	tst	r3, #8
	bne	.L444
.L431:
	.loc 1 2093 5 is_stmt 1
	.loc 1 2093 22 is_stmt 0
	ldr	r3, [r4, #48]
	.loc 1 2093 7
	cbnz	r3, .L432
	.loc 1 2094 23 discriminator 1
	ldr	r3, [r4, #52]
	.loc 1 2093 56 discriminator 1
	cbnz	r3, .L432
	.loc 1 2096 7 is_stmt 1
	.loc 1 2096 44 is_stmt 0
	ldrb	r3, [r4, #76]	@ zero_extendqisi2
	.loc 1 2097 59
	cmp	r3, #2
	beq	.L445
	movs	r3, #3
.L433:
	.loc 1 2096 28
	strb	r3, [r4, #76]
.L432:
	.loc 1 2100 5 is_stmt 1
	.loc 1 2100 12 is_stmt 0
	movs	r0, #0
.L427:
	.loc 1 2102 1
	pop	{r4, r5, r6, pc}
.LVL349:
.L444:
	.loc 1 2082 7 is_stmt 1
	.loc 1 2082 32 is_stmt 0
	movs	r3, #1
	str	r3, [r4, #80]
	.loc 1 2086 7 is_stmt 1
	mov	r0, r4
	bl	HAL_DFSDM_FilterErrorCallback
.LVL350:
	.loc 1 2090 7
	.loc 1 2090 20 is_stmt 0
	ldr	r3, [r4]
	.loc 1 2090 39
	movs	r2, #8
	str	r2, [r3, #12]
	b	.L431
.L445:
	.loc 1 2097 59
	movs	r3, #1
	b	.L433
.L435:
	.loc 1 2074 18
	movs	r0, #3
	b	.L427
	.cfi_endproc
.LFE361:
	.size	HAL_DFSDM_FilterPollForRegConversion, .-HAL_DFSDM_FilterPollForRegConversion
	.section	.text.DFSDM_DMAError,"ax",%progbits
	.align	1
	.syntax unified
	.thumb
	.thumb_func
	.type	DFSDM_DMAError, %function
DFSDM_DMAError:
.LFB398:
	.loc 1 3524 1 is_stmt 1
	.cfi_startproc
	@ args = 0, pretend = 0, frame = 0
	@ frame_needed = 0, uses_anonymous_args = 0
.LVL351:
	push	{r3, lr}
	.cfi_def_cfa_offset 8
	.cfi_offset 3, -8
	.cfi_offset 14, -4
	.loc 1 3526 3
	.loc 1 3526 31 is_stmt 0
	ldr	r0, [r0, #56]
.LVL352:
	.loc 1 3529 3 is_stmt 1
	.loc 1 3529 28 is_stmt 0
	movs	r3, #3
	str	r3, [r0, #80]
	.loc 1 3535 3 is_stmt 1
	bl	HAL_DFSDM_FilterErrorCallback
.LVL353:
	.loc 1 3537 1 is_stmt 0
	pop	{r3, pc}
	.cfi_endproc
.LFE398:
	.size	DFSDM_DMAError, .-DFSDM_DMAError
	.section	.text.HAL_DFSDM_FilterPollForInjConversion,"ax",%progbits
	.align	1
	.global	HAL_DFSDM_FilterPollForInjConversion
	.syntax unified
	.thumb
	.thumb_func
	.type	HAL_DFSDM_FilterPollForInjConversion, %function
HAL_DFSDM_FilterPollForInjConversion:
.LFB370:
	.loc 1 2458 1 is_stmt 1
	.cfi_startproc
	@ args = 0, pretend = 0, frame = 0
	@ frame_needed = 0, uses_anonymous_args = 0
.LVL354:
	.loc 1 2459 3
	.loc 1 2462 3
	.loc 1 2465 3
	.loc 1 2465 20 is_stmt 0
	ldrb	r3, [r0, #76]	@ zero_extendqisi2
	.loc 1 2465 59
	subs	r3, r3, #3
	uxtb	r3, r3
	.loc 1 2465 5
	cmp	r3, #1
	bls	.L467
	.loc 1 2469 12
	movs	r0, #1
.LVL355:
	.loc 1 2523 1
	bx	lr
.LVL356:
.L467:
	.loc 1 2458 1
	push	{r4, r5, r6, lr}
	.cfi_def_cfa_offset 16
	.cfi_offset 4, -16
	.cfi_offset 5, -12
	.cfi_offset 6, -8
	.cfi_offset 14, -4
	mov	r4, r0
	mov	r5, r1
	.loc 1 2474 5 is_stmt 1
	.loc 1 2474 17 is_stmt 0
	bl	HAL_GetTick
.LVL357:
	mov	r6, r0
.LVL358:
	.loc 1 2477 5 is_stmt 1
.L451:
	.loc 1 2477 63
	.loc 1 2477 25 is_stmt 0
	ldr	r3, [r4]
	.loc 1 2477 35
	ldr	r2, [r3, #8]
	.loc 1 2477 63
	tst	r2, #1
	bne	.L468
	.loc 1 2480 7 is_stmt 1
	.loc 1 2480 9 is_stmt 0
	cmp	r5, #-1
	beq	.L451
	.loc 1 2482 9 is_stmt 1
	.loc 1 2482 14 is_stmt 0
	bl	HAL_GetTick
.LVL359:
	.loc 1 2482 28
	subs	r0, r0, r6
	.loc 1 2482 11
	cmp	r0, r5
	bhi	.L459
	.loc 1 2482 52 discriminator 1
	cmp	r5, #0
	bne	.L451
	.loc 1 2485 18
	movs	r0, #3
	b	.L449
.L468:
	.loc 1 2490 5 is_stmt 1
	.loc 1 2490 32 is_stmt 0
	ldr	r3, [r3, #8]
	.loc 1 2490 7
	tst	r3, #4
	bne	.L469
.L453:
	.loc 1 2505 5 is_stmt 1
	.loc 1 2505 18 is_stmt 0
	ldr	r3, [r4, #72]
	.loc 1 2505 36
	subs	r3, r3, #1
	str	r3, [r4, #72]
	.loc 1 2506 5 is_stmt 1
	.loc 1 2506 7 is_stmt 0
	cbnz	r3, .L454
	.loc 1 2509 7 is_stmt 1
	.loc 1 2509 23 is_stmt 0
	ldr	r3, [r4, #56]
	.loc 1 2509 9
	cbnz	r3, .L455
	.loc 1 2511 9 is_stmt 1
	.loc 1 2511 46 is_stmt 0
	ldrb	r3, [r4, #76]	@ zero_extendqisi2
	.loc 1 2512 61
	cmp	r3, #3
	beq	.L470
	movs	r3, #2
.L456:
	.loc 1 2511 30
	strb	r3, [r4, #76]
.L455:
	.loc 1 2516 7 is_stmt 1
	.loc 1 2516 55 is_stmt 0
	ldrb	r3, [r4, #64]	@ zero_extendqisi2
	.loc 1 2517 76
	cmp	r3, #1
	beq	.L471
	movs	r3, #1
.L457:
	.loc 1 2516 39
	str	r3, [r4, #72]
.L454:
	.loc 1 2521 5 is_stmt 1
	.loc 1 2521 12 is_stmt 0
	movs	r0, #0
.L449:
	.loc 1 2523 1
	pop	{r4, r5, r6, pc}
.LVL360:
.L469:
	.loc 1 2493 7 is_stmt 1
	.loc 1 2493 32 is_stmt 0
	movs	r3, #2
	str	r3, [r4, #80]
	.loc 1 2497 7 is_stmt 1
	mov	r0, r4
	bl	HAL_DFSDM_FilterErrorCallback
.LVL361:
	.loc 1 2501 7
	.loc 1 2501 20 is_stmt 0
	ldr	r3, [r4]
	.loc 1 2501 39
	movs	r2, #4
	str	r2, [r3, #12]
	b	.L453
.L470:
	.loc 1 2512 61
	movs	r3, #1
	b	.L456
.L471:
	.loc 1 2517 76 discriminator 1
	ldr	r3, [r4, #68]
	b	.L457
.L459:
	.loc 1 2485 18
	movs	r0, #3
	b	.L449
	.cfi_endproc
.LFE370:
	.size	HAL_DFSDM_FilterPollForInjConversion, .-HAL_DFSDM_FilterPollForInjConversion
	.section	.text.HAL_DFSDM_IRQHandler,"ax",%progbits
	.align	1
	.global	HAL_DFSDM_IRQHandler
	.syntax unified
	.thumb
	.thumb_func
	.type	HAL_DFSDM_IRQHandler, %function
HAL_DFSDM_IRQHandler:
.LFB385:
	.loc 1 3086 1 is_stmt 1
	.cfi_startproc
	@ args = 0, pretend = 0, frame = 0
	@ frame_needed = 0, uses_anonymous_args = 0
.LVL362:
	push	{r4, r5, r6, lr}
	.cfi_def_cfa_offset 16
	.cfi_offset 4, -16
	.cfi_offset 5, -12
	.cfi_offset 6, -8
	.cfi_offset 14, -4
	mov	r4, r0
	.loc 1 3087 3
	.loc 1 3088 3
	.loc 1 3089 3
	.loc 1 3092 3
	.loc 1 3092 45 is_stmt 0
	ldr	r0, [r0]
.LVL363:
	.loc 1 3092 18
	ldr	r3, [r0, #8]
.LVL364:
	.loc 1 3093 3 is_stmt 1
	.loc 1 3093 18 is_stmt 0
	ldr	r2, [r0, #4]
.LVL365:
	.loc 1 3109 3 is_stmt 1
	.loc 1 3110 3
	.loc 1 3111 3
	.loc 1 3115 3
	.loc 1 3115 5 is_stmt 0
	tst	r3, #8
	beq	.L473
	.loc 1 3115 46 discriminator 1
	tst	r2, #8
	bne	.L501
.L473:
	.loc 1 3132 8 is_stmt 1
	.loc 1 3132 10 is_stmt 0
	tst	r3, #4
	beq	.L475
	.loc 1 3132 51 discriminator 1
	tst	r2, #4
	bne	.L502
.L475:
	.loc 1 3149 8 is_stmt 1
	.loc 1 3149 10 is_stmt 0
	tst	r3, #2
	beq	.L476
	.loc 1 3149 51 discriminator 1
	tst	r2, #2
	bne	.L503
.L476:
	.loc 1 3172 8 is_stmt 1
	.loc 1 3172 10 is_stmt 0
	tst	r3, #1
	beq	.L478
	.loc 1 3172 51 discriminator 1
	tst	r2, #1
	bne	.L504
.L478:
	.loc 1 3202 8 is_stmt 1
	.loc 1 3202 10 is_stmt 0
	tst	r3, #16
	beq	.L482
	.loc 1 3202 51 discriminator 1
	tst	r2, #16
	beq	.L482
.LBB2:
	.loc 1 3205 5 is_stmt 1
	.loc 1 3206 5
	.loc 1 3207 5
.LVL366:
	.loc 1 3210 5
	.loc 1 3210 9 is_stmt 0
	ldr	r3, [r0, #40]
.LVL367:
	.loc 1 3211 5 is_stmt 1
	.loc 1 3211 64 is_stmt 0
	ands	r2, r3, #255
.LVL368:
	bne	.L499
.LVL369:
	.loc 1 3212 5 is_stmt 1
	.loc 1 3214 7
	.loc 1 3214 11 is_stmt 0
	lsrs	r3, r3, #8
.LVL370:
.L483:
	.loc 1 3211 64
	movs	r1, #0
	b	.L484
.LVL371:
.L501:
.LBE2:
	.loc 1 3119 5 is_stmt 1
	.loc 1 3119 37 is_stmt 0
	movs	r3, #8
.LVL372:
	str	r3, [r0, #12]
	.loc 1 3122 5 is_stmt 1
	.loc 1 3122 30 is_stmt 0
	movs	r3, #1
	str	r3, [r4, #80]
	.loc 1 3128 5 is_stmt 1
	mov	r0, r4
	bl	HAL_DFSDM_FilterErrorCallback
.LVL373:
	b	.L472
.LVL374:
.L502:
	.loc 1 3136 5
	.loc 1 3136 37 is_stmt 0
	movs	r3, #4
.LVL375:
	str	r3, [r0, #12]
	.loc 1 3139 5 is_stmt 1
	.loc 1 3139 30 is_stmt 0
	movs	r3, #2
	str	r3, [r4, #80]
	.loc 1 3145 5 is_stmt 1
	mov	r0, r4
	bl	HAL_DFSDM_FilterErrorCallback
.LVL376:
	b	.L472
.LVL377:
.L503:
	.loc 1 3156 5
	mov	r0, r4
	bl	HAL_DFSDM_FilterRegConvCpltCallback
.LVL378:
	.loc 1 3160 5
	.loc 1 3160 22 is_stmt 0
	ldr	r3, [r4, #48]
	.loc 1 3160 7
	cmp	r3, #0
	bne	.L472
	.loc 1 3161 23 discriminator 1
	ldr	r3, [r4, #52]
	.loc 1 3160 56 discriminator 1
	cmp	r3, #0
	bne	.L472
	.loc 1 3164 7 is_stmt 1
	.loc 1 3164 20 is_stmt 0
	ldr	r2, [r4]
	.loc 1 3164 30
	ldr	r3, [r2, #4]
	.loc 1 3164 39
	bic	r3, r3, #2
	str	r3, [r2, #4]
	.loc 1 3167 7 is_stmt 1
	.loc 1 3167 44 is_stmt 0
	ldrb	r3, [r4, #76]	@ zero_extendqisi2
	.loc 1 3168 59
	cmp	r3, #2
	beq	.L505
	movs	r3, #3
.L477:
	.loc 1 3167 28
	strb	r3, [r4, #76]
	b	.L472
.L505:
	.loc 1 3168 59
	movs	r3, #1
	b	.L477
.LVL379:
.L504:
	.loc 1 3179 5 is_stmt 1
	mov	r0, r4
	bl	HAL_DFSDM_FilterInjConvCpltCallback
.LVL380:
	.loc 1 3183 5
	.loc 1 3183 18 is_stmt 0
	ldr	r3, [r4, #72]
	.loc 1 3183 36
	subs	r3, r3, #1
	str	r3, [r4, #72]
	.loc 1 3184 5 is_stmt 1
	.loc 1 3184 7 is_stmt 0
	cbnz	r3, .L472
	.loc 1 3187 7 is_stmt 1
	.loc 1 3187 23 is_stmt 0
	ldr	r3, [r4, #56]
	.loc 1 3187 9
	cbnz	r3, .L479
	.loc 1 3190 9 is_stmt 1
	.loc 1 3190 22 is_stmt 0
	ldr	r2, [r4]
	.loc 1 3190 32
	ldr	r3, [r2, #4]
	.loc 1 3190 41
	bic	r3, r3, #1
	str	r3, [r2, #4]
	.loc 1 3193 9 is_stmt 1
	.loc 1 3193 46 is_stmt 0
	ldrb	r3, [r4, #76]	@ zero_extendqisi2
	.loc 1 3194 61
	cmp	r3, #3
	beq	.L506
	movs	r3, #2
.L480:
	.loc 1 3193 30
	strb	r3, [r4, #76]
.L479:
	.loc 1 3197 7 is_stmt 1
	.loc 1 3197 55 is_stmt 0
	ldrb	r3, [r4, #64]	@ zero_extendqisi2
	.loc 1 3198 76
	cmp	r3, #1
	beq	.L507
	movs	r3, #1
.L481:
	.loc 1 3197 39
	str	r3, [r4, #72]
	b	.L472
.L506:
	.loc 1 3194 61
	movs	r3, #1
	b	.L480
.L507:
	.loc 1 3198 76 discriminator 1
	ldr	r3, [r4, #68]
	b	.L481
.LVL381:
.L486:
.LBB3:
	.loc 1 3218 7 is_stmt 1
	.loc 1 3218 14 is_stmt 0
	adds	r1, r1, #1
.LVL382:
	.loc 1 3219 7 is_stmt 1
	.loc 1 3219 11 is_stmt 0
	lsrs	r3, r3, #1
.LVL383:
.L484:
	.loc 1 3216 31 is_stmt 1
	tst	r3, #1
	bne	.L485
	.loc 1 3216 31 is_stmt 0 discriminator 1
	cmp	r1, #6
	bls	.L486
.L485:
	.loc 1 3222 5 is_stmt 1
	.loc 1 3223 67 is_stmt 0
	cbnz	r2, .L487
	.loc 1 3223 55 discriminator 1
	add	r5, r1, #8
	.loc 1 3223 67 discriminator 1
	movs	r3, #1
.LVL384:
	lsls	r3, r3, r5
.L488:
	.loc 1 3222 39
	str	r3, [r0, #44]
	.loc 1 3230 5 is_stmt 1
	mov	r0, r4
	bl	HAL_DFSDM_FilterAwdCallback
.LVL385:
.LBE3:
	.loc 1 3204 3 is_stmt 0
	b	.L472
.LVL386:
.L499:
.LBB4:
	.loc 1 3211 64
	movs	r2, #1
	b	.L483
.LVL387:
.L487:
	.loc 1 3223 67 discriminator 2
	movs	r3, #1
.LVL388:
	lsls	r3, r3, r1
	b	.L488
.LVL389:
.L482:
.LBE4:
	.loc 1 3234 8 is_stmt 1
	.loc 1 3234 10 is_stmt 0
	ldr	r1, .L510
	cmp	r0, r1
	beq	.L508
.L489:
	.loc 1 3267 8 is_stmt 1
	.loc 1 3267 10 is_stmt 0
	ldr	r1, .L510
	cmp	r0, r1
	beq	.L509
.LVL390:
.L472:
	.loc 1 3292 1
	pop	{r4, r5, r6, pc}
.LVL391:
.L508:
	.loc 1 3234 56 discriminator 1
	tst	r3, #16711680
	beq	.L489
	.loc 1 3235 54
	tst	r2, #64
	beq	.L489
.LBB5:
	.loc 1 3238 5 is_stmt 1
	.loc 1 3239 5
.LVL392:
	.loc 1 3241 5
	.loc 1 3241 36 is_stmt 0
	ldr	r6, [r0, #8]
	.loc 1 3241 9
	ubfx	r6, r6, #16, #8
.LVL393:
	.loc 1 3243 5 is_stmt 1
	.loc 1 3239 14 is_stmt 0
	movs	r5, #0
	.loc 1 3243 11
	b	.L490
.LVL394:
.L491:
	.loc 1 3262 7 is_stmt 1
	.loc 1 3262 14 is_stmt 0
	adds	r5, r5, #1
.LVL395:
	.loc 1 3263 7 is_stmt 1
	.loc 1 3263 11 is_stmt 0
	lsrs	r6, r6, #1
.LVL396:
.L490:
	.loc 1 3243 20 is_stmt 1
	cmp	r5, #7
	bhi	.L472
	.loc 1 3246 7
	.loc 1 3246 10 is_stmt 0
	tst	r6, #1
	beq	.L491
	.loc 1 3246 52 discriminator 1
	lsls	r1, r5, #2
	ldr	r2, .L510+4
	ldr	r3, [r2, r5, lsl #2]
	.loc 1 3246 30 discriminator 1
	cmp	r3, #0
	beq	.L491
	.loc 1 3249 9 is_stmt 1
	.loc 1 3249 41 is_stmt 0
	ldr	r3, [r3]
	.loc 1 3249 51
	ldr	r3, [r3]
	.loc 1 3249 12
	tst	r3, #64
	beq	.L491
	.loc 1 3252 11 is_stmt 1
	.loc 1 3252 60 is_stmt 0
	add	ip, r5, #16
	.loc 1 3252 24
	ldr	r0, [r4]
	.loc 1 3252 50
	movs	r3, #1
	lsl	r3, r3, ip
	.loc 1 3252 43
	str	r3, [r0, #12]
	.loc 1 3258 11 is_stmt 1
	ldr	r0, [r2, r1]
	bl	HAL_DFSDM_ChannelCkabCallback
.LVL397:
	b	.L491
.LVL398:
.L509:
.LBE5:
	.loc 1 3267 56 is_stmt 0 discriminator 1
	cmp	r3, #16777216
	bcc	.L472
	.loc 1 3268 54
	tst	r2, #32
	beq	.L472
.LBB6:
	.loc 1 3271 5 is_stmt 1
	.loc 1 3272 5
.LVL399:
	.loc 1 3275 5
	.loc 1 3275 36 is_stmt 0
	ldr	r3, [r0, #8]
.LVL400:
	.loc 1 3275 66
	lsrs	r3, r3, #24
.LVL401:
	.loc 1 3276 5 is_stmt 1
	.loc 1 3272 14 is_stmt 0
	movs	r2, #0
.LVL402:
.L493:
	.loc 1 3276 31 is_stmt 1
	tst	r3, #1
	bne	.L494
	.loc 1 3276 31 is_stmt 0 discriminator 1
	cmp	r2, #6
	bhi	.L494
	.loc 1 3278 7 is_stmt 1
	.loc 1 3278 14 is_stmt 0
	adds	r2, r2, #1
.LVL403:
	.loc 1 3279 7 is_stmt 1
	.loc 1 3279 11 is_stmt 0
	lsrs	r3, r3, #1
.LVL404:
	b	.L493
.L494:
	.loc 1 3283 5 is_stmt 1
	.loc 1 3283 54 is_stmt 0
	add	r1, r2, #24
	.loc 1 3283 44
	movs	r3, #1
.LVL405:
	lsls	r3, r3, r1
	.loc 1 3283 37
	str	r3, [r0, #12]
	.loc 1 3289 5 is_stmt 1
	ldr	r3, .L510+4
	ldr	r0, [r3, r2, lsl #2]
	bl	HAL_DFSDM_ChannelScdCallback
.LVL406:
.LBE6:
	.loc 1 3292 1 is_stmt 0
	b	.L472
.L511:
	.align	2
.L510:
	.word	1073836288
	.word	a_dfsdm1ChannelHandle
	.cfi_endproc
.LFE385:
	.size	HAL_DFSDM_IRQHandler, .-HAL_DFSDM_IRQHandler
	.section	.text.HAL_DFSDM_FilterGetState,"ax",%progbits
	.align	1
	.global	HAL_DFSDM_FilterGetState
	.syntax unified
	.thumb
	.thumb_func
	.type	HAL_DFSDM_FilterGetState, %function
HAL_DFSDM_FilterGetState:
.LFB392:
	.loc 1 3417 1 is_stmt 1
	.cfi_startproc
	@ args = 0, pretend = 0, frame = 0
	@ frame_needed = 0, uses_anonymous_args = 0
	@ link register save eliminated.
.LVL407:
	.loc 1 3419 3
	.loc 1 3420 1 is_stmt 0
	ldrb	r0, [r0, #76]	@ zero_extendqisi2
.LVL408:
	bx	lr
	.cfi_endproc
.LFE392:
	.size	HAL_DFSDM_FilterGetState, .-HAL_DFSDM_FilterGetState
	.section	.text.HAL_DFSDM_FilterGetError,"ax",%progbits
	.align	1
	.global	HAL_DFSDM_FilterGetError
	.syntax unified
	.thumb
	.thumb_func
	.type	HAL_DFSDM_FilterGetError, %function
HAL_DFSDM_FilterGetError:
.LFB393:
	.loc 1 3428 1 is_stmt 1
	.cfi_startproc
	@ args = 0, pretend = 0, frame = 0
	@ frame_needed = 0, uses_anonymous_args = 0
	@ link register save eliminated.
.LVL409:
	.loc 1 3429 3
	.loc 1 3430 1 is_stmt 0
	ldr	r0, [r0, #80]
.LVL410:
	bx	lr
	.cfi_endproc
.LFE393:
	.size	HAL_DFSDM_FilterGetError, .-HAL_DFSDM_FilterGetError
	.section	.bss.a_dfsdm1ChannelHandle,"aw",%nobits
	.align	2
	.type	a_dfsdm1ChannelHandle, %object
	.size	a_dfsdm1ChannelHandle, 32
a_dfsdm1ChannelHandle:
	.space	32
	.section	.bss.v_dfsdm1ChannelCounter,"aw",%nobits
	.align	2
	.type	v_dfsdm1ChannelCounter, %object
	.size	v_dfsdm1ChannelCounter, 4
v_dfsdm1ChannelCounter:
	.space	4
	.text
.Letext0:
	.file 2 "m:\\noinstall\\arm-gnu-toolchain-12.2.rel1-mingw-w64-i686-arm-none-eabi\\arm-none-eabi\\include\\machine\\_default_types.h"
	.file 3 "m:\\noinstall\\arm-gnu-toolchain-12.2.rel1-mingw-w64-i686-arm-none-eabi\\arm-none-eabi\\include\\sys\\_stdint.h"
	.file 4 "D:/RTOS/Board/YD-STM32H7xxVx_ClassicV19/cmake-build-debug/_deps/stm32h7xx_cmsis_device-src/Include/stm32h743xx.h"
	.file 5 "D:/RTOS/Board/YD-STM32H7xxVx_ClassicV19/cmake-build-debug/_deps/stm32h7xx_cmsis_device-src/Include/stm32h7xx.h"
	.file 6 "D:/RTOS/Board/YD-STM32H7xxVx_ClassicV19/cmake-build-debug/_deps/stm32h7xx_hal_driver-src/Inc/stm32h7xx_hal_def.h"
	.file 7 "D:/RTOS/Board/YD-STM32H7xxVx_ClassicV19/cmake-build-debug/_deps/stm32h7xx_hal_driver-src/Inc/stm32h7xx_hal_dma.h"
	.file 8 "D:/RTOS/Board/YD-STM32H7xxVx_ClassicV19/cmake-build-debug/_deps/stm32h7xx_hal_driver-src/Inc/stm32h7xx_hal_dfsdm.h"
	.file 9 "D:/RTOS/Board/YD-STM32H7xxVx_ClassicV19/cmake-build-debug/_deps/stm32h7xx_hal_driver-src/Inc/stm32h7xx_hal.h"