	.cpu cortex-m7
	.arch armv7e-m
	.fpu fpv5-d16
	.eabi_attribute 28, 1
	.eabi_attribute 20, 1
	.eabi_attribute 21, 1
	.eabi_attribute 23, 3
	.eabi_attribute 24, 1
	.eabi_attribute 25, 1
	.eabi_attribute 26, 1
	.eabi_attribute 30, 1
	.eabi_attribute 34, 1
	.eabi_attribute 18, 4
	.file	"stm32h7xx_hal_smartcard_ex.c"
	.text
.Ltext0:
	.cfi_sections	.debug_frame
	.file 1 "D:/RTOS/Board/YD-STM32H7xxVx_ClassicV19/cmake-build-debug/_deps/stm32h7xx_hal_driver-src/Src/stm32h7xx_hal_smartcard_ex.c"
	.section	.text.SMARTCARDEx_SetNbDataToProcess,"ax",%progbits
	.align	1
	.syntax unified
	.thumb
	.thumb_func
	.type	SMARTCARDEx_SetNbDataToProcess, %function
SMARTCARDEx_SetNbDataToProcess:
.LFB345:
	.loc 1 455 1
	.cfi_startproc
	@ args = 0, pretend = 0, frame = 0
	@ frame_needed = 0, uses_anonymous_args = 0
	@ link register save eliminated.
.LVL0:
	.loc 1 456 3
	.loc 1 457 3
	.loc 1 458 3
	.loc 1 459 3
	.loc 1 461 3
	.loc 1 462 3
	.loc 1 464 3
	.loc 1 464 17 is_stmt 0
	ldr	r3, [r0, #104]
	.loc 1 464 6
	cbnz	r3, .L2
	.loc 1 466 5 is_stmt 1
	.loc 1 466 35 is_stmt 0
	movs	r3, #1
	strh	r3, [r0, #102]	@ movhi
	.loc 1 467 5 is_stmt 1
	.loc 1 467 35 is_stmt 0
	strh	r3, [r0, #100]	@ movhi
	bx	lr
.L2:
	.loc 1 455 1
	push	{r4, r5}
	.cfi_def_cfa_offset 8
	.cfi_offset 4, -8
	.cfi_offset 5, -4
	.loc 1 471 5 is_stmt 1
.LVL1:
	.loc 1 472 5
	.loc 1 473 5
	.loc 1 473 47 is_stmt 0
	ldr	r3, [r0]
	.loc 1 473 57
	ldr	r2, [r3, #8]
	.loc 1 473 23
	ubfx	r2, r2, #25, #3
.LVL2:
	.loc 1 474 5 is_stmt 1
	.loc 1 474 57 is_stmt 0
	ldr	r1, [r3, #8]
	.loc 1 474 23
	lsrs	r1, r1, #29
.LVL3:
	.loc 1 475 5 is_stmt 1
	.loc 1 475 73 is_stmt 0
	ldr	r5, .L7
	ldrb	r3, [r5, r1]	@ zero_extendqisi2
	.loc 1 475 62
	lsls	r3, r3, #4
	.loc 1 476 58
	ldr	r4, .L7+4
	ldrb	r1, [r4, r1]	@ zero_extendqisi2
.LVL4:
	.loc 1 475 94
	sdiv	r3, r3, r1
	.loc 1 475 35
	strh	r3, [r0, #102]	@ movhi
	.loc 1 477 5 is_stmt 1
	.loc 1 477 73 is_stmt 0
	ldrb	r3, [r5, r2]	@ zero_extendqisi2
	.loc 1 477 62
	lsls	r3, r3, #4
	.loc 1 478 58
	ldrb	r2, [r4, r2]	@ zero_extendqisi2
.LVL5:
	.loc 1 477 94
	sdiv	r3, r3, r2
	.loc 1 477 35
	strh	r3, [r0, #100]	@ movhi
	.loc 1 480 1
	pop	{r4, r5}
	.cfi_restore 5
	.cfi_restore 4
	.cfi_def_cfa_offset 0
	bx	lr
.L8:
	.align	2
.L7:
	.word	numerator.1
	.word	denominator.0
	.cfi_endproc
.LFE345:
	.size	SMARTCARDEx_SetNbDataToProcess, .-SMARTCARDEx_SetNbDataToProcess
	.section	.text.HAL_SMARTCARDEx_BlockLength_Config,"ax",%progbits
	.align	1
	.global	HAL_SMARTCARDEx_BlockLength_Config
	.syntax unified
	.thumb
	.thumb_func
	.type	HAL_SMARTCARDEx_BlockLength_Config, %function
HAL_SMARTCARDEx_BlockLength_Config:
.LFB335:
	.loc 1 105 1 is_stmt 1
	.cfi_startproc
	@ args = 0, pretend = 0, frame = 0
	@ frame_needed = 0, uses_anonymous_args = 0
	@ link register save eliminated.
.LVL6:
	.loc 1 106 3
	.loc 1 106 53 is_stmt 0
	ldr	r2, [r0]
	.loc 1 106 63
	ldr	r3, [r2, #20]
	.loc 1 106 73
	bic	r3, r3, #-16777216
	.loc 1 106 99
	orr	r3, r3, r1, lsl #24
	.loc 1 106 35
	str	r3, [r2, #20]
	.loc 1 107 1
	bx	lr
	.cfi_endproc
.LFE335:
	.size	HAL_SMARTCARDEx_BlockLength_Config, .-HAL_SMARTCARDEx_BlockLength_Config
	.section	.text.HAL_SMARTCARDEx_TimeOut_Config,"ax",%progbits
	.align	1
	.global	HAL_SMARTCARDEx_TimeOut_Config
	.syntax unified
	.thumb
	.thumb_func
	.type	HAL_SMARTCARDEx_TimeOut_Config, %function
HAL_SMARTCARDEx_TimeOut_Config:
.LFB336:
	.loc 1 117 1 is_stmt 1
	.cfi_startproc
	@ args = 0, pretend = 0, frame = 0
	@ frame_needed = 0, uses_anonymous_args = 0
	@ link register save eliminated.
.LVL7:
	.loc 1 118 3
	.loc 1 119 3
	.loc 1 119 53 is_stmt 0
	ldr	r2, [r0]
	.loc 1 119 63
	ldr	r3, [r2, #20]
	.loc 1 119 73
	and	r3, r3, #-16777216
	.loc 1 119 102
	orrs	r3, r3, r1
	.loc 1 119 35
	str	r3, [r2, #20]
	.loc 1 120 1
	bx	lr
	.cfi_endproc
.LFE336:
	.size	HAL_SMARTCARDEx_TimeOut_Config, .-HAL_SMARTCARDEx_TimeOut_Config
	.section	.text.HAL_SMARTCARDEx_EnableReceiverTimeOut,"ax",%progbits
	.align	1
	.global	HAL_SMARTCARDEx_EnableReceiverTimeOut
	.syntax unified
	.thumb
	.thumb_func
	.type	HAL_SMARTCARDEx_EnableReceiverTimeOut, %function
HAL_SMARTCARDEx_EnableReceiverTimeOut:
.LFB337:
	.loc 1 128 1 is_stmt 1
	.cfi_startproc
	@ args = 0, pretend = 0, frame = 0
	@ frame_needed = 0, uses_anonymous_args = 0
	@ link register save eliminated.
.LVL8:
	.loc 1 129 3
	.loc 1 129 17 is_stmt 0
	ldr	r3, [r0, #128]
	.loc 1 129 6
	cmp	r3, #32
	bne	.L13
	.loc 1 132 5 is_stmt 1
	.loc 1 132 9
	.loc 1 132 24 is_stmt 0
	ldrb	r3, [r0, #124]	@ zero_extendqisi2
	.loc 1 132 11
	cmp	r3, #1
	beq	.L14
	.loc 1 132 74 is_stmt 1 discriminator 2
	.loc 1 132 93 is_stmt 0 discriminator 2
	movs	r3, #1
	strb	r3, [r0, #124]
	.loc 1 132 7 is_stmt 1 discriminator 2
	.loc 1 134 5 discriminator 2
	.loc 1 134 24 is_stmt 0 discriminator 2
	movs	r3, #36
	str	r3, [r0, #128]
	.loc 1 137 5 is_stmt 1 discriminator 2
	.loc 1 137 17 is_stmt 0 discriminator 2
	ldr	r2, [r0]
	.loc 1 137 27 discriminator 2
	ldr	r3, [r2, #4]
	.loc 1 137 34 discriminator 2
	orr	r3, r3, #8388608
	str	r3, [r2, #4]
	.loc 1 139 5 is_stmt 1 discriminator 2
	.loc 1 139 24 is_stmt 0 discriminator 2
	movs	r3, #32
	str	r3, [r0, #128]
	.loc 1 142 5 is_stmt 1 discriminator 2
	.loc 1 142 9 discriminator 2
	.loc 1 142 28 is_stmt 0 discriminator 2
	movs	r3, #0
	strb	r3, [r0, #124]
	.loc 1 142 7 is_stmt 1 discriminator 2
	.loc 1 144 5 discriminator 2
	.loc 1 144 12 is_stmt 0 discriminator 2
	mov	r0, r3
.LVL9:
	bx	lr
.LVL10:
.L13:
	.loc 1 148 12
	movs	r0, #2
.LVL11:
	bx	lr
.LVL12:
.L14:
	.loc 1 132 55
	movs	r0, #2
.LVL13:
	.loc 1 150 1
	bx	lr
	.cfi_endproc
.LFE337:
	.size	HAL_SMARTCARDEx_EnableReceiverTimeOut, .-HAL_SMARTCARDEx_EnableReceiverTimeOut
	.section	.text.HAL_SMARTCARDEx_DisableReceiverTimeOut,"ax",%progbits
	.align	1
	.global	HAL_SMARTCARDEx_DisableReceiverTimeOut
	.syntax unified
	.thumb
	.thumb_func
	.type	HAL_SMARTCARDEx_DisableReceiverTimeOut, %function
HAL_SMARTCARDEx_DisableReceiverTimeOut:
.LFB338:
	.loc 1 158 1 is_stmt 1
	.cfi_startproc
	@ args = 0, pretend = 0, frame = 0
	@ frame_needed = 0, uses_anonymous_args = 0
	@ link register save eliminated.
.LVL14:
	.loc 1 159 3
	.loc 1 159 17 is_stmt 0
	ldr	r3, [r0, #128]
	.loc 1 159 6
	cmp	r3, #32
	bne	.L17
	.loc 1 162 5 is_stmt 1
	.loc 1 162 9
	.loc 1 162 24 is_stmt 0
	ldrb	r3, [r0, #124]	@ zero_extendqisi2
	.loc 1 162 11
	cmp	r3, #1
	beq	.L18
	.loc 1 162 74 is_stmt 1 discriminator 2
	.loc 1 162 93 is_stmt 0 discriminator 2
	movs	r3, #1
	strb	r3, [r0, #124]
	.loc 1 162 7 is_stmt 1 discriminator 2
	.loc 1 164 5 discriminator 2
	.loc 1 164 24 is_stmt 0 discriminator 2
	movs	r3, #36
	str	r3, [r0, #128]
	.loc 1 167 5 is_stmt 1 discriminator 2
	.loc 1 167 17 is_stmt 0 discriminator 2
	ldr	r2, [r0]
	.loc 1 167 27 discriminator 2
	ldr	r3, [r2, #4]
	.loc 1 167 34 discriminator 2
	bic	r3, r3, #8388608
	str	r3, [r2, #4]
	.loc 1 169 5 is_stmt 1 discriminator 2
	.loc 1 169 24 is_stmt 0 discriminator 2
	movs	r3, #32
	str	r3, [r0, #128]
	.loc 1 172 5 is_stmt 1 discriminator 2
	.loc 1 172 9 discriminator 2
	.loc 1 172 28 is_stmt 0 discriminator 2
	movs	r3, #0
	strb	r3, [r0, #124]
	.loc 1 172 7 is_stmt 1 discriminator 2
	.loc 1 174 5 discriminator 2
	.loc 1 174 12 is_stmt 0 discriminator 2
	mov	r0, r3
.LVL15:
	bx	lr
.LVL16:
.L17:
	.loc 1 178 12
	movs	r0, #2
.LVL17:
	bx	lr
.LVL18:
.L18:
	.loc 1 162 55
	movs	r0, #2
.LVL19:
	.loc 1 180 1
	bx	lr
	.cfi_endproc
.LFE338:
	.size	HAL_SMARTCARDEx_DisableReceiverTimeOut, .-HAL_SMARTCARDEx_DisableReceiverTimeOut
	.section	.text.HAL_SMARTCARDEx_RxFifoFullCallback,"ax",%progbits
	.align	1
	.weak	HAL_SMARTCARDEx_RxFifoFullCallback
	.syntax unified
	.thumb
	.thumb_func
	.type	HAL_SMARTCARDEx_RxFifoFullCallback, %function
HAL_SMARTCARDEx_RxFifoFullCallback:
.LFB339:
	.loc 1 211 1 is_stmt 1
	.cfi_startproc
	@ args = 0, pretend = 0, frame = 0
	@ frame_needed = 0, uses_anonymous_args = 0
	@ link register save eliminated.
.LVL20:
	.loc 1 213 3
	.loc 1 218 1 is_stmt 0
	bx	lr
	.cfi_endproc
.LFE339:
	.size	HAL_SMARTCARDEx_RxFifoFullCallback, .-HAL_SMARTCARDEx_RxFifoFullCallback
	.section	.text.HAL_SMARTCARDEx_TxFifoEmptyCallback,"ax",%progbits
	.align	1
	.weak	HAL_SMARTCARDEx_TxFifoEmptyCallback
	.syntax unified
	.thumb
	.thumb_func
	.type	HAL_SMARTCARDEx_TxFifoEmptyCallback, %function
HAL_SMARTCARDEx_TxFifoEmptyCallback:
.LFB340:
	.loc 1 227 1 is_stmt 1
	.cfi_startproc
	@ args = 0, pretend = 0, frame = 0
	@ frame_needed = 0, uses_anonymous_args = 0
	@ link register save eliminated.
.LVL21:
	.loc 1 229 3
	.loc 1 234 1 is_stmt 0
	bx	lr
	.cfi_endproc
.LFE340:
	.size	HAL_SMARTCARDEx_TxFifoEmptyCallback, .-HAL_SMARTCARDEx_TxFifoEmptyCallback
	.section	.text.HAL_SMARTCARDEx_EnableFifoMode,"ax",%progbits
	.align	1
	.global	HAL_SMARTCARDEx_EnableFifoMode
	.syntax unified
	.thumb
	.thumb_func
	.type	HAL_SMARTCARDEx_EnableFifoMode, %function
HAL_SMARTCARDEx_EnableFifoMode:
.LFB341:
	.loc 1 264 1 is_stmt 1
	.cfi_startproc
	@ args = 0, pretend = 0, frame = 0
	@ frame_needed = 0, uses_anonymous_args = 0
.LVL22:
	.loc 1 265 3
	.loc 1 268 3
	.loc 1 271 3
	.loc 1 271 7
	.loc 1 271 22 is_stmt 0
	ldrb	r3, [r0, #124]	@ zero_extendqisi2
	.loc 1 271 9
	cmp	r3, #1
	beq	.L23
	.loc 1 264 1 discriminator 2
	push	{r4, lr}
	.cfi_def_cfa_offset 8
	.cfi_offset 4, -8
	.cfi_offset 14, -4
	mov	r4, r0
	.loc 1 271 72 is_stmt 1 discriminator 2
	.loc 1 271 91 is_stmt 0 discriminator 2
	movs	r3, #1
	strb	r3, [r0, #124]
	.loc 1 271 5 is_stmt 1 discriminator 2
	.loc 1 273 3 discriminator 2
	.loc 1 273 22 is_stmt 0 discriminator 2
	movs	r3, #36
	str	r3, [r0, #128]
	.loc 1 276 3 is_stmt 1 discriminator 2
	.loc 1 276 24 is_stmt 0 discriminator 2
	ldr	r2, [r0]
	.loc 1 276 10 discriminator 2
	ldr	r3, [r2]
.LVL23:
	.loc 1 279 3 is_stmt 1 discriminator 2
	.loc 1 279 26 is_stmt 0 discriminator 2
	ldr	r1, [r2]
	.loc 1 279 32 discriminator 2
	bic	r1, r1, #1
	str	r1, [r2]
	.loc 1 282 3 is_stmt 1 discriminator 2
	.loc 1 282 13 is_stmt 0 discriminator 2
	orr	r3, r3, #536870912
.LVL24:
	.loc 1 283 3 is_stmt 1 discriminator 2
	.loc 1 283 24 is_stmt 0 discriminator 2
	mov	r2, #536870912
	str	r2, [r0, #104]
	.loc 1 286 3 is_stmt 1 discriminator 2
	.loc 1 286 15 is_stmt 0 discriminator 2
	ldr	r2, [r0]
	.loc 1 286 32 discriminator 2
	str	r3, [r2]
	.loc 1 289 3 is_stmt 1 discriminator 2
	bl	SMARTCARDEx_SetNbDataToProcess
.LVL25:
	.loc 1 291 3 discriminator 2
	.loc 1 291 22 is_stmt 0 discriminator 2
	movs	r3, #32
	str	r3, [r4, #128]
	.loc 1 294 3 is_stmt 1 discriminator 2
	.loc 1 294 7 discriminator 2
	.loc 1 294 26 is_stmt 0 discriminator 2
	movs	r0, #0
	strb	r0, [r4, #124]
	.loc 1 294 5 is_stmt 1 discriminator 2
	.loc 1 296 3 discriminator 2
	.loc 1 297 1 is_stmt 0 discriminator 2
	pop	{r4, pc}
.LVL26:
.L23:
	.cfi_def_cfa_offset 0
	.cfi_restore 4
	.cfi_restore 14
	.loc 1 271 53
	movs	r0, #2
.LVL27:
	.loc 1 297 1
	bx	lr
	.cfi_endproc
.LFE341:
	.size	HAL_SMARTCARDEx_EnableFifoMode, .-HAL_SMARTCARDEx_EnableFifoMode
	.section	.text.HAL_SMARTCARDEx_DisableFifoMode,"ax",%progbits
	.align	1
	.global	HAL_SMARTCARDEx_DisableFifoMode
	.syntax unified
	.thumb
	.thumb_func
	.type	HAL_SMARTCARDEx_DisableFifoMode, %function
HAL_SMARTCARDEx_DisableFifoMode:
.LFB342:
	.loc 1 305 1 is_stmt 1
	.cfi_startproc
	@ args = 0, pretend = 0, frame = 0
	@ frame_needed = 0, uses_anonymous_args = 0
	@ link register save eliminated.
.LVL28:
	.loc 1 306 3
	.loc 1 309 3
	.loc 1 312 3
	.loc 1 312 7
	.loc 1 312 22 is_stmt 0
	ldrb	r3, [r0, #124]	@ zero_extendqisi2
	.loc 1 312 9
	cmp	r3, #1
	beq	.L30
	.loc 1 312 72 is_stmt 1 discriminator 2
	.loc 1 312 91 is_stmt 0 discriminator 2
	movs	r3, #1
	strb	r3, [r0, #124]
	.loc 1 312 5 is_stmt 1 discriminator 2
	.loc 1 314 3 discriminator 2
	.loc 1 314 22 is_stmt 0 discriminator 2
	movs	r3, #36
	str	r3, [r0, #128]
	.loc 1 317 3 is_stmt 1 discriminator 2
	.loc 1 317 24 is_stmt 0 discriminator 2
	ldr	r3, [r0]
	.loc 1 317 10 discriminator 2
	ldr	r2, [r3]
.LVL29:
	.loc 1 320 3 is_stmt 1 discriminator 2
	.loc 1 320 26 is_stmt 0 discriminator 2
	ldr	r1, [r3]
	.loc 1 320 32 discriminator 2
	bic	r1, r1, #1
	str	r1, [r3]
	.loc 1 323 3 is_stmt 1 discriminator 2
	.loc 1 323 13 is_stmt 0 discriminator 2
	bic	r2, r2, #536870912
.LVL30:
	.loc 1 324 3 is_stmt 1 discriminator 2
	.loc 1 324 24 is_stmt 0 discriminator 2
	movs	r3, #0
	str	r3, [r0, #104]
	.loc 1 327 3 is_stmt 1 discriminator 2
	.loc 1 327 15 is_stmt 0 discriminator 2
	ldr	r1, [r0]
	.loc 1 327 32 discriminator 2
	str	r2, [r1]
	.loc 1 329 3 is_stmt 1 discriminator 2
	.loc 1 329 22 is_stmt 0 discriminator 2
	movs	r2, #32
.LVL31:
	str	r2, [r0, #128]
.LVL32:
	.loc 1 332 3 is_stmt 1 discriminator 2
	.loc 1 332 7 discriminator 2
	.loc 1 332 26 is_stmt 0 discriminator 2
	strb	r3, [r0, #124]
	.loc 1 332 5 is_stmt 1 discriminator 2
	.loc 1 334 3 discriminator 2
	.loc 1 334 10 is_stmt 0 discriminator 2
	mov	r0, r3
.LVL33:
	bx	lr
.LVL34:
.L30:
	.loc 1 312 53
	movs	r0, #2
.LVL35:
	.loc 1 335 1
	bx	lr
	.cfi_endproc
.LFE342:
	.size	HAL_SMARTCARDEx_DisableFifoMode, .-HAL_SMARTCARDEx_DisableFifoMode
	.section	.text.HAL_SMARTCARDEx_SetTxFifoThreshold,"ax",%progbits
	.align	1
	.global	HAL_SMARTCARDEx_SetTxFifoThreshold
	.syntax unified
	.thumb
	.thumb_func
	.type	HAL_SMARTCARDEx_SetTxFifoThreshold, %function
HAL_SMARTCARDEx_SetTxFifoThreshold:
.LFB343:
	.loc 1 351 1 is_stmt 1
	.cfi_startproc
	@ args = 0, pretend = 0, frame = 0
	@ frame_needed = 0, uses_anonymous_args = 0
.LVL36:
	push	{r3, r4, r5, lr}
	.cfi_def_cfa_offset 16
	.cfi_offset 3, -16
	.cfi_offset 4, -12
	.cfi_offset 5, -8
	.cfi_offset 14, -4
	.loc 1 352 3
	.loc 1 355 3
	.loc 1 356 3
	.loc 1 359 3
	.loc 1 359 7
	.loc 1 359 22 is_stmt 0
	ldrb	r3, [r0, #124]	@ zero_extendqisi2
	.loc 1 359 9
	cmp	r3, #1
	beq	.L33
	mov	r4, r0
	.loc 1 359 72 is_stmt 1 discriminator 2
	.loc 1 359 91 is_stmt 0 discriminator 2
	movs	r3, #1
	strb	r3, [r0, #124]
	.loc 1 359 5 is_stmt 1 discriminator 2
	.loc 1 361 3 discriminator 2
	.loc 1 361 22 is_stmt 0 discriminator 2
	movs	r3, #36
	str	r3, [r0, #128]
	.loc 1 364 3 is_stmt 1 discriminator 2
	.loc 1 364 24 is_stmt 0 discriminator 2
	ldr	r3, [r0]
	.loc 1 364 10 discriminator 2
	ldr	r5, [r3]
.LVL37:
	.loc 1 367 3 is_stmt 1 discriminator 2
	.loc 1 367 26 is_stmt 0 discriminator 2
	ldr	r2, [r3]
	.loc 1 367 32 discriminator 2
	bic	r2, r2, #1
	str	r2, [r3]
	.loc 1 370 3 is_stmt 1 discriminator 2
	.loc 1 370 52 is_stmt 0 discriminator 2
	ldr	r2, [r0]
	.loc 1 370 62 discriminator 2
	ldr	r3, [r2, #8]
	.loc 1 370 71 discriminator 2
	bic	r3, r3, #-536870912
	.loc 1 370 96 discriminator 2
	orrs	r1, r1, r3
.LVL38:
	.loc 1 370 34 discriminator 2
	str	r1, [r2, #8]
	.loc 1 373 3 is_stmt 1 discriminator 2
	bl	SMARTCARDEx_SetNbDataToProcess
.LVL39:
	.loc 1 376 3 discriminator 2
	.loc 1 376 52 is_stmt 0 discriminator 2
	ldr	r2, [r4]
	.loc 1 376 62 discriminator 2
	ldr	r3, [r2]
	.loc 1 376 71 discriminator 2
	bic	r3, r3, #1
	.loc 1 376 95 discriminator 2
	orrs	r3, r3, r5
	.loc 1 376 34 discriminator 2
	str	r3, [r2]
	.loc 1 378 3 is_stmt 1 discriminator 2
	.loc 1 378 22 is_stmt 0 discriminator 2
	movs	r3, #32
	str	r3, [r4, #128]
	.loc 1 381 3 is_stmt 1 discriminator 2
	.loc 1 381 7 discriminator 2
	.loc 1 381 26 is_stmt 0 discriminator 2
	movs	r0, #0
	strb	r0, [r4, #124]
	.loc 1 381 5 is_stmt 1 discriminator 2
	.loc 1 383 3 discriminator 2
.LVL40:
.L32:
	.loc 1 384 1 is_stmt 0
	pop	{r3, r4, r5, pc}
.LVL41:
.L33:
	.loc 1 359 53
	movs	r0, #2
.LVL42:
	b	.L32
	.cfi_endproc
.LFE343:
	.size	HAL_SMARTCARDEx_SetTxFifoThreshold, .-HAL_SMARTCARDEx_SetTxFifoThreshold
	.section	.text.HAL_SMARTCARDEx_SetRxFifoThreshold,"ax",%progbits
	.align	1
	.global	HAL_SMARTCARDEx_SetRxFifoThreshold
	.syntax unified
	.thumb
	.thumb_func
	.type	HAL_SMARTCARDEx_SetRxFifoThreshold, %function
HAL_SMARTCARDEx_SetRxFifoThreshold:
.LFB344:
	.loc 1 400 1 is_stmt 1
	.cfi_startproc
	@ args = 0, pretend = 0, frame = 0
	@ frame_needed = 0, uses_anonymous_args = 0
.LVL43:
	push	{r3, r4, r5, lr}
	.cfi_def_cfa_offset 16
	.cfi_offset 3, -16
	.cfi_offset 4, -12
	.cfi_offset 5, -8
	.cfi_offset 14, -4
	.loc 1 401 3
	.loc 1 404 3
	.loc 1 405 3
	.loc 1 408 3
	.loc 1 408 7
	.loc 1 408 22 is_stmt 0
	ldrb	r3, [r0, #124]	@ zero_extendqisi2
	.loc 1 408 9
	cmp	r3, #1
	beq	.L37
	mov	r4, r0
	.loc 1 408 72 is_stmt 1 discriminator 2
	.loc 1 408 91 is_stmt 0 discriminator 2
	movs	r3, #1
	strb	r3, [r0, #124]
	.loc 1 408 5 is_stmt 1 discriminator 2
	.loc 1 410 3 discriminator 2
	.loc 1 410 22 is_stmt 0 discriminator 2
	movs	r3, #36
	str	r3, [r0, #128]
	.loc 1 413 3 is_stmt 1 discriminator 2
	.loc 1 413 24 is_stmt 0 discriminator 2
	ldr	r3, [r0]
	.loc 1 413 10 discriminator 2
	ldr	r5, [r3]
.LVL44:
	.loc 1 416 3 is_stmt 1 discriminator 2
	.loc 1 416 26 is_stmt 0 discriminator 2
	ldr	r2, [r3]
	.loc 1 416 32 discriminator 2
	bic	r2, r2, #1
	str	r2, [r3]
	.loc 1 419 3 is_stmt 1 discriminator 2
	.loc 1 419 52 is_stmt 0 discriminator 2
	ldr	r2, [r0]
	.loc 1 419 62 discriminator 2
	ldr	r3, [r2, #8]
	.loc 1 419 71 discriminator 2
	bic	r3, r3, #234881024
	.loc 1 419 96 discriminator 2
	orrs	r1, r1, r3
.LVL45:
	.loc 1 419 34 discriminator 2
	str	r1, [r2, #8]
	.loc 1 422 3 is_stmt 1 discriminator 2
	bl	SMARTCARDEx_SetNbDataToProcess
.LVL46:
	.loc 1 425 3 discriminator 2
	.loc 1 425 52 is_stmt 0 discriminator 2
	ldr	r2, [r4]
	.loc 1 425 62 discriminator 2
	ldr	r3, [r2]
	.loc 1 425 71 discriminator 2
	bic	r3, r3, #1
	.loc 1 425 95 discriminator 2
	orrs	r3, r3, r5
	.loc 1 425 34 discriminator 2
	str	r3, [r2]
	.loc 1 427 3 is_stmt 1 discriminator 2
	.loc 1 427 22 is_stmt 0 discriminator 2
	movs	r3, #32
	str	r3, [r4, #128]
	.loc 1 430 3 is_stmt 1 discriminator 2
	.loc 1 430 7 discriminator 2
	.loc 1 430 26 is_stmt 0 discriminator 2
	movs	r0, #0
	strb	r0, [r4, #124]
	.loc 1 430 5 is_stmt 1 discriminator 2
	.loc 1 432 3 discriminator 2
.LVL47:
.L36:
	.loc 1 433 1 is_stmt 0
	pop	{r3, r4, r5, pc}
.LVL48:
.L37:
	.loc 1 408 53
	movs	r0, #2
.LVL49:
	b	.L36
	.cfi_endproc
.LFE344:
	.size	HAL_SMARTCARDEx_SetRxFifoThreshold, .-HAL_SMARTCARDEx_SetRxFifoThreshold
	.section	.rodata.denominator.0,"a"
	.align	2
	.type	denominator.0, %object
	.size	denominator.0, 8
denominator.0:
	.ascii	"\010\004\002\004\010\001\001\001"
	.section	.rodata.numerator.1,"a"
	.align	2
	.type	numerator.1, %object
	.size	numerator.1, 8
numerator.1:
	.ascii	"\001\001\001\003\007\001\000\000"
	.text
.Letext0:
	.file 2 "m:\\noinstall\\arm-gnu-toolchain-12.2.rel1-mingw-w64-i686-arm-none-eabi\\arm-none-eabi\\include\\machine\\_default_types.h"
	.file 3 "m:\\noinstall\\arm-gnu-toolchain-12.2.rel1-mingw-w64-i686-arm-none-eabi\\arm-none-eabi\\include\\sys\\_stdint.h"
	.file 4 "D:/RTOS/Board/YD-STM32H7xxVx_ClassicV19/cmake-build-debug/_deps/stm32h7xx_cmsis_device-src/Include/stm32h743xx.h"
	.file 5 "D:/RTOS/Board/YD-STM32H7xxVx_ClassicV19/cmake-build-debug/_deps/stm32h7xx_hal_driver-src/Inc/stm32h7xx_hal_def.h"
	.file 6 "D:/RTOS/Board/YD-STM32H7xxVx_ClassicV19/cmake-build-debug/_deps/stm32h7xx_hal_driver-src/Inc/stm32h7xx_hal_dma.h"
	.file 7 "D:/RTOS/Board/YD-STM32H7xxVx_ClassicV19/cmake-build-debug/_deps/stm32h7xx_hal_driver-src/Inc/stm32h7xx_hal_smartcard.h"