	.cpu cortex-m7
	.arch armv7e-m
	.fpu fpv5-d16
	.eabi_attribute 28, 1
	.eabi_attribute 20, 1
	.eabi_attribute 21, 1
	.eabi_attribute 23, 3
	.eabi_attribute 24, 1
	.eabi_attribute 25, 1
	.eabi_attribute 26, 1
	.eabi_attribute 30, 1
	.eabi_attribute 34, 1
	.eabi_attribute 18, 4
	.file	"stm32h7xx_hal_pcd_ex.c"
	.text
.Ltext0:
	.cfi_sections	.debug_frame
	.file 1 "D:/RTOS/Board/YD-STM32H7xxVx_ClassicV19/cmake-build-debug/_deps/stm32h7xx_hal_driver-src/Src/stm32h7xx_hal_pcd_ex.c"
	.section	.text.HAL_PCDEx_SetTxFiFo,"ax",%progbits
	.align	1
	.global	HAL_PCDEx_SetTxFiFo
	.syntax unified
	.thumb
	.thumb_func
	.type	HAL_PCDEx_SetTxFiFo, %function
HAL_PCDEx_SetTxFiFo:
.LFB335:
	.loc 1 71 1
	.cfi_startproc
	@ args = 0, pretend = 0, frame = 0
	@ frame_needed = 0, uses_anonymous_args = 0
	@ link register save eliminated.
.LVL0:
	push	{r4}
	.cfi_def_cfa_offset 4
	.cfi_offset 4, -4
	.loc 1 72 3
	.loc 1 73 3
	.loc 1 85 3
	.loc 1 85 19 is_stmt 0
	ldr	r4, [r0]
	.loc 1 85 13
	ldr	r0, [r4, #36]
.LVL1:
	.loc 1 87 3 is_stmt 1
	.loc 1 87 6 is_stmt 0
	cbnz	r1, .L2
	.loc 1 89 5 is_stmt 1
	.loc 1 89 65 is_stmt 0
	orr	r0, r0, r2, lsl #16
.LVL2:
	.loc 1 89 40
	str	r0, [r4, #40]
.LVL3:
.L3:
	.loc 1 103 3 is_stmt 1
	.loc 1 104 1 is_stmt 0
	movs	r0, #0
	ldr	r4, [sp], #4
	.cfi_remember_state
	.cfi_restore 4
	.cfi_def_cfa_offset 0
	bx	lr
.LVL4:
.L2:
	.cfi_restore_state
	mov	ip, r1
	.loc 1 93 5 is_stmt 1
	.loc 1 93 33 is_stmt 0
	ldr	r3, [r4, #40]
	.loc 1 93 15
	add	r0, r0, r3, lsr #16
.LVL5:
	.loc 1 94 5 is_stmt 1
	.loc 1 94 12 is_stmt 0
	movs	r3, #0
	.loc 1 94 5
	b	.L4
.LVL6:
.L5:
	.loc 1 96 7 is_stmt 1 discriminator 3
	.loc 1 96 44 is_stmt 0 discriminator 3
	add	r1, r3, #64
	add	r1, r4, r1, lsl #2
	ldr	r1, [r1, #4]
	.loc 1 96 17 discriminator 3
	add	r0, r0, r1, lsr #16
.LVL7:
	.loc 1 94 36 is_stmt 1 discriminator 3
	adds	r3, r3, #1
.LVL8:
	uxtb	r3, r3
.LVL9:
.L4:
	.loc 1 94 20 discriminator 1
	.loc 1 94 28 is_stmt 0 discriminator 1
	add	r1, ip, #-1
	.loc 1 94 20 discriminator 1
	cmp	r3, r1
	bcc	.L5
	.loc 1 100 5 is_stmt 1
	.loc 1 100 65 is_stmt 0
	orr	r0, r0, r2, lsl #16
.LVL10:
	.loc 1 100 40
	add	r1, ip, #63
	add	r4, r4, r1, lsl #2
	str	r0, [r4, #4]
	b	.L3
	.cfi_endproc
.LFE335:
	.size	HAL_PCDEx_SetTxFiFo, .-HAL_PCDEx_SetTxFiFo
	.section	.text.HAL_PCDEx_SetRxFiFo,"ax",%progbits
	.align	1
	.global	HAL_PCDEx_SetRxFiFo
	.syntax unified
	.thumb
	.thumb_func
	.type	HAL_PCDEx_SetRxFiFo, %function
HAL_PCDEx_SetRxFiFo:
.LFB336:
	.loc 1 113 1 is_stmt 1
	.cfi_startproc
	@ args = 0, pretend = 0, frame = 0
	@ frame_needed = 0, uses_anonymous_args = 0
	@ link register save eliminated.
.LVL11:
	.loc 1 114 3
	.loc 1 114 7 is_stmt 0
	ldr	r3, [r0]
	.loc 1 114 27
	str	r1, [r3, #36]
	.loc 1 116 3 is_stmt 1
	.loc 1 117 1 is_stmt 0
	movs	r0, #0
.LVL12:
	bx	lr
	.cfi_endproc
.LFE336:
	.size	HAL_PCDEx_SetRxFiFo, .-HAL_PCDEx_SetRxFiFo
	.section	.text.HAL_PCDEx_ActivateLPM,"ax",%progbits
	.align	1
	.global	HAL_PCDEx_ActivateLPM
	.syntax unified
	.thumb
	.thumb_func
	.type	HAL_PCDEx_ActivateLPM, %function
HAL_PCDEx_ActivateLPM:
.LFB337:
	.loc 1 125 1 is_stmt 1
	.cfi_startproc
	@ args = 0, pretend = 0, frame = 0
	@ frame_needed = 0, uses_anonymous_args = 0
	@ link register save eliminated.
.LVL13:
	mov	r3, r0
	.loc 1 126 3
	.loc 1 126 26 is_stmt 0
	ldr	r2, [r0]
.LVL14:
	.loc 1 128 3 is_stmt 1
	.loc 1 128 20 is_stmt 0
	movs	r1, #1
	str	r1, [r0, #1240]
	.loc 1 129 3 is_stmt 1
	.loc 1 129 19 is_stmt 0
	movs	r0, #0
.LVL15:
	strb	r0, [r3, #1228]
	.loc 1 130 3 is_stmt 1
	.loc 1 130 7 is_stmt 0
	ldr	r3, [r2, #24]
.LVL16:
	.loc 1 130 17
	orr	r3, r3, #134217728
	str	r3, [r2, #24]
	.loc 1 131 3 is_stmt 1
	.loc 1 131 7 is_stmt 0
	ldr	r1, [r2, #84]
	.loc 1 131 17
	ldr	r3, .L9
	orrs	r3, r3, r1
	str	r3, [r2, #84]
	.loc 1 133 3 is_stmt 1
	.loc 1 134 1 is_stmt 0
	bx	lr
.L10:
	.align	2
.L9:
	.word	268435459
	.cfi_endproc
.LFE337:
	.size	HAL_PCDEx_ActivateLPM, .-HAL_PCDEx_ActivateLPM
	.section	.text.HAL_PCDEx_DeActivateLPM,"ax",%progbits
	.align	1
	.global	HAL_PCDEx_DeActivateLPM
	.syntax unified
	.thumb
	.thumb_func
	.type	HAL_PCDEx_DeActivateLPM, %function
HAL_PCDEx_DeActivateLPM:
.LFB338:
	.loc 1 142 1 is_stmt 1
	.cfi_startproc
	@ args = 0, pretend = 0, frame = 0
	@ frame_needed = 0, uses_anonymous_args = 0
	@ link register save eliminated.
.LVL17:
	mov	r2, r0
	.loc 1 143 3
	.loc 1 143 26 is_stmt 0
	ldr	r3, [r0]
.LVL18:
	.loc 1 145 3 is_stmt 1
	.loc 1 145 20 is_stmt 0
	movs	r0, #0
.LVL19:
	str	r0, [r2, #1240]
	.loc 1 146 3 is_stmt 1
	.loc 1 146 7 is_stmt 0
	ldr	r2, [r3, #24]
.LVL20:
	.loc 1 146 17
	bic	r2, r2, #134217728
	str	r2, [r3, #24]
	.loc 1 147 3 is_stmt 1
	.loc 1 147 7 is_stmt 0
	ldr	r1, [r3, #84]
	.loc 1 147 17
	ldr	r2, .L12
	ands	r2, r2, r1
	str	r2, [r3, #84]
	.loc 1 149 3 is_stmt 1
	.loc 1 150 1 is_stmt 0
	bx	lr
.L13:
	.align	2
.L12:
	.word	-268435460
	.cfi_endproc
.LFE338:
	.size	HAL_PCDEx_DeActivateLPM, .-HAL_PCDEx_DeActivateLPM
	.section	.text.HAL_PCDEx_ActivateBCD,"ax",%progbits
	.align	1
	.global	HAL_PCDEx_ActivateBCD
	.syntax unified
	.thumb
	.thumb_func
	.type	HAL_PCDEx_ActivateBCD, %function
HAL_PCDEx_ActivateBCD:
.LFB340:
	.loc 1 252 1 is_stmt 1
	.cfi_startproc
	@ args = 0, pretend = 0, frame = 0
	@ frame_needed = 0, uses_anonymous_args = 0
	@ link register save eliminated.
.LVL21:
	.loc 1 253 3
	.loc 1 253 26 is_stmt 0
	ldr	r3, [r0]
.LVL22:
	.loc 1 255 3 is_stmt 1
	.loc 1 255 7 is_stmt 0
	ldr	r2, [r3, #56]
	.loc 1 255 15
	bic	r2, r2, #524288
	str	r2, [r3, #56]
	.loc 1 256 3 is_stmt 1
	.loc 1 256 7 is_stmt 0
	ldr	r2, [r3, #56]
	.loc 1 256 15
	bic	r2, r2, #1048576
	str	r2, [r3, #56]
	.loc 1 259 3 is_stmt 1
	.loc 1 259 7 is_stmt 0
	ldr	r2, [r3, #56]
	.loc 1 259 15
	bic	r2, r2, #65536
	str	r2, [r3, #56]
	.loc 1 262 3 is_stmt 1
	.loc 1 262 7 is_stmt 0
	ldr	r2, [r3, #56]
	.loc 1 262 15
	orr	r2, r2, #131072
	str	r2, [r3, #56]
	.loc 1 264 3 is_stmt 1
	.loc 1 264 33 is_stmt 0
	movs	r3, #1
.LVL23:
	str	r3, [r0, #1244]
	.loc 1 266 3 is_stmt 1
	.loc 1 267 1 is_stmt 0
	movs	r0, #0
.LVL24:
	bx	lr
	.cfi_endproc
.LFE340:
	.size	HAL_PCDEx_ActivateBCD, .-HAL_PCDEx_ActivateBCD
	.section	.text.HAL_PCDEx_DeActivateBCD,"ax",%progbits
	.align	1
	.global	HAL_PCDEx_DeActivateBCD
	.syntax unified
	.thumb
	.thumb_func
	.type	HAL_PCDEx_DeActivateBCD, %function
HAL_PCDEx_DeActivateBCD:
.LFB341:
	.loc 1 275 1 is_stmt 1
	.cfi_startproc
	@ args = 0, pretend = 0, frame = 0
	@ frame_needed = 0, uses_anonymous_args = 0
	@ link register save eliminated.
.LVL25:
	mov	r2, r0
	.loc 1 276 3
	.loc 1 276 26 is_stmt 0
	ldr	r3, [r0]
.LVL26:
	.loc 1 278 3 is_stmt 1
	.loc 1 278 7 is_stmt 0
	ldr	r1, [r3, #56]
	.loc 1 278 15
	bic	r1, r1, #1048576
	str	r1, [r3, #56]
	.loc 1 279 3 is_stmt 1
	.loc 1 279 7 is_stmt 0
	ldr	r1, [r3, #56]
	.loc 1 279 15
	bic	r1, r1, #524288
	str	r1, [r3, #56]
	.loc 1 282 3 is_stmt 1
	.loc 1 282 7 is_stmt 0
	ldr	r1, [r3, #56]
	.loc 1 282 15
	bic	r1, r1, #131072
	str	r1, [r3, #56]
	.loc 1 284 3 is_stmt 1
	.loc 1 284 33 is_stmt 0
	movs	r0, #0
.LVL27:
	str	r0, [r2, #1244]
	.loc 1 286 3 is_stmt 1
	.loc 1 287 1 is_stmt 0
	bx	lr
	.cfi_endproc
.LFE341:
	.size	HAL_PCDEx_DeActivateBCD, .-HAL_PCDEx_DeActivateBCD
	.section	.text.HAL_PCDEx_LPM_Callback,"ax",%progbits
	.align	1
	.weak	HAL_PCDEx_LPM_Callback
	.syntax unified
	.thumb
	.thumb_func
	.type	HAL_PCDEx_LPM_Callback, %function
HAL_PCDEx_LPM_Callback:
.LFB342:
	.loc 1 298 1 is_stmt 1
	.cfi_startproc
	@ args = 0, pretend = 0, frame = 0
	@ frame_needed = 0, uses_anonymous_args = 0
	@ link register save eliminated.
.LVL28:
	.loc 1 300 3
	.loc 1 301 3
	.loc 1 306 1 is_stmt 0
	bx	lr
	.cfi_endproc
.LFE342:
	.size	HAL_PCDEx_LPM_Callback, .-HAL_PCDEx_LPM_Callback
	.section	.text.HAL_PCDEx_BCD_Callback,"ax",%progbits
	.align	1
	.weak	HAL_PCDEx_BCD_Callback
	.syntax unified
	.thumb
	.thumb_func
	.type	HAL_PCDEx_BCD_Callback, %function
HAL_PCDEx_BCD_Callback:
.LFB343:
	.loc 1 315 1 is_stmt 1
	.cfi_startproc
	@ args = 0, pretend = 0, frame = 0
	@ frame_needed = 0, uses_anonymous_args = 0
	@ link register save eliminated.
.LVL29:
	.loc 1 317 3
	.loc 1 318 3
	.loc 1 323 1 is_stmt 0
	bx	lr
	.cfi_endproc
.LFE343:
	.size	HAL_PCDEx_BCD_Callback, .-HAL_PCDEx_BCD_Callback
	.section	.text.HAL_PCDEx_BCD_VBUSDetect,"ax",%progbits
	.align	1
	.global	HAL_PCDEx_BCD_VBUSDetect
	.syntax unified
	.thumb
	.thumb_func
	.type	HAL_PCDEx_BCD_VBUSDetect, %function
HAL_PCDEx_BCD_VBUSDetect:
.LFB339:
	.loc 1 159 1 is_stmt 1
	.cfi_startproc
	@ args = 0, pretend = 0, frame = 0
	@ frame_needed = 0, uses_anonymous_args = 0
.LVL30:
	push	{r4, r5, r6, lr}
	.cfi_def_cfa_offset 16
	.cfi_offset 4, -16
	.cfi_offset 5, -12
	.cfi_offset 6, -8
	.cfi_offset 14, -4
	mov	r5, r0
	.loc 1 160 3
	.loc 1 160 26 is_stmt 0
	ldr	r4, [r0]
.LVL31:
	.loc 1 161 3 is_stmt 1
	.loc 1 161 24 is_stmt 0
	bl	HAL_GetTick
.LVL32:
	mov	r6, r0
.LVL33:
	.loc 1 164 3 is_stmt 1
	.loc 1 164 7 is_stmt 0
	ldr	r3, [r4, #56]
	.loc 1 164 15
	orr	r3, r3, #262144
	str	r3, [r4, #56]
	.loc 1 167 3 is_stmt 1
	mov	r0, #300
.LVL34:
	bl	HAL_Delay
.LVL35:
	.loc 1 170 3
	.loc 1 170 12 is_stmt 0
	ldr	r3, [r4, #56]
	.loc 1 170 6
	tst	r3, #1
	bne	.L26
.L19:
	.loc 1 181 3 is_stmt 1
	.loc 1 181 7 is_stmt 0
	ldr	r3, [r4, #56]
	.loc 1 181 15
	bic	r3, r3, #262144
	str	r3, [r4, #56]
	.loc 1 182 3 is_stmt 1
	movs	r0, #50
	bl	HAL_Delay
.LVL36:
	.loc 1 183 3
	.loc 1 183 7 is_stmt 0
	ldr	r3, [r4, #56]
	.loc 1 183 15
	orr	r3, r3, #524288
	str	r3, [r4, #56]
	.loc 1 184 3 is_stmt 1
	movs	r0, #50
	bl	HAL_Delay
.LVL37:
	.loc 1 186 3
	.loc 1 186 12 is_stmt 0
	ldr	r3, [r4, #56]
	.loc 1 186 6
	tst	r3, #2
	bne	.L20
	.loc 1 192 5 is_stmt 1
	movs	r1, #253
	mov	r0, r5
	bl	HAL_PCDEx_BCD_Callback
.LVL38:
.L21:
	.loc 1 225 3
	.loc 1 225 9 is_stmt 0
	mov	r0, r5
	bl	HAL_PCDEx_DeActivateBCD
.LVL39:
	.loc 1 228 3 is_stmt 1
	.loc 1 228 8 is_stmt 0
	bl	HAL_GetTick
.LVL40:
	.loc 1 228 22
	subs	r0, r0, r6
	.loc 1 228 6
	cmp	r0, #1000
	bls	.L23
	.loc 1 233 5 is_stmt 1
	movs	r1, #255
	mov	r0, r5
	bl	HAL_PCDEx_BCD_Callback
.LVL41:
.L18:
	.loc 1 244 1 is_stmt 0
	pop	{r4, r5, r6, pc}
.LVL42:
.L26:
	.loc 1 175 5 is_stmt 1
	movs	r1, #254
	mov	r0, r5
	bl	HAL_PCDEx_BCD_Callback
.LVL43:
	b	.L19
.L20:
	.loc 1 199 5
	.loc 1 199 9 is_stmt 0
	ldr	r3, [r4, #56]
	.loc 1 199 17
	bic	r3, r3, #524288
	str	r3, [r4, #56]
	.loc 1 200 5 is_stmt 1
	movs	r0, #50
	bl	HAL_Delay
.LVL44:
	.loc 1 201 5
	.loc 1 201 9 is_stmt 0
	ldr	r3, [r4, #56]
	.loc 1 201 17
	orr	r3, r3, #1048576
	str	r3, [r4, #56]
	.loc 1 202 5 is_stmt 1
	movs	r0, #50
	bl	HAL_Delay
.LVL45:
	.loc 1 204 5
	.loc 1 204 14 is_stmt 0
	ldr	r3, [r4, #56]
	.loc 1 204 8
	tst	r3, #4
	beq	.L22
	.loc 1 210 7 is_stmt 1
	movs	r1, #251
	mov	r0, r5
	bl	HAL_PCDEx_BCD_Callback
.LVL46:
	b	.L21
.L22:
	.loc 1 219 7
	movs	r1, #252
	mov	r0, r5
	bl	HAL_PCDEx_BCD_Callback
.LVL47:
	b	.L21
.L23:
	.loc 1 241 5
	movs	r1, #0
	mov	r0, r5
	bl	HAL_PCDEx_BCD_Callback
.LVL48:
	.loc 1 244 1 is_stmt 0
	b	.L18
	.cfi_endproc
.LFE339:
	.size	HAL_PCDEx_BCD_VBUSDetect, .-HAL_PCDEx_BCD_VBUSDetect
	.text
.Letext0:
	.file 2 "m:\\noinstall\\arm-gnu-toolchain-12.2.rel1-mingw-w64-i686-arm-none-eabi\\arm-none-eabi\\include\\machine\\_default_types.h"
	.file 3 "m:\\noinstall\\arm-gnu-toolchain-12.2.rel1-mingw-w64-i686-arm-none-eabi\\arm-none-eabi\\include\\sys\\_stdint.h"
	.file 4 "D:/RTOS/Board/YD-STM32H7xxVx_ClassicV19/cmake-build-debug/_deps/stm32h7xx_cmsis_device-src/Include/stm32h743xx.h"
	.file 5 "D:/RTOS/Board/YD-STM32H7xxVx_ClassicV19/cmake-build-debug/_deps/stm32h7xx_hal_driver-src/Inc/stm32h7xx_hal_def.h"
	.file 6 "D:/RTOS/Board/YD-STM32H7xxVx_ClassicV19/cmake-build-debug/_deps/stm32h7xx_hal_driver-src/Inc/stm32h7xx_ll_usb.h"
	.file 7 "D:/RTOS/Board/YD-STM32H7xxVx_ClassicV19/cmake-build-debug/_deps/stm32h7xx_hal_driver-src/Inc/stm32h7xx_hal_pcd.h"
	.file 8 "D:/RTOS/Board/YD-STM32H7xxVx_ClassicV19/cmake-build-debug/_deps/stm32h7xx_hal_driver-src/Inc/stm32h7xx_hal.h"