	.cpu cortex-m7
	.arch armv7e-m
	.fpu fpv5-d16
	.eabi_attribute 28, 1
	.eabi_attribute 20, 1
	.eabi_attribute 21, 1
	.eabi_attribute 23, 3
	.eabi_attribute 24, 1
	.eabi_attribute 25, 1
	.eabi_attribute 26, 1
	.eabi_attribute 30, 1
	.eabi_attribute 34, 1
	.eabi_attribute 18, 4
	.file	"stm32h7xx_hal_opamp.c"
	.text
.Ltext0:
	.cfi_sections	.debug_frame
	.file 1 "D:/RTOS/Board/YD-STM32H7xxVx_ClassicV19/cmake-build-debug/_deps/stm32h7xx_hal_driver-src/Src/stm32h7xx_hal_opamp.c"
	.section	.text.HAL_OPAMP_MspInit,"ax",%progbits
	.align	1
	.weak	HAL_OPAMP_MspInit
	.syntax unified
	.thumb
	.thumb_func
	.type	HAL_OPAMP_MspInit, %function
HAL_OPAMP_MspInit:
.LFB337:
	.loc 1 480 1
	.cfi_startproc
	@ args = 0, pretend = 0, frame = 0
	@ frame_needed = 0, uses_anonymous_args = 0
	@ link register save eliminated.
.LVL0:
	.loc 1 482 3
	.loc 1 487 1 is_stmt 0
	bx	lr
	.cfi_endproc
.LFE337:
	.size	HAL_OPAMP_MspInit, .-HAL_OPAMP_MspInit
	.section	.text.HAL_OPAMP_Init,"ax",%progbits
	.align	1
	.global	HAL_OPAMP_Init
	.syntax unified
	.thumb
	.thumb_func
	.type	HAL_OPAMP_Init, %function
HAL_OPAMP_Init:
.LFB335:
	.loc 1 275 1 is_stmt 1
	.cfi_startproc
	@ args = 0, pretend = 0, frame = 0
	@ frame_needed = 0, uses_anonymous_args = 0
.LVL1:
	.loc 1 276 3
	.loc 1 277 3
	.loc 1 281 3
	.loc 1 281 5 is_stmt 0
	cmp	r0, #0
	beq	.L11
	.loc 1 275 1
	push	{r4, lr}
	.cfi_def_cfa_offset 8
	.cfi_offset 4, -8
	.cfi_offset 14, -4
	mov	r4, r0
	.loc 1 285 8 is_stmt 1
	.loc 1 285 17 is_stmt 0
	ldrb	r3, [r0, #50]	@ zero_extendqisi2
	uxtb	r3, r3
	.loc 1 285 10
	cmp	r3, #5
	beq	.L12
	.loc 1 289 8 is_stmt 1
	.loc 1 289 17 is_stmt 0
	ldrb	r3, [r0, #50]	@ zero_extendqisi2
	uxtb	r3, r3
	.loc 1 289 10
	cmp	r3, #2
	beq	.L13
	.loc 1 296 5 is_stmt 1
	.loc 1 299 5
	.loc 1 300 5
	.loc 1 301 5
	.loc 1 312 5
	.loc 1 314 7
	.loc 1 317 5
	.loc 1 319 7
	.loc 1 320 7
	.loc 1 324 5
	.loc 1 326 5
	.loc 1 335 9
	.loc 1 336 9
	.loc 1 340 5
	.loc 1 340 14 is_stmt 0
	ldrb	r3, [r0, #50]	@ zero_extendqisi2
	.loc 1 340 7
	cbnz	r3, .L4
	.loc 1 343 7 is_stmt 1
	.loc 1 343 20 is_stmt 0
	strb	r3, [r0, #49]
.L4:
	.loc 1 350 5 is_stmt 1
	mov	r0, r4
.LVL2:
	bl	HAL_OPAMP_MspInit
.LVL3:
	.loc 1 354 5
	.loc 1 354 13 is_stmt 0
	ldr	r2, [r4]
	.loc 1 354 23
	ldr	r3, [r2]
	.loc 1 354 30
	bic	r3, r3, #2048
	str	r3, [r2]
	.loc 1 356 5 is_stmt 1
	.loc 1 356 21 is_stmt 0
	ldr	r3, [r4, #8]
	.loc 1 356 8
	cmp	r3, #64
	beq	.L18
.L5:
	.loc 1 367 5 is_stmt 1
	.loc 1 367 21 is_stmt 0
	ldr	r3, [r4, #8]
	.loc 1 367 8
	cmp	r3, #96
	beq	.L19
.L6:
	.loc 1 377 5 is_stmt 1
	.loc 1 377 21 is_stmt 0
	ldr	r3, [r4, #8]
	.loc 1 377 8
	cbnz	r3, .L7
	.loc 1 379 7 is_stmt 1
	.loc 1 379 48 is_stmt 0
	ldr	r1, [r4]
	.loc 1 379 58
	ldr	r0, [r1]
	.loc 1 379 67
	ldr	r2, .L21
	ands	r2, r2, r0
	.loc 1 379 181
	ldr	r0, [r4, #4]
	.loc 1 379 192
	orrs	r3, r3, r0
	.loc 1 379 226
	ldr	r0, [r4, #12]
	.loc 1 379 212
	orrs	r3, r3, r0
	.loc 1 379 256
	ldr	r0, [r4, #16]
	.loc 1 379 242
	orrs	r3, r3, r0
	.loc 1 379 289
	ldr	r0, [r4, #28]
	.loc 1 379 275
	orrs	r3, r3, r0
	.loc 1 379 166
	orrs	r2, r2, r3
	.loc 1 379 34
	str	r2, [r1]
.L7:
	.loc 1 387 5 is_stmt 1
	.loc 1 387 21 is_stmt 0
	ldr	r3, [r4, #28]
	.loc 1 387 8
	cmp	r3, #262144
	beq	.L20
.L8:
	.loc 1 412 5 is_stmt 1
	.loc 1 412 15 is_stmt 0
	ldrb	r3, [r4, #50]	@ zero_extendqisi2
	.loc 1 412 8
	cbnz	r3, .L10
	.loc 1 415 7 is_stmt 1
	.loc 1 415 21 is_stmt 0
	movs	r3, #1
	strb	r3, [r4, #50]
.L10:
	.loc 1 418 5 is_stmt 1
	.loc 1 418 12 is_stmt 0
	movs	r0, #0
.L3:
	.loc 1 420 1
	pop	{r4, pc}
.LVL4:
.L18:
	.loc 1 358 7 is_stmt 1
	.loc 1 358 48 is_stmt 0
	ldr	r1, [r4]
	.loc 1 358 58
	ldr	r0, [r1]
	.loc 1 358 67
	ldr	r2, .L21+4
	ands	r2, r2, r0
	.loc 1 358 201
	ldr	r0, [r4, #4]
	.loc 1 358 212
	orrs	r3, r3, r0
	.loc 1 358 246
	ldr	r0, [r4, #20]
	.loc 1 358 232
	orrs	r3, r3, r0
	.loc 1 358 269
	ldr	r0, [r4, #24]
	.loc 1 358 255
	orrs	r3, r3, r0
	.loc 1 358 295
	ldr	r0, [r4, #16]
	.loc 1 358 281
	orrs	r3, r3, r0
	.loc 1 358 328
	ldr	r0, [r4, #28]
	.loc 1 358 314
	orrs	r3, r3, r0
	.loc 1 358 186
	orrs	r2, r2, r3
	.loc 1 358 34
	str	r2, [r1]
	b	.L5
.L19:
	.loc 1 370 5 is_stmt 1
	.loc 1 370 46 is_stmt 0
	ldr	r1, [r4]
	.loc 1 370 56
	ldr	r0, [r1]
	.loc 1 370 65
	ldr	r2, .L21
	ands	r2, r2, r0
	.loc 1 370 160
	ldr	r0, [r4, #4]
	.loc 1 370 171
	orrs	r3, r3, r0
	.loc 1 370 205
	ldr	r0, [r4, #16]
	.loc 1 370 191
	orrs	r3, r3, r0
	.loc 1 370 238
	ldr	r0, [r4, #28]
	.loc 1 370 224
	orrs	r3, r3, r0
	.loc 1 370 145
	orrs	r2, r2, r3
	.loc 1 370 32
	str	r2, [r1]
	b	.L6
.L20:
	.loc 1 390 7 is_stmt 1
	.loc 1 390 23 is_stmt 0
	ldr	r3, [r4, #4]
	.loc 1 390 10
	cmp	r3, #256
	beq	.L9
	.loc 1 396 9 is_stmt 1
	.loc 1 396 41 is_stmt 0
	ldr	r2, [r4, #32]
	.loc 1 397 41
	ldr	r3, [r4, #36]
	.loc 1 396 24
	orr	r2, r3, r2, lsl #8
.LVL5:
	.loc 1 398 9 is_stmt 1
	.loc 1 398 50 is_stmt 0
	ldr	r1, [r4]
	.loc 1 398 60
	ldr	r0, [r1, #4]
	.loc 1 398 69
	ldr	r3, .L21+8
	ands	r3, r3, r0
	.loc 1 398 113
	orrs	r3, r3, r2
	.loc 1 398 36
	str	r3, [r1, #4]
	b	.L8
.LVL6:
.L9:
	.loc 1 405 9 is_stmt 1
	.loc 1 405 41 is_stmt 0
	ldr	r2, [r4, #40]
	.loc 1 406 41
	ldr	r3, [r4, #44]
	.loc 1 405 24
	orr	r2, r3, r2, lsl #8
.LVL7:
	.loc 1 407 9 is_stmt 1
	.loc 1 407 52 is_stmt 0
	ldr	r1, [r4]
	.loc 1 407 62
	ldr	r0, [r1, #8]
	.loc 1 407 73
	ldr	r3, .L21+8
	ands	r3, r3, r0
	.loc 1 407 117
	orrs	r3, r3, r2
	.loc 1 407 38
	str	r3, [r1, #8]
	b	.L8
.LVL8:
.L11:
	.cfi_def_cfa_offset 0
	.cfi_restore 4
	.cfi_restore 14
	.loc 1 283 12
	movs	r0, #1
.LVL9:
	.loc 1 420 1
	bx	lr
.LVL10:
.L12:
	.cfi_def_cfa_offset 8
	.cfi_offset 4, -8
	.cfi_offset 14, -4
	.loc 1 287 12
	movs	r0, #1
.LVL11:
	b	.L3
.LVL12:
.L13:
	.loc 1 291 12
	movs	r0, #1
.LVL13:
	b	.L3
.L22:
	.align	2
.L21:
	.word	-262509
	.word	-508269
	.word	-7968
	.cfi_endproc
.LFE335:
	.size	HAL_OPAMP_Init, .-HAL_OPAMP_Init
	.section	.text.HAL_OPAMP_MspDeInit,"ax",%progbits
	.align	1
	.weak	HAL_OPAMP_MspDeInit
	.syntax unified
	.thumb
	.thumb_func
	.type	HAL_OPAMP_MspDeInit, %function
HAL_OPAMP_MspDeInit:
.LFB338:
	.loc 1 495 1 is_stmt 1
	.cfi_startproc
	@ args = 0, pretend = 0, frame = 0
	@ frame_needed = 0, uses_anonymous_args = 0
	@ link register save eliminated.
.LVL14:
	.loc 1 497 3
	.loc 1 501 1 is_stmt 0
	bx	lr
	.cfi_endproc
.LFE338:
	.size	HAL_OPAMP_MspDeInit, .-HAL_OPAMP_MspDeInit
	.section	.text.HAL_OPAMP_DeInit,"ax",%progbits
	.align	1
	.global	HAL_OPAMP_DeInit
	.syntax unified
	.thumb
	.thumb_func
	.type	HAL_OPAMP_DeInit, %function
HAL_OPAMP_DeInit:
.LFB336:
	.loc 1 430 1 is_stmt 1
	.cfi_startproc
	@ args = 0, pretend = 0, frame = 0
	@ frame_needed = 0, uses_anonymous_args = 0
.LVL15:
	.loc 1 431 3
	.loc 1 435 3
	.loc 1 435 5 is_stmt 0
	cbz	r0, .L26
	.loc 1 430 1
	push	{r3, r4, r5, lr}
	.cfi_def_cfa_offset 16
	.cfi_offset 3, -16
	.cfi_offset 4, -12
	.cfi_offset 5, -8
	.cfi_offset 14, -4
	mov	r5, r0
	.loc 1 439 8 is_stmt 1
	.loc 1 439 17 is_stmt 0
	ldrb	r3, [r0, #50]	@ zero_extendqisi2
	uxtb	r3, r3
	.loc 1 439 10
	cmp	r3, #2
	bne	.L32
	.loc 1 441 12
	movs	r0, #1
.LVL16:
.L25:
	.loc 1 466 7 is_stmt 1 discriminator 1
	.loc 1 470 3 discriminator 1
	.loc 1 471 1 is_stmt 0 discriminator 1
	pop	{r3, r4, r5, pc}
.LVL17:
.L32:
	.loc 1 446 5 is_stmt 1
	.loc 1 449 5
	.loc 1 449 13 is_stmt 0
	ldr	r3, [r0]
	.loc 1 449 30
	movs	r4, #0
	str	r4, [r3]
	.loc 1 460 5 is_stmt 1
	bl	HAL_OPAMP_MspDeInit
.LVL18:
	.loc 1 464 5
	.loc 1 464 19 is_stmt 0
	strb	r4, [r5, #50]
	.loc 1 466 5 is_stmt 1
	.loc 1 466 9
	.loc 1 466 24 is_stmt 0
	strb	r4, [r5, #49]
	.loc 1 431 21
	mov	r0, r4
	b	.L25
.LVL19:
.L26:
	.cfi_def_cfa_offset 0
	.cfi_restore 3
	.cfi_restore 4
	.cfi_restore 5
	.cfi_restore 14
	.loc 1 437 12
	movs	r0, #1
.LVL20:
	.loc 1 466 7 is_stmt 1
	.loc 1 470 3
	.loc 1 471 1 is_stmt 0
	bx	lr
	.cfi_endproc
.LFE336:
	.size	HAL_OPAMP_DeInit, .-HAL_OPAMP_DeInit
	.section	.text.HAL_OPAMP_Start,"ax",%progbits
	.align	1
	.global	HAL_OPAMP_Start
	.syntax unified
	.thumb
	.thumb_func
	.type	HAL_OPAMP_Start, %function
HAL_OPAMP_Start:
.LFB339:
	.loc 1 529 1 is_stmt 1
	.cfi_startproc
	@ args = 0, pretend = 0, frame = 0
	@ frame_needed = 0, uses_anonymous_args = 0
	@ link register save eliminated.
.LVL21:
	.loc 1 530 3
	.loc 1 534 3
	.loc 1 534 5 is_stmt 0
	cbz	r0, .L35
	.loc 1 538 8 is_stmt 1
	.loc 1 538 17 is_stmt 0
	ldrb	r3, [r0, #50]	@ zero_extendqisi2
	uxtb	r3, r3
	.loc 1 538 10
	cmp	r3, #5
	beq	.L36
	.loc 1 545 5 is_stmt 1
	.loc 1 547 5
	.loc 1 547 14 is_stmt 0
	ldrb	r3, [r0, #50]	@ zero_extendqisi2
	uxtb	r3, r3
	.loc 1 547 7
	cmp	r3, #1
	beq	.L38
	.loc 1 558 14
	movs	r0, #1
.LVL22:
	.loc 1 562 3 is_stmt 1
	.loc 1 563 1 is_stmt 0
	bx	lr
.LVL23:
.L38:
	.loc 1 550 7 is_stmt 1
	.loc 1 550 15 is_stmt 0
	ldr	r1, [r0]
	.loc 1 550 25
	ldr	r3, [r1]
	.loc 1 550 32
	orr	r3, r3, #1
	str	r3, [r1]
	.loc 1 554 7 is_stmt 1
	.loc 1 554 21 is_stmt 0
	movs	r3, #4
	strb	r3, [r0, #50]
	.loc 1 530 21
	movs	r0, #0
.LVL24:
	bx	lr
.LVL25:
.L35:
	.loc 1 536 12
	movs	r0, #1
.LVL26:
	bx	lr
.LVL27:
.L36:
	.loc 1 540 12
	movs	r0, #1
.LVL28:
	bx	lr
	.cfi_endproc
.LFE339:
	.size	HAL_OPAMP_Start, .-HAL_OPAMP_Start
	.section	.text.HAL_OPAMP_Stop,"ax",%progbits
	.align	1
	.global	HAL_OPAMP_Stop
	.syntax unified
	.thumb
	.thumb_func
	.type	HAL_OPAMP_Stop, %function
HAL_OPAMP_Stop:
.LFB340:
	.loc 1 571 1 is_stmt 1
	.cfi_startproc
	@ args = 0, pretend = 0, frame = 0
	@ frame_needed = 0, uses_anonymous_args = 0
	@ link register save eliminated.
.LVL29:
	.loc 1 572 3
	.loc 1 577 3
	.loc 1 577 5 is_stmt 0
	cbz	r0, .L41
	.loc 1 581 8 is_stmt 1
	.loc 1 581 17 is_stmt 0
	ldrb	r3, [r0, #50]	@ zero_extendqisi2
	uxtb	r3, r3
	.loc 1 581 10
	cmp	r3, #5
	beq	.L42
	.loc 1 585 8 is_stmt 1
	.loc 1 585 17 is_stmt 0
	ldrb	r3, [r0, #50]	@ zero_extendqisi2
	uxtb	r3, r3
	.loc 1 585 10
	cmp	r3, #2
	beq	.L43
	.loc 1 592 5 is_stmt 1
	.loc 1 594 5
	.loc 1 594 14 is_stmt 0
	ldrb	r3, [r0, #50]	@ zero_extendqisi2
	uxtb	r3, r3
	.loc 1 594 7
	cmp	r3, #4
	beq	.L45
	.loc 1 605 14
	movs	r0, #1
.LVL30:
	.loc 1 608 3 is_stmt 1
	.loc 1 609 1 is_stmt 0
	bx	lr
.LVL31:
.L45:
	.loc 1 597 7 is_stmt 1
	.loc 1 597 15 is_stmt 0
	ldr	r1, [r0]
	.loc 1 597 25
	ldr	r3, [r1]
	.loc 1 597 32
	bic	r3, r3, #1
	str	r3, [r1]
	.loc 1 601 7 is_stmt 1
	.loc 1 601 21 is_stmt 0
	movs	r3, #1
	strb	r3, [r0, #50]
	.loc 1 572 21
	movs	r0, #0
.LVL32:
	bx	lr
.LVL33:
.L41:
	.loc 1 579 12
	movs	r0, #1
.LVL34:
	bx	lr
.LVL35:
.L42:
	.loc 1 583 12
	movs	r0, #1
.LVL36:
	bx	lr
.LVL37:
.L43:
	.loc 1 587 12
	movs	r0, #1
.LVL38:
	bx	lr
	.cfi_endproc
.LFE340:
	.size	HAL_OPAMP_Stop, .-HAL_OPAMP_Stop
	.section	.text.HAL_OPAMP_SelfCalibrate,"ax",%progbits
	.align	1
	.global	HAL_OPAMP_SelfCalibrate
	.syntax unified
	.thumb
	.thumb_func
	.type	HAL_OPAMP_SelfCalibrate, %function
HAL_OPAMP_SelfCalibrate:
.LFB341:
	.loc 1 622 1 is_stmt 1
	.cfi_startproc
	@ args = 0, pretend = 0, frame = 0
	@ frame_needed = 0, uses_anonymous_args = 0
.LVL39:
	.loc 1 624 3
	.loc 1 626 3
	.loc 1 627 3
	.loc 1 628 3
	.loc 1 629 3
	.loc 1 631 3
	.loc 1 635 3
	.loc 1 635 5 is_stmt 0
	cmp	r0, #0
	beq	.L62
	.loc 1 622 1
	push	{r3, r4, r5, r6, r7, r8, r9, lr}
	.cfi_def_cfa_offset 32
	.cfi_offset 3, -32
	.cfi_offset 4, -28
	.cfi_offset 5, -24
	.cfi_offset 6, -20
	.cfi_offset 7, -16
	.cfi_offset 8, -12
	.cfi_offset 9, -8
	.cfi_offset 14, -4
	mov	r4, r0
	.loc 1 639 8 is_stmt 1
	.loc 1 639 17 is_stmt 0
	ldrb	r3, [r0, #50]	@ zero_extendqisi2
	uxtb	r3, r3
	.loc 1 639 10
	cmp	r3, #5
	beq	.L63
	.loc 1 647 5 is_stmt 1
	.loc 1 647 14 is_stmt 0
	ldrb	r3, [r0, #50]	@ zero_extendqisi2
	uxtb	r3, r3
	.loc 1 647 7
	cmp	r3, #1
	beq	.L69
	.loc 1 821 14
	movs	r0, #1
.LVL40:
.L47:
	.loc 1 824 3 is_stmt 1
	.loc 1 825 1 is_stmt 0
	pop	{r3, r4, r5, r6, r7, r8, r9, pc}
.LVL41:
.L69:
	.loc 1 650 7 is_stmt 1
	.loc 1 651 7
	.loc 1 653 7
	.loc 1 653 27 is_stmt 0
	ldr	r3, [r0]
	.loc 1 653 37
	ldr	r2, [r3]
	.loc 1 653 17
	and	r9, r2, #96
.LVL42:
	.loc 1 656 7 is_stmt 1
	.loc 1 656 58 is_stmt 0
	ldr	r2, [r3]
	.loc 1 656 91
	bic	r2, r2, #96
	.loc 1 656 34
	str	r2, [r3]
	.loc 1 658 7 is_stmt 1
	.loc 1 658 15 is_stmt 0
	ldr	r2, [r0]
	.loc 1 658 25
	ldr	r3, [r2]
	.loc 1 658 32
	orr	r3, r3, #262144
	str	r3, [r2]
	.loc 1 661 7 is_stmt 1
	.loc 1 661 23 is_stmt 0
	ldr	r3, [r0, #4]
	.loc 1 661 10
	cbnz	r3, .L48
	.loc 1 663 9 is_stmt 1
	.loc 1 663 41 is_stmt 0
	ldr	r5, [r0]
	.loc 1 663 32
	adds	r5, r5, #4
.LVL43:
.L49:
	.loc 1 674 7 is_stmt 1
	.loc 1 674 15 is_stmt 0
	ldr	r2, [r4]
	.loc 1 674 25
	ldr	r3, [r2]
	.loc 1 674 32
	orr	r3, r3, #2048
	str	r3, [r2]
	.loc 1 677 7 is_stmt 1
	.loc 1 677 15 is_stmt 0
	ldr	r2, [r4]
	.loc 1 677 25
	ldr	r3, [r2]
	.loc 1 677 32
	orr	r3, r3, #2
	str	r3, [r2]
	.loc 1 680 7 is_stmt 1
	.loc 1 680 48 is_stmt 0
	ldr	r2, [r4]
	.loc 1 680 58
	ldr	r3, [r2]
	.loc 1 680 92
	orr	r3, r3, #12288
	.loc 1 680 34
	str	r3, [r2]
	.loc 1 683 7 is_stmt 1
	.loc 1 683 15 is_stmt 0
	ldr	r2, [r4]
	.loc 1 683 25
	ldr	r3, [r2]
	.loc 1 683 32
	orr	r3, r3, #1
	str	r3, [r2]
	.loc 1 687 7 is_stmt 1
.LVL44:
	.loc 1 688 7
	.loc 1 690 7
	.loc 1 688 13 is_stmt 0
	movs	r6, #8
	.loc 1 687 22
	mov	r8, #16
	.loc 1 690 13
	b	.L50
.LVL45:
.L48:
	.loc 1 669 9 is_stmt 1
	.loc 1 669 41 is_stmt 0
	ldr	r5, [r0]
	.loc 1 669 32
	adds	r5, r5, #8
.LVL46:
	b	.L49
.LVL47:
.L51:
	.loc 1 709 11 is_stmt 1
	.loc 1 709 26 is_stmt 0
	sub	r8, r8, r6
.LVL48:
.L52:
	.loc 1 712 9 is_stmt 1
	.loc 1 712 15 is_stmt 0
	lsrs	r6, r6, #1
.LVL49:
.L50:
	.loc 1 690 20 is_stmt 1
	cbz	r6, .L70
	.loc 1 694 9
	.loc 1 694 46 is_stmt 0
	ldr	r3, [r5]
	.loc 1 694 73
	bic	r3, r3, #31
	.loc 1 694 98
	orr	r3, r3, r8
	.loc 1 694 38
	str	r3, [r5]
	.loc 1 699 9 is_stmt 1
	movs	r0, #2
	bl	HAL_Delay
.LVL50:
	.loc 1 701 9
	.loc 1 701 21 is_stmt 0
	ldr	r3, [r4]
	.loc 1 701 31
	ldr	r3, [r3]
	.loc 1 701 12
	tst	r3, #1073741824
	beq	.L51
	.loc 1 704 11 is_stmt 1
	.loc 1 704 26 is_stmt 0
	add	r8, r8, r6
.LVL51:
	b	.L52
.L70:
	.loc 1 718 7 is_stmt 1
	.loc 1 718 44 is_stmt 0
	ldr	r3, [r5]
	.loc 1 718 71
	bic	r3, r3, #31
	.loc 1 718 96
	orr	r3, r3, r8
	.loc 1 718 36
	str	r3, [r5]
	.loc 1 723 7 is_stmt 1
	movs	r0, #2
	bl	HAL_Delay
.LVL52:
	.loc 1 725 7
	.loc 1 725 20 is_stmt 0
	ldr	r3, [r4]
	.loc 1 725 30
	ldr	r3, [r3]
	.loc 1 725 10
	tst	r3, #1073741824
	beq	.L54
	.loc 1 728 9 is_stmt 1
	.loc 1 728 23 is_stmt 0
	add	r8, r8, #1
.LVL53:
	.loc 1 730 9 is_stmt 1
	.loc 1 730 46 is_stmt 0
	ldr	r3, [r5]
	.loc 1 730 73
	bic	r3, r3, #31
	.loc 1 730 98
	orr	r3, r3, r8
	.loc 1 730 38
	str	r3, [r5]
.L54:
	.loc 1 734 7 is_stmt 1
	.loc 1 734 48 is_stmt 0
	ldr	r2, [r4]
	.loc 1 734 58
	ldr	r3, [r2]
	.loc 1 734 67
	bic	r3, r3, #12288
	.loc 1 734 92
	orr	r3, r3, #4096
	.loc 1 734 34
	str	r3, [r2]
	.loc 1 738 7 is_stmt 1
.LVL54:
	.loc 1 739 7
	.loc 1 741 7
	.loc 1 739 13 is_stmt 0
	movs	r6, #8
	.loc 1 738 22
	movs	r7, #16
	.loc 1 741 13
	b	.L55
.LVL55:
.L56:
	.loc 1 760 11 is_stmt 1
	.loc 1 760 26 is_stmt 0
	subs	r7, r7, r6
.LVL56:
.L57:
	.loc 1 764 9 is_stmt 1
	.loc 1 764 15 is_stmt 0
	lsrs	r6, r6, #1
.LVL57:
.L55:
	.loc 1 741 20 is_stmt 1
	cbz	r6, .L71
	.loc 1 745 9
	.loc 1 745 46 is_stmt 0
	ldr	r3, [r5]
	.loc 1 745 73
	bic	r3, r3, #7936
	.loc 1 745 98
	orr	r3, r3, r7, lsl #8
	.loc 1 745 38
	str	r3, [r5]
	.loc 1 750 9 is_stmt 1
	movs	r0, #2
	bl	HAL_Delay
.LVL58:
	.loc 1 752 9
	.loc 1 752 21 is_stmt 0
	ldr	r3, [r4]
	.loc 1 752 31
	ldr	r3, [r3]
	.loc 1 752 12
	tst	r3, #1073741824
	beq	.L56
	.loc 1 755 11 is_stmt 1
	.loc 1 755 26 is_stmt 0
	add	r7, r7, r6
.LVL59:
	b	.L57
.L71:
	.loc 1 770 7 is_stmt 1
	.loc 1 770 44 is_stmt 0
	ldr	r3, [r5]
	.loc 1 770 71
	bic	r3, r3, #7936
	.loc 1 770 96
	orr	r3, r3, r7, lsl #8
	.loc 1 770 36
	str	r3, [r5]
	.loc 1 775 7 is_stmt 1
	movs	r0, #2
	bl	HAL_Delay
.LVL60:
	.loc 1 777 7
	.loc 1 777 19 is_stmt 0
	ldr	r3, [r4]
	.loc 1 777 29
	ldr	r3, [r3]
	.loc 1 777 10
	tst	r3, #1073741824
	beq	.L59
	.loc 1 780 9 is_stmt 1
	.loc 1 780 23 is_stmt 0
	adds	r7, r7, #1
.LVL61:
	.loc 1 781 9 is_stmt 1
	.loc 1 781 46 is_stmt 0
	ldr	r3, [r5]
	.loc 1 781 73
	bic	r3, r3, #7936
	.loc 1 781 98
	orr	r3, r3, r7, lsl #8
	.loc 1 781 38
	str	r3, [r5]
.L59:
	.loc 1 785 7 is_stmt 1
	.loc 1 785 15 is_stmt 0
	ldr	r2, [r4]
	.loc 1 785 25
	ldr	r3, [r2]
	.loc 1 785 32
	bic	r3, r3, #2048
	str	r3, [r2]
	.loc 1 788 7 is_stmt 1
	.loc 1 788 15 is_stmt 0
	ldr	r2, [r4]
	.loc 1 788 25
	ldr	r3, [r2]
	.loc 1 788 32
	bic	r3, r3, #1
	str	r3, [r2]
	.loc 1 791 7 is_stmt 1
	.loc 1 791 15 is_stmt 0
	ldr	r2, [r4]
	.loc 1 791 25
	ldr	r3, [r2]
	.loc 1 791 32
	bic	r3, r3, #2
	str	r3, [r2]
	.loc 1 797 7 is_stmt 1
	.loc 1 797 33 is_stmt 0
	mov	r3, #262144
	str	r3, [r4, #28]
	.loc 1 800 7 is_stmt 1
	.loc 1 800 23 is_stmt 0
	ldr	r3, [r4, #4]
	.loc 1 800 10
	cmp	r3, #256
	beq	.L60
	.loc 1 803 9 is_stmt 1
	.loc 1 803 37 is_stmt 0
	str	r8, [r4, #36]
	.loc 1 805 9 is_stmt 1
	.loc 1 805 37 is_stmt 0
	str	r7, [r4, #32]
.L61:
	.loc 1 815 5 is_stmt 1
	.loc 1 815 46 is_stmt 0
	ldr	r2, [r4]
	.loc 1 815 56
	ldr	r3, [r2]
	.loc 1 815 65
	bic	r3, r3, #96
	.loc 1 815 89
	orr	r3, r3, r9
	.loc 1 815 32
	str	r3, [r2]
	.loc 1 624 21
	movs	r0, #0
	b	.L47
.L60:
	.loc 1 810 9 is_stmt 1
	.loc 1 810 46 is_stmt 0
	str	r8, [r4, #44]
	.loc 1 812 9 is_stmt 1
	.loc 1 812 46 is_stmt 0
	str	r7, [r4, #40]
	b	.L61
.LVL62:
.L62:
	.cfi_def_cfa_offset 0
	.cfi_restore 3
	.cfi_restore 4
	.cfi_restore 5
	.cfi_restore 6
	.cfi_restore 7
	.cfi_restore 8
	.cfi_restore 9
	.cfi_restore 14
	.loc 1 637 12
	movs	r0, #1
.LVL63:
	.loc 1 824 3 is_stmt 1
	.loc 1 825 1 is_stmt 0
	bx	lr
.LVL64:
.L63:
	.cfi_def_cfa_offset 32
	.cfi_offset 3, -32
	.cfi_offset 4, -28
	.cfi_offset 5, -24
	.cfi_offset 6, -20
	.cfi_offset 7, -16
	.cfi_offset 8, -12
	.cfi_offset 9, -8
	.cfi_offset 14, -4
	.loc 1 641 12
	movs	r0, #1
.LVL65:
	b	.L47
	.cfi_endproc
.LFE341:
	.size	HAL_OPAMP_SelfCalibrate, .-HAL_OPAMP_SelfCalibrate
	.section	.text.HAL_OPAMP_Lock,"ax",%progbits
	.align	1
	.global	HAL_OPAMP_Lock
	.syntax unified
	.thumb
	.thumb_func
	.type	HAL_OPAMP_Lock, %function
HAL_OPAMP_Lock:
.LFB342:
	.loc 1 857 1 is_stmt 1
	.cfi_startproc
	@ args = 0, pretend = 0, frame = 0
	@ frame_needed = 0, uses_anonymous_args = 0
	@ link register save eliminated.
.LVL66:
	.loc 1 858 3
	.loc 1 864 3
	.loc 1 864 5 is_stmt 0
	cbz	r0, .L74
	.loc 1 869 8 is_stmt 1
	.loc 1 869 17 is_stmt 0
	ldrb	r3, [r0, #50]	@ zero_extendqisi2
	uxtb	r3, r3
	.loc 1 869 10
	cmp	r3, #4
	beq	.L76
	.loc 1 871 12
	movs	r0, #1
.LVL67:
	.loc 1 881 3 is_stmt 1
	.loc 1 882 1 is_stmt 0
	bx	lr
.LVL68:
.L76:
	.loc 1 876 5 is_stmt 1
	.loc 1 879 5
	.loc 1 879 19 is_stmt 0
	movs	r3, #5
	strb	r3, [r0, #50]
	.loc 1 858 21
	movs	r0, #0
.LVL69:
	bx	lr
.LVL70:
.L74:
	.loc 1 866 12
	movs	r0, #1
.LVL71:
	bx	lr
	.cfi_endproc
.LFE342:
	.size	HAL_OPAMP_Lock, .-HAL_OPAMP_Lock
	.section	.text.HAL_OPAMP_GetTrimOffset,"ax",%progbits
	.align	1
	.global	HAL_OPAMP_GetTrimOffset
	.syntax unified
	.thumb
	.thumb_func
	.type	HAL_OPAMP_GetTrimOffset, %function
HAL_OPAMP_GetTrimOffset:
.LFB343:
	.loc 1 906 1 is_stmt 1
	.cfi_startproc
	@ args = 0, pretend = 0, frame = 0
	@ frame_needed = 0, uses_anonymous_args = 0
	@ link register save eliminated.
.LVL72:
	.loc 1 907 3
	.loc 1 908 3
	.loc 1 912 3
	.loc 1 912 5 is_stmt 0
	mov	r2, r0
	cbz	r0, .L82
	.loc 1 917 3 is_stmt 1
	.loc 1 917 12 is_stmt 0
	ldrb	r3, [r0, #50]	@ zero_extendqisi2
	uxtb	r3, r3
	.loc 1 917 5
	cmp	r3, #1
	bne	.L83
	.loc 1 920 5 is_stmt 1
	.loc 1 921 5
	.loc 1 922 5
	.loc 1 925 5
	.loc 1 925 17 is_stmt 0
	ldr	r3, [r0]
	.loc 1 925 27
	ldr	r0, [r3]
.LVL73:
	.loc 1 925 8
	tst	r0, #262144
	bne	.L84
	.loc 1 937 7 is_stmt 1
	.loc 1 937 23 is_stmt 0
	ldr	r2, [r2, #4]
.LVL74:
	.loc 1 937 10
	cbnz	r2, .L79
	.loc 1 939 9 is_stmt 1
	.loc 1 939 32 is_stmt 0
	adds	r3, r3, #4
.LVL75:
.L80:
	.loc 1 947 7 is_stmt 1
	.loc 1 947 10 is_stmt 0
	cmp	r1, #1
	beq	.L85
	.loc 1 955 9 is_stmt 1
	.loc 1 955 26 is_stmt 0
	ldr	r0, [r3]
	.loc 1 955 23
	and	r0, r0, #31
.LVL76:
	bx	lr
.LVL77:
.L79:
	.loc 1 943 9 is_stmt 1
	.loc 1 943 32 is_stmt 0
	adds	r3, r3, #8
.LVL78:
	b	.L80
.L85:
	.loc 1 950 9 is_stmt 1
	.loc 1 950 27 is_stmt 0
	ldr	r0, [r3]
	.loc 1 950 23
	ubfx	r0, r0, #8, #5
.LVL79:
	bx	lr
.LVL80:
.L82:
	.loc 1 914 12
	mov	r0, #-1
.LVL81:
	bx	lr
.LVL82:
.L83:
	.loc 1 961 12
	mov	r0, #-1
.LVL83:
	bx	lr
.L84:
	.loc 1 932 21
	mov	r0, #-1
	.loc 1 965 1
	bx	lr
	.cfi_endproc
.LFE343:
	.size	HAL_OPAMP_GetTrimOffset, .-HAL_OPAMP_GetTrimOffset
	.section	.text.HAL_OPAMP_GetState,"ax",%progbits
	.align	1
	.global	HAL_OPAMP_GetState
	.syntax unified
	.thumb
	.thumb_func
	.type	HAL_OPAMP_GetState, %function
HAL_OPAMP_GetState:
.LFB344:
	.loc 1 1126 1 is_stmt 1
	.cfi_startproc
	@ args = 0, pretend = 0, frame = 0
	@ frame_needed = 0, uses_anonymous_args = 0
	@ link register save eliminated.
.LVL84:
	.loc 1 1128 3
	.loc 1 1128 5 is_stmt 0
	cbz	r0, .L88
	.loc 1 1134 3 is_stmt 1
	.loc 1 1137 3
	.loc 1 1137 16 is_stmt 0
	ldrb	r0, [r0, #50]	@ zero_extendqisi2
.LVL85:
	uxtb	r0, r0
	bx	lr
.LVL86:
.L88:
	.loc 1 1130 12
	movs	r0, #0
.LVL87:
	.loc 1 1138 1
	bx	lr
	.cfi_endproc
.LFE344:
	.size	HAL_OPAMP_GetState, .-HAL_OPAMP_GetState
	.text
.Letext0:
	.file 2 "m:\\noinstall\\arm-gnu-toolchain-12.2.rel1-mingw-w64-i686-arm-none-eabi\\arm-none-eabi\\include\\machine\\_default_types.h"
	.file 3 "m:\\noinstall\\arm-gnu-toolchain-12.2.rel1-mingw-w64-i686-arm-none-eabi\\arm-none-eabi\\include\\sys\\_stdint.h"
	.file 4 "D:/RTOS/Board/YD-STM32H7xxVx_ClassicV19/cmake-build-debug/_deps/stm32h7xx_cmsis_device-src/Include/stm32h743xx.h"
	.file 5 "D:/RTOS/Board/YD-STM32H7xxVx_ClassicV19/cmake-build-debug/_deps/stm32h7xx_hal_driver-src/Inc/stm32h7xx_hal_def.h"
	.file 6 "D:/RTOS/Board/YD-STM32H7xxVx_ClassicV19/cmake-build-debug/_deps/stm32h7xx_hal_driver-src/Inc/stm32h7xx_hal_opamp.h"
	.file 7 "D:/RTOS/Board/YD-STM32H7xxVx_ClassicV19/cmake-build-debug/_deps/stm32h7xx_hal_driver-src/Inc/stm32h7xx_hal.h"