	.cpu cortex-m7
	.arch armv7e-m
	.fpu fpv5-d16
	.eabi_attribute 28, 1
	.eabi_attribute 20, 1
	.eabi_attribute 21, 1
	.eabi_attribute 23, 3
	.eabi_attribute 24, 1
	.eabi_attribute 25, 1
	.eabi_attribute 26, 1
	.eabi_attribute 30, 1
	.eabi_attribute 34, 1
	.eabi_attribute 18, 4
	.file	"stm32h7xx_hal_mdios.c"
	.text
.Ltext0:
	.cfi_sections	.debug_frame
	.file 1 "D:/RTOS/Board/YD-STM32H7xxVx_ClassicV19/cmake-build-debug/_deps/stm32h7xx_hal_driver-src/Src/stm32h7xx_hal_mdios.c"
	.section	.text.HAL_MDIOS_MspInit,"ax",%progbits
	.align	1
	.weak	HAL_MDIOS_MspInit
	.syntax unified
	.thumb
	.thumb_func
	.type	HAL_MDIOS_MspInit, %function
HAL_MDIOS_MspInit:
.LFB337:
	.loc 1 322 1
	.cfi_startproc
	@ args = 0, pretend = 0, frame = 0
	@ frame_needed = 0, uses_anonymous_args = 0
	@ link register save eliminated.
.LVL0:
	.loc 1 324 3
	.loc 1 329 1 is_stmt 0
	bx	lr
	.cfi_endproc
.LFE337:
	.size	HAL_MDIOS_MspInit, .-HAL_MDIOS_MspInit
	.section	.text.HAL_MDIOS_Init,"ax",%progbits
	.align	1
	.global	HAL_MDIOS_Init
	.syntax unified
	.thumb
	.thumb_func
	.type	HAL_MDIOS_Init, %function
HAL_MDIOS_Init:
.LFB335:
	.loc 1 200 1 is_stmt 1
	.cfi_startproc
	@ args = 0, pretend = 0, frame = 0
	@ frame_needed = 0, uses_anonymous_args = 0
.LVL1:
	.loc 1 201 3
	.loc 1 204 3
	.loc 1 204 5 is_stmt 0
	cbz	r0, .L5
	.loc 1 200 1
	push	{r4, lr}
	.cfi_def_cfa_offset 8
	.cfi_offset 4, -8
	.cfi_offset 14, -4
	mov	r4, r0
	.loc 1 210 3 is_stmt 1
	.loc 1 211 3
	.loc 1 212 3
	.loc 1 231 3
	.loc 1 231 12 is_stmt 0
	ldrb	r3, [r0, #12]	@ zero_extendqisi2
	.loc 1 231 5
	cbz	r3, .L10
.LVL2:
.L4:
	.loc 1 240 3 is_stmt 1
	.loc 1 240 17 is_stmt 0
	movs	r3, #2
	strb	r3, [r4, #12]
	.loc 1 243 3 is_stmt 1
	.loc 1 243 17 is_stmt 0
	ldr	r1, [r4]
	.loc 1 243 9
	ldr	r3, [r1]
.LVL3:
	.loc 1 246 3 is_stmt 1
	.loc 1 246 9 is_stmt 0
	ldr	r2, .L11
	ands	r2, r2, r3
.LVL4:
	.loc 1 249 3 is_stmt 1
	.loc 1 249 37 is_stmt 0
	ldr	r0, [r4, #4]
	.loc 1 250 38
	ldr	r3, [r4, #8]
	.loc 1 249 69
	orr	r3, r3, r0, lsl #8
	.loc 1 249 9
	orrs	r3, r3, r2
	orr	r3, r3, #1
.LVL5:
	.loc 1 254 3 is_stmt 1
	.loc 1 254 24 is_stmt 0
	str	r3, [r1]
	.loc 1 256 3 is_stmt 1
	.loc 1 256 21 is_stmt 0
	movs	r0, #0
	str	r0, [r4, #16]
	.loc 1 259 3 is_stmt 1
	.loc 1 259 17 is_stmt 0
	movs	r3, #1
.LVL6:
	strb	r3, [r4, #12]
	.loc 1 262 3 is_stmt 1
	.loc 1 262 7
	.loc 1 262 22 is_stmt 0
	strb	r0, [r4, #20]
	.loc 1 262 5 is_stmt 1
	.loc 1 265 3
	.loc 1 267 1 is_stmt 0
	pop	{r4, pc}
.LVL7:
.L10:
	.loc 1 234 5 is_stmt 1
	bl	HAL_MDIOS_MspInit
.LVL8:
	b	.L4
.LVL9:
.L5:
	.cfi_def_cfa_offset 0
	.cfi_restore 4
	.cfi_restore 14
	.loc 1 206 12 is_stmt 0
	movs	r0, #1
.LVL10:
	.loc 1 267 1
	bx	lr
.L12:
	.align	2
.L11:
	.word	-8066
	.cfi_endproc
.LFE335:
	.size	HAL_MDIOS_Init, .-HAL_MDIOS_Init
	.section	.text.HAL_MDIOS_MspDeInit,"ax",%progbits
	.align	1
	.weak	HAL_MDIOS_MspDeInit
	.syntax unified
	.thumb
	.thumb_func
	.type	HAL_MDIOS_MspDeInit, %function
HAL_MDIOS_MspDeInit:
.LFB338:
	.loc 1 337 1 is_stmt 1
	.cfi_startproc
	@ args = 0, pretend = 0, frame = 0
	@ frame_needed = 0, uses_anonymous_args = 0
	@ link register save eliminated.
.LVL11:
	.loc 1 339 3
	.loc 1 344 1 is_stmt 0
	bx	lr
	.cfi_endproc
.LFE338:
	.size	HAL_MDIOS_MspDeInit, .-HAL_MDIOS_MspDeInit
	.section	.text.HAL_MDIOS_DeInit,"ax",%progbits
	.align	1
	.global	HAL_MDIOS_DeInit
	.syntax unified
	.thumb
	.thumb_func
	.type	HAL_MDIOS_DeInit, %function
HAL_MDIOS_DeInit:
.LFB336:
	.loc 1 275 1 is_stmt 1
	.cfi_startproc
	@ args = 0, pretend = 0, frame = 0
	@ frame_needed = 0, uses_anonymous_args = 0
.LVL12:
	.loc 1 277 3
	.loc 1 277 5 is_stmt 0
	cbz	r0, .L16
	.loc 1 275 1
	push	{r4, lr}
	.cfi_def_cfa_offset 8
	.cfi_offset 4, -8
	.cfi_offset 14, -4
	mov	r4, r0
	.loc 1 283 3 is_stmt 1
	.loc 1 286 3
	.loc 1 286 17 is_stmt 0
	movs	r3, #2
	strb	r3, [r0, #12]
	.loc 1 289 3 is_stmt 1
	.loc 1 289 12 is_stmt 0
	ldr	r2, [r0]
	.loc 1 289 22
	ldr	r3, [r2]
	.loc 1 289 27
	bic	r3, r3, #1
	str	r3, [r2]
	.loc 1 302 3 is_stmt 1
	bl	HAL_MDIOS_MspDeInit
.LVL13:
	.loc 1 307 3
	.loc 1 307 17 is_stmt 0
	movs	r0, #0
	strb	r0, [r4, #12]
	.loc 1 310 3 is_stmt 1
	.loc 1 310 7
	.loc 1 310 22 is_stmt 0
	strb	r0, [r4, #20]
	.loc 1 310 5 is_stmt 1
	.loc 1 313 3
	.loc 1 314 1 is_stmt 0
	pop	{r4, pc}
.LVL14:
.L16:
	.cfi_def_cfa_offset 0
	.cfi_restore 4
	.cfi_restore 14
	.loc 1 279 12
	movs	r0, #1
.LVL15:
	.loc 1 314 1
	bx	lr
	.cfi_endproc
.LFE336:
	.size	HAL_MDIOS_DeInit, .-HAL_MDIOS_DeInit
	.section	.text.HAL_MDIOS_WriteReg,"ax",%progbits
	.align	1
	.global	HAL_MDIOS_WriteReg
	.syntax unified
	.thumb
	.thumb_func
	.type	HAL_MDIOS_WriteReg, %function
HAL_MDIOS_WriteReg:
.LFB339:
	.loc 1 583 1 is_stmt 1
	.cfi_startproc
	@ args = 0, pretend = 0, frame = 0
	@ frame_needed = 0, uses_anonymous_args = 0
	@ link register save eliminated.
.LVL16:
	.loc 1 584 3
	.loc 1 587 3
	.loc 1 590 3
	.loc 1 590 7
	.loc 1 590 18 is_stmt 0
	ldrb	r3, [r0, #20]	@ zero_extendqisi2
	.loc 1 590 9
	cmp	r3, #1
	beq	.L23
	.loc 1 590 68 is_stmt 1 discriminator 2
	.loc 1 590 83 is_stmt 0 discriminator 2
	movs	r3, #1
	strb	r3, [r0, #20]
	.loc 1 590 5 is_stmt 1 discriminator 2
	.loc 1 593 3 discriminator 2
	.loc 1 593 51 is_stmt 0 discriminator 2
	ldr	r3, .L24
	add	r3, r3, r1
	.loc 1 593 10 discriminator 2
	lsls	r3, r3, #2
.LVL17:
	.loc 1 596 3 is_stmt 1 discriminator 2
	.loc 1 596 25 is_stmt 0 discriminator 2
	str	r2, [r3]
	.loc 1 599 3 is_stmt 1 discriminator 2
	.loc 1 599 7 discriminator 2
	.loc 1 599 22 is_stmt 0 discriminator 2
	movs	r3, #0
.LVL18:
	strb	r3, [r0, #20]
	.loc 1 599 5 is_stmt 1 discriminator 2
	.loc 1 601 3 discriminator 2
	.loc 1 601 10 is_stmt 0 discriminator 2
	mov	r0, r3
.LVL19:
	bx	lr
.LVL20:
.L23:
	.loc 1 590 49
	movs	r0, #2
.LVL21:
	.loc 1 602 1
	bx	lr
.L25:
	.align	2
.L24:
	.word	268445024
	.cfi_endproc
.LFE339:
	.size	HAL_MDIOS_WriteReg, .-HAL_MDIOS_WriteReg
	.section	.text.HAL_MDIOS_ReadReg,"ax",%progbits
	.align	1
	.global	HAL_MDIOS_ReadReg
	.syntax unified
	.thumb
	.thumb_func
	.type	HAL_MDIOS_ReadReg, %function
HAL_MDIOS_ReadReg:
.LFB340:
	.loc 1 612 1 is_stmt 1
	.cfi_startproc
	@ args = 0, pretend = 0, frame = 0
	@ frame_needed = 0, uses_anonymous_args = 0
	@ link register save eliminated.
.LVL22:
	.loc 1 613 3
	.loc 1 616 3
	.loc 1 619 3
	.loc 1 619 7
	.loc 1 619 18 is_stmt 0
	ldrb	r3, [r0, #20]	@ zero_extendqisi2
	.loc 1 619 9
	cmp	r3, #1
	beq	.L28
	.loc 1 619 68 is_stmt 1 discriminator 2
	.loc 1 619 83 is_stmt 0 discriminator 2
	movs	r3, #1
	strb	r3, [r0, #20]
	.loc 1 619 5 is_stmt 1 discriminator 2
	.loc 1 622 3 discriminator 2
	.loc 1 622 51 is_stmt 0 discriminator 2
	ldr	r3, .L29
	add	r3, r3, r1
	.loc 1 622 10 discriminator 2
	lsls	r3, r3, #2
.LVL23:
	.loc 1 625 3 is_stmt 1 discriminator 2
	.loc 1 625 12 is_stmt 0 discriminator 2
	ldrh	r3, [r3]
.LVL24:
	.loc 1 625 10 discriminator 2
	strh	r3, [r2]	@ movhi
	.loc 1 628 3 is_stmt 1 discriminator 2
	.loc 1 628 7 discriminator 2
	.loc 1 628 22 is_stmt 0 discriminator 2
	movs	r3, #0
	strb	r3, [r0, #20]
	.loc 1 628 5 is_stmt 1 discriminator 2
	.loc 1 630 3 discriminator 2
	.loc 1 630 10 is_stmt 0 discriminator 2
	mov	r0, r3
.LVL25:
	bx	lr
.LVL26:
.L28:
	.loc 1 619 49
	movs	r0, #2
.LVL27:
	.loc 1 631 1
	bx	lr
.L30:
	.align	2
.L29:
	.word	268444992
	.cfi_endproc
.LFE340:
	.size	HAL_MDIOS_ReadReg, .-HAL_MDIOS_ReadReg
	.section	.text.HAL_MDIOS_GetWrittenRegAddress,"ax",%progbits
	.align	1
	.global	HAL_MDIOS_GetWrittenRegAddress
	.syntax unified
	.thumb
	.thumb_func
	.type	HAL_MDIOS_GetWrittenRegAddress, %function
HAL_MDIOS_GetWrittenRegAddress:
.LFB341:
	.loc 1 639 1 is_stmt 1
	.cfi_startproc
	@ args = 0, pretend = 0, frame = 0
	@ frame_needed = 0, uses_anonymous_args = 0
	@ link register save eliminated.
.LVL28:
	.loc 1 640 3
	.loc 1 640 16 is_stmt 0
	ldr	r3, [r0]
	.loc 1 640 26
	ldr	r0, [r3, #4]
.LVL29:
	.loc 1 641 1
	bx	lr
	.cfi_endproc
.LFE341:
	.size	HAL_MDIOS_GetWrittenRegAddress, .-HAL_MDIOS_GetWrittenRegAddress
	.section	.text.HAL_MDIOS_GetReadRegAddress,"ax",%progbits
	.align	1
	.global	HAL_MDIOS_GetReadRegAddress
	.syntax unified
	.thumb
	.thumb_func
	.type	HAL_MDIOS_GetReadRegAddress, %function
HAL_MDIOS_GetReadRegAddress:
.LFB342:
	.loc 1 649 1 is_stmt 1
	.cfi_startproc
	@ args = 0, pretend = 0, frame = 0
	@ frame_needed = 0, uses_anonymous_args = 0
	@ link register save eliminated.
.LVL30:
	.loc 1 650 3
	.loc 1 650 16 is_stmt 0
	ldr	r3, [r0]
	.loc 1 650 26
	ldr	r0, [r3, #12]
.LVL31:
	.loc 1 651 1
	bx	lr
	.cfi_endproc
.LFE342:
	.size	HAL_MDIOS_GetReadRegAddress, .-HAL_MDIOS_GetReadRegAddress
	.section	.text.HAL_MDIOS_ClearWriteRegAddress,"ax",%progbits
	.align	1
	.global	HAL_MDIOS_ClearWriteRegAddress
	.syntax unified
	.thumb
	.thumb_func
	.type	HAL_MDIOS_ClearWriteRegAddress, %function
HAL_MDIOS_ClearWriteRegAddress:
.LFB343:
	.loc 1 660 1 is_stmt 1
	.cfi_startproc
	@ args = 0, pretend = 0, frame = 0
	@ frame_needed = 0, uses_anonymous_args = 0
	@ link register save eliminated.
.LVL32:
	.loc 1 662 3
	.loc 1 665 3
	.loc 1 665 7
	.loc 1 665 18 is_stmt 0
	ldrb	r3, [r0, #20]	@ zero_extendqisi2
	.loc 1 665 9
	cmp	r3, #1
	beq	.L35
	.loc 1 665 68 is_stmt 1 discriminator 2
	.loc 1 665 83 is_stmt 0 discriminator 2
	movs	r3, #1
	strb	r3, [r0, #20]
	.loc 1 665 5 is_stmt 1 discriminator 2
	.loc 1 668 3 discriminator 2
	.loc 1 668 9 is_stmt 0 discriminator 2
	ldr	r2, [r0]
	.loc 1 668 19 discriminator 2
	ldr	r3, [r2, #8]
	.loc 1 668 27 discriminator 2
	orrs	r3, r3, r1
	str	r3, [r2, #8]
	.loc 1 671 3 is_stmt 1 discriminator 2
	.loc 1 671 7 discriminator 2
	.loc 1 671 22 is_stmt 0 discriminator 2
	movs	r3, #0
	strb	r3, [r0, #20]
	.loc 1 671 5 is_stmt 1 discriminator 2
	.loc 1 673 3 discriminator 2
	.loc 1 673 10 is_stmt 0 discriminator 2
	mov	r0, r3
.LVL33:
	bx	lr
.LVL34:
.L35:
	.loc 1 665 49
	movs	r0, #2
.LVL35:
	.loc 1 674 1
	bx	lr
	.cfi_endproc
.LFE343:
	.size	HAL_MDIOS_ClearWriteRegAddress, .-HAL_MDIOS_ClearWriteRegAddress
	.section	.text.HAL_MDIOS_ClearReadRegAddress,"ax",%progbits
	.align	1
	.global	HAL_MDIOS_ClearReadRegAddress
	.syntax unified
	.thumb
	.thumb_func
	.type	HAL_MDIOS_ClearReadRegAddress, %function
HAL_MDIOS_ClearReadRegAddress:
.LFB344:
	.loc 1 683 1 is_stmt 1
	.cfi_startproc
	@ args = 0, pretend = 0, frame = 0
	@ frame_needed = 0, uses_anonymous_args = 0
	@ link register save eliminated.
.LVL36:
	.loc 1 685 3
	.loc 1 688 3
	.loc 1 688 7
	.loc 1 688 18 is_stmt 0
	ldrb	r3, [r0, #20]	@ zero_extendqisi2
	.loc 1 688 9
	cmp	r3, #1
	beq	.L38
	.loc 1 688 68 is_stmt 1 discriminator 2
	.loc 1 688 83 is_stmt 0 discriminator 2
	movs	r3, #1
	strb	r3, [r0, #20]
	.loc 1 688 5 is_stmt 1 discriminator 2
	.loc 1 691 3 discriminator 2
	.loc 1 691 9 is_stmt 0 discriminator 2
	ldr	r2, [r0]
	.loc 1 691 19 discriminator 2
	ldr	r3, [r2, #16]
	.loc 1 691 27 discriminator 2
	orrs	r3, r3, r1
	str	r3, [r2, #16]
	.loc 1 694 3 is_stmt 1 discriminator 2
	.loc 1 694 7 discriminator 2
	.loc 1 694 22 is_stmt 0 discriminator 2
	movs	r3, #0
	strb	r3, [r0, #20]
	.loc 1 694 5 is_stmt 1 discriminator 2
	.loc 1 696 3 discriminator 2
	.loc 1 696 10 is_stmt 0 discriminator 2
	mov	r0, r3
.LVL37:
	bx	lr
.LVL38:
.L38:
	.loc 1 688 49
	movs	r0, #2
.LVL39:
	.loc 1 697 1
	bx	lr
	.cfi_endproc
.LFE344:
	.size	HAL_MDIOS_ClearReadRegAddress, .-HAL_MDIOS_ClearReadRegAddress
	.section	.text.HAL_MDIOS_EnableEvents,"ax",%progbits
	.align	1
	.global	HAL_MDIOS_EnableEvents
	.syntax unified
	.thumb
	.thumb_func
	.type	HAL_MDIOS_EnableEvents, %function
HAL_MDIOS_EnableEvents:
.LFB345:
	.loc 1 705 1 is_stmt 1
	.cfi_startproc
	@ args = 0, pretend = 0, frame = 0
	@ frame_needed = 0, uses_anonymous_args = 0
	@ link register save eliminated.
.LVL40:
	.loc 1 707 3
	.loc 1 707 7
	.loc 1 707 18 is_stmt 0
	ldrb	r3, [r0, #20]	@ zero_extendqisi2
	.loc 1 707 9
	cmp	r3, #1
	beq	.L41
	.loc 1 707 68 is_stmt 1 discriminator 2
	.loc 1 707 83 is_stmt 0 discriminator 2
	movs	r3, #1
	strb	r3, [r0, #20]
	.loc 1 707 5 is_stmt 1 discriminator 2
	.loc 1 710 3 discriminator 2
	.loc 1 710 12 is_stmt 0 discriminator 2
	ldr	r2, [r0]
	.loc 1 710 22 discriminator 2
	ldr	r3, [r2]
	.loc 1 710 27 discriminator 2
	orr	r3, r3, #14
	str	r3, [r2]
	.loc 1 713 3 is_stmt 1 discriminator 2
	.loc 1 713 7 discriminator 2
	.loc 1 713 22 is_stmt 0 discriminator 2
	movs	r3, #0
	strb	r3, [r0, #20]
	.loc 1 713 5 is_stmt 1 discriminator 2
	.loc 1 715 3 discriminator 2
	.loc 1 715 10 is_stmt 0 discriminator 2
	mov	r0, r3
.LVL41:
	bx	lr
.LVL42:
.L41:
	.loc 1 707 49
	movs	r0, #2
.LVL43:
	.loc 1 716 1
	bx	lr
	.cfi_endproc
.LFE345:
	.size	HAL_MDIOS_EnableEvents, .-HAL_MDIOS_EnableEvents
	.section	.text.HAL_MDIOS_WriteCpltCallback,"ax",%progbits
	.align	1
	.weak	HAL_MDIOS_WriteCpltCallback
	.syntax unified
	.thumb
	.thumb_func
	.type	HAL_MDIOS_WriteCpltCallback, %function
HAL_MDIOS_WriteCpltCallback:
.LFB347:
	.loc 1 840 1 is_stmt 1
	.cfi_startproc
	@ args = 0, pretend = 0, frame = 0
	@ frame_needed = 0, uses_anonymous_args = 0
	@ link register save eliminated.
.LVL44:
	.loc 1 842 3
	.loc 1 847 1 is_stmt 0
	bx	lr
	.cfi_endproc
.LFE347:
	.size	HAL_MDIOS_WriteCpltCallback, .-HAL_MDIOS_WriteCpltCallback
	.section	.text.HAL_MDIOS_ReadCpltCallback,"ax",%progbits
	.align	1
	.weak	HAL_MDIOS_ReadCpltCallback
	.syntax unified
	.thumb
	.thumb_func
	.type	HAL_MDIOS_ReadCpltCallback, %function
HAL_MDIOS_ReadCpltCallback:
.LFB348:
	.loc 1 855 1 is_stmt 1
	.cfi_startproc
	@ args = 0, pretend = 0, frame = 0
	@ frame_needed = 0, uses_anonymous_args = 0
	@ link register save eliminated.
.LVL45:
	.loc 1 857 3
	.loc 1 862 1 is_stmt 0
	bx	lr
	.cfi_endproc
.LFE348:
	.size	HAL_MDIOS_ReadCpltCallback, .-HAL_MDIOS_ReadCpltCallback
	.section	.text.HAL_MDIOS_ErrorCallback,"ax",%progbits
	.align	1
	.weak	HAL_MDIOS_ErrorCallback
	.syntax unified
	.thumb
	.thumb_func
	.type	HAL_MDIOS_ErrorCallback, %function
HAL_MDIOS_ErrorCallback:
.LFB349:
	.loc 1 870 1 is_stmt 1
	.cfi_startproc
	@ args = 0, pretend = 0, frame = 0
	@ frame_needed = 0, uses_anonymous_args = 0
	@ link register save eliminated.
.LVL46:
	.loc 1 872 3
	.loc 1 877 1 is_stmt 0
	bx	lr
	.cfi_endproc
.LFE349:
	.size	HAL_MDIOS_ErrorCallback, .-HAL_MDIOS_ErrorCallback
	.section	.text.HAL_MDIOS_WakeUpCallback,"ax",%progbits
	.align	1
	.weak	HAL_MDIOS_WakeUpCallback
	.syntax unified
	.thumb
	.thumb_func
	.type	HAL_MDIOS_WakeUpCallback, %function
HAL_MDIOS_WakeUpCallback:
.LFB350:
	.loc 1 885 1 is_stmt 1
	.cfi_startproc
	@ args = 0, pretend = 0, frame = 0
	@ frame_needed = 0, uses_anonymous_args = 0
	@ link register save eliminated.
.LVL47:
	.loc 1 887 3
	.loc 1 892 1 is_stmt 0
	bx	lr
	.cfi_endproc
.LFE350:
	.size	HAL_MDIOS_WakeUpCallback, .-HAL_MDIOS_WakeUpCallback
	.section	.text.HAL_MDIOS_IRQHandler,"ax",%progbits
	.align	1
	.global	HAL_MDIOS_IRQHandler
	.syntax unified
	.thumb
	.thumb_func
	.type	HAL_MDIOS_IRQHandler, %function
HAL_MDIOS_IRQHandler:
.LFB346:
	.loc 1 724 1 is_stmt 1
	.cfi_startproc
	@ args = 0, pretend = 0, frame = 0
	@ frame_needed = 0, uses_anonymous_args = 0
.LVL48:
	push	{r4, lr}
	.cfi_def_cfa_offset 8
	.cfi_offset 4, -8
	.cfi_offset 14, -4
	mov	r4, r0
	.loc 1 726 3
	.loc 1 726 15 is_stmt 0
	ldr	r3, [r0]
	.loc 1 726 25
	ldr	r3, [r3]
	.loc 1 726 5
	tst	r3, #2
	bne	.L53
.LVL49:
.L47:
	.loc 1 745 3 is_stmt 1
	.loc 1 745 15 is_stmt 0
	ldr	r3, [r4]
	.loc 1 745 25
	ldr	r3, [r3]
	.loc 1 745 5
	tst	r3, #4
	bne	.L54
.L48:
	.loc 1 764 3 is_stmt 1
	.loc 1 764 15 is_stmt 0
	ldr	r3, [r4]
	.loc 1 764 25
	ldr	r2, [r3]
	.loc 1 764 5
	tst	r2, #8
	beq	.L49
	.loc 1 767 5 is_stmt 1
	.loc 1 767 27 is_stmt 0
	ldr	r3, [r3, #20]
	.loc 1 767 7
	tst	r3, #7
	bne	.L55
.L50:
	.loc 1 782 5 is_stmt 1
	.loc 1 782 23 is_stmt 0
	movs	r3, #0
	str	r3, [r4, #16]
.L49:
	.loc 1 819 3 is_stmt 1
	.loc 1 819 70 is_stmt 0
	mov	r3, #1476395008
	ldr	r3, [r3, #152]
	.loc 1 819 5
	tst	r3, #1024
	bne	.L56
.L46:
	.loc 1 832 1
	pop	{r4, pc}
.LVL50:
.L53:
	.loc 1 729 5 is_stmt 1
	.loc 1 729 8 is_stmt 0
	bl	HAL_MDIOS_GetWrittenRegAddress
.LVL51:
	.loc 1 729 7
	cmp	r0, #0
	beq	.L47
	.loc 1 736 7 is_stmt 1
	mov	r0, r4
	bl	HAL_MDIOS_WriteCpltCallback
.LVL52:
	.loc 1 740 7
	.loc 1 740 13 is_stmt 0
	ldr	r3, [r4]
	.loc 1 740 23
	ldr	r2, [r3, #8]
	.loc 1 740 31
	mov	r2, #-1
	str	r2, [r3, #8]
	b	.L47
.L54:
	.loc 1 748 5 is_stmt 1
	.loc 1 748 8 is_stmt 0
	mov	r0, r4
	bl	HAL_MDIOS_GetReadRegAddress
.LVL53:
	.loc 1 748 7
	cmp	r0, #0
	beq	.L48
	.loc 1 755 7 is_stmt 1
	mov	r0, r4
	bl	HAL_MDIOS_ReadCpltCallback
.LVL54:
	.loc 1 759 7
	.loc 1 759 13 is_stmt 0
	ldr	r3, [r4]
	.loc 1 759 23
	ldr	r2, [r3, #16]
	.loc 1 759 31
	mov	r2, #-1
	str	r2, [r3, #16]
	b	.L48
.L55:
	.loc 1 769 7 is_stmt 1
	.loc 1 769 13 is_stmt 0
	ldr	r3, [r4, #16]
	.loc 1 769 25
	orr	r3, r3, #16
	str	r3, [r4, #16]
	.loc 1 776 7 is_stmt 1
	mov	r0, r4
	bl	HAL_MDIOS_ErrorCallback
.LVL55:
	.loc 1 780 7
	.loc 1 780 16 is_stmt 0
	ldr	r2, [r4]
	.loc 1 780 26
	ldr	r3, [r2, #24]
	.loc 1 780 35
	orr	r3, r3, #7
	str	r3, [r2, #24]
	b	.L50
.L56:
	.loc 1 822 5 is_stmt 1
	.loc 1 822 75 is_stmt 0
	mov	r3, #1476395008
	mov	r2, #1024
	str	r2, [r3, #152]
	.loc 1 828 7 is_stmt 1
	mov	r0, r4
	bl	HAL_MDIOS_WakeUpCallback
.LVL56:
	.loc 1 832 1 is_stmt 0
	b	.L46
	.cfi_endproc
.LFE346:
	.size	HAL_MDIOS_IRQHandler, .-HAL_MDIOS_IRQHandler
	.section	.text.HAL_MDIOS_GetError,"ax",%progbits
	.align	1
	.global	HAL_MDIOS_GetError
	.syntax unified
	.thumb
	.thumb_func
	.type	HAL_MDIOS_GetError, %function
HAL_MDIOS_GetError:
.LFB351:
	.loc 1 920 1 is_stmt 1
	.cfi_startproc
	@ args = 0, pretend = 0, frame = 0
	@ frame_needed = 0, uses_anonymous_args = 0
	@ link register save eliminated.
.LVL57:
	.loc 1 922 3
	.loc 1 922 16 is_stmt 0
	ldr	r0, [r0, #16]
.LVL58:
	.loc 1 923 1
	bx	lr
	.cfi_endproc
.LFE351:
	.size	HAL_MDIOS_GetError, .-HAL_MDIOS_GetError
	.section	.text.HAL_MDIOS_GetState,"ax",%progbits
	.align	1
	.global	HAL_MDIOS_GetState
	.syntax unified
	.thumb
	.thumb_func
	.type	HAL_MDIOS_GetState, %function
HAL_MDIOS_GetState:
.LFB352:
	.loc 1 931 1 is_stmt 1
	.cfi_startproc
	@ args = 0, pretend = 0, frame = 0
	@ frame_needed = 0, uses_anonymous_args = 0
	@ link register save eliminated.
.LVL59:
	.loc 1 933 3
	.loc 1 933 16 is_stmt 0
	ldrb	r0, [r0, #12]	@ zero_extendqisi2
.LVL60:
	.loc 1 934 1
	bx	lr
	.cfi_endproc
.LFE352:
	.size	HAL_MDIOS_GetState, .-HAL_MDIOS_GetState
	.text
.Letext0:
	.file 2 "m:\\noinstall\\arm-gnu-toolchain-12.2.rel1-mingw-w64-i686-arm-none-eabi\\arm-none-eabi\\include\\machine\\_default_types.h"
	.file 3 "m:\\noinstall\\arm-gnu-toolchain-12.2.rel1-mingw-w64-i686-arm-none-eabi\\arm-none-eabi\\include\\sys\\_stdint.h"
	.file 4 "D:/RTOS/Board/YD-STM32H7xxVx_ClassicV19/cmake-build-debug/_deps/stm32h7xx_cmsis_device-src/Include/stm32h743xx.h"
	.file 5 "D:/RTOS/Board/YD-STM32H7xxVx_ClassicV19/cmake-build-debug/_deps/stm32h7xx_cmsis_device-src/Include/stm32h7xx.h"
	.file 6 "D:/RTOS/Board/YD-STM32H7xxVx_ClassicV19/cmake-build-debug/_deps/stm32h7xx_hal_driver-src/Inc/stm32h7xx_hal_def.h"
	.file 7 "D:/RTOS/Board/YD-STM32H7xxVx_ClassicV19/cmake-build-debug/_deps/stm32h7xx_hal_driver-src/Inc/stm32h7xx_hal_mdios.h"