	.cpu cortex-m7
	.arch armv7e-m
	.fpu fpv5-d16
	.eabi_attribute 28, 1
	.eabi_attribute 20, 1
	.eabi_attribute 21, 1
	.eabi_attribute 23, 3
	.eabi_attribute 24, 1
	.eabi_attribute 25, 1
	.eabi_attribute 26, 1
	.eabi_attribute 30, 1
	.eabi_attribute 34, 1
	.eabi_attribute 18, 4
	.file	"stm32h7xx_hal_dma_ex.c"
	.text
.Ltext0:
	.cfi_sections	.debug_frame
	.file 1 "D:/RTOS/Board/YD-STM32H7xxVx_ClassicV19/cmake-build-debug/_deps/stm32h7xx_hal_driver-src/Src/stm32h7xx_hal_dma_ex.c"
	.section	.text.DMA_MultiBufferSetConfig,"ax",%progbits
	.align	1
	.syntax unified
	.thumb
	.thumb_func
	.type	DMA_MultiBufferSetConfig, %function
DMA_MultiBufferSetConfig:
.LFB343:
	.loc 1 649 1
	.cfi_startproc
	@ args = 0, pretend = 0, frame = 0
	@ frame_needed = 0, uses_anonymous_args = 0
	@ link register save eliminated.
.LVL0:
	push	{r4, r5, r6}
	.cfi_def_cfa_offset 12
	.cfi_offset 4, -12
	.cfi_offset 5, -8
	.cfi_offset 6, -4
	.loc 1 650 3
	.loc 1 650 13 is_stmt 0
	ldr	r4, [r0]
	.loc 1 650 1609
	ldr	r6, .L11
	ldr	r5, .L11+4
	cmp	r4, r5
	it	ne
	cmpne	r4, r6
	beq	.L2
	.loc 1 650 218 discriminator 2
	adds	r5, r5, #24
	cmp	r4, r5
	beq	.L2
	.loc 1 650 325 discriminator 4
	adds	r5, r5, #24
	cmp	r4, r5
	beq	.L2
	.loc 1 650 432 discriminator 6
	adds	r5, r5, #24
	cmp	r4, r5
	beq	.L2
	.loc 1 650 539 discriminator 8
	adds	r5, r5, #24
	cmp	r4, r5
	beq	.L2
	.loc 1 650 646 discriminator 10
	adds	r5, r5, #24
	cmp	r4, r5
	beq	.L2
	.loc 1 650 753 discriminator 12
	adds	r5, r5, #24
	cmp	r4, r5
	beq	.L2
	.loc 1 650 860 discriminator 14
	add	r5, r5, #856
	cmp	r4, r5
	beq	.L2
	.loc 1 650 967 discriminator 16
	adds	r5, r5, #24
	cmp	r4, r5
	beq	.L2
	.loc 1 650 1074 discriminator 18
	adds	r5, r5, #24
	cmp	r4, r5
	beq	.L2
	.loc 1 650 1181 discriminator 20
	adds	r5, r5, #24
	cmp	r4, r5
	beq	.L2
	.loc 1 650 1288 discriminator 22
	adds	r5, r5, #24
	cmp	r4, r5
	beq	.L2
	.loc 1 650 1395 discriminator 24
	adds	r5, r5, #24
	cmp	r4, r5
	beq	.L2
	.loc 1 650 1502 discriminator 26
	adds	r5, r5, #24
	cmp	r4, r5
	beq	.L2
	.loc 1 650 1609 discriminator 28
	adds	r5, r5, #24
	cmp	r4, r5
	beq	.L2
	.loc 1 677 5 is_stmt 1
	.loc 1 677 53 is_stmt 0
	str	r3, [r4, #4]
	.loc 1 680 5 is_stmt 1
	.loc 1 680 19 is_stmt 0
	ldr	r3, [r0, #8]
.LVL1:
	.loc 1 680 7
	cmp	r3, #64
	beq	.L9
	.loc 1 692 7 is_stmt 1
	.loc 1 692 36 is_stmt 0
	ldr	r3, [r0]
	.loc 1 692 54
	str	r1, [r3, #8]
.LVL2:
	.loc 1 695 7 is_stmt 1
	.loc 1 695 36 is_stmt 0
	ldr	r3, [r0]
	.loc 1 695 55
	str	r2, [r3, #12]
	.loc 1 698 1
	b	.L1
.LVL3:
.L2:
	.loc 1 653 5 is_stmt 1
	.loc 1 653 50 is_stmt 0
	str	r3, [r4, #4]
	.loc 1 656 5 is_stmt 1
	.loc 1 656 19 is_stmt 0
	ldr	r3, [r0, #8]
.LVL4:
	.loc 1 656 7
	cmp	r3, #64
	beq	.L10
	.loc 1 668 7 is_stmt 1
	.loc 1 668 34 is_stmt 0
	ldr	r3, [r0]
	.loc 1 668 51
	str	r1, [r3, #8]
.LVL5:
	.loc 1 671 7 is_stmt 1
	.loc 1 671 34 is_stmt 0
	ldr	r3, [r0]
	.loc 1 671 52
	str	r2, [r3, #12]
.L1:
	.loc 1 698 1
	pop	{r4, r5, r6}
	.cfi_remember_state
	.cfi_restore 6
	.cfi_restore 5
	.cfi_restore 4
	.cfi_def_cfa_offset 0
	bx	lr
.LVL6:
.L10:
	.cfi_restore_state
	.loc 1 659 7 is_stmt 1
	.loc 1 659 34 is_stmt 0
	ldr	r3, [r0]
	.loc 1 659 51
	str	r2, [r3, #8]
.LVL7:
	.loc 1 662 7 is_stmt 1
	.loc 1 662 34 is_stmt 0
	ldr	r3, [r0]
	.loc 1 662 52
	str	r1, [r3, #12]
	b	.L1
.LVL8:
.L9:
	.loc 1 683 7 is_stmt 1
	.loc 1 683 36 is_stmt 0
	ldr	r3, [r0]
	.loc 1 683 54
	str	r2, [r3, #8]
.LVL9:
	.loc 1 686 7 is_stmt 1
	.loc 1 686 36 is_stmt 0
	ldr	r3, [r0]
	.loc 1 686 55
	str	r1, [r3, #12]
	b	.L1
.L12:
	.align	2
.L11:
	.word	1073872912
	.word	1073872936
	.cfi_endproc
.LFE343:
	.size	DMA_MultiBufferSetConfig, .-DMA_MultiBufferSetConfig
	.section	.text.HAL_DMAEx_MultiBufferStart,"ax",%progbits
	.align	1
	.global	HAL_DMAEx_MultiBufferStart
	.syntax unified
	.thumb
	.thumb_func
	.type	HAL_DMAEx_MultiBufferStart, %function
HAL_DMAEx_MultiBufferStart:
.LFB335:
	.loc 1 121 1 is_stmt 1
	.cfi_startproc
	@ args = 4, pretend = 0, frame = 0
	@ frame_needed = 0, uses_anonymous_args = 0
.LVL10:
	push	{r4, r5, r6, lr}
	.cfi_def_cfa_offset 16
	.cfi_offset 4, -16
	.cfi_offset 5, -12
	.cfi_offset 6, -8
	.cfi_offset 14, -4
	mov	r4, r0
	.loc 1 122 3
.LVL11:
	.loc 1 123 3
	.loc 1 126 3
	.loc 1 127 3
	.loc 1 130 3
	.loc 1 130 17 is_stmt 0
	ldr	r0, [r0, #8]
.LVL12:
	.loc 1 130 6
	cmp	r0, #128
	beq	.L25
	.loc 1 138 5 is_stmt 1
	.loc 1 138 9
	.loc 1 138 18 is_stmt 0
	ldrb	r0, [r4, #52]	@ zero_extendqisi2
	.loc 1 138 11
	cmp	r0, #1
	beq	.L23
	.loc 1 138 68 is_stmt 1 discriminator 2
	.loc 1 138 81 is_stmt 0 discriminator 2
	movs	r0, #1
	strb	r0, [r4, #52]
	.loc 1 138 7 is_stmt 1 discriminator 2
	.loc 1 140 5 discriminator 2
	.loc 1 140 35 is_stmt 0 discriminator 2
	ldrb	r0, [r4, #53]	@ zero_extendqisi2
	uxtb	r0, r0
	.loc 1 140 7 discriminator 2
	cmp	r0, #1
	beq	.L26
	.loc 1 198 7 is_stmt 1
	.loc 1 198 23 is_stmt 0
	mov	r3, #2048
.LVL13:
	str	r3, [r4, #84]
	.loc 1 201 7 is_stmt 1
.LVL14:
	.loc 1 201 14 is_stmt 0
	movs	r0, #1
.LVL15:
.L15:
	.loc 1 205 1
	pop	{r4, r5, r6, pc}
.LVL16:
.L25:
	.loc 1 132 5 is_stmt 1
	.loc 1 132 21 is_stmt 0
	mov	r3, #256
.LVL17:
	str	r3, [r4, #84]
	.loc 1 133 5 is_stmt 1
.LVL18:
	.loc 1 133 12 is_stmt 0
	movs	r0, #1
	b	.L15
.LVL19:
.L26:
	.loc 1 143 7 is_stmt 1
	.loc 1 143 19 is_stmt 0
	movs	r0, #2
	strb	r0, [r4, #53]
	.loc 1 146 7 is_stmt 1
	.loc 1 146 23 is_stmt 0
	movs	r0, #0
	str	r0, [r4, #84]
	.loc 1 148 7 is_stmt 1
	.loc 1 148 17 is_stmt 0
	ldr	r0, [r4]
	.loc 1 148 1613
	ldr	r6, .L27
	ldr	r5, .L27+4
	cmp	r0, r5
	it	ne
	cmpne	r0, r6
	beq	.L17
	.loc 1 148 222 discriminator 2
	adds	r5, r5, #24
	cmp	r0, r5
	beq	.L17
	.loc 1 148 329 discriminator 4
	adds	r5, r5, #24
	cmp	r0, r5
	beq	.L17
	.loc 1 148 436 discriminator 6
	adds	r5, r5, #24
	cmp	r0, r5
	beq	.L17
	.loc 1 148 543 discriminator 8
	adds	r5, r5, #24
	cmp	r0, r5
	beq	.L17
	.loc 1 148 650 discriminator 10
	adds	r5, r5, #24
	cmp	r0, r5
	beq	.L17
	.loc 1 148 757 discriminator 12
	adds	r5, r5, #24
	cmp	r0, r5
	beq	.L17
	.loc 1 148 864 discriminator 14
	add	r5, r5, #856
	cmp	r0, r5
	beq	.L17
	.loc 1 148 971 discriminator 16
	adds	r5, r5, #24
	cmp	r0, r5
	beq	.L17
	.loc 1 148 1078 discriminator 18
	adds	r5, r5, #24
	cmp	r0, r5
	beq	.L17
	.loc 1 148 1185 discriminator 20
	adds	r5, r5, #24
	cmp	r0, r5
	beq	.L17
	.loc 1 148 1292 discriminator 22
	adds	r5, r5, #24
	cmp	r0, r5
	beq	.L17
	.loc 1 148 1399 discriminator 24
	adds	r5, r5, #24
	cmp	r0, r5
	beq	.L17
	.loc 1 148 1506 discriminator 26
	adds	r5, r5, #24
	cmp	r0, r5
	beq	.L17
	.loc 1 148 1613 discriminator 28
	adds	r5, r5, #24
	cmp	r0, r5
	beq	.L17
	.loc 1 165 9 is_stmt 1
	.loc 1 165 49 is_stmt 0
	ldr	r6, [r0]
	.loc 1 165 55
	movw	r5, #32800
	orrs	r5, r5, r6
	str	r5, [r0]
	.loc 1 168 9 is_stmt 1
	.loc 1 168 38 is_stmt 0
	ldr	r0, [r4]
	.loc 1 168 57
	str	r3, [r0, #16]
	.loc 1 171 9 is_stmt 1
	.loc 1 171 56 is_stmt 0
	ldr	r5, [r4, #88]
.LVL20:
	.loc 1 174 9 is_stmt 1
	.loc 1 174 55 is_stmt 0
	ldr	r3, [r4, #92]
.LVL21:
	.loc 1 174 69
	and	r0, r3, #31
.LVL22:
	.loc 1 174 47
	movs	r3, #1
	lsls	r3, r3, r0
	.loc 1 174 27
	str	r3, [r5, #4]
	b	.L18
.LVL23:
.L17:
	.loc 1 151 9 is_stmt 1
	.loc 1 151 47 is_stmt 0
	ldr	r5, [r0]
	.loc 1 151 52
	orr	r5, r5, #262144
	str	r5, [r0]
	.loc 1 154 9 is_stmt 1
	.loc 1 154 36 is_stmt 0
	ldr	r0, [r4]
	.loc 1 154 54
	str	r3, [r0, #16]
	.loc 1 157 9 is_stmt 1
	.loc 1 157 56 is_stmt 0
	ldr	r5, [r4, #88]
.LVL24:
	.loc 1 160 9 is_stmt 1
	.loc 1 160 44 is_stmt 0
	ldr	r3, [r4, #92]
.LVL25:
	.loc 1 160 58
	and	r0, r3, #31
.LVL26:
	.loc 1 160 36
	movs	r3, #63
	lsls	r3, r3, r0
	.loc 1 160 27
	str	r3, [r5, #8]
.LVL27:
.L18:
	.loc 1 177 7 is_stmt 1
	.loc 1 177 17 is_stmt 0
	ldr	r3, [r4]
	.loc 1 177 2490
	ldr	r5, .L27
	ldr	r0, .L27+4
	cmp	r3, r0
	it	ne
	cmpne	r3, r5
	beq	.L19
	.loc 1 177 222 discriminator 2
	adds	r0, r0, #24
	cmp	r3, r0
	beq	.L19
	.loc 1 177 329 discriminator 4
	adds	r0, r0, #24
	cmp	r3, r0
	beq	.L19
	.loc 1 177 436 discriminator 6
	adds	r0, r0, #24
	cmp	r3, r0
	beq	.L19
	.loc 1 177 543 discriminator 8
	adds	r0, r0, #24
	cmp	r3, r0
	beq	.L19
	.loc 1 177 650 discriminator 10
	adds	r0, r0, #24
	cmp	r3, r0
	beq	.L19
	.loc 1 177 757 discriminator 12
	adds	r0, r0, #24
	cmp	r3, r0
	beq	.L19
	.loc 1 177 864 discriminator 14
	add	r0, r0, #856
	cmp	r3, r0
	beq	.L19
	.loc 1 177 971 discriminator 16
	adds	r0, r0, #24
	cmp	r3, r0
	beq	.L19
	.loc 1 177 1078 discriminator 18
	adds	r0, r0, #24
	cmp	r3, r0
	beq	.L19
	.loc 1 177 1185 discriminator 20
	adds	r0, r0, #24
	cmp	r3, r0
	beq	.L19
	.loc 1 177 1292 discriminator 22
	adds	r0, r0, #24
	cmp	r3, r0
	beq	.L19
	.loc 1 177 1399 discriminator 24
	adds	r0, r0, #24
	cmp	r3, r0
	beq	.L19
	.loc 1 177 1506 discriminator 26
	adds	r0, r0, #24
	cmp	r3, r0
	beq	.L19
	.loc 1 177 1613 discriminator 28
	adds	r0, r0, #24
	cmp	r3, r0
	beq	.L19
	.loc 1 177 1720 discriminator 30
	ldr	r0, .L27+8
	cmp	r3, r0
	beq	.L19
	.loc 1 177 1830 discriminator 32
	adds	r0, r0, #20
	cmp	r3, r0
	beq	.L19
	.loc 1 177 1940 discriminator 34
	adds	r0, r0, #20
	cmp	r3, r0
	beq	.L19
	.loc 1 177 2050 discriminator 36
	adds	r0, r0, #20
	cmp	r3, r0
	beq	.L19
	.loc 1 177 2160 discriminator 38
	adds	r0, r0, #20
	cmp	r3, r0
	beq	.L19
	.loc 1 177 2270 discriminator 40
	adds	r0, r0, #20
	cmp	r3, r0
	beq	.L19
	.loc 1 177 2380 discriminator 42
	adds	r0, r0, #20
	cmp	r3, r0
	beq	.L19
	.loc 1 177 2490 discriminator 44
	adds	r0, r0, #20
	cmp	r3, r0
	bne	.L20
.L19:
	.loc 1 180 9 is_stmt 1
	ldr	r3, [sp, #16]
	mov	r0, r4
	bl	DMA_MultiBufferSetConfig
.LVL28:
	.loc 1 183 9
	.loc 1 183 13 is_stmt 0
	ldr	r3, [r4, #100]
	.loc 1 183 46
	ldr	r2, [r4, #104]
	.loc 1 183 40
	str	r2, [r3, #4]
	.loc 1 185 9 is_stmt 1
	.loc 1 185 16 is_stmt 0
	ldr	r3, [r4, #108]
	.loc 1 185 11
	cbz	r3, .L20
	.loc 1 188 11 is_stmt 1
	.loc 1 188 15 is_stmt 0
	ldr	r3, [r4, #112]
	.loc 1 188 53
	ldr	r2, [r4, #116]
	.loc 1 188 47
	str	r2, [r3, #4]
.L20:
	.loc 1 193 7 is_stmt 1
	.loc 1 193 18 is_stmt 0
	ldr	r3, [r4]
	.loc 1 193 1820
	ldr	r1, .L27
	ldr	r2, .L27+4
	cmp	r3, r2
	it	ne
	cmpne	r3, r1
	beq	.L21
	.loc 1 193 225 discriminator 2
	adds	r2, r2, #24
	cmp	r3, r2
	beq	.L21
	.loc 1 193 334 discriminator 4
	adds	r2, r2, #24
	cmp	r3, r2
	beq	.L21
	.loc 1 193 443 discriminator 6
	adds	r2, r2, #24
	cmp	r3, r2
	beq	.L21
	.loc 1 193 552 discriminator 8
	adds	r2, r2, #24
	cmp	r3, r2
	beq	.L21
	.loc 1 193 661 discriminator 10
	adds	r2, r2, #24
	cmp	r3, r2
	beq	.L21
	.loc 1 193 770 discriminator 12
	adds	r2, r2, #24
	cmp	r3, r2
	beq	.L21
	.loc 1 193 879 discriminator 14
	add	r2, r2, #856
	cmp	r3, r2
	beq	.L21
	.loc 1 193 988 discriminator 16
	adds	r2, r2, #24
	cmp	r3, r2
	beq	.L21
	.loc 1 193 1097 discriminator 18
	adds	r2, r2, #24
	cmp	r3, r2
	beq	.L21
	.loc 1 193 1206 discriminator 20
	adds	r2, r2, #24
	cmp	r3, r2
	beq	.L21
	.loc 1 193 1315 discriminator 22
	adds	r2, r2, #24
	cmp	r3, r2
	beq	.L21
	.loc 1 193 1424 discriminator 24
	adds	r2, r2, #24
	cmp	r3, r2
	beq	.L21
	.loc 1 193 1533 discriminator 26
	adds	r2, r2, #24
	cmp	r3, r2
	beq	.L21
	.loc 1 193 1642 discriminator 28
	adds	r2, r2, #24
	cmp	r3, r2
	beq	.L21
	.loc 1 193 1865 discriminator 30
	ldr	r2, [r3]
	.loc 1 193 1871 discriminator 30
	orr	r2, r2, #1
	str	r2, [r3]
	.loc 1 122 21 discriminator 30
	movs	r0, #0
	b	.L15
.L21:
	.loc 1 193 1795 discriminator 29
	ldr	r2, [r3]
	.loc 1 193 1800 discriminator 29
	orr	r2, r2, #1
	str	r2, [r3]
	.loc 1 122 21 discriminator 29
	movs	r0, #0
	.loc 1 193 1820 discriminator 29
	b	.L15
.LVL29:
.L23:
	.loc 1 138 49
	movs	r0, #2
	b	.L15
.L28:
	.align	2
.L27:
	.word	1073872912
	.word	1073872936
	.word	1476547592
	.cfi_endproc
.LFE335:
	.size	HAL_DMAEx_MultiBufferStart, .-HAL_DMAEx_MultiBufferStart
	.section	.text.HAL_DMAEx_MultiBufferStart_IT,"ax",%progbits
	.align	1
	.global	HAL_DMAEx_MultiBufferStart_IT
	.syntax unified
	.thumb
	.thumb_func
	.type	HAL_DMAEx_MultiBufferStart_IT, %function
HAL_DMAEx_MultiBufferStart_IT:
.LFB336:
	.loc 1 218 1 is_stmt 1
	.cfi_startproc
	@ args = 4, pretend = 0, frame = 0
	@ frame_needed = 0, uses_anonymous_args = 0
.LVL30:
	push	{r4, r5, r6, lr}
	.cfi_def_cfa_offset 16
	.cfi_offset 4, -16
	.cfi_offset 5, -12
	.cfi_offset 6, -8
	.cfi_offset 14, -4
	mov	r4, r0
	.loc 1 219 3
.LVL31:
	.loc 1 220 3
	.loc 1 223 3
	.loc 1 224 3
	.loc 1 227 3
	.loc 1 227 16 is_stmt 0
	ldr	r0, [r0, #8]
.LVL32:
	.loc 1 227 5
	cmp	r0, #128
	beq	.L50
	.loc 1 234 3 is_stmt 1
	.loc 1 234 7
	.loc 1 234 16 is_stmt 0
	ldrb	r0, [r4, #52]	@ zero_extendqisi2
	.loc 1 234 9
	cmp	r0, #1
	beq	.L47
	.loc 1 234 66 is_stmt 1 discriminator 2
	.loc 1 234 79 is_stmt 0 discriminator 2
	movs	r0, #1
	strb	r0, [r4, #52]
	.loc 1 234 5 is_stmt 1 discriminator 2
	.loc 1 236 3 discriminator 2
	.loc 1 236 33 is_stmt 0 discriminator 2
	ldrb	r0, [r4, #53]	@ zero_extendqisi2
	uxtb	r0, r0
	.loc 1 236 5 discriminator 2
	cmp	r0, #1
	beq	.L51
	.loc 1 335 5 is_stmt 1
	.loc 1 335 21 is_stmt 0
	mov	r3, #2048
.LVL33:
	str	r3, [r4, #84]
	.loc 1 338 5 is_stmt 1
.LVL34:
	.loc 1 338 12 is_stmt 0
	movs	r0, #1
.LVL35:
.L31:
	.loc 1 341 1
	pop	{r4, r5, r6, pc}
.LVL36:
.L50:
	.loc 1 229 5 is_stmt 1
	.loc 1 229 21 is_stmt 0
	mov	r3, #256
.LVL37:
	str	r3, [r4, #84]
	.loc 1 230 5 is_stmt 1
	.loc 1 230 12 is_stmt 0
	movs	r0, #1
	b	.L31
.LVL38:
.L51:
	.loc 1 239 5 is_stmt 1
	.loc 1 239 17 is_stmt 0
	movs	r0, #2
	strb	r0, [r4, #53]
	.loc 1 242 5 is_stmt 1
	.loc 1 242 21 is_stmt 0
	movs	r0, #0
	str	r0, [r4, #84]
	.loc 1 244 5 is_stmt 1
	.loc 1 244 15 is_stmt 0
	ldr	r0, [r4]
	.loc 1 244 1611
	ldr	r6, .L54
	ldr	r5, .L54+4
	cmp	r0, r5
	it	ne
	cmpne	r0, r6
	beq	.L33
	.loc 1 244 220 discriminator 2
	adds	r5, r5, #24
	cmp	r0, r5
	beq	.L33
	.loc 1 244 327 discriminator 4
	adds	r5, r5, #24
	cmp	r0, r5
	beq	.L33
	.loc 1 244 434 discriminator 6
	adds	r5, r5, #24
	cmp	r0, r5
	beq	.L33
	.loc 1 244 541 discriminator 8
	adds	r5, r5, #24
	cmp	r0, r5
	beq	.L33
	.loc 1 244 648 discriminator 10
	adds	r5, r5, #24
	cmp	r0, r5
	beq	.L33
	.loc 1 244 755 discriminator 12
	adds	r5, r5, #24
	cmp	r0, r5
	beq	.L33
	.loc 1 244 862 discriminator 14
	add	r5, r5, #856
	cmp	r0, r5
	beq	.L33
	.loc 1 244 969 discriminator 16
	adds	r5, r5, #24
	cmp	r0, r5
	beq	.L33
	.loc 1 244 1076 discriminator 18
	adds	r5, r5, #24
	cmp	r0, r5
	beq	.L33
	.loc 1 244 1183 discriminator 20
	adds	r5, r5, #24
	cmp	r0, r5
	beq	.L33
	.loc 1 244 1290 discriminator 22
	adds	r5, r5, #24
	cmp	r0, r5
	beq	.L33
	.loc 1 244 1397 discriminator 24
	adds	r5, r5, #24
	cmp	r0, r5
	beq	.L33
	.loc 1 244 1504 discriminator 26
	adds	r5, r5, #24
	cmp	r0, r5
	beq	.L33
	.loc 1 244 1611 discriminator 28
	adds	r5, r5, #24
	cmp	r0, r5
	beq	.L33
	.loc 1 261 7 is_stmt 1
	.loc 1 261 47 is_stmt 0
	ldr	r6, [r0]
	.loc 1 261 53
	movw	r5, #32800
	orrs	r5, r5, r6
	str	r5, [r0]
	.loc 1 264 7 is_stmt 1
	.loc 1 264 36 is_stmt 0
	ldr	r0, [r4]
	.loc 1 264 55
	str	r3, [r0, #16]
	.loc 1 267 7 is_stmt 1
	.loc 1 267 54 is_stmt 0
	ldr	r5, [r4, #88]
.LVL39:
	.loc 1 270 7 is_stmt 1
	.loc 1 270 53 is_stmt 0
	ldr	r3, [r4, #92]
.LVL40:
	.loc 1 270 67
	and	r0, r3, #31
.LVL41:
	.loc 1 270 45
	movs	r3, #1
	lsls	r3, r3, r0
	.loc 1 270 25
	str	r3, [r5, #4]
	b	.L34
.LVL42:
.L33:
	.loc 1 247 7 is_stmt 1
	.loc 1 247 45 is_stmt 0
	ldr	r5, [r0]
	.loc 1 247 50
	orr	r5, r5, #262144
	str	r5, [r0]
	.loc 1 250 7 is_stmt 1
	.loc 1 250 34 is_stmt 0
	ldr	r0, [r4]
	.loc 1 250 52
	str	r3, [r0, #16]
	.loc 1 253 7 is_stmt 1
	.loc 1 253 54 is_stmt 0
	ldr	r5, [r4, #88]
.LVL43:
	.loc 1 256 7 is_stmt 1
	.loc 1 256 42 is_stmt 0
	ldr	r3, [r4, #92]
.LVL44:
	.loc 1 256 56
	and	r0, r3, #31
.LVL45:
	.loc 1 256 34
	movs	r3, #63
	lsls	r3, r3, r0
	.loc 1 256 25
	str	r3, [r5, #8]
.LVL46:
.L34:
	.loc 1 274 5 is_stmt 1
	ldr	r3, [sp, #16]
	mov	r0, r4
	bl	DMA_MultiBufferSetConfig
.LVL47:
	.loc 1 276 5
	.loc 1 276 15 is_stmt 0
	ldr	r3, [r4]
	.loc 1 276 2488
	ldr	r1, .L54
	ldr	r2, .L54+4
	cmp	r3, r2
	it	ne
	cmpne	r3, r1
	beq	.L35
	.loc 1 276 220 discriminator 2
	adds	r2, r2, #24
	cmp	r3, r2
	beq	.L35
	.loc 1 276 327 discriminator 4
	adds	r2, r2, #24
	cmp	r3, r2
	beq	.L35
	.loc 1 276 434 discriminator 6
	adds	r2, r2, #24
	cmp	r3, r2
	beq	.L35
	.loc 1 276 541 discriminator 8
	adds	r2, r2, #24
	cmp	r3, r2
	beq	.L35
	.loc 1 276 648 discriminator 10
	adds	r2, r2, #24
	cmp	r3, r2
	beq	.L35
	.loc 1 276 755 discriminator 12
	adds	r2, r2, #24
	cmp	r3, r2
	beq	.L35
	.loc 1 276 862 discriminator 14
	add	r2, r2, #856
	cmp	r3, r2
	beq	.L35
	.loc 1 276 969 discriminator 16
	adds	r2, r2, #24
	cmp	r3, r2
	beq	.L35
	.loc 1 276 1076 discriminator 18
	adds	r2, r2, #24
	cmp	r3, r2
	beq	.L35
	.loc 1 276 1183 discriminator 20
	adds	r2, r2, #24
	cmp	r3, r2
	beq	.L35
	.loc 1 276 1290 discriminator 22
	adds	r2, r2, #24
	cmp	r3, r2
	beq	.L35
	.loc 1 276 1397 discriminator 24
	adds	r2, r2, #24
	cmp	r3, r2
	beq	.L35
	.loc 1 276 1504 discriminator 26
	adds	r2, r2, #24
	cmp	r3, r2
	beq	.L35
	.loc 1 276 1611 discriminator 28
	adds	r2, r2, #24
	cmp	r3, r2
	beq	.L35
	.loc 1 276 1718 discriminator 30
	ldr	r2, .L54+8
	cmp	r3, r2
	beq	.L35
	.loc 1 276 1828 discriminator 32
	adds	r2, r2, #20
	cmp	r3, r2
	beq	.L35
	.loc 1 276 1938 discriminator 34
	adds	r2, r2, #20
	cmp	r3, r2
	beq	.L35
	.loc 1 276 2048 discriminator 36
	adds	r2, r2, #20
	cmp	r3, r2
	beq	.L35
	.loc 1 276 2158 discriminator 38
	adds	r2, r2, #20
	cmp	r3, r2
	beq	.L35
	.loc 1 276 2268 discriminator 40
	adds	r2, r2, #20
	cmp	r3, r2
	beq	.L35
	.loc 1 276 2378 discriminator 42
	adds	r2, r2, #20
	cmp	r3, r2
	beq	.L35
	.loc 1 276 2488 discriminator 44
	adds	r2, r2, #20
	cmp	r3, r2
	bne	.L36
.L35:
	.loc 1 279 7 is_stmt 1
	.loc 1 279 11 is_stmt 0
	ldr	r3, [r4, #100]
	.loc 1 279 44
	ldr	r2, [r4, #104]
	.loc 1 279 38
	str	r2, [r3, #4]
	.loc 1 281 7 is_stmt 1
	.loc 1 281 14 is_stmt 0
	ldr	r3, [r4, #108]
	.loc 1 281 9
	cbz	r3, .L36
	.loc 1 284 9 is_stmt 1
	.loc 1 284 13 is_stmt 0
	ldr	r3, [r4, #112]
	.loc 1 284 51
	ldr	r2, [r4, #116]
	.loc 1 284 45
	str	r2, [r3, #4]
.L36:
	.loc 1 288 5 is_stmt 1
	.loc 1 288 15 is_stmt 0
	ldr	r3, [r4]
	.loc 1 288 1611
	ldr	r1, .L54
	ldr	r2, .L54+4
	cmp	r3, r2
	it	ne
	cmpne	r3, r1
	beq	.L37
	.loc 1 288 220 discriminator 2
	adds	r2, r2, #24
	cmp	r3, r2
	beq	.L37
	.loc 1 288 327 discriminator 4
	adds	r2, r2, #24
	cmp	r3, r2
	beq	.L37
	.loc 1 288 434 discriminator 6
	adds	r2, r2, #24
	cmp	r3, r2
	beq	.L37
	.loc 1 288 541 discriminator 8
	adds	r2, r2, #24
	cmp	r3, r2
	beq	.L37
	.loc 1 288 648 discriminator 10
	adds	r2, r2, #24
	cmp	r3, r2
	beq	.L37
	.loc 1 288 755 discriminator 12
	adds	r2, r2, #24
	cmp	r3, r2
	beq	.L37
	.loc 1 288 862 discriminator 14
	add	r2, r2, #856
	cmp	r3, r2
	beq	.L37
	.loc 1 288 969 discriminator 16
	adds	r2, r2, #24
	cmp	r3, r2
	beq	.L37
	.loc 1 288 1076 discriminator 18
	adds	r2, r2, #24
	cmp	r3, r2
	beq	.L37
	.loc 1 288 1183 discriminator 20
	adds	r2, r2, #24
	cmp	r3, r2
	beq	.L37
	.loc 1 288 1290 discriminator 22
	adds	r2, r2, #24
	cmp	r3, r2
	beq	.L37
	.loc 1 288 1397 discriminator 24
	adds	r2, r2, #24
	cmp	r3, r2
	beq	.L37
	.loc 1 288 1504 discriminator 26
	adds	r2, r2, #24
	cmp	r3, r2
	beq	.L37
	.loc 1 288 1611 discriminator 28
	adds	r2, r2, #24
	cmp	r3, r2
	beq	.L37
	.loc 1 303 7 is_stmt 1
	.loc 1 303 106 is_stmt 0
	ldr	r2, [r3]
	.loc 1 303 115
	bic	r2, r2, #14
	.loc 1 303 177
	orr	r2, r2, #10
	.loc 1 303 58
	str	r2, [r3]
	.loc 1 305 7 is_stmt 1
	.loc 1 305 15 is_stmt 0
	ldr	r3, [r4, #64]
	.loc 1 305 9
	cmp	r3, #0
	beq	.L52
.L38:
	.loc 1 308 9 is_stmt 1
	.loc 1 308 38 is_stmt 0
	ldr	r2, [r4]
	.loc 1 308 49
	ldr	r3, [r2]
	.loc 1 308 55
	orr	r3, r3, #4
	str	r3, [r2]
	b	.L41
.L55:
	.align	2
.L54:
	.word	1073872912
	.word	1073872936
	.word	1476547592
.L37:
	.loc 1 291 7 is_stmt 1
	.loc 1 291 101 is_stmt 0
	ldr	r2, [r3]
	.loc 1 291 109
	bic	r2, r2, #30
	.loc 1 291 237
	orr	r2, r2, #22
	.loc 1 291 55
	str	r2, [r3]
	.loc 1 292 7 is_stmt 1
	.loc 1 292 34 is_stmt 0
	ldr	r2, [r4]
	.loc 1 292 45
	ldr	r3, [r2, #20]
	.loc 1 292 51
	orr	r3, r3, #128
	str	r3, [r2, #20]
	.loc 1 294 7 is_stmt 1
	.loc 1 294 15 is_stmt 0
	ldr	r3, [r4, #64]
	.loc 1 294 9
	cmp	r3, #0
	beq	.L53
.L40:
	.loc 1 297 9 is_stmt 1
	.loc 1 297 36 is_stmt 0
	ldr	r2, [r4]
	.loc 1 297 47
	ldr	r3, [r2]
	.loc 1 297 52
	orr	r3, r3, #8
	str	r3, [r2]
.L41:
	.loc 1 312 5 is_stmt 1
	.loc 1 312 15 is_stmt 0
	ldr	r3, [r4]
	.loc 1 312 2488
	ldr	r1, .L56
	ldr	r2, .L56+4
	cmp	r3, r2
	it	ne
	cmpne	r3, r1
	beq	.L42
	.loc 1 312 220 discriminator 2
	adds	r2, r2, #24
	cmp	r3, r2
	beq	.L42
	.loc 1 312 327 discriminator 4
	adds	r2, r2, #24
	cmp	r3, r2
	beq	.L42
	.loc 1 312 434 discriminator 6
	adds	r2, r2, #24
	cmp	r3, r2
	beq	.L42
	.loc 1 312 541 discriminator 8
	adds	r2, r2, #24
	cmp	r3, r2
	beq	.L42
	.loc 1 312 648 discriminator 10
	adds	r2, r2, #24
	cmp	r3, r2
	beq	.L42
	.loc 1 312 755 discriminator 12
	adds	r2, r2, #24
	cmp	r3, r2
	beq	.L42
	.loc 1 312 862 discriminator 14
	add	r2, r2, #856
	cmp	r3, r2
	beq	.L42
	.loc 1 312 969 discriminator 16
	adds	r2, r2, #24
	cmp	r3, r2
	beq	.L42
	.loc 1 312 1076 discriminator 18
	adds	r2, r2, #24
	cmp	r3, r2
	beq	.L42
	.loc 1 312 1183 discriminator 20
	adds	r2, r2, #24
	cmp	r3, r2
	beq	.L42
	.loc 1 312 1290 discriminator 22
	adds	r2, r2, #24
	cmp	r3, r2
	beq	.L42
	.loc 1 312 1397 discriminator 24
	adds	r2, r2, #24
	cmp	r3, r2
	beq	.L42
	.loc 1 312 1504 discriminator 26
	adds	r2, r2, #24
	cmp	r3, r2
	beq	.L42
	.loc 1 312 1611 discriminator 28
	adds	r2, r2, #24
	cmp	r3, r2
	beq	.L42
	.loc 1 312 1718 discriminator 30
	ldr	r2, .L56+8
	cmp	r3, r2
	beq	.L42
	.loc 1 312 1828 discriminator 32
	adds	r2, r2, #20
	cmp	r3, r2
	beq	.L42
	.loc 1 312 1938 discriminator 34
	adds	r2, r2, #20
	cmp	r3, r2
	beq	.L42
	.loc 1 312 2048 discriminator 36
	adds	r2, r2, #20
	cmp	r3, r2
	beq	.L42
	.loc 1 312 2158 discriminator 38
	adds	r2, r2, #20
	cmp	r3, r2
	beq	.L42
	.loc 1 312 2268 discriminator 40
	adds	r2, r2, #20
	cmp	r3, r2
	beq	.L42
	.loc 1 312 2378 discriminator 42
	adds	r2, r2, #20
	cmp	r3, r2
	beq	.L42
	.loc 1 312 2488 discriminator 44
	adds	r2, r2, #20
	cmp	r3, r2
	bne	.L43
.L42:
	.loc 1 315 7 is_stmt 1
	.loc 1 315 15 is_stmt 0
	ldr	r3, [r4, #96]
	.loc 1 315 30
	ldr	r2, [r3]
	.loc 1 315 9
	tst	r2, #65536
	beq	.L44
	.loc 1 318 9 is_stmt 1
	.loc 1 318 28 is_stmt 0
	ldr	r2, [r3]
	.loc 1 318 34
	orr	r2, r2, #256
	str	r2, [r3]
.L44:
	.loc 1 321 7 is_stmt 1
	.loc 1 321 14 is_stmt 0
	ldr	r3, [r4, #108]
	.loc 1 321 9
	cbz	r3, .L43
	.loc 1 325 9 is_stmt 1
	.loc 1 325 31 is_stmt 0
	ldr	r2, [r3]
	.loc 1 325 38
	orr	r2, r2, #256
	str	r2, [r3]
.L43:
	.loc 1 330 5 is_stmt 1
	.loc 1 330 16 is_stmt 0
	ldr	r3, [r4]
	.loc 1 330 1818
	ldr	r1, .L56
	ldr	r2, .L56+4
	cmp	r3, r2
	it	ne
	cmpne	r3, r1
	beq	.L45
	.loc 1 330 223 discriminator 2
	adds	r2, r2, #24
	cmp	r3, r2
	beq	.L45
	.loc 1 330 332 discriminator 4
	adds	r2, r2, #24
	cmp	r3, r2
	beq	.L45
	.loc 1 330 441 discriminator 6
	adds	r2, r2, #24
	cmp	r3, r2
	beq	.L45
	.loc 1 330 550 discriminator 8
	adds	r2, r2, #24
	cmp	r3, r2
	beq	.L45
	.loc 1 330 659 discriminator 10
	adds	r2, r2, #24
	cmp	r3, r2
	beq	.L45
	.loc 1 330 768 discriminator 12
	adds	r2, r2, #24
	cmp	r3, r2
	beq	.L45
	.loc 1 330 877 discriminator 14
	add	r2, r2, #856
	cmp	r3, r2
	beq	.L45
	.loc 1 330 986 discriminator 16
	adds	r2, r2, #24
	cmp	r3, r2
	beq	.L45
	.loc 1 330 1095 discriminator 18
	adds	r2, r2, #24
	cmp	r3, r2
	beq	.L45
	.loc 1 330 1204 discriminator 20
	adds	r2, r2, #24
	cmp	r3, r2
	beq	.L45
	.loc 1 330 1313 discriminator 22
	adds	r2, r2, #24
	cmp	r3, r2
	beq	.L45
	.loc 1 330 1422 discriminator 24
	adds	r2, r2, #24
	cmp	r3, r2
	beq	.L45
	.loc 1 330 1531 discriminator 26
	adds	r2, r2, #24
	cmp	r3, r2
	beq	.L45
	.loc 1 330 1640 discriminator 28
	adds	r2, r2, #24
	cmp	r3, r2
	beq	.L45
	.loc 1 330 1863 discriminator 30
	ldr	r2, [r3]
	.loc 1 330 1869 discriminator 30
	orr	r2, r2, #1
	str	r2, [r3]
	.loc 1 219 21 discriminator 30
	movs	r0, #0
	b	.L31
.L53:
	.loc 1 294 54 discriminator 1
	ldr	r3, [r4, #72]
	.loc 1 294 46 discriminator 1
	cmp	r3, #0
	bne	.L40
	b	.L41
.L52:
	.loc 1 305 54 discriminator 1
	ldr	r3, [r4, #72]
	.loc 1 305 46 discriminator 1
	cmp	r3, #0
	bne	.L38
	b	.L41
.L45:
	.loc 1 330 1793 discriminator 29
	ldr	r2, [r3]
	.loc 1 330 1798 discriminator 29
	orr	r2, r2, #1
	str	r2, [r3]
	.loc 1 219 21 discriminator 29
	movs	r0, #0
	.loc 1 330 1818 discriminator 29
	b	.L31
.LVL48:
.L47:
	.loc 1 234 47
	movs	r0, #2
	b	.L31
.L57:
	.align	2
.L56:
	.word	1073872912
	.word	1073872936
	.word	1476547592
	.cfi_endproc
.LFE336:
	.size	HAL_DMAEx_MultiBufferStart_IT, .-HAL_DMAEx_MultiBufferStart_IT
	.section	.text.HAL_DMAEx_ChangeMemory,"ax",%progbits
	.align	1
	.global	HAL_DMAEx_ChangeMemory
	.syntax unified
	.thumb
	.thumb_func
	.type	HAL_DMAEx_ChangeMemory, %function
HAL_DMAEx_ChangeMemory:
.LFB337:
	.loc 1 358 1 is_stmt 1
	.cfi_startproc
	@ args = 0, pretend = 0, frame = 0
	@ frame_needed = 0, uses_anonymous_args = 0
	@ link register save eliminated.
.LVL49:
	push	{r4}
	.cfi_def_cfa_offset 4
	.cfi_offset 4, -4
	.loc 1 359 3
	.loc 1 359 13 is_stmt 0
	ldr	r3, [r0]
	.loc 1 359 1609
	ldr	r4, .L66
	ldr	r0, .L66+4
.LVL50:
	cmp	r3, r0
	it	ne
	cmpne	r3, r4
	beq	.L59
	.loc 1 359 218 discriminator 2
	adds	r0, r0, #24
	cmp	r3, r0
	beq	.L59
	.loc 1 359 325 discriminator 4
	adds	r0, r0, #24
	cmp	r3, r0
	beq	.L59
	.loc 1 359 432 discriminator 6
	adds	r0, r0, #24
	cmp	r3, r0
	beq	.L59
	.loc 1 359 539 discriminator 8
	adds	r0, r0, #24
	cmp	r3, r0
	beq	.L59
	.loc 1 359 646 discriminator 10
	adds	r0, r0, #24
	cmp	r3, r0
	beq	.L59
	.loc 1 359 753 discriminator 12
	adds	r0, r0, #24
	cmp	r3, r0
	beq	.L59
	.loc 1 359 860 discriminator 14
	add	r0, r0, #856
	cmp	r3, r0
	beq	.L59
	.loc 1 359 967 discriminator 16
	adds	r0, r0, #24
	cmp	r3, r0
	beq	.L59
	.loc 1 359 1074 discriminator 18
	adds	r0, r0, #24
	cmp	r3, r0
	beq	.L59
	.loc 1 359 1181 discriminator 20
	adds	r0, r0, #24
	cmp	r3, r0
	beq	.L59
	.loc 1 359 1288 discriminator 22
	adds	r0, r0, #24
	cmp	r3, r0
	beq	.L59
	.loc 1 359 1395 discriminator 24
	adds	r0, r0, #24
	cmp	r3, r0
	beq	.L59
	.loc 1 359 1502 discriminator 26
	adds	r0, r0, #24
	cmp	r3, r0
	beq	.L59
	.loc 1 359 1609 discriminator 28
	adds	r0, r0, #24
	cmp	r3, r0
	beq	.L59
	.loc 1 374 5 is_stmt 1
	.loc 1 374 7 is_stmt 0
	cbz	r2, .L60
	.loc 1 382 7 is_stmt 1
	.loc 1 382 55 is_stmt 0
	str	r1, [r3, #16]
	b	.L63
.L59:
	.loc 1 361 5 is_stmt 1
	.loc 1 361 7 is_stmt 0
	cbnz	r2, .L62
	.loc 1 364 7 is_stmt 1
	.loc 1 364 52 is_stmt 0
	str	r1, [r3, #12]
.L63:
	.loc 1 386 3 is_stmt 1
	.loc 1 387 1 is_stmt 0
	movs	r0, #0
	ldr	r4, [sp], #4
	.cfi_remember_state
	.cfi_restore 4
	.cfi_def_cfa_offset 0
	bx	lr
.L62:
	.cfi_restore_state
	.loc 1 369 7 is_stmt 1
	.loc 1 369 52 is_stmt 0
	str	r1, [r3, #16]
	b	.L63
.L60:
	.loc 1 377 7 is_stmt 1
	.loc 1 377 55 is_stmt 0
	str	r1, [r3, #12]
	b	.L63
.L67:
	.align	2
.L66:
	.word	1073872912
	.word	1073872936
	.cfi_endproc
.LFE337:
	.size	HAL_DMAEx_ChangeMemory, .-HAL_DMAEx_ChangeMemory
	.section	.text.HAL_DMAEx_ConfigMuxSync,"ax",%progbits
	.align	1
	.global	HAL_DMAEx_ConfigMuxSync
	.syntax unified
	.thumb
	.thumb_func
	.type	HAL_DMAEx_ConfigMuxSync, %function
HAL_DMAEx_ConfigMuxSync:
.LFB338:
	.loc 1 397 1 is_stmt 1
	.cfi_startproc
	@ args = 0, pretend = 0, frame = 0
	@ frame_needed = 0, uses_anonymous_args = 0
	@ link register save eliminated.
.LVL51:
	push	{r4, r5, r6}
	.cfi_def_cfa_offset 12
	.cfi_offset 4, -12
	.cfi_offset 5, -8
	.cfi_offset 6, -4
	.loc 1 398 3
.LVL52:
	.loc 1 399 3
	.loc 1 402 3
	.loc 1 403 3
	.loc 1 404 3
	.loc 1 405 3
	.loc 1 407 3
	.loc 1 407 17 is_stmt 0
	ldrb	r3, [r1, #8]	@ zero_extendqisi2
	.loc 1 407 5
	cmp	r3, #1
	beq	.L75
	.loc 1 399 12
	movs	r4, #0
	.loc 1 398 12
	mov	r5, r4
.LVL53:
.L69:
	.loc 1 424 3 is_stmt 1
	.loc 1 424 10 is_stmt 0
	ldrb	r3, [r0, #53]	@ zero_extendqisi2
	uxtb	r3, r3
	.loc 1 424 5
	cmp	r3, #1
	bne	.L70
	.loc 1 427 5 is_stmt 1
	.loc 1 427 9
	.loc 1 427 18 is_stmt 0
	ldrb	r3, [r0, #52]	@ zero_extendqisi2
	.loc 1 427 11
	cmp	r3, #1
	beq	.L73
	.loc 1 427 68 is_stmt 1 discriminator 2
	.loc 1 427 81 is_stmt 0 discriminator 2
	movs	r3, #1
	strb	r3, [r0, #52]
	.loc 1 427 7 is_stmt 1 discriminator 2
	.loc 1 430 5 discriminator 2
	.loc 1 430 11 is_stmt 0 discriminator 2
	ldr	r2, [r0, #96]
	.loc 1 430 26 discriminator 2
	ldr	r3, [r2]
	.loc 1 430 33 discriminator 2
	bic	r3, r3, #66048
	str	r3, [r2]
	.loc 1 433 5 is_stmt 1 discriminator 2
	.loc 1 433 47 is_stmt 0 discriminator 2
	ldr	r6, [r0, #96]
	.loc 1 433 62 discriminator 2
	ldr	r2, [r6]
	.loc 1 433 71 discriminator 2
	uxtb	r2, r2
	.loc 1 433 141 discriminator 2
	ldr	r3, [r1, #12]
	.loc 1 433 157 discriminator 2
	subs	r3, r3, #1
	.loc 1 433 163 discriminator 2
	lsls	r3, r3, #19
	.loc 1 433 126 discriminator 2
	orr	r3, r3, r5, lsl #24
	.loc 1 433 173 discriminator 2
	orrs	r3, r3, r4
	.loc 1 433 212 discriminator 2
	ldrb	r4, [r1, #8]	@ zero_extendqisi2
.LVL54:
	.loc 1 433 188 discriminator 2
	orr	r3, r3, r4, lsl #16
	.loc 1 433 259 discriminator 2
	ldrb	r1, [r1, #9]	@ zero_extendqisi2
.LVL55:
	.loc 1 433 235 discriminator 2
	orr	r3, r3, r1, lsl #9
	.loc 1 433 99 discriminator 2
	orrs	r3, r3, r2
	.loc 1 433 35 discriminator 2
	str	r3, [r6]
	.loc 1 441 5 is_stmt 1 discriminator 2
	.loc 1 441 9 discriminator 2
	.loc 1 441 22 is_stmt 0 discriminator 2
	movs	r3, #0
	strb	r3, [r0, #52]
	.loc 1 441 7 is_stmt 1 discriminator 2
	.loc 1 443 5 discriminator 2
	.loc 1 443 12 is_stmt 0 discriminator 2
	mov	r0, r3
.LVL56:
	b	.L71
.LVL57:
.L75:
	.loc 1 409 5 is_stmt 1
	.loc 1 411 5
	.loc 1 417 7
	.loc 1 419 5
	.loc 1 419 18 is_stmt 0
	ldr	r5, [r1]
.LVL58:
	.loc 1 420 5 is_stmt 1
	.loc 1 420 18 is_stmt 0
	ldr	r4, [r1, #4]
.LVL59:
	b	.L69
.L70:
	.loc 1 448 5 is_stmt 1
	.loc 1 448 21 is_stmt 0
	mov	r3, #2048
	str	r3, [r0, #84]
	.loc 1 451 5 is_stmt 1
	.loc 1 451 12 is_stmt 0
	movs	r0, #1
.LVL60:
.L71:
	.loc 1 453 1
	pop	{r4, r5, r6}
	.cfi_remember_state
	.cfi_restore 6
	.cfi_restore 5
	.cfi_restore 4
	.cfi_def_cfa_offset 0
.LVL61:
	bx	lr
.LVL62:
.L73:
	.cfi_restore_state
	.loc 1 427 49
	movs	r0, #2
.LVL63:
	b	.L71
	.cfi_endproc
.LFE338:
	.size	HAL_DMAEx_ConfigMuxSync, .-HAL_DMAEx_ConfigMuxSync
	.section	.text.HAL_DMAEx_ConfigMuxRequestGenerator,"ax",%progbits
	.align	1
	.global	HAL_DMAEx_ConfigMuxRequestGenerator
	.syntax unified
	.thumb
	.thumb_func
	.type	HAL_DMAEx_ConfigMuxRequestGenerator, %function
HAL_DMAEx_ConfigMuxRequestGenerator:
.LFB339:
	.loc 1 465 1 is_stmt 1
	.cfi_startproc
	@ args = 0, pretend = 0, frame = 0
	@ frame_needed = 0, uses_anonymous_args = 0
	@ link register save eliminated.
.LVL64:
	.loc 1 466 3
	.loc 1 467 3
	.loc 1 467 24 is_stmt 0
	ldrb	r3, [r0, #53]	@ zero_extendqisi2
.LVL65:
	.loc 1 470 3 is_stmt 1
	.loc 1 472 3
	.loc 1 478 5
	.loc 1 482 3
	.loc 1 483 3
	.loc 1 488 3
	.loc 1 488 10 is_stmt 0
	ldr	r2, [r0, #108]
	.loc 1 488 5
	cbz	r2, .L84
	.loc 1 465 1
	push	{r4}
	.cfi_def_cfa_offset 4
	.cfi_offset 4, -4
	uxtb	r3, r3
	.loc 1 496 8 is_stmt 1
	.loc 1 496 35 is_stmt 0
	ldr	r4, [r2]
	.loc 1 496 10
	tst	r4, #65536
	bne	.L79
	.loc 1 496 69 discriminator 1
	cmp	r3, #1
	beq	.L85
.L79:
	.loc 1 515 5 is_stmt 1
	.loc 1 515 21 is_stmt 0
	mov	r3, #2048
.LVL66:
	str	r3, [r0, #84]
	.loc 1 518 5 is_stmt 1
.LVL67:
	.loc 1 521 10 is_stmt 0
	movs	r0, #1
.LVL68:
.L78:
	.loc 1 522 1
	ldr	r4, [sp], #4
	.cfi_restore 4
	.cfi_def_cfa_offset 0
	bx	lr
.LVL69:
.L84:
	.loc 1 491 5 is_stmt 1
	.loc 1 491 21 is_stmt 0
	movs	r3, #64
.LVL70:
	str	r3, [r0, #84]
	.loc 1 494 5 is_stmt 1
.LVL71:
	.loc 1 521 10 is_stmt 0
	movs	r0, #1
.LVL72:
	.loc 1 522 1
	bx	lr
.LVL73:
.L85:
	.cfi_def_cfa_offset 4
	.cfi_offset 4, -4
	.loc 1 501 5 is_stmt 1
	.loc 1 501 9
	.loc 1 501 18 is_stmt 0
	ldrb	r3, [r0, #52]	@ zero_extendqisi2
.LVL74:
	.loc 1 501 11
	cmp	r3, #1
	beq	.L80
	.loc 1 501 68 is_stmt 1 discriminator 2
	.loc 1 501 81 is_stmt 0 discriminator 2
	movs	r3, #1
	strb	r3, [r0, #52]
	.loc 1 501 7 is_stmt 1 discriminator 2
	.loc 1 504 5 discriminator 2
	.loc 1 504 59 is_stmt 0 discriminator 2
	ldr	r3, [r1]
	.loc 1 505 60 discriminator 2
	ldr	r4, [r1, #8]
	.loc 1 505 76 discriminator 2
	subs	r4, r4, #1
	.loc 1 504 70 discriminator 2
	orr	r3, r3, r4, lsl #19
	.loc 1 506 58 discriminator 2
	ldr	r1, [r1, #4]
.LVL75:
	.loc 1 505 91 discriminator 2
	orrs	r3, r3, r1
	.loc 1 504 34 discriminator 2
	str	r3, [r2]
	.loc 1 508 5 is_stmt 1 discriminator 2
	.loc 1 508 9 discriminator 2
	.loc 1 508 22 is_stmt 0 discriminator 2
	movs	r3, #0
	strb	r3, [r0, #52]
	.loc 1 508 7 is_stmt 1 discriminator 2
	.loc 1 510 5 discriminator 2
	.loc 1 510 12 is_stmt 0 discriminator 2
	mov	r0, r3
.LVL76:
	b	.L78
.LVL77:
.L80:
	.loc 1 501 49
	movs	r0, #2
.LVL78:
	b	.L78
	.cfi_endproc
.LFE339:
	.size	HAL_DMAEx_ConfigMuxRequestGenerator, .-HAL_DMAEx_ConfigMuxRequestGenerator
	.section	.text.HAL_DMAEx_EnableMuxRequestGenerator,"ax",%progbits
	.align	1
	.global	HAL_DMAEx_EnableMuxRequestGenerator
	.syntax unified
	.thumb
	.thumb_func
	.type	HAL_DMAEx_EnableMuxRequestGenerator, %function
HAL_DMAEx_EnableMuxRequestGenerator:
.LFB340:
	.loc 1 531 1 is_stmt 1
	.cfi_startproc
	@ args = 0, pretend = 0, frame = 0
	@ frame_needed = 0, uses_anonymous_args = 0
	@ link register save eliminated.
.LVL79:
	.loc 1 533 3
	.loc 1 537 3
	.loc 1 537 11 is_stmt 0
	ldrb	r3, [r0, #53]	@ zero_extendqisi2
	.loc 1 537 5
	cbz	r3, .L88
	.loc 1 537 51 discriminator 1
	ldr	r3, [r0, #108]
	.loc 1 537 43 discriminator 1
	cbz	r3, .L89
	.loc 1 540 5 is_stmt 1
	.loc 1 540 27 is_stmt 0
	ldr	r2, [r3]
	.loc 1 540 34
	orr	r2, r2, #65536
	str	r2, [r3]
	.loc 1 542 4 is_stmt 1
	.loc 1 542 11 is_stmt 0
	movs	r0, #0
.LVL80:
	bx	lr
.LVL81:
.L88:
	.loc 1 546 11
	movs	r0, #1
.LVL82:
	bx	lr
.LVL83:
.L89:
	movs	r0, #1
.LVL84:
	.loc 1 548 1
	bx	lr
	.cfi_endproc
.LFE340:
	.size	HAL_DMAEx_EnableMuxRequestGenerator, .-HAL_DMAEx_EnableMuxRequestGenerator
	.section	.text.HAL_DMAEx_DisableMuxRequestGenerator,"ax",%progbits
	.align	1
	.global	HAL_DMAEx_DisableMuxRequestGenerator
	.syntax unified
	.thumb
	.thumb_func
	.type	HAL_DMAEx_DisableMuxRequestGenerator, %function
HAL_DMAEx_DisableMuxRequestGenerator:
.LFB341:
	.loc 1 557 1 is_stmt 1
	.cfi_startproc
	@ args = 0, pretend = 0, frame = 0
	@ frame_needed = 0, uses_anonymous_args = 0
	@ link register save eliminated.
.LVL85:
	.loc 1 559 3
	.loc 1 563 3
	.loc 1 563 11 is_stmt 0
	ldrb	r3, [r0, #53]	@ zero_extendqisi2
	.loc 1 563 5
	cbz	r3, .L92
	.loc 1 563 51 discriminator 1
	ldr	r3, [r0, #108]
	.loc 1 563 43 discriminator 1
	cbz	r3, .L93
	.loc 1 566 5 is_stmt 1
	.loc 1 566 27 is_stmt 0
	ldr	r2, [r3]
	.loc 1 566 34
	bic	r2, r2, #65536
	str	r2, [r3]
	.loc 1 568 4 is_stmt 1
	.loc 1 568 11 is_stmt 0
	movs	r0, #0
.LVL86:
	bx	lr
.LVL87:
.L92:
	.loc 1 572 11
	movs	r0, #1
.LVL88:
	bx	lr
.LVL89:
.L93:
	movs	r0, #1
.LVL90:
	.loc 1 574 1
	bx	lr
	.cfi_endproc
.LFE341:
	.size	HAL_DMAEx_DisableMuxRequestGenerator, .-HAL_DMAEx_DisableMuxRequestGenerator
	.section	.text.HAL_DMAEx_MUX_IRQHandler,"ax",%progbits
	.align	1
	.global	HAL_DMAEx_MUX_IRQHandler
	.syntax unified
	.thumb
	.thumb_func
	.type	HAL_DMAEx_MUX_IRQHandler, %function
HAL_DMAEx_MUX_IRQHandler:
.LFB342:
	.loc 1 583 1 is_stmt 1
	.cfi_startproc
	@ args = 0, pretend = 0, frame = 0
	@ frame_needed = 0, uses_anonymous_args = 0
.LVL91:
	push	{r4, lr}
	.cfi_def_cfa_offset 8
	.cfi_offset 4, -8
	.cfi_offset 14, -4
	mov	r4, r0
	.loc 1 585 3
	.loc 1 585 11 is_stmt 0
	ldr	r3, [r0, #100]
	.loc 1 585 32
	ldr	r2, [r3]
	.loc 1 585 44
	ldr	r3, [r0, #104]
	.loc 1 585 5
	tst	r2, r3
	beq	.L95
	.loc 1 588 5 is_stmt 1
	.loc 1 588 9 is_stmt 0
	ldr	r2, [r0, #96]
	.loc 1 588 24
	ldr	r3, [r2]
	.loc 1 588 30
	bic	r3, r3, #256
	str	r3, [r2]
	.loc 1 591 5 is_stmt 1
	.loc 1 591 9 is_stmt 0
	ldr	r3, [r0, #100]
	.loc 1 591 42
	ldr	r2, [r0, #104]
	.loc 1 591 36
	str	r2, [r3, #4]
	.loc 1 594 5 is_stmt 1
	.loc 1 594 9 is_stmt 0
	ldr	r3, [r0, #84]
	.loc 1 594 21
	orr	r3, r3, #512
	str	r3, [r0, #84]
	.loc 1 596 5 is_stmt 1
	.loc 1 596 12 is_stmt 0
	ldr	r3, [r0, #76]
	.loc 1 596 7
	cbz	r3, .L95
	.loc 1 599 7 is_stmt 1
	blx	r3
.LVL92:
.L95:
	.loc 1 603 3
	.loc 1 603 10 is_stmt 0
	ldr	r3, [r4, #108]
	.loc 1 603 5
	cbz	r3, .L94
	.loc 1 606 5 is_stmt 1
	.loc 1 606 13 is_stmt 0
	ldr	r2, [r4, #112]
	.loc 1 606 37
	ldr	r1, [r2]
	.loc 1 606 50
	ldr	r2, [r4, #116]
	.loc 1 606 7
	tst	r1, r2
	beq	.L94
	.loc 1 609 7 is_stmt 1
	.loc 1 609 29 is_stmt 0
	ldr	r2, [r3]
	.loc 1 609 36
	bic	r2, r2, #256
	str	r2, [r3]
	.loc 1 612 7 is_stmt 1
	.loc 1 612 11 is_stmt 0
	ldr	r3, [r4, #112]
	.loc 1 612 49
	ldr	r2, [r4, #116]
	.loc 1 612 43
	str	r2, [r3, #4]
	.loc 1 615 7 is_stmt 1
	.loc 1 615 11 is_stmt 0
	ldr	r3, [r4, #84]
	.loc 1 615 23
	orr	r3, r3, #1024
	str	r3, [r4, #84]
	.loc 1 617 7 is_stmt 1
	.loc 1 617 14 is_stmt 0
	ldr	r3, [r4, #76]
	.loc 1 617 9
	cbz	r3, .L94
	.loc 1 620 9 is_stmt 1
	mov	r0, r4
	blx	r3
.LVL93:
.L94:
	.loc 1 624 1 is_stmt 0
	pop	{r4, pc}
	.cfi_endproc
.LFE342:
	.size	HAL_DMAEx_MUX_IRQHandler, .-HAL_DMAEx_MUX_IRQHandler
	.text
.Letext0:
	.file 2 "m:\\noinstall\\arm-gnu-toolchain-12.2.rel1-mingw-w64-i686-arm-none-eabi\\arm-none-eabi\\include\\machine\\_default_types.h"
	.file 3 "m:\\noinstall\\arm-gnu-toolchain-12.2.rel1-mingw-w64-i686-arm-none-eabi\\arm-none-eabi\\include\\sys\\_stdint.h"
	.file 4 "D:/RTOS/Board/YD-STM32H7xxVx_ClassicV19/cmake-build-debug/_deps/stm32h7xx_cmsis_device-src/Include/stm32h743xx.h"
	.file 5 "D:/RTOS/Board/YD-STM32H7xxVx_ClassicV19/cmake-build-debug/_deps/stm32h7xx_cmsis_device-src/Include/stm32h7xx.h"
	.file 6 "D:/RTOS/Board/YD-STM32H7xxVx_ClassicV19/cmake-build-debug/_deps/stm32h7xx_hal_driver-src/Inc/stm32h7xx_hal_def.h"
	.file 7 "D:/RTOS/Board/YD-STM32H7xxVx_ClassicV19/cmake-build-debug/_deps/stm32h7xx_hal_driver-src/Inc/stm32h7xx_hal_dma.h"
	.file 8 "D:/RTOS/Board/YD-STM32H7xxVx_ClassicV19/cmake-build-debug/_deps/stm32h7xx_hal_driver-src/Inc/stm32h7xx_hal_dma_ex.h"