	.cpu cortex-m7
	.arch armv7e-m
	.fpu fpv5-d16
	.eabi_attribute 28, 1
	.eabi_attribute 20, 1
	.eabi_attribute 21, 1
	.eabi_attribute 23, 3
	.eabi_attribute 24, 1
	.eabi_attribute 25, 1
	.eabi_attribute 26, 1
	.eabi_attribute 30, 1
	.eabi_attribute 34, 1
	.eabi_attribute 18, 4
	.file	"stm32h7xx_ll_delayblock.c"
	.text
.Ltext0:
	.cfi_sections	.debug_frame
	.file 1 "D:/RTOS/Board/YD-STM32H7xxVx_ClassicV19/cmake-build-debug/_deps/stm32h7xx_hal_driver-src/Src/stm32h7xx_ll_delayblock.c"
	.section	.text.DelayBlock_Enable,"ax",%progbits
	.align	1
	.global	DelayBlock_Enable
	.syntax unified
	.thumb
	.thumb_func
	.type	DelayBlock_Enable, %function
DelayBlock_Enable:
.LFB335:
	.loc 1 102 1
	.cfi_startproc
	@ args = 0, pretend = 0, frame = 0
	@ frame_needed = 0, uses_anonymous_args = 0
.LVL0:
	push	{r3, r4, r5, r6, r7, r8, r9, r10, fp, lr}
	.cfi_def_cfa_offset 40
	.cfi_offset 3, -40
	.cfi_offset 4, -36
	.cfi_offset 5, -32
	.cfi_offset 6, -28
	.cfi_offset 7, -24
	.cfi_offset 8, -20
	.cfi_offset 9, -16
	.cfi_offset 10, -12
	.cfi_offset 11, -8
	.cfi_offset 14, -4
	mov	r4, r0
	.loc 1 103 3
.LVL1:
	.loc 1 104 3
	.loc 1 105 3
	.loc 1 106 3
	.loc 1 107 3
	.loc 1 108 3
	.loc 1 109 3
	.loc 1 111 3
	.loc 1 111 13 is_stmt 0
	movs	r3, #3
	str	r3, [r0]
	.loc 1 113 3 is_stmt 1
.LVL2:
	.loc 1 113 20 is_stmt 0
	movs	r7, #0
	.loc 1 104 12
	mov	r10, r7
	.loc 1 103 12
	mov	fp, r7
.LVL3:
.L2:
	.loc 1 113 38 is_stmt 1 discriminator 1
	cmp	r7, #11
	bhi	.L16
	.loc 1 116 5
	.loc 1 116 14 is_stmt 0
	mov	r8, #65536
	lsl	r8, r8, r7
.LVL4:
	.loc 1 117 5 is_stmt 1
	.loc 1 118 5
	.loc 1 117 12 is_stmt 0
	mov	r9, #0
	.loc 1 118 23
	mov	r6, r9
.LVL5:
.L3:
	.loc 1 118 42 is_stmt 1 discriminator 1
	cmp	r6, #127
	bhi	.L10
	.loc 1 121 7
	.loc 1 121 61 is_stmt 0
	lsls	r3, r6, #8
	.loc 1 121 45
	orr	r3, r3, #12
	.loc 1 121 19
	str	r3, [r4, #4]
	.loc 1 124 7 is_stmt 1
	.loc 1 124 19 is_stmt 0
	bl	HAL_GetTick
.LVL6:
	mov	r5, r0
.LVL7:
	.loc 1 125 7 is_stmt 1
.L4:
	.loc 1 125 47
	.loc 1 125 20 is_stmt 0
	ldr	r3, [r4, #4]
	.loc 1 125 47
	cmp	r3, #0
	blt	.L17
	.loc 1 127 9 is_stmt 1
	.loc 1 127 13 is_stmt 0
	bl	HAL_GetTick
.LVL8:
	.loc 1 127 27
	subs	r0, r0, r5
	.loc 1 127 11
	cmp	r0, #254
	bls	.L4
	.loc 1 129 18
	movs	r0, #3
.LVL9:
.L5:
	.loc 1 164 1
	pop	{r3, r4, r5, r6, r7, r8, r9, r10, fp, pc}
.LVL10:
.L17:
	.loc 1 132 7 is_stmt 1
	.loc 1 132 10 is_stmt 0
	cmp	r9, #0
	bne	.L7
	.loc 1 134 9 is_stmt 1
	.loc 1 134 19 is_stmt 0
	ldr	r3, [r4, #4]
	.loc 1 134 12
	tst	r3, r8
	beq	.L8
	.loc 1 137 18
	mov	r9, #1
.LVL11:
	b	.L8
.LVL12:
.L7:
	.loc 1 143 9 is_stmt 1
	.loc 1 143 18 is_stmt 0
	ldr	r3, [r4, #4]
	.loc 1 143 11
	tst	r3, r8
	beq	.L18
.LVL13:
.L8:
	.loc 1 118 81 is_stmt 1 discriminator 2
	adds	r6, r6, #1
.LVL14:
	b	.L3
.L18:
	.loc 1 146 11
	.loc 1 146 13 is_stmt 0
	cmp	fp, #0
	bne	.L10
	.loc 1 148 13 is_stmt 1
.LVL15:
	.loc 1 149 13
	.loc 1 149 17 is_stmt 0
	add	r10, r7, #1
.LVL16:
	.loc 1 148 18
	mov	fp, r6
.LVL17:
.L10:
	.loc 1 113 76 is_stmt 1 discriminator 2
	adds	r7, r7, #1
.LVL18:
	b	.L2
.LVL19:
.L16:
	.loc 1 158 3
	.loc 1 158 13 is_stmt 0
	movs	r0, #0
	str	r0, [r4]
	.loc 1 159 3 is_stmt 1
	.loc 1 159 13 is_stmt 0
	movs	r3, #3
	str	r3, [r4]
	.loc 1 160 3 is_stmt 1
	.loc 1 160 21 is_stmt 0
	orr	r3, r10, fp, lsl #8
	.loc 1 160 15
	str	r3, [r4, #4]
	.loc 1 161 3 is_stmt 1
	.loc 1 161 13 is_stmt 0
	movs	r3, #1
	str	r3, [r4]
	.loc 1 163 3 is_stmt 1
	.loc 1 163 10 is_stmt 0
	b	.L5
	.cfi_endproc
.LFE335:
	.size	DelayBlock_Enable, .-DelayBlock_Enable
	.section	.text.DelayBlock_Disable,"ax",%progbits
	.align	1
	.global	DelayBlock_Disable
	.syntax unified
	.thumb
	.thumb_func
	.type	DelayBlock_Disable, %function
DelayBlock_Disable:
.LFB336:
	.loc 1 172 1 is_stmt 1
	.cfi_startproc
	@ args = 0, pretend = 0, frame = 0
	@ frame_needed = 0, uses_anonymous_args = 0
	@ link register save eliminated.
.LVL20:
	mov	r3, r0
	.loc 1 174 3
	.loc 1 174 13 is_stmt 0
	movs	r0, #0
.LVL21:
	str	r0, [r3]
	.loc 1 175 3 is_stmt 1
	.loc 1 176 1 is_stmt 0
	bx	lr
	.cfi_endproc
.LFE336:
	.size	DelayBlock_Disable, .-DelayBlock_Disable
	.section	.text.DelayBlock_Configure,"ax",%progbits
	.align	1
	.global	DelayBlock_Configure
	.syntax unified
	.thumb
	.thumb_func
	.type	DelayBlock_Configure, %function
DelayBlock_Configure:
.LFB337:
	.loc 1 186 1 is_stmt 1
	.cfi_startproc
	@ args = 0, pretend = 0, frame = 0
	@ frame_needed = 0, uses_anonymous_args = 0
	@ link register save eliminated.
.LVL22:
	push	{r4}
	.cfi_def_cfa_offset 4
	.cfi_offset 4, -4
	mov	r3, r0
	.loc 1 189 3
	.loc 1 189 13 is_stmt 0
	movs	r0, #0
.LVL23:
	str	r0, [r3]
	.loc 1 190 3 is_stmt 1
	.loc 1 190 13 is_stmt 0
	movs	r4, #3
	str	r4, [r3]
	.loc 1 191 3 is_stmt 1
	.loc 1 191 26 is_stmt 0
	orr	r1, r1, r2, lsl #8
.LVL24:
	.loc 1 191 15
	str	r1, [r3, #4]
	.loc 1 192 3 is_stmt 1
	.loc 1 192 13 is_stmt 0
	movs	r2, #1
.LVL25:
	str	r2, [r3]
	.loc 1 194 3 is_stmt 1
	.loc 1 195 1 is_stmt 0
	ldr	r4, [sp], #4
	.cfi_restore 4
	.cfi_def_cfa_offset 0
	bx	lr
	.cfi_endproc
.LFE337:
	.size	DelayBlock_Configure, .-DelayBlock_Configure
	.text
.Letext0:
	.file 2 "m:\\noinstall\\arm-gnu-toolchain-12.2.rel1-mingw-w64-i686-arm-none-eabi\\arm-none-eabi\\include\\machine\\_default_types.h"
	.file 3 "m:\\noinstall\\arm-gnu-toolchain-12.2.rel1-mingw-w64-i686-arm-none-eabi\\arm-none-eabi\\include\\sys\\_stdint.h"
	.file 4 "D:/RTOS/Board/YD-STM32H7xxVx_ClassicV19/cmake-build-debug/_deps/stm32h7xx_cmsis_device-src/Include/stm32h743xx.h"
	.file 5 "D:/RTOS/Board/YD-STM32H7xxVx_ClassicV19/cmake-build-debug/_deps/stm32h7xx_hal_driver-src/Inc/stm32h7xx_hal_def.h"
	.file 6 "D:/RTOS/Board/YD-STM32H7xxVx_ClassicV19/cmake-build-debug/_deps/stm32h7xx_hal_driver-src/Inc/stm32h7xx_hal.h"