	.cpu cortex-m7
	.arch armv7e-m
	.fpu fpv5-d16
	.eabi_attribute 28, 1
	.eabi_attribute 20, 1
	.eabi_attribute 21, 1
	.eabi_attribute 23, 3
	.eabi_attribute 24, 1
	.eabi_attribute 25, 1
	.eabi_attribute 26, 1
	.eabi_attribute 30, 1
	.eabi_attribute 34, 1
	.eabi_attribute 18, 4
	.file	"stm32h7xx_hal_exti.c"
	.text
.Ltext0:
	.cfi_sections	.debug_frame
	.file 1 "D:/RTOS/Board/YD-STM32H7xxVx_ClassicV19/cmake-build-debug/_deps/stm32h7xx_hal_driver-src/Src/stm32h7xx_hal_exti.c"
	.section	.text.HAL_EXTI_SetConfigLine,"ax",%progbits
	.align	1
	.global	HAL_EXTI_SetConfigLine
	.syntax unified
	.thumb
	.thumb_func
	.type	HAL_EXTI_SetConfigLine, %function
HAL_EXTI_SetConfigLine:
.LFB335:
	.loc 1 171 1
	.cfi_startproc
	@ args = 0, pretend = 0, frame = 0
	@ frame_needed = 0, uses_anonymous_args = 0
.LVL0:
	.loc 1 172 3
	.loc 1 173 3
	.loc 1 174 3
	.loc 1 175 3
	.loc 1 176 3
	.loc 1 177 3
	.loc 1 180 3
	.loc 1 180 6 is_stmt 0
	cmp	r1, #0
	it	ne
	cmpne	r0, #0
	beq	.L15
	.loc 1 171 1
	push	{r4, r5, r6, r7, lr}
	.cfi_def_cfa_offset 20
	.cfi_offset 4, -20
	.cfi_offset 5, -16
	.cfi_offset 6, -12
	.cfi_offset 7, -8
	.cfi_offset 14, -4
	mov	r2, r1
	.loc 1 186 3 is_stmt 1
	.loc 1 187 3
	.loc 1 190 3
	.loc 1 190 28 is_stmt 0
	ldr	r1, [r1]
.LVL1:
	.loc 1 190 15
	str	r1, [r0]
	.loc 1 193 3 is_stmt 1
	.loc 1 193 10 is_stmt 0
	ubfx	ip, r1, #16, #2
.LVL2:
	.loc 1 194 3 is_stmt 1
	.loc 1 194 11 is_stmt 0
	and	lr, r1, #31
.LVL3:
	.loc 1 195 3 is_stmt 1
	.loc 1 195 12 is_stmt 0
	movs	r3, #1
	lsl	r3, r3, lr
.LVL4:
	.loc 1 198 3 is_stmt 1
	.loc 1 198 6 is_stmt 0
	tst	r1, #33554432
	beq	.L3
	.loc 1 200 5 is_stmt 1
	.loc 1 203 5
	.loc 1 203 15 is_stmt 0
	lsl	r0, ip, #5
.LVL5:
	.loc 1 203 13
	add	r6, r0, #1476395008
.LVL6:
	.loc 1 204 5 is_stmt 1
	.loc 1 204 12 is_stmt 0
	ldr	r4, [r6]
.LVL7:
	.loc 1 207 5 is_stmt 1
	.loc 1 207 21 is_stmt 0
	ldr	r5, [r2, #8]
	.loc 1 207 8
	tst	r5, #1
	beq	.L4
	.loc 1 209 7 is_stmt 1
	.loc 1 209 14 is_stmt 0
	orrs	r4, r4, r3
.LVL8:
.L5:
	.loc 1 217 5 is_stmt 1
	.loc 1 217 14 is_stmt 0
	str	r4, [r6]
	.loc 1 220 5 is_stmt 1
	.loc 1 220 13 is_stmt 0
	ldr	r6, .L23
.LVL9:
	.loc 1 221 5 is_stmt 1
	.loc 1 221 12 is_stmt 0
	ldr	r4, [r0, r6]
.LVL10:
	.loc 1 224 5 is_stmt 1
	.loc 1 224 21 is_stmt 0
	ldr	r5, [r2, #8]
	.loc 1 224 8
	tst	r5, #2
	beq	.L6
	.loc 1 226 7 is_stmt 1
	.loc 1 226 14 is_stmt 0
	orrs	r4, r4, r3
.LVL11:
.L7:
	.loc 1 234 5 is_stmt 1
	.loc 1 234 14 is_stmt 0
	str	r4, [r0, r6]
	.loc 1 237 5 is_stmt 1
	.loc 1 237 21 is_stmt 0
	ldr	r0, [r2]
.LVL12:
	.loc 1 237 28
	and	r0, r0, #100663296
	.loc 1 237 8
	cmp	r0, #100663296
	beq	.L21
.LVL13:
.L3:
	.loc 1 250 3 is_stmt 1
	.loc 1 250 13 is_stmt 0
	lsl	r0, ip, #4
	.loc 1 250 11
	ldr	r6, .L23+4
.LVL14:
	.loc 1 251 3 is_stmt 1
	.loc 1 251 10 is_stmt 0
	ldr	r4, [r0, r6]
.LVL15:
	.loc 1 254 3 is_stmt 1
	.loc 1 254 19 is_stmt 0
	ldr	r5, [r2, #4]
	.loc 1 254 6
	tst	r5, #1
	beq	.L8
	.loc 1 256 5 is_stmt 1
	.loc 1 256 12 is_stmt 0
	orrs	r4, r4, r3
.LVL16:
.L9:
	.loc 1 264 3 is_stmt 1
	.loc 1 264 12 is_stmt 0
	str	r4, [r0, r6]
	.loc 1 267 3 is_stmt 1
	.loc 1 270 3
	.loc 1 270 11 is_stmt 0
	ldr	r5, .L23+8
.LVL17:
	.loc 1 271 3 is_stmt 1
	.loc 1 271 10 is_stmt 0
	ldr	r4, [r0, r5]
.LVL18:
	.loc 1 274 3 is_stmt 1
	.loc 1 274 6 is_stmt 0
	ldr	r6, [r2, #4]
	tst	r6, #2
	beq	.L10
	.loc 1 276 5 is_stmt 1
	.loc 1 276 12 is_stmt 0
	orrs	r4, r4, r3
.LVL19:
.L11:
	.loc 1 284 3 is_stmt 1
	.loc 1 284 12 is_stmt 0
	str	r4, [r0, r5]
	.loc 1 326 3 is_stmt 1
	.loc 1 326 19 is_stmt 0
	ldr	r0, [r2]
.LVL20:
	.loc 1 326 26
	and	r0, r0, #3145728
	.loc 1 326 6
	cmp	r0, #3145728
	beq	.L22
	.loc 1 364 10
	movs	r0, #0
.LVL21:
.L2:
	.loc 1 365 1
	pop	{r4, r5, r6, r7, pc}
.LVL22:
.L4:
	.loc 1 213 7 is_stmt 1
	.loc 1 213 14 is_stmt 0
	bic	r4, r4, r3
.LVL23:
	b	.L5
.LVL24:
.L6:
	.loc 1 230 7 is_stmt 1
	.loc 1 230 14 is_stmt 0
	bic	r4, r4, r3
.LVL25:
	b	.L7
.LVL26:
.L21:
	.loc 1 239 7 is_stmt 1
	.loc 1 240 7
	.loc 1 242 7
	.loc 1 242 106 is_stmt 0
	ubfx	r0, lr, #2, #2
	.loc 1 242 14
	ldr	r7, .L23+12
	adds	r0, r0, #2
	ldr	r6, [r7, r0, lsl #2]
.LVL27:
	.loc 1 243 7 is_stmt 1
	.loc 1 243 55 is_stmt 0
	and	r5, r1, #3
	.loc 1 243 44
	lsls	r5, r5, #2
	.loc 1 243 35
	movs	r4, #15
	lsls	r4, r4, r5
	.loc 1 243 14
	bic	r6, r6, r4
.LVL28:
	.loc 1 244 7 is_stmt 1
	.loc 1 244 29 is_stmt 0
	ldr	r4, [r2, #12]
	.loc 1 244 39
	lsls	r4, r4, r5
	.loc 1 244 14
	orrs	r4, r4, r6
.LVL29:
	.loc 1 245 7 is_stmt 1
	.loc 1 245 107 is_stmt 0
	str	r4, [r7, r0, lsl #2]
	b	.L3
.LVL30:
.L8:
	.loc 1 260 5 is_stmt 1
	.loc 1 260 12 is_stmt 0
	bic	r4, r4, r3
.LVL31:
	b	.L9
.LVL32:
.L10:
	.loc 1 280 5 is_stmt 1
	.loc 1 280 12 is_stmt 0
	bic	r4, r4, r3
.LVL33:
	b	.L11
.LVL34:
.L22:
	.loc 1 328 5 is_stmt 1
	.loc 1 331 5
	.loc 1 331 15 is_stmt 0
	lsl	ip, ip, #5
.LVL35:
	.loc 1 331 13
	ldr	r4, .L23+16
.LVL36:
	.loc 1 332 5 is_stmt 1
	.loc 1 332 12 is_stmt 0
	ldr	r0, [ip, r4]
.LVL37:
	.loc 1 334 5 is_stmt 1
	.loc 1 334 19 is_stmt 0
	ldr	r5, [r2, #16]
	.loc 1 334 7
	cbnz	r5, .L12
	.loc 1 337 7 is_stmt 1
	.loc 1 337 14 is_stmt 0
	bic	r0, r0, r3
.LVL38:
	.loc 1 339 7 is_stmt 1
	.loc 1 339 16 is_stmt 0
	str	r0, [ip, r4]
	.loc 1 364 10
	movs	r0, #0
.LVL39:
	b	.L2
.LVL40:
.L12:
	.loc 1 344 7 is_stmt 1
	.loc 1 344 14 is_stmt 0
	orrs	r0, r0, r3
.LVL41:
	.loc 1 346 7 is_stmt 1
	.loc 1 346 16 is_stmt 0
	str	r0, [ip, r4]
	.loc 1 348 7 is_stmt 1
	.loc 1 348 9 is_stmt 0
	tst	r1, #16
	bne	.L13
	.loc 1 350 9 is_stmt 1
	.loc 1 350 17 is_stmt 0
	ldr	r0, .L23+20
.LVL42:
	add	r0, r0, ip
.LVL43:
	.loc 1 351 9 is_stmt 1
.L14:
	.loc 1 359 7
	.loc 1 359 17 is_stmt 0
	ldr	r1, [r0]
.LVL44:
	.loc 1 359 42
	mul	r3, r3, r3
.LVL45:
	.loc 1 359 55
	add	r4, r3, r3, lsl #1
.LVL46:
	.loc 1 359 26
	bic	r1, r1, r4
	.loc 1 359 105
	ldr	r2, [r2, #16]
.LVL47:
	.loc 1 359 123
	subs	r2, r2, #1
	.loc 1 359 91
	mul	r3, r2, r3
	.loc 1 359 14
	orrs	r3, r3, r1
.LVL48:
	.loc 1 360 7 is_stmt 1
	.loc 1 360 16 is_stmt 0
	str	r3, [r0]
	.loc 1 364 10
	movs	r0, #0
.LVL49:
	b	.L2
.LVL50:
.L13:
	.loc 1 355 9 is_stmt 1
	.loc 1 355 17 is_stmt 0
	ldr	r0, .L23+24
.LVL51:
	add	r0, r0, ip
.LVL52:
	.loc 1 356 9 is_stmt 1
	.loc 1 356 38 is_stmt 0
	sub	lr, lr, #16
.LVL53:
	.loc 1 356 20
	movs	r3, #1
.LVL54:
	lsl	r3, r3, lr
.LVL55:
	b	.L14
.LVL56:
.L15:
	.cfi_def_cfa_offset 0
	.cfi_restore 4
	.cfi_restore 5
	.cfi_restore 6
	.cfi_restore 7
	.cfi_restore 14
	.loc 1 182 12
	movs	r0, #1
.LVL57:
	.loc 1 365 1
	bx	lr
.L24:
	.align	2
.L23:
	.word	1476395012
	.word	1476395136
	.word	1476395140
	.word	1476396032
	.word	1476395020
	.word	1476395024
	.word	1476395028
	.cfi_endproc
.LFE335:
	.size	HAL_EXTI_SetConfigLine, .-HAL_EXTI_SetConfigLine
	.section	.text.HAL_EXTI_GetConfigLine,"ax",%progbits
	.align	1
	.global	HAL_EXTI_GetConfigLine
	.syntax unified
	.thumb
	.thumb_func
	.type	HAL_EXTI_GetConfigLine, %function
HAL_EXTI_GetConfigLine:
.LFB336:
	.loc 1 375 1 is_stmt 1
	.cfi_startproc
	@ args = 0, pretend = 0, frame = 0
	@ frame_needed = 0, uses_anonymous_args = 0
	@ link register save eliminated.
.LVL58:
	.loc 1 376 3
	.loc 1 377 3
	.loc 1 378 3
	.loc 1 379 3
	.loc 1 380 3
	.loc 1 381 3
	.loc 1 384 3
	.loc 1 384 6 is_stmt 0
	cmp	r1, #0
	it	ne
	cmpne	r0, #0
	beq	.L34
	.loc 1 375 1
	push	{r4, r5, r6}
	.cfi_def_cfa_offset 12
	.cfi_offset 4, -12
	.cfi_offset 5, -8
	.cfi_offset 6, -4
	mov	r3, r1
	.loc 1 390 3 is_stmt 1
	.loc 1 393 3
	.loc 1 393 28 is_stmt 0
	ldr	r1, [r0]
.LVL59:
	.loc 1 393 21
	str	r1, [r3]
	.loc 1 396 3 is_stmt 1
	.loc 1 396 10 is_stmt 0
	ubfx	r0, r1, #16, #2
.LVL60:
	.loc 1 397 3 is_stmt 1
	.loc 1 397 11 is_stmt 0
	and	ip, r1, #31
.LVL61:
	.loc 1 398 3 is_stmt 1
	.loc 1 398 12 is_stmt 0
	movs	r2, #1
	lsl	r2, r2, ip
.LVL62:
	.loc 1 401 3 is_stmt 1
	.loc 1 401 13 is_stmt 0
	lsls	r4, r0, #4
	.loc 1 401 11
	ldr	r5, .L43
.LVL63:
	.loc 1 402 3 is_stmt 1
	.loc 1 402 10 is_stmt 0
	ldr	r5, [r4, r5]
.LVL64:
	.loc 1 404 3 is_stmt 1
	.loc 1 404 21 is_stmt 0
	movs	r6, #0
	str	r6, [r3, #4]
	.loc 1 407 3 is_stmt 1
	.loc 1 407 6 is_stmt 0
	tst	r2, r5
	beq	.L27
	.loc 1 409 5 is_stmt 1
	.loc 1 409 23 is_stmt 0
	movs	r5, #1
.LVL65:
	str	r5, [r3, #4]
.L27:
	.loc 1 413 3 is_stmt 1
	.loc 1 413 11 is_stmt 0
	ldr	r5, .L43+4
.LVL66:
	.loc 1 414 3 is_stmt 1
	.loc 1 414 10 is_stmt 0
	ldr	r4, [r4, r5]
.LVL67:
	.loc 1 417 3 is_stmt 1
	.loc 1 417 6 is_stmt 0
	tst	r2, r4
	beq	.L28
	.loc 1 419 5 is_stmt 1
	.loc 1 419 16 is_stmt 0
	ldr	r4, [r3, #4]
.LVL68:
	.loc 1 419 23
	orr	r4, r4, #2
	str	r4, [r3, #4]
.L28:
	.loc 1 443 3 is_stmt 1
	.loc 1 443 24 is_stmt 0
	movs	r4, #0
	str	r4, [r3, #8]
	.loc 1 444 3 is_stmt 1
	.loc 1 444 24 is_stmt 0
	str	r4, [r3, #12]
	.loc 1 447 3 is_stmt 1
	.loc 1 447 6 is_stmt 0
	tst	r1, #33554432
	beq	.L29
	.loc 1 449 5 is_stmt 1
	.loc 1 449 15 is_stmt 0
	lsls	r4, r0, #5
	.loc 1 449 13
	add	r5, r4, #1476395008
.LVL69:
	.loc 1 450 5 is_stmt 1
	.loc 1 450 12 is_stmt 0
	ldr	r5, [r5]
.LVL70:
	.loc 1 453 5 is_stmt 1
	.loc 1 453 8 is_stmt 0
	tst	r2, r5
	beq	.L30
	.loc 1 455 7 is_stmt 1
	.loc 1 455 28 is_stmt 0
	movs	r5, #1
.LVL71:
	str	r5, [r3, #8]
.L30:
	.loc 1 459 5 is_stmt 1
	.loc 1 459 13 is_stmt 0
	ldr	r5, .L43+8
.LVL72:
	.loc 1 460 5 is_stmt 1
	.loc 1 460 12 is_stmt 0
	ldr	r4, [r4, r5]
.LVL73:
	.loc 1 463 5 is_stmt 1
	.loc 1 463 8 is_stmt 0
	tst	r2, r4
	beq	.L31
	.loc 1 465 7 is_stmt 1
	.loc 1 465 18 is_stmt 0
	ldr	r4, [r3, #8]
.LVL74:
	.loc 1 465 28
	orr	r4, r4, #2
	str	r4, [r3, #8]
.L31:
	.loc 1 469 5 is_stmt 1
	.loc 1 469 28 is_stmt 0
	and	r4, r1, #100663296
	.loc 1 469 8
	cmp	r4, #100663296
	beq	.L41
.LVL75:
.L29:
	.loc 1 479 3 is_stmt 1
	.loc 1 479 32 is_stmt 0
	movs	r4, #0
	str	r4, [r3, #16]
	.loc 1 482 3 is_stmt 1
	.loc 1 482 26 is_stmt 0
	and	r4, r1, #3145728
	.loc 1 482 6
	cmp	r4, #3145728
	beq	.L42
	.loc 1 503 10
	movs	r0, #0
.LVL76:
.L26:
	.loc 1 504 1
	pop	{r4, r5, r6}
	.cfi_remember_state
	.cfi_restore 6
	.cfi_restore 5
	.cfi_restore 4
	.cfi_def_cfa_offset 0
	bx	lr
.LVL77:
.L41:
	.cfi_restore_state
	.loc 1 471 7 is_stmt 1
	.loc 1 473 7
	.loc 1 473 106 is_stmt 0
	ubfx	r4, ip, #2, #2
	.loc 1 473 14
	adds	r4, r4, #2
	ldr	r5, .L43+12
.LVL78:
	ldr	r4, [r5, r4, lsl #2]
.LVL79:
	.loc 1 474 7 is_stmt 1
	.loc 1 474 58 is_stmt 0
	and	r5, r1, #3
	.loc 1 474 47
	lsls	r5, r5, #2
	.loc 1 474 38
	lsrs	r4, r4, r5
.LVL80:
	.loc 1 474 69
	and	r4, r4, #15
	.loc 1 474 28
	str	r4, [r3, #12]
	b	.L29
.LVL81:
.L42:
	.loc 1 484 5 is_stmt 1
	.loc 1 484 15 is_stmt 0
	lsls	r0, r0, #5
.LVL82:
	.loc 1 484 13
	ldr	r4, .L43+16
.LVL83:
	.loc 1 485 5 is_stmt 1
	.loc 1 485 10 is_stmt 0
	ldr	r4, [r0, r4]
.LVL84:
	.loc 1 485 7
	tst	r4, ip
	beq	.L36
	.loc 1 488 7 is_stmt 1
	.loc 1 488 9 is_stmt 0
	tst	r1, #16
	bne	.L32
	.loc 1 490 9 is_stmt 1
	.loc 1 490 17 is_stmt 0
	ldr	r1, .L43+20
.LVL85:
	add	r1, r1, r0
.LVL86:
	.loc 1 491 9 is_stmt 1
.L33:
	.loc 1 499 7
	.loc 1 499 46 is_stmt 0
	ldr	r1, [r1]
.LVL87:
	.loc 1 499 69
	mul	r2, r2, r2
.LVL88:
	.loc 1 499 82
	add	r0, r2, r2, lsl #1
	.loc 1 499 55
	ands	r1, r1, r0
	.loc 1 499 90
	udiv	r2, r1, r2
	.loc 1 499 42
	adds	r2, r2, #1
	.loc 1 499 36
	str	r2, [r3, #16]
	.loc 1 503 10
	movs	r0, #0
	b	.L26
.LVL89:
.L32:
	.loc 1 495 9 is_stmt 1
	.loc 1 495 17 is_stmt 0
	ldr	r1, .L43+24
.LVL90:
	add	r1, r1, r0
.LVL91:
	.loc 1 496 9 is_stmt 1
	.loc 1 496 38 is_stmt 0
	sub	ip, ip, #16
.LVL92:
	.loc 1 496 20
	movs	r2, #1
.LVL93:
	lsl	r2, r2, ip
.LVL94:
	b	.L33
.LVL95:
.L34:
	.cfi_def_cfa_offset 0
	.cfi_restore 4
	.cfi_restore 5
	.cfi_restore 6
	.loc 1 386 12
	movs	r0, #1
.LVL96:
	.loc 1 504 1
	bx	lr
.LVL97:
.L36:
	.cfi_def_cfa_offset 12
	.cfi_offset 4, -12
	.cfi_offset 5, -8
	.cfi_offset 6, -4
	.loc 1 503 10
	movs	r0, #0
.LVL98:
	b	.L26
.L44:
	.align	2
.L43:
	.word	1476395136
	.word	1476395140
	.word	1476395012
	.word	1476396032
	.word	1476395020
	.word	1476395024
	.word	1476395028
	.cfi_endproc
.LFE336:
	.size	HAL_EXTI_GetConfigLine, .-HAL_EXTI_GetConfigLine
	.section	.text.HAL_EXTI_ClearConfigLine,"ax",%progbits
	.align	1
	.global	HAL_EXTI_ClearConfigLine
	.syntax unified
	.thumb
	.thumb_func
	.type	HAL_EXTI_ClearConfigLine, %function
HAL_EXTI_ClearConfigLine:
.LFB337:
	.loc 1 513 1 is_stmt 1
	.cfi_startproc
	@ args = 0, pretend = 0, frame = 0
	@ frame_needed = 0, uses_anonymous_args = 0
.LVL99:
	.loc 1 514 3
	.loc 1 515 3
	.loc 1 516 3
	.loc 1 517 3
	.loc 1 518 3
	.loc 1 519 3
	.loc 1 522 3
	.loc 1 522 6 is_stmt 0
	cmp	r0, #0
	beq	.L50
	.loc 1 513 1
	push	{r4, r5, r6, r7, r8, lr}
	.cfi_def_cfa_offset 24
	.cfi_offset 4, -24
	.cfi_offset 5, -20
	.cfi_offset 6, -16
	.cfi_offset 7, -12
	.cfi_offset 8, -8
	.cfi_offset 14, -4
	mov	r1, r0
	.loc 1 528 3 is_stmt 1
	.loc 1 531 3
	.loc 1 531 19 is_stmt 0
	ldr	r5, [r0]
	.loc 1 531 10
	ubfx	r0, r5, #16, #2
.LVL100:
	.loc 1 532 3 is_stmt 1
	.loc 1 532 11 is_stmt 0
	and	lr, r5, #31
.LVL101:
	.loc 1 533 3 is_stmt 1
	.loc 1 533 12 is_stmt 0
	movs	r3, #1
	lsl	r3, r3, lr
.LVL102:
	.loc 1 536 3 is_stmt 1
	.loc 1 536 13 is_stmt 0
	lsls	r2, r0, #4
	.loc 1 536 11
	ldr	r6, .L58
.LVL103:
	.loc 1 537 3 is_stmt 1
	.loc 1 537 13 is_stmt 0
	ldr	r4, [r2, r6]
	.loc 1 537 24
	mvn	ip, r3
	.loc 1 537 10
	bic	r4, r4, r3
.LVL104:
	.loc 1 538 3 is_stmt 1
	.loc 1 538 12 is_stmt 0
	str	r4, [r2, r6]
	.loc 1 541 3 is_stmt 1
	.loc 1 541 11 is_stmt 0
	adds	r6, r6, #4
.LVL105:
	.loc 1 542 3 is_stmt 1
	.loc 1 542 13 is_stmt 0
	ldr	r4, [r2, r6]
.LVL106:
	.loc 1 542 10
	bic	r4, r4, r3
.LVL107:
	.loc 1 543 3 is_stmt 1
	.loc 1 543 12 is_stmt 0
	str	r4, [r2, r6]
	.loc 1 558 3 is_stmt 1
	.loc 1 558 13 is_stmt 0
	ldr	r2, [r1]
.LVL108:
	.loc 1 558 6
	tst	r2, #33554432
	beq	.L47
	.loc 1 560 5 is_stmt 1
	.loc 1 560 15 is_stmt 0
	lsls	r2, r0, #5
	.loc 1 560 13
	add	r6, r2, #1476395008
.LVL109:
	.loc 1 561 5 is_stmt 1
	.loc 1 561 15 is_stmt 0
	ldr	r4, [r6]
.LVL110:
	.loc 1 561 12
	and	r4, ip, r4
.LVL111:
	.loc 1 562 5 is_stmt 1
	.loc 1 562 14 is_stmt 0
	str	r4, [r6]
	.loc 1 564 5 is_stmt 1
	.loc 1 564 13 is_stmt 0
	ldr	r6, .L58+4
.LVL112:
	.loc 1 565 5 is_stmt 1
	.loc 1 565 15 is_stmt 0
	ldr	r4, [r2, r6]
.LVL113:
	.loc 1 565 12
	and	r4, ip, r4
.LVL114:
	.loc 1 566 5 is_stmt 1
	.loc 1 566 14 is_stmt 0
	str	r4, [r2, r6]
	.loc 1 569 5 is_stmt 1
	.loc 1 569 15 is_stmt 0
	ldr	r2, [r1]
.LVL115:
	.loc 1 569 22
	and	r2, r2, #100663296
	.loc 1 569 8
	cmp	r2, #100663296
	beq	.L56
.LVL116:
.L47:
	.loc 1 580 3 is_stmt 1
	.loc 1 580 13 is_stmt 0
	ldr	r2, [r1]
	.loc 1 580 20
	and	r2, r2, #3145728
	.loc 1 580 6
	cmp	r2, #3145728
	beq	.L57
	.loc 1 600 10
	movs	r0, #0
.LVL117:
.L46:
	.loc 1 601 1
	pop	{r4, r5, r6, r7, r8, pc}
.LVL118:
.L56:
	.loc 1 571 7 is_stmt 1
	.loc 1 573 7
	.loc 1 573 106 is_stmt 0
	ubfx	r2, lr, #2, #2
	.loc 1 573 14
	ldr	r7, .L58+8
	adds	r2, r2, #2
	ldr	r4, [r7, r2, lsl #2]
.LVL119:
	.loc 1 574 7 is_stmt 1
	.loc 1 574 55 is_stmt 0
	and	r8, r5, #3
	.loc 1 574 44
	lsl	r8, r8, #2
	.loc 1 574 35
	movs	r6, #15
.LVL120:
	lsl	r6, r6, r8
	.loc 1 574 14
	bic	r4, r4, r6
.LVL121:
	.loc 1 575 7 is_stmt 1
	.loc 1 575 107 is_stmt 0
	str	r4, [r7, r2, lsl #2]
	b	.L47
.LVL122:
.L57:
	.loc 1 582 5 is_stmt 1
	.loc 1 582 15 is_stmt 0
	lsls	r0, r0, #5
.LVL123:
	.loc 1 582 13
	ldr	r1, .L58+12
.LVL124:
	.loc 1 583 5 is_stmt 1
	.loc 1 583 17 is_stmt 0
	ldr	r2, [r0, r1]
	.loc 1 583 26
	and	r2, ip, r2
	.loc 1 583 14
	str	r2, [r0, r1]
	.loc 1 585 5 is_stmt 1
	.loc 1 585 7 is_stmt 0
	tst	r5, #16
	bne	.L48
	.loc 1 587 7 is_stmt 1
	.loc 1 587 15 is_stmt 0
	ldr	r2, .L58+16
	add	r2, r2, r0
.LVL125:
	.loc 1 588 7 is_stmt 1
.L49:
	.loc 1 597 5
	ldr	r1, [r2]
	.loc 1 597 31 is_stmt 0
	mul	r3, r3, r3
.LVL126:
	.loc 1 597 44
	add	r3, r3, r3, lsl #1
	.loc 1 597 14
	bic	r3, r1, r3
	str	r3, [r2]
	.loc 1 600 10
	movs	r0, #0
	b	.L46
.LVL127:
.L48:
	.loc 1 592 7 is_stmt 1
	.loc 1 592 15 is_stmt 0
	ldr	r2, .L58+20
	add	r2, r2, r0
.LVL128:
	.loc 1 593 7 is_stmt 1
	.loc 1 593 36 is_stmt 0
	sub	lr, lr, #16
.LVL129:
	.loc 1 593 18
	movs	r3, #1
.LVL130:
	lsl	r3, r3, lr
.LVL131:
	b	.L49
.LVL132:
.L50:
	.cfi_def_cfa_offset 0
	.cfi_restore 4
	.cfi_restore 5
	.cfi_restore 6
	.cfi_restore 7
	.cfi_restore 8
	.cfi_restore 14
	.loc 1 524 12
	movs	r0, #1
.LVL133:
	.loc 1 601 1
	bx	lr
.L59:
	.align	2
.L58:
	.word	1476395136
	.word	1476395012
	.word	1476396032
	.word	1476395020
	.word	1476395024
	.word	1476395028
	.cfi_endproc
.LFE337:
	.size	HAL_EXTI_ClearConfigLine, .-HAL_EXTI_ClearConfigLine
	.section	.text.HAL_EXTI_RegisterCallback,"ax",%progbits
	.align	1
	.global	HAL_EXTI_RegisterCallback
	.syntax unified
	.thumb
	.thumb_func
	.type	HAL_EXTI_RegisterCallback, %function
HAL_EXTI_RegisterCallback:
.LFB338:
	.loc 1 613 1 is_stmt 1
	.cfi_startproc
	@ args = 0, pretend = 0, frame = 0
	@ frame_needed = 0, uses_anonymous_args = 0
	@ link register save eliminated.
.LVL134:
	.loc 1 614 3
	.loc 1 617 3
	.loc 1 617 6 is_stmt 0
	cbz	r0, .L62
	.loc 1 622 3 is_stmt 1
	cbnz	r1, .L63
	.loc 1 625 7
	.loc 1 625 30 is_stmt 0
	str	r2, [r0, #4]
	.loc 1 626 7 is_stmt 1
	.loc 1 614 21 is_stmt 0
	mov	r0, r1
.LVL135:
	.loc 1 626 7
	bx	lr
.LVL136:
.L62:
	.loc 1 619 12
	movs	r0, #1
.LVL137:
	bx	lr
.LVL138:
.L63:
	.loc 1 629 14
	movs	r0, #1
.LVL139:
	.loc 1 634 1
	bx	lr
	.cfi_endproc
.LFE338:
	.size	HAL_EXTI_RegisterCallback, .-HAL_EXTI_RegisterCallback
	.section	.text.HAL_EXTI_GetHandle,"ax",%progbits
	.align	1
	.global	HAL_EXTI_GetHandle
	.syntax unified
	.thumb
	.thumb_func
	.type	HAL_EXTI_GetHandle, %function
HAL_EXTI_GetHandle:
.LFB339:
	.loc 1 645 1 is_stmt 1
	.cfi_startproc
	@ args = 0, pretend = 0, frame = 0
	@ frame_needed = 0, uses_anonymous_args = 0
	@ link register save eliminated.
.LVL140:
	.loc 1 647 3
	.loc 1 650 3
	.loc 1 650 6 is_stmt 0
	cbz	r0, .L66
	.loc 1 657 5 is_stmt 1
	.loc 1 657 17 is_stmt 0
	str	r1, [r0]
	.loc 1 659 5 is_stmt 1
	.loc 1 659 12 is_stmt 0
	movs	r0, #0
.LVL141:
	bx	lr
.LVL142:
.L66:
	.loc 1 652 12
	movs	r0, #1
.LVL143:
	.loc 1 661 1
	bx	lr
	.cfi_endproc
.LFE339:
	.size	HAL_EXTI_GetHandle, .-HAL_EXTI_GetHandle
	.section	.text.HAL_EXTI_IRQHandler,"ax",%progbits
	.align	1
	.global	HAL_EXTI_IRQHandler
	.syntax unified
	.thumb
	.thumb_func
	.type	HAL_EXTI_IRQHandler, %function
HAL_EXTI_IRQHandler:
.LFB340:
	.loc 1 686 1 is_stmt 1
	.cfi_startproc
	@ args = 0, pretend = 0, frame = 0
	@ frame_needed = 0, uses_anonymous_args = 0
.LVL144:
	push	{r4, lr}
	.cfi_def_cfa_offset 8
	.cfi_offset 4, -8
	.cfi_offset 14, -4
	.loc 1 687 3
	.loc 1 688 3
	.loc 1 689 3
	.loc 1 690 3
	.loc 1 693 3
	.loc 1 693 19 is_stmt 0
	ldr	r3, [r0]
	.loc 1 693 10
	ubfx	r2, r3, #16, #2
.LVL145:
	.loc 1 694 3 is_stmt 1
	.loc 1 694 35 is_stmt 0
	and	r3, r3, #31
	.loc 1 694 12
	movs	r1, #1
	lsls	r1, r1, r3
.LVL146:
	.loc 1 708 3 is_stmt 1
	.loc 1 708 13 is_stmt 0
	lsls	r3, r2, #4
	.loc 1 708 11
	ldr	r2, .L70
.LVL147:
	.loc 1 712 3 is_stmt 1
	.loc 1 712 13 is_stmt 0
	ldr	r4, [r3, r2]
.LVL148:
	.loc 1 714 3 is_stmt 1
	.loc 1 714 6 is_stmt 0
	tst	r4, r1
	beq	.L67
	.loc 1 717 5 is_stmt 1
	.loc 1 717 14 is_stmt 0
	str	r1, [r3, r2]
.LVL149:
	.loc 1 720 5 is_stmt 1
	.loc 1 720 14 is_stmt 0
	ldr	r3, [r0, #4]
.LVL150:
	.loc 1 720 8
	cbz	r3, .L67
	.loc 1 722 7 is_stmt 1
	blx	r3
.LVL151:
.L67:
	.loc 1 725 1 is_stmt 0
	pop	{r4, pc}
.L71:
	.align	2
.L70:
	.word	1476395144
	.cfi_endproc
.LFE340:
	.size	HAL_EXTI_IRQHandler, .-HAL_EXTI_IRQHandler
	.section	.text.HAL_EXTI_GetPending,"ax",%progbits
	.align	1
	.global	HAL_EXTI_GetPending
	.syntax unified
	.thumb
	.thumb_func
	.type	HAL_EXTI_GetPending, %function
HAL_EXTI_GetPending:
.LFB341:
	.loc 1 738 1 is_stmt 1
	.cfi_startproc
	@ args = 0, pretend = 0, frame = 0
	@ frame_needed = 0, uses_anonymous_args = 0
	@ link register save eliminated.
.LVL152:
	.loc 1 739 3
	.loc 1 740 3
	.loc 1 741 3
	.loc 1 742 3
	.loc 1 743 3
	.loc 1 746 3
	.loc 1 749 3
	.loc 1 750 3
	.loc 1 751 3
	.loc 1 754 3
	.loc 1 754 19 is_stmt 0
	ldr	r3, [r0]
	.loc 1 754 10
	ubfx	r1, r3, #16, #2
.LVL153:
	.loc 1 755 3 is_stmt 1
	.loc 1 755 11 is_stmt 0
	and	r3, r3, #31
.LVL154:
	.loc 1 756 3 is_stmt 1
	.loc 1 756 12 is_stmt 0
	movs	r2, #1
	lsls	r2, r2, r3
.LVL155:
	.loc 1 770 3 is_stmt 1
	.loc 1 770 13 is_stmt 0
	lsls	r1, r1, #4
.LVL156:
	.loc 1 770 11
	ldr	r0, .L73
.LVL157:
	.loc 1 774 3 is_stmt 1
	.loc 1 774 14 is_stmt 0
	ldr	r0, [r1, r0]
.LVL158:
	.loc 1 774 23
	ands	r0, r0, r2
.LVL159:
	.loc 1 775 3 is_stmt 1
	.loc 1 776 1 is_stmt 0
	lsrs	r0, r0, r3
.LVL160:
	bx	lr
.L74:
	.align	2
.L73:
	.word	1476395144
	.cfi_endproc
.LFE341:
	.size	HAL_EXTI_GetPending, .-HAL_EXTI_GetPending
	.section	.text.HAL_EXTI_ClearPending,"ax",%progbits
	.align	1
	.global	HAL_EXTI_ClearPending
	.syntax unified
	.thumb
	.thumb_func
	.type	HAL_EXTI_ClearPending, %function
HAL_EXTI_ClearPending:
.LFB342:
	.loc 1 789 1 is_stmt 1
	.cfi_startproc
	@ args = 0, pretend = 0, frame = 0
	@ frame_needed = 0, uses_anonymous_args = 0
	@ link register save eliminated.
.LVL161:
	.loc 1 790 3
	.loc 1 791 3
	.loc 1 792 3
	.loc 1 795 3
	.loc 1 798 3
	.loc 1 799 3
	.loc 1 800 3
	.loc 1 803 3
	.loc 1 803 19 is_stmt 0
	ldr	r3, [r0]
	.loc 1 803 10
	ubfx	r2, r3, #16, #2
.LVL162:
	.loc 1 804 3 is_stmt 1
	.loc 1 804 35 is_stmt 0
	and	r3, r3, #31
	.loc 1 804 12
	movs	r1, #1
.LVL163:
	lsls	r1, r1, r3
.LVL164:
	.loc 1 818 3 is_stmt 1
	.loc 1 818 13 is_stmt 0
	lsls	r3, r2, #4
	.loc 1 818 11
	ldr	r2, .L76
.LVL165:
	.loc 1 822 3 is_stmt 1
	.loc 1 822 12 is_stmt 0
	str	r1, [r3, r2]
.LVL166:
	.loc 1 823 1
	bx	lr
.L77:
	.align	2
.L76:
	.word	1476395144
	.cfi_endproc
.LFE342:
	.size	HAL_EXTI_ClearPending, .-HAL_EXTI_ClearPending
	.section	.text.HAL_EXTI_GenerateSWI,"ax",%progbits
	.align	1
	.global	HAL_EXTI_GenerateSWI
	.syntax unified
	.thumb
	.thumb_func
	.type	HAL_EXTI_GenerateSWI, %function
HAL_EXTI_GenerateSWI:
.LFB343:
	.loc 1 831 1 is_stmt 1
	.cfi_startproc
	@ args = 0, pretend = 0, frame = 0
	@ frame_needed = 0, uses_anonymous_args = 0
	@ link register save eliminated.
.LVL167:
	.loc 1 832 3
	.loc 1 833 3
	.loc 1 834 3
	.loc 1 837 3
	.loc 1 838 3
	.loc 1 841 3
	.loc 1 841 19 is_stmt 0
	ldr	r3, [r0]
	.loc 1 841 10
	ubfx	r2, r3, #16, #2
.LVL168:
	.loc 1 842 3 is_stmt 1
	.loc 1 842 35 is_stmt 0
	and	r3, r3, #31
	.loc 1 842 12
	movs	r1, #1
	lsls	r1, r1, r3
.LVL169:
	.loc 1 844 3 is_stmt 1
	.loc 1 844 13 is_stmt 0
	lsls	r3, r2, #5
	.loc 1 844 11
	ldr	r2, .L79
.LVL170:
	.loc 1 845 3 is_stmt 1
	.loc 1 845 12 is_stmt 0
	str	r1, [r3, r2]
.LVL171:
	.loc 1 846 1
	bx	lr
.L80:
	.align	2
.L79:
	.word	1476395016
	.cfi_endproc
.LFE343:
	.size	HAL_EXTI_GenerateSWI, .-HAL_EXTI_GenerateSWI
	.text
.Letext0:
	.file 2 "m:\\noinstall\\arm-gnu-toolchain-12.2.rel1-mingw-w64-i686-arm-none-eabi\\arm-none-eabi\\include\\machine\\_default_types.h"
	.file 3 "m:\\noinstall\\arm-gnu-toolchain-12.2.rel1-mingw-w64-i686-arm-none-eabi\\arm-none-eabi\\include\\sys\\_stdint.h"
	.file 4 "D:/RTOS/Board/YD-STM32H7xxVx_ClassicV19/cmake-build-debug/_deps/stm32h7xx_cmsis_device-src/Include/stm32h743xx.h"
	.file 5 "D:/RTOS/Board/YD-STM32H7xxVx_ClassicV19/cmake-build-debug/_deps/stm32h7xx_hal_driver-src/Inc/stm32h7xx_hal_def.h"
	.file 6 "D:/RTOS/Board/YD-STM32H7xxVx_ClassicV19/cmake-build-debug/_deps/stm32h7xx_hal_driver-src/Inc/stm32h7xx_hal_exti.h"