	.cpu cortex-m7
	.arch armv7e-m
	.fpu fpv5-d16
	.eabi_attribute 28, 1
	.eabi_attribute 20, 1
	.eabi_attribute 21, 1
	.eabi_attribute 23, 3
	.eabi_attribute 24, 1
	.eabi_attribute 25, 1
	.eabi_attribute 26, 1
	.eabi_attribute 30, 1
	.eabi_attribute 34, 1
	.eabi_attribute 18, 4
	.file	"stm32h7xx_hal_irda.c"
	.text
.Ltext0:
	.cfi_sections	.debug_frame
	.file 1 "D:/RTOS/Board/YD-STM32H7xxVx_ClassicV19/cmake-build-debug/_deps/stm32h7xx_hal_driver-src/Src/stm32h7xx_hal_irda.c"
	.section	.text.IRDA_EndTxTransfer,"ax",%progbits
	.align	1
	.syntax unified
	.thumb
	.thumb_func
	.type	IRDA_EndTxTransfer, %function
IRDA_EndTxTransfer:
.LFB368:
	.loc 1 2432 1
	.cfi_startproc
	@ args = 0, pretend = 0, frame = 0
	@ frame_needed = 0, uses_anonymous_args = 0
	@ link register save eliminated.
.LVL0:
	.loc 1 2434 3
	.loc 1 2434 10 is_stmt 0
	ldr	r2, [r0]
	.loc 1 2434 20
	ldr	r3, [r2]
	.loc 1 2434 27
	bic	r3, r3, #192
	str	r3, [r2]
	.loc 1 2437 3 is_stmt 1
	.loc 1 2437 17 is_stmt 0
	movs	r3, #32
	str	r3, [r0, #60]
	.loc 1 2438 1
	bx	lr
	.cfi_endproc
.LFE368:
	.size	IRDA_EndTxTransfer, .-IRDA_EndTxTransfer
	.section	.text.IRDA_EndRxTransfer,"ax",%progbits
	.align	1
	.syntax unified
	.thumb
	.thumb_func
	.type	IRDA_EndRxTransfer, %function
IRDA_EndRxTransfer:
.LFB369:
	.loc 1 2447 1 is_stmt 1
	.cfi_startproc
	@ args = 0, pretend = 0, frame = 0
	@ frame_needed = 0, uses_anonymous_args = 0
	@ link register save eliminated.
.LVL1:
	.loc 1 2449 3
	.loc 1 2449 10 is_stmt 0
	ldr	r2, [r0]
	.loc 1 2449 20
	ldr	r3, [r2]
	.loc 1 2449 27
	bic	r3, r3, #288
	str	r3, [r2]
	.loc 1 2450 3 is_stmt 1
	.loc 1 2450 10 is_stmt 0
	ldr	r2, [r0]
	.loc 1 2450 20
	ldr	r3, [r2, #8]
	.loc 1 2450 27
	bic	r3, r3, #1
	str	r3, [r2, #8]
	.loc 1 2453 3 is_stmt 1
	.loc 1 2453 18 is_stmt 0
	movs	r3, #32
	str	r3, [r0, #64]
	.loc 1 2454 1
	bx	lr
	.cfi_endproc
.LFE369:
	.size	IRDA_EndRxTransfer, .-IRDA_EndRxTransfer
	.section	.text.IRDA_Transmit_IT,"ax",%progbits
	.align	1
	.syntax unified
	.thumb
	.thumb_func
	.type	IRDA_Transmit_IT, %function
IRDA_Transmit_IT:
.LFB380:
	.loc 1 2790 1 is_stmt 1
	.cfi_startproc
	@ args = 0, pretend = 0, frame = 0
	@ frame_needed = 0, uses_anonymous_args = 0
	@ link register save eliminated.
.LVL2:
	.loc 1 2791 3
	.loc 1 2794 3
	.loc 1 2794 12 is_stmt 0
	ldr	r3, [r0, #60]
	.loc 1 2794 6
	cmp	r3, #33
	beq	.L8
.L3:
	.loc 1 2820 1
	bx	lr
.L8:
	.loc 1 2796 5 is_stmt 1
	.loc 1 2796 14 is_stmt 0
	ldrh	r3, [r0, #34]
	uxth	r3, r3
	.loc 1 2796 8
	cbnz	r3, .L5
	.loc 1 2799 7 is_stmt 1
	.loc 1 2799 14 is_stmt 0
	ldr	r2, [r0]
	.loc 1 2799 24
	ldr	r3, [r2]
	.loc 1 2799 31
	bic	r3, r3, #128
	str	r3, [r2]
	.loc 1 2802 7 is_stmt 1
	.loc 1 2802 14 is_stmt 0
	ldr	r2, [r0]
	.loc 1 2802 24
	ldr	r3, [r2]
	.loc 1 2802 31
	orr	r3, r3, #64
	str	r3, [r2]
	bx	lr
.L5:
	.loc 1 2806 7 is_stmt 1
	.loc 1 2806 23 is_stmt 0
	ldr	r3, [r0, #8]
	.loc 1 2806 10
	cmp	r3, #4096
	beq	.L9
.L6:
	.loc 1 2814 9 is_stmt 1
	.loc 1 2814 48 is_stmt 0
	ldr	r3, [r0, #28]
	.loc 1 2814 42
	ldrb	r2, [r3]	@ zero_extendqisi2
	.loc 1 2814 14
	ldr	r3, [r0]
	.loc 1 2814 30
	str	r2, [r3, #40]
	.loc 1 2815 9 is_stmt 1
	.loc 1 2815 14 is_stmt 0
	ldr	r3, [r0, #28]
	.loc 1 2815 26
	adds	r3, r3, #1
	str	r3, [r0, #28]
.L7:
	.loc 1 2817 7 is_stmt 1
	.loc 1 2817 12 is_stmt 0
	ldrh	r3, [r0, #34]
	uxth	r3, r3
	.loc 1 2817 25
	subs	r3, r3, #1
	uxth	r3, r3
	strh	r3, [r0, #34]	@ movhi
	.loc 1 2820 1
	b	.L3
.L9:
	.loc 1 2806 71 discriminator 1
	ldr	r3, [r0, #12]
	.loc 1 2806 56 discriminator 1
	cmp	r3, #0
	bne	.L6
	.loc 1 2808 9 is_stmt 1
	.loc 1 2808 13 is_stmt 0
	ldr	r3, [r0, #28]
.LVL3:
	.loc 1 2809 9 is_stmt 1
	.loc 1 2809 43 is_stmt 0
	ldrh	r3, [r3]
.LVL4:
	.loc 1 2809 14
	ldr	r2, [r0]
	.loc 1 2809 32
	ubfx	r3, r3, #0, #9
	.loc 1 2809 30
	str	r3, [r2, #40]
.LVL5:
	.loc 1 2810 9 is_stmt 1
	.loc 1 2810 14 is_stmt 0
	ldr	r3, [r0, #28]
	.loc 1 2810 27
	adds	r3, r3, #2
	str	r3, [r0, #28]
	b	.L7
	.cfi_endproc
.LFE380:
	.size	IRDA_Transmit_IT, .-IRDA_Transmit_IT
	.section	.text.IRDA_SetConfig,"ax",%progbits
	.align	1
	.syntax unified
	.thumb
	.thumb_func
	.type	IRDA_SetConfig, %function
IRDA_SetConfig:
.LFB365:
	.loc 1 2250 1 is_stmt 1
	.cfi_startproc
	@ args = 0, pretend = 0, frame = 24
	@ frame_needed = 0, uses_anonymous_args = 0
.LVL6:
	push	{r4, lr}
	.cfi_def_cfa_offset 8
	.cfi_offset 4, -8
	.cfi_offset 14, -4
	sub	sp, sp, #24
	.cfi_def_cfa_offset 32
	mov	r4, r0
	.loc 1 2251 3
	.loc 1 2252 3
	.loc 1 2253 3
.LVL7:
	.loc 1 2254 3
	.loc 1 2255 3
	.loc 1 2256 3
	.loc 1 2257 3
	.loc 1 2260 3
	.loc 1 2261 3
	.loc 1 2262 3
	.loc 1 2263 3
	.loc 1 2264 3
	.loc 1 2265 3
	.loc 1 2266 3
	.loc 1 2273 3
	.loc 1 2273 33 is_stmt 0
	ldr	r3, [r0, #8]
	.loc 1 2273 58
	ldr	r2, [r0, #12]
	.loc 1 2273 45
	orrs	r3, r3, r2
	.loc 1 2273 79
	ldr	r2, [r0, #16]
	.loc 1 2273 10
	orrs	r2, r2, r3
.LVL8:
	.loc 1 2275 3 is_stmt 1
	.loc 1 2275 42 is_stmt 0
	ldr	r1, [r0]
	.loc 1 2275 52
	ldr	r0, [r1]
.LVL9:
	.loc 1 2275 61
	ldr	r3, .L102
	ands	r3, r3, r0
	.loc 1 2275 177
	orrs	r3, r3, r2
	.loc 1 2275 29
	str	r3, [r1]
	.loc 1 2278 3 is_stmt 1
	.loc 1 2278 42 is_stmt 0
	ldr	r2, [r4]
.LVL10:
	.loc 1 2278 52
	ldr	r3, [r2, #8]
	.loc 1 2278 61
	bic	r3, r3, #4
	.loc 1 2278 99
	ldrh	r1, [r4, #22]
	.loc 1 2278 85
	orrs	r3, r3, r1
	.loc 1 2278 29
	str	r3, [r2, #8]
	.loc 1 2283 3 is_stmt 1
	.loc 1 2283 44 is_stmt 0
	ldr	r2, [r4]
	.loc 1 2283 54
	ldr	r3, [r2, #44]
	.loc 1 2283 65
	bic	r3, r3, #15
	.loc 1 2283 103
	ldr	r1, [r4, #24]
	.loc 1 2283 89
	orrs	r3, r3, r1
	.loc 1 2283 31
	str	r3, [r2, #44]
	.loc 1 2286 3 is_stmt 1
	.loc 1 2286 43 is_stmt 0
	ldr	r2, [r4]
	.loc 1 2286 53
	ldr	r3, [r2, #16]
	.loc 1 2286 63
	bic	r3, r3, #255
	.loc 1 2286 122
	ldrb	r1, [r4, #20]	@ zero_extendqisi2
	.loc 1 2286 98
	orrs	r3, r3, r1
	.loc 1 2286 30
	str	r3, [r2, #16]
	.loc 1 2289 3 is_stmt 1
	.loc 1 2289 8
	.loc 1 2289 18 is_stmt 0
	ldr	r3, [r4]
	.loc 1 2289 10
	ldr	r2, .L102+4
	cmp	r3, r2
	beq	.L94
	.loc 1 2289 738 is_stmt 1 discriminator 2
	.loc 1 2289 740 is_stmt 0 discriminator 2
	ldr	r2, .L102+8
	cmp	r3, r2
	beq	.L95
	.loc 1 2289 1451 is_stmt 1 discriminator 11
	.loc 1 2289 1453 is_stmt 0 discriminator 11
	ldr	r2, .L102+12
	cmp	r3, r2
	beq	.L96
	.loc 1 2289 2164 is_stmt 1 discriminator 20
	.loc 1 2289 2166 is_stmt 0 discriminator 20
	ldr	r2, .L102+16
	cmp	r3, r2
	beq	.L97
	.loc 1 2289 2877 is_stmt 1 discriminator 29
	.loc 1 2289 2880 is_stmt 0 discriminator 29
	ldr	r2, .L102+20
	cmp	r3, r2
	beq	.L98
	.loc 1 2289 3591 is_stmt 1 discriminator 38
	.loc 1 2289 3593 is_stmt 0 discriminator 38
	ldr	r2, .L102+24
	cmp	r3, r2
	beq	.L99
	.loc 1 2289 0 is_stmt 1 discriminator 47
	ldr	r2, .L102+28
	cmp	r3, r2
	beq	.L100
	.loc 1 2289 0 discriminator 56
	ldr	r2, .L102+32
	cmp	r3, r2
	beq	.L101
	.loc 1 2321 11 is_stmt 0
	movs	r0, #1
	.loc 1 2290 10
	movs	r3, #0
	b	.L12
.L94:
	.loc 1 2289 100 is_stmt 1 discriminator 1
	.loc 1 2289 183 is_stmt 0 discriminator 1
	ldr	r3, .L102+36
	ldr	r3, [r3, #84]
	.loc 1 2289 108 discriminator 1
	and	r3, r3, #56
	.loc 1 2289 100 discriminator 1
	cmp	r3, #40
	bhi	.L35
	tbh	[pc, r3, lsl #1]
.L14:
	.2byte	(.L19-.L14)/2
	.2byte	(.L35-.L14)/2
	.2byte	(.L35-.L14)/2
	.2byte	(.L35-.L14)/2
	.2byte	(.L35-.L14)/2
	.2byte	(.L35-.L14)/2
	.2byte	(.L35-.L14)/2
	.2byte	(.L35-.L14)/2
	.2byte	(.L18-.L14)/2
	.2byte	(.L35-.L14)/2
	.2byte	(.L35-.L14)/2
	.2byte	(.L35-.L14)/2
	.2byte	(.L35-.L14)/2
	.2byte	(.L35-.L14)/2
	.2byte	(.L35-.L14)/2
	.2byte	(.L35-.L14)/2
	.2byte	(.L17-.L14)/2
	.2byte	(.L35-.L14)/2
	.2byte	(.L35-.L14)/2
	.2byte	(.L35-.L14)/2
	.2byte	(.L35-.L14)/2
	.2byte	(.L35-.L14)/2
	.2byte	(.L35-.L14)/2
	.2byte	(.L35-.L14)/2
	.2byte	(.L16-.L14)/2
	.2byte	(.L35-.L14)/2
	.2byte	(.L35-.L14)/2
	.2byte	(.L35-.L14)/2
	.2byte	(.L35-.L14)/2
	.2byte	(.L35-.L14)/2
	.2byte	(.L35-.L14)/2
	.2byte	(.L35-.L14)/2
	.2byte	(.L15-.L14)/2
	.2byte	(.L35-.L14)/2
	.2byte	(.L35-.L14)/2
	.2byte	(.L35-.L14)/2
	.2byte	(.L35-.L14)/2
	.2byte	(.L35-.L14)/2
	.2byte	(.L35-.L14)/2
	.2byte	(.L35-.L14)/2
	.2byte	(.L13-.L14)/2
	.p2align 1
.L95:
	.loc 1 2289 813 is_stmt 1 discriminator 10
	.loc 1 2289 896 is_stmt 0 discriminator 10
	ldr	r3, .L102+36
	ldr	r3, [r3, #84]
	.loc 1 2289 821 discriminator 10
	and	r3, r3, #7
	.loc 1 2289 813 discriminator 10
	cmp	r3, #5
	bhi	.L36
	tbh	[pc, r3, lsl #1]
.L21:
	.2byte	(.L22-.L21)/2
	.2byte	(.L18-.L21)/2
	.2byte	(.L17-.L21)/2
	.2byte	(.L16-.L21)/2
	.2byte	(.L15-.L21)/2
	.2byte	(.L13-.L21)/2
	.p2align 1
.L96:
	.loc 1 2289 1526 is_stmt 1 discriminator 19
	.loc 1 2289 1609 is_stmt 0 discriminator 19
	ldr	r3, .L102+36
	ldr	r3, [r3, #84]
	.loc 1 2289 1534 discriminator 19
	and	r3, r3, #7
	.loc 1 2289 1526 discriminator 19
	cmp	r3, #5
	bhi	.L37
	tbb	[pc, r3]
.L24:
	.byte	(.L22-.L24)/2
	.byte	(.L18-.L24)/2
	.byte	(.L17-.L24)/2
	.byte	(.L16-.L24)/2
	.byte	(.L15-.L24)/2
	.byte	(.L13-.L24)/2
	.p2align 1
.L97:
	.loc 1 2289 2239 is_stmt 1 discriminator 28
	.loc 1 2289 2322 is_stmt 0 discriminator 28
	ldr	r3, .L102+36
	ldr	r3, [r3, #84]
	.loc 1 2289 2247 discriminator 28
	and	r3, r3, #7
	.loc 1 2289 2239 discriminator 28
	cmp	r3, #5
	bhi	.L38
	tbb	[pc, r3]
.L26:
	.byte	(.L22-.L26)/2
	.byte	(.L18-.L26)/2
	.byte	(.L17-.L26)/2
	.byte	(.L16-.L26)/2
	.byte	(.L15-.L26)/2
	.byte	(.L13-.L26)/2
	.p2align 1
.L98:
	.loc 1 2289 2953 is_stmt 1 discriminator 37
	.loc 1 2289 3036 is_stmt 0 discriminator 37
	ldr	r3, .L102+36
	ldr	r3, [r3, #84]
	.loc 1 2289 2961 discriminator 37
	and	r3, r3, #7
	.loc 1 2289 2953 discriminator 37
	cmp	r3, #5
	bhi	.L39
	tbb	[pc, r3]
.L28:
	.byte	(.L22-.L28)/2
	.byte	(.L18-.L28)/2
	.byte	(.L17-.L28)/2
	.byte	(.L16-.L28)/2
	.byte	(.L15-.L28)/2
	.byte	(.L13-.L28)/2
	.p2align 1
.L99:
	.loc 1 2289 3683 is_stmt 1 discriminator 46
	.loc 1 2289 3766 is_stmt 0 discriminator 46
	ldr	r3, .L102+36
	ldr	r3, [r3, #84]
	.loc 1 2289 3691 discriminator 46
	and	r3, r3, #56
	.loc 1 2289 3683 discriminator 46
	cmp	r3, #40
	bhi	.L40
	tbb	[pc, r3]
.L30:
	.byte	(.L19-.L30)/2
	.byte	(.L40-.L30)/2
	.byte	(.L40-.L30)/2
	.byte	(.L40-.L30)/2
	.byte	(.L40-.L30)/2
	.byte	(.L40-.L30)/2
	.byte	(.L40-.L30)/2
	.byte	(.L40-.L30)/2
	.byte	(.L18-.L30)/2
	.byte	(.L40-.L30)/2
	.byte	(.L40-.L30)/2
	.byte	(.L40-.L30)/2
	.byte	(.L40-.L30)/2
	.byte	(.L40-.L30)/2
	.byte	(.L40-.L30)/2
	.byte	(.L40-.L30)/2
	.byte	(.L17-.L30)/2
	.byte	(.L40-.L30)/2
	.byte	(.L40-.L30)/2
	.byte	(.L40-.L30)/2
	.byte	(.L40-.L30)/2
	.byte	(.L40-.L30)/2
	.byte	(.L40-.L30)/2
	.byte	(.L40-.L30)/2
	.byte	(.L16-.L30)/2
	.byte	(.L40-.L30)/2
	.byte	(.L40-.L30)/2
	.byte	(.L40-.L30)/2
	.byte	(.L40-.L30)/2
	.byte	(.L40-.L30)/2
	.byte	(.L40-.L30)/2
	.byte	(.L40-.L30)/2
	.byte	(.L15-.L30)/2
	.byte	(.L40-.L30)/2
	.byte	(.L40-.L30)/2
	.byte	(.L40-.L30)/2
	.byte	(.L40-.L30)/2
	.byte	(.L40-.L30)/2
	.byte	(.L40-.L30)/2
	.byte	(.L40-.L30)/2
	.byte	(.L13-.L30)/2
	.p2align 1
.L100:
	.loc 1 2289 0 is_stmt 1 discriminator 55
	ldr	r3, .L102+36
	ldr	r3, [r3, #84]
	and	r3, r3, #7
	cmp	r3, #5
	bhi	.L41
	tbb	[pc, r3]
.L32:
	.byte	(.L22-.L32)/2
	.byte	(.L18-.L32)/2
	.byte	(.L17-.L32)/2
	.byte	(.L16-.L32)/2
	.byte	(.L15-.L32)/2
	.byte	(.L13-.L32)/2
	.p2align 1
.L101:
	.loc 1 2289 0 discriminator 64
	ldr	r3, .L102+36
	ldr	r3, [r3, #84]
	and	r3, r3, #7
	cmp	r3, #5
	bhi	.L43
	tbb	[pc, r3]
.L33:
	.byte	(.L22-.L33)/2
	.byte	(.L18-.L33)/2
	.byte	(.L17-.L33)/2
	.byte	(.L16-.L33)/2
	.byte	(.L15-.L33)/2
	.byte	(.L13-.L33)/2
	.p2align 1
.L22:
.LVL11:
	.loc 1 2294 7
	.loc 1 2294 14 is_stmt 0
	bl	HAL_RCC_GetPCLK1Freq
.LVL12:
	.loc 1 2295 7 is_stmt 1
	.loc 1 2295 64 is_stmt 0
	ldr	r2, [r4, #24]
	.loc 1 2295 51
	ldr	r3, .L102+40
	ldrh	r3, [r3, r2, lsl #1]
	.loc 1 2295 36
	udiv	r3, r0, r3
	.loc 1 2295 98
	ldr	r2, [r4, #4]
	.loc 1 2295 83
	add	r3, r3, r2, lsr #1
	.loc 1 2295 14
	udiv	r3, r3, r2
.LVL13:
	.loc 1 2296 7 is_stmt 1
	.loc 1 2253 21 is_stmt 0
	movs	r0, #0
.LVL14:
	.loc 1 2296 7
	b	.L12
.LVL15:
.L19:
	.loc 1 2298 7 is_stmt 1
	.loc 1 2298 14 is_stmt 0
	bl	HAL_RCC_GetPCLK2Freq
.LVL16:
	.loc 1 2299 7 is_stmt 1
	.loc 1 2299 64 is_stmt 0
	ldr	r2, [r4, #24]
	.loc 1 2299 51
	ldr	r3, .L102+40
	ldrh	r3, [r3, r2, lsl #1]
	.loc 1 2299 36
	udiv	r3, r0, r3
	.loc 1 2299 98
	ldr	r2, [r4, #4]
	.loc 1 2299 83
	add	r3, r3, r2, lsr #1
	.loc 1 2299 14
	udiv	r3, r3, r2
.LVL17:
	.loc 1 2300 7 is_stmt 1
	.loc 1 2253 21 is_stmt 0
	movs	r0, #0
.LVL18:
	.loc 1 2300 7
	b	.L12
.L103:
	.align	2
.L102:
	.word	-268441101
	.word	1073811456
	.word	1073759232
	.word	1073760256
	.word	1073761280
	.word	1073762304
	.word	1073812480
	.word	1073772544
	.word	1073773568
	.word	1476543488
	.word	IRDAPrescTable.0
.LVL19:
.L18:
	.loc 1 2302 7 is_stmt 1
	mov	r0, sp
	bl	HAL_RCCEx_GetPLL2ClockFreq
.LVL20:
	.loc 1 2303 7
	.loc 1 2303 88 is_stmt 0
	ldr	r2, [r4, #24]
	.loc 1 2303 75
	ldr	r3, .L104
	ldrh	r2, [r3, r2, lsl #1]
	.loc 1 2303 60
	ldr	r3, [sp, #4]
	udiv	r3, r3, r2
	.loc 1 2303 122
	ldr	r2, [r4, #4]
	.loc 1 2303 107
	add	r3, r3, r2, lsr #1
	.loc 1 2303 14
	udiv	r3, r3, r2
.LVL21:
	.loc 1 2305 7 is_stmt 1
	.loc 1 2253 21 is_stmt 0
	movs	r0, #0
	.loc 1 2305 7
	b	.L12
.LVL22:
.L17:
	.loc 1 2307 7 is_stmt 1
	add	r0, sp, #12
	bl	HAL_RCCEx_GetPLL3ClockFreq
.LVL23:
	.loc 1 2308 7
	.loc 1 2308 88 is_stmt 0
	ldr	r2, [r4, #24]
	.loc 1 2308 75
	ldr	r3, .L104
	ldrh	r2, [r3, r2, lsl #1]
	.loc 1 2308 60
	ldr	r3, [sp, #16]
	udiv	r3, r3, r2
	.loc 1 2308 122
	ldr	r2, [r4, #4]
	.loc 1 2308 107
	add	r3, r3, r2, lsr #1
	.loc 1 2308 14
	udiv	r3, r3, r2
.LVL24:
	.loc 1 2310 7 is_stmt 1
	.loc 1 2253 21 is_stmt 0
	movs	r0, #0
	.loc 1 2310 7
	b	.L12
.LVL25:
.L15:
	.loc 1 2312 7 is_stmt 1
	.loc 1 2312 71 is_stmt 0
	ldr	r2, [r4, #24]
	.loc 1 2312 58
	ldr	r3, .L104
	ldrh	r2, [r3, r2, lsl #1]
	.loc 1 2312 43
	ldr	r3, .L104+4
	udiv	r3, r3, r2
	.loc 1 2312 105
	ldr	r2, [r4, #4]
	.loc 1 2312 90
	add	r3, r3, r2, lsr #1
	.loc 1 2312 14
	udiv	r3, r3, r2
.LVL26:
	.loc 1 2313 7 is_stmt 1
	.loc 1 2253 21 is_stmt 0
	movs	r0, #0
	.loc 1 2313 7
	b	.L12
.LVL27:
.L16:
	.loc 1 2315 7 is_stmt 1
	.loc 1 2315 72 is_stmt 0
	ldr	r2, [r4, #24]
	.loc 1 2315 59
	ldr	r3, .L104
	ldrh	r2, [r3, r2, lsl #1]
	.loc 1 2315 44
	ldr	r3, .L104+8
	udiv	r3, r3, r2
	.loc 1 2315 106
	ldr	r2, [r4, #4]
	.loc 1 2315 91
	add	r3, r3, r2, lsr #1
	.loc 1 2315 14
	udiv	r3, r3, r2
.LVL28:
	.loc 1 2316 7 is_stmt 1
	.loc 1 2253 21 is_stmt 0
	movs	r0, #0
	.loc 1 2316 7
	b	.L12
.LVL29:
.L13:
	.loc 1 2318 7 is_stmt 1
	.loc 1 2318 79 is_stmt 0
	ldr	r2, [r4, #24]
	.loc 1 2318 66
	ldr	r3, .L104
	ldrh	r2, [r3, r2, lsl #1]
	.loc 1 2318 51
	mov	r3, #32768
	udiv	r3, r3, r2
	.loc 1 2318 113
	ldr	r2, [r4, #4]
	.loc 1 2318 98
	add	r3, r3, r2, lsr #1
	.loc 1 2318 14
	udiv	r3, r3, r2
.LVL30:
	.loc 1 2319 7 is_stmt 1
	.loc 1 2253 21 is_stmt 0
	movs	r0, #0
	.loc 1 2319 7
	b	.L12
.LVL31:
.L35:
	.loc 1 2289 100
	movs	r0, #1
	movs	r3, #0
.LVL32:
.L12:
	.loc 1 2326 3 is_stmt 1
	.loc 1 2326 25 is_stmt 0
	sub	r1, r3, #16
	.loc 1 2326 6
	movw	r2, #65519
	cmp	r1, r2
	bhi	.L44
	.loc 1 2328 5 is_stmt 1
	.loc 1 2328 10 is_stmt 0
	ldr	r2, [r4]
	uxth	r3, r3
.LVL33:
	.loc 1 2328 26
	str	r3, [r2, #12]
	b	.L34
.LVL34:
.L36:
	.loc 1 2289 813
	movs	r0, #1
	movs	r3, #0
	b	.L12
.L37:
	.loc 1 2289 1526
	movs	r0, #1
	movs	r3, #0
	b	.L12
.L38:
	.loc 1 2289 2239
	movs	r0, #1
	movs	r3, #0
	b	.L12
.L39:
	.loc 1 2289 2953
	movs	r0, #1
	movs	r3, #0
	b	.L12
.L40:
	.loc 1 2289 3683
	movs	r0, #1
	movs	r3, #0
	b	.L12
.L41:
	.loc 1 2289 0
	movs	r0, #1
	movs	r3, #0
	b	.L12
.L43:
	movs	r0, #1
	movs	r3, #0
	b	.L12
.LVL35:
.L44:
	.loc 1 2332 9
	movs	r0, #1
.LVL36:
.L34:
	.loc 1 2335 3 is_stmt 1
	.loc 1 2336 1 is_stmt 0
	add	sp, sp, #24
	.cfi_def_cfa_offset 8
	@ sp needed
	pop	{r4, pc}
.LVL37:
.L105:
	.align	2
.L104:
	.word	IRDAPrescTable.0
	.word	4000000
	.word	64000000
	.cfi_endproc
.LFE365:
	.size	IRDA_SetConfig, .-IRDA_SetConfig
	.section	.text.IRDA_WaitOnFlagUntilTimeout,"ax",%progbits
	.align	1
	.syntax unified
	.thumb
	.thumb_func
	.type	IRDA_WaitOnFlagUntilTimeout, %function
IRDA_WaitOnFlagUntilTimeout:
.LFB367:
	.loc 1 2398 1 is_stmt 1
	.cfi_startproc
	@ args = 4, pretend = 0, frame = 0
	@ frame_needed = 0, uses_anonymous_args = 0
.LVL38:
	push	{r3, r4, r5, r6, r7, r8, r9, lr}
	.cfi_def_cfa_offset 32
	.cfi_offset 3, -32
	.cfi_offset 4, -28
	.cfi_offset 5, -24
	.cfi_offset 6, -20
	.cfi_offset 7, -16
	.cfi_offset 8, -12
	.cfi_offset 9, -8
	.cfi_offset 14, -4
	mov	r5, r0
	mov	r7, r1
	mov	r6, r2
	mov	r9, r3
	ldr	r8, [sp, #32]
	.loc 1 2400 3
.LVL39:
.L108:
	.loc 1 2400 72
	.loc 1 2400 20 is_stmt 0
	ldr	r3, [r5]
	.loc 1 2400 30
	ldr	r4, [r3, #28]
	.loc 1 2400 63
	bics	r4, r7, r4
	ite	eq
	moveq	r4, #1
	movne	r4, #0
	.loc 1 2400 72
	cmp	r4, r6
	bne	.L113
	.loc 1 2403 5 is_stmt 1
	.loc 1 2403 8 is_stmt 0
	cmp	r8, #-1
	beq	.L108
	.loc 1 2405 7 is_stmt 1
	.loc 1 2405 13 is_stmt 0
	bl	HAL_GetTick
.LVL40:
	.loc 1 2405 27
	sub	r0, r0, r9
	.loc 1 2405 10
	cmp	r0, r8
	bhi	.L109
	.loc 1 2405 51 discriminator 1
	cmp	r8, #0
	bne	.L108
.L109:
	.loc 1 2409 9 is_stmt 1
	.loc 1 2409 16 is_stmt 0
	ldr	r2, [r5]
	.loc 1 2409 26
	ldr	r3, [r2]
	.loc 1 2409 33
	bic	r3, r3, #416
	str	r3, [r2]
	.loc 1 2410 9 is_stmt 1
	.loc 1 2410 16 is_stmt 0
	ldr	r2, [r5]
	.loc 1 2410 26
	ldr	r3, [r2, #8]
	.loc 1 2410 33
	bic	r3, r3, #1
	str	r3, [r2, #8]
	.loc 1 2412 9 is_stmt 1
	.loc 1 2412 23 is_stmt 0
	movs	r3, #32
	str	r3, [r5, #60]
	.loc 1 2413 9 is_stmt 1
	.loc 1 2413 24 is_stmt 0
	str	r3, [r5, #64]
	.loc 1 2416 9 is_stmt 1
	.loc 1 2416 13
	.loc 1 2416 27 is_stmt 0
	movs	r3, #0
	strb	r3, [r5, #56]
	.loc 1 2416 11 is_stmt 1
	.loc 1 2417 9
	.loc 1 2417 16 is_stmt 0
	movs	r0, #3
	b	.L110
.L113:
	.loc 1 2421 10
	movs	r0, #0
.L110:
	.loc 1 2422 1
	pop	{r3, r4, r5, r6, r7, r8, r9, pc}
	.cfi_endproc
.LFE367:
	.size	IRDA_WaitOnFlagUntilTimeout, .-IRDA_WaitOnFlagUntilTimeout
	.section	.text.IRDA_CheckIdleState,"ax",%progbits
	.align	1
	.syntax unified
	.thumb
	.thumb_func
	.type	IRDA_CheckIdleState, %function
IRDA_CheckIdleState:
.LFB366:
	.loc 1 2345 1 is_stmt 1
	.cfi_startproc
	@ args = 0, pretend = 0, frame = 0
	@ frame_needed = 0, uses_anonymous_args = 0
.LVL41:
	push	{r4, r5, lr}
	.cfi_def_cfa_offset 12
	.cfi_offset 4, -12
	.cfi_offset 5, -8
	.cfi_offset 14, -4
	sub	sp, sp, #12
	.cfi_def_cfa_offset 24
	mov	r4, r0
	.loc 1 2346 3
	.loc 1 2349 3
	.loc 1 2349 20 is_stmt 0
	movs	r3, #0
	str	r3, [r0, #68]
	.loc 1 2352 3 is_stmt 1
	.loc 1 2352 15 is_stmt 0
	bl	HAL_GetTick
.LVL42:
	mov	r5, r0
.LVL43:
	.loc 1 2355 3 is_stmt 1
	.loc 1 2355 13 is_stmt 0
	ldr	r2, [r4]
	.loc 1 2355 23
	ldr	r2, [r2]
	.loc 1 2355 6
	tst	r2, #8
	bne	.L121
.LVL44:
.L115:
	.loc 1 2365 3 is_stmt 1
	.loc 1 2365 13 is_stmt 0
	ldr	r3, [r4]
	.loc 1 2365 23
	ldr	r3, [r3]
	.loc 1 2365 6
	tst	r3, #4
	bne	.L122
.L117:
	.loc 1 2376 3 is_stmt 1
	.loc 1 2376 17 is_stmt 0
	movs	r3, #32
	str	r3, [r4, #60]
	.loc 1 2377 3 is_stmt 1
	.loc 1 2377 18 is_stmt 0
	str	r3, [r4, #64]
	.loc 1 2380 3 is_stmt 1
	.loc 1 2380 7
	.loc 1 2380 21 is_stmt 0
	movs	r0, #0
	strb	r0, [r4, #56]
	.loc 1 2380 5 is_stmt 1
	.loc 1 2382 3
.L116:
	.loc 1 2383 1 is_stmt 0
	add	sp, sp, #12
	.cfi_remember_state
	.cfi_def_cfa_offset 12
	@ sp needed
	pop	{r4, r5, pc}
.LVL45:
.L121:
	.cfi_restore_state
	.loc 1 2358 5 is_stmt 1
	.loc 1 2358 9 is_stmt 0
	mov	r3, #1000
	str	r3, [sp]
	mov	r3, r0
	movs	r2, #0
	mov	r1, #2097152
	mov	r0, r4
.LVL46:
	bl	IRDA_WaitOnFlagUntilTimeout
.LVL47:
	.loc 1 2358 8
	cmp	r0, #0
	beq	.L115
	.loc 1 2361 14
	movs	r0, #3
	b	.L116
.L122:
	.loc 1 2368 5 is_stmt 1
	.loc 1 2368 9 is_stmt 0
	mov	r3, #1000
	str	r3, [sp]
	mov	r3, r5
	movs	r2, #0
	mov	r1, #4194304
	mov	r0, r4
	bl	IRDA_WaitOnFlagUntilTimeout
.LVL48:
	.loc 1 2368 8
	cmp	r0, #0
	beq	.L117
	.loc 1 2371 14
	movs	r0, #3
	b	.L116
	.cfi_endproc
.LFE366:
	.size	IRDA_CheckIdleState, .-IRDA_CheckIdleState
	.section	.text.HAL_IRDA_MspInit,"ax",%progbits
	.align	1
	.weak	HAL_IRDA_MspInit
	.syntax unified
	.thumb
	.thumb_func
	.type	HAL_IRDA_MspInit, %function
HAL_IRDA_MspInit:
.LFB337:
	.loc 1 437 1 is_stmt 1
	.cfi_startproc
	@ args = 0, pretend = 0, frame = 0
	@ frame_needed = 0, uses_anonymous_args = 0
	@ link register save eliminated.
.LVL49:
	.loc 1 439 3
	.loc 1 444 1 is_stmt 0
	bx	lr
	.cfi_endproc
.LFE337:
	.size	HAL_IRDA_MspInit, .-HAL_IRDA_MspInit
	.section	.text.HAL_IRDA_Init,"ax",%progbits
	.align	1
	.global	HAL_IRDA_Init
	.syntax unified
	.thumb
	.thumb_func
	.type	HAL_IRDA_Init, %function
HAL_IRDA_Init:
.LFB335:
	.loc 1 329 1 is_stmt 1
	.cfi_startproc
	@ args = 0, pretend = 0, frame = 0
	@ frame_needed = 0, uses_anonymous_args = 0
.LVL50:
	.loc 1 331 3
	.loc 1 331 6 is_stmt 0
	cbz	r0, .L127
	.loc 1 329 1
	push	{r4, lr}
	.cfi_def_cfa_offset 8
	.cfi_offset 4, -8
	.cfi_offset 14, -4
	mov	r4, r0
	.loc 1 337 3 is_stmt 1
	.loc 1 339 3
	.loc 1 339 12 is_stmt 0
	ldr	r3, [r0, #60]
	.loc 1 339 6
	cbz	r3, .L132
.LVL51:
.L126:
	.loc 1 360 3 is_stmt 1
	.loc 1 360 17 is_stmt 0
	movs	r3, #36
	str	r3, [r4, #60]
	.loc 1 363 3 is_stmt 1
	.loc 1 363 11 is_stmt 0
	ldr	r2, [r4]
	.loc 1 363 21
	ldr	r3, [r2]
	.loc 1 363 27
	bic	r3, r3, #1
	str	r3, [r2]
	.loc 1 366 3 is_stmt 1
	.loc 1 366 7 is_stmt 0
	mov	r0, r4
	bl	IRDA_SetConfig
.LVL52:
	.loc 1 366 6
	cmp	r0, #1
	beq	.L125
	.loc 1 374 3 is_stmt 1
	.loc 1 374 10 is_stmt 0
	ldr	r2, [r4]
	.loc 1 374 20
	ldr	r3, [r2, #4]
	.loc 1 374 27
	bic	r3, r3, #30720
	str	r3, [r2, #4]
	.loc 1 375 3 is_stmt 1
	.loc 1 375 10 is_stmt 0
	ldr	r2, [r4]
	.loc 1 375 20
	ldr	r3, [r2, #8]
	.loc 1 375 27
	bic	r3, r3, #40
	str	r3, [r2, #8]
	.loc 1 378 3 is_stmt 1
	.loc 1 378 8 is_stmt 0
	ldr	r2, [r4]
	.loc 1 378 18
	ldr	r3, [r2, #8]
	.loc 1 378 24
	orr	r3, r3, #2
	str	r3, [r2, #8]
	.loc 1 381 3 is_stmt 1
	.loc 1 381 11 is_stmt 0
	ldr	r2, [r4]
	.loc 1 381 21
	ldr	r3, [r2]
	.loc 1 381 27
	orr	r3, r3, #1
	str	r3, [r2]
	.loc 1 384 3 is_stmt 1
	.loc 1 384 11 is_stmt 0
	mov	r0, r4
	bl	IRDA_CheckIdleState
.LVL53:
.L125:
	.loc 1 385 1
	pop	{r4, pc}
.LVL54:
.L132:
	.loc 1 342 5 is_stmt 1
	.loc 1 342 17 is_stmt 0
	strb	r3, [r0, #56]
	.loc 1 356 5 is_stmt 1
	bl	HAL_IRDA_MspInit
.LVL55:
	b	.L126
.LVL56:
.L127:
	.cfi_def_cfa_offset 0
	.cfi_restore 4
	.cfi_restore 14
	.loc 1 333 12 is_stmt 0
	movs	r0, #1
.LVL57:
	.loc 1 385 1
	bx	lr
	.cfi_endproc
.LFE335:
	.size	HAL_IRDA_Init, .-HAL_IRDA_Init
	.section	.text.HAL_IRDA_MspDeInit,"ax",%progbits
	.align	1
	.weak	HAL_IRDA_MspDeInit
	.syntax unified
	.thumb
	.thumb_func
	.type	HAL_IRDA_MspDeInit, %function
HAL_IRDA_MspDeInit:
.LFB338:
	.loc 1 453 1 is_stmt 1
	.cfi_startproc
	@ args = 0, pretend = 0, frame = 0
	@ frame_needed = 0, uses_anonymous_args = 0
	@ link register save eliminated.
.LVL58:
	.loc 1 455 3
	.loc 1 460 1 is_stmt 0
	bx	lr
	.cfi_endproc
.LFE338:
	.size	HAL_IRDA_MspDeInit, .-HAL_IRDA_MspDeInit
	.section	.text.HAL_IRDA_DeInit,"ax",%progbits
	.align	1
	.global	HAL_IRDA_DeInit
	.syntax unified
	.thumb
	.thumb_func
	.type	HAL_IRDA_DeInit, %function
HAL_IRDA_DeInit:
.LFB336:
	.loc 1 394 1 is_stmt 1
	.cfi_startproc
	@ args = 0, pretend = 0, frame = 0
	@ frame_needed = 0, uses_anonymous_args = 0
.LVL59:
	.loc 1 396 3
	.loc 1 396 6 is_stmt 0
	cbz	r0, .L136
	.loc 1 394 1
	push	{r4, lr}
	.cfi_def_cfa_offset 8
	.cfi_offset 4, -8
	.cfi_offset 14, -4
	mov	r4, r0
	.loc 1 402 3 is_stmt 1
	.loc 1 404 3
	.loc 1 404 17 is_stmt 0
	movs	r3, #36
	str	r3, [r0, #60]
	.loc 1 415 3 is_stmt 1
	bl	HAL_IRDA_MspDeInit
.LVL60:
	.loc 1 418 3
	.loc 1 418 11 is_stmt 0
	ldr	r2, [r4]
	.loc 1 418 21
	ldr	r3, [r2]
	.loc 1 418 27
	bic	r3, r3, #1
	str	r3, [r2]
	.loc 1 420 3 is_stmt 1
	.loc 1 420 20 is_stmt 0
	movs	r0, #0
	str	r0, [r4, #68]
	.loc 1 421 3 is_stmt 1
	.loc 1 421 17 is_stmt 0
	str	r0, [r4, #60]
	.loc 1 422 3 is_stmt 1
	.loc 1 422 18 is_stmt 0
	str	r0, [r4, #64]
	.loc 1 425 3 is_stmt 1
	.loc 1 425 7
	.loc 1 425 21 is_stmt 0
	strb	r0, [r4, #56]
	.loc 1 425 5 is_stmt 1
	.loc 1 427 3
	.loc 1 428 1 is_stmt 0
	pop	{r4, pc}
.LVL61:
.L136:
	.cfi_def_cfa_offset 0
	.cfi_restore 4
	.cfi_restore 14
	.loc 1 398 12
	movs	r0, #1
.LVL62:
	.loc 1 428 1
	bx	lr
	.cfi_endproc
.LFE336:
	.size	HAL_IRDA_DeInit, .-HAL_IRDA_DeInit
	.section	.text.HAL_IRDA_Transmit,"ax",%progbits
	.align	1
	.global	HAL_IRDA_Transmit
	.syntax unified
	.thumb
	.thumb_func
	.type	HAL_IRDA_Transmit, %function
HAL_IRDA_Transmit:
.LFB339:
	.loc 1 798 1 is_stmt 1
	.cfi_startproc
	@ args = 0, pretend = 0, frame = 0
	@ frame_needed = 0, uses_anonymous_args = 0
.LVL63:
	push	{r4, r5, r6, r7, r8, lr}
	.cfi_def_cfa_offset 24
	.cfi_offset 4, -24
	.cfi_offset 5, -20
	.cfi_offset 6, -16
	.cfi_offset 7, -12
	.cfi_offset 8, -8
	.cfi_offset 14, -4
	sub	sp, sp, #8
	.cfi_def_cfa_offset 32
	mov	r6, r3
	.loc 1 799 3
	.loc 1 800 3
	.loc 1 801 3
	.loc 1 804 3
	.loc 1 804 12 is_stmt 0
	ldr	r3, [r0, #60]
.LVL64:
	.loc 1 804 6
	cmp	r3, #32
	bne	.L148
	mov	r4, r0
	mov	r5, r1
	mov	r8, r2
	.loc 1 806 5 is_stmt 1
	.loc 1 806 8 is_stmt 0
	cmp	r2, #0
	it	ne
	cmpne	r1, #0
	beq	.L149
	.loc 1 812 5 is_stmt 1
	.loc 1 812 9
	.loc 1 812 19 is_stmt 0
	ldrb	r3, [r0, #56]	@ zero_extendqisi2
	.loc 1 812 11
	cmp	r3, #1
	beq	.L150
	.loc 1 812 69 is_stmt 1 discriminator 2
	.loc 1 812 83 is_stmt 0 discriminator 2
	movs	r3, #1
	strb	r3, [r0, #56]
	.loc 1 812 7 is_stmt 1 discriminator 2
	.loc 1 814 5 discriminator 2
	.loc 1 814 22 is_stmt 0 discriminator 2
	movs	r3, #0
	str	r3, [r0, #68]
	.loc 1 815 5 is_stmt 1 discriminator 2
	.loc 1 815 19 is_stmt 0 discriminator 2
	movs	r3, #33
	str	r3, [r0, #60]
	.loc 1 818 5 is_stmt 1 discriminator 2
	.loc 1 818 17 is_stmt 0 discriminator 2
	bl	HAL_GetTick
.LVL65:
	mov	r7, r0
.LVL66:
	.loc 1 820 5 is_stmt 1 discriminator 2
	.loc 1 820 23 is_stmt 0 discriminator 2
	strh	r8, [r4, #32]	@ movhi
	.loc 1 821 5 is_stmt 1 discriminator 2
	.loc 1 821 24 is_stmt 0 discriminator 2
	strh	r8, [r4, #34]	@ movhi
	.loc 1 824 5 is_stmt 1 discriminator 2
	.loc 1 824 21 is_stmt 0 discriminator 2
	ldr	r3, [r4, #8]
	.loc 1 824 8 discriminator 2
	cmp	r3, #4096
	beq	.L156
	.loc 1 832 19
	mov	r8, #0
	b	.L146
.L156:
	.loc 1 824 69 discriminator 1
	ldr	r3, [r4, #12]
	.loc 1 824 54 discriminator 1
	cbz	r3, .L152
	.loc 1 832 19
	mov	r8, #0
	b	.L146
.LVL67:
.L144:
	.loc 1 850 9 is_stmt 1
	.loc 1 850 42 is_stmt 0
	ldrb	r2, [r5], #1	@ zero_extendqisi2
.LVL68:
	.loc 1 850 14
	ldr	r3, [r4]
	.loc 1 850 30
	str	r2, [r3, #40]
	.loc 1 851 9 is_stmt 1
.LVL69:
.L146:
	.loc 1 835 31
	.loc 1 835 17 is_stmt 0
	ldrh	r3, [r4, #34]
	uxth	r3, r3
	.loc 1 835 31
	cbz	r3, .L157
	.loc 1 837 7 is_stmt 1
	.loc 1 837 12 is_stmt 0
	ldrh	r2, [r4, #34]
	uxth	r2, r2
	.loc 1 837 25
	subs	r2, r2, #1
	uxth	r2, r2
	strh	r2, [r4, #34]	@ movhi
	.loc 1 839 7 is_stmt 1
	.loc 1 839 11 is_stmt 0
	str	r6, [sp]
	mov	r3, r7
	movs	r2, #0
	movs	r1, #128
	mov	r0, r4
	bl	IRDA_WaitOnFlagUntilTimeout
.LVL70:
	.loc 1 839 10
	cbnz	r0, .L153
	.loc 1 843 7 is_stmt 1
	.loc 1 843 10 is_stmt 0
	cmp	r5, #0
	bne	.L144
	.loc 1 845 9 is_stmt 1
	.loc 1 845 43 is_stmt 0
	ldrh	r3, [r8], #2
.LVL71:
	.loc 1 845 14
	ldr	r2, [r4]
	.loc 1 845 32
	ubfx	r3, r3, #0, #9
	.loc 1 845 30
	str	r3, [r2, #40]
	.loc 1 846 9 is_stmt 1
.LVL72:
	b	.L146
.LVL73:
.L152:
	.loc 1 827 19 is_stmt 0
	mov	r8, r5
	.loc 1 826 18
	movs	r5, #0
.LVL74:
	b	.L146
.LVL75:
.L157:
	.loc 1 855 5 is_stmt 1
	.loc 1 855 9 is_stmt 0
	str	r6, [sp]
	mov	r3, r7
	movs	r2, #0
	movs	r1, #64
	mov	r0, r4
	bl	IRDA_WaitOnFlagUntilTimeout
.LVL76:
	.loc 1 855 8
	cbnz	r0, .L154
	.loc 1 861 5 is_stmt 1
	.loc 1 861 19 is_stmt 0
	movs	r3, #32
	str	r3, [r4, #60]
	.loc 1 864 5 is_stmt 1
	.loc 1 864 9
	.loc 1 864 23 is_stmt 0
	movs	r3, #0
	strb	r3, [r4, #56]
	.loc 1 864 7 is_stmt 1
	.loc 1 866 5
	.loc 1 866 12 is_stmt 0
	b	.L142
.LVL77:
.L148:
	.loc 1 870 12
	movs	r0, #2
.LVL78:
.L142:
	.loc 1 872 1
	add	sp, sp, #8
	.cfi_remember_state
	.cfi_def_cfa_offset 24
	@ sp needed
	pop	{r4, r5, r6, r7, r8, pc}
.LVL79:
.L149:
	.cfi_restore_state
	.loc 1 808 14
	movs	r0, #1
.LVL80:
	b	.L142
.LVL81:
.L150:
	.loc 1 812 50
	movs	r0, #2
.LVL82:
	b	.L142
.LVL83:
.L153:
	.loc 1 841 16
	movs	r0, #3
	b	.L142
.L154:
	.loc 1 857 14
	movs	r0, #3
	b	.L142
	.cfi_endproc
.LFE339:
	.size	HAL_IRDA_Transmit, .-HAL_IRDA_Transmit
	.section	.text.HAL_IRDA_Receive,"ax",%progbits
	.align	1
	.global	HAL_IRDA_Receive
	.syntax unified
	.thumb
	.thumb_func
	.type	HAL_IRDA_Receive, %function
HAL_IRDA_Receive:
.LFB340:
	.loc 1 887 1 is_stmt 1
	.cfi_startproc
	@ args = 0, pretend = 0, frame = 0
	@ frame_needed = 0, uses_anonymous_args = 0
.LVL84:
	push	{r4, r5, r6, r7, r8, r9, lr}
	.cfi_def_cfa_offset 28
	.cfi_offset 4, -28
	.cfi_offset 5, -24
	.cfi_offset 6, -20
	.cfi_offset 7, -16
	.cfi_offset 8, -12
	.cfi_offset 9, -8
	.cfi_offset 14, -4
	sub	sp, sp, #12
	.cfi_def_cfa_offset 40
	mov	r6, r3
	.loc 1 888 3
	.loc 1 889 3
	.loc 1 890 3
	.loc 1 891 3
	.loc 1 894 3
	.loc 1 894 12 is_stmt 0
	ldr	r3, [r0, #64]
.LVL85:
	.loc 1 894 6
	cmp	r3, #32
	bne	.L172
	mov	r4, r0
	mov	r5, r1
	mov	r8, r2
	.loc 1 896 5 is_stmt 1
	.loc 1 896 8 is_stmt 0
	cmp	r2, #0
	it	ne
	cmpne	r1, #0
	beq	.L173
	.loc 1 902 5 is_stmt 1
	.loc 1 902 9
	.loc 1 902 19 is_stmt 0
	ldrb	r3, [r0, #56]	@ zero_extendqisi2
	.loc 1 902 11
	cmp	r3, #1
	beq	.L174
	.loc 1 902 69 is_stmt 1 discriminator 2
	.loc 1 902 83 is_stmt 0 discriminator 2
	movs	r3, #1
	strb	r3, [r0, #56]
	.loc 1 902 7 is_stmt 1 discriminator 2
	.loc 1 904 5 discriminator 2
	.loc 1 904 22 is_stmt 0 discriminator 2
	movs	r3, #0
	str	r3, [r0, #68]
	.loc 1 905 5 is_stmt 1 discriminator 2
	.loc 1 905 20 is_stmt 0 discriminator 2
	movs	r3, #34
	str	r3, [r0, #64]
	.loc 1 908 5 is_stmt 1 discriminator 2
	.loc 1 908 17 is_stmt 0 discriminator 2
	bl	HAL_GetTick
.LVL86:
	mov	r7, r0
.LVL87:
	.loc 1 910 5 is_stmt 1 discriminator 2
	.loc 1 910 23 is_stmt 0 discriminator 2
	strh	r8, [r4, #40]	@ movhi
	.loc 1 911 5 is_stmt 1 discriminator 2
	.loc 1 911 24 is_stmt 0 discriminator 2
	strh	r8, [r4, #42]	@ movhi
	.loc 1 915 5 is_stmt 1 discriminator 2
	.loc 1 915 10 discriminator 2
	.loc 1 915 27 is_stmt 0 discriminator 2
	ldr	r3, [r4, #8]
	.loc 1 915 13 discriminator 2
	cmp	r3, #4096
	beq	.L179
	.loc 1 915 175 is_stmt 1 discriminator 2
	.loc 1 915 178 is_stmt 0 discriminator 2
	cbnz	r3, .L163
	.loc 1 915 222 is_stmt 1 discriminator 5
	.loc 1 915 239 is_stmt 0 discriminator 5
	ldr	r2, [r4, #12]
	.loc 1 915 225 discriminator 5
	cbnz	r2, .L164
	.loc 1 915 265 is_stmt 1 discriminator 7
	.loc 1 915 279 is_stmt 0 discriminator 7
	movs	r2, #255
	strh	r2, [r4, #44]	@ movhi
	b	.L162
.L179:
	.loc 1 915 62 is_stmt 1 discriminator 1
	.loc 1 915 79 is_stmt 0 discriminator 1
	ldr	r2, [r4, #12]
	.loc 1 915 65 discriminator 1
	cbnz	r2, .L161
	.loc 1 915 105 is_stmt 1 discriminator 3
	.loc 1 915 119 is_stmt 0 discriminator 3
	movw	r2, #511
	strh	r2, [r4, #44]	@ movhi
	b	.L162
.L161:
	.loc 1 915 140 is_stmt 1 discriminator 4
	.loc 1 915 154 is_stmt 0 discriminator 4
	movs	r2, #255
	strh	r2, [r4, #44]	@ movhi
	b	.L162
.L164:
	.loc 1 915 300 is_stmt 1 discriminator 8
	.loc 1 915 314 is_stmt 0 discriminator 8
	movs	r2, #127
	strh	r2, [r4, #44]	@ movhi
	b	.L162
.L163:
	.loc 1 915 335 is_stmt 1 discriminator 6
	.loc 1 915 338 is_stmt 0 discriminator 6
	cmp	r3, #268435456
	beq	.L180
	.loc 1 915 502 is_stmt 1 discriminator 10
	.loc 1 915 516 is_stmt 0 discriminator 10
	movs	r2, #0
	strh	r2, [r4, #44]	@ movhi
.L162:
	.loc 1 915 8 is_stmt 1 discriminator 13
	.loc 1 916 5 discriminator 13
	.loc 1 916 12 is_stmt 0 discriminator 13
	ldrh	r8, [r4, #44]
.LVL88:
	.loc 1 919 5 is_stmt 1 discriminator 13
	.loc 1 919 8 is_stmt 0 discriminator 13
	cmp	r3, #4096
	beq	.L181
	.loc 1 927 19
	mov	r9, #0
	b	.L168
.LVL89:
.L180:
	.loc 1 915 387 is_stmt 1 discriminator 9
	.loc 1 915 404 is_stmt 0 discriminator 9
	ldr	r2, [r4, #12]
	.loc 1 915 390 discriminator 9
	cbnz	r2, .L166
	.loc 1 915 430 is_stmt 1 discriminator 11
	.loc 1 915 444 is_stmt 0 discriminator 11
	movs	r2, #127
	strh	r2, [r4, #44]	@ movhi
	b	.L162
.L166:
	.loc 1 915 465 is_stmt 1 discriminator 12
	.loc 1 915 479 is_stmt 0 discriminator 12
	movs	r2, #63
	strh	r2, [r4, #44]	@ movhi
	b	.L162
.LVL90:
.L181:
	.loc 1 919 69 discriminator 1
	ldr	r3, [r4, #12]
	.loc 1 919 54 discriminator 1
	cbz	r3, .L176
	.loc 1 927 19
	mov	r9, #0
	b	.L168
.L176:
	.loc 1 922 19
	mov	r9, r5
	.loc 1 921 18
	movs	r5, #0
.LVL91:
	b	.L168
.LVL92:
.L183:
	.loc 1 941 9 is_stmt 1
	.loc 1 941 40 is_stmt 0
	ldr	r3, [r4]
	.loc 1 941 50
	ldr	r3, [r3, #36]
	.loc 1 941 24
	and	r3, r8, r3
	.loc 1 941 22
	strh	r3, [r9], #2	@ movhi
.LVL93:
	.loc 1 942 9 is_stmt 1
.L168:
	.loc 1 931 31
	.loc 1 931 17 is_stmt 0
	ldrh	r3, [r4, #42]
	uxth	r3, r3
	.loc 1 931 31
	cbz	r3, .L182
	.loc 1 933 7 is_stmt 1
	.loc 1 933 12 is_stmt 0
	ldrh	r2, [r4, #42]
	uxth	r2, r2
	.loc 1 933 25
	subs	r2, r2, #1
	uxth	r2, r2
	strh	r2, [r4, #42]	@ movhi
	.loc 1 935 7 is_stmt 1
	.loc 1 935 11 is_stmt 0
	str	r6, [sp]
	mov	r3, r7
	movs	r2, #0
	movs	r1, #32
	mov	r0, r4
	bl	IRDA_WaitOnFlagUntilTimeout
.LVL94:
	.loc 1 935 10
	cbnz	r0, .L177
	.loc 1 939 7 is_stmt 1
	.loc 1 939 10 is_stmt 0
	cmp	r5, #0
	beq	.L183
	.loc 1 946 9 is_stmt 1
	.loc 1 946 38 is_stmt 0
	ldr	r3, [r4]
	.loc 1 946 48
	ldr	r2, [r3, #36]
	.loc 1 946 56
	uxtb	r3, r8
	.loc 1 946 23
	ands	r3, r3, r2
	.loc 1 946 21
	strb	r3, [r5], #1
.LVL95:
	.loc 1 947 9 is_stmt 1
	b	.L168
.L182:
	.loc 1 952 5
	.loc 1 952 20 is_stmt 0
	movs	r3, #32
	str	r3, [r4, #64]
	.loc 1 955 5 is_stmt 1
	.loc 1 955 9
	.loc 1 955 23 is_stmt 0
	movs	r0, #0
	strb	r0, [r4, #56]
	.loc 1 955 7 is_stmt 1
	.loc 1 957 5
	.loc 1 957 12 is_stmt 0
	b	.L159
.LVL96:
.L172:
	.loc 1 961 12
	movs	r0, #2
.LVL97:
.L159:
	.loc 1 963 1
	add	sp, sp, #12
	.cfi_remember_state
	.cfi_def_cfa_offset 28
	@ sp needed
	pop	{r4, r5, r6, r7, r8, r9, pc}
.LVL98:
.L173:
	.cfi_restore_state
	.loc 1 898 14
	movs	r0, #1
.LVL99:
	b	.L159
.LVL100:
.L174:
	.loc 1 902 50
	movs	r0, #2
.LVL101:
	b	.L159
.LVL102:
.L177:
	.loc 1 937 16
	movs	r0, #3
	b	.L159
	.cfi_endproc
.LFE340:
	.size	HAL_IRDA_Receive, .-HAL_IRDA_Receive
	.section	.text.HAL_IRDA_Transmit_IT,"ax",%progbits
	.align	1
	.global	HAL_IRDA_Transmit_IT
	.syntax unified
	.thumb
	.thumb_func
	.type	HAL_IRDA_Transmit_IT, %function
HAL_IRDA_Transmit_IT:
.LFB341:
	.loc 1 977 1 is_stmt 1
	.cfi_startproc
	@ args = 0, pretend = 0, frame = 0
	@ frame_needed = 0, uses_anonymous_args = 0
	@ link register save eliminated.
.LVL103:
	.loc 1 979 3
	.loc 1 979 12 is_stmt 0
	ldr	r3, [r0, #60]
	.loc 1 979 6
	cmp	r3, #32
	bne	.L186
	.loc 1 981 5 is_stmt 1
	.loc 1 981 8 is_stmt 0
	cmp	r2, #0
	it	ne
	cmpne	r1, #0
	beq	.L187
	.loc 1 987 5 is_stmt 1
	.loc 1 987 9
	.loc 1 987 19 is_stmt 0
	ldrb	r3, [r0, #56]	@ zero_extendqisi2
	.loc 1 987 11
	cmp	r3, #1
	beq	.L188
	.loc 1 987 69 is_stmt 1 discriminator 2
	.loc 1 987 83 is_stmt 0 discriminator 2
	movs	r3, #1
	strb	r3, [r0, #56]
	.loc 1 987 7 is_stmt 1 discriminator 2
	.loc 1 989 5 discriminator 2
	.loc 1 989 23 is_stmt 0 discriminator 2
	str	r1, [r0, #28]
	.loc 1 990 5 is_stmt 1 discriminator 2
	.loc 1 990 23 is_stmt 0 discriminator 2
	strh	r2, [r0, #32]	@ movhi
	.loc 1 991 5 is_stmt 1 discriminator 2
	.loc 1 991 24 is_stmt 0 discriminator 2
	strh	r2, [r0, #34]	@ movhi
	.loc 1 993 5 is_stmt 1 discriminator 2
	.loc 1 993 22 is_stmt 0 discriminator 2
	movs	r3, #0
	str	r3, [r0, #68]
	.loc 1 994 5 is_stmt 1 discriminator 2
	.loc 1 994 19 is_stmt 0 discriminator 2
	movs	r2, #33
.LVL104:
	str	r2, [r0, #60]
	.loc 1 997 5 is_stmt 1 discriminator 2
	.loc 1 997 9 discriminator 2
	.loc 1 997 23 is_stmt 0 discriminator 2
	strb	r3, [r0, #56]
	.loc 1 997 7 is_stmt 1 discriminator 2
	.loc 1 1000 5 discriminator 2
	.loc 1 1000 12 is_stmt 0 discriminator 2
	ldr	r1, [r0]
.LVL105:
	.loc 1 1000 22 discriminator 2
	ldr	r2, [r1]
	.loc 1 1000 29 discriminator 2
	orr	r2, r2, #128
	str	r2, [r1]
.LVL106:
	.loc 1 1002 5 is_stmt 1 discriminator 2
	.loc 1 1002 12 is_stmt 0 discriminator 2
	mov	r0, r3
.LVL107:
	bx	lr
.LVL108:
.L186:
	.loc 1 1006 12
	movs	r0, #2
.LVL109:
	bx	lr
.LVL110:
.L187:
	.loc 1 983 14
	movs	r0, #1
.LVL111:
	bx	lr
.LVL112:
.L188:
	.loc 1 987 50
	movs	r0, #2
.LVL113:
	.loc 1 1008 1
	bx	lr
	.cfi_endproc
.LFE341:
	.size	HAL_IRDA_Transmit_IT, .-HAL_IRDA_Transmit_IT
	.section	.text.HAL_IRDA_Receive_IT,"ax",%progbits
	.align	1
	.global	HAL_IRDA_Receive_IT
	.syntax unified
	.thumb
	.thumb_func
	.type	HAL_IRDA_Receive_IT, %function
HAL_IRDA_Receive_IT:
.LFB342:
	.loc 1 1022 1 is_stmt 1
	.cfi_startproc
	@ args = 0, pretend = 0, frame = 0
	@ frame_needed = 0, uses_anonymous_args = 0
	@ link register save eliminated.
.LVL114:
	.loc 1 1024 3
	.loc 1 1024 12 is_stmt 0
	ldr	r3, [r0, #64]
	.loc 1 1024 6
	cmp	r3, #32
	bne	.L200
	.loc 1 1026 5 is_stmt 1
	.loc 1 1026 8 is_stmt 0
	cmp	r2, #0
	it	ne
	cmpne	r1, #0
	beq	.L201
	.loc 1 1032 5 is_stmt 1
	.loc 1 1032 9
	.loc 1 1032 19 is_stmt 0
	ldrb	r3, [r0, #56]	@ zero_extendqisi2
	.loc 1 1032 11
	cmp	r3, #1
	beq	.L202
	.loc 1 1032 69 is_stmt 1 discriminator 2
	.loc 1 1032 83 is_stmt 0 discriminator 2
	movs	r3, #1
	strb	r3, [r0, #56]
	.loc 1 1032 7 is_stmt 1 discriminator 2
	.loc 1 1034 5 discriminator 2
	.loc 1 1034 23 is_stmt 0 discriminator 2
	str	r1, [r0, #36]
	.loc 1 1035 5 is_stmt 1 discriminator 2
	.loc 1 1035 23 is_stmt 0 discriminator 2
	strh	r2, [r0, #40]	@ movhi
	.loc 1 1036 5 is_stmt 1 discriminator 2
	.loc 1 1036 24 is_stmt 0 discriminator 2
	strh	r2, [r0, #42]	@ movhi
	.loc 1 1040 5 is_stmt 1 discriminator 2
	.loc 1 1040 10 discriminator 2
	.loc 1 1040 27 is_stmt 0 discriminator 2
	ldr	r3, [r0, #8]
	.loc 1 1040 13 discriminator 2
	cmp	r3, #4096
	beq	.L203
	.loc 1 1040 175 is_stmt 1 discriminator 2
	.loc 1 1040 178 is_stmt 0 discriminator 2
	cbnz	r3, .L194
	.loc 1 1040 222 is_stmt 1 discriminator 5
	.loc 1 1040 239 is_stmt 0 discriminator 5
	ldr	r3, [r0, #12]
	.loc 1 1040 225 discriminator 5
	cbnz	r3, .L195
	.loc 1 1040 265 is_stmt 1 discriminator 7
	.loc 1 1040 279 is_stmt 0 discriminator 7
	movs	r3, #255
	strh	r3, [r0, #44]	@ movhi
	b	.L193
.L203:
	.loc 1 1040 62 is_stmt 1 discriminator 1
	.loc 1 1040 79 is_stmt 0 discriminator 1
	ldr	r3, [r0, #12]
	.loc 1 1040 65 discriminator 1
	cbnz	r3, .L192
	.loc 1 1040 105 is_stmt 1 discriminator 3
	.loc 1 1040 119 is_stmt 0 discriminator 3
	movw	r3, #511
	strh	r3, [r0, #44]	@ movhi
	b	.L193
.L192:
	.loc 1 1040 140 is_stmt 1 discriminator 4
	.loc 1 1040 154 is_stmt 0 discriminator 4
	movs	r3, #255
	strh	r3, [r0, #44]	@ movhi
	b	.L193
.L195:
	.loc 1 1040 300 is_stmt 1 discriminator 8
	.loc 1 1040 314 is_stmt 0 discriminator 8
	movs	r3, #127
	strh	r3, [r0, #44]	@ movhi
	b	.L193
.L194:
	.loc 1 1040 335 is_stmt 1 discriminator 6
	.loc 1 1040 338 is_stmt 0 discriminator 6
	cmp	r3, #268435456
	beq	.L204
	.loc 1 1040 502 is_stmt 1 discriminator 10
	.loc 1 1040 516 is_stmt 0 discriminator 10
	movs	r3, #0
	strh	r3, [r0, #44]	@ movhi
.L193:
	.loc 1 1040 8 is_stmt 1 discriminator 13
	.loc 1 1042 5 discriminator 13
	.loc 1 1042 22 is_stmt 0 discriminator 13
	movs	r3, #0
	str	r3, [r0, #68]
	.loc 1 1043 5 is_stmt 1 discriminator 13
	.loc 1 1043 20 is_stmt 0 discriminator 13
	movs	r2, #34
.LVL115:
	str	r2, [r0, #64]
	.loc 1 1046 5 is_stmt 1 discriminator 13
	.loc 1 1046 9 discriminator 13
	.loc 1 1046 23 is_stmt 0 discriminator 13
	strb	r3, [r0, #56]
	.loc 1 1046 7 is_stmt 1 discriminator 13
	.loc 1 1048 5 discriminator 13
	.loc 1 1048 20 is_stmt 0 discriminator 13
	ldr	r3, [r0, #12]
	.loc 1 1048 8 discriminator 13
	cbz	r3, .L198
	.loc 1 1051 7 is_stmt 1
	.loc 1 1051 14 is_stmt 0
	ldr	r2, [r0]
	.loc 1 1051 24
	ldr	r3, [r2]
	.loc 1 1051 31
	orr	r3, r3, #288
	str	r3, [r2]
.LVL116:
.L199:
	.loc 1 1060 5 is_stmt 1
	.loc 1 1060 12 is_stmt 0
	ldr	r2, [r0]
	.loc 1 1060 22
	ldr	r3, [r2, #8]
	.loc 1 1060 29
	orr	r3, r3, #1
	str	r3, [r2, #8]
	.loc 1 1062 5 is_stmt 1
	.loc 1 1062 12 is_stmt 0
	movs	r0, #0
.LVL117:
	bx	lr
.LVL118:
.L204:
	.loc 1 1040 387 is_stmt 1 discriminator 9
	.loc 1 1040 404 is_stmt 0 discriminator 9
	ldr	r3, [r0, #12]
	.loc 1 1040 390 discriminator 9
	cbnz	r3, .L197
	.loc 1 1040 430 is_stmt 1 discriminator 11
	.loc 1 1040 444 is_stmt 0 discriminator 11
	movs	r3, #127
	strh	r3, [r0, #44]	@ movhi
	b	.L193
.L197:
	.loc 1 1040 465 is_stmt 1 discriminator 12
	.loc 1 1040 479 is_stmt 0 discriminator 12
	movs	r3, #63
	strh	r3, [r0, #44]	@ movhi
	b	.L193
.LVL119:
.L198:
	.loc 1 1056 7 is_stmt 1
	.loc 1 1056 14 is_stmt 0
	ldr	r2, [r0]
	.loc 1 1056 24
	ldr	r3, [r2]
	.loc 1 1056 31
	orr	r3, r3, #32
	str	r3, [r2]
.LVL120:
	b	.L199
.LVL121:
.L200:
	.loc 1 1066 12
	movs	r0, #2
.LVL122:
	bx	lr
.LVL123:
.L201:
	.loc 1 1028 14
	movs	r0, #1
.LVL124:
	bx	lr
.LVL125:
.L202:
	.loc 1 1032 50
	movs	r0, #2
.LVL126:
	.loc 1 1068 1
	bx	lr
	.cfi_endproc
.LFE342:
	.size	HAL_IRDA_Receive_IT, .-HAL_IRDA_Receive_IT
	.section	.text.HAL_IRDA_Transmit_DMA,"ax",%progbits
	.align	1
	.global	HAL_IRDA_Transmit_DMA
	.syntax unified
	.thumb
	.thumb_func
	.type	HAL_IRDA_Transmit_DMA, %function
HAL_IRDA_Transmit_DMA:
.LFB343:
	.loc 1 1082 1 is_stmt 1
	.cfi_startproc
	@ args = 0, pretend = 0, frame = 0
	@ frame_needed = 0, uses_anonymous_args = 0
.LVL127:
	mov	r3, r2
	.loc 1 1084 3
	.loc 1 1084 12 is_stmt 0
	ldr	r2, [r0, #60]
.LVL128:
	.loc 1 1084 6
	cmp	r2, #32
	bne	.L208
	.loc 1 1082 1
	push	{r4, lr}
	.cfi_def_cfa_offset 8
	.cfi_offset 4, -8
	.cfi_offset 14, -4
	mov	r4, r0
	.loc 1 1086 5 is_stmt 1
	.loc 1 1086 8 is_stmt 0
	cmp	r3, #0
	it	ne
	cmpne	r1, #0
	beq	.L209
	.loc 1 1092 5 is_stmt 1
	.loc 1 1092 9
	.loc 1 1092 19 is_stmt 0
	ldrb	r2, [r0, #56]	@ zero_extendqisi2
	.loc 1 1092 11
	cmp	r2, #1
	beq	.L210
	.loc 1 1092 69 is_stmt 1 discriminator 2
	.loc 1 1092 83 is_stmt 0 discriminator 2
	movs	r2, #1
	strb	r2, [r0, #56]
	.loc 1 1092 7 is_stmt 1 discriminator 2
	.loc 1 1094 5 discriminator 2
	.loc 1 1094 23 is_stmt 0 discriminator 2
	str	r1, [r0, #28]
	.loc 1 1095 5 is_stmt 1 discriminator 2
	.loc 1 1095 23 is_stmt 0 discriminator 2
	strh	r3, [r0, #32]	@ movhi
	.loc 1 1096 5 is_stmt 1 discriminator 2
	.loc 1 1096 24 is_stmt 0 discriminator 2
	strh	r3, [r0, #34]	@ movhi
	.loc 1 1098 5 is_stmt 1 discriminator 2
	.loc 1 1098 22 is_stmt 0 discriminator 2
	movs	r2, #0
	str	r2, [r0, #68]
	.loc 1 1099 5 is_stmt 1 discriminator 2
	.loc 1 1099 19 is_stmt 0 discriminator 2
	movs	r1, #33
.LVL129:
	str	r1, [r0, #60]
	.loc 1 1102 5 is_stmt 1 discriminator 2
	.loc 1 1102 10 is_stmt 0 discriminator 2
	ldr	r1, [r0, #48]
	.loc 1 1102 37 discriminator 2
	ldr	r0, .L215
.LVL130:
	str	r0, [r1, #60]
.LVL131:
	.loc 1 1105 5 is_stmt 1 discriminator 2
	.loc 1 1105 10 is_stmt 0 discriminator 2
	ldr	r1, [r4, #48]
	.loc 1 1105 41 discriminator 2
	ldr	r0, .L215+4
	str	r0, [r1, #64]
	.loc 1 1108 5 is_stmt 1 discriminator 2
	.loc 1 1108 10 is_stmt 0 discriminator 2
	ldr	r1, [r4, #48]
	.loc 1 1108 38 discriminator 2
	ldr	r0, .L215+8
	str	r0, [r1, #76]
	.loc 1 1111 5 is_stmt 1 discriminator 2
	.loc 1 1111 10 is_stmt 0 discriminator 2
	ldr	r1, [r4, #48]
	.loc 1 1111 38 discriminator 2
	str	r2, [r1, #80]
	.loc 1 1114 5 is_stmt 1 discriminator 2
	.loc 1 1114 86 is_stmt 0 discriminator 2
	ldr	r2, [r4]
	.loc 1 1114 9 discriminator 2
	adds	r2, r2, #40
	ldr	r1, [r4, #28]
	ldr	r0, [r4, #48]
	bl	HAL_DMA_Start_IT
.LVL132:
	.loc 1 1114 8 discriminator 2
	cbnz	r0, .L207
	.loc 1 1117 7 is_stmt 1
	.loc 1 1117 15 is_stmt 0
	ldr	r3, [r4]
	.loc 1 1117 31
	movs	r2, #64
	str	r2, [r3, #32]
	.loc 1 1120 7 is_stmt 1
	.loc 1 1120 11
	.loc 1 1120 25 is_stmt 0
	movs	r3, #0
	strb	r3, [r4, #56]
	.loc 1 1120 9 is_stmt 1
	.loc 1 1124 7
	.loc 1 1124 14 is_stmt 0
	ldr	r2, [r4]
	.loc 1 1124 24
	ldr	r3, [r2, #8]
	.loc 1 1124 31
	orr	r3, r3, #128
	str	r3, [r2, #8]
	.loc 1 1126 7 is_stmt 1
	.loc 1 1126 14 is_stmt 0
	b	.L206
.L207:
	.loc 1 1131 7 is_stmt 1
	.loc 1 1131 24 is_stmt 0
	movs	r3, #16
	str	r3, [r4, #68]
	.loc 1 1134 7 is_stmt 1
	.loc 1 1134 11
	.loc 1 1134 25 is_stmt 0
	movs	r3, #0
	strb	r3, [r4, #56]
	.loc 1 1134 9 is_stmt 1
	.loc 1 1137 7
	.loc 1 1137 21 is_stmt 0
	movs	r3, #32
	str	r3, [r4, #60]
	.loc 1 1139 7 is_stmt 1
	.loc 1 1139 14 is_stmt 0
	movs	r0, #1
	b	.L206
.LVL133:
.L208:
	.cfi_def_cfa_offset 0
	.cfi_restore 4
	.cfi_restore 14
	.loc 1 1144 12
	movs	r0, #2
.LVL134:
	.loc 1 1146 1
	bx	lr
.LVL135:
.L209:
	.cfi_def_cfa_offset 8
	.cfi_offset 4, -8
	.cfi_offset 14, -4
	.loc 1 1088 14
	movs	r0, #1
.LVL136:
.L206:
	.loc 1 1146 1
	pop	{r4, pc}
.LVL137:
.L210:
	.loc 1 1092 50
	movs	r0, #2
.LVL138:
	b	.L206
.L216:
	.align	2
.L215:
	.word	IRDA_DMATransmitCplt
	.word	IRDA_DMATransmitHalfCplt
	.word	IRDA_DMAError
	.cfi_endproc
.LFE343:
	.size	HAL_IRDA_Transmit_DMA, .-HAL_IRDA_Transmit_DMA
	.section	.text.HAL_IRDA_Receive_DMA,"ax",%progbits
	.align	1
	.global	HAL_IRDA_Receive_DMA
	.syntax unified
	.thumb
	.thumb_func
	.type	HAL_IRDA_Receive_DMA, %function
HAL_IRDA_Receive_DMA:
.LFB344:
	.loc 1 1162 1 is_stmt 1
	.cfi_startproc
	@ args = 0, pretend = 0, frame = 0
	@ frame_needed = 0, uses_anonymous_args = 0
.LVL139:
	mov	r3, r2
	.loc 1 1164 3
	.loc 1 1164 12 is_stmt 0
	ldr	r2, [r0, #64]
.LVL140:
	.loc 1 1164 6
	cmp	r2, #32
	bne	.L221
	.loc 1 1162 1
	push	{r4, lr}
	.cfi_def_cfa_offset 8
	.cfi_offset 4, -8
	.cfi_offset 14, -4
	mov	r4, r0
	.loc 1 1166 5 is_stmt 1
	.loc 1 1166 8 is_stmt 0
	cmp	r3, #0
	it	ne
	cmpne	r1, #0
	beq	.L222
	.loc 1 1172 5 is_stmt 1
	.loc 1 1172 9
	.loc 1 1172 19 is_stmt 0
	ldrb	r2, [r0, #56]	@ zero_extendqisi2
	.loc 1 1172 11
	cmp	r2, #1
	beq	.L223
	.loc 1 1172 69 is_stmt 1 discriminator 2
	.loc 1 1172 83 is_stmt 0 discriminator 2
	movs	r2, #1
	strb	r2, [r0, #56]
	.loc 1 1172 7 is_stmt 1 discriminator 2
	.loc 1 1174 5 discriminator 2
	.loc 1 1174 23 is_stmt 0 discriminator 2
	str	r1, [r0, #36]
	.loc 1 1175 5 is_stmt 1 discriminator 2
	.loc 1 1175 23 is_stmt 0 discriminator 2
	strh	r3, [r0, #40]	@ movhi
	.loc 1 1177 5 is_stmt 1 discriminator 2
	.loc 1 1177 22 is_stmt 0 discriminator 2
	movs	r2, #0
	str	r2, [r0, #68]
	.loc 1 1178 5 is_stmt 1 discriminator 2
	.loc 1 1178 20 is_stmt 0 discriminator 2
	movs	r1, #34
.LVL141:
	str	r1, [r0, #64]
	.loc 1 1181 5 is_stmt 1 discriminator 2
	.loc 1 1181 10 is_stmt 0 discriminator 2
	ldr	r1, [r0, #52]
	.loc 1 1181 37 discriminator 2
	ldr	r0, .L228
.LVL142:
	str	r0, [r1, #60]
.LVL143:
	.loc 1 1184 5 is_stmt 1 discriminator 2
	.loc 1 1184 10 is_stmt 0 discriminator 2
	ldr	r1, [r4, #52]
	.loc 1 1184 41 discriminator 2
	ldr	r0, .L228+4
	str	r0, [r1, #64]
	.loc 1 1187 5 is_stmt 1 discriminator 2
	.loc 1 1187 10 is_stmt 0 discriminator 2
	ldr	r1, [r4, #52]
	.loc 1 1187 38 discriminator 2
	ldr	r0, .L228+8
	str	r0, [r1, #76]
	.loc 1 1190 5 is_stmt 1 discriminator 2
	.loc 1 1190 10 is_stmt 0 discriminator 2
	ldr	r1, [r4, #52]
	.loc 1 1190 38 discriminator 2
	str	r2, [r1, #80]
	.loc 1 1193 5 is_stmt 1 discriminator 2
	.loc 1 1193 57 is_stmt 0 discriminator 2
	ldr	r1, [r4]
	.loc 1 1193 9 discriminator 2
	ldr	r2, [r4, #36]
	adds	r1, r1, #36
	ldr	r0, [r4, #52]
	bl	HAL_DMA_Start_IT
.LVL144:
	.loc 1 1193 8 discriminator 2
	cbnz	r0, .L219
	.loc 1 1196 7 is_stmt 1
	.loc 1 1196 11
	.loc 1 1196 25 is_stmt 0
	strb	r0, [r4, #56]
	.loc 1 1196 9 is_stmt 1
	.loc 1 1198 7
	.loc 1 1198 22 is_stmt 0
	ldr	r3, [r4, #12]
	.loc 1 1198 10
	cbz	r3, .L220
	.loc 1 1201 9 is_stmt 1
	.loc 1 1201 16 is_stmt 0
	ldr	r2, [r4]
	.loc 1 1201 26
	ldr	r3, [r2]
	.loc 1 1201 33
	orr	r3, r3, #256
	str	r3, [r2]
.L220:
	.loc 1 1205 7 is_stmt 1
	.loc 1 1205 14 is_stmt 0
	ldr	r2, [r4]
	.loc 1 1205 24
	ldr	r3, [r2, #8]
	.loc 1 1205 31
	orr	r3, r3, #1
	str	r3, [r2, #8]
	.loc 1 1209 7 is_stmt 1
	.loc 1 1209 14 is_stmt 0
	ldr	r2, [r4]
	.loc 1 1209 24
	ldr	r3, [r2, #8]
	.loc 1 1209 31
	orr	r3, r3, #64
	str	r3, [r2, #8]
	.loc 1 1211 7 is_stmt 1
	.loc 1 1211 14 is_stmt 0
	b	.L218
.L219:
	.loc 1 1216 7 is_stmt 1
	.loc 1 1216 24 is_stmt 0
	movs	r3, #16
	str	r3, [r4, #68]
	.loc 1 1219 7 is_stmt 1
	.loc 1 1219 11
	.loc 1 1219 25 is_stmt 0
	movs	r3, #0
	strb	r3, [r4, #56]
	.loc 1 1219 9 is_stmt 1
	.loc 1 1222 7
	.loc 1 1222 22 is_stmt 0
	movs	r3, #32
	str	r3, [r4, #64]
	.loc 1 1224 7 is_stmt 1
	.loc 1 1224 14 is_stmt 0
	movs	r0, #1
	b	.L218
.LVL145:
.L221:
	.cfi_def_cfa_offset 0
	.cfi_restore 4
	.cfi_restore 14
	.loc 1 1229 12
	movs	r0, #2
.LVL146:
	.loc 1 1231 1
	bx	lr
.LVL147:
.L222:
	.cfi_def_cfa_offset 8
	.cfi_offset 4, -8
	.cfi_offset 14, -4
	.loc 1 1168 14
	movs	r0, #1
.LVL148:
.L218:
	.loc 1 1231 1
	pop	{r4, pc}
.LVL149:
.L223:
	.loc 1 1172 50
	movs	r0, #2
.LVL150:
	b	.L218
.L229:
	.align	2
.L228:
	.word	IRDA_DMAReceiveCplt
	.word	IRDA_DMAReceiveHalfCplt
	.word	IRDA_DMAError
	.cfi_endproc
.LFE344:
	.size	HAL_IRDA_Receive_DMA, .-HAL_IRDA_Receive_DMA
	.section	.text.HAL_IRDA_DMAPause,"ax",%progbits
	.align	1
	.global	HAL_IRDA_DMAPause
	.syntax unified
	.thumb
	.thumb_func
	.type	HAL_IRDA_DMAPause, %function
HAL_IRDA_DMAPause:
.LFB345:
	.loc 1 1241 1 is_stmt 1
	.cfi_startproc
	@ args = 0, pretend = 0, frame = 0
	@ frame_needed = 0, uses_anonymous_args = 0
	@ link register save eliminated.
.LVL151:
	mov	r3, r0
	.loc 1 1243 3
	.loc 1 1243 7
	.loc 1 1243 17 is_stmt 0
	ldrb	r2, [r0, #56]	@ zero_extendqisi2
	.loc 1 1243 9
	cmp	r2, #1
	beq	.L234
	.loc 1 1243 67 is_stmt 1 discriminator 2
	.loc 1 1243 81 is_stmt 0 discriminator 2
	movs	r2, #1
	strb	r2, [r0, #56]
	.loc 1 1243 5 is_stmt 1 discriminator 2
	.loc 1 1245 3 discriminator 2
	.loc 1 1245 12 is_stmt 0 discriminator 2
	ldr	r2, [r0, #60]
	.loc 1 1245 6 discriminator 2
	cmp	r2, #33
	beq	.L235
.L232:
	.loc 1 1253 3 is_stmt 1
	.loc 1 1253 12 is_stmt 0
	ldr	r2, [r3, #64]
	.loc 1 1253 6
	cmp	r2, #34
	beq	.L236
.L233:
	.loc 1 1267 3 is_stmt 1
	.loc 1 1267 7
	.loc 1 1267 21 is_stmt 0
	movs	r0, #0
.LVL152:
	strb	r0, [r3, #56]
	.loc 1 1267 5 is_stmt 1
	.loc 1 1269 3
	.loc 1 1269 10 is_stmt 0
	bx	lr
.LVL153:
.L235:
	.loc 1 1247 5 is_stmt 1
	.loc 1 1247 17 is_stmt 0
	ldr	r2, [r0]
	.loc 1 1247 27
	ldr	r1, [r2, #8]
	.loc 1 1247 8
	tst	r1, #128
	beq	.L232
	.loc 1 1250 7 is_stmt 1
	.loc 1 1250 24 is_stmt 0
	ldr	r1, [r2, #8]
	.loc 1 1250 31
	bic	r1, r1, #128
	str	r1, [r2, #8]
	b	.L232
.L236:
	.loc 1 1255 5 is_stmt 1
	.loc 1 1255 17 is_stmt 0
	ldr	r2, [r3]
	.loc 1 1255 27
	ldr	r1, [r2, #8]
	.loc 1 1255 8
	tst	r1, #64
	beq	.L233
	.loc 1 1258 7 is_stmt 1
	.loc 1 1258 24 is_stmt 0
	ldr	r1, [r2]
	.loc 1 1258 31
	bic	r1, r1, #256
	str	r1, [r2]
	.loc 1 1259 7 is_stmt 1
	.loc 1 1259 14 is_stmt 0
	ldr	r1, [r3]
	.loc 1 1259 24
	ldr	r2, [r1, #8]
	.loc 1 1259 31
	bic	r2, r2, #1
	str	r2, [r1, #8]
	.loc 1 1262 7 is_stmt 1
	.loc 1 1262 14 is_stmt 0
	ldr	r1, [r3]
	.loc 1 1262 24
	ldr	r2, [r1, #8]
	.loc 1 1262 31
	bic	r2, r2, #64
	str	r2, [r1, #8]
	b	.L233
.L234:
	.loc 1 1243 48
	movs	r0, #2
.LVL154:
	.loc 1 1270 1
	bx	lr
	.cfi_endproc
.LFE345:
	.size	HAL_IRDA_DMAPause, .-HAL_IRDA_DMAPause
	.section	.text.HAL_IRDA_DMAResume,"ax",%progbits
	.align	1
	.global	HAL_IRDA_DMAResume
	.syntax unified
	.thumb
	.thumb_func
	.type	HAL_IRDA_DMAResume, %function
HAL_IRDA_DMAResume:
.LFB346:
	.loc 1 1279 1 is_stmt 1
	.cfi_startproc
	@ args = 0, pretend = 0, frame = 0
	@ frame_needed = 0, uses_anonymous_args = 0
	@ link register save eliminated.
.LVL155:
	mov	r3, r0
	.loc 1 1281 3
	.loc 1 1281 7
	.loc 1 1281 17 is_stmt 0
	ldrb	r2, [r0, #56]	@ zero_extendqisi2
	.loc 1 1281 9
	cmp	r2, #1
	beq	.L242
	.loc 1 1281 67 is_stmt 1 discriminator 2
	.loc 1 1281 81 is_stmt 0 discriminator 2
	movs	r2, #1
	strb	r2, [r0, #56]
	.loc 1 1281 5 is_stmt 1 discriminator 2
	.loc 1 1283 3 discriminator 2
	.loc 1 1283 12 is_stmt 0 discriminator 2
	ldr	r2, [r0, #60]
	.loc 1 1283 6 discriminator 2
	cmp	r2, #33
	beq	.L243
.L239:
	.loc 1 1288 3 is_stmt 1
	.loc 1 1288 12 is_stmt 0
	ldr	r2, [r3, #64]
	.loc 1 1288 6
	cmp	r2, #34
	beq	.L244
.L240:
	.loc 1 1305 3 is_stmt 1
	.loc 1 1305 7
	.loc 1 1305 21 is_stmt 0
	movs	r0, #0
.LVL156:
	strb	r0, [r3, #56]
	.loc 1 1305 5 is_stmt 1
	.loc 1 1307 3
	.loc 1 1307 10 is_stmt 0
	bx	lr
.LVL157:
.L243:
	.loc 1 1286 5 is_stmt 1
	.loc 1 1286 12 is_stmt 0
	ldr	r1, [r0]
	.loc 1 1286 22
	ldr	r2, [r1, #8]
	.loc 1 1286 29
	orr	r2, r2, #128
	str	r2, [r1, #8]
	b	.L239
.L244:
	.loc 1 1291 5 is_stmt 1
	.loc 1 1291 15 is_stmt 0
	ldr	r2, [r3]
	.loc 1 1291 31
	movs	r1, #8
	str	r1, [r2, #32]
	.loc 1 1294 5 is_stmt 1
	.loc 1 1294 20 is_stmt 0
	ldr	r2, [r3, #12]
	.loc 1 1294 8
	cbz	r2, .L241
	.loc 1 1296 7 is_stmt 1
	.loc 1 1296 14 is_stmt 0
	ldr	r1, [r3]
	.loc 1 1296 24
	ldr	r2, [r1]
	.loc 1 1296 31
	orr	r2, r2, #256
	str	r2, [r1]
.L241:
	.loc 1 1298 5 is_stmt 1
	.loc 1 1298 12 is_stmt 0
	ldr	r1, [r3]
	.loc 1 1298 22
	ldr	r2, [r1, #8]
	.loc 1 1298 29
	orr	r2, r2, #1
	str	r2, [r1, #8]
	.loc 1 1301 5 is_stmt 1
	.loc 1 1301 12 is_stmt 0
	ldr	r1, [r3]
	.loc 1 1301 22
	ldr	r2, [r1, #8]
	.loc 1 1301 29
	orr	r2, r2, #64
	str	r2, [r1, #8]
	b	.L240
.L242:
	.loc 1 1281 48
	movs	r0, #2
.LVL158:
	.loc 1 1308 1
	bx	lr
	.cfi_endproc
.LFE346:
	.size	HAL_IRDA_DMAResume, .-HAL_IRDA_DMAResume
	.section	.text.HAL_IRDA_DMAStop,"ax",%progbits
	.align	1
	.global	HAL_IRDA_DMAStop
	.syntax unified
	.thumb
	.thumb_func
	.type	HAL_IRDA_DMAStop, %function
HAL_IRDA_DMAStop:
.LFB347:
	.loc 1 1317 1 is_stmt 1
	.cfi_startproc
	@ args = 0, pretend = 0, frame = 0
	@ frame_needed = 0, uses_anonymous_args = 0
.LVL159:
	push	{r4, lr}
	.cfi_def_cfa_offset 8
	.cfi_offset 4, -8
	.cfi_offset 14, -4
	mov	r4, r0
	.loc 1 1326 3
	.loc 1 1326 12 is_stmt 0
	ldr	r3, [r0, #60]
	.loc 1 1326 6
	cmp	r3, #33
	beq	.L253
.LVL160:
.L246:
	.loc 1 1352 3 is_stmt 1
	.loc 1 1352 12 is_stmt 0
	ldr	r3, [r4, #64]
	.loc 1 1352 6
	cmp	r3, #34
	beq	.L254
	.loc 1 1377 10
	movs	r0, #0
.L248:
	.loc 1 1378 1
	pop	{r4, pc}
.LVL161:
.L253:
	.loc 1 1328 5 is_stmt 1
	.loc 1 1328 17 is_stmt 0
	ldr	r3, [r0]
	.loc 1 1328 27
	ldr	r2, [r3, #8]
	.loc 1 1328 8
	tst	r2, #128
	beq	.L246
	.loc 1 1330 7 is_stmt 1
	.loc 1 1330 24 is_stmt 0
	ldr	r2, [r3, #8]
	.loc 1 1330 31
	bic	r2, r2, #128
	str	r2, [r3, #8]
	.loc 1 1333 7 is_stmt 1
	.loc 1 1333 16 is_stmt 0
	ldr	r0, [r0, #48]
.LVL162:
	.loc 1 1333 10
	cbz	r0, .L247
	.loc 1 1335 9 is_stmt 1
	.loc 1 1335 13 is_stmt 0
	bl	HAL_DMA_Abort
.LVL163:
	.loc 1 1335 12
	cbnz	r0, .L255
.L247:
	.loc 1 1347 7 is_stmt 1
	mov	r0, r4
	bl	IRDA_EndTxTransfer
.LVL164:
	b	.L246
.L255:
	.loc 1 1337 11
	.loc 1 1337 15 is_stmt 0
	ldr	r0, [r4, #48]
	bl	HAL_DMA_GetError
.LVL165:
	.loc 1 1337 14
	cmp	r0, #32
	bne	.L247
	.loc 1 1340 13 is_stmt 1
	.loc 1 1340 30 is_stmt 0
	movs	r3, #16
	str	r3, [r4, #68]
	.loc 1 1342 13 is_stmt 1
	.loc 1 1342 20 is_stmt 0
	movs	r0, #3
	b	.L248
.L254:
	.loc 1 1354 5 is_stmt 1
	.loc 1 1354 17 is_stmt 0
	ldr	r3, [r4]
	.loc 1 1354 27
	ldr	r2, [r3, #8]
	.loc 1 1354 8
	tst	r2, #64
	beq	.L251
	.loc 1 1356 7 is_stmt 1
	.loc 1 1356 24 is_stmt 0
	ldr	r2, [r3, #8]
	.loc 1 1356 31
	bic	r2, r2, #64
	str	r2, [r3, #8]
	.loc 1 1359 7 is_stmt 1
	.loc 1 1359 16 is_stmt 0
	ldr	r0, [r4, #52]
	.loc 1 1359 10
	cbz	r0, .L249
	.loc 1 1361 9 is_stmt 1
	.loc 1 1361 13 is_stmt 0
	bl	HAL_DMA_Abort
.LVL166:
	.loc 1 1361 12
	cbnz	r0, .L256
.L249:
	.loc 1 1373 7 is_stmt 1
	mov	r0, r4
	bl	IRDA_EndRxTransfer
.LVL167:
	.loc 1 1377 10 is_stmt 0
	movs	r0, #0
	b	.L248
.L256:
	.loc 1 1363 11 is_stmt 1
	.loc 1 1363 15 is_stmt 0
	ldr	r0, [r4, #52]
	bl	HAL_DMA_GetError
.LVL168:
	.loc 1 1363 14
	cmp	r0, #32
	bne	.L249
	.loc 1 1366 13 is_stmt 1
	.loc 1 1366 30 is_stmt 0
	movs	r3, #16
	str	r3, [r4, #68]
	.loc 1 1368 13 is_stmt 1
	.loc 1 1368 20 is_stmt 0
	movs	r0, #3
	b	.L248
.L251:
	.loc 1 1377 10
	movs	r0, #0
	b	.L248
	.cfi_endproc
.LFE347:
	.size	HAL_IRDA_DMAStop, .-HAL_IRDA_DMAStop
	.section	.text.HAL_IRDA_Abort,"ax",%progbits
	.align	1
	.global	HAL_IRDA_Abort
	.syntax unified
	.thumb
	.thumb_func
	.type	HAL_IRDA_Abort, %function
HAL_IRDA_Abort:
.LFB348:
	.loc 1 1394 1 is_stmt 1
	.cfi_startproc
	@ args = 0, pretend = 0, frame = 0
	@ frame_needed = 0, uses_anonymous_args = 0
.LVL169:
	push	{r4, lr}
	.cfi_def_cfa_offset 8
	.cfi_offset 4, -8
	.cfi_offset 14, -4
	mov	r4, r0
	.loc 1 1396 3
	.loc 1 1396 10 is_stmt 0
	ldr	r2, [r0]
	.loc 1 1396 20
	ldr	r3, [r2]
	.loc 1 1396 27
	bic	r3, r3, #480
	str	r3, [r2]
	.loc 1 1398 3 is_stmt 1
	.loc 1 1398 10 is_stmt 0
	ldr	r2, [r0]
	.loc 1 1398 20
	ldr	r3, [r2, #8]
	.loc 1 1398 27
	bic	r3, r3, #1
	str	r3, [r2, #8]
	.loc 1 1401 3 is_stmt 1
	.loc 1 1401 15 is_stmt 0
	ldr	r3, [r0]
	.loc 1 1401 25
	ldr	r2, [r3, #8]
	.loc 1 1401 6
	tst	r2, #128
	beq	.L258
	.loc 1 1403 5 is_stmt 1
	.loc 1 1403 22 is_stmt 0
	ldr	r2, [r3, #8]
	.loc 1 1403 29
	bic	r2, r2, #128
	str	r2, [r3, #8]
	.loc 1 1406 5 is_stmt 1
	.loc 1 1406 14 is_stmt 0
	ldr	r3, [r0, #48]
	.loc 1 1406 8
	cbz	r3, .L258
	.loc 1 1410 7 is_stmt 1
	.loc 1 1410 40 is_stmt 0
	movs	r2, #0
	str	r2, [r3, #80]
	.loc 1 1412 7 is_stmt 1
	.loc 1 1412 11 is_stmt 0
	ldr	r0, [r0, #48]
.LVL170:
	bl	HAL_DMA_Abort
.LVL171:
	.loc 1 1412 10
	cbnz	r0, .L262
.L258:
	.loc 1 1426 3 is_stmt 1
	.loc 1 1426 15 is_stmt 0
	ldr	r3, [r4]
	.loc 1 1426 25
	ldr	r2, [r3, #8]
	.loc 1 1426 6
	tst	r2, #64
	beq	.L260
	.loc 1 1428 5 is_stmt 1
	.loc 1 1428 22 is_stmt 0
	ldr	r2, [r3, #8]
	.loc 1 1428 29
	bic	r2, r2, #64
	str	r2, [r3, #8]
	.loc 1 1431 5 is_stmt 1
	.loc 1 1431 14 is_stmt 0
	ldr	r3, [r4, #52]
	.loc 1 1431 8
	cbz	r3, .L260
	.loc 1 1435 7 is_stmt 1
	.loc 1 1435 40 is_stmt 0
	movs	r2, #0
	str	r2, [r3, #80]
	.loc 1 1437 7 is_stmt 1
	.loc 1 1437 11 is_stmt 0
	ldr	r0, [r4, #52]
	bl	HAL_DMA_Abort
.LVL172:
	.loc 1 1437 10
	cbnz	r0, .L263
.L260:
	.loc 1 1451 3 is_stmt 1
	.loc 1 1451 22 is_stmt 0
	movs	r0, #0
	strh	r0, [r4, #34]	@ movhi
	.loc 1 1452 3 is_stmt 1
	.loc 1 1452 22 is_stmt 0
	strh	r0, [r4, #42]	@ movhi
	.loc 1 1455 3 is_stmt 1
	.loc 1 1455 11 is_stmt 0
	ldr	r3, [r4]
	.loc 1 1455 27
	movs	r2, #15
	str	r2, [r3, #32]
	.loc 1 1458 3 is_stmt 1
	.loc 1 1458 17 is_stmt 0
	movs	r3, #32
	str	r3, [r4, #60]
	.loc 1 1459 3 is_stmt 1
	.loc 1 1459 18 is_stmt 0
	str	r3, [r4, #64]
	.loc 1 1462 3 is_stmt 1
	.loc 1 1462 20 is_stmt 0
	str	r0, [r4, #68]
	.loc 1 1464 3 is_stmt 1
.L259:
	.loc 1 1465 1 is_stmt 0
	pop	{r4, pc}
.LVL173:
.L262:
	.loc 1 1414 9 is_stmt 1
	.loc 1 1414 13 is_stmt 0
	ldr	r0, [r4, #48]
	bl	HAL_DMA_GetError
.LVL174:
	.loc 1 1414 12
	cmp	r0, #32
	bne	.L258
	.loc 1 1417 11 is_stmt 1
	.loc 1 1417 28 is_stmt 0
	movs	r3, #16
	str	r3, [r4, #68]
	.loc 1 1419 11 is_stmt 1
	.loc 1 1419 18 is_stmt 0
	movs	r0, #3
	b	.L259
.L263:
	.loc 1 1439 9 is_stmt 1
	.loc 1 1439 13 is_stmt 0
	ldr	r0, [r4, #52]
	bl	HAL_DMA_GetError
.LVL175:
	.loc 1 1439 12
	cmp	r0, #32
	bne	.L260
	.loc 1 1442 11 is_stmt 1
	.loc 1 1442 28 is_stmt 0
	movs	r3, #16
	str	r3, [r4, #68]
	.loc 1 1444 11 is_stmt 1
	.loc 1 1444 18 is_stmt 0
	movs	r0, #3
	b	.L259
	.cfi_endproc
.LFE348:
	.size	HAL_IRDA_Abort, .-HAL_IRDA_Abort
	.section	.text.HAL_IRDA_AbortTransmit,"ax",%progbits
	.align	1
	.global	HAL_IRDA_AbortTransmit
	.syntax unified
	.thumb
	.thumb_func
	.type	HAL_IRDA_AbortTransmit, %function
HAL_IRDA_AbortTransmit:
.LFB349:
	.loc 1 1481 1 is_stmt 1
	.cfi_startproc
	@ args = 0, pretend = 0, frame = 0
	@ frame_needed = 0, uses_anonymous_args = 0
.LVL176:
	push	{r4, lr}
	.cfi_def_cfa_offset 8
	.cfi_offset 4, -8
	.cfi_offset 14, -4
	mov	r4, r0
	.loc 1 1483 3
	.loc 1 1483 10 is_stmt 0
	ldr	r2, [r0]
	.loc 1 1483 20
	ldr	r3, [r2]
	.loc 1 1483 27
	bic	r3, r3, #192
	str	r3, [r2]
	.loc 1 1486 3 is_stmt 1
	.loc 1 1486 15 is_stmt 0
	ldr	r3, [r0]
	.loc 1 1486 25
	ldr	r2, [r3, #8]
	.loc 1 1486 6
	tst	r2, #128
	beq	.L265
	.loc 1 1488 5 is_stmt 1
	.loc 1 1488 22 is_stmt 0
	ldr	r2, [r3, #8]
	.loc 1 1488 29
	bic	r2, r2, #128
	str	r2, [r3, #8]
	.loc 1 1491 5 is_stmt 1
	.loc 1 1491 14 is_stmt 0
	ldr	r3, [r0, #48]
	.loc 1 1491 8
	cbz	r3, .L265
	.loc 1 1495 7 is_stmt 1
	.loc 1 1495 40 is_stmt 0
	movs	r2, #0
	str	r2, [r3, #80]
	.loc 1 1497 7 is_stmt 1
	.loc 1 1497 11 is_stmt 0
	ldr	r0, [r0, #48]
.LVL177:
	bl	HAL_DMA_Abort
.LVL178:
	.loc 1 1497 10
	cbnz	r0, .L268
.L265:
	.loc 1 1511 3 is_stmt 1
	.loc 1 1511 22 is_stmt 0
	movs	r0, #0
	strh	r0, [r4, #34]	@ movhi
	.loc 1 1514 3 is_stmt 1
	.loc 1 1514 17 is_stmt 0
	movs	r3, #32
	str	r3, [r4, #60]
	.loc 1 1516 3 is_stmt 1
.L266:
	.loc 1 1517 1 is_stmt 0
	pop	{r4, pc}
.LVL179:
.L268:
	.loc 1 1499 9 is_stmt 1
	.loc 1 1499 13 is_stmt 0
	ldr	r0, [r4, #48]
	bl	HAL_DMA_GetError
.LVL180:
	.loc 1 1499 12
	cmp	r0, #32
	bne	.L265
	.loc 1 1502 11 is_stmt 1
	.loc 1 1502 28 is_stmt 0
	movs	r3, #16
	str	r3, [r4, #68]
	.loc 1 1504 11 is_stmt 1
	.loc 1 1504 18 is_stmt 0
	movs	r0, #3
	b	.L266
	.cfi_endproc
.LFE349:
	.size	HAL_IRDA_AbortTransmit, .-HAL_IRDA_AbortTransmit
	.section	.text.HAL_IRDA_AbortReceive,"ax",%progbits
	.align	1
	.global	HAL_IRDA_AbortReceive
	.syntax unified
	.thumb
	.thumb_func
	.type	HAL_IRDA_AbortReceive, %function
HAL_IRDA_AbortReceive:
.LFB350:
	.loc 1 1533 1 is_stmt 1
	.cfi_startproc
	@ args = 0, pretend = 0, frame = 0
	@ frame_needed = 0, uses_anonymous_args = 0
.LVL181:
	push	{r4, lr}
	.cfi_def_cfa_offset 8
	.cfi_offset 4, -8
	.cfi_offset 14, -4
	mov	r4, r0
	.loc 1 1535 3
	.loc 1 1535 10 is_stmt 0
	ldr	r2, [r0]
	.loc 1 1535 20
	ldr	r3, [r2]
	.loc 1 1535 27
	bic	r3, r3, #288
	str	r3, [r2]
	.loc 1 1536 3 is_stmt 1
	.loc 1 1536 10 is_stmt 0
	ldr	r2, [r0]
	.loc 1 1536 20
	ldr	r3, [r2, #8]
	.loc 1 1536 27
	bic	r3, r3, #1
	str	r3, [r2, #8]
	.loc 1 1539 3 is_stmt 1
	.loc 1 1539 15 is_stmt 0
	ldr	r3, [r0]
	.loc 1 1539 25
	ldr	r2, [r3, #8]
	.loc 1 1539 6
	tst	r2, #64
	beq	.L270
	.loc 1 1541 5 is_stmt 1
	.loc 1 1541 22 is_stmt 0
	ldr	r2, [r3, #8]
	.loc 1 1541 29
	bic	r2, r2, #64
	str	r2, [r3, #8]
	.loc 1 1544 5 is_stmt 1
	.loc 1 1544 14 is_stmt 0
	ldr	r3, [r0, #52]
	.loc 1 1544 8
	cbz	r3, .L270
	.loc 1 1548 7 is_stmt 1
	.loc 1 1548 40 is_stmt 0
	movs	r2, #0
	str	r2, [r3, #80]
	.loc 1 1550 7 is_stmt 1
	.loc 1 1550 11 is_stmt 0
	ldr	r0, [r0, #52]
.LVL182:
	bl	HAL_DMA_Abort
.LVL183:
	.loc 1 1550 10
	cbnz	r0, .L273
.L270:
	.loc 1 1564 3 is_stmt 1
	.loc 1 1564 22 is_stmt 0
	movs	r0, #0
	strh	r0, [r4, #42]	@ movhi
	.loc 1 1567 3 is_stmt 1
	.loc 1 1567 11 is_stmt 0
	ldr	r3, [r4]
	.loc 1 1567 27
	movs	r2, #15
	str	r2, [r3, #32]
	.loc 1 1570 3 is_stmt 1
	.loc 1 1570 18 is_stmt 0
	movs	r3, #32
	str	r3, [r4, #64]
	.loc 1 1572 3 is_stmt 1
.L271:
	.loc 1 1573 1 is_stmt 0
	pop	{r4, pc}
.LVL184:
.L273:
	.loc 1 1552 9 is_stmt 1
	.loc 1 1552 13 is_stmt 0
	ldr	r0, [r4, #52]
	bl	HAL_DMA_GetError
.LVL185:
	.loc 1 1552 12
	cmp	r0, #32
	bne	.L270
	.loc 1 1555 11 is_stmt 1
	.loc 1 1555 28 is_stmt 0
	movs	r3, #16
	str	r3, [r4, #68]
	.loc 1 1557 11 is_stmt 1
	.loc 1 1557 18 is_stmt 0
	movs	r0, #3
	b	.L271
	.cfi_endproc
.LFE350:
	.size	HAL_IRDA_AbortReceive, .-HAL_IRDA_AbortReceive
	.section	.text.HAL_IRDA_TxCpltCallback,"ax",%progbits
	.align	1
	.weak	HAL_IRDA_TxCpltCallback
	.syntax unified
	.thumb
	.thumb_func
	.type	HAL_IRDA_TxCpltCallback, %function
HAL_IRDA_TxCpltCallback:
.LFB355:
	.loc 1 2038 1 is_stmt 1
	.cfi_startproc
	@ args = 0, pretend = 0, frame = 0
	@ frame_needed = 0, uses_anonymous_args = 0
	@ link register save eliminated.
.LVL186:
	.loc 1 2040 3
	.loc 1 2045 1 is_stmt 0
	bx	lr
	.cfi_endproc
.LFE355:
	.size	HAL_IRDA_TxCpltCallback, .-HAL_IRDA_TxCpltCallback
	.section	.text.IRDA_DMATransmitCplt,"ax",%progbits
	.align	1
	.syntax unified
	.thumb
	.thumb_func
	.type	IRDA_DMATransmitCplt, %function
IRDA_DMATransmitCplt:
.LFB370:
	.loc 1 2464 1 is_stmt 1
	.cfi_startproc
	@ args = 0, pretend = 0, frame = 0
	@ frame_needed = 0, uses_anonymous_args = 0
.LVL187:
	push	{r3, lr}
	.cfi_def_cfa_offset 8
	.cfi_offset 3, -8
	.cfi_offset 14, -4
	.loc 1 2465 3
	.loc 1 2465 23 is_stmt 0
	ldr	r3, [r0, #56]
.LVL188:
	.loc 1 2468 3 is_stmt 1
	.loc 1 2468 17 is_stmt 0
	ldr	r2, [r0, #28]
	.loc 1 2468 6
	cmp	r2, #256
	beq	.L276
	.loc 1 2470 5 is_stmt 1
	.loc 1 2470 24 is_stmt 0
	movs	r2, #0
	strh	r2, [r3, #34]	@ movhi
	.loc 1 2474 5 is_stmt 1
	.loc 1 2474 12 is_stmt 0
	ldr	r1, [r3]
	.loc 1 2474 22
	ldr	r2, [r1, #8]
	.loc 1 2474 29
	bic	r2, r2, #128
	str	r2, [r1, #8]
	.loc 1 2477 5 is_stmt 1
	.loc 1 2477 12 is_stmt 0
	ldr	r2, [r3]
	.loc 1 2477 22
	ldr	r3, [r2]
.LVL189:
	.loc 1 2477 29
	orr	r3, r3, #64
	str	r3, [r2]
.LVL190:
.L275:
	.loc 1 2491 1
	pop	{r3, pc}
.LVL191:
.L276:
	.loc 1 2487 5 is_stmt 1
	mov	r0, r3
.LVL192:
	bl	HAL_IRDA_TxCpltCallback
.LVL193:
	.loc 1 2491 1 is_stmt 0
	b	.L275
	.cfi_endproc
.LFE370:
	.size	IRDA_DMATransmitCplt, .-IRDA_DMATransmitCplt
	.section	.text.IRDA_EndTransmit_IT,"ax",%progbits
	.align	1
	.syntax unified
	.thumb
	.thumb_func
	.type	IRDA_EndTransmit_IT, %function
IRDA_EndTransmit_IT:
.LFB381:
	.loc 1 2829 1 is_stmt 1
	.cfi_startproc
	@ args = 0, pretend = 0, frame = 0
	@ frame_needed = 0, uses_anonymous_args = 0
.LVL194:
	push	{r3, lr}
	.cfi_def_cfa_offset 8
	.cfi_offset 3, -8
	.cfi_offset 14, -4
	.loc 1 2831 3
	.loc 1 2831 10 is_stmt 0
	ldr	r1, [r0]
	.loc 1 2831 20
	ldr	r2, [r1]
	.loc 1 2831 27
	bic	r2, r2, #64
	str	r2, [r1]
	.loc 1 2834 3 is_stmt 1
	.loc 1 2834 17 is_stmt 0
	movs	r2, #32
	str	r2, [r0, #60]
	.loc 1 2841 3 is_stmt 1
	bl	HAL_IRDA_TxCpltCallback
.LVL195:
	.loc 1 2843 1 is_stmt 0
	pop	{r3, pc}
	.cfi_endproc
.LFE381:
	.size	IRDA_EndTransmit_IT, .-IRDA_EndTransmit_IT
	.section	.text.HAL_IRDA_TxHalfCpltCallback,"ax",%progbits
	.align	1
	.weak	HAL_IRDA_TxHalfCpltCallback
	.syntax unified
	.thumb
	.thumb_func
	.type	HAL_IRDA_TxHalfCpltCallback, %function
HAL_IRDA_TxHalfCpltCallback:
.LFB356:
	.loc 1 2054 1 is_stmt 1
	.cfi_startproc
	@ args = 0, pretend = 0, frame = 0
	@ frame_needed = 0, uses_anonymous_args = 0
	@ link register save eliminated.
.LVL196:
	.loc 1 2056 3
	.loc 1 2061 1 is_stmt 0
	bx	lr
	.cfi_endproc
.LFE356:
	.size	HAL_IRDA_TxHalfCpltCallback, .-HAL_IRDA_TxHalfCpltCallback
	.section	.text.IRDA_DMATransmitHalfCplt,"ax",%progbits
	.align	1
	.syntax unified
	.thumb
	.thumb_func
	.type	IRDA_DMATransmitHalfCplt, %function
IRDA_DMATransmitHalfCplt:
.LFB371:
	.loc 1 2500 1 is_stmt 1
	.cfi_startproc
	@ args = 0, pretend = 0, frame = 0
	@ frame_needed = 0, uses_anonymous_args = 0
.LVL197:
	push	{r3, lr}
	.cfi_def_cfa_offset 8
	.cfi_offset 3, -8
	.cfi_offset 14, -4
	.loc 1 2501 3
.LVL198:
	.loc 1 2508 3
	ldr	r0, [r0, #56]
.LVL199:
	bl	HAL_IRDA_TxHalfCpltCallback
.LVL200:
	.loc 1 2510 1 is_stmt 0
	pop	{r3, pc}
	.cfi_endproc
.LFE371:
	.size	IRDA_DMATransmitHalfCplt, .-IRDA_DMATransmitHalfCplt
	.section	.text.HAL_IRDA_RxCpltCallback,"ax",%progbits
	.align	1
	.weak	HAL_IRDA_RxCpltCallback
	.syntax unified
	.thumb
	.thumb_func
	.type	HAL_IRDA_RxCpltCallback, %function
HAL_IRDA_RxCpltCallback:
.LFB357:
	.loc 1 2070 1 is_stmt 1
	.cfi_startproc
	@ args = 0, pretend = 0, frame = 0
	@ frame_needed = 0, uses_anonymous_args = 0
	@ link register save eliminated.
.LVL201:
	.loc 1 2072 3
	.loc 1 2077 1 is_stmt 0
	bx	lr
	.cfi_endproc
.LFE357:
	.size	HAL_IRDA_RxCpltCallback, .-HAL_IRDA_RxCpltCallback
	.section	.text.IRDA_DMAReceiveCplt,"ax",%progbits
	.align	1
	.syntax unified
	.thumb
	.thumb_func
	.type	IRDA_DMAReceiveCplt, %function
IRDA_DMAReceiveCplt:
.LFB372:
	.loc 1 2519 1 is_stmt 1
	.cfi_startproc
	@ args = 0, pretend = 0, frame = 0
	@ frame_needed = 0, uses_anonymous_args = 0
.LVL202:
	push	{r3, lr}
	.cfi_def_cfa_offset 8
	.cfi_offset 3, -8
	.cfi_offset 14, -4
	mov	r3, r0
	.loc 1 2520 3
	.loc 1 2520 23 is_stmt 0
	ldr	r0, [r0, #56]
.LVL203:
	.loc 1 2523 3 is_stmt 1
	.loc 1 2523 17 is_stmt 0
	ldr	r3, [r3, #28]
.LVL204:
	.loc 1 2523 6
	cmp	r3, #256
	beq	.L286
	.loc 1 2525 5 is_stmt 1
	.loc 1 2525 24 is_stmt 0
	movs	r3, #0
	strh	r3, [r0, #42]	@ movhi
	.loc 1 2528 5 is_stmt 1
	.loc 1 2528 12 is_stmt 0
	ldr	r2, [r0]
	.loc 1 2528 22
	ldr	r3, [r2]
	.loc 1 2528 29
	bic	r3, r3, #256
	str	r3, [r2]
	.loc 1 2529 5 is_stmt 1
	.loc 1 2529 12 is_stmt 0
	ldr	r2, [r0]
	.loc 1 2529 22
	ldr	r3, [r2, #8]
	.loc 1 2529 29
	bic	r3, r3, #1
	str	r3, [r2, #8]
	.loc 1 2533 5 is_stmt 1
	.loc 1 2533 12 is_stmt 0
	ldr	r2, [r0]
	.loc 1 2533 22
	ldr	r3, [r2, #8]
	.loc 1 2533 29
	bic	r3, r3, #64
	str	r3, [r2, #8]
	.loc 1 2536 5 is_stmt 1
	.loc 1 2536 20 is_stmt 0
	movs	r3, #32
	str	r3, [r0, #64]
.L286:
	.loc 1 2544 3 is_stmt 1
	bl	HAL_IRDA_RxCpltCallback
.LVL205:
	.loc 1 2546 1 is_stmt 0
	pop	{r3, pc}
	.cfi_endproc
.LFE372:
	.size	IRDA_DMAReceiveCplt, .-IRDA_DMAReceiveCplt
	.section	.text.IRDA_Receive_IT,"ax",%progbits
	.align	1
	.syntax unified
	.thumb
	.thumb_func
	.type	IRDA_Receive_IT, %function
IRDA_Receive_IT:
.LFB382:
	.loc 1 2854 1 is_stmt 1
	.cfi_startproc
	@ args = 0, pretend = 0, frame = 0
	@ frame_needed = 0, uses_anonymous_args = 0
.LVL206:
	push	{r3, lr}
	.cfi_def_cfa_offset 8
	.cfi_offset 3, -8
	.cfi_offset 14, -4
	.loc 1 2855 3
	.loc 1 2856 3
	.loc 1 2856 12 is_stmt 0
	ldrh	r3, [r0, #44]
.LVL207:
	.loc 1 2857 3 is_stmt 1
	.loc 1 2860 3
	.loc 1 2860 12 is_stmt 0
	ldr	r2, [r0, #64]
	.loc 1 2860 6
	cmp	r2, #34
	beq	.L294
	.loc 1 2899 5 is_stmt 1
	.loc 1 2899 13 is_stmt 0
	ldr	r2, [r0]
	.loc 1 2899 23
	ldr	r3, [r2, #24]
.LVL208:
	.loc 1 2899 29
	orr	r3, r3, #8
	str	r3, [r2, #24]
.LVL209:
.L288:
	.loc 1 2901 1
	pop	{r3, pc}
.LVL210:
.L294:
	.loc 1 2862 5 is_stmt 1
	.loc 1 2862 32 is_stmt 0
	ldr	r2, [r0]
	.loc 1 2862 42
	ldr	r2, [r2, #36]
	.loc 1 2862 12
	uxth	ip, r2
.LVL211:
	.loc 1 2863 5 is_stmt 1
	.loc 1 2863 21 is_stmt 0
	ldr	r1, [r0, #8]
	.loc 1 2863 8
	cmp	r1, #4096
	beq	.L295
.L290:
	.loc 1 2871 7 is_stmt 1
	.loc 1 2871 47 is_stmt 0
	uxtb	r3, r3
.LVL212:
	.loc 1 2871 13
	ldr	r1, [r0, #36]
	.loc 1 2871 28
	ands	r3, r3, r2
	.loc 1 2871 26
	strb	r3, [r1]
.LVL213:
	.loc 1 2872 7 is_stmt 1
	.loc 1 2872 12 is_stmt 0
	ldr	r3, [r0, #36]
	.loc 1 2872 24
	adds	r3, r3, #1
	str	r3, [r0, #36]
.L291:
	.loc 1 2875 5 is_stmt 1
	.loc 1 2875 10 is_stmt 0
	ldrh	r3, [r0, #42]
	uxth	r3, r3
	.loc 1 2875 23
	subs	r3, r3, #1
	uxth	r3, r3
	strh	r3, [r0, #42]	@ movhi
	.loc 1 2876 5 is_stmt 1
	.loc 1 2876 14 is_stmt 0
	ldrh	r3, [r0, #42]
	uxth	r3, r3
	.loc 1 2876 8
	cmp	r3, #0
	bne	.L288
	.loc 1 2879 7 is_stmt 1
	.loc 1 2879 14 is_stmt 0
	ldr	r2, [r0]
	.loc 1 2879 24
	ldr	r3, [r2]
	.loc 1 2879 31
	bic	r3, r3, #288
	str	r3, [r2]
	.loc 1 2882 7 is_stmt 1
	.loc 1 2882 14 is_stmt 0
	ldr	r2, [r0]
	.loc 1 2882 24
	ldr	r3, [r2, #8]
	.loc 1 2882 31
	bic	r3, r3, #1
	str	r3, [r2, #8]
	.loc 1 2885 7 is_stmt 1
	.loc 1 2885 22 is_stmt 0
	movs	r3, #32
	str	r3, [r0, #64]
	.loc 1 2892 7 is_stmt 1
	bl	HAL_IRDA_RxCpltCallback
.LVL214:
	b	.L288
.LVL215:
.L295:
	.loc 1 2863 69 is_stmt 0 discriminator 1
	ldr	r1, [r0, #12]
	.loc 1 2863 54 discriminator 1
	cmp	r1, #0
	bne	.L290
	.loc 1 2865 7 is_stmt 1
	.loc 1 2865 11 is_stmt 0
	ldr	r2, [r0, #36]
.LVL216:
	.loc 1 2866 7 is_stmt 1
	.loc 1 2866 14 is_stmt 0
	and	r3, r3, ip
.LVL217:
	.loc 1 2866 12
	strh	r3, [r2]	@ movhi
.LVL218:
	.loc 1 2867 7 is_stmt 1
	.loc 1 2867 12 is_stmt 0
	ldr	r3, [r0, #36]
	.loc 1 2867 25
	adds	r3, r3, #2
	str	r3, [r0, #36]
	b	.L291
	.cfi_endproc
.LFE382:
	.size	IRDA_Receive_IT, .-IRDA_Receive_IT
	.section	.text.HAL_IRDA_RxHalfCpltCallback,"ax",%progbits
	.align	1
	.weak	HAL_IRDA_RxHalfCpltCallback
	.syntax unified
	.thumb
	.thumb_func
	.type	HAL_IRDA_RxHalfCpltCallback, %function
HAL_IRDA_RxHalfCpltCallback:
.LFB358:
	.loc 1 2086 1 is_stmt 1
	.cfi_startproc
	@ args = 0, pretend = 0, frame = 0
	@ frame_needed = 0, uses_anonymous_args = 0
	@ link register save eliminated.
.LVL219:
	.loc 1 2088 3
	.loc 1 2093 1 is_stmt 0
	bx	lr
	.cfi_endproc
.LFE358:
	.size	HAL_IRDA_RxHalfCpltCallback, .-HAL_IRDA_RxHalfCpltCallback
	.section	.text.IRDA_DMAReceiveHalfCplt,"ax",%progbits
	.align	1
	.syntax unified
	.thumb
	.thumb_func
	.type	IRDA_DMAReceiveHalfCplt, %function
IRDA_DMAReceiveHalfCplt:
.LFB373:
	.loc 1 2555 1 is_stmt 1
	.cfi_startproc
	@ args = 0, pretend = 0, frame = 0
	@ frame_needed = 0, uses_anonymous_args = 0
.LVL220:
	push	{r3, lr}
	.cfi_def_cfa_offset 8
	.cfi_offset 3, -8
	.cfi_offset 14, -4
	.loc 1 2556 3
.LVL221:
	.loc 1 2563 3
	ldr	r0, [r0, #56]
.LVL222:
	bl	HAL_IRDA_RxHalfCpltCallback
.LVL223:
	.loc 1 2565 1 is_stmt 0
	pop	{r3, pc}
	.cfi_endproc
.LFE373:
	.size	IRDA_DMAReceiveHalfCplt, .-IRDA_DMAReceiveHalfCplt
	.section	.text.HAL_IRDA_ErrorCallback,"ax",%progbits
	.align	1
	.weak	HAL_IRDA_ErrorCallback
	.syntax unified
	.thumb
	.thumb_func
	.type	HAL_IRDA_ErrorCallback, %function
HAL_IRDA_ErrorCallback:
.LFB359:
	.loc 1 2102 1 is_stmt 1
	.cfi_startproc
	@ args = 0, pretend = 0, frame = 0
	@ frame_needed = 0, uses_anonymous_args = 0
	@ link register save eliminated.
.LVL224:
	.loc 1 2104 3
	.loc 1 2109 1 is_stmt 0
	bx	lr
	.cfi_endproc
.LFE359:
	.size	HAL_IRDA_ErrorCallback, .-HAL_IRDA_ErrorCallback
	.section	.text.IRDA_DMAError,"ax",%progbits
	.align	1
	.syntax unified
	.thumb
	.thumb_func
	.type	IRDA_DMAError, %function
IRDA_DMAError:
.LFB374:
	.loc 1 2574 1 is_stmt 1
	.cfi_startproc
	@ args = 0, pretend = 0, frame = 0
	@ frame_needed = 0, uses_anonymous_args = 0
.LVL225:
	push	{r4, lr}
	.cfi_def_cfa_offset 8
	.cfi_offset 4, -8
	.cfi_offset 14, -4
	.loc 1 2575 3
	.loc 1 2575 23 is_stmt 0
	ldr	r4, [r0, #56]
.LVL226:
	.loc 1 2578 3 is_stmt 1
	.loc 1 2578 12 is_stmt 0
	ldr	r3, [r4, #60]
	.loc 1 2578 6
	cmp	r3, #33
	beq	.L304
.LVL227:
.L301:
	.loc 1 2588 3 is_stmt 1
	.loc 1 2588 12 is_stmt 0
	ldr	r3, [r4, #64]
	.loc 1 2588 6
	cmp	r3, #34
	beq	.L305
.L302:
	.loc 1 2597 3 is_stmt 1
	.loc 1 2597 8 is_stmt 0
	ldr	r3, [r4, #68]
	.loc 1 2597 20
	orr	r3, r3, #16
	str	r3, [r4, #68]
	.loc 1 2603 3 is_stmt 1
	mov	r0, r4
	bl	HAL_IRDA_ErrorCallback
.LVL228:
	.loc 1 2605 1 is_stmt 0
	pop	{r4, pc}
.LVL229:
.L304:
	.loc 1 2580 5 is_stmt 1
	.loc 1 2580 17 is_stmt 0
	ldr	r3, [r4]
	.loc 1 2580 27
	ldr	r3, [r3, #8]
	.loc 1 2580 8
	tst	r3, #128
	beq	.L301
	.loc 1 2582 7 is_stmt 1
	.loc 1 2582 26 is_stmt 0
	movs	r3, #0
	strh	r3, [r4, #34]	@ movhi
	.loc 1 2583 7 is_stmt 1
	mov	r0, r4
.LVL230:
	bl	IRDA_EndTxTransfer
.LVL231:
	b	.L301
.L305:
	.loc 1 2590 5
	.loc 1 2590 17 is_stmt 0
	ldr	r3, [r4]
	.loc 1 2590 27
	ldr	r3, [r3, #8]
	.loc 1 2590 8
	tst	r3, #64
	beq	.L302
	.loc 1 2592 7 is_stmt 1
	.loc 1 2592 26 is_stmt 0
	movs	r3, #0
	strh	r3, [r4, #42]	@ movhi
	.loc 1 2593 7 is_stmt 1
	mov	r0, r4
	bl	IRDA_EndRxTransfer
.LVL232:
	b	.L302
	.cfi_endproc
.LFE374:
	.size	IRDA_DMAError, .-IRDA_DMAError
	.section	.text.HAL_IRDA_IRQHandler,"ax",%progbits
	.align	1
	.global	HAL_IRDA_IRQHandler
	.syntax unified
	.thumb
	.thumb_func
	.type	HAL_IRDA_IRQHandler, %function
HAL_IRDA_IRQHandler:
.LFB354:
	.loc 1 1878 1
	.cfi_startproc
	@ args = 0, pretend = 0, frame = 0
	@ frame_needed = 0, uses_anonymous_args = 0
.LVL233:
	push	{r3, r4, r5, lr}
	.cfi_def_cfa_offset 16
	.cfi_offset 3, -16
	.cfi_offset 4, -12
	.cfi_offset 5, -8
	.cfi_offset 14, -4
	mov	r4, r0
	.loc 1 1879 3
	.loc 1 1879 30 is_stmt 0
	ldr	r2, [r0]
	.loc 1 1879 12
	ldr	r3, [r2, #28]
.LVL234:
	.loc 1 1880 3 is_stmt 1
	.loc 1 1880 12 is_stmt 0
	ldr	r5, [r2]
.LVL235:
	.loc 1 1881 3 is_stmt 1
	.loc 1 1882 3
	.loc 1 1883 3
	.loc 1 1886 3
	.loc 1 1887 3
	.loc 1 1887 6 is_stmt 0
	ands	r1, r3, #15
.LVL236:
	bne	.L307
	.loc 1 1890 5 is_stmt 1
	.loc 1 1890 8 is_stmt 0
	tst	r3, #32
	beq	.L307
	.loc 1 1890 46 discriminator 1
	tst	r5, #32
	bne	.L324
.L307:
	.loc 1 1898 3 is_stmt 1
	.loc 1 1898 10 is_stmt 0
	ldr	r0, [r2, #8]
.LVL237:
	.loc 1 1899 3 is_stmt 1
	.loc 1 1899 6 is_stmt 0
	cbz	r1, .L309
	.loc 1 1900 7
	ands	r0, r0, #1
.LVL238:
	bne	.L310
	.loc 1 1901 11
	tst	r5, #288
	bne	.L310
.L309:
	.loc 1 2016 3 is_stmt 1
	.loc 1 2016 6 is_stmt 0
	tst	r3, #128
	beq	.L322
	.loc 1 2016 44 discriminator 1
	tst	r5, #128
	bne	.L325
.L322:
	.loc 1 2023 3 is_stmt 1
	.loc 1 2023 6 is_stmt 0
	tst	r3, #64
	beq	.L306
	.loc 1 2023 44 discriminator 1
	tst	r5, #64
	bne	.L326
.LVL239:
.L306:
	.loc 1 2029 1
	pop	{r3, r4, r5, pc}
.LVL240:
.L324:
	.loc 1 1892 7 is_stmt 1
	bl	IRDA_Receive_IT
.LVL241:
	.loc 1 1893 7
	b	.L306
.LVL242:
.L310:
	.loc 1 1904 5
	.loc 1 1904 8 is_stmt 0
	tst	r3, #1
	beq	.L311
	.loc 1 1904 46 discriminator 1
	tst	r5, #256
	beq	.L311
	.loc 1 1906 7 is_stmt 1
	.loc 1 1906 31 is_stmt 0
	movs	r1, #1
.LVL243:
	str	r1, [r2, #32]
	.loc 1 1908 7 is_stmt 1
	.loc 1 1908 12 is_stmt 0
	ldr	r2, [r4, #68]
	.loc 1 1908 24
	orrs	r2, r2, r1
	str	r2, [r4, #68]
.L311:
	.loc 1 1912 5 is_stmt 1
	.loc 1 1912 8 is_stmt 0
	tst	r3, #2
	beq	.L312
	.loc 1 1912 46 discriminator 1
	cbz	r0, .L312
	.loc 1 1914 7 is_stmt 1
	.loc 1 1914 15 is_stmt 0
	ldr	r2, [r4]
	.loc 1 1914 31
	movs	r1, #2
	str	r1, [r2, #32]
	.loc 1 1916 7 is_stmt 1
	.loc 1 1916 12 is_stmt 0
	ldr	r2, [r4, #68]
	.loc 1 1916 24
	orr	r2, r2, #4
	str	r2, [r4, #68]
.L312:
	.loc 1 1920 5 is_stmt 1
	.loc 1 1920 8 is_stmt 0
	tst	r3, #4
	beq	.L313
	.loc 1 1920 46 discriminator 1
	cbz	r0, .L313
	.loc 1 1922 7 is_stmt 1
	.loc 1 1922 15 is_stmt 0
	ldr	r2, [r4]
	.loc 1 1922 31
	movs	r1, #4
	str	r1, [r2, #32]
	.loc 1 1924 7 is_stmt 1
	.loc 1 1924 12 is_stmt 0
	ldr	r2, [r4, #68]
	.loc 1 1924 24
	orr	r2, r2, #2
	str	r2, [r4, #68]
.L313:
	.loc 1 1928 5 is_stmt 1
	.loc 1 1928 8 is_stmt 0
	tst	r3, #8
	beq	.L314
	.loc 1 1928 46 discriminator 1
	tst	r5, #32
	bne	.L315
	.loc 1 1929 45
	cbz	r0, .L314
.L315:
	.loc 1 1931 7 is_stmt 1
	.loc 1 1931 15 is_stmt 0
	ldr	r2, [r4]
	.loc 1 1931 31
	movs	r1, #8
	str	r1, [r2, #32]
	.loc 1 1933 7 is_stmt 1
	.loc 1 1933 12 is_stmt 0
	ldr	r2, [r4, #68]
	.loc 1 1933 24
	orrs	r2, r2, r1
	str	r2, [r4, #68]
.L314:
	.loc 1 1937 5 is_stmt 1
	.loc 1 1937 14 is_stmt 0
	ldr	r2, [r4, #68]
	.loc 1 1937 8
	cmp	r2, #0
	beq	.L306
	.loc 1 1940 7 is_stmt 1
	.loc 1 1940 10 is_stmt 0
	tst	r3, #32
	beq	.L317
	.loc 1 1940 48 discriminator 1
	tst	r5, #32
	bne	.L327
.LVL244:
.L317:
	.loc 1 1947 7 is_stmt 1
	.loc 1 1947 17 is_stmt 0
	ldr	r2, [r4, #68]
.LVL245:
	.loc 1 1948 7 is_stmt 1
	.loc 1 1948 20 is_stmt 0
	ldr	r3, [r4]
	.loc 1 1948 30
	ldr	r3, [r3, #8]
	.loc 1 1948 10
	tst	r3, #64
	bne	.L318
	.loc 1 1948 81 discriminator 1
	tst	r2, #8
	beq	.L319
.L318:
	.loc 1 1954 9 is_stmt 1
	mov	r0, r4
	bl	IRDA_EndRxTransfer
.LVL246:
	.loc 1 1957 9
	.loc 1 1957 21 is_stmt 0
	ldr	r3, [r4]
	.loc 1 1957 31
	ldr	r2, [r3, #8]
	.loc 1 1957 12
	tst	r2, #64
	beq	.L320
	.loc 1 1959 11 is_stmt 1
	.loc 1 1959 28 is_stmt 0
	ldr	r2, [r3, #8]
	.loc 1 1959 35
	bic	r2, r2, #64
	str	r2, [r3, #8]
	.loc 1 1962 11 is_stmt 1
	.loc 1 1962 20 is_stmt 0
	ldr	r3, [r4, #52]
	.loc 1 1962 14
	cbz	r3, .L321
	.loc 1 1966 13 is_stmt 1
	.loc 1 1966 46 is_stmt 0
	ldr	r2, .L328
	str	r2, [r3, #80]
	.loc 1 1969 13 is_stmt 1
	.loc 1 1969 17 is_stmt 0
	ldr	r0, [r4, #52]
	bl	HAL_DMA_Abort_IT
.LVL247:
	.loc 1 1969 16
	cmp	r0, #0
	beq	.L306
	.loc 1 1972 15 is_stmt 1
	.loc 1 1972 20 is_stmt 0
	ldr	r0, [r4, #52]
	.loc 1 1972 28
	ldr	r3, [r0, #80]
	.loc 1 1972 15
	blx	r3
.LVL248:
	b	.L306
.LVL249:
.L327:
	.loc 1 1942 9 is_stmt 1
	mov	r0, r4
	bl	IRDA_Receive_IT
.LVL250:
	b	.L317
.LVL251:
.L321:
	.loc 1 1982 13
	mov	r0, r4
	bl	HAL_IRDA_ErrorCallback
.LVL252:
	b	.L306
.L320:
	.loc 1 1993 11
	mov	r0, r4
	bl	HAL_IRDA_ErrorCallback
.LVL253:
	b	.L306
.LVL254:
.L319:
	.loc 1 2006 9
	mov	r0, r4
	bl	HAL_IRDA_ErrorCallback
.LVL255:
	.loc 1 2008 9
	.loc 1 2008 26 is_stmt 0
	movs	r3, #0
	str	r3, [r4, #68]
	.loc 1 2011 5 is_stmt 1
	b	.L306
.LVL256:
.L325:
	.loc 1 2018 5
	mov	r0, r4
	bl	IRDA_Transmit_IT
.LVL257:
	.loc 1 2019 5
	b	.L306
.LVL258:
.L326:
	.loc 1 2025 5
	mov	r0, r4
	bl	IRDA_EndTransmit_IT
.LVL259:
	.loc 1 2026 5
	b	.L306
.L329:
	.align	2
.L328:
	.word	IRDA_DMAAbortOnError
	.cfi_endproc
.LFE354:
	.size	HAL_IRDA_IRQHandler, .-HAL_IRDA_IRQHandler
	.section	.text.IRDA_DMAAbortOnError,"ax",%progbits
	.align	1
	.syntax unified
	.thumb
	.thumb_func
	.type	IRDA_DMAAbortOnError, %function
IRDA_DMAAbortOnError:
.LFB375:
	.loc 1 2614 1
	.cfi_startproc
	@ args = 0, pretend = 0, frame = 0
	@ frame_needed = 0, uses_anonymous_args = 0
.LVL260:
	push	{r3, lr}
	.cfi_def_cfa_offset 8
	.cfi_offset 3, -8
	.cfi_offset 14, -4
	.loc 1 2615 3
	.loc 1 2615 23 is_stmt 0
	ldr	r0, [r0, #56]
.LVL261:
	.loc 1 2616 3 is_stmt 1
	.loc 1 2616 22 is_stmt 0
	movs	r3, #0
	strh	r3, [r0, #42]	@ movhi
	.loc 1 2617 3 is_stmt 1
	.loc 1 2617 22 is_stmt 0
	strh	r3, [r0, #34]	@ movhi
	.loc 1 2624 3 is_stmt 1
	bl	HAL_IRDA_ErrorCallback
.LVL262:
	.loc 1 2626 1 is_stmt 0
	pop	{r3, pc}
	.cfi_endproc
.LFE375:
	.size	IRDA_DMAAbortOnError, .-IRDA_DMAAbortOnError
	.section	.text.HAL_IRDA_AbortCpltCallback,"ax",%progbits
	.align	1
	.weak	HAL_IRDA_AbortCpltCallback
	.syntax unified
	.thumb
	.thumb_func
	.type	HAL_IRDA_AbortCpltCallback, %function
HAL_IRDA_AbortCpltCallback:
.LFB360:
	.loc 1 2118 1 is_stmt 1
	.cfi_startproc
	@ args = 0, pretend = 0, frame = 0
	@ frame_needed = 0, uses_anonymous_args = 0
	@ link register save eliminated.
.LVL263:
	.loc 1 2120 3
	.loc 1 2125 1 is_stmt 0
	bx	lr
	.cfi_endproc
.LFE360:
	.size	HAL_IRDA_AbortCpltCallback, .-HAL_IRDA_AbortCpltCallback
	.section	.text.HAL_IRDA_Abort_IT,"ax",%progbits
	.align	1
	.global	HAL_IRDA_Abort_IT
	.syntax unified
	.thumb
	.thumb_func
	.type	HAL_IRDA_Abort_IT, %function
HAL_IRDA_Abort_IT:
.LFB351:
	.loc 1 1591 1 is_stmt 1
	.cfi_startproc
	@ args = 0, pretend = 0, frame = 0
	@ frame_needed = 0, uses_anonymous_args = 0
.LVL264:
	push	{r4, lr}
	.cfi_def_cfa_offset 8
	.cfi_offset 4, -8
	.cfi_offset 14, -4
	mov	r4, r0
	.loc 1 1592 3
.LVL265:
	.loc 1 1595 3
	.loc 1 1595 10 is_stmt 0
	ldr	r2, [r0]
	.loc 1 1595 20
	ldr	r3, [r2]
	.loc 1 1595 27
	bic	r3, r3, #480
	str	r3, [r2]
	.loc 1 1597 3 is_stmt 1
	.loc 1 1597 10 is_stmt 0
	ldr	r2, [r0]
	.loc 1 1597 20
	ldr	r3, [r2, #8]
	.loc 1 1597 27
	bic	r3, r3, #1
	str	r3, [r2, #8]
	.loc 1 1602 3 is_stmt 1
	.loc 1 1602 12 is_stmt 0
	ldr	r3, [r0, #48]
	.loc 1 1602 6
	cbz	r3, .L334
	.loc 1 1606 5 is_stmt 1
	.loc 1 1606 17 is_stmt 0
	ldr	r2, [r0]
	.loc 1 1606 27
	ldr	r2, [r2, #8]
	.loc 1 1606 8
	tst	r2, #128
	beq	.L335
	.loc 1 1608 7 is_stmt 1
	.loc 1 1608 40 is_stmt 0
	ldr	r2, .L346
	str	r2, [r3, #80]
.L334:
	.loc 1 1616 3 is_stmt 1
	.loc 1 1616 12 is_stmt 0
	ldr	r3, [r4, #52]
	.loc 1 1616 6
	cbz	r3, .L336
	.loc 1 1620 5 is_stmt 1
	.loc 1 1620 17 is_stmt 0
	ldr	r2, [r4]
	.loc 1 1620 27
	ldr	r2, [r2, #8]
	.loc 1 1620 8
	tst	r2, #64
	beq	.L337
	.loc 1 1622 7 is_stmt 1
	.loc 1 1622 40 is_stmt 0
	ldr	r2, .L346+4
	str	r2, [r3, #80]
.L336:
	.loc 1 1631 3 is_stmt 1
	.loc 1 1631 15 is_stmt 0
	ldr	r3, [r4]
	.loc 1 1631 25
	ldr	r2, [r3, #8]
	.loc 1 1631 6
	tst	r2, #128
	beq	.L342
	.loc 1 1634 5 is_stmt 1
	.loc 1 1634 22 is_stmt 0
	ldr	r2, [r3, #8]
	.loc 1 1634 29
	bic	r2, r2, #128
	str	r2, [r3, #8]
	.loc 1 1637 5 is_stmt 1
	.loc 1 1637 14 is_stmt 0
	ldr	r0, [r4, #48]
.LVL266:
	.loc 1 1637 8
	cbz	r0, .L343
	.loc 1 1643 7 is_stmt 1
	.loc 1 1643 11 is_stmt 0
	bl	HAL_DMA_Abort_IT
.LVL267:
	.loc 1 1643 10
	cbz	r0, .L344
	.loc 1 1645 9 is_stmt 1
	.loc 1 1645 14 is_stmt 0
	ldr	r3, [r4, #48]
	.loc 1 1645 42
	movs	r2, #0
	str	r2, [r3, #80]
	.loc 1 1592 12
	movs	r1, #1
	b	.L338
.LVL268:
.L335:
	.loc 1 1612 7 is_stmt 1
	.loc 1 1612 40 is_stmt 0
	movs	r2, #0
	str	r2, [r3, #80]
	b	.L334
.L337:
	.loc 1 1626 7 is_stmt 1
	.loc 1 1626 40 is_stmt 0
	movs	r2, #0
	str	r2, [r3, #80]
	b	.L336
.L342:
	.loc 1 1592 12
	movs	r1, #1
.LVL269:
.L338:
	.loc 1 1655 3 is_stmt 1
	.loc 1 1655 15 is_stmt 0
	ldr	r3, [r4]
	.loc 1 1655 25
	ldr	r2, [r3, #8]
	.loc 1 1655 6
	tst	r2, #64
	beq	.L339
	.loc 1 1657 5 is_stmt 1
	.loc 1 1657 22 is_stmt 0
	ldr	r2, [r3, #8]
	.loc 1 1657 29
	bic	r2, r2, #64
	str	r2, [r3, #8]
	.loc 1 1660 5 is_stmt 1
	.loc 1 1660 14 is_stmt 0
	ldr	r0, [r4, #52]
	.loc 1 1660 8
	cbz	r0, .L339
	.loc 1 1666 7 is_stmt 1
	.loc 1 1666 11 is_stmt 0
	bl	HAL_DMA_Abort_IT
.LVL270:
	.loc 1 1666 10
	cbz	r0, .L340
	.loc 1 1668 9 is_stmt 1
	.loc 1 1668 14 is_stmt 0
	ldr	r3, [r4, #52]
	.loc 1 1668 42
	movs	r2, #0
	str	r2, [r3, #80]
	.loc 1 1669 9 is_stmt 1
.LVL271:
	.loc 1 1679 3
.L341:
	.loc 1 1682 5
	.loc 1 1682 24 is_stmt 0
	movs	r3, #0
	strh	r3, [r4, #34]	@ movhi
	.loc 1 1683 5 is_stmt 1
	.loc 1 1683 24 is_stmt 0
	strh	r3, [r4, #42]	@ movhi
	.loc 1 1686 5 is_stmt 1
	.loc 1 1686 22 is_stmt 0
	str	r3, [r4, #68]
	.loc 1 1689 5 is_stmt 1
	.loc 1 1689 13 is_stmt 0
	ldr	r3, [r4]
	.loc 1 1689 29
	movs	r2, #15
	str	r2, [r3, #32]
	.loc 1 1692 5 is_stmt 1
	.loc 1 1692 19 is_stmt 0
	movs	r3, #32
	str	r3, [r4, #60]
	.loc 1 1693 5 is_stmt 1
	.loc 1 1693 20 is_stmt 0
	str	r3, [r4, #64]
	.loc 1 1701 5 is_stmt 1
	mov	r0, r4
	bl	HAL_IRDA_AbortCpltCallback
.LVL272:
	b	.L340
.LVL273:
.L343:
	.loc 1 1592 12 is_stmt 0
	movs	r1, #1
	b	.L338
.L344:
	.loc 1 1649 19
	movs	r1, #0
	b	.L338
.LVL274:
.L339:
	.loc 1 1679 3 is_stmt 1
	.loc 1 1679 6 is_stmt 0
	cmp	r1, #0
	bne	.L341
.LVL275:
.L340:
	.loc 1 1705 3 is_stmt 1
	.loc 1 1706 1 is_stmt 0
	movs	r0, #0
	pop	{r4, pc}
.LVL276:
.L347:
	.align	2
.L346:
	.word	IRDA_DMATxAbortCallback
	.word	IRDA_DMARxAbortCallback
	.cfi_endproc
.LFE351:
	.size	HAL_IRDA_Abort_IT, .-HAL_IRDA_Abort_IT
	.section	.text.IRDA_DMARxAbortCallback,"ax",%progbits
	.align	1
	.syntax unified
	.thumb
	.thumb_func
	.type	IRDA_DMARxAbortCallback, %function
IRDA_DMARxAbortCallback:
.LFB377:
	.loc 1 2685 1 is_stmt 1
	.cfi_startproc
	@ args = 0, pretend = 0, frame = 0
	@ frame_needed = 0, uses_anonymous_args = 0
.LVL277:
	push	{r3, lr}
	.cfi_def_cfa_offset 8
	.cfi_offset 3, -8
	.cfi_offset 14, -4
	.loc 1 2686 3
	.loc 1 2686 23 is_stmt 0
	ldr	r0, [r0, #56]
.LVL278:
	.loc 1 2688 3 is_stmt 1
	.loc 1 2688 8 is_stmt 0
	ldr	r3, [r0, #52]
	.loc 1 2688 36
	movs	r2, #0
	str	r2, [r3, #80]
	.loc 1 2691 3 is_stmt 1
	.loc 1 2691 12 is_stmt 0
	ldr	r3, [r0, #48]
	.loc 1 2691 6
	cbz	r3, .L349
	.loc 1 2693 5 is_stmt 1
	.loc 1 2693 22 is_stmt 0
	ldr	r3, [r3, #80]
	.loc 1 2693 8
	cbnz	r3, .L348
.L349:
	.loc 1 2700 3 is_stmt 1
	.loc 1 2700 22 is_stmt 0
	movs	r3, #0
	strh	r3, [r0, #34]	@ movhi
	.loc 1 2701 3 is_stmt 1
	.loc 1 2701 22 is_stmt 0
	strh	r3, [r0, #42]	@ movhi
	.loc 1 2704 3 is_stmt 1
	.loc 1 2704 20 is_stmt 0
	str	r3, [r0, #68]
	.loc 1 2707 3 is_stmt 1
	.loc 1 2707 11 is_stmt 0
	ldr	r3, [r0]
	.loc 1 2707 27
	movs	r2, #15
	str	r2, [r3, #32]
	.loc 1 2710 3 is_stmt 1
	.loc 1 2710 17 is_stmt 0
	movs	r3, #32
	str	r3, [r0, #60]
	.loc 1 2711 3 is_stmt 1
	.loc 1 2711 18 is_stmt 0
	str	r3, [r0, #64]
	.loc 1 2719 3 is_stmt 1
	bl	HAL_IRDA_AbortCpltCallback
.LVL279:
.L348:
	.loc 1 2721 1 is_stmt 0
	pop	{r3, pc}
	.cfi_endproc
.LFE377:
	.size	IRDA_DMARxAbortCallback, .-IRDA_DMARxAbortCallback
	.section	.text.IRDA_DMATxAbortCallback,"ax",%progbits
	.align	1
	.syntax unified
	.thumb
	.thumb_func
	.type	IRDA_DMATxAbortCallback, %function
IRDA_DMATxAbortCallback:
.LFB376:
	.loc 1 2637 1 is_stmt 1
	.cfi_startproc
	@ args = 0, pretend = 0, frame = 0
	@ frame_needed = 0, uses_anonymous_args = 0
.LVL280:
	push	{r3, lr}
	.cfi_def_cfa_offset 8
	.cfi_offset 3, -8
	.cfi_offset 14, -4
	.loc 1 2638 3
	.loc 1 2638 23 is_stmt 0
	ldr	r0, [r0, #56]
.LVL281:
	.loc 1 2640 3 is_stmt 1
	.loc 1 2640 8 is_stmt 0
	ldr	r3, [r0, #48]
	.loc 1 2640 36
	movs	r2, #0
	str	r2, [r3, #80]
	.loc 1 2643 3 is_stmt 1
	.loc 1 2643 12 is_stmt 0
	ldr	r3, [r0, #52]
	.loc 1 2643 6
	cbz	r3, .L353
	.loc 1 2645 5 is_stmt 1
	.loc 1 2645 22 is_stmt 0
	ldr	r3, [r3, #80]
	.loc 1 2645 8
	cbnz	r3, .L352
.L353:
	.loc 1 2652 3 is_stmt 1
	.loc 1 2652 22 is_stmt 0
	movs	r3, #0
	strh	r3, [r0, #34]	@ movhi
	.loc 1 2653 3 is_stmt 1
	.loc 1 2653 22 is_stmt 0
	strh	r3, [r0, #42]	@ movhi
	.loc 1 2656 3 is_stmt 1
	.loc 1 2656 20 is_stmt 0
	str	r3, [r0, #68]
	.loc 1 2659 3 is_stmt 1
	.loc 1 2659 11 is_stmt 0
	ldr	r3, [r0]
	.loc 1 2659 27
	movs	r2, #15
	str	r2, [r3, #32]
	.loc 1 2662 3 is_stmt 1
	.loc 1 2662 17 is_stmt 0
	movs	r3, #32
	str	r3, [r0, #60]
	.loc 1 2663 3 is_stmt 1
	.loc 1 2663 18 is_stmt 0
	str	r3, [r0, #64]
	.loc 1 2671 3 is_stmt 1
	bl	HAL_IRDA_AbortCpltCallback
.LVL282:
.L352:
	.loc 1 2673 1 is_stmt 0
	pop	{r3, pc}
	.cfi_endproc
.LFE376:
	.size	IRDA_DMATxAbortCallback, .-IRDA_DMATxAbortCallback
	.section	.text.HAL_IRDA_AbortTransmitCpltCallback,"ax",%progbits
	.align	1
	.weak	HAL_IRDA_AbortTransmitCpltCallback
	.syntax unified
	.thumb
	.thumb_func
	.type	HAL_IRDA_AbortTransmitCpltCallback, %function
HAL_IRDA_AbortTransmitCpltCallback:
.LFB361:
	.loc 1 2134 1 is_stmt 1
	.cfi_startproc
	@ args = 0, pretend = 0, frame = 0
	@ frame_needed = 0, uses_anonymous_args = 0
	@ link register save eliminated.
.LVL283:
	.loc 1 2136 3
	.loc 1 2141 1 is_stmt 0
	bx	lr
	.cfi_endproc
.LFE361:
	.size	HAL_IRDA_AbortTransmitCpltCallback, .-HAL_IRDA_AbortTransmitCpltCallback
	.section	.text.HAL_IRDA_AbortTransmit_IT,"ax",%progbits
	.align	1
	.global	HAL_IRDA_AbortTransmit_IT
	.syntax unified
	.thumb
	.thumb_func
	.type	HAL_IRDA_AbortTransmit_IT, %function
HAL_IRDA_AbortTransmit_IT:
.LFB352:
	.loc 1 1724 1 is_stmt 1
	.cfi_startproc
	@ args = 0, pretend = 0, frame = 0
	@ frame_needed = 0, uses_anonymous_args = 0
.LVL284:
	push	{r4, lr}
	.cfi_def_cfa_offset 8
	.cfi_offset 4, -8
	.cfi_offset 14, -4
	mov	r4, r0
	.loc 1 1726 3
	.loc 1 1726 10 is_stmt 0
	ldr	r2, [r0]
	.loc 1 1726 20
	ldr	r3, [r2]
	.loc 1 1726 27
	bic	r3, r3, #192
	str	r3, [r2]
	.loc 1 1729 3 is_stmt 1
	.loc 1 1729 15 is_stmt 0
	ldr	r3, [r0]
	.loc 1 1729 25
	ldr	r2, [r3, #8]
	.loc 1 1729 6
	tst	r2, #128
	beq	.L358
	.loc 1 1731 5 is_stmt 1
	.loc 1 1731 22 is_stmt 0
	ldr	r2, [r3, #8]
	.loc 1 1731 29
	bic	r2, r2, #128
	str	r2, [r3, #8]
	.loc 1 1734 5 is_stmt 1
	.loc 1 1734 14 is_stmt 0
	ldr	r3, [r0, #48]
	.loc 1 1734 8
	cbz	r3, .L359
	.loc 1 1738 7 is_stmt 1
	.loc 1 1738 40 is_stmt 0
	ldr	r2, .L362
	str	r2, [r3, #80]
	.loc 1 1741 7 is_stmt 1
	.loc 1 1741 11 is_stmt 0
	ldr	r0, [r0, #48]
.LVL285:
	bl	HAL_DMA_Abort_IT
.LVL286:
	.loc 1 1741 10
	cbz	r0, .L360
	.loc 1 1744 9 is_stmt 1
	.loc 1 1744 14 is_stmt 0
	ldr	r0, [r4, #48]
	.loc 1 1744 22
	ldr	r3, [r0, #80]
	.loc 1 1744 9
	blx	r3
.LVL287:
	b	.L360
.LVL288:
.L359:
	.loc 1 1750 7 is_stmt 1
	.loc 1 1750 26 is_stmt 0
	movs	r3, #0
	strh	r3, [r0, #34]	@ movhi
	.loc 1 1753 7 is_stmt 1
	.loc 1 1753 21 is_stmt 0
	movs	r3, #32
	str	r3, [r0, #60]
	.loc 1 1761 7 is_stmt 1
	bl	HAL_IRDA_AbortTransmitCpltCallback
.LVL289:
	b	.L360
.LVL290:
.L358:
	.loc 1 1768 5
	.loc 1 1768 24 is_stmt 0
	movs	r3, #0
	strh	r3, [r0, #34]	@ movhi
	.loc 1 1771 5 is_stmt 1
	.loc 1 1771 19 is_stmt 0
	movs	r3, #32
	str	r3, [r0, #60]
	.loc 1 1779 5 is_stmt 1
	bl	HAL_IRDA_AbortTransmitCpltCallback
.LVL291:
.L360:
	.loc 1 1783 3
	.loc 1 1784 1 is_stmt 0
	movs	r0, #0
	pop	{r4, pc}
.LVL292:
.L363:
	.align	2
.L362:
	.word	IRDA_DMATxOnlyAbortCallback
	.cfi_endproc
.LFE352:
	.size	HAL_IRDA_AbortTransmit_IT, .-HAL_IRDA_AbortTransmit_IT
	.section	.text.IRDA_DMATxOnlyAbortCallback,"ax",%progbits
	.align	1
	.syntax unified
	.thumb
	.thumb_func
	.type	IRDA_DMATxOnlyAbortCallback, %function
IRDA_DMATxOnlyAbortCallback:
.LFB378:
	.loc 1 2733 1 is_stmt 1
	.cfi_startproc
	@ args = 0, pretend = 0, frame = 0
	@ frame_needed = 0, uses_anonymous_args = 0
.LVL293:
	push	{r3, lr}
	.cfi_def_cfa_offset 8
	.cfi_offset 3, -8
	.cfi_offset 14, -4
	.loc 1 2734 3
	.loc 1 2734 23 is_stmt 0
	ldr	r0, [r0, #56]
.LVL294:
	.loc 1 2736 3 is_stmt 1
	.loc 1 2736 22 is_stmt 0
	movs	r3, #0
	strh	r3, [r0, #34]	@ movhi
	.loc 1 2739 3 is_stmt 1
	.loc 1 2739 17 is_stmt 0
	movs	r3, #32
	str	r3, [r0, #60]
	.loc 1 2747 3 is_stmt 1
	bl	HAL_IRDA_AbortTransmitCpltCallback
.LVL295:
	.loc 1 2749 1 is_stmt 0
	pop	{r3, pc}
	.cfi_endproc
.LFE378:
	.size	IRDA_DMATxOnlyAbortCallback, .-IRDA_DMATxOnlyAbortCallback
	.section	.text.HAL_IRDA_AbortReceiveCpltCallback,"ax",%progbits
	.align	1
	.weak	HAL_IRDA_AbortReceiveCpltCallback
	.syntax unified
	.thumb
	.thumb_func
	.type	HAL_IRDA_AbortReceiveCpltCallback, %function
HAL_IRDA_AbortReceiveCpltCallback:
.LFB362:
	.loc 1 2150 1 is_stmt 1
	.cfi_startproc
	@ args = 0, pretend = 0, frame = 0
	@ frame_needed = 0, uses_anonymous_args = 0
	@ link register save eliminated.
.LVL296:
	.loc 1 2152 3
	.loc 1 2157 1 is_stmt 0
	bx	lr
	.cfi_endproc
.LFE362:
	.size	HAL_IRDA_AbortReceiveCpltCallback, .-HAL_IRDA_AbortReceiveCpltCallback
	.section	.text.HAL_IRDA_AbortReceive_IT,"ax",%progbits
	.align	1
	.global	HAL_IRDA_AbortReceive_IT
	.syntax unified
	.thumb
	.thumb_func
	.type	HAL_IRDA_AbortReceive_IT, %function
HAL_IRDA_AbortReceive_IT:
.LFB353:
	.loc 1 1802 1 is_stmt 1
	.cfi_startproc
	@ args = 0, pretend = 0, frame = 0
	@ frame_needed = 0, uses_anonymous_args = 0
.LVL297:
	push	{r4, lr}
	.cfi_def_cfa_offset 8
	.cfi_offset 4, -8
	.cfi_offset 14, -4
	mov	r4, r0
	.loc 1 1804 3
	.loc 1 1804 10 is_stmt 0
	ldr	r2, [r0]
	.loc 1 1804 20
	ldr	r3, [r2]
	.loc 1 1804 27
	bic	r3, r3, #288
	str	r3, [r2]
	.loc 1 1805 3 is_stmt 1
	.loc 1 1805 10 is_stmt 0
	ldr	r2, [r0]
	.loc 1 1805 20
	ldr	r3, [r2, #8]
	.loc 1 1805 27
	bic	r3, r3, #1
	str	r3, [r2, #8]
	.loc 1 1808 3 is_stmt 1
	.loc 1 1808 15 is_stmt 0
	ldr	r3, [r0]
	.loc 1 1808 25
	ldr	r2, [r3, #8]
	.loc 1 1808 6
	tst	r2, #64
	beq	.L368
	.loc 1 1810 5 is_stmt 1
	.loc 1 1810 22 is_stmt 0
	ldr	r2, [r3, #8]
	.loc 1 1810 29
	bic	r2, r2, #64
	str	r2, [r3, #8]
	.loc 1 1813 5 is_stmt 1
	.loc 1 1813 14 is_stmt 0
	ldr	r3, [r0, #52]
	.loc 1 1813 8
	cbz	r3, .L369
	.loc 1 1817 7 is_stmt 1
	.loc 1 1817 40 is_stmt 0
	ldr	r2, .L372
	str	r2, [r3, #80]
	.loc 1 1820 7 is_stmt 1
	.loc 1 1820 11 is_stmt 0
	ldr	r0, [r0, #52]
.LVL298:
	bl	HAL_DMA_Abort_IT
.LVL299:
	.loc 1 1820 10
	cbz	r0, .L370
	.loc 1 1823 9 is_stmt 1
	.loc 1 1823 14 is_stmt 0
	ldr	r0, [r4, #52]
	.loc 1 1823 22
	ldr	r3, [r0, #80]
	.loc 1 1823 9
	blx	r3
.LVL300:
	b	.L370
.LVL301:
.L369:
	.loc 1 1829 7 is_stmt 1
	.loc 1 1829 26 is_stmt 0
	movs	r3, #0
	strh	r3, [r0, #42]	@ movhi
	.loc 1 1832 7 is_stmt 1
	.loc 1 1832 15 is_stmt 0
	ldr	r3, [r0]
	.loc 1 1832 31
	movs	r2, #15
	str	r2, [r3, #32]
	.loc 1 1835 7 is_stmt 1
	.loc 1 1835 22 is_stmt 0
	movs	r3, #32
	str	r3, [r0, #64]
	.loc 1 1843 7 is_stmt 1
	bl	HAL_IRDA_AbortReceiveCpltCallback
.LVL302:
	b	.L370
.LVL303:
.L368:
	.loc 1 1850 5
	.loc 1 1850 24 is_stmt 0
	movs	r2, #0
	strh	r2, [r0, #42]	@ movhi
	.loc 1 1853 5 is_stmt 1
	.loc 1 1853 29 is_stmt 0
	movs	r2, #15
	str	r2, [r3, #32]
	.loc 1 1856 5 is_stmt 1
	.loc 1 1856 20 is_stmt 0
	movs	r3, #32
	str	r3, [r0, #64]
	.loc 1 1864 5 is_stmt 1
	bl	HAL_IRDA_AbortReceiveCpltCallback
.LVL304:
.L370:
	.loc 1 1868 3
	.loc 1 1869 1 is_stmt 0
	movs	r0, #0
	pop	{r4, pc}
.LVL305:
.L373:
	.align	2
.L372:
	.word	IRDA_DMARxOnlyAbortCallback
	.cfi_endproc
.LFE353:
	.size	HAL_IRDA_AbortReceive_IT, .-HAL_IRDA_AbortReceive_IT
	.section	.text.IRDA_DMARxOnlyAbortCallback,"ax",%progbits
	.align	1
	.syntax unified
	.thumb
	.thumb_func
	.type	IRDA_DMARxOnlyAbortCallback, %function
IRDA_DMARxOnlyAbortCallback:
.LFB379:
	.loc 1 2760 1 is_stmt 1
	.cfi_startproc
	@ args = 0, pretend = 0, frame = 0
	@ frame_needed = 0, uses_anonymous_args = 0
.LVL306:
	push	{r3, lr}
	.cfi_def_cfa_offset 8
	.cfi_offset 3, -8
	.cfi_offset 14, -4
	.loc 1 2761 3
	.loc 1 2761 23 is_stmt 0
	ldr	r0, [r0, #56]
.LVL307:
	.loc 1 2763 3 is_stmt 1
	.loc 1 2763 22 is_stmt 0
	movs	r3, #0
	strh	r3, [r0, #42]	@ movhi
	.loc 1 2766 3 is_stmt 1
	.loc 1 2766 11 is_stmt 0
	ldr	r3, [r0]
	.loc 1 2766 27
	movs	r2, #15
	str	r2, [r3, #32]
	.loc 1 2769 3 is_stmt 1
	.loc 1 2769 18 is_stmt 0
	movs	r3, #32
	str	r3, [r0, #64]
	.loc 1 2777 3 is_stmt 1
	bl	HAL_IRDA_AbortReceiveCpltCallback
.LVL308:
	.loc 1 2779 1 is_stmt 0
	pop	{r3, pc}
	.cfi_endproc
.LFE379:
	.size	IRDA_DMARxOnlyAbortCallback, .-IRDA_DMARxOnlyAbortCallback
	.section	.text.HAL_IRDA_GetState,"ax",%progbits
	.align	1
	.global	HAL_IRDA_GetState
	.syntax unified
	.thumb
	.thumb_func
	.type	HAL_IRDA_GetState, %function
HAL_IRDA_GetState:
.LFB363:
	.loc 1 2189 1 is_stmt 1
	.cfi_startproc
	@ args = 0, pretend = 0, frame = 0
	@ frame_needed = 0, uses_anonymous_args = 0
	@ link register save eliminated.
.LVL309:
	.loc 1 2191 3
	.loc 1 2192 3
	.loc 1 2193 3
	.loc 1 2193 9 is_stmt 0
	ldr	r2, [r0, #60]
.LVL310:
	.loc 1 2194 3 is_stmt 1
	.loc 1 2194 9 is_stmt 0
	ldr	r0, [r0, #64]
.LVL311:
	.loc 1 2196 3 is_stmt 1
	.loc 1 2197 1 is_stmt 0
	orrs	r0, r0, r2
.LVL312:
	bx	lr
	.cfi_endproc
.LFE363:
	.size	HAL_IRDA_GetState, .-HAL_IRDA_GetState
	.section	.text.HAL_IRDA_GetError,"ax",%progbits
	.align	1
	.global	HAL_IRDA_GetError
	.syntax unified
	.thumb
	.thumb_func
	.type	HAL_IRDA_GetError, %function
HAL_IRDA_GetError:
.LFB364:
	.loc 1 2206 1 is_stmt 1
	.cfi_startproc
	@ args = 0, pretend = 0, frame = 0
	@ frame_needed = 0, uses_anonymous_args = 0
	@ link register save eliminated.
.LVL313:
	.loc 1 2207 3
	.loc 1 2207 15 is_stmt 0
	ldr	r0, [r0, #68]
.LVL314:
	.loc 1 2208 1
	bx	lr
	.cfi_endproc
.LFE364:
	.size	HAL_IRDA_GetError, .-HAL_IRDA_GetError
	.section	.rodata.IRDAPrescTable.0,"a"
	.align	2
	.type	IRDAPrescTable.0, %object
	.size	IRDAPrescTable.0, 24
IRDAPrescTable.0:
	.short	1
	.short	2
	.short	4
	.short	6
	.short	8
	.short	10
	.short	12
	.short	16
	.short	32
	.short	64
	.short	128
	.short	256
	.text
.Letext0:
	.file 2 "m:\\noinstall\\arm-gnu-toolchain-12.2.rel1-mingw-w64-i686-arm-none-eabi\\arm-none-eabi\\include\\machine\\_default_types.h"
	.file 3 "m:\\noinstall\\arm-gnu-toolchain-12.2.rel1-mingw-w64-i686-arm-none-eabi\\arm-none-eabi\\include\\sys\\_stdint.h"
	.file 4 "D:/RTOS/Board/YD-STM32H7xxVx_ClassicV19/cmake-build-debug/_deps/stm32h7xx_cmsis_device-src/Include/stm32h743xx.h"
	.file 5 "D:/RTOS/Board/YD-STM32H7xxVx_ClassicV19/cmake-build-debug/_deps/stm32h7xx_cmsis_device-src/Include/stm32h7xx.h"
	.file 6 "D:/RTOS/Board/YD-STM32H7xxVx_ClassicV19/cmake-build-debug/_deps/stm32h7xx_hal_driver-src/Inc/stm32h7xx_hal_def.h"
	.file 7 "D:/RTOS/Board/YD-STM32H7xxVx_ClassicV19/cmake-build-debug/_deps/stm32h7xx_hal_driver-src/Inc/stm32h7xx_hal_rcc_ex.h"
	.file 8 "D:/RTOS/Board/YD-STM32H7xxVx_ClassicV19/cmake-build-debug/_deps/stm32h7xx_hal_driver-src/Inc/stm32h7xx_hal_dma.h"
	.file 9 "D:/RTOS/Board/YD-STM32H7xxVx_ClassicV19/cmake-build-debug/_deps/stm32h7xx_hal_driver-src/Inc/stm32h7xx_hal_irda.h"
	.file 10 "D:/RTOS/Board/YD-STM32H7xxVx_ClassicV19/cmake-build-debug/_deps/stm32h7xx_hal_driver-src/Inc/stm32h7xx_hal.h"
	.file 11 "D:/RTOS/Board/YD-STM32H7xxVx_ClassicV19/cmake-build-debug/_deps/stm32h7xx_hal_driver-src/Inc/stm32h7xx_hal_rcc.h"