	.cpu cortex-m7
	.arch armv7e-m
	.fpu fpv5-d16
	.eabi_attribute 28, 1
	.eabi_attribute 20, 1
	.eabi_attribute 21, 1
	.eabi_attribute 23, 3
	.eabi_attribute 24, 1
	.eabi_attribute 25, 1
	.eabi_attribute 26, 1
	.eabi_attribute 30, 1
	.eabi_attribute 34, 1
	.eabi_attribute 18, 4
	.file	"stm32h7xx_hal_eth.c"
	.text
.Ltext0:
	.cfi_sections	.debug_frame
	.file 1 "D:/RTOS/Board/YD-STM32H7xxVx_ClassicV19/cmake-build-debug/_deps/stm32h7xx_hal_driver-src/Src/stm32h7xx_hal_eth.c"
	.section	.text.HAL_ETH_RxAllocateCallback,"ax",%progbits
	.align	1
	.weak	HAL_ETH_RxAllocateCallback
	.syntax unified
	.thumb
	.thumb_func
	.type	HAL_ETH_RxAllocateCallback, %function
HAL_ETH_RxAllocateCallback:
.LFB349:
	.loc 1 1267 1
	.cfi_startproc
	@ args = 0, pretend = 0, frame = 0
	@ frame_needed = 0, uses_anonymous_args = 0
	@ link register save eliminated.
.LVL0:
	.loc 1 1269 3
	.loc 1 1273 1 is_stmt 0
	bx	lr
	.cfi_endproc
.LFE349:
	.size	HAL_ETH_RxAllocateCallback, .-HAL_ETH_RxAllocateCallback
	.section	.text.ETH_UpdateDescriptor,"ax",%progbits
	.align	1
	.syntax unified
	.thumb
	.thumb_func
	.type	ETH_UpdateDescriptor, %function
ETH_UpdateDescriptor:
.LFB346:
	.loc 1 1153 1 is_stmt 1
	.cfi_startproc
	@ args = 0, pretend = 0, frame = 8
	@ frame_needed = 0, uses_anonymous_args = 0
.LVL1:
	push	{r4, r5, r6, r7, r8, lr}
	.cfi_def_cfa_offset 24
	.cfi_offset 4, -24
	.cfi_offset 5, -20
	.cfi_offset 6, -16
	.cfi_offset 7, -12
	.cfi_offset 8, -8
	.cfi_offset 14, -4
	sub	sp, sp, #8
	.cfi_def_cfa_offset 32
	mov	r7, r0
	.loc 1 1154 3
	.loc 1 1155 3
	.loc 1 1156 3
	.loc 1 1157 3
	.loc 1 1158 3
	.loc 1 1158 12 is_stmt 0
	movs	r3, #0
	str	r3, [sp, #4]
	.loc 1 1159 3 is_stmt 1
.LVL2:
	.loc 1 1161 3
	.loc 1 1161 11 is_stmt 0
	ldr	r8, [r0, #104]
.LVL3:
	.loc 1 1162 3 is_stmt 1
	.loc 1 1162 60 is_stmt 0
	add	r3, r8, #18
	ldr	r4, [r0, r3, lsl #2]
.LVL4:
	.loc 1 1163 3 is_stmt 1
	.loc 1 1163 13 is_stmt 0
	ldr	r5, [r0, #108]
.LVL5:
	.loc 1 1165 3 is_stmt 1
	.loc 1 1159 11 is_stmt 0
	movs	r6, #1
	.loc 1 1165 9
	b	.L3
.LVL6:
.L15:
	.loc 1 1176 7 is_stmt 1
	add	r0, sp, #4
	bl	HAL_ETH_RxAllocateCallback
.LVL7:
	.loc 1 1178 7
	.loc 1 1178 16 is_stmt 0
	ldr	r3, [sp, #4]
	.loc 1 1178 10
	cbz	r3, .L12
	.loc 1 1184 9 is_stmt 1
	.loc 1 1184 35 is_stmt 0
	str	r3, [r4, #16]
	.loc 1 1185 9 is_stmt 1
	.loc 1 1185 29 is_stmt 0
	str	r3, [r4]
	b	.L4
.L12:
	.loc 1 1180 21
	movs	r6, #0
.LVL8:
	b	.L4
.LVL9:
.L6:
	.loc 1 1198 9 is_stmt 1
	.loc 1 1198 29 is_stmt 0
	mov	r3, #-2130706432
	str	r3, [r4, #12]
	b	.L7
.LVL10:
.L8:
	.loc 1 1202 10 is_stmt 1 discriminator 3
	.loc 1 1204 7 discriminator 3
	.loc 1 1204 64 is_stmt 0 discriminator 3
	add	r2, r3, #18
	ldr	r4, [r7, r2, lsl #2]
.LVL11:
	.loc 1 1205 7 is_stmt 1 discriminator 3
	.loc 1 1205 16 is_stmt 0 discriminator 3
	subs	r5, r5, #1
.LVL12:
	mov	r8, r3
.LVL13:
.L3:
	.loc 1 1165 27 is_stmt 1
	cbz	r5, .L13
	cbz	r6, .L13
	.loc 1 1168 5
	.loc 1 1168 20 is_stmt 0
	ldr	r3, [r4, #16]
	.loc 1 1168 8
	cmp	r3, #0
	beq	.L15
.LVL14:
.L4:
	.loc 1 1189 5 is_stmt 1
	.loc 1 1189 8 is_stmt 0
	cmp	r6, #0
	beq	.L3
	.loc 1 1192 7 is_stmt 1
	.loc 1 1192 27 is_stmt 0
	ldr	r3, [r7, #88]
	.loc 1 1192 10
	cmp	r3, #0
	beq	.L6
	.loc 1 1194 9 is_stmt 1
	.loc 1 1194 29 is_stmt 0
	mov	r3, #-1056964608
	str	r3, [r4, #12]
.L7:
	.loc 1 1202 7 is_stmt 1
	.loc 1 1202 12
	.loc 1 1202 22 is_stmt 0
	add	r3, r8, #1
.LVL15:
	.loc 1 1202 31 is_stmt 1
	.loc 1 1202 34 is_stmt 0
	cmp	r3, #3
	bls	.L8
	.loc 1 1202 63 is_stmt 1 discriminator 1
	.loc 1 1202 73 is_stmt 0 discriminator 1
	sub	r3, r8, #3
.LVL16:
	b	.L8
.LVL17:
.L13:
	.loc 1 1209 3 is_stmt 1
	.loc 1 1209 23 is_stmt 0
	ldr	r3, [r7, #108]
	.loc 1 1209 6
	cmp	r3, r5
	beq	.L2
	.loc 1 1212 5 is_stmt 1
	.loc 1 1212 24 is_stmt 0
	add	r3, r8, #1
	.loc 1 1212 13
	and	r3, r3, #3
.LVL18:
	.loc 1 1215 5 is_stmt 1
.LBB24:
.LBB25:
	.file 2 "d:\\rtos\\board\\yd-stm32h7xxvx_classicv19\\cmake-build-debug\\_deps\\stm32h7xx_cmsis_include\\drivers\\cmsis\\include\\cmsis_gcc.h"
	.loc 2 957 3
	.syntax unified
@ 957 "d:\rtos\board\yd-stm32h7xxvx_classicv19\cmake-build-debug\_deps\stm32h7xx_cmsis_include\drivers\cmsis\include\cmsis_gcc.h" 1
	dmb 0xF
@ 0 "" 2
	.thumb
	.syntax unified
.LBE25:
.LBE24:
	.loc 1 1218 5
	.loc 1 1218 59 is_stmt 0
	ldr	r2, [r7, #16]
	.loc 1 1218 67
	add	r3, r3, r3, lsl #1
.LVL19:
	add	r2, r2, r3, lsl #3
	.loc 1 1218 11
	ldr	r3, [r7]
	.loc 1 1218 34
	add	r3, r3, #4096
	str	r2, [r3, #296]
	.loc 1 1220 5 is_stmt 1
	.loc 1 1220 37 is_stmt 0
	str	r8, [r7, #104]
	.loc 1 1221 5 is_stmt 1
	.loc 1 1221 37 is_stmt 0
	str	r5, [r7, #108]
.LVL20:
.L2:
	.loc 1 1223 1
	add	sp, sp, #8
	.cfi_def_cfa_offset 24
	@ sp needed
	pop	{r4, r5, r6, r7, r8, pc}
	.cfi_endproc
.LFE346:
	.size	ETH_UpdateDescriptor, .-ETH_UpdateDescriptor
	.section	.text.HAL_ETH_RxLinkCallback,"ax",%progbits
	.align	1
	.weak	HAL_ETH_RxLinkCallback
	.syntax unified
	.thumb
	.thumb_func
	.type	HAL_ETH_RxLinkCallback, %function
HAL_ETH_RxLinkCallback:
.LFB350:
	.loc 1 1284 1 is_stmt 1
	.cfi_startproc
	@ args = 0, pretend = 0, frame = 0
	@ frame_needed = 0, uses_anonymous_args = 0
	@ link register save eliminated.
.LVL21:
	.loc 1 1286 3
	.loc 1 1287 3
	.loc 1 1288 3
	.loc 1 1289 3
	.loc 1 1293 1 is_stmt 0
	bx	lr
	.cfi_endproc
.LFE350:
	.size	HAL_ETH_RxLinkCallback, .-HAL_ETH_RxLinkCallback
	.section	.text.HAL_ETH_TxFreeCallback,"ax",%progbits
	.align	1
	.weak	HAL_ETH_TxFreeCallback
	.syntax unified
	.thumb
	.thumb_func
	.type	HAL_ETH_TxFreeCallback, %function
HAL_ETH_TxFreeCallback:
.LFB356:
	.loc 1 1386 1 is_stmt 1
	.cfi_startproc
	@ args = 0, pretend = 0, frame = 0
	@ frame_needed = 0, uses_anonymous_args = 0
	@ link register save eliminated.
.LVL22:
	.loc 1 1388 3
	.loc 1 1392 1 is_stmt 0
	bx	lr
	.cfi_endproc
.LFE356:
	.size	HAL_ETH_TxFreeCallback, .-HAL_ETH_TxFreeCallback
	.section	.text.ETH_SetMACConfig,"ax",%progbits
	.align	1
	.syntax unified
	.thumb
	.thumb_func
	.type	ETH_SetMACConfig, %function
ETH_SetMACConfig:
.LFB385:
	.loc 1 2788 1 is_stmt 1
	.cfi_startproc
	@ args = 0, pretend = 0, frame = 0
	@ frame_needed = 0, uses_anonymous_args = 0
	@ link register save eliminated.
.LVL23:
	push	{r4, r5}
	.cfi_def_cfa_offset 8
	.cfi_offset 4, -8
	.cfi_offset 5, -4
	.loc 1 2789 3
	.loc 1 2792 3
	.loc 1 2792 23 is_stmt 0
	ldr	r3, [r1, #8]
	.loc 1 2793 23
	ldr	r2, [r1]
	.loc 1 2792 43
	orrs	r3, r3, r2
	.loc 1 2794 34
	ldrb	r2, [r1, #4]	@ zero_extendqisi2
	.loc 1 2793 43
	orr	r3, r3, r2, lsl #27
	.loc 1 2795 34
	ldrb	r2, [r1, #12]	@ zero_extendqisi2
	.loc 1 2794 59
	orr	r3, r3, r2, lsl #23
	.loc 1 2796 34
	ldrb	r2, [r1, #13]	@ zero_extendqisi2
	.loc 1 2795 71
	orr	r3, r3, r2, lsl #22
	.loc 1 2797 34
	ldrb	r2, [r1, #14]	@ zero_extendqisi2
	.loc 1 2796 59
	orr	r3, r3, r2, lsl #21
	.loc 1 2798 34
	ldrb	r2, [r1, #15]	@ zero_extendqisi2
	.loc 1 2797 62
	orr	r3, r3, r2, lsl #20
	.loc 1 2799 36
	ldrb	r2, [r1, #16]	@ zero_extendqisi2
	.loc 1 2799 70
	cmp	r2, #0
	bne	.L26
	mov	r2, #524288
.L19:
	.loc 1 2798 64
	orrs	r3, r3, r2
	.loc 1 2800 36
	ldrb	r2, [r1, #17]	@ zero_extendqisi2
	.loc 1 2800 68
	cmp	r2, #0
	bne	.L27
	mov	r2, #131072
.L20:
	.loc 1 2799 77
	orrs	r3, r3, r2
	.loc 1 2801 34
	ldrb	r2, [r1, #18]	@ zero_extendqisi2
	.loc 1 2800 75
	orr	r3, r3, r2, lsl #16
	.loc 1 2802 23
	ldr	r2, [r1, #20]
	.loc 1 2801 55
	orrs	r3, r3, r2
	.loc 1 2803 23
	ldr	r2, [r1, #24]
	.loc 1 2802 31
	orrs	r3, r3, r2
	.loc 1 2804 34
	ldrb	r2, [r1, #28]	@ zero_extendqisi2
	.loc 1 2803 36
	orr	r3, r3, r2, lsl #12
	.loc 1 2805 34
	ldrb	r2, [r1, #29]	@ zero_extendqisi2
	.loc 1 2804 56
	orr	r3, r3, r2, lsl #11
	.loc 1 2806 36
	ldrb	r2, [r1, #30]	@ zero_extendqisi2
	.loc 1 2806 72
	cmp	r2, #0
	bne	.L28
	mov	r2, #1024
.L21:
	.loc 1 2805 70
	orrs	r3, r3, r2
	.loc 1 2807 34
	ldrb	r2, [r1, #31]	@ zero_extendqisi2
	.loc 1 2806 79
	orr	r3, r3, r2, lsl #9
	.loc 1 2808 36
	ldrb	r2, [r1, #32]	@ zero_extendqisi2
	.loc 1 2808 79
	cmp	r2, #0
	bne	.L29
	mov	r2, #256
.L22:
	.loc 1 2807 69
	orrs	r3, r3, r2
	.loc 1 2809 23
	ldr	r2, [r1, #36]
	.loc 1 2808 85
	orrs	r3, r3, r2
	.loc 1 2810 34
	ldrb	r2, [r1, #40]	@ zero_extendqisi2
	.loc 1 2809 38
	orr	r3, r3, r2, lsl #4
	.loc 1 2811 23
	ldr	r2, [r1, #44]
	.loc 1 2792 13
	orrs	r3, r3, r2
.LVL24:
	.loc 1 2814 3 is_stmt 1
	.loc 1 2814 42 is_stmt 0
	ldr	r4, [r0]
	.loc 1 2814 52
	ldr	r2, [r4]
	.loc 1 2814 63
	bic	r2, r2, #-16777216
	bic	r2, r2, #16449536
	bic	r2, r2, #32512
	bic	r2, r2, #124
	.loc 1 2814 83
	orrs	r3, r3, r2
.LVL25:
	.loc 1 2814 30
	str	r3, [r4]
	.loc 1 2817 3 is_stmt 1
	.loc 1 2817 24 is_stmt 0
	ldr	r2, [r1, #60]
	.loc 1 2818 34
	ldrb	r3, [r1, #56]	@ zero_extendqisi2
	.loc 1 2818 59
	lsls	r3, r3, #24
	.loc 1 2817 59
	orr	r3, r3, r2, lsl #25
	.loc 1 2819 34
	ldrb	r2, [r1, #48]	@ zero_extendqisi2
	.loc 1 2818 66
	orr	r3, r3, r2, lsl #18
	.loc 1 2820 34
	ldrb	r2, [r1, #49]	@ zero_extendqisi2
	.loc 1 2819 75
	orr	r3, r3, r2, lsl #17
	.loc 1 2821 36
	ldrb	r2, [r1, #50]	@ zero_extendqisi2
	.loc 1 2821 82
	cmp	r2, #0
	bne	.L30
	mov	r2, #65536
.L23:
	.loc 1 2820 62
	orrs	r3, r3, r2
	.loc 1 2822 23
	ldr	r2, [r1, #52]
	.loc 1 2817 13
	orrs	r3, r3, r2
.LVL26:
	.loc 1 2825 3 is_stmt 1
	.loc 1 2825 43 is_stmt 0
	ldr	r4, [r0]
	.loc 1 2825 53
	ldr	r2, [r4, #4]
	.loc 1 2825 65
	bic	r2, r2, #1056964608
	bic	r2, r2, #489472
	bic	r2, r2, #2040
	bic	r2, r2, #7
	.loc 1 2825 85
	orrs	r3, r3, r2
.LVL27:
	.loc 1 2825 31
	str	r3, [r4, #4]
	.loc 1 2828 3 is_stmt 1
	.loc 1 2828 34 is_stmt 0
	ldrb	r2, [r1, #64]	@ zero_extendqisi2
	.loc 1 2829 23
	ldr	r3, [r1, #68]
	.loc 1 2828 13
	orr	r2, r3, r2, lsl #8
.LVL28:
	.loc 1 2832 3 is_stmt 1
	.loc 1 2832 43 is_stmt 0
	ldr	r4, [r0]
	.loc 1 2832 53
	ldr	r5, [r4, #12]
	.loc 1 2832 65
	ldr	r3, .L34
	ands	r3, r3, r5
	.loc 1 2832 85
	orrs	r3, r3, r2
	.loc 1 2832 31
	str	r3, [r4, #12]
	.loc 1 2835 3 is_stmt 1
	.loc 1 2835 34 is_stmt 0
	ldrb	r2, [r1, #84]	@ zero_extendqisi2
.LVL29:
	.loc 1 2836 23
	ldr	r3, [r1, #80]
	.loc 1 2835 62
	orr	r3, r3, r2, lsl #1
	.loc 1 2837 36
	ldrb	r2, [r1, #76]	@ zero_extendqisi2
	.loc 1 2837 77
	cmp	r2, #0
	bne	.L31
	movs	r2, #128
.L24:
	.loc 1 2836 43
	orrs	r3, r3, r2
	.loc 1 2838 24
	ldr	r2, [r1, #72]
	.loc 1 2835 13
	orr	r3, r3, r2, lsl #16
.LVL30:
	.loc 1 2841 3 is_stmt 1
	.loc 1 2841 44 is_stmt 0
	ldr	r4, [r0]
	.loc 1 2841 54
	ldr	r2, [r4, #112]
	.loc 1 2841 67
	bic	r2, r2, #242
	lsls	r2, r2, #16
	lsrs	r2, r2, #16
	.loc 1 2841 87
	orrs	r3, r3, r2
.LVL31:
	.loc 1 2841 32
	str	r3, [r4, #112]
	.loc 1 2844 3 is_stmt 1
	.loc 1 2844 33 is_stmt 0
	ldrb	r2, [r1, #86]	@ zero_extendqisi2
	.loc 1 2845 34
	ldrb	r3, [r1, #85]	@ zero_extendqisi2
	.loc 1 2844 13
	orr	r2, r2, r3, lsl #1
.LVL32:
	.loc 1 2848 3 is_stmt 1
	.loc 1 2848 44 is_stmt 0
	ldr	r4, [r0]
	.loc 1 2848 54
	ldr	r3, [r4, #144]
	.loc 1 2848 67
	bic	r3, r3, #3
	.loc 1 2848 87
	orrs	r3, r3, r2
	.loc 1 2848 32
	str	r3, [r4, #144]
	.loc 1 2852 3 is_stmt 1
	.loc 1 2852 45 is_stmt 0
	ldr	r2, [r0]
.LVL33:
	.loc 1 2852 55
	ldr	r3, [r2, #3328]
	.loc 1 2852 69
	bic	r3, r3, #114
	.loc 1 2852 99
	ldr	r4, [r1, #88]
	.loc 1 2852 89
	orrs	r3, r3, r4
	.loc 1 2852 33
	str	r3, [r2, #3328]
	.loc 1 2855 3 is_stmt 1
	.loc 1 2855 23 is_stmt 0
	ldr	r3, [r1, #92]
	.loc 1 2856 36
	ldrb	r2, [r1, #96]	@ zero_extendqisi2
	.loc 1 2856 90
	cbnz	r2, .L32
	movs	r2, #64
.L25:
	.loc 1 2855 42
	orrs	r3, r3, r2
	.loc 1 2857 34
	ldrb	r2, [r1, #97]	@ zero_extendqisi2
	.loc 1 2856 96
	orr	r3, r3, r2, lsl #4
	.loc 1 2858 34
	ldrb	r2, [r1, #98]	@ zero_extendqisi2
	.loc 1 2855 13
	orr	r3, r3, r2, lsl #3
.LVL34:
	.loc 1 2861 3 is_stmt 1
	.loc 1 2861 45 is_stmt 0
	ldr	r1, [r0]
.LVL35:
	.loc 1 2861 55
	ldr	r2, [r1, #3376]
	.loc 1 2861 69
	bic	r2, r2, #123
	.loc 1 2861 89
	orrs	r3, r3, r2
.LVL36:
	.loc 1 2861 33
	str	r3, [r1, #3376]
	.loc 1 2862 1
	pop	{r4, r5}
	.cfi_remember_state
	.cfi_restore 5
	.cfi_restore 4
	.cfi_def_cfa_offset 0
	bx	lr
.LVL37:
.L26:
	.cfi_restore_state
	.loc 1 2799 70
	movs	r2, #0
	b	.L19
.L27:
	.loc 1 2800 68
	movs	r2, #0
	b	.L20
.L28:
	.loc 1 2806 72
	movs	r2, #0
	b	.L21
.L29:
	.loc 1 2808 79
	movs	r2, #0
	b	.L22
.LVL38:
.L30:
	.loc 1 2821 82
	movs	r2, #0
	b	.L23
.L31:
	.loc 1 2837 77
	movs	r2, #0
	b	.L24
.L32:
	.loc 1 2856 90
	movs	r2, #0
	b	.L25
.L35:
	.align	2
.L34:
	.word	-272
	.cfi_endproc
.LFE385:
	.size	ETH_SetMACConfig, .-ETH_SetMACConfig
	.section	.text.ETH_SetDMAConfig,"ax",%progbits
	.align	1
	.syntax unified
	.thumb
	.thumb_func
	.type	ETH_SetDMAConfig, %function
ETH_SetDMAConfig:
.LFB386:
	.loc 1 2865 1 is_stmt 1
	.cfi_startproc
	@ args = 0, pretend = 0, frame = 0
	@ frame_needed = 0, uses_anonymous_args = 0
	@ link register save eliminated.
.LVL39:
	push	{r4}
	.cfi_def_cfa_offset 4
	.cfi_offset 4, -4
	.loc 1 2866 3
	.loc 1 2869 3
	.loc 1 2869 42 is_stmt 0
	ldr	r2, [r0]
	.loc 1 2869 52
	add	r2, r2, #4096
	ldr	r4, [r2]
	.loc 1 2869 63
	ldr	r3, .L38
	ands	r3, r3, r4
	.loc 1 2869 93
	ldr	r4, [r1]
	.loc 1 2869 83
	orrs	r3, r3, r4
	.loc 1 2869 30
	str	r3, [r2]
	.loc 1 2872 3 is_stmt 1
	.loc 1 2872 34 is_stmt 0
	ldrb	r2, [r1, #4]	@ zero_extendqisi2
	.loc 1 2873 23
	ldr	r3, [r1, #8]
	.loc 1 2872 63
	orr	r3, r3, r2, lsl #12
	.loc 1 2874 34
	ldrb	r2, [r1, #12]	@ zero_extendqisi2
	.loc 1 2872 13
	orr	r2, r3, r2, lsl #15
.LVL40:
	.loc 1 2876 3 is_stmt 1
	.loc 1 2876 44 is_stmt 0
	ldr	r3, [r0]
	.loc 1 2876 54
	add	ip, r3, #4096
	ldr	r4, [ip, #4]
	.loc 1 2876 67
	ldr	r3, .L38+4
	ands	r3, r3, r4
	.loc 1 2876 87
	orrs	r3, r3, r2
	.loc 1 2876 32
	str	r3, [ip, #4]
	.loc 1 2879 3 is_stmt 1
	.loc 1 2879 34 is_stmt 0
	ldrb	r2, [r1, #13]	@ zero_extendqisi2
.LVL41:
	.loc 1 2880 23
	ldr	r3, [r1, #32]
	.loc 1 2879 13
	orr	ip, r3, r2, lsl #16
.LVL42:
	.loc 1 2881 3 is_stmt 1
	.loc 1 2881 43 is_stmt 0
	ldr	r2, [r0]
	.loc 1 2881 53
	add	r2, r2, #4096
	ldr	r4, [r2, #256]
	.loc 1 2881 65
	ldr	r3, .L38+8
	ands	r3, r3, r4
	.loc 1 2881 85
	orr	r3, r3, ip
	.loc 1 2881 31
	str	r3, [r2, #256]
	.loc 1 2884 3 is_stmt 1
	.loc 1 2884 23 is_stmt 0
	ldr	r3, [r1, #16]
	.loc 1 2885 34
	ldrb	r2, [r1, #20]	@ zero_extendqisi2
	.loc 1 2884 42
	orr	r3, r3, r2, lsl #4
	.loc 1 2886 34
	ldrb	r2, [r1, #29]	@ zero_extendqisi2
	.loc 1 2884 13
	orr	r2, r3, r2, lsl #12
.LVL43:
	.loc 1 2888 3 is_stmt 1
	.loc 1 2888 44 is_stmt 0
	ldr	r3, [r0]
	.loc 1 2888 54
	add	ip, r3, #4096
	ldr	r4, [ip, #260]
	.loc 1 2888 67
	ldr	r3, .L38+12
	ands	r3, r3, r4
	.loc 1 2888 87
	orrs	r3, r3, r2
	.loc 1 2888 32
	str	r3, [ip, #260]
	.loc 1 2891 3 is_stmt 1
	.loc 1 2891 34 is_stmt 0
	ldrb	r3, [r1, #28]	@ zero_extendqisi2
	.loc 1 2892 23
	ldr	r1, [r1, #24]
.LVL44:
	.loc 1 2891 13
	orr	r1, r1, r3, lsl #31
.LVL45:
	.loc 1 2895 3 is_stmt 1
	.loc 1 2895 44 is_stmt 0
	ldr	r2, [r0]
	.loc 1 2895 54
	add	r2, r2, #4096
	ldr	r0, [r2, #264]
.LVL46:
	.loc 1 2895 67
	ldr	r3, .L38+16
	ands	r3, r3, r0
	.loc 1 2895 87
	orrs	r3, r3, r1
	.loc 1 2895 32
	str	r3, [r2, #264]
	.loc 1 2896 1
	ldr	r4, [sp], #4
	.cfi_restore 4
	.cfi_def_cfa_offset 0
	bx	lr
.L39:
	.align	2
.L38:
	.word	-30723
	.word	-53250
	.word	-81920
	.word	-4132881
	.word	2143354879
	.cfi_endproc
.LFE386:
	.size	ETH_SetDMAConfig, .-ETH_SetDMAConfig
	.section	.text.ETH_MACDMAConfig,"ax",%progbits
	.align	1
	.syntax unified
	.thumb
	.thumb_func
	.type	ETH_MACDMAConfig, %function
ETH_MACDMAConfig:
.LFB387:
	.loc 1 2906 1 is_stmt 1
	.cfi_startproc
	@ args = 0, pretend = 0, frame = 136
	@ frame_needed = 0, uses_anonymous_args = 0
.LVL47:
	push	{r4, r5, r6, lr}
	.cfi_def_cfa_offset 16
	.cfi_offset 4, -16
	.cfi_offset 5, -12
	.cfi_offset 6, -8
	.cfi_offset 14, -4
	sub	sp, sp, #136
	.cfi_def_cfa_offset 152
	mov	r6, r0
	.loc 1 2907 3
	.loc 1 2908 3
	.loc 1 2911 3
	.loc 1 2911 39 is_stmt 0
	movs	r5, #1
	strb	r5, [sp, #51]
	.loc 1 2912 3 is_stmt 1
	.loc 1 2912 31 is_stmt 0
	movs	r4, #0
	str	r4, [sp, #72]
	.loc 1 2913 3 is_stmt 1
	.loc 1 2913 45 is_stmt 0
	strb	r4, [sp, #65]
	.loc 1 2914 3 is_stmt 1
	.loc 1 2914 45 is_stmt 0
	strb	r4, [sp, #67]
	.loc 1 2915 3 is_stmt 1
	.loc 1 2915 34 is_stmt 0
	strb	r5, [sp, #40]
	.loc 1 2916 3 is_stmt 1
	.loc 1 2916 39 is_stmt 0
	strb	r5, [sp, #86]
	.loc 1 2917 3 is_stmt 1
	.loc 1 2917 37 is_stmt 0
	strb	r5, [sp, #50]
	.loc 1 2918 3 is_stmt 1
	.loc 1 2918 32 is_stmt 0
	strb	r4, [sp, #76]
	.loc 1 2919 3 is_stmt 1
	.loc 1 2919 47 is_stmt 0
	strb	r5, [sp, #132]
	.loc 1 2920 3 is_stmt 1
	.loc 1 2920 29 is_stmt 0
	mov	r3, #8192
	str	r3, [sp, #60]
	.loc 1 2921 3 is_stmt 1
	.loc 1 2921 41 is_stmt 0
	strb	r4, [sp, #92]
	.loc 1 2922 3 is_stmt 1
	.loc 1 2922 44 is_stmt 0
	str	r4, [sp, #96]
	.loc 1 2923 3 is_stmt 1
	.loc 1 2923 39 is_stmt 0
	strb	r4, [sp, #133]
	.loc 1 2924 3 is_stmt 1
	.loc 1 2924 48 is_stmt 0
	strb	r4, [sp, #134]
	.loc 1 2925 3 is_stmt 1
	.loc 1 2925 39 is_stmt 0
	mov	r3, #1560
	str	r3, [sp, #88]
	.loc 1 2926 3 is_stmt 1
	.loc 1 2926 46 is_stmt 0
	strb	r4, [sp, #48]
	.loc 1 2927 3 is_stmt 1
	.loc 1 2927 36 is_stmt 0
	str	r4, [sp, #44]
	.loc 1 2928 3 is_stmt 1
	.loc 1 2928 25 is_stmt 0
	strb	r5, [sp, #53]
	.loc 1 2929 3 is_stmt 1
	.loc 1 2929 30 is_stmt 0
	strb	r4, [sp, #54]
	.loc 1 2930 3 is_stmt 1
	.loc 1 2930 31 is_stmt 0
	strb	r4, [sp, #64]
	.loc 1 2931 3 is_stmt 1
	.loc 1 2931 36 is_stmt 0
	str	r4, [sp, #116]
	.loc 1 2932 3 is_stmt 1
	.loc 1 2932 28 is_stmt 0
	str	r4, [sp, #108]
	.loc 1 2933 3 is_stmt 1
	.loc 1 2933 33 is_stmt 0
	str	r4, [sp, #80]
	.loc 1 2934 3 is_stmt 1
	.loc 1 2934 39 is_stmt 0
	strb	r4, [sp, #100]
	.loc 1 2935 3 is_stmt 1
	.loc 1 2935 37 is_stmt 0
	strb	r4, [sp, #122]
	.loc 1 2936 3 is_stmt 1
	.loc 1 2936 29 is_stmt 0
	strb	r5, [sp, #66]
	.loc 1 2937 3 is_stmt 1
	.loc 1 2937 35 is_stmt 0
	movs	r3, #32
	str	r3, [sp, #128]
	.loc 1 2938 3 is_stmt 1
	.loc 1 2938 36 is_stmt 0
	strb	r5, [sp, #68]
	.loc 1 2939 3 is_stmt 1
	.loc 1 2939 37 is_stmt 0
	strb	r4, [sp, #85]
	.loc 1 2940 3 is_stmt 1
	.loc 1 2940 36 is_stmt 0
	mov	r3, #805306368
	str	r3, [sp, #36]
	.loc 1 2941 3 is_stmt 1
	.loc 1 2941 24 is_stmt 0
	mov	r3, #16384
	str	r3, [sp, #56]
	.loc 1 2942 3 is_stmt 1
	.loc 1 2942 34 is_stmt 0
	strb	r4, [sp, #49]
	.loc 1 2943 3 is_stmt 1
	.loc 1 2943 36 is_stmt 0
	movs	r3, #2
	str	r3, [sp, #124]
	.loc 1 2944 3 is_stmt 1
	.loc 1 2944 38 is_stmt 0
	strb	r4, [sp, #120]
	.loc 1 2945 3 is_stmt 1
	.loc 1 2945 43 is_stmt 0
	strb	r4, [sp, #121]
	.loc 1 2946 3 is_stmt 1
	.loc 1 2946 50 is_stmt 0
	strb	r4, [sp, #84]
	.loc 1 2947 3 is_stmt 1
	.loc 1 2947 27 is_stmt 0
	strb	r5, [sp, #52]
	.loc 1 2948 3 is_stmt 1
	.loc 1 2948 34 is_stmt 0
	str	r4, [sp, #104]
	.loc 1 2949 3 is_stmt 1
	.loc 1 2949 34 is_stmt 0
	strb	r5, [sp, #112]
	.loc 1 2952 3 is_stmt 1
	add	r1, sp, #36
	bl	ETH_SetMACConfig
.LVL48:
	.loc 1 2955 3
	.loc 1 2955 38 is_stmt 0
	strb	r5, [sp, #4]
	.loc 1 2956 3 is_stmt 1
	.loc 1 2956 28 is_stmt 0
	str	r5, [sp, #8]
	.loc 1 2957 3 is_stmt 1
	.loc 1 2957 33 is_stmt 0
	str	r4, [sp]
	.loc 1 2958 3 is_stmt 1
	.loc 1 2958 32 is_stmt 0
	strb	r4, [sp, #28]
	.loc 1 2959 3 is_stmt 1
	.loc 1 2959 28 is_stmt 0
	strb	r4, [sp, #13]
	.loc 1 2960 3 is_stmt 1
	.loc 1 2960 36 is_stmt 0
	strb	r4, [sp, #12]
	.loc 1 2961 3 is_stmt 1
	.loc 1 2961 35 is_stmt 0
	mov	r3, #2097152
	str	r3, [sp, #24]
	.loc 1 2962 3 is_stmt 1
	.loc 1 2962 38 is_stmt 0
	strb	r4, [sp, #20]
	.loc 1 2963 3 is_stmt 1
	.loc 1 2963 35 is_stmt 0
	str	r3, [sp, #16]
	.loc 1 2964 3 is_stmt 1
	.loc 1 2964 34 is_stmt 0
	strb	r4, [sp, #29]
	.loc 1 2965 3 is_stmt 1
	.loc 1 2965 37 is_stmt 0
	mov	r3, #536
	str	r3, [sp, #32]
	.loc 1 2968 3 is_stmt 1
	mov	r1, sp
	mov	r0, r6
	bl	ETH_SetDMAConfig
.LVL49:
	.loc 1 2969 1 is_stmt 0
	add	sp, sp, #136
	.cfi_def_cfa_offset 16
	@ sp needed
	pop	{r4, r5, r6, pc}
	.cfi_endproc
.LFE387:
	.size	ETH_MACDMAConfig, .-ETH_MACDMAConfig
	.section	.text.ETH_DMATxDescListInit,"ax",%progbits
	.align	1
	.syntax unified
	.thumb
	.thumb_func
	.type	ETH_DMATxDescListInit, %function
ETH_DMATxDescListInit:
.LFB388:
	.loc 1 2979 1 is_stmt 1
	.cfi_startproc
	@ args = 0, pretend = 0, frame = 0
	@ frame_needed = 0, uses_anonymous_args = 0
	@ link register save eliminated.
.LVL50:
	push	{r4}
	.cfi_def_cfa_offset 4
	.cfi_offset 4, -4
	.loc 1 2980 3
	.loc 1 2981 3
	.loc 1 2984 3
.LVL51:
	.loc 1 2984 10 is_stmt 0
	movs	r2, #0
	.loc 1 2984 3
	b	.L43
.LVL52:
.L44:
	.loc 1 2986 5 is_stmt 1 discriminator 3
	.loc 1 2986 27 is_stmt 0 discriminator 3
	ldr	r4, [r0, #12]
	.loc 1 2986 35 discriminator 3
	add	r3, r2, r2, lsl #1
	lsl	ip, r3, #3
	.loc 1 2986 15 discriminator 3
	add	r3, r4, r3, lsl #3
.LVL53:
	.loc 1 2988 5 is_stmt 1 discriminator 3
	.loc 1 2988 25 is_stmt 0 discriminator 3
	movs	r1, #0
	str	r1, [r4, ip]
	.loc 1 2989 5 is_stmt 1 discriminator 3
	.loc 1 2989 25 is_stmt 0 discriminator 3
	str	r1, [r3, #4]
	.loc 1 2990 5 is_stmt 1 discriminator 3
	.loc 1 2990 25 is_stmt 0 discriminator 3
	str	r1, [r3, #8]
	.loc 1 2991 5 is_stmt 1 discriminator 3
	.loc 1 2991 25 is_stmt 0 discriminator 3
	str	r1, [r3, #12]
	.loc 1 2993 5 is_stmt 1 discriminator 3
	.loc 1 2993 35 is_stmt 0 discriminator 3
	adds	r1, r2, #6
	str	r3, [r0, r1, lsl #2]
	.loc 1 2984 34 is_stmt 1 discriminator 3
	adds	r2, r2, #1
.LVL54:
.L43:
	.loc 1 2984 17 discriminator 1
	cmp	r2, #3
	bls	.L44
	.loc 1 2997 3
	.loc 1 2997 30 is_stmt 0
	movs	r3, #0
	str	r3, [r0, #40]
	.loc 1 3000 3 is_stmt 1
	.loc 1 3000 9 is_stmt 0
	ldr	r3, [r0]
	.loc 1 3000 32
	add	r3, r3, #4096
	movs	r2, #3
.LVL55:
	str	r2, [r3, #300]
	.loc 1 3003 3 is_stmt 1
	.loc 1 3003 56 is_stmt 0
	ldr	r2, [r0, #12]
	.loc 1 3003 9
	ldr	r3, [r0]
	.loc 1 3003 32
	add	r3, r3, #4096
	str	r2, [r3, #276]
	.loc 1 3006 3 is_stmt 1
	.loc 1 3006 56 is_stmt 0
	ldr	r2, [r0, #12]
	.loc 1 3006 9
	ldr	r3, [r0]
	.loc 1 3006 32
	add	r3, r3, #4096
	str	r2, [r3, #288]
	.loc 1 3007 1
	ldr	r4, [sp], #4
	.cfi_restore 4
	.cfi_def_cfa_offset 0
	bx	lr
	.cfi_endproc
.LFE388:
	.size	ETH_DMATxDescListInit, .-ETH_DMATxDescListInit
	.section	.text.ETH_DMARxDescListInit,"ax",%progbits
	.align	1
	.syntax unified
	.thumb
	.thumb_func
	.type	ETH_DMARxDescListInit, %function
ETH_DMARxDescListInit:
.LFB389:
	.loc 1 3017 1 is_stmt 1
	.cfi_startproc
	@ args = 0, pretend = 0, frame = 0
	@ frame_needed = 0, uses_anonymous_args = 0
	@ link register save eliminated.
.LVL56:
	push	{r4}
	.cfi_def_cfa_offset 4
	.cfi_offset 4, -4
	.loc 1 3018 3
	.loc 1 3019 3
	.loc 1 3021 3
.LVL57:
	.loc 1 3021 10 is_stmt 0
	movs	r1, #0
	.loc 1 3021 3
	b	.L47
.LVL58:
.L48:
	.loc 1 3023 5 is_stmt 1 discriminator 3
	.loc 1 3023 27 is_stmt 0 discriminator 3
	ldr	r4, [r0, #16]
	.loc 1 3023 35 discriminator 3
	add	r3, r1, r1, lsl #1
	lsl	ip, r3, #3
	.loc 1 3023 15 discriminator 3
	add	r3, r4, r3, lsl #3
.LVL59:
	.loc 1 3025 5 is_stmt 1 discriminator 3
	.loc 1 3025 25 is_stmt 0 discriminator 3
	movs	r2, #0
	str	r2, [r4, ip]
	.loc 1 3026 5 is_stmt 1 discriminator 3
	.loc 1 3026 25 is_stmt 0 discriminator 3
	str	r2, [r3, #4]
	.loc 1 3027 5 is_stmt 1 discriminator 3
	.loc 1 3027 25 is_stmt 0 discriminator 3
	str	r2, [r3, #8]
	.loc 1 3028 5 is_stmt 1 discriminator 3
	.loc 1 3028 25 is_stmt 0 discriminator 3
	str	r2, [r3, #12]
	.loc 1 3029 5 is_stmt 1 discriminator 3
	.loc 1 3029 31 is_stmt 0 discriminator 3
	str	r2, [r3, #16]
	.loc 1 3030 5 is_stmt 1 discriminator 3
	.loc 1 3030 31 is_stmt 0 discriminator 3
	str	r2, [r3, #20]
	.loc 1 3033 5 is_stmt 1 discriminator 3
	.loc 1 3033 35 is_stmt 0 discriminator 3
	add	r2, r1, #18
	str	r3, [r0, r2, lsl #2]
	.loc 1 3021 34 is_stmt 1 discriminator 3
	adds	r1, r1, #1
.LVL60:
.L47:
	.loc 1 3021 17 discriminator 1
	cmp	r1, #3
	bls	.L48
	.loc 1 3037 3
	.loc 1 3037 33 is_stmt 0
	movs	r3, #0
	str	r3, [r0, #92]
	.loc 1 3038 3 is_stmt 1
	.loc 1 3038 33 is_stmt 0
	str	r3, [r0, #96]
	.loc 1 3039 3 is_stmt 1
	.loc 1 3039 38 is_stmt 0
	str	r3, [r0, #104]
	.loc 1 3040 3 is_stmt 1
	.loc 1 3040 38 is_stmt 0
	str	r3, [r0, #108]
	.loc 1 3041 3 is_stmt 1
	.loc 1 3041 30 is_stmt 0
	str	r3, [r0, #88]
	.loc 1 3044 3 is_stmt 1
	.loc 1 3044 9 is_stmt 0
	ldr	r3, [r0]
	.loc 1 3044 32
	add	r3, r3, #4096
	movs	r2, #3
	str	r2, [r3, #304]
	.loc 1 3047 3 is_stmt 1
	.loc 1 3047 56 is_stmt 0
	ldr	r2, [r0, #16]
	.loc 1 3047 9
	ldr	r3, [r0]
	.loc 1 3047 32
	add	r3, r3, #4096
	str	r2, [r3, #284]
	.loc 1 3050 3 is_stmt 1
	.loc 1 3050 57 is_stmt 0
	ldr	r3, [r0, #16]
	.loc 1 3050 65
	add	r2, r3, #72
	.loc 1 3050 9
	ldr	r3, [r0]
	.loc 1 3050 32
	add	r3, r3, #4096
	str	r2, [r3, #296]
	.loc 1 3051 1
	ldr	r4, [sp], #4
	.cfi_restore 4
	.cfi_def_cfa_offset 0
	bx	lr
	.cfi_endproc
.LFE389:
	.size	ETH_DMARxDescListInit, .-ETH_DMARxDescListInit
	.section	.text.ETH_Prepare_Tx_Descriptors,"ax",%progbits
	.align	1
	.syntax unified
	.thumb
	.thumb_func
	.type	ETH_Prepare_Tx_Descriptors, %function
ETH_Prepare_Tx_Descriptors:
.LFB390:
	.loc 1 3064 1 is_stmt 1
	.cfi_startproc
	@ args = 0, pretend = 0, frame = 0
	@ frame_needed = 0, uses_anonymous_args = 0
.LVL61:
	push	{r4, r5, r6, r7, r8, lr}
	.cfi_def_cfa_offset 24
	.cfi_offset 4, -24
	.cfi_offset 5, -20
	.cfi_offset 6, -16
	.cfi_offset 7, -12
	.cfi_offset 8, -8
	.cfi_offset 14, -4
	mov	r8, r2
	.loc 1 3065 3
.LVL62:
	.loc 1 3066 3
	.loc 1 3066 12 is_stmt 0
	ldr	r4, [r0, #40]
.LVL63:
	.loc 1 3067 3 is_stmt 1
	.loc 1 3068 3
	.loc 1 3069 3
	.loc 1 3070 3
	.loc 1 3070 78 is_stmt 0
	add	r3, r0, r4, lsl #2
	ldr	r3, [r3, #24]
.LVL64:
	.loc 1 3072 3 is_stmt 1
	.loc 1 3072 22 is_stmt 0
	ldr	ip, [r1, #8]
.LVL65:
	.loc 1 3073 3 is_stmt 1
	.loc 1 3074 3
	.loc 1 3077 3
	.loc 1 3077 19 is_stmt 0
	ldr	r2, [r3, #12]
.LVL66:
	.loc 1 3077 6
	cmp	r2, #0
	blt	.L77
	.loc 1 3078 39
	adds	r2, r4, #4
	add	r2, r0, r2, lsl #2
	ldr	r2, [r2, #28]
	.loc 1 3078 7
	cmp	r2, #0
	bne	.L78
	.loc 1 3087 3 is_stmt 1
	.loc 1 3087 18 is_stmt 0
	ldr	r2, [r1]
	.loc 1 3087 6
	tst	r2, #4
	beq	.L52
	.loc 1 3090 5 is_stmt 1
	.loc 1 3090 44 is_stmt 0
	ldr	r5, [r3, #12]
	.loc 1 3090 55
	ldr	r2, .L85
	ands	r2, r2, r5
	.loc 1 3090 87
	ldr	r5, [r1, #36]
	.loc 1 3090 75
	orrs	r2, r2, r5
	.loc 1 3090 27
	str	r2, [r3, #12]
	.loc 1 3092 5 is_stmt 1
	.loc 1 3092 16 is_stmt 0
	ldr	r2, [r3, #12]
	.loc 1 3092 25
	orr	r2, r2, #65536
	str	r2, [r3, #12]
	.loc 1 3094 5 is_stmt 1
	.loc 1 3094 11 is_stmt 0
	ldr	r5, [r0]
	.loc 1 3094 21
	ldr	r2, [r5, #96]
	.loc 1 3094 31
	orr	r2, r2, #1048576
	str	r2, [r5, #96]
	.loc 1 3097 5 is_stmt 1
	.loc 1 3097 20 is_stmt 0
	ldr	r2, [r1]
	.loc 1 3097 8
	tst	r2, #8
	beq	.L52
	.loc 1 3100 7 is_stmt 1
	.loc 1 3100 46 is_stmt 0
	ldr	r2, [r3, #8]
	.loc 1 3100 57
	uxth	r2, r2
	.loc 1 3100 90
	ldr	r5, [r1, #44]
	.loc 1 3100 77
	orr	r2, r2, r5, lsl #16
	.loc 1 3100 29
	str	r2, [r3, #8]
	.loc 1 3102 7 is_stmt 1
	.loc 1 3102 18 is_stmt 0
	ldr	r2, [r3, #12]
	.loc 1 3102 27
	orr	r2, r2, #131072
	str	r2, [r3, #12]
	.loc 1 3105 7 is_stmt 1
	.loc 1 3105 46 is_stmt 0
	ldr	r2, [r3, #12]
	.loc 1 3105 57
	bic	r2, r2, #786432
	.loc 1 3105 89
	ldr	r5, [r1, #48]
	.loc 1 3105 77
	orrs	r2, r2, r5
	.loc 1 3105 29
	str	r2, [r3, #12]
	.loc 1 3108 7 is_stmt 1
	.loc 1 3108 13 is_stmt 0
	ldr	r5, [r0]
	.loc 1 3108 23
	ldr	r2, [r5, #100]
	.loc 1 3108 34
	orr	r2, r2, #1048576
	str	r2, [r5, #100]
	.loc 1 3110 7 is_stmt 1
	.loc 1 3110 13 is_stmt 0
	ldr	r5, [r0]
	.loc 1 3110 23
	ldr	r2, [r5, #80]
	.loc 1 3110 33
	orr	r2, r2, #67108864
	str	r2, [r5, #80]
.L52:
	.loc 1 3115 3 is_stmt 1
	.loc 1 3115 18 is_stmt 0
	ldr	r2, [r1]
	.loc 1 3115 6
	tst	r2, #16
	beq	.L53
	.loc 1 3118 5 is_stmt 1
	.loc 1 3118 44 is_stmt 0
	ldr	r5, [r3, #8]
	.loc 1 3118 55
	ldr	r2, .L85+4
	ands	r2, r2, r5
	.loc 1 3118 87
	ldr	r5, [r1, #24]
	.loc 1 3118 75
	orrs	r2, r2, r5
	.loc 1 3118 27
	str	r2, [r3, #8]
	.loc 1 3120 5 is_stmt 1
	.loc 1 3120 16 is_stmt 0
	ldr	r2, [r3, #12]
	.loc 1 3120 25
	orr	r2, r2, #67108864
	str	r2, [r3, #12]
.L53:
	.loc 1 3123 3 is_stmt 1
	.loc 1 3124 7 is_stmt 0
	ldr	r2, [r1]
	.loc 1 3123 6
	ands	r2, r2, #20
	beq	.L79
	.loc 1 3127 5 is_stmt 1
	.loc 1 3127 16 is_stmt 0
	ldr	r2, [r3, #12]
	.loc 1 3127 25
	orr	r2, r2, #1073741824
	str	r2, [r3, #12]
	.loc 1 3129 5 is_stmt 1
.LBB26:
.LBB27:
	.loc 2 957 3
	.syntax unified
@ 957 "d:\rtos\board\yd-stm32h7xxvx_classicv19\cmake-build-debug\_deps\stm32h7xx_cmsis_include\drivers\cmsis\include\cmsis_gcc.h" 1
	dmb 0xF
@ 0 "" 2
	.thumb
	.syntax unified
.LBE27:
.LBE26:
	.loc 1 3131 5
	.loc 1 3131 16 is_stmt 0
	ldr	r2, [r3, #12]
	.loc 1 3131 25
	orr	r2, r2, #-2147483648
	str	r2, [r3, #12]
	.loc 1 3133 5 is_stmt 1
	.loc 1 3133 10
	.loc 1 3133 20 is_stmt 0
	adds	r6, r4, #1
.LVL67:
	.loc 1 3133 29 is_stmt 1
	.loc 1 3133 32 is_stmt 0
	cmp	r6, #3
	bls	.L55
	.loc 1 3133 61 is_stmt 1 discriminator 1
	.loc 1 3133 71 is_stmt 0 discriminator 1
	subs	r6, r4, #3
.LVL68:
.L55:
	.loc 1 3133 8 is_stmt 1 discriminator 3
	.loc 1 3135 5 discriminator 3
	.loc 1 3135 60 is_stmt 0 discriminator 3
	add	r3, r0, r6, lsl #2
.LVL69:
	ldr	r3, [r3, #24]
.LVL70:
	.loc 1 3137 5 is_stmt 1 discriminator 3
	.loc 1 3140 5 discriminator 3
	.loc 1 3140 20 is_stmt 0 discriminator 3
	ldr	r2, [r3, #12]
	.loc 1 3140 8 discriminator 3
	cmp	r2, #0
	blt	.L82
	.loc 1 3137 13
	movs	r2, #1
	b	.L54
.L82:
	.loc 1 3142 7 is_stmt 1
	.loc 1 3142 62 is_stmt 0
	add	r4, r0, r4, lsl #2
.LVL71:
	ldr	r2, [r4, #24]
.LVL72:
	.loc 1 3144 7 is_stmt 1
.LBB28:
.LBB29:
	.loc 2 957 3
	.syntax unified
@ 957 "d:\rtos\board\yd-stm32h7xxvx_classicv19\cmake-build-debug\_deps\stm32h7xx_cmsis_include\drivers\cmsis\include\cmsis_gcc.h" 1
	dmb 0xF
@ 0 "" 2
	.thumb
	.syntax unified
.LBE29:
.LBE28:
	.loc 1 3146 7
	.loc 1 3146 18 is_stmt 0
	ldr	r3, [r2, #12]
	.loc 1 3146 27
	bic	r3, r3, #-2147483648
	str	r3, [r2, #12]
	.loc 1 3148 7 is_stmt 1
	.loc 1 3148 14 is_stmt 0
	movs	r0, #2
.LVL73:
	b	.L50
.LVL74:
.L79:
	.loc 1 3066 12
	mov	r6, r4
.LVL75:
.L54:
	.loc 1 3156 3 is_stmt 1
	.loc 1 3156 11 is_stmt 0
	add	lr, r2, #1
.LVL76:
	.loc 1 3159 3 is_stmt 1
	.loc 1 3159 44 is_stmt 0
	ldr	r2, [ip]
	.loc 1 3159 23
	str	r2, [r3]
	.loc 1 3161 3 is_stmt 1
	.loc 1 3161 42 is_stmt 0
	ldr	r2, [r3, #8]
	.loc 1 3161 53
	ldr	r5, .L85+4
	ands	r5, r5, r2
	.loc 1 3161 84
	ldr	r2, [ip, #4]
	.loc 1 3161 73
	orrs	r5, r5, r2
	.loc 1 3161 25
	str	r5, [r3, #8]
	.loc 1 3163 3 is_stmt 1
	.loc 1 3163 15 is_stmt 0
	ldr	r2, [ip, #8]
	.loc 1 3163 6
	cmp	r2, #0
	beq	.L56
	.loc 1 3165 5 is_stmt 1
.LVL77:
	.loc 1 3167 5
	.loc 1 3167 46 is_stmt 0
	ldr	r5, [r2]
	.loc 1 3167 25
	str	r5, [r3, #4]
	.loc 1 3169 5 is_stmt 1
	.loc 1 3169 44 is_stmt 0
	ldr	r5, [r3, #8]
	.loc 1 3169 55
	ldr	ip, .L85+8
	and	ip, r5, ip
	.loc 1 3169 87
	ldr	r5, [r2, #4]
	.loc 1 3169 75
	orr	r5, ip, r5, lsl #16
	.loc 1 3169 27
	str	r5, [r3, #8]
.L57:
	.loc 1 3178 3 is_stmt 1
	.loc 1 3178 18 is_stmt 0
	ldr	r5, [r1]
	.loc 1 3178 6
	tst	r5, #16
	beq	.L58
	.loc 1 3181 5 is_stmt 1
	.loc 1 3181 44 is_stmt 0
	ldr	r5, [r3, #12]
	.loc 1 3181 55
	bic	ip, r5, #7864320
	.loc 1 3181 88
	ldr	r5, [r1, #32]
	.loc 1 3181 75
	orr	r5, ip, r5, lsl #19
	.loc 1 3181 27
	str	r5, [r3, #12]
	.loc 1 3183 5 is_stmt 1
	.loc 1 3183 44 is_stmt 0
	ldr	r5, [r3, #12]
	.loc 1 3183 55
	ldr	ip, .L85+16
	and	ip, r5, ip
	.loc 1 3183 87
	ldr	r5, [r1, #28]
	.loc 1 3183 75
	orr	r5, ip, r5
	.loc 1 3183 27
	str	r5, [r3, #12]
	.loc 1 3185 5 is_stmt 1
	.loc 1 3185 16 is_stmt 0
	ldr	r5, [r3, #12]
	.loc 1 3185 25
	orr	r5, r5, #262144
	str	r5, [r3, #12]
.L59:
	.loc 1 3202 3 is_stmt 1
	.loc 1 3202 18 is_stmt 0
	ldr	r5, [r1]
	.loc 1 3202 6
	tst	r5, #4
	beq	.L61
	.loc 1 3205 5 is_stmt 1
	.loc 1 3205 44 is_stmt 0
	ldr	r5, [r3, #8]
	.loc 1 3205 55
	bic	ip, r5, #49152
	.loc 1 3205 87
	ldr	r5, [r1, #40]
	.loc 1 3205 75
	orr	r5, ip, r5
	.loc 1 3205 27
	str	r5, [r3, #8]
.L61:
	.loc 1 3209 3 is_stmt 1
	.loc 1 3209 14 is_stmt 0
	ldr	r5, [r3, #12]
	.loc 1 3209 23
	orr	r5, r5, #536870912
	str	r5, [r3, #12]
	.loc 1 3211 3 is_stmt 1
	.loc 1 3211 14 is_stmt 0
	ldr	r5, [r3, #12]
	.loc 1 3211 23
	bic	r5, r5, #1073741824
	str	r5, [r3, #12]
	.loc 1 3213 3 is_stmt 1
.LBB30:
.LBB31:
	.loc 2 957 3
	.syntax unified
@ 957 "d:\rtos\board\yd-stm32h7xxvx_classicv19\cmake-build-debug\_deps\stm32h7xx_cmsis_include\drivers\cmsis\include\cmsis_gcc.h" 1
	dmb 0xF
@ 0 "" 2
	.thumb
	.syntax unified
.LBE31:
.LBE30:
	.loc 1 3215 3
	.loc 1 3215 14 is_stmt 0
	ldr	r5, [r3, #12]
	.loc 1 3215 23
	orr	r5, r5, #-2147483648
	str	r5, [r3, #12]
	.loc 1 3218 3 is_stmt 1
	.loc 1 3218 18 is_stmt 0
	ldr	r5, [r1]
	.loc 1 3218 6
	tst	r5, #2
	beq	.L62
	.loc 1 3220 5 is_stmt 1
	.loc 1 3220 44 is_stmt 0
	ldr	r5, [r3, #12]
	.loc 1 3220 55
	bic	ip, r5, #58720256
	.loc 1 3220 87
	ldr	r5, [r1, #12]
	.loc 1 3220 75
	orr	r5, ip, r5
	.loc 1 3220 27
	str	r5, [r3, #12]
.L62:
	.loc 1 3263 14
	movs	r5, #0
	b	.L73
.LVL78:
.L56:
	.loc 1 3173 5 is_stmt 1
	.loc 1 3173 25 is_stmt 0
	movs	r2, #0
	str	r2, [r3, #4]
	.loc 1 3175 5 is_stmt 1
	.loc 1 3175 44 is_stmt 0
	ldr	r5, [r3, #8]
	.loc 1 3175 75
	ldr	r2, .L85+8
	ands	r2, r2, r5
	.loc 1 3175 27
	str	r2, [r3, #8]
	.loc 1 3072 22
	mov	r2, ip
	b	.L57
.LVL79:
.L58:
	.loc 1 3189 5 is_stmt 1
	.loc 1 3189 44 is_stmt 0
	ldr	r5, [r3, #12]
	.loc 1 3189 55
	ldr	ip, .L85+12
	and	ip, r5, ip
	.loc 1 3189 87
	ldr	r5, [r1, #4]
	.loc 1 3189 75
	orr	r5, ip, r5
	.loc 1 3189 27
	str	r5, [r3, #12]
	.loc 1 3191 5 is_stmt 1
	.loc 1 3191 20 is_stmt 0
	ldr	r5, [r1]
	.loc 1 3191 8
	tst	r5, #1
	beq	.L60
	.loc 1 3193 7 is_stmt 1
	.loc 1 3193 46 is_stmt 0
	ldr	r5, [r3, #12]
	.loc 1 3193 57
	bic	ip, r5, #196608
	.loc 1 3193 89
	ldr	r5, [r1, #20]
	.loc 1 3193 77
	orr	r5, ip, r5
	.loc 1 3193 29
	str	r5, [r3, #12]
.L60:
	.loc 1 3196 5 is_stmt 1
	.loc 1 3196 20 is_stmt 0
	ldr	r5, [r1]
	.loc 1 3196 8
	tst	r5, #32
	beq	.L59
	.loc 1 3198 7 is_stmt 1
	.loc 1 3198 46 is_stmt 0
	ldr	r5, [r3, #12]
	.loc 1 3198 57
	bic	ip, r5, #201326592
	.loc 1 3198 89
	ldr	r5, [r1, #16]
	.loc 1 3198 77
	orr	r5, ip, r5
	.loc 1 3198 29
	str	r5, [r3, #12]
	b	.L59
.LVL80:
.L64:
	.loc 1 3240 7 is_stmt 1
	.loc 1 3241 7
	.loc 1 3241 62 is_stmt 0
	add	r3, r0, r4, lsl #2
.LVL81:
	ldr	r1, [r3, #24]
.LVL82:
	.loc 1 3244 7 is_stmt 1
	.loc 1 3244 16 is_stmt 0
	movs	r2, #0
.LVL83:
	.loc 1 3244 7
	b	.L66
.LVL84:
.L67:
	.loc 1 3252 12 is_stmt 1 discriminator 3
	.loc 1 3254 9 discriminator 3
	.loc 1 3254 64 is_stmt 0 discriminator 3
	add	r1, r0, r3, lsl #2
.LVL85:
	ldr	r1, [r1, #24]
.LVL86:
	.loc 1 3244 40 is_stmt 1 discriminator 3
	adds	r2, r2, #1
.LVL87:
	mov	r4, r3
.LVL88:
.L66:
	.loc 1 3244 25 discriminator 2
	cmp	r2, lr
	bcs	.L83
	.loc 1 3247 9
.LBB32:
.LBB33:
	.loc 2 957 3
	.syntax unified
@ 957 "d:\rtos\board\yd-stm32h7xxvx_classicv19\cmake-build-debug\_deps\stm32h7xx_cmsis_include\drivers\cmsis\include\cmsis_gcc.h" 1
	dmb 0xF
@ 0 "" 2
	.thumb
	.syntax unified
.LBE33:
.LBE32:
	.loc 1 3249 9
	.loc 1 3249 20 is_stmt 0
	ldr	r3, [r1, #12]
	.loc 1 3249 29
	bic	r3, r3, #-2147483648
	str	r3, [r1, #12]
	.loc 1 3252 9 is_stmt 1
	.loc 1 3252 14
	.loc 1 3252 24 is_stmt 0
	adds	r3, r4, #1
.LVL89:
	.loc 1 3252 33 is_stmt 1
	.loc 1 3252 36 is_stmt 0
	cmp	r3, #3
	bls	.L67
	.loc 1 3252 65 is_stmt 1 discriminator 1
	.loc 1 3252 75 is_stmt 0 discriminator 1
	subs	r3, r4, #3
.LVL90:
	b	.L67
.LVL91:
.L83:
	.loc 1 3257 14
	movs	r0, #2
.LVL92:
	b	.L50
.LVL93:
.L69:
	.loc 1 3281 7 is_stmt 1
	.loc 1 3281 27 is_stmt 0
	movs	r2, #0
	str	r2, [r3, #4]
	.loc 1 3283 7 is_stmt 1
	.loc 1 3283 46 is_stmt 0
	ldr	r6, [r3, #8]
	.loc 1 3283 77
	ldr	r2, .L85+8
	ands	r2, r2, r6
	.loc 1 3283 29
	str	r2, [r3, #8]
	.loc 1 3263 14
	mov	r2, r7
	b	.L70
.L86:
	.align	2
.L85:
	.word	-65536
	.word	-16384
	.word	-1073676289
	.word	-32768
	.word	-262144
.LVL94:
.L71:
	.loc 1 3296 7 is_stmt 1
	.loc 1 3296 46 is_stmt 0
	ldr	r7, [r3, #12]
	.loc 1 3296 57
	ldr	r6, .L87
	ands	r6, r6, r7
	.loc 1 3296 77
	ldr	r7, [r1, #4]
	orrs	r6, r6, r7
	.loc 1 3296 29
	str	r6, [r3, #12]
	.loc 1 3298 7 is_stmt 1
	.loc 1 3298 10 is_stmt 0
	ldr	r6, [r1]
	tst	r6, #1
	beq	.L72
	.loc 1 3301 9 is_stmt 1
	.loc 1 3301 48 is_stmt 0
	ldr	r6, [r3, #12]
	.loc 1 3301 59
	bic	r6, r6, #196608
	.loc 1 3301 79
	ldr	r7, [r1, #20]
	orrs	r6, r6, r7
	.loc 1 3301 31
	str	r6, [r3, #12]
.L72:
	.loc 1 3305 5 is_stmt 1
	.loc 1 3305 14 is_stmt 0
	adds	r5, r5, #1
.LVL95:
	.loc 1 3308 5 is_stmt 1
.LBB34:
.LBB35:
	.loc 2 957 3
	.syntax unified
@ 957 "d:\rtos\board\yd-stm32h7xxvx_classicv19\cmake-build-debug\_deps\stm32h7xx_cmsis_include\drivers\cmsis\include\cmsis_gcc.h" 1
	dmb 0xF
@ 0 "" 2
	.thumb
	.syntax unified
.LBE35:
.LBE34:
	.loc 1 3310 5
	.loc 1 3310 16 is_stmt 0
	ldr	r6, [r3, #12]
	.loc 1 3310 25
	orr	r6, r6, #-2147483648
	str	r6, [r3, #12]
	.loc 1 3312 5 is_stmt 1
	.loc 1 3312 16 is_stmt 0
	ldr	r6, [r3, #12]
	.loc 1 3312 25
	bic	r6, r6, #1073741824
	str	r6, [r3, #12]
	mov	r6, ip
.LVL96:
.L73:
	.loc 1 3224 25 is_stmt 1
	ldr	r7, [r2, #8]
	cmp	r7, #0
	beq	.L84
	.loc 1 3227 5
	.loc 1 3227 16 is_stmt 0
	ldr	r7, [r3, #12]
	.loc 1 3227 25
	bic	r7, r7, #268435456
	str	r7, [r3, #12]
	.loc 1 3229 5 is_stmt 1
	.loc 1 3229 10
	.loc 1 3229 20 is_stmt 0
	add	ip, r6, #1
.LVL97:
	.loc 1 3229 29 is_stmt 1
	.loc 1 3229 32 is_stmt 0
	cmp	ip, #3
	bls	.L63
	.loc 1 3229 61 is_stmt 1 discriminator 1
	.loc 1 3229 71 is_stmt 0 discriminator 1
	sub	ip, r6, #3
.LVL98:
.L63:
	.loc 1 3229 8 is_stmt 1 discriminator 3
	.loc 1 3231 5 discriminator 3
	.loc 1 3231 60 is_stmt 0 discriminator 3
	add	r3, r0, ip, lsl #2
.LVL99:
	ldr	r3, [r3, #24]
.LVL100:
	.loc 1 3234 5 is_stmt 1 discriminator 3
	.loc 1 3234 16 is_stmt 0 discriminator 3
	ldr	r6, [r3, #12]
	.loc 1 3234 25 discriminator 3
	bic	r6, r6, #536870912
	str	r6, [r3, #12]
	.loc 1 3237 5 is_stmt 1 discriminator 3
	.loc 1 3237 21 is_stmt 0 discriminator 3
	ldr	r6, [r3, #12]
	.loc 1 3237 8 discriminator 3
	cmp	r6, #0
	blt	.L64
	.loc 1 3238 41
	add	r6, ip, #4
	add	r6, r0, r6, lsl #2
	ldr	r6, [r6, #28]
	.loc 1 3238 9
	cmp	r6, #0
	bne	.L64
	.loc 1 3260 5 is_stmt 1
	.loc 1 3260 13 is_stmt 0
	add	lr, lr, #1
.LVL101:
	.loc 1 3263 5 is_stmt 1
	.loc 1 3263 14 is_stmt 0
	ldr	r7, [r2, #8]
.LVL102:
	.loc 1 3266 5 is_stmt 1
	.loc 1 3266 46 is_stmt 0
	ldr	r2, [r7]
	.loc 1 3266 25
	str	r2, [r3]
	.loc 1 3268 5 is_stmt 1
	.loc 1 3268 44 is_stmt 0
	ldr	r2, [r3, #8]
	.loc 1 3268 55
	ldr	r6, .L87+4
	ands	r6, r6, r2
	.loc 1 3268 86
	ldr	r2, [r7, #4]
	.loc 1 3268 75
	orrs	r6, r6, r2
	.loc 1 3268 27
	str	r6, [r3, #8]
	.loc 1 3270 5 is_stmt 1
	.loc 1 3270 17 is_stmt 0
	ldr	r2, [r7, #8]
	.loc 1 3270 8
	cmp	r2, #0
	beq	.L69
	.loc 1 3273 7 is_stmt 1
.LVL103:
	.loc 1 3275 7
	.loc 1 3275 48 is_stmt 0
	ldr	r6, [r2]
	.loc 1 3275 27
	str	r6, [r3, #4]
	.loc 1 3277 7 is_stmt 1
	.loc 1 3277 46 is_stmt 0
	ldr	r7, [r3, #8]
	.loc 1 3277 57
	ldr	r6, .L87+8
	ands	r6, r6, r7
	.loc 1 3277 77
	ldr	r7, [r2, #4]
	orr	r6, r6, r7, lsl #16
	.loc 1 3277 29
	str	r6, [r3, #8]
.L70:
	.loc 1 3286 5 is_stmt 1
	.loc 1 3286 8 is_stmt 0
	ldr	r6, [r1]
	tst	r6, #16
	beq	.L71
	.loc 1 3289 7 is_stmt 1
	.loc 1 3289 46 is_stmt 0
	ldr	r7, [r3, #12]
	.loc 1 3289 57
	ldr	r6, .L87+12
	ands	r6, r6, r7
	.loc 1 3289 77
	ldr	r7, [r1, #28]
	orrs	r6, r6, r7
	.loc 1 3289 29
	str	r6, [r3, #12]
	.loc 1 3291 7 is_stmt 1
	.loc 1 3291 18 is_stmt 0
	ldr	r6, [r3, #12]
	.loc 1 3291 27
	orr	r6, r6, #262144
	str	r6, [r3, #12]
	b	.L72
.LVL104:
.L84:
	.loc 1 3315 3 is_stmt 1
	.loc 1 3315 6 is_stmt 0
	cmp	r8, #0
	beq	.L75
	.loc 1 3318 5 is_stmt 1
	.loc 1 3318 16 is_stmt 0
	ldr	r2, [r3, #8]
.LVL105:
	.loc 1 3318 25
	orr	r2, r2, #-2147483648
	str	r2, [r3, #8]
.L76:
	.loc 1 3327 3 is_stmt 1
	.loc 1 3327 14 is_stmt 0
	ldr	r2, [r3, #12]
	.loc 1 3327 23
	orr	r2, r2, #268435456
	str	r2, [r3, #12]
	.loc 1 3329 3 is_stmt 1
	.loc 1 3329 56 is_stmt 0
	ldr	r2, [r0, #60]
	.loc 1 3329 41
	adds	r3, r6, #4
.LVL106:
	add	r3, r0, r3, lsl #2
	str	r2, [r3, #28]
	.loc 1 3331 3 is_stmt 1
	.loc 1 3331 28 is_stmt 0
	str	r6, [r0, #40]
	.loc 1 3334 3 is_stmt 1
.LBB36:
.LBB37:
	.loc 2 451 3
	.loc 2 453 3
	.syntax unified
@ 453 "d:\rtos\board\yd-stm32h7xxvx_classicv19\cmake-build-debug\_deps\stm32h7xx_cmsis_include\drivers\cmsis\include\cmsis_gcc.h" 1
	MRS r2, primask
@ 0 "" 2
.LVL107:
	.loc 2 454 3
	.thumb
	.syntax unified
.LBE37:
.LBE36:
	.loc 1 3335 3
.LBB38:
.LBB39:
	.loc 2 481 3
	movs	r3, #1
	.syntax unified
@ 481 "d:\rtos\board\yd-stm32h7xxvx_classicv19\cmake-build-debug\_deps\stm32h7xx_cmsis_include\drivers\cmsis\include\cmsis_gcc.h" 1
	MSR primask, r3
@ 0 "" 2
.LVL108:
	.thumb
	.syntax unified
.LBE39:
.LBE38:
	.loc 1 3337 3
	.loc 1 3337 16 is_stmt 0
	ldr	r3, [r0, #64]
	.loc 1 3337 31
	add	r3, r3, r5
	adds	r3, r3, #1
	str	r3, [r0, #64]
	.loc 1 3340 3 is_stmt 1
.LVL109:
.LBB40:
.LBB41:
	.loc 2 481 3
	.syntax unified
@ 481 "d:\rtos\board\yd-stm32h7xxvx_classicv19\cmake-build-debug\_deps\stm32h7xx_cmsis_include\drivers\cmsis\include\cmsis_gcc.h" 1
	MSR primask, r2
@ 0 "" 2
.LVL110:
	.thumb
	.syntax unified
.LBE41:
.LBE40:
	.loc 1 3343 3
	.loc 1 3343 10 is_stmt 0
	movs	r0, #0
.LVL111:
	b	.L50
.LVL112:
.L75:
	.loc 1 3323 5 is_stmt 1
	.loc 1 3323 16 is_stmt 0
	ldr	r2, [r3, #8]
.LVL113:
	.loc 1 3323 25
	bic	r2, r2, #-2147483648
	str	r2, [r3, #8]
	b	.L76
.LVL114:
.L77:
	.loc 1 3080 12
	movs	r0, #2
.LVL115:
	b	.L50
.LVL116:
.L78:
	movs	r0, #2
.LVL117:
.L50:
	.loc 1 3344 1
	pop	{r4, r5, r6, r7, r8, pc}
.LVL118:
.L88:
	.align	2
.L87:
	.word	-32768
	.word	-16384
	.word	-1073676289
	.word	-262144
	.cfi_endproc
.LFE390:
	.size	ETH_Prepare_Tx_Descriptors, .-ETH_Prepare_Tx_Descriptors
	.section	.text.HAL_ETH_MspInit,"ax",%progbits
	.align	1
	.weak	HAL_ETH_MspInit
	.syntax unified
	.thumb
	.thumb_func
	.type	HAL_ETH_MspInit, %function
HAL_ETH_MspInit:
.LFB337:
	.loc 1 468 1 is_stmt 1
	.cfi_startproc
	@ args = 0, pretend = 0, frame = 0
	@ frame_needed = 0, uses_anonymous_args = 0
	@ link register save eliminated.
.LVL119:
	.loc 1 470 3
	.loc 1 474 1 is_stmt 0
	bx	lr
	.cfi_endproc
.LFE337:
	.size	HAL_ETH_MspInit, .-HAL_ETH_MspInit
	.section	.text.HAL_ETH_MspDeInit,"ax",%progbits
	.align	1
	.weak	HAL_ETH_MspDeInit
	.syntax unified
	.thumb
	.thumb_func
	.type	HAL_ETH_MspDeInit, %function
HAL_ETH_MspDeInit:
.LFB338:
	.loc 1 483 1 is_stmt 1
	.cfi_startproc
	@ args = 0, pretend = 0, frame = 0
	@ frame_needed = 0, uses_anonymous_args = 0
	@ link register save eliminated.
.LVL120:
	.loc 1 485 3
	.loc 1 489 1 is_stmt 0
	bx	lr
	.cfi_endproc
.LFE338:
	.size	HAL_ETH_MspDeInit, .-HAL_ETH_MspDeInit
	.section	.text.HAL_ETH_DeInit,"ax",%progbits
	.align	1
	.global	HAL_ETH_DeInit
	.syntax unified
	.thumb
	.thumb_func
	.type	HAL_ETH_DeInit, %function
HAL_ETH_DeInit:
.LFB336:
	.loc 1 435 1 is_stmt 1
	.cfi_startproc
	@ args = 0, pretend = 0, frame = 0
	@ frame_needed = 0, uses_anonymous_args = 0
.LVL121:
	push	{r4, lr}
	.cfi_def_cfa_offset 8
	.cfi_offset 4, -8
	.cfi_offset 14, -4
	mov	r4, r0
	.loc 1 437 3
	.loc 1 437 16 is_stmt 0
	movs	r3, #35
	str	r3, [r0, #132]
	.loc 1 450 3 is_stmt 1
	bl	HAL_ETH_MspDeInit
.LVL122:
	.loc 1 455 3
	.loc 1 455 16 is_stmt 0
	movs	r0, #0
	str	r0, [r4, #132]
	.loc 1 458 3 is_stmt 1
	.loc 1 459 1 is_stmt 0
	pop	{r4, pc}
	.cfi_endproc
.LFE336:
	.size	HAL_ETH_DeInit, .-HAL_ETH_DeInit
	.section	.text.HAL_ETH_Start,"ax",%progbits
	.align	1
	.global	HAL_ETH_Start
	.syntax unified
	.thumb
	.thumb_func
	.type	HAL_ETH_Start, %function
HAL_ETH_Start:
.LFB339:
	.loc 1 718 1 is_stmt 1
	.cfi_startproc
	@ args = 0, pretend = 0, frame = 0
	@ frame_needed = 0, uses_anonymous_args = 0
.LVL123:
	push	{r3, r4, r5, lr}
	.cfi_def_cfa_offset 16
	.cfi_offset 3, -16
	.cfi_offset 4, -12
	.cfi_offset 5, -8
	.cfi_offset 14, -4
	.loc 1 719 3
	.loc 1 719 11 is_stmt 0
	ldr	r3, [r0, #132]
	.loc 1 719 6
	cmp	r3, #16
	beq	.L97
	.loc 1 753 12
	movs	r0, #1
.LVL124:
.L94:
	.loc 1 755 1
	pop	{r3, r4, r5, pc}
.LVL125:
.L97:
	mov	r4, r0
	.loc 1 721 5 is_stmt 1
	.loc 1 721 18 is_stmt 0
	movs	r5, #35
	str	r5, [r0, #132]
	.loc 1 724 5 is_stmt 1
	.loc 1 724 37 is_stmt 0
	movs	r3, #4
	str	r3, [r0, #108]
	.loc 1 727 5 is_stmt 1
	bl	ETH_UpdateDescriptor
.LVL126:
	.loc 1 730 5
	.loc 1 730 11 is_stmt 0
	ldr	r2, [r4]
	.loc 1 730 21
	ldr	r3, [r2]
	.loc 1 730 30
	orr	r3, r3, #2
	str	r3, [r2]
	.loc 1 733 5 is_stmt 1
	.loc 1 733 11 is_stmt 0
	ldr	r2, [r4]
	.loc 1 733 21
	ldr	r3, [r2]
	.loc 1 733 30
	orr	r3, r3, #1
	str	r3, [r2]
	.loc 1 736 5 is_stmt 1
	.loc 1 736 11 is_stmt 0
	ldr	r2, [r4]
	.loc 1 736 21
	ldr	r3, [r2, #3328]
	.loc 1 736 33
	orr	r3, r3, #1
	str	r3, [r2, #3328]
	.loc 1 739 5 is_stmt 1
	.loc 1 739 11 is_stmt 0
	ldr	r3, [r4]
	.loc 1 739 21
	add	r3, r3, #4096
	ldr	r2, [r3, #260]
	.loc 1 739 32
	orr	r2, r2, #1
	str	r2, [r3, #260]
	.loc 1 742 5 is_stmt 1
	.loc 1 742 11 is_stmt 0
	ldr	r3, [r4]
	.loc 1 742 21
	add	r3, r3, #4096
	ldr	r2, [r3, #264]
	.loc 1 742 32
	orr	r2, r2, #1
	str	r2, [r3, #264]
	.loc 1 745 5 is_stmt 1
	.loc 1 745 9 is_stmt 0
	ldr	r3, [r4]
	.loc 1 745 19
	add	r3, r3, #4096
	ldr	r2, [r3, #352]
	.loc 1 745 28
	orr	r2, r2, #258
	str	r2, [r3, #352]
	.loc 1 747 5 is_stmt 1
	.loc 1 747 18 is_stmt 0
	str	r5, [r4, #132]
	.loc 1 749 5 is_stmt 1
	.loc 1 749 12 is_stmt 0
	movs	r0, #0
	b	.L94
	.cfi_endproc
.LFE339:
	.size	HAL_ETH_Start, .-HAL_ETH_Start
	.section	.text.HAL_ETH_Start_IT,"ax",%progbits
	.align	1
	.global	HAL_ETH_Start_IT
	.syntax unified
	.thumb
	.thumb_func
	.type	HAL_ETH_Start_IT, %function
HAL_ETH_Start_IT:
.LFB340:
	.loc 1 764 1 is_stmt 1
	.cfi_startproc
	@ args = 0, pretend = 0, frame = 0
	@ frame_needed = 0, uses_anonymous_args = 0
.LVL127:
	push	{r3, r4, r5, lr}
	.cfi_def_cfa_offset 16
	.cfi_offset 3, -16
	.cfi_offset 4, -12
	.cfi_offset 5, -8
	.cfi_offset 14, -4
	.loc 1 765 3
	.loc 1 765 11 is_stmt 0
	ldr	r3, [r0, #132]
	.loc 1 765 6
	cmp	r3, #16
	beq	.L102
	.loc 1 809 12
	movs	r0, #1
.LVL128:
.L99:
	.loc 1 811 1
	pop	{r3, r4, r5, pc}
.LVL129:
.L102:
	mov	r4, r0
	.loc 1 767 5 is_stmt 1
	.loc 1 767 18 is_stmt 0
	movs	r5, #35
	str	r5, [r0, #132]
	.loc 1 770 5 is_stmt 1
	.loc 1 770 29 is_stmt 0
	movs	r3, #1
	str	r3, [r0, #88]
	.loc 1 773 5 is_stmt 1
	.loc 1 773 37 is_stmt 0
	movs	r3, #4
	str	r3, [r0, #108]
	.loc 1 776 5 is_stmt 1
	bl	ETH_UpdateDescriptor
.LVL130:
	.loc 1 779 5
	.loc 1 779 11 is_stmt 0
	ldr	r3, [r4]
	.loc 1 779 21
	add	r3, r3, #4096
	ldr	r2, [r3, #260]
	.loc 1 779 32
	orr	r2, r2, #1
	str	r2, [r3, #260]
	.loc 1 782 5 is_stmt 1
	.loc 1 782 11 is_stmt 0
	ldr	r3, [r4]
	.loc 1 782 21
	add	r3, r3, #4096
	ldr	r2, [r3, #264]
	.loc 1 782 32
	orr	r2, r2, #1
	str	r2, [r3, #264]
	.loc 1 785 5 is_stmt 1
	.loc 1 785 9 is_stmt 0
	ldr	r3, [r4]
	.loc 1 785 19
	add	r3, r3, #4096
	ldr	r2, [r3, #352]
	.loc 1 785 28
	orr	r2, r2, #258
	str	r2, [r3, #352]
	.loc 1 788 5 is_stmt 1
	.loc 1 788 11 is_stmt 0
	ldr	r2, [r4]
	.loc 1 788 21
	ldr	r3, [r2, #3328]
	.loc 1 788 33
	orr	r3, r3, #1
	str	r3, [r2, #3328]
	.loc 1 791 5 is_stmt 1
	.loc 1 791 11 is_stmt 0
	ldr	r2, [r4]
	.loc 1 791 21
	ldr	r3, [r2]
	.loc 1 791 30
	orr	r3, r3, #2
	str	r3, [r2]
	.loc 1 794 5 is_stmt 1
	.loc 1 794 11 is_stmt 0
	ldr	r2, [r4]
	.loc 1 794 21
	ldr	r3, [r2]
	.loc 1 794 30
	orr	r3, r3, #1
	str	r3, [r2]
	.loc 1 801 5 is_stmt 1
	.loc 1 801 12 is_stmt 0
	ldr	r3, [r4]
	.loc 1 801 22
	add	r3, r3, #4096
	ldr	r1, [r3, #308]
	.loc 1 801 32
	movw	r2, #53441
	orrs	r2, r2, r1
	str	r2, [r3, #308]
	.loc 1 804 5 is_stmt 1
	.loc 1 804 18 is_stmt 0
	str	r5, [r4, #132]
	.loc 1 805 5 is_stmt 1
	.loc 1 805 12 is_stmt 0
	movs	r0, #0
	b	.L99
	.cfi_endproc
.LFE340:
	.size	HAL_ETH_Start_IT, .-HAL_ETH_Start_IT
	.section	.text.HAL_ETH_Stop,"ax",%progbits
	.align	1
	.global	HAL_ETH_Stop
	.syntax unified
	.thumb
	.thumb_func
	.type	HAL_ETH_Stop, %function
HAL_ETH_Stop:
.LFB341:
	.loc 1 820 1 is_stmt 1
	.cfi_startproc
	@ args = 0, pretend = 0, frame = 0
	@ frame_needed = 0, uses_anonymous_args = 0
	@ link register save eliminated.
.LVL131:
	.loc 1 821 3
	.loc 1 821 11 is_stmt 0
	ldr	r3, [r0, #132]
	.loc 1 821 6
	cmp	r3, #35
	beq	.L106
	.loc 1 848 12
	movs	r0, #1
.LVL132:
	.loc 1 850 1
	bx	lr
.LVL133:
.L106:
	.loc 1 824 5 is_stmt 1
	.loc 1 824 18 is_stmt 0
	str	r3, [r0, #132]
	.loc 1 827 5 is_stmt 1
	.loc 1 827 11 is_stmt 0
	ldr	r3, [r0]
	.loc 1 827 21
	add	r3, r3, #4096
	ldr	r2, [r3, #260]
	.loc 1 827 32
	bic	r2, r2, #1
	str	r2, [r3, #260]
	.loc 1 830 5 is_stmt 1
	.loc 1 830 11 is_stmt 0
	ldr	r3, [r0]
	.loc 1 830 21
	add	r3, r3, #4096
	ldr	r2, [r3, #264]
	.loc 1 830 32
	bic	r2, r2, #1
	str	r2, [r3, #264]
	.loc 1 833 5 is_stmt 1
	.loc 1 833 11 is_stmt 0
	ldr	r2, [r0]
	.loc 1 833 21
	ldr	r3, [r2]
	.loc 1 833 30
	bic	r3, r3, #1
	str	r3, [r2]
	.loc 1 836 5 is_stmt 1
	.loc 1 836 11 is_stmt 0
	ldr	r2, [r0]
	.loc 1 836 21
	ldr	r3, [r2, #3328]
	.loc 1 836 33
	orr	r3, r3, #1
	str	r3, [r2, #3328]
	.loc 1 839 5 is_stmt 1
	.loc 1 839 11 is_stmt 0
	ldr	r2, [r0]
	.loc 1 839 21
	ldr	r3, [r2]
	.loc 1 839 30
	bic	r3, r3, #2
	str	r3, [r2]
	.loc 1 841 5 is_stmt 1
	.loc 1 841 18 is_stmt 0
	movs	r3, #16
	str	r3, [r0, #132]
	.loc 1 844 5 is_stmt 1
	.loc 1 844 12 is_stmt 0
	movs	r0, #0
.LVL134:
	bx	lr
	.cfi_endproc
.LFE341:
	.size	HAL_ETH_Stop, .-HAL_ETH_Stop
	.section	.text.HAL_ETH_Stop_IT,"ax",%progbits
	.align	1
	.global	HAL_ETH_Stop_IT
	.syntax unified
	.thumb
	.thumb_func
	.type	HAL_ETH_Stop_IT, %function
HAL_ETH_Stop_IT:
.LFB342:
	.loc 1 859 1 is_stmt 1
	.cfi_startproc
	@ args = 0, pretend = 0, frame = 0
	@ frame_needed = 0, uses_anonymous_args = 0
	@ link register save eliminated.
.LVL135:
	.loc 1 860 3
	.loc 1 861 3
	.loc 1 863 3
	.loc 1 863 11 is_stmt 0
	ldr	r3, [r0, #132]
	.loc 1 863 6
	cmp	r3, #35
	beq	.L112
	.loc 1 907 12
	movs	r0, #1
.LVL136:
	.loc 1 909 1
	bx	lr
.LVL137:
.L112:
	.loc 1 866 5 is_stmt 1
	.loc 1 866 18 is_stmt 0
	str	r3, [r0, #132]
	.loc 1 873 5 is_stmt 1
	.loc 1 873 12 is_stmt 0
	ldr	r3, [r0]
	.loc 1 873 22
	add	r3, r3, #4096
	ldr	r1, [r3, #308]
	.loc 1 873 32
	ldr	r2, .L113
	ands	r2, r2, r1
	str	r2, [r3, #308]
	.loc 1 877 5 is_stmt 1
	.loc 1 877 11 is_stmt 0
	ldr	r3, [r0]
	.loc 1 877 21
	add	r3, r3, #4096
	ldr	r2, [r3, #260]
	.loc 1 877 32
	bic	r2, r2, #1
	str	r2, [r3, #260]
	.loc 1 880 5 is_stmt 1
	.loc 1 880 11 is_stmt 0
	ldr	r3, [r0]
	.loc 1 880 21
	add	r3, r3, #4096
	ldr	r2, [r3, #264]
	.loc 1 880 32
	bic	r2, r2, #1
	str	r2, [r3, #264]
	.loc 1 883 5 is_stmt 1
	.loc 1 883 11 is_stmt 0
	ldr	r2, [r0]
	.loc 1 883 21
	ldr	r3, [r2]
	.loc 1 883 30
	bic	r3, r3, #1
	str	r3, [r2]
	.loc 1 886 5 is_stmt 1
	.loc 1 886 11 is_stmt 0
	ldr	r2, [r0]
	.loc 1 886 21
	ldr	r3, [r2, #3328]
	.loc 1 886 33
	orr	r3, r3, #1
	str	r3, [r2, #3328]
	.loc 1 889 5 is_stmt 1
	.loc 1 889 11 is_stmt 0
	ldr	r2, [r0]
	.loc 1 889 21
	ldr	r3, [r2]
	.loc 1 889 30
	bic	r3, r3, #2
	str	r3, [r2]
	.loc 1 892 5 is_stmt 1
.LVL138:
	.loc 1 892 20 is_stmt 0
	movs	r3, #0
	.loc 1 892 5
	b	.L109
.LVL139:
.L110:
	.loc 1 894 7 is_stmt 1 discriminator 3
	.loc 1 894 64 is_stmt 0 discriminator 3
	add	r2, r3, #18
	ldr	r1, [r0, r2, lsl #2]
.LVL140:
	.loc 1 895 7 is_stmt 1 discriminator 3
	.loc 1 895 18 is_stmt 0 discriminator 3
	ldr	r2, [r1, #12]
	.loc 1 895 27 discriminator 3
	bic	r2, r2, #1073741824
	str	r2, [r1, #12]
	.loc 1 892 60 is_stmt 1 discriminator 3
	adds	r3, r3, #1
.LVL141:
.L109:
	.loc 1 892 35 discriminator 1
	cmp	r3, #3
	bls	.L110
	.loc 1 898 5
	.loc 1 898 29 is_stmt 0
	movs	r3, #0
.LVL142:
	str	r3, [r0, #88]
	.loc 1 900 5 is_stmt 1
	.loc 1 900 18 is_stmt 0
	movs	r2, #16
	str	r2, [r0, #132]
	.loc 1 903 5 is_stmt 1
	.loc 1 903 12 is_stmt 0
	mov	r0, r3
.LVL143:
	bx	lr
.L114:
	.align	2
.L113:
	.word	-53442
	.cfi_endproc
.LFE342:
	.size	HAL_ETH_Stop_IT, .-HAL_ETH_Stop_IT
	.section	.text.HAL_ETH_Transmit,"ax",%progbits
	.align	1
	.global	HAL_ETH_Transmit
	.syntax unified
	.thumb
	.thumb_func
	.type	HAL_ETH_Transmit, %function
HAL_ETH_Transmit:
.LFB343:
	.loc 1 920 1 is_stmt 1
	.cfi_startproc
	@ args = 0, pretend = 0, frame = 0
	@ frame_needed = 0, uses_anonymous_args = 0
.LVL144:
	push	{r3, r4, r5, r6, r7, lr}
	.cfi_def_cfa_offset 24
	.cfi_offset 3, -24
	.cfi_offset 4, -20
	.cfi_offset 5, -16
	.cfi_offset 6, -12
	.cfi_offset 7, -8
	.cfi_offset 14, -4
	mov	r4, r0
	.loc 1 921 3
	.loc 1 922 3
	.loc 1 924 3
	.loc 1 924 6 is_stmt 0
	cbz	r1, .L127
	mov	r5, r2
	.loc 1 930 3 is_stmt 1
	.loc 1 930 11 is_stmt 0
	ldr	r3, [r4, #132]
	.loc 1 930 6
	cmp	r3, #35
	beq	.L128
	.loc 1 983 12
	movs	r0, #1
.LVL145:
.L117:
	.loc 1 985 1
	pop	{r3, r4, r5, r6, r7, pc}
.LVL146:
.L127:
	.loc 1 926 5 is_stmt 1
	.loc 1 926 9 is_stmt 0
	ldr	r3, [r0, #136]
	.loc 1 926 21
	orr	r3, r3, #1
	str	r3, [r0, #136]
	.loc 1 927 5 is_stmt 1
	.loc 1 927 12 is_stmt 0
	movs	r0, #1
.LVL147:
	b	.L117
.LVL148:
.L128:
	.loc 1 933 5 is_stmt 1
	.loc 1 933 9 is_stmt 0
	movs	r2, #0
.LVL149:
	mov	r0, r4
.LVL150:
	bl	ETH_Prepare_Tx_Descriptors
.LVL151:
	.loc 1 933 8
	cmp	r0, #0
	bne	.L129
	.loc 1 941 5 is_stmt 1
.LBB42:
.LBB43:
	.loc 2 946 3
	.syntax unified
@ 946 "d:\rtos\board\yd-stm32h7xxvx_classicv19\cmake-build-debug\_deps\stm32h7xx_cmsis_include\drivers\cmsis\include\cmsis_gcc.h" 1
	dsb 0xF
@ 0 "" 2
	.thumb
	.syntax unified
.LBE43:
.LBE42:
	.loc 1 943 5
	.loc 1 943 83 is_stmt 0
	ldr	r3, [r4, #40]
	.loc 1 943 66
	adds	r2, r3, #6
	ldr	r6, [r4, r2, lsl #2]
.LVL152:
	.loc 1 946 5 is_stmt 1
	.loc 1 946 10
	.loc 1 946 39 is_stmt 0
	adds	r2, r3, #1
	str	r2, [r4, #40]
	.loc 1 946 48 is_stmt 1
	.loc 1 946 51 is_stmt 0
	cmp	r2, #3
	bls	.L119
	.loc 1 946 99 is_stmt 1 discriminator 1
	.loc 1 946 160 is_stmt 0 discriminator 1
	subs	r3, r3, #3
	.loc 1 946 128 discriminator 1
	str	r3, [r4, #40]
.L119:
	.loc 1 946 8 is_stmt 1 discriminator 3
	.loc 1 950 5 discriminator 3
	.loc 1 950 88 is_stmt 0 discriminator 3
	ldr	r2, [r4, #40]
	.loc 1 950 11 discriminator 3
	ldr	r3, [r4]
	.loc 1 950 71 discriminator 3
	adds	r2, r2, #6
	ldr	r2, [r4, r2, lsl #2]
	.loc 1 950 34 discriminator 3
	add	r3, r3, #4096
	str	r2, [r3, #288]
	.loc 1 952 5 is_stmt 1 discriminator 3
	.loc 1 952 17 is_stmt 0 discriminator 3
	bl	HAL_GetTick
.LVL153:
	mov	r7, r0
.LVL154:
	.loc 1 955 5 is_stmt 1 discriminator 3
.L122:
	.loc 1 955 45
	.loc 1 955 22 is_stmt 0
	ldr	r3, [r6, #12]
	.loc 1 955 45
	cmp	r3, #0
	bge	.L130
	.loc 1 957 7 is_stmt 1
	.loc 1 957 16 is_stmt 0
	ldr	r3, [r4]
	.loc 1 957 26
	add	r2, r3, #4096
	ldr	r2, [r2, #352]
	.loc 1 957 10
	tst	r2, #4096
	bne	.L131
	.loc 1 966 7 is_stmt 1
	.loc 1 966 10 is_stmt 0
	cmp	r5, #-1
	beq	.L122
	.loc 1 968 9 is_stmt 1
	.loc 1 968 15 is_stmt 0
	bl	HAL_GetTick
.LVL155:
	.loc 1 968 29
	subs	r0, r0, r7
	.loc 1 968 12
	cmp	r0, r5
	bhi	.L123
	.loc 1 968 53 discriminator 1
	cmp	r5, #0
	bne	.L122
.L123:
	.loc 1 970 11 is_stmt 1
	.loc 1 970 15 is_stmt 0
	ldr	r3, [r4, #136]
	.loc 1 970 27
	orr	r3, r3, #4
	str	r3, [r4, #136]
	.loc 1 972 11 is_stmt 1
	.loc 1 972 28 is_stmt 0
	mov	r3, #805306368
	str	r3, [r6, #12]
	.loc 1 973 11 is_stmt 1
	.loc 1 973 18 is_stmt 0
	movs	r0, #1
	b	.L117
.LVL156:
.L129:
	.loc 1 936 7 is_stmt 1
	.loc 1 936 11 is_stmt 0
	ldr	r3, [r4, #136]
	.loc 1 936 23
	orr	r3, r3, #2
	str	r3, [r4, #136]
	.loc 1 937 7 is_stmt 1
	.loc 1 937 14 is_stmt 0
	movs	r0, #1
	b	.L117
.LVL157:
.L131:
	.loc 1 959 9 is_stmt 1
	.loc 1 959 13 is_stmt 0
	ldr	r2, [r4, #136]
	.loc 1 959 25
	orr	r2, r2, #8
	str	r2, [r4, #136]
	.loc 1 960 9 is_stmt 1
	.loc 1 960 44 is_stmt 0
	add	r3, r3, #4096
	ldr	r3, [r3, #352]
	.loc 1 960 28
	str	r3, [r4, #140]
	.loc 1 962 9 is_stmt 1
	.loc 1 962 16 is_stmt 0
	movs	r0, #1
	b	.L117
.L130:
	.loc 1 979 12
	movs	r0, #0
	b	.L117
	.cfi_endproc
.LFE343:
	.size	HAL_ETH_Transmit, .-HAL_ETH_Transmit
	.section	.text.HAL_ETH_Transmit_IT,"ax",%progbits
	.align	1
	.global	HAL_ETH_Transmit_IT
	.syntax unified
	.thumb
	.thumb_func
	.type	HAL_ETH_Transmit_IT, %function
HAL_ETH_Transmit_IT:
.LFB344:
	.loc 1 995 1 is_stmt 1
	.cfi_startproc
	@ args = 0, pretend = 0, frame = 0
	@ frame_needed = 0, uses_anonymous_args = 0
.LVL158:
	push	{r4, lr}
	.cfi_def_cfa_offset 8
	.cfi_offset 4, -8
	.cfi_offset 14, -4
	mov	r4, r0
	.loc 1 996 3
	.loc 1 996 6 is_stmt 0
	cbz	r1, .L139
	.loc 1 1002 3 is_stmt 1
	.loc 1 1002 11 is_stmt 0
	ldr	r3, [r4, #132]
	.loc 1 1002 6
	cmp	r3, #35
	beq	.L140
	.loc 1 1029 12
	movs	r0, #1
.LVL159:
.L134:
	.loc 1 1031 1
	pop	{r4, pc}
.LVL160:
.L139:
	.loc 1 998 5 is_stmt 1
	.loc 1 998 9 is_stmt 0
	ldr	r3, [r0, #136]
	.loc 1 998 21
	orr	r3, r3, #1
	str	r3, [r0, #136]
	.loc 1 999 5 is_stmt 1
	.loc 1 999 12 is_stmt 0
	movs	r0, #1
.LVL161:
	b	.L134
.LVL162:
.L140:
	.loc 1 1005 5 is_stmt 1
	.loc 1 1005 66 is_stmt 0
	ldr	r3, [r1, #52]
	.loc 1 1005 43
	str	r3, [r4, #60]
	.loc 1 1008 5 is_stmt 1
	.loc 1 1008 9 is_stmt 0
	movs	r2, #1
	mov	r0, r4
.LVL163:
	bl	ETH_Prepare_Tx_Descriptors
.LVL164:
	.loc 1 1008 8
	cbz	r0, .L135
	.loc 1 1010 7 is_stmt 1
	.loc 1 1010 11 is_stmt 0
	ldr	r3, [r4, #136]
	.loc 1 1010 23
	orr	r3, r3, #2
	str	r3, [r4, #136]
	.loc 1 1011 7 is_stmt 1
	.loc 1 1011 14 is_stmt 0
	movs	r0, #1
	b	.L134
.L135:
	.loc 1 1015 5 is_stmt 1
.LBB44:
.LBB45:
	.loc 2 946 3
	.syntax unified
@ 946 "d:\rtos\board\yd-stm32h7xxvx_classicv19\cmake-build-debug\_deps\stm32h7xx_cmsis_include\drivers\cmsis\include\cmsis_gcc.h" 1
	dsb 0xF
@ 0 "" 2
	.thumb
	.syntax unified
.LBE45:
.LBE44:
	.loc 1 1018 5
	.loc 1 1018 10
	.loc 1 1018 27 is_stmt 0
	ldr	r3, [r4, #40]
	.loc 1 1018 39
	adds	r2, r3, #1
	str	r2, [r4, #40]
	.loc 1 1018 48 is_stmt 1
	.loc 1 1018 51 is_stmt 0
	cmp	r2, #3
	bls	.L136
	.loc 1 1018 99 is_stmt 1 discriminator 1
	.loc 1 1018 160 is_stmt 0 discriminator 1
	subs	r3, r3, #3
	.loc 1 1018 128 discriminator 1
	str	r3, [r4, #40]
.L136:
	.loc 1 1018 8 is_stmt 1 discriminator 3
	.loc 1 1022 5 discriminator 3
	.loc 1 1022 88 is_stmt 0 discriminator 3
	ldr	r2, [r4, #40]
	.loc 1 1022 11 discriminator 3
	ldr	r3, [r4]
	.loc 1 1022 71 discriminator 3
	adds	r2, r2, #6
	ldr	r2, [r4, r2, lsl #2]
	.loc 1 1022 34 discriminator 3
	add	r3, r3, #4096
	str	r2, [r3, #288]
	.loc 1 1024 5 is_stmt 1 discriminator 3
	.loc 1 1024 12 is_stmt 0 discriminator 3
	movs	r0, #0
	b	.L134
	.cfi_endproc
.LFE344:
	.size	HAL_ETH_Transmit_IT, .-HAL_ETH_Transmit_IT
	.section	.text.HAL_ETH_ReadData,"ax",%progbits
	.align	1
	.global	HAL_ETH_ReadData
	.syntax unified
	.thumb
	.thumb_func
	.type	HAL_ETH_ReadData, %function
HAL_ETH_ReadData:
.LFB345:
	.loc 1 1041 1 is_stmt 1
	.cfi_startproc
	@ args = 0, pretend = 0, frame = 0
	@ frame_needed = 0, uses_anonymous_args = 0
.LVL165:
	push	{r3, r4, r5, r6, r7, r8, r9, r10, fp, lr}
	.cfi_def_cfa_offset 40
	.cfi_offset 3, -40
	.cfi_offset 4, -36
	.cfi_offset 5, -32
	.cfi_offset 6, -28
	.cfi_offset 7, -24
	.cfi_offset 8, -20
	.cfi_offset 9, -16
	.cfi_offset 10, -12
	.cfi_offset 11, -8
	.cfi_offset 14, -4
	mov	r4, r0
	.loc 1 1042 3
	.loc 1 1043 3
	.loc 1 1044 3
.LVL166:
	.loc 1 1045 3
	.loc 1 1046 3
	.loc 1 1047 3
	.loc 1 1049 3
	.loc 1 1049 6 is_stmt 0
	cbz	r1, .L158
	mov	fp, r1
	.loc 1 1055 3 is_stmt 1
	.loc 1 1055 11 is_stmt 0
	ldr	r3, [r0, #132]
	.loc 1 1055 6
	cmp	r3, #35
	bne	.L155
	.loc 1 1060 3 is_stmt 1
	.loc 1 1060 11 is_stmt 0
	ldr	r8, [r0, #92]
.LVL167:
	.loc 1 1061 3 is_stmt 1
	.loc 1 1061 60 is_stmt 0
	add	r3, r8, #18
	ldr	r5, [r0, r3, lsl #2]
.LVL168:
	.loc 1 1062 3 is_stmt 1
	.loc 1 1062 37 is_stmt 0
	ldr	r3, [r0, #108]
	.loc 1 1062 14
	rsb	r10, r3, #4
.LVL169:
	.loc 1 1065 3 is_stmt 1
	.loc 1 1047 11 is_stmt 0
	mov	r9, #0
	.loc 1 1044 12
	mov	r7, r9
	.loc 1 1065 9
	b	.L144
.LVL170:
.L158:
	.loc 1 1051 5 is_stmt 1
	.loc 1 1051 9 is_stmt 0
	ldr	r3, [r0, #136]
	.loc 1 1051 21
	orr	r3, r3, #1
	str	r3, [r0, #136]
	.loc 1 1052 5 is_stmt 1
	.loc 1 1052 12 is_stmt 0
	movs	r0, #1
.LVL171:
	b	.L143
.LVL172:
.L146:
	.loc 1 1078 7 is_stmt 1
	.loc 1 1078 22 is_stmt 0
	ldr	r3, [r5, #12]
	.loc 1 1078 10
	tst	r3, #536870912
	beq	.L148
	.loc 1 1080 9 is_stmt 1
	.loc 1 1080 36 is_stmt 0
	movs	r3, #0
	str	r3, [r4, #96]
	.loc 1 1081 9 is_stmt 1
	.loc 1 1081 39 is_stmt 0
	str	r3, [r4, #100]
.L148:
	.loc 1 1085 7 is_stmt 1
	.loc 1 1085 31 is_stmt 0
	ldr	r6, [r5, #12]
	.loc 1 1085 40
	ubfx	r6, r6, #0, #15
	.loc 1 1085 75
	ldr	r3, [r4, #100]
	.loc 1 1085 18
	subs	r6, r6, r3
.LVL173:
	.loc 1 1088 7 is_stmt 1
	.loc 1 1088 22 is_stmt 0
	ldr	r3, [r5, #12]
	.loc 1 1088 10
	tst	r3, #268435456
	beq	.L149
	.loc 1 1091 9 is_stmt 1
	.loc 1 1091 51 is_stmt 0
	ldr	r3, [r5, #12]
	.loc 1 1091 40
	str	r3, [r4, #112]
	.loc 1 1094 9 is_stmt 1
.LVL174:
	.loc 1 1094 21 is_stmt 0
	mov	r9, #1
.LVL175:
.L149:
	.loc 1 1104 7 is_stmt 1
	uxth	r3, r6
	ldr	r2, [r5, #16]
	add	r1, r4, #128
	add	r0, r4, #124
	bl	HAL_ETH_RxLinkCallback
.LVL176:
	.loc 1 1107 7
	.loc 1 1107 23 is_stmt 0
	ldr	r3, [r4, #96]
	.loc 1 1107 33
	adds	r3, r3, #1
	str	r3, [r4, #96]
	.loc 1 1108 7 is_stmt 1
	.loc 1 1108 23 is_stmt 0
	ldr	r3, [r4, #100]
	.loc 1 1108 37
	add	r3, r3, r6
	str	r3, [r4, #100]
	.loc 1 1111 7 is_stmt 1
	.loc 1 1111 30 is_stmt 0
	movs	r3, #0
	str	r3, [r5, #16]
.LVL177:
.L147:
	.loc 1 1115 5 is_stmt 1
	.loc 1 1115 10
	.loc 1 1115 20 is_stmt 0
	add	r3, r8, #1
.LVL178:
	.loc 1 1115 29 is_stmt 1
	.loc 1 1115 32 is_stmt 0
	cmp	r3, #3
	bls	.L150
	.loc 1 1115 61 is_stmt 1 discriminator 1
	.loc 1 1115 71 is_stmt 0 discriminator 1
	sub	r3, r8, #3
.LVL179:
.L150:
	.loc 1 1115 8 is_stmt 1 discriminator 3
	.loc 1 1117 5 discriminator 3
	.loc 1 1117 62 is_stmt 0 discriminator 3
	add	r2, r3, #18
	ldr	r5, [r4, r2, lsl #2]
.LVL180:
	.loc 1 1118 5 is_stmt 1 discriminator 3
	.loc 1 1118 12 is_stmt 0 discriminator 3
	adds	r7, r7, #1
.LVL181:
	mov	r8, r3
.LVL182:
.L144:
	.loc 1 1066 10 is_stmt 1
	.loc 1 1065 22 is_stmt 0
	ldr	r3, [r5, #12]
	.loc 1 1066 10
	cmp	r3, #0
	blt	.L151
	.loc 1 1066 26 discriminator 1
	eor	r3, r9, #1
	.loc 1 1066 10 discriminator 1
	cmp	r7, r10
	bcs	.L151
	cbz	r3, .L151
	.loc 1 1068 5 is_stmt 1
	.loc 1 1068 20 is_stmt 0
	ldr	r3, [r5, #12]
	.loc 1 1068 8
	tst	r3, #1073741824
	beq	.L145
	.loc 1 1071 7 is_stmt 1
	.loc 1 1071 59 is_stmt 0
	ldr	r3, [r5, #4]
	.loc 1 1071 48
	str	r3, [r4, #120]
	.loc 1 1073 7 is_stmt 1
	.loc 1 1073 58 is_stmt 0
	ldr	r3, [r5]
	.loc 1 1073 47
	str	r3, [r4, #116]
.L145:
	.loc 1 1075 5 is_stmt 1
	.loc 1 1075 21 is_stmt 0
	ldr	r3, [r5, #12]
	.loc 1 1075 8
	tst	r3, #536870912
	bne	.L146
	.loc 1 1075 87 discriminator 1
	ldr	r3, [r4, #124]
	.loc 1 1075 67 discriminator 1
	cmp	r3, #0
	bne	.L146
	b	.L147
.L151:
	.loc 1 1121 3 is_stmt 1
	.loc 1 1121 19 is_stmt 0
	ldr	r3, [r4, #108]
	.loc 1 1121 35
	add	r3, r3, r7
	str	r3, [r4, #108]
	.loc 1 1122 3 is_stmt 1
	.loc 1 1122 6 is_stmt 0
	cbnz	r3, .L159
.L154:
	.loc 1 1128 3 is_stmt 1
	.loc 1 1128 30 is_stmt 0
	str	r8, [r4, #92]
	.loc 1 1130 3 is_stmt 1
	.loc 1 1130 6 is_stmt 0
	cmp	r9, #0
	bne	.L160
	.loc 1 1141 10
	movs	r0, #1
	b	.L143
.L159:
	.loc 1 1125 5 is_stmt 1
	mov	r0, r4
	bl	ETH_UpdateDescriptor
.LVL183:
	b	.L154
.L160:
	.loc 1 1133 5
	.loc 1 1133 33 is_stmt 0
	ldr	r3, [r4, #124]
	.loc 1 1133 15
	str	r3, [fp]
	.loc 1 1135 5 is_stmt 1
	.loc 1 1135 31 is_stmt 0
	movs	r0, #0
	str	r0, [r4, #124]
	.loc 1 1137 5 is_stmt 1
	.loc 1 1137 12 is_stmt 0
	b	.L143
.LVL184:
.L155:
	.loc 1 1057 12
	movs	r0, #1
.LVL185:
.L143:
	.loc 1 1142 1
	pop	{r3, r4, r5, r6, r7, r8, r9, r10, fp, pc}
	.cfi_endproc
.LFE345:
	.size	HAL_ETH_ReadData, .-HAL_ETH_ReadData
	.section	.text.HAL_ETH_RegisterRxAllocateCallback,"ax",%progbits
	.align	1
	.global	HAL_ETH_RegisterRxAllocateCallback
	.syntax unified
	.thumb
	.thumb_func
	.type	HAL_ETH_RegisterRxAllocateCallback, %function
HAL_ETH_RegisterRxAllocateCallback:
.LFB347:
	.loc 1 1234 1 is_stmt 1
	.cfi_startproc
	@ args = 0, pretend = 0, frame = 0
	@ frame_needed = 0, uses_anonymous_args = 0
	@ link register save eliminated.
.LVL186:
	.loc 1 1235 3
	.loc 1 1235 6 is_stmt 0
	cbz	r1, .L163
	.loc 1 1242 3 is_stmt 1
	.loc 1 1242 28 is_stmt 0
	str	r1, [r0, #160]
	.loc 1 1244 3 is_stmt 1
	.loc 1 1244 10 is_stmt 0
	movs	r0, #0
.LVL187:
	bx	lr
.LVL188:
.L163:
	.loc 1 1238 12
	movs	r0, #1
.LVL189:
	.loc 1 1245 1
	bx	lr
	.cfi_endproc
.LFE347:
	.size	HAL_ETH_RegisterRxAllocateCallback, .-HAL_ETH_RegisterRxAllocateCallback
	.section	.text.HAL_ETH_UnRegisterRxAllocateCallback,"ax",%progbits
	.align	1
	.global	HAL_ETH_UnRegisterRxAllocateCallback
	.syntax unified
	.thumb
	.thumb_func
	.type	HAL_ETH_UnRegisterRxAllocateCallback, %function
HAL_ETH_UnRegisterRxAllocateCallback:
.LFB348:
	.loc 1 1254 1 is_stmt 1
	.cfi_startproc
	@ args = 0, pretend = 0, frame = 0
	@ frame_needed = 0, uses_anonymous_args = 0
	@ link register save eliminated.
.LVL190:
	.loc 1 1256 3
	.loc 1 1256 28 is_stmt 0
	ldr	r3, .L165
	str	r3, [r0, #160]
	.loc 1 1258 3 is_stmt 1
	.loc 1 1259 1 is_stmt 0
	movs	r0, #0
.LVL191:
	bx	lr
.L166:
	.align	2
.L165:
	.word	HAL_ETH_RxAllocateCallback
	.cfi_endproc
.LFE348:
	.size	HAL_ETH_UnRegisterRxAllocateCallback, .-HAL_ETH_UnRegisterRxAllocateCallback
	.section	.text.HAL_ETH_RegisterRxLinkCallback,"ax",%progbits
	.align	1
	.global	HAL_ETH_RegisterRxLinkCallback
	.syntax unified
	.thumb
	.thumb_func
	.type	HAL_ETH_RegisterRxLinkCallback, %function
HAL_ETH_RegisterRxLinkCallback:
.LFB351:
	.loc 1 1303 1 is_stmt 1
	.cfi_startproc
	@ args = 0, pretend = 0, frame = 0
	@ frame_needed = 0, uses_anonymous_args = 0
	@ link register save eliminated.
.LVL192:
	.loc 1 1304 3
	.loc 1 1304 6 is_stmt 0
	cbz	r1, .L169
	.loc 1 1311 3 is_stmt 1
	.loc 1 1311 24 is_stmt 0
	str	r1, [r0, #164]
	.loc 1 1313 3 is_stmt 1
	.loc 1 1313 10 is_stmt 0
	movs	r0, #0
.LVL193:
	bx	lr
.LVL194:
.L169:
	.loc 1 1307 12
	movs	r0, #1
.LVL195:
	.loc 1 1314 1
	bx	lr
	.cfi_endproc
.LFE351:
	.size	HAL_ETH_RegisterRxLinkCallback, .-HAL_ETH_RegisterRxLinkCallback
	.section	.text.HAL_ETH_UnRegisterRxLinkCallback,"ax",%progbits
	.align	1
	.global	HAL_ETH_UnRegisterRxLinkCallback
	.syntax unified
	.thumb
	.thumb_func
	.type	HAL_ETH_UnRegisterRxLinkCallback, %function
HAL_ETH_UnRegisterRxLinkCallback:
.LFB352:
	.loc 1 1323 1 is_stmt 1
	.cfi_startproc
	@ args = 0, pretend = 0, frame = 0
	@ frame_needed = 0, uses_anonymous_args = 0
	@ link register save eliminated.
.LVL196:
	.loc 1 1325 3
	.loc 1 1325 24 is_stmt 0
	ldr	r3, .L171
	str	r3, [r0, #164]
	.loc 1 1327 3 is_stmt 1
	.loc 1 1328 1 is_stmt 0
	movs	r0, #0
.LVL197:
	bx	lr
.L172:
	.align	2
.L171:
	.word	HAL_ETH_RxLinkCallback
	.cfi_endproc
.LFE352:
	.size	HAL_ETH_UnRegisterRxLinkCallback, .-HAL_ETH_UnRegisterRxLinkCallback
	.section	.text.HAL_ETH_GetRxDataErrorCode,"ax",%progbits
	.align	1
	.global	HAL_ETH_GetRxDataErrorCode
	.syntax unified
	.thumb
	.thumb_func
	.type	HAL_ETH_GetRxDataErrorCode, %function
HAL_ETH_GetRxDataErrorCode:
.LFB353:
	.loc 1 1338 1 is_stmt 1
	.cfi_startproc
	@ args = 0, pretend = 0, frame = 0
	@ frame_needed = 0, uses_anonymous_args = 0
	@ link register save eliminated.
.LVL198:
	.loc 1 1340 3
	.loc 1 1340 35 is_stmt 0
	ldr	r3, [r0, #112]
	.loc 1 1340 51
	and	r3, r3, #33030144
	.loc 1 1340 15
	str	r3, [r1]
	.loc 1 1342 3 is_stmt 1
	.loc 1 1343 1 is_stmt 0
	movs	r0, #0
.LVL199:
	bx	lr
	.cfi_endproc
.LFE353:
	.size	HAL_ETH_GetRxDataErrorCode, .-HAL_ETH_GetRxDataErrorCode
	.section	.text.HAL_ETH_RegisterTxFreeCallback,"ax",%progbits
	.align	1
	.global	HAL_ETH_RegisterTxFreeCallback
	.syntax unified
	.thumb
	.thumb_func
	.type	HAL_ETH_RegisterTxFreeCallback, %function
HAL_ETH_RegisterTxFreeCallback:
.LFB354:
	.loc 1 1353 1 is_stmt 1
	.cfi_startproc
	@ args = 0, pretend = 0, frame = 0
	@ frame_needed = 0, uses_anonymous_args = 0
	@ link register save eliminated.
.LVL200:
	.loc 1 1354 3
	.loc 1 1354 6 is_stmt 0
	cbz	r1, .L176
	.loc 1 1361 3 is_stmt 1
	.loc 1 1361 24 is_stmt 0
	str	r1, [r0, #168]
	.loc 1 1363 3 is_stmt 1
	.loc 1 1363 10 is_stmt 0
	movs	r0, #0
.LVL201:
	bx	lr
.LVL202:
.L176:
	.loc 1 1357 12
	movs	r0, #1
.LVL203:
	.loc 1 1364 1
	bx	lr
	.cfi_endproc
.LFE354:
	.size	HAL_ETH_RegisterTxFreeCallback, .-HAL_ETH_RegisterTxFreeCallback
	.section	.text.HAL_ETH_UnRegisterTxFreeCallback,"ax",%progbits
	.align	1
	.global	HAL_ETH_UnRegisterTxFreeCallback
	.syntax unified
	.thumb
	.thumb_func
	.type	HAL_ETH_UnRegisterTxFreeCallback, %function
HAL_ETH_UnRegisterTxFreeCallback:
.LFB355:
	.loc 1 1373 1 is_stmt 1
	.cfi_startproc
	@ args = 0, pretend = 0, frame = 0
	@ frame_needed = 0, uses_anonymous_args = 0
	@ link register save eliminated.
.LVL204:
	.loc 1 1375 3
	.loc 1 1375 24 is_stmt 0
	ldr	r3, .L178
	str	r3, [r0, #168]
	.loc 1 1377 3 is_stmt 1
	.loc 1 1378 1 is_stmt 0
	movs	r0, #0
.LVL205:
	bx	lr
.L179:
	.align	2
.L178:
	.word	HAL_ETH_TxFreeCallback
	.cfi_endproc
.LFE355:
	.size	HAL_ETH_UnRegisterTxFreeCallback, .-HAL_ETH_UnRegisterTxFreeCallback
	.section	.text.HAL_ETH_ReleaseTxPacket,"ax",%progbits
	.align	1
	.global	HAL_ETH_ReleaseTxPacket
	.syntax unified
	.thumb
	.thumb_func
	.type	HAL_ETH_ReleaseTxPacket, %function
HAL_ETH_ReleaseTxPacket:
.LFB357:
	.loc 1 1401 1 is_stmt 1
	.cfi_startproc
	@ args = 0, pretend = 0, frame = 0
	@ frame_needed = 0, uses_anonymous_args = 0
.LVL206:
	push	{r3, r4, r5, r6, r7, lr}
	.cfi_def_cfa_offset 24
	.cfi_offset 3, -24
	.cfi_offset 4, -20
	.cfi_offset 5, -16
	.cfi_offset 6, -12
	.cfi_offset 7, -8
	.cfi_offset 14, -4
	mov	r6, r0
	.loc 1 1402 3
.LVL207:
	.loc 1 1403 3
	.loc 1 1403 12 is_stmt 0
	ldr	r5, [r0, #64]
.LVL208:
	.loc 1 1404 3 is_stmt 1
	.loc 1 1404 12 is_stmt 0
	ldr	r4, [r0, #68]
.LVL209:
	.loc 1 1405 3 is_stmt 1
	.loc 1 1406 3
	.loc 1 1412 3
	.loc 1 1405 11 is_stmt 0
	movs	r7, #1
	.loc 1 1412 9
	b	.L181
.LVL210:
.L191:
	.loc 1 1420 7 is_stmt 1
	.loc 1 1420 12
	.loc 1 1420 18 is_stmt 0
	adds	r3, r4, #1
.LVL211:
	.loc 1 1420 27 is_stmt 1
	.loc 1 1420 30 is_stmt 0
	cmp	r3, #3
	bls	.L187
	.loc 1 1420 55 is_stmt 1 discriminator 1
	.loc 1 1420 61 is_stmt 0 discriminator 1
	subs	r4, r4, #3
.LVL212:
	b	.L181
.L192:
	.loc 1 1469 9 is_stmt 1
	bl	HAL_ETH_TxFreeCallback
.LVL213:
	.loc 1 1473 9
	.loc 1 1473 43 is_stmt 0
	adds	r3, r4, #4
	add	r3, r6, r3, lsl #2
	movs	r2, #0
	str	r2, [r3, #28]
	.loc 1 1476 9 is_stmt 1
	.loc 1 1476 14
	.loc 1 1476 20 is_stmt 0
	adds	r3, r4, #1
.LVL214:
	.loc 1 1476 29 is_stmt 1
	.loc 1 1476 32 is_stmt 0
	cmp	r3, #3
	bls	.L184
	.loc 1 1476 57 is_stmt 1 discriminator 1
	.loc 1 1476 63 is_stmt 0 discriminator 1
	subs	r3, r4, #3
.LVL215:
.L184:
	.loc 1 1476 12 is_stmt 1 discriminator 3
	.loc 1 1477 9 discriminator 3
	.loc 1 1477 37 is_stmt 0 discriminator 3
	str	r5, [r6, #64]
	.loc 1 1478 9 is_stmt 1 discriminator 3
	.loc 1 1478 37 is_stmt 0 discriminator 3
	str	r3, [r6, #68]
	mov	r4, r3
.LVL216:
.L181:
	.loc 1 1412 27 is_stmt 1
	cbz	r5, .L189
	cbz	r7, .L189
	.loc 1 1414 5
.LVL217:
	.loc 1 1415 5
	.loc 1 1415 13 is_stmt 0
	subs	r5, r5, #1
.LVL218:
	.loc 1 1417 5 is_stmt 1
	.loc 1 1417 37 is_stmt 0
	adds	r3, r4, #4
	add	r3, r6, r3, lsl #2
	ldr	r0, [r3, #28]
	.loc 1 1417 8
	cmp	r0, #0
	beq	.L191
	.loc 1 1424 5 is_stmt 1
	.loc 1 1427 7
	.loc 1 1427 22 is_stmt 0
	ldr	r3, [r6, #12]
	.loc 1 1427 29
	add	r2, r4, r4, lsl #1
	add	r3, r3, r2, lsl #3
	.loc 1 1427 34
	ldr	r3, [r3, #12]
	.loc 1 1427 10
	cmp	r3, #0
	bge	.L192
	.loc 1 1483 21
	movs	r7, #0
.LVL219:
	b	.L181
.LVL220:
.L187:
	.loc 1 1420 18
	mov	r4, r3
	b	.L181
.LVL221:
.L189:
	.loc 1 1487 3 is_stmt 1
	.loc 1 1488 1 is_stmt 0
	movs	r0, #0
	pop	{r3, r4, r5, r6, r7, pc}
	.cfi_endproc
.LFE357:
	.size	HAL_ETH_ReleaseTxPacket, .-HAL_ETH_ReleaseTxPacket
	.section	.text.HAL_ETH_TxCpltCallback,"ax",%progbits
	.align	1
	.weak	HAL_ETH_TxCpltCallback
	.syntax unified
	.thumb
	.thumb_func
	.type	HAL_ETH_TxCpltCallback, %function
HAL_ETH_TxCpltCallback:
.LFB359:
	.loc 1 2045 1 is_stmt 1
	.cfi_startproc
	@ args = 0, pretend = 0, frame = 0
	@ frame_needed = 0, uses_anonymous_args = 0
	@ link register save eliminated.
.LVL222:
	.loc 1 2047 3
	.loc 1 2051 1 is_stmt 0
	bx	lr
	.cfi_endproc
.LFE359:
	.size	HAL_ETH_TxCpltCallback, .-HAL_ETH_TxCpltCallback
	.section	.text.HAL_ETH_RxCpltCallback,"ax",%progbits
	.align	1
	.weak	HAL_ETH_RxCpltCallback
	.syntax unified
	.thumb
	.thumb_func
	.type	HAL_ETH_RxCpltCallback, %function
HAL_ETH_RxCpltCallback:
.LFB360:
	.loc 1 2060 1 is_stmt 1
	.cfi_startproc
	@ args = 0, pretend = 0, frame = 0
	@ frame_needed = 0, uses_anonymous_args = 0
	@ link register save eliminated.
.LVL223:
	.loc 1 2062 3
	.loc 1 2066 1 is_stmt 0
	bx	lr
	.cfi_endproc
.LFE360:
	.size	HAL_ETH_RxCpltCallback, .-HAL_ETH_RxCpltCallback
	.section	.text.HAL_ETH_ErrorCallback,"ax",%progbits
	.align	1
	.weak	HAL_ETH_ErrorCallback
	.syntax unified
	.thumb
	.thumb_func
	.type	HAL_ETH_ErrorCallback, %function
HAL_ETH_ErrorCallback:
.LFB361:
	.loc 1 2075 1 is_stmt 1
	.cfi_startproc
	@ args = 0, pretend = 0, frame = 0
	@ frame_needed = 0, uses_anonymous_args = 0
	@ link register save eliminated.
.LVL224:
	.loc 1 2077 3
	.loc 1 2081 1 is_stmt 0
	bx	lr
	.cfi_endproc
.LFE361:
	.size	HAL_ETH_ErrorCallback, .-HAL_ETH_ErrorCallback
	.section	.text.HAL_ETH_PMTCallback,"ax",%progbits
	.align	1
	.weak	HAL_ETH_PMTCallback
	.syntax unified
	.thumb
	.thumb_func
	.type	HAL_ETH_PMTCallback, %function
HAL_ETH_PMTCallback:
.LFB362:
	.loc 1 2090 1 is_stmt 1
	.cfi_startproc
	@ args = 0, pretend = 0, frame = 0
	@ frame_needed = 0, uses_anonymous_args = 0
	@ link register save eliminated.
.LVL225:
	.loc 1 2092 3
	.loc 1 2096 1 is_stmt 0
	bx	lr
	.cfi_endproc
.LFE362:
	.size	HAL_ETH_PMTCallback, .-HAL_ETH_PMTCallback
	.section	.text.HAL_ETH_EEECallback,"ax",%progbits
	.align	1
	.weak	HAL_ETH_EEECallback
	.syntax unified
	.thumb
	.thumb_func
	.type	HAL_ETH_EEECallback, %function
HAL_ETH_EEECallback:
.LFB363:
	.loc 1 2105 1 is_stmt 1
	.cfi_startproc
	@ args = 0, pretend = 0, frame = 0
	@ frame_needed = 0, uses_anonymous_args = 0
	@ link register save eliminated.
.LVL226:
	.loc 1 2107 3
	.loc 1 2111 1 is_stmt 0
	bx	lr
	.cfi_endproc
.LFE363:
	.size	HAL_ETH_EEECallback, .-HAL_ETH_EEECallback
	.section	.text.HAL_ETH_WakeUpCallback,"ax",%progbits
	.align	1
	.weak	HAL_ETH_WakeUpCallback
	.syntax unified
	.thumb
	.thumb_func
	.type	HAL_ETH_WakeUpCallback, %function
HAL_ETH_WakeUpCallback:
.LFB364:
	.loc 1 2120 1 is_stmt 1
	.cfi_startproc
	@ args = 0, pretend = 0, frame = 0
	@ frame_needed = 0, uses_anonymous_args = 0
	@ link register save eliminated.
.LVL227:
	.loc 1 2122 3
	.loc 1 2126 1 is_stmt 0
	bx	lr
	.cfi_endproc
.LFE364:
	.size	HAL_ETH_WakeUpCallback, .-HAL_ETH_WakeUpCallback
	.section	.text.HAL_ETH_IRQHandler,"ax",%progbits
	.align	1
	.global	HAL_ETH_IRQHandler
	.syntax unified
	.thumb
	.thumb_func
	.type	HAL_ETH_IRQHandler, %function
HAL_ETH_IRQHandler:
.LFB358:
	.loc 1 1859 1 is_stmt 1
	.cfi_startproc
	@ args = 0, pretend = 0, frame = 0
	@ frame_needed = 0, uses_anonymous_args = 0
.LVL228:
	push	{r4, r5, r6, r7, r8, lr}
	.cfi_def_cfa_offset 24
	.cfi_offset 4, -24
	.cfi_offset 5, -20
	.cfi_offset 6, -16
	.cfi_offset 7, -12
	.cfi_offset 8, -8
	.cfi_offset 14, -4
	mov	r4, r0
	.loc 1 1860 3
	.loc 1 1860 29 is_stmt 0
	ldr	r3, [r0]
	.loc 1 1860 12
	ldr	r6, [r3, #176]
.LVL229:
	.loc 1 1861 3 is_stmt 1
	.loc 1 1861 12 is_stmt 0
	add	r2, r3, #4096
	ldr	r5, [r2, #352]
.LVL230:
	.loc 1 1862 3 is_stmt 1
	.loc 1 1862 12 is_stmt 0
	ldr	r7, [r2, #308]
.LVL231:
	.loc 1 1863 3 is_stmt 1
	.loc 1 1863 12 is_stmt 0
	mov	r2, #1476395008
	ldr	r8, [r2, #168]
.LVL232:
	.loc 1 1869 3 is_stmt 1
	.loc 1 1869 6 is_stmt 0
	tst	r5, #64
	beq	.L200
	.loc 1 1869 44 discriminator 1
	tst	r7, #64
	bne	.L210
.LVL233:
.L200:
	.loc 1 1884 3 is_stmt 1
	.loc 1 1884 6 is_stmt 0
	tst	r5, #1
	beq	.L201
	.loc 1 1884 44 discriminator 1
	tst	r7, #1
	bne	.L211
.L201:
	.loc 1 1899 3 is_stmt 1
	.loc 1 1899 6 is_stmt 0
	tst	r5, #16384
	beq	.L202
	.loc 1 1899 45 discriminator 1
	tst	r7, #16384
	beq	.L202
	.loc 1 1901 5 is_stmt 1
	.loc 1 1901 9 is_stmt 0
	ldr	r3, [r4, #136]
	.loc 1 1901 21
	orr	r3, r3, #8
	str	r3, [r4, #136]
	.loc 1 1903 5 is_stmt 1
	.loc 1 1903 8 is_stmt 0
	tst	r5, #4096
	beq	.L203
	.loc 1 1906 7 is_stmt 1
	.loc 1 1906 34 is_stmt 0
	ldr	r3, [r4]
	.loc 1 1906 44
	add	r3, r3, #4096
	ldr	r2, [r3, #352]
	.loc 1 1906 54
	bic	r2, r2, #3824
	bic	r2, r2, #13
	lsls	r2, r2, #19
	lsrs	r2, r2, #19
	.loc 1 1906 26
	str	r2, [r4, #140]
	.loc 1 1909 7 is_stmt 1
	.loc 1 1909 24 is_stmt 0
	ldr	r2, [r3, #308]
	.loc 1 1909 34
	bic	r2, r2, #49152
	str	r2, [r3, #308]
	.loc 1 1912 7 is_stmt 1
	.loc 1 1912 20 is_stmt 0
	movs	r3, #224
	str	r3, [r4, #132]
.L204:
	.loc 1 1929 5 is_stmt 1
	mov	r0, r4
	bl	HAL_ETH_ErrorCallback
.LVL234:
.L202:
	.loc 1 1934 3
	.loc 1 1934 6 is_stmt 0
	tst	r6, #24576
	bne	.L212
.L205:
	.loc 1 1955 3 is_stmt 1
	.loc 1 1955 6 is_stmt 0
	tst	r6, #16
	bne	.L213
.L206:
	.loc 1 1972 3 is_stmt 1
	.loc 1 1972 6 is_stmt 0
	tst	r6, #32
	bne	.L214
.L207:
	.loc 1 2023 3 is_stmt 1
	.loc 1 2023 6 is_stmt 0
	tst	r8, #4194304
	bne	.L215
.L199:
	.loc 1 2036 1
	pop	{r4, r5, r6, r7, r8, pc}
.LVL235:
.L210:
	.loc 1 1872 5 is_stmt 1
	.loc 1 1872 31 is_stmt 0
	add	r3, r3, #4096
	movw	r2, #32832
	str	r2, [r3, #352]
	.loc 1 1879 5 is_stmt 1
	bl	HAL_ETH_RxCpltCallback
.LVL236:
	b	.L200
.L211:
	.loc 1 1887 5
	.loc 1 1887 12 is_stmt 0
	ldr	r3, [r4]
	.loc 1 1887 31
	add	r3, r3, #4096
	movw	r2, #32769
	str	r2, [r3, #352]
	.loc 1 1894 5 is_stmt 1
	mov	r0, r4
	bl	HAL_ETH_TxCpltCallback
.LVL237:
	b	.L201
.L203:
	.loc 1 1917 7
	.loc 1 1917 34 is_stmt 0
	ldr	r3, [r4]
	.loc 1 1917 44
	add	r3, r3, #4096
	ldr	r2, [r3, #352]
	.loc 1 1917 54
	and	r2, r2, #26240
	.loc 1 1917 26
	str	r2, [r4, #140]
	.loc 1 1921 7 is_stmt 1
	.loc 1 1921 33 is_stmt 0
	mov	r2, #26240
	str	r2, [r3, #352]
	b	.L204
.L212:
	.loc 1 1937 5 is_stmt 1
	.loc 1 1937 9 is_stmt 0
	ldr	r3, [r4, #136]
	.loc 1 1937 21
	orr	r3, r3, #16
	str	r3, [r4, #136]
	.loc 1 1940 5 is_stmt 1
	.loc 1 1940 32 is_stmt 0
	ldr	r3, [r4]
	.loc 1 1940 42
	ldr	r3, [r3, #184]
	.loc 1 1940 24
	str	r3, [r4, #144]
	.loc 1 1942 5 is_stmt 1
	.loc 1 1942 18 is_stmt 0
	movs	r3, #224
	str	r3, [r4, #132]
	.loc 1 1949 5 is_stmt 1
	mov	r0, r4
	bl	HAL_ETH_ErrorCallback
.LVL238:
	.loc 1 1951 5
	.loc 1 1951 24 is_stmt 0
	movs	r3, #0
	str	r3, [r4, #144]
	b	.L205
.L213:
	.loc 1 1958 5 is_stmt 1
	.loc 1 1958 34 is_stmt 0
	ldr	r3, [r4]
	.loc 1 1958 44
	ldr	r3, [r3, #192]
	.loc 1 1958 55
	and	r3, r3, #96
	.loc 1 1958 26
	str	r3, [r4, #148]
	.loc 1 1965 5 is_stmt 1
	mov	r0, r4
	bl	HAL_ETH_PMTCallback
.LVL239:
	.loc 1 1968 5
	.loc 1 1968 26 is_stmt 0
	movs	r3, #0
	str	r3, [r4, #148]
	b	.L206
.L214:
	.loc 1 1975 5 is_stmt 1
	.loc 1 1975 31 is_stmt 0
	ldr	r3, [r4]
	.loc 1 1975 41
	ldr	r3, [r3, #208]
	.loc 1 1975 52
	and	r3, r3, #15
	.loc 1 1975 23
	str	r3, [r4, #152]
	.loc 1 1982 5 is_stmt 1
	mov	r0, r4
	bl	HAL_ETH_EEECallback
.LVL240:
	.loc 1 1985 5
	.loc 1 1985 23 is_stmt 0
	movs	r3, #0
	str	r3, [r4, #152]
	b	.L207
.L215:
	.loc 1 2026 5 is_stmt 1
	.loc 1 2026 93 is_stmt 0
	mov	r3, #1476395008
	mov	r2, #4194304
	str	r2, [r3, #168]
	.loc 1 2032 5 is_stmt 1
	mov	r0, r4
	bl	HAL_ETH_WakeUpCallback
.LVL241:
	.loc 1 2036 1 is_stmt 0
	b	.L199
	.cfi_endproc
.LFE358:
	.size	HAL_ETH_IRQHandler, .-HAL_ETH_IRQHandler
	.section	.text.HAL_ETH_ReadPHYRegister,"ax",%progbits
	.align	1
	.global	HAL_ETH_ReadPHYRegister
	.syntax unified
	.thumb
	.thumb_func
	.type	HAL_ETH_ReadPHYRegister, %function
HAL_ETH_ReadPHYRegister:
.LFB365:
	.loc 1 2139 1 is_stmt 1
	.cfi_startproc
	@ args = 0, pretend = 0, frame = 0
	@ frame_needed = 0, uses_anonymous_args = 0
.LVL242:
	push	{r4, r5, r6, lr}
	.cfi_def_cfa_offset 16
	.cfi_offset 4, -16
	.cfi_offset 5, -12
	.cfi_offset 6, -8
	.cfi_offset 14, -4
	mov	r4, r0
	mov	r5, r3
	.loc 1 2140 3
	.loc 1 2141 3
	.loc 1 2144 3
	.loc 1 2144 13 is_stmt 0
	ldr	r0, [r0]
.LVL243:
	.loc 1 2144 23
	ldr	r3, [r0, #512]
.LVL244:
	.loc 1 2144 6
	tst	r3, #1
	beq	.L223
	.loc 1 2146 12
	movs	r0, #1
.LVL245:
.L217:
	.loc 1 2181 1
	pop	{r4, r5, r6, pc}
.LVL246:
.L223:
	.loc 1 2150 3 is_stmt 1
	.loc 1 2150 13 is_stmt 0
	ldr	r3, [r0, #512]
.LVL247:
	.loc 1 2158 3 is_stmt 1
	.loc 1 2158 33 is_stmt 0
	bic	r3, r3, #65011712
.LVL248:
	.loc 1 2158 15
	orr	r1, r3, r1, lsl #21
.LVL249:
	.loc 1 2159 3 is_stmt 1
	.loc 1 2159 33 is_stmt 0
	bic	r3, r1, #2031616
	.loc 1 2159 15
	orr	r2, r3, r2, lsl #16
.LVL250:
	.loc 1 2160 3 is_stmt 1
	.loc 1 2161 3
	.loc 1 2161 13 is_stmt 0
	orr	r2, r2, #13
.LVL251:
	.loc 1 2164 3 is_stmt 1
	.loc 1 2164 32 is_stmt 0
	str	r2, [r0, #512]
	.loc 1 2166 3 is_stmt 1
	.loc 1 2166 15 is_stmt 0
	bl	HAL_GetTick
.LVL252:
	mov	r6, r0
.LVL253:
	.loc 1 2169 3 is_stmt 1
.L218:
	.loc 1 2169 60
	.loc 1 2169 16 is_stmt 0
	ldr	r2, [r4]
	.loc 1 2169 26
	ldr	r1, [r2, #512]
	.loc 1 2169 60
	tst	r1, #1
	beq	.L224
	.loc 1 2171 5 is_stmt 1
	.loc 1 2171 11 is_stmt 0
	bl	HAL_GetTick
.LVL254:
	.loc 1 2171 25
	subs	r2, r0, r6
	.loc 1 2171 8
	cmp	r2, #1000
	bls	.L218
	.loc 1 2173 14
	movs	r0, #1
	b	.L217
.L224:
	.loc 1 2178 3 is_stmt 1
	.loc 1 2178 44 is_stmt 0
	ldr	r3, [r2, #516]
	.loc 1 2178 17
	uxth	r3, r3
	str	r3, [r5]
	.loc 1 2180 3 is_stmt 1
	.loc 1 2180 10 is_stmt 0
	movs	r0, #0
	b	.L217
	.cfi_endproc
.LFE365:
	.size	HAL_ETH_ReadPHYRegister, .-HAL_ETH_ReadPHYRegister
	.section	.text.HAL_ETH_WritePHYRegister,"ax",%progbits
	.align	1
	.global	HAL_ETH_WritePHYRegister
	.syntax unified
	.thumb
	.thumb_func
	.type	HAL_ETH_WritePHYRegister, %function
HAL_ETH_WritePHYRegister:
.LFB366:
	.loc 1 2194 1 is_stmt 1
	.cfi_startproc
	@ args = 0, pretend = 0, frame = 0
	@ frame_needed = 0, uses_anonymous_args = 0
.LVL255:
	push	{r3, r4, r5, lr}
	.cfi_def_cfa_offset 16
	.cfi_offset 3, -16
	.cfi_offset 4, -12
	.cfi_offset 5, -8
	.cfi_offset 14, -4
	mov	r4, r0
	.loc 1 2195 3
	.loc 1 2196 3
	.loc 1 2199 3
	.loc 1 2199 13 is_stmt 0
	ldr	r0, [r0]
.LVL256:
	.loc 1 2199 23
	ldr	r5, [r0, #512]
	.loc 1 2199 6
	tst	r5, #1
	beq	.L232
	.loc 1 2201 12
	movs	r0, #1
.LVL257:
.L226:
	.loc 1 2236 1
	pop	{r3, r4, r5, pc}
.LVL258:
.L232:
	.loc 1 2205 3 is_stmt 1
	.loc 1 2205 13 is_stmt 0
	ldr	r0, [r0, #512]
.LVL259:
	.loc 1 2213 3 is_stmt 1
	.loc 1 2213 33 is_stmt 0
	bic	r0, r0, #65011712
.LVL260:
	.loc 1 2213 15
	orr	r1, r0, r1, lsl #21
.LVL261:
	.loc 1 2214 3 is_stmt 1
	.loc 1 2214 33 is_stmt 0
	bic	r1, r1, #2031616
.LVL262:
	.loc 1 2214 15
	orr	r2, r1, r2, lsl #16
.LVL263:
	.loc 1 2215 3 is_stmt 1
	.loc 1 2215 33 is_stmt 0
	bic	r2, r2, #12
.LVL264:
	.loc 1 2216 3 is_stmt 1
	.loc 1 2216 13 is_stmt 0
	orr	r2, r2, #5
.LVL265:
	.loc 1 2219 3 is_stmt 1
	uxth	r3, r3
.LVL266:
	.loc 1 2219 79 is_stmt 0
	ldr	r1, .L234
	str	r3, [r1, #516]
	.loc 1 2222 3 is_stmt 1
	.loc 1 2222 79 is_stmt 0
	str	r2, [r1, #512]
	.loc 1 2224 3 is_stmt 1
	.loc 1 2224 15 is_stmt 0
	bl	HAL_GetTick
.LVL267:
	mov	r5, r0
.LVL268:
	.loc 1 2227 3 is_stmt 1
.L227:
	.loc 1 2227 60
	.loc 1 2227 16 is_stmt 0
	ldr	r3, [r4]
	.loc 1 2227 26
	ldr	r3, [r3, #512]
	.loc 1 2227 60
	tst	r3, #1
	beq	.L233
	.loc 1 2229 5 is_stmt 1
	.loc 1 2229 11 is_stmt 0
	bl	HAL_GetTick
.LVL269:
	.loc 1 2229 25
	subs	r3, r0, r5
	.loc 1 2229 8
	cmp	r3, #1000
	bls	.L227
	.loc 1 2231 14
	movs	r0, #1
	b	.L226
.L233:
	.loc 1 2235 10
	movs	r0, #0
	b	.L226
.L235:
	.align	2
.L234:
	.word	1073905664
	.cfi_endproc
.LFE366:
	.size	HAL_ETH_WritePHYRegister, .-HAL_ETH_WritePHYRegister
	.section	.text.HAL_ETH_GetMACConfig,"ax",%progbits
	.align	1
	.global	HAL_ETH_GetMACConfig
	.syntax unified
	.thumb
	.thumb_func
	.type	HAL_ETH_GetMACConfig, %function
HAL_ETH_GetMACConfig:
.LFB367:
	.loc 1 2265 1 is_stmt 1
	.cfi_startproc
	@ args = 0, pretend = 0, frame = 0
	@ frame_needed = 0, uses_anonymous_args = 0
	@ link register save eliminated.
.LVL270:
	.loc 1 2266 3
	.loc 1 2266 6 is_stmt 0
	cmp	r1, #0
	beq	.L238
	.loc 1 2272 3 is_stmt 1
	.loc 1 2272 35 is_stmt 0
	ldr	r2, [r0]
	.loc 1 2272 45
	ldr	r2, [r2]
	.loc 1 2272 54
	and	r2, r2, #12
	.loc 1 2272 27
	str	r2, [r1, #44]
	.loc 1 2273 3 is_stmt 1
	.loc 1 2273 36 is_stmt 0
	ldr	r2, [r0]
	.loc 1 2273 46
	ldr	r2, [r2]
	.loc 1 2273 97
	ubfx	r2, r2, #4, #1
	.loc 1 2273 26
	strb	r2, [r1, #40]
	.loc 1 2274 3 is_stmt 1
	.loc 1 2274 33 is_stmt 0
	ldr	r2, [r0]
	.loc 1 2274 43
	ldr	r2, [r2]
	.loc 1 2274 52
	and	r2, r2, #96
	.loc 1 2274 25
	str	r2, [r1, #36]
	.loc 1 2275 3 is_stmt 1
	.loc 1 2275 40 is_stmt 0
	ldr	r2, [r0]
	.loc 1 2275 50
	ldr	r2, [r2]
	.loc 1 2275 102
	tst	r2, #256
	ite	eq
	moveq	r2, #1
	movne	r2, #0
	.loc 1 2275 30
	strb	r2, [r1, #32]
	.loc 1 2276 3 is_stmt 1
	.loc 1 2276 49 is_stmt 0
	ldr	r2, [r0]
	.loc 1 2276 59
	ldr	r2, [r2]
	.loc 1 2277 50
	ubfx	r2, r2, #9, #1
	.loc 1 2276 39
	strb	r2, [r1, #31]
	.loc 1 2278 3 is_stmt 1
	.loc 1 2278 33 is_stmt 0
	ldr	r2, [r0]
	.loc 1 2278 43
	ldr	r2, [r2]
	.loc 1 2278 97
	tst	r2, #1024
	ite	eq
	moveq	r2, #1
	movne	r2, #0
	.loc 1 2278 23
	strb	r2, [r1, #30]
	.loc 1 2279 3 is_stmt 1
	.loc 1 2279 49 is_stmt 0
	ldr	r2, [r0]
	.loc 1 2279 59
	ldr	r2, [r2]
	.loc 1 2280 92
	ubfx	r2, r2, #11, #1
	.loc 1 2279 39
	strb	r2, [r1, #29]
	.loc 1 2281 3 is_stmt 1
	.loc 1 2281 35 is_stmt 0
	ldr	r2, [r0]
	.loc 1 2281 45
	ldr	r2, [r2]
	.loc 1 2281 98
	ubfx	r2, r2, #12, #1
	.loc 1 2281 25
	strb	r2, [r1, #28]
	.loc 1 2282 3 is_stmt 1
	.loc 1 2282 31 is_stmt 0
	ldr	r2, [r0]
	.loc 1 2282 41
	ldr	r2, [r2]
	.loc 1 2282 50
	and	r2, r2, #8192
	.loc 1 2282 23
	str	r2, [r1, #24]
	.loc 1 2283 3 is_stmt 1
	.loc 1 2283 26 is_stmt 0
	ldr	r2, [r0]
	.loc 1 2283 36
	ldr	r2, [r2]
	.loc 1 2283 45
	and	r2, r2, #16384
	.loc 1 2283 18
	str	r2, [r1, #20]
	.loc 1 2284 3 is_stmt 1
	.loc 1 2284 34 is_stmt 0
	ldr	r2, [r0]
	.loc 1 2284 44
	ldr	r2, [r2]
	.loc 1 2284 97
	ubfx	r2, r2, #16, #1
	.loc 1 2284 24
	strb	r2, [r1, #18]
	.loc 1 2285 3 is_stmt 1
	.loc 1 2285 29 is_stmt 0
	ldr	r2, [r0]
	.loc 1 2285 39
	ldr	r2, [r2]
	.loc 1 2285 93
	tst	r2, #131072
	ite	eq
	moveq	r2, #1
	movne	r2, #0
	.loc 1 2285 19
	strb	r2, [r1, #17]
	.loc 1 2286 3 is_stmt 1
	.loc 1 2286 31 is_stmt 0
	ldr	r2, [r0]
	.loc 1 2286 41
	ldr	r2, [r2]
	.loc 1 2286 95
	tst	r2, #524288
	ite	eq
	moveq	r2, #1
	movne	r2, #0
	.loc 1 2286 21
	strb	r2, [r1, #16]
	.loc 1 2287 3 is_stmt 1
	.loc 1 2287 43 is_stmt 0
	ldr	r2, [r0]
	.loc 1 2287 53
	ldr	r2, [r2]
	.loc 1 2287 106
	ubfx	r2, r2, #20, #1
	.loc 1 2287 33
	strb	r2, [r1, #15]
	.loc 1 2288 3 is_stmt 1
	.loc 1 2288 41 is_stmt 0
	ldr	r2, [r0]
	.loc 1 2288 51
	ldr	r2, [r2]
	.loc 1 2288 104
	ubfx	r2, r2, #21, #1
	.loc 1 2288 31
	strb	r2, [r1, #14]
	.loc 1 2289 3 is_stmt 1
	.loc 1 2289 38 is_stmt 0
	ldr	r2, [r0]
	.loc 1 2289 48
	ldr	r2, [r2]
	.loc 1 2289 101
	ubfx	r2, r2, #22, #1
	.loc 1 2289 28
	strb	r2, [r1, #13]
	.loc 1 2290 3 is_stmt 1
	.loc 1 2290 50 is_stmt 0
	ldr	r2, [r0]
	.loc 1 2290 60
	ldr	r2, [r2]
	.loc 1 2291 93
	ubfx	r2, r2, #23, #1
	.loc 1 2290 40
	strb	r2, [r1, #12]
	.loc 1 2292 3 is_stmt 1
	.loc 1 2292 38 is_stmt 0
	ldr	r2, [r0]
	.loc 1 2292 48
	ldr	r2, [r2]
	.loc 1 2292 57
	and	r2, r2, #117440512
	.loc 1 2292 30
	str	r2, [r1, #8]
	.loc 1 2293 3 is_stmt 1
	.loc 1 2293 38 is_stmt 0
	ldr	r2, [r0]
	.loc 1 2293 48
	ldr	r2, [r2]
	.loc 1 2293 101
	ubfx	r2, r2, #27, #1
	.loc 1 2293 28
	strb	r2, [r1, #4]
	.loc 1 2294 3 is_stmt 1
	.loc 1 2294 38 is_stmt 0
	ldr	r2, [r0]
	.loc 1 2294 48
	ldr	r2, [r2]
	.loc 1 2294 57
	and	r2, r2, #1879048192
	.loc 1 2294 30
	str	r2, [r1]
	.loc 1 2296 3 is_stmt 1
	.loc 1 2296 41 is_stmt 0
	ldr	r2, [r0]
	.loc 1 2296 51
	ldr	r2, [r2, #4]
	.loc 1 2296 61
	ubfx	r2, r2, #0, #14
	.loc 1 2296 33
	str	r2, [r1, #52]
	.loc 1 2297 3 is_stmt 1
	.loc 1 2297 43 is_stmt 0
	ldr	r2, [r0]
	.loc 1 2297 53
	ldr	r2, [r2, #4]
	.loc 1 2297 108
	tst	r2, #65536
	ite	eq
	moveq	r2, #1
	movne	r2, #0
	.loc 1 2297 33
	strb	r2, [r1, #50]
	.loc 1 2298 3 is_stmt 1
	.loc 1 2298 41 is_stmt 0
	ldr	r2, [r0]
	.loc 1 2298 51
	ldr	r2, [r2, #4]
	.loc 1 2298 105
	ubfx	r2, r2, #17, #1
	.loc 1 2298 31
	strb	r2, [r1, #49]
	.loc 1 2299 3 is_stmt 1
	.loc 1 2299 54 is_stmt 0
	ldr	r2, [r0]
	.loc 1 2299 64
	ldr	r2, [r2, #4]
	.loc 1 2300 95
	ubfx	r2, r2, #18, #1
	.loc 1 2299 44
	strb	r2, [r1, #48]
	.loc 1 2301 3 is_stmt 1
	.loc 1 2301 45 is_stmt 0
	ldr	r2, [r0]
	.loc 1 2301 55
	ldr	r2, [r2, #4]
	.loc 1 2302 46
	ubfx	r2, r2, #24, #1
	.loc 1 2301 35
	strb	r2, [r1, #56]
	.loc 1 2303 3 is_stmt 1
	.loc 1 2303 46 is_stmt 0
	ldr	r2, [r0]
	.loc 1 2303 56
	ldr	r2, [r2, #4]
	.loc 1 2303 89
	ubfx	r2, r2, #25, #5
	.loc 1 2303 38
	str	r2, [r1, #60]
	.loc 1 2305 3 is_stmt 1
	.loc 1 2305 43 is_stmt 0
	ldr	r2, [r0]
	.loc 1 2305 53
	ldr	r2, [r2, #12]
	.loc 1 2305 105
	ubfx	r2, r2, #8, #1
	.loc 1 2305 33
	strb	r2, [r1, #64]
	.loc 1 2306 3 is_stmt 1
	.loc 1 2306 36 is_stmt 0
	ldr	r2, [r0]
	.loc 1 2306 46
	ldr	r2, [r2, #12]
	.loc 1 2306 56
	and	r2, r2, #15
	.loc 1 2306 28
	str	r2, [r1, #68]
	.loc 1 2308 3 is_stmt 1
	.loc 1 2308 42 is_stmt 0
	ldr	r2, [r0]
	.loc 1 2308 52
	ldr	r2, [r2, #112]
	.loc 1 2308 105
	ubfx	r2, r2, #1, #1
	.loc 1 2308 32
	strb	r2, [r1, #84]
	.loc 1 2309 3 is_stmt 1
	.loc 1 2309 38 is_stmt 0
	ldr	r2, [r0]
	.loc 1 2309 48
	ldr	r2, [r2, #112]
	.loc 1 2309 102
	tst	r2, #128
	ite	eq
	moveq	r2, #1
	movne	r2, #0
	.loc 1 2309 28
	strb	r2, [r1, #76]
	.loc 1 2310 3 is_stmt 1
	.loc 1 2310 38 is_stmt 0
	ldr	r2, [r0]
	.loc 1 2310 48
	ldr	r2, [r2, #112]
	.loc 1 2310 59
	and	r2, r2, #112
	.loc 1 2310 30
	str	r2, [r1, #80]
	.loc 1 2311 3 is_stmt 1
	.loc 1 2311 31 is_stmt 0
	ldr	r2, [r0]
	.loc 1 2311 41
	ldr	r2, [r2, #112]
	.loc 1 2311 77
	lsrs	r2, r2, #16
	.loc 1 2311 22
	str	r2, [r1, #72]
	.loc 1 2312 3 is_stmt 1
	.loc 1 2312 40 is_stmt 0
	ldr	r2, [r0]
	.loc 1 2312 50
	ldr	r2, [r2, #144]
	.loc 1 2312 97
	and	r2, r2, #1
	.loc 1 2312 31
	strb	r2, [r1, #86]
	.loc 1 2313 3 is_stmt 1
	.loc 1 2313 47 is_stmt 0
	ldr	r2, [r0]
	.loc 1 2313 57
	ldr	r2, [r2, #144]
	.loc 1 2314 48
	ubfx	r2, r2, #1, #1
	.loc 1 2313 37
	strb	r2, [r1, #85]
	.loc 1 2316 3 is_stmt 1
	.loc 1 2316 38 is_stmt 0
	ldr	r2, [r0]
	.loc 1 2316 48
	ldr	r2, [r2, #3328]
	.loc 1 2316 60
	and	r2, r2, #114
	.loc 1 2316 30
	str	r2, [r1, #88]
	.loc 1 2318 3 is_stmt 1
	.loc 1 2318 37 is_stmt 0
	ldr	r2, [r0]
	.loc 1 2318 47
	ldr	r2, [r2, #3376]
	.loc 1 2318 59
	and	r2, r2, #35
	.loc 1 2318 29
	str	r2, [r1, #92]
	.loc 1 2319 3 is_stmt 1
	.loc 1 2319 52 is_stmt 0
	ldr	r2, [r0]
	.loc 1 2319 62
	ldr	r2, [r2, #3376]
	.loc 1 2320 94
	ubfx	r2, r2, #3, #1
	.loc 1 2319 42
	strb	r2, [r1, #98]
	.loc 1 2321 3 is_stmt 1
	.loc 1 2321 43 is_stmt 0
	ldr	r2, [r0]
	.loc 1 2321 53
	ldr	r2, [r2, #3376]
	.loc 1 2321 107
	ubfx	r2, r2, #4, #1
	.loc 1 2321 33
	strb	r2, [r1, #97]
	.loc 1 2322 3 is_stmt 1
	.loc 1 2322 51 is_stmt 0
	ldr	r2, [r0]
	.loc 1 2322 61
	ldr	r2, [r2, #3376]
	.loc 1 2323 99
	tst	r2, #64
	ite	eq
	moveq	r2, #1
	movne	r2, #0
	.loc 1 2322 41
	strb	r2, [r1, #96]
	.loc 1 2325 3 is_stmt 1
	.loc 1 2325 10 is_stmt 0
	movs	r0, #0
.LVL271:
	bx	lr
.LVL272:
.L238:
	.loc 1 2268 12
	movs	r0, #1
.LVL273:
	.loc 1 2326 1
	bx	lr
	.cfi_endproc
.LFE367:
	.size	HAL_ETH_GetMACConfig, .-HAL_ETH_GetMACConfig
	.section	.text.HAL_ETH_GetDMAConfig,"ax",%progbits
	.align	1
	.global	HAL_ETH_GetDMAConfig
	.syntax unified
	.thumb
	.thumb_func
	.type	HAL_ETH_GetDMAConfig, %function
HAL_ETH_GetDMAConfig:
.LFB368:
	.loc 1 2337 1 is_stmt 1
	.cfi_startproc
	@ args = 0, pretend = 0, frame = 0
	@ frame_needed = 0, uses_anonymous_args = 0
	@ link register save eliminated.
.LVL274:
	.loc 1 2338 3
	.loc 1 2338 6 is_stmt 0
	cmp	r1, #0
	beq	.L241
	.loc 1 2343 3 is_stmt 1
	.loc 1 2343 42 is_stmt 0
	ldr	r2, [r0]
	.loc 1 2343 52
	add	r2, r2, #4096
	ldr	r2, [r2, #4]
	.loc 1 2343 107
	ubfx	r2, r2, #12, #1
	.loc 1 2343 32
	strb	r2, [r1, #4]
	.loc 1 2344 3 is_stmt 1
	.loc 1 2344 30 is_stmt 0
	ldr	r2, [r0]
	.loc 1 2344 40
	add	r2, r2, #4096
	ldr	r2, [r2, #4]
	.loc 1 2344 51
	bic	r2, r2, #16320
	bic	r2, r2, #62
	lsls	r2, r2, #17
	lsrs	r2, r2, #17
	.loc 1 2344 22
	str	r2, [r1, #8]
	.loc 1 2345 3 is_stmt 1
	.loc 1 2345 40 is_stmt 0
	ldr	r2, [r0]
	.loc 1 2345 50
	add	r2, r2, #4096
	ldr	r2, [r2, #4]
	.loc 1 2345 105
	ubfx	r2, r2, #15, #1
	.loc 1 2345 30
	strb	r2, [r1, #12]
	.loc 1 2347 3 is_stmt 1
	.loc 1 2347 35 is_stmt 0
	ldr	r2, [r0]
	.loc 1 2347 45
	add	r2, r2, #4096
	ldr	r2, [r2]
	.loc 1 2347 54
	bic	r2, r2, #2040
	bic	r2, r2, #5
	lsls	r2, r2, #17
	lsrs	r2, r2, #17
	.loc 1 2347 27
	str	r2, [r1]
	.loc 1 2349 3 is_stmt 1
	.loc 1 2349 32 is_stmt 0
	ldr	r2, [r0]
	.loc 1 2349 42
	add	r2, r2, #4096
	ldr	r2, [r2, #256]
	.loc 1 2349 93
	ubfx	r2, r2, #16, #1
	.loc 1 2349 22
	strb	r2, [r1, #13]
	.loc 1 2350 3 is_stmt 1
	.loc 1 2350 39 is_stmt 0
	ldr	r2, [r0]
	.loc 1 2350 49
	add	r2, r2, #4096
	ldr	r2, [r2, #256]
	.loc 1 2350 59
	ubfx	r2, r2, #0, #14
	.loc 1 2350 31
	str	r2, [r1, #32]
	.loc 1 2352 3 is_stmt 1
	.loc 1 2352 36 is_stmt 0
	ldr	r2, [r0]
	.loc 1 2352 46
	add	r2, r2, #4096
	ldr	r2, [r2, #264]
	.loc 1 2352 101
	lsrs	r2, r2, #31
	.loc 1 2352 26
	strb	r2, [r1, #28]
	.loc 1 2353 3 is_stmt 1
	.loc 1 2353 37 is_stmt 0
	ldr	r2, [r0]
	.loc 1 2353 47
	add	r2, r2, #4096
	ldr	r2, [r2, #264]
	.loc 1 2353 58
	and	r2, r2, #4128768
	.loc 1 2353 29
	str	r2, [r1, #24]
	.loc 1 2355 3 is_stmt 1
	.loc 1 2355 42 is_stmt 0
	ldr	r2, [r0]
	.loc 1 2355 52
	add	r2, r2, #4096
	ldr	r2, [r2, #260]
	.loc 1 2355 105
	ubfx	r2, r2, #4, #1
	.loc 1 2355 32
	strb	r2, [r1, #20]
	.loc 1 2356 3 is_stmt 1
	.loc 1 2356 38 is_stmt 0
	ldr	r2, [r0]
	.loc 1 2356 48
	add	r2, r2, #4096
	ldr	r2, [r2, #260]
	.loc 1 2356 103
	ubfx	r2, r2, #12, #1
	.loc 1 2356 28
	strb	r2, [r1, #29]
	.loc 1 2357 3 is_stmt 1
	.loc 1 2357 37 is_stmt 0
	ldr	r2, [r0]
	.loc 1 2357 47
	add	r2, r2, #4096
	ldr	r2, [r2, #260]
	.loc 1 2357 58
	and	r2, r2, #4128768
	.loc 1 2357 29
	str	r2, [r1, #16]
	.loc 1 2359 3 is_stmt 1
	.loc 1 2359 10 is_stmt 0
	movs	r0, #0
.LVL275:
	bx	lr
.LVL276:
.L241:
	.loc 1 2340 12
	movs	r0, #1
.LVL277:
	.loc 1 2360 1
	bx	lr
	.cfi_endproc
.LFE368:
	.size	HAL_ETH_GetDMAConfig, .-HAL_ETH_GetDMAConfig
	.section	.text.HAL_ETH_SetMACConfig,"ax",%progbits
	.align	1
	.global	HAL_ETH_SetMACConfig
	.syntax unified
	.thumb
	.thumb_func
	.type	HAL_ETH_SetMACConfig, %function
HAL_ETH_SetMACConfig:
.LFB369:
	.loc 1 2371 1 is_stmt 1
	.cfi_startproc
	@ args = 0, pretend = 0, frame = 0
	@ frame_needed = 0, uses_anonymous_args = 0
.LVL278:
	.loc 1 2372 3
	.loc 1 2372 6 is_stmt 0
	cbz	r1, .L244
	.loc 1 2371 1
	push	{r3, lr}
	.cfi_def_cfa_offset 8
	.cfi_offset 3, -8
	.cfi_offset 14, -4
	.loc 1 2377 3 is_stmt 1
	.loc 1 2377 11 is_stmt 0
	ldr	r3, [r0, #132]
	.loc 1 2377 6
	cmp	r3, #16
	beq	.L250
	.loc 1 2385 12
	movs	r0, #1
.LVL279:
.L243:
	.loc 1 2387 1
	pop	{r3, pc}
.LVL280:
.L250:
	.loc 1 2379 5 is_stmt 1
	bl	ETH_SetMACConfig
.LVL281:
	.loc 1 2381 5
	.loc 1 2381 12 is_stmt 0
	movs	r0, #0
	b	.L243
.LVL282:
.L244:
	.cfi_def_cfa_offset 0
	.cfi_restore 3
	.cfi_restore 14
	.loc 1 2374 12
	movs	r0, #1
.LVL283:
	.loc 1 2387 1
	bx	lr
	.cfi_endproc
.LFE369:
	.size	HAL_ETH_SetMACConfig, .-HAL_ETH_SetMACConfig
	.section	.text.HAL_ETH_SetDMAConfig,"ax",%progbits
	.align	1
	.global	HAL_ETH_SetDMAConfig
	.syntax unified
	.thumb
	.thumb_func
	.type	HAL_ETH_SetDMAConfig, %function
HAL_ETH_SetDMAConfig:
.LFB370:
	.loc 1 2398 1 is_stmt 1
	.cfi_startproc
	@ args = 0, pretend = 0, frame = 0
	@ frame_needed = 0, uses_anonymous_args = 0
.LVL284:
	.loc 1 2399 3
	.loc 1 2399 6 is_stmt 0
	cbz	r1, .L253
	.loc 1 2398 1
	push	{r3, lr}
	.cfi_def_cfa_offset 8
	.cfi_offset 3, -8
	.cfi_offset 14, -4
	.loc 1 2404 3 is_stmt 1
	.loc 1 2404 11 is_stmt 0
	ldr	r3, [r0, #132]
	.loc 1 2404 6
	cmp	r3, #16
	beq	.L259
	.loc 1 2412 12
	movs	r0, #1
.LVL285:
.L252:
	.loc 1 2414 1
	pop	{r3, pc}
.LVL286:
.L259:
	.loc 1 2406 5 is_stmt 1
	bl	ETH_SetDMAConfig
.LVL287:
	.loc 1 2408 5
	.loc 1 2408 12 is_stmt 0
	movs	r0, #0
	b	.L252
.LVL288:
.L253:
	.cfi_def_cfa_offset 0
	.cfi_restore 3
	.cfi_restore 14
	.loc 1 2401 12
	movs	r0, #1
.LVL289:
	.loc 1 2414 1
	bx	lr
	.cfi_endproc
.LFE370:
	.size	HAL_ETH_SetDMAConfig, .-HAL_ETH_SetDMAConfig
	.section	.text.HAL_ETH_SetMDIOClockRange,"ax",%progbits
	.align	1
	.global	HAL_ETH_SetMDIOClockRange
	.syntax unified
	.thumb
	.thumb_func
	.type	HAL_ETH_SetMDIOClockRange, %function
HAL_ETH_SetMDIOClockRange:
.LFB371:
	.loc 1 2423 1 is_stmt 1
	.cfi_startproc
	@ args = 0, pretend = 0, frame = 0
	@ frame_needed = 0, uses_anonymous_args = 0
.LVL290:
	push	{r3, r4, r5, lr}
	.cfi_def_cfa_offset 16
	.cfi_offset 3, -16
	.cfi_offset 4, -12
	.cfi_offset 5, -8
	.cfi_offset 14, -4
	mov	r5, r0
	.loc 1 2424 3
	.loc 1 2425 3
	.loc 1 2428 3
	.loc 1 2428 17 is_stmt 0
	ldr	r3, [r0]
	.loc 1 2428 10
	ldr	r4, [r3, #512]
.LVL291:
	.loc 1 2431 3 is_stmt 1
	.loc 1 2431 10 is_stmt 0
	bic	r4, r4, #3840
.LVL292:
	.loc 1 2434 3 is_stmt 1
	.loc 1 2434 10 is_stmt 0
	bl	HAL_RCC_GetHCLKFreq
.LVL293:
	.loc 1 2437 3 is_stmt 1
	.loc 1 2437 6 is_stmt 0
	ldr	r3, .L267
	cmp	r0, r3
	bhi	.L261
	.loc 1 2440 5 is_stmt 1
	.loc 1 2440 12 is_stmt 0
	orr	r4, r4, #512
.LVL294:
.L262:
	.loc 1 2469 3 is_stmt 1
	.loc 1 2469 8 is_stmt 0
	ldr	r3, [r5]
	.loc 1 2469 31
	str	r4, [r3, #512]
	.loc 1 2470 1
	pop	{r3, r4, r5, pc}
.LVL295:
.L261:
	.loc 1 2442 8 is_stmt 1
	.loc 1 2442 11 is_stmt 0
	ldr	r3, .L267+4
	cmp	r0, r3
	bcs	.L263
	.loc 1 2445 5 is_stmt 1
	.loc 1 2445 12 is_stmt 0
	orr	r4, r4, #768
.LVL296:
	b	.L262
.L263:
	.loc 1 2447 8 is_stmt 1
	.loc 1 2447 11 is_stmt 0
	ldr	r3, .L267+8
	cmp	r0, r3
	bls	.L262
	.loc 1 2452 8 is_stmt 1
	.loc 1 2452 11 is_stmt 0
	ldr	r3, .L267+12
	cmp	r0, r3
	bhi	.L264
	.loc 1 2455 5 is_stmt 1
	.loc 1 2455 12 is_stmt 0
	orr	r4, r4, #256
.LVL297:
	b	.L262
.L264:
	.loc 1 2457 8 is_stmt 1
	.loc 1 2457 11 is_stmt 0
	ldr	r3, .L267+16
	cmp	r0, r3
	bhi	.L265
	.loc 1 2460 5 is_stmt 1
	.loc 1 2460 12 is_stmt 0
	orr	r4, r4, #1024
.LVL298:
	b	.L262
.L265:
	.loc 1 2465 5 is_stmt 1
	.loc 1 2465 12 is_stmt 0
	orr	r4, r4, #1280
.LVL299:
	b	.L262
.L268:
	.align	2
.L267:
	.word	34999999
	.word	60000000
	.word	99999999
	.word	149999999
	.word	249999999
	.cfi_endproc
.LFE371:
	.size	HAL_ETH_SetMDIOClockRange, .-HAL_ETH_SetMDIOClockRange
	.section	.text.HAL_ETH_Init,"ax",%progbits
	.align	1
	.global	HAL_ETH_Init
	.syntax unified
	.thumb
	.thumb_func
	.type	HAL_ETH_Init, %function
HAL_ETH_Init:
.LFB335:
	.loc 1 309 1 is_stmt 1
	.cfi_startproc
	@ args = 0, pretend = 0, frame = 8
	@ frame_needed = 0, uses_anonymous_args = 0
.LVL300:
	.loc 1 310 3
	.loc 1 312 3
	.loc 1 312 6 is_stmt 0
	cmp	r0, #0
	beq	.L277
	.loc 1 309 1
	push	{r4, r5, lr}
	.cfi_def_cfa_offset 12
	.cfi_offset 4, -12
	.cfi_offset 5, -8
	.cfi_offset 14, -4
	sub	sp, sp, #12
	.cfi_def_cfa_offset 24
	mov	r4, r0
	.loc 1 316 3 is_stmt 1
	.loc 1 316 11 is_stmt 0
	ldr	r3, [r0, #132]
	.loc 1 316 6
	cbz	r3, .L282
.LVL301:
.L271:
	.loc 1 338 3 is_stmt 1
.LBB46:
	.loc 1 338 8
	.loc 1 338 34
	.loc 1 338 98 is_stmt 0
	ldr	r3, .L284
	ldr	r2, [r3, #244]
	.loc 1 338 109
	orr	r2, r2, #2
	str	r2, [r3, #244]
	.loc 1 338 132 is_stmt 1
	.loc 1 338 205 is_stmt 0
	ldr	r3, [r3, #244]
	.loc 1 338 216
	and	r3, r3, #2
	.loc 1 338 139
	str	r3, [sp, #4]
	.loc 1 338 238 is_stmt 1
	.loc 1 338 239 is_stmt 0
	ldr	r3, [sp, #4]
.LBE46:
	.loc 1 338 6 is_stmt 1
	.loc 1 340 3
	.loc 1 340 17 is_stmt 0
	ldrb	r3, [r4, #8]	@ zero_extendqisi2
	.loc 1 340 6
	cbnz	r3, .L272
	.loc 1 342 5 is_stmt 1
	movs	r0, #0
	bl	HAL_SYSCFG_ETHInterfaceSelect
.LVL302:
.L273:
	.loc 1 350 3
	ldr	r3, .L284+4
	ldr	r3, [r3, #4]
	.loc 1 355 3
	.loc 1 355 9 is_stmt 0
	ldr	r3, [r4]
	.loc 1 355 19
	add	r3, r3, #4096
	ldr	r2, [r3]
	.loc 1 355 28
	orr	r2, r2, #1
	str	r2, [r3]
	.loc 1 358 3 is_stmt 1
	.loc 1 358 15 is_stmt 0
	bl	HAL_GetTick
.LVL303:
	mov	r5, r0
.LVL304:
	.loc 1 361 3 is_stmt 1
.L274:
	.loc 1 361 56
	.loc 1 361 16 is_stmt 0
	ldr	r3, [r4]
	.loc 1 361 26
	add	r3, r3, #4096
	ldr	r3, [r3]
	.loc 1 361 56
	tst	r3, #1
	beq	.L283
	.loc 1 363 5 is_stmt 1
	.loc 1 363 11 is_stmt 0
	bl	HAL_GetTick
.LVL305:
	.loc 1 363 25
	subs	r0, r0, r5
	.loc 1 363 8
	cmp	r0, #500
	bls	.L274
	.loc 1 366 7 is_stmt 1
	.loc 1 366 23 is_stmt 0
	movs	r3, #4
	str	r3, [r4, #136]
	.loc 1 368 7 is_stmt 1
	.loc 1 368 20 is_stmt 0
	movs	r3, #224
	str	r3, [r4, #132]
	.loc 1 370 7 is_stmt 1
	.loc 1 370 14 is_stmt 0
	movs	r0, #1
.L270:
	.loc 1 426 1
	add	sp, sp, #12
	.cfi_remember_state
	.cfi_def_cfa_offset 12
	@ sp needed
	pop	{r4, r5, pc}
.LVL306:
.L282:
	.cfi_restore_state
	.loc 1 318 5 is_stmt 1
	.loc 1 318 18 is_stmt 0
	movs	r3, #35
	str	r3, [r0, #132]
	.loc 1 333 5 is_stmt 1
	bl	HAL_ETH_MspInit
.LVL307:
	b	.L271
.L272:
	.loc 1 346 5
	mov	r0, #8388608
	bl	HAL_SYSCFG_ETHInterfaceSelect
.LVL308:
	b	.L273
.LVL309:
.L283:
	.loc 1 375 3
	mov	r0, r4
	bl	HAL_ETH_SetMDIOClockRange
.LVL310:
	.loc 1 378 3
	.loc 1 378 47 is_stmt 0
	bl	HAL_RCC_GetHCLKFreq
.LVL311:
	.loc 1 378 69
	ldr	r3, .L284+8
	umull	r2, r3, r3, r0
	lsrs	r3, r3, #18
	.loc 1 378 9
	ldr	r2, [r4]
	.loc 1 378 81
	subs	r3, r3, #1
	.loc 1 378 32
	str	r3, [r2, #220]
	.loc 1 381 3 is_stmt 1
	mov	r0, r4
	bl	ETH_MACDMAConfig
.LVL312:
	.loc 1 384 3
	.loc 1 384 43 is_stmt 0
	ldr	r2, [r4]
	.loc 1 384 53
	add	r2, r2, #4096
	ldr	r3, [r2, #256]
	.loc 1 384 65
	bic	r3, r3, #1835008
	.loc 1 384 90
	orr	r3, r3, #524288
	.loc 1 384 31
	str	r3, [r2, #256]
	.loc 1 387 3 is_stmt 1
	.loc 1 387 18 is_stmt 0
	ldr	r2, [r4, #20]
	.loc 1 387 6
	tst	r2, #3
	beq	.L276
	.loc 1 390 5 is_stmt 1
	.loc 1 390 21 is_stmt 0
	movs	r0, #1
	str	r0, [r4, #136]
	.loc 1 392 5 is_stmt 1
	.loc 1 392 18 is_stmt 0
	movs	r3, #224
	str	r3, [r4, #132]
	.loc 1 394 5 is_stmt 1
	.loc 1 394 12 is_stmt 0
	b	.L270
.L276:
	.loc 1 398 5 is_stmt 1
	.loc 1 398 46 is_stmt 0
	ldr	r1, [r4]
	.loc 1 398 56
	add	r1, r1, #4096
	ldr	r0, [r1, #264]
	.loc 1 398 69
	ldr	r3, .L284+12
	ands	r3, r3, r0
	.loc 1 398 96
	orr	r3, r3, r2, lsl #1
	.loc 1 398 34
	str	r3, [r1, #264]
	.loc 1 402 3 is_stmt 1
	mov	r0, r4
	bl	ETH_DMATxDescListInit
.LVL313:
	.loc 1 405 3
	mov	r0, r4
	bl	ETH_DMARxDescListInit
.LVL314:
	.loc 1 409 3
	.loc 1 409 52 is_stmt 0
	ldr	r3, [r4, #4]
	.loc 1 409 60
	ldrb	r1, [r3, #5]	@ zero_extendqisi2
	.loc 1 409 101
	ldrb	r3, [r3, #4]	@ zero_extendqisi2
	.loc 1 409 7
	ldr	r2, [r4]
	.loc 1 409 71
	orr	r3, r3, r1, lsl #8
	.loc 1 409 27
	str	r3, [r2, #768]
	.loc 1 411 3 is_stmt 1
	.loc 1 411 52 is_stmt 0
	ldr	r2, [r4, #4]
	.loc 1 411 60
	ldrb	r1, [r2, #3]	@ zero_extendqisi2
	.loc 1 411 104
	ldrb	r3, [r2, #2]	@ zero_extendqisi2
	.loc 1 411 109
	lsls	r3, r3, #16
	.loc 1 411 72
	orr	r3, r3, r1, lsl #24
	.loc 1 412 60
	ldrb	r1, [r2, #1]	@ zero_extendqisi2
	.loc 1 411 116
	orr	r3, r3, r1, lsl #8
	.loc 1 412 101
	ldrb	r1, [r2]	@ zero_extendqisi2
	.loc 1 411 7
	ldr	r2, [r4]
	.loc 1 412 71
	orrs	r3, r3, r1
	.loc 1 411 27
	str	r3, [r2, #772]
	.loc 1 415 3 is_stmt 1
	.loc 1 415 9 is_stmt 0
	ldr	r2, [r4]
	.loc 1 415 19
	ldr	r1, [r2, #1804]
	.loc 1 415 30
	ldr	r3, .L284+16
	orrs	r3, r3, r1
	str	r3, [r2, #1804]
	.loc 1 419 3 is_stmt 1
	.loc 1 419 9 is_stmt 0
	ldr	r2, [r4]
	.loc 1 419 19
	ldr	r1, [r2, #1808]
	.loc 1 419 30
	ldr	r3, .L284+20
	orrs	r3, r3, r1
	str	r3, [r2, #1808]
	.loc 1 422 3 is_stmt 1
	.loc 1 422 19 is_stmt 0
	movs	r0, #0
	str	r0, [r4, #136]
	.loc 1 423 3 is_stmt 1
	.loc 1 423 16 is_stmt 0
	movs	r3, #16
	str	r3, [r4, #132]
	.loc 1 425 3 is_stmt 1
	.loc 1 425 10 is_stmt 0
	b	.L270
.LVL315:
.L277:
	.cfi_def_cfa_offset 0
	.cfi_restore 4
	.cfi_restore 5
	.cfi_restore 14
	.loc 1 314 12
	movs	r0, #1
.LVL316:
	.loc 1 426 1
	bx	lr
.L285:
	.align	2
.L284:
	.word	1476543488
	.word	1476396032
	.word	1125899907
	.word	-32767
	.word	201457760
	.word	203472896
	.cfi_endproc
.LFE335:
	.size	HAL_ETH_Init, .-HAL_ETH_Init
	.section	.text.HAL_ETH_SetMACFilterConfig,"ax",%progbits
	.align	1
	.global	HAL_ETH_SetMACFilterConfig
	.syntax unified
	.thumb
	.thumb_func
	.type	HAL_ETH_SetMACFilterConfig, %function
HAL_ETH_SetMACFilterConfig:
.LFB372:
	.loc 1 2481 1 is_stmt 1
	.cfi_startproc
	@ args = 0, pretend = 0, frame = 0
	@ frame_needed = 0, uses_anonymous_args = 0
	@ link register save eliminated.
.LVL317:
	.loc 1 2482 3
	.loc 1 2484 3
	.loc 1 2484 6 is_stmt 0
	mov	r2, r1
	cbz	r1, .L289
	.loc 1 2489 3 is_stmt 1
	.loc 1 2489 42 is_stmt 0
	ldrb	r3, [r1]	@ zero_extendqisi2
	.loc 1 2490 43
	ldrb	r1, [r1, #3]	@ zero_extendqisi2
.LVL318:
	.loc 1 2489 60
	orr	r3, r3, r1, lsl #1
	.loc 1 2491 43
	ldrb	r1, [r2, #4]	@ zero_extendqisi2
	.loc 1 2490 63
	orr	r3, r3, r1, lsl #2
	.loc 1 2492 43
	ldrb	r1, [r2, #8]	@ zero_extendqisi2
	.loc 1 2491 65
	orr	r3, r3, r1, lsl #3
	.loc 1 2493 43
	ldrb	r1, [r2, #5]	@ zero_extendqisi2
	.loc 1 2492 76
	orr	r3, r3, r1, lsl #4
	.loc 1 2494 45
	ldrb	r1, [r2, #9]	@ zero_extendqisi2
	.loc 1 2494 86
	cbnz	r1, .L290
	movs	r1, #32
.L288:
	.loc 1 2493 68
	orrs	r3, r3, r1
	.loc 1 2495 43
	ldrb	r1, [r2, #7]	@ zero_extendqisi2
	.loc 1 2494 92
	orr	r3, r3, r1, lsl #8
	.loc 1 2496 43
	ldrb	r1, [r2, #6]	@ zero_extendqisi2
	.loc 1 2495 75
	orr	r3, r3, r1, lsl #9
	.loc 1 2497 43
	ldrb	r1, [r2, #2]	@ zero_extendqisi2
	.loc 1 2496 68
	orr	r3, r3, r1, lsl #10
	.loc 1 2498 43
	ldrb	r1, [r2, #1]	@ zero_extendqisi2
	.loc 1 2497 72
	orr	r3, r3, r1, lsl #31
	.loc 1 2499 32
	ldr	r2, [r2, #12]
.LVL319:
	.loc 1 2489 16
	orrs	r3, r3, r2
.LVL320:
	.loc 1 2501 3 is_stmt 1
	.loc 1 2501 43 is_stmt 0
	ldr	r1, [r0]
	.loc 1 2501 53
	ldr	r0, [r1, #8]
.LVL321:
	.loc 1 2501 65
	ldr	r2, .L291
	ands	r2, r2, r0
	.loc 1 2501 85
	orrs	r2, r2, r3
	.loc 1 2501 31
	str	r2, [r1, #8]
	.loc 1 2503 3 is_stmt 1
	.loc 1 2503 10 is_stmt 0
	movs	r0, #0
	bx	lr
.LVL322:
.L290:
	.loc 1 2494 86
	movs	r1, #0
	b	.L288
.LVL323:
.L289:
	.loc 1 2486 12
	movs	r0, #1
.LVL324:
	.loc 1 2504 1
	bx	lr
.L292:
	.align	2
.L291:
	.word	2147481600
	.cfi_endproc
.LFE372:
	.size	HAL_ETH_SetMACFilterConfig, .-HAL_ETH_SetMACFilterConfig
	.section	.text.HAL_ETH_GetMACFilterConfig,"ax",%progbits
	.align	1
	.global	HAL_ETH_GetMACFilterConfig
	.syntax unified
	.thumb
	.thumb_func
	.type	HAL_ETH_GetMACFilterConfig, %function
HAL_ETH_GetMACFilterConfig:
.LFB373:
	.loc 1 2515 1 is_stmt 1
	.cfi_startproc
	@ args = 0, pretend = 0, frame = 0
	@ frame_needed = 0, uses_anonymous_args = 0
	@ link register save eliminated.
.LVL325:
	.loc 1 2516 3
	.loc 1 2516 6 is_stmt 0
	cmp	r1, #0
	beq	.L295
	.loc 1 2521 3 is_stmt 1
	.loc 1 2521 44 is_stmt 0
	ldr	r2, [r0]
	.loc 1 2521 54
	ldr	r2, [r2, #8]
	.loc 1 2521 101
	and	r2, r2, #1
	.loc 1 2521 34
	strb	r2, [r1]
	.loc 1 2522 3 is_stmt 1
	.loc 1 2522 40 is_stmt 0
	ldr	r2, [r0]
	.loc 1 2522 50
	ldr	r2, [r2, #8]
	.loc 1 2522 102
	ubfx	r2, r2, #1, #1
	.loc 1 2522 30
	strb	r2, [r1, #3]
	.loc 1 2523 3 is_stmt 1
	.loc 1 2523 42 is_stmt 0
	ldr	r2, [r0]
	.loc 1 2523 52
	ldr	r2, [r2, #8]
	.loc 1 2523 104
	ubfx	r2, r2, #2, #1
	.loc 1 2523 32
	strb	r2, [r1, #4]
	.loc 1 2524 3 is_stmt 1
	.loc 1 2524 53 is_stmt 0
	ldr	r2, [r0]
	.loc 1 2524 63
	ldr	r2, [r2, #8]
	.loc 1 2525 94
	ubfx	r2, r2, #3, #1
	.loc 1 2524 43
	strb	r2, [r1, #8]
	.loc 1 2526 3 is_stmt 1
	.loc 1 2526 45 is_stmt 0
	ldr	r2, [r0]
	.loc 1 2526 55
	ldr	r2, [r2, #8]
	.loc 1 2526 107
	ubfx	r2, r2, #4, #1
	.loc 1 2526 35
	strb	r2, [r1, #5]
	.loc 1 2527 3 is_stmt 1
	.loc 1 2527 44 is_stmt 0
	ldr	r2, [r0]
	.loc 1 2527 54
	ldr	r2, [r2, #8]
	.loc 1 2527 107
	tst	r2, #32
	ite	eq
	moveq	r2, #1
	movne	r2, #0
	.loc 1 2527 34
	strb	r2, [r1, #9]
	.loc 1 2528 3 is_stmt 1
	.loc 1 2528 47 is_stmt 0
	ldr	r2, [r0]
	.loc 1 2528 57
	ldr	r2, [r2, #8]
	.loc 1 2528 67
	and	r2, r2, #192
	.loc 1 2528 39
	str	r2, [r1, #12]
	.loc 1 2529 3 is_stmt 1
	.loc 1 2529 52 is_stmt 0
	ldr	r2, [r0]
	.loc 1 2529 62
	ldr	r2, [r2, #8]
	.loc 1 2530 93
	ubfx	r2, r2, #8, #1
	.loc 1 2529 42
	strb	r2, [r1, #7]
	.loc 1 2531 3 is_stmt 1
	.loc 1 2531 45 is_stmt 0
	ldr	r2, [r0]
	.loc 1 2531 55
	ldr	r2, [r2, #8]
	.loc 1 2531 107
	ubfx	r2, r2, #9, #1
	.loc 1 2531 35
	strb	r2, [r1, #6]
	.loc 1 2532 3 is_stmt 1
	.loc 1 2532 48 is_stmt 0
	ldr	r2, [r0]
	.loc 1 2532 58
	ldr	r2, [r2, #8]
	.loc 1 2533 49
	ubfx	r2, r2, #10, #1
	.loc 1 2532 38
	strb	r2, [r1, #2]
	.loc 1 2534 3 is_stmt 1
	.loc 1 2534 43 is_stmt 0
	ldr	r2, [r0]
	.loc 1 2534 53
	ldr	r2, [r2, #8]
	.loc 1 2534 107
	lsrs	r2, r2, #31
	.loc 1 2534 33
	strb	r2, [r1, #1]
	.loc 1 2536 3 is_stmt 1
	.loc 1 2536 10 is_stmt 0
	movs	r0, #0
.LVL326:
	bx	lr
.LVL327:
.L295:
	.loc 1 2518 12
	movs	r0, #1
.LVL328:
	.loc 1 2537 1
	bx	lr
	.cfi_endproc
.LFE373:
	.size	HAL_ETH_GetMACFilterConfig, .-HAL_ETH_GetMACFilterConfig
	.section	.text.HAL_ETH_SetSourceMACAddrMatch,"ax",%progbits
	.align	1
	.global	HAL_ETH_SetSourceMACAddrMatch
	.syntax unified
	.thumb
	.thumb_func
	.type	HAL_ETH_SetSourceMACAddrMatch, %function
HAL_ETH_SetSourceMACAddrMatch:
.LFB374:
	.loc 1 2553 1 is_stmt 1
	.cfi_startproc
	@ args = 0, pretend = 0, frame = 0
	@ frame_needed = 0, uses_anonymous_args = 0
.LVL329:
	.loc 1 2554 3
	.loc 1 2555 3
	.loc 1 2557 3
	.loc 1 2557 6 is_stmt 0
	cbz	r2, .L298
	.loc 1 2553 1
	push	{lr}
	.cfi_def_cfa_offset 4
	.cfi_offset 14, -4
	mov	ip, r2
	.loc 1 2563 3 is_stmt 1
	.loc 1 2563 33 is_stmt 0
	ldr	r2, [r0]
.LVL330:
	.loc 1 2563 27
	add	r0, r2, #768
.LVL331:
	.loc 1 2565 3 is_stmt 1
	.loc 1 2565 27 is_stmt 0
	add	r2, r2, #772
.LVL332:
	.loc 1 2568 3 is_stmt 1
	.loc 1 2568 60 is_stmt 0
	ldrb	lr, [ip, #5]	@ zero_extendqisi2
	.loc 1 2568 91
	ldrb	r3, [ip, #4]	@ zero_extendqisi2
	.loc 1 2568 71
	orr	r3, r3, lr, lsl #8
	.loc 1 2568 37
	str	r3, [r0, r1]
	.loc 1 2570 3 is_stmt 1
	.loc 1 2570 60 is_stmt 0
	ldrb	lr, [ip, #3]	@ zero_extendqisi2
	.loc 1 2570 94
	ldrb	r3, [ip, #2]	@ zero_extendqisi2
	.loc 1 2570 99
	lsls	r3, r3, #16
	.loc 1 2570 72
	orr	r3, r3, lr, lsl #24
	.loc 1 2571 56
	ldrb	lr, [ip, #1]	@ zero_extendqisi2
	.loc 1 2570 106
	orr	r3, r3, lr, lsl #8
	.loc 1 2571 87
	ldrb	ip, [ip]	@ zero_extendqisi2
.LVL333:
	.loc 1 2571 67
	orr	r3, r3, ip
	.loc 1 2570 37
	str	r3, [r2, r1]
	.loc 1 2574 3 is_stmt 1
	.loc 1 2574 4 is_stmt 0
	ldr	r3, [r0, r1]
	.loc 1 2574 37
	orr	r3, r3, #-1073741824
	str	r3, [r0, r1]
	.loc 1 2576 3 is_stmt 1
	.loc 1 2576 10 is_stmt 0
	movs	r0, #0
.LVL334:
	.loc 1 2577 1
	ldr	pc, [sp], #4
.LVL335:
.L298:
	.cfi_def_cfa_offset 0
	.cfi_restore 14
	.loc 1 2559 12
	movs	r0, #1
.LVL336:
	.loc 1 2577 1
	bx	lr
	.cfi_endproc
.LFE374:
	.size	HAL_ETH_SetSourceMACAddrMatch, .-HAL_ETH_SetSourceMACAddrMatch
	.section	.text.HAL_ETH_SetHashTable,"ax",%progbits
	.align	1
	.global	HAL_ETH_SetHashTable
	.syntax unified
	.thumb
	.thumb_func
	.type	HAL_ETH_SetHashTable, %function
HAL_ETH_SetHashTable:
.LFB375:
	.loc 1 2588 1 is_stmt 1
	.cfi_startproc
	@ args = 0, pretend = 0, frame = 0
	@ frame_needed = 0, uses_anonymous_args = 0
	@ link register save eliminated.
.LVL337:
	.loc 1 2589 3
	.loc 1 2589 6 is_stmt 0
	mov	r3, r1
	cbz	r1, .L305
	.loc 1 2594 3 is_stmt 1
	.loc 1 2594 7 is_stmt 0
	ldr	r2, [r0]
	.loc 1 2594 39
	ldr	r1, [r1]
.LVL338:
	.loc 1 2594 27
	str	r1, [r2, #16]
	.loc 1 2595 3 is_stmt 1
	.loc 1 2595 7 is_stmt 0
	ldr	r2, [r0]
	.loc 1 2595 27
	ldr	r3, [r3, #4]
.LVL339:
	str	r3, [r2, #20]
	.loc 1 2597 3 is_stmt 1
	.loc 1 2597 10 is_stmt 0
	movs	r0, #0
.LVL340:
	bx	lr
.LVL341:
.L305:
	.loc 1 2591 12
	movs	r0, #1
.LVL342:
	.loc 1 2598 1
	bx	lr
	.cfi_endproc
.LFE375:
	.size	HAL_ETH_SetHashTable, .-HAL_ETH_SetHashTable
	.section	.text.HAL_ETH_SetRxVLANIdentifier,"ax",%progbits
	.align	1
	.global	HAL_ETH_SetRxVLANIdentifier
	.syntax unified
	.thumb
	.thumb_func
	.type	HAL_ETH_SetRxVLANIdentifier, %function
HAL_ETH_SetRxVLANIdentifier:
.LFB376:
	.loc 1 2610 1 is_stmt 1
	.cfi_startproc
	@ args = 0, pretend = 0, frame = 0
	@ frame_needed = 0, uses_anonymous_args = 0
	@ link register save eliminated.
.LVL343:
	push	{r4}
	.cfi_def_cfa_offset 4
	.cfi_offset 4, -4
	.loc 1 2611 3
	.loc 1 2611 6 is_stmt 0
	cbnz	r1, .L307
	.loc 1 2613 5 is_stmt 1
	.loc 1 2613 45 is_stmt 0
	ldr	r1, [r0]
.LVL344:
	.loc 1 2613 55
	ldr	r4, [r1, #80]
	.loc 1 2613 67
	ldr	r3, .L310
	ands	r3, r3, r4
	.loc 1 2613 94
	orrs	r3, r3, r2
	.loc 1 2613 33
	str	r3, [r1, #80]
	.loc 1 2614 5 is_stmt 1
	.loc 1 2614 11 is_stmt 0
	ldr	r2, [r0]
.LVL345:
	.loc 1 2614 21
	ldr	r3, [r2, #80]
	.loc 1 2614 31
	bic	r3, r3, #65536
	str	r3, [r2, #80]
.L306:
	.loc 1 2621 1
	ldr	r4, [sp], #4
	.cfi_remember_state
	.cfi_restore 4
	.cfi_def_cfa_offset 0
	bx	lr
.LVL346:
.L307:
	.cfi_restore_state
	.loc 1 2618 5 is_stmt 1
	.loc 1 2618 45 is_stmt 0
	ldr	r1, [r0]
.LVL347:
	.loc 1 2618 55
	ldr	r4, [r1, #80]
	.loc 1 2618 67
	ldr	r3, .L310+4
	ands	r3, r3, r4
	.loc 1 2618 93
	orrs	r3, r3, r2
	.loc 1 2618 33
	str	r3, [r1, #80]
	.loc 1 2619 5 is_stmt 1
	.loc 1 2619 11 is_stmt 0
	ldr	r2, [r0]
.LVL348:
	.loc 1 2619 21
	ldr	r3, [r2, #80]
	.loc 1 2619 31
	orr	r3, r3, #65536
	str	r3, [r2, #80]
	.loc 1 2621 1
	b	.L306
.L311:
	.align	2
.L310:
	.word	-65536
	.word	-4096
	.cfi_endproc
.LFE376:
	.size	HAL_ETH_SetRxVLANIdentifier, .-HAL_ETH_SetRxVLANIdentifier
	.section	.text.HAL_ETH_EnterPowerDownMode,"ax",%progbits
	.align	1
	.global	HAL_ETH_EnterPowerDownMode
	.syntax unified
	.thumb
	.thumb_func
	.type	HAL_ETH_EnterPowerDownMode, %function
HAL_ETH_EnterPowerDownMode:
.LFB377:
	.loc 1 2632 1 is_stmt 1
	.cfi_startproc
	@ args = 0, pretend = 0, frame = 0
	@ frame_needed = 0, uses_anonymous_args = 0
	@ link register save eliminated.
.LVL349:
	.loc 1 2633 3
	.loc 1 2635 3
	.loc 1 2635 49 is_stmt 0
	ldrb	r2, [r1, #1]	@ zero_extendqisi2
	.loc 1 2636 49
	ldrb	r3, [r1]	@ zero_extendqisi2
	.loc 1 2636 64
	lsls	r3, r3, #2
	.loc 1 2635 69
	orr	r3, r3, r2, lsl #1
	.loc 1 2637 49
	ldrb	r2, [r1, #2]	@ zero_extendqisi2
	.loc 1 2636 70
	orr	r3, r3, r2, lsl #9
	.loc 1 2638 49
	ldrb	r2, [r1, #3]	@ zero_extendqisi2
	.loc 1 2637 71
	orr	r3, r3, r2, lsl #10
	.loc 1 2635 19
	orr	r3, r3, #1
.LVL350:
	.loc 1 2642 3 is_stmt 1
	.loc 1 2642 10 is_stmt 0
	ldr	r1, [r0]
.LVL351:
	.loc 1 2642 20
	ldr	r2, [r1, #180]
	.loc 1 2642 29
	orr	r2, r2, #16
	str	r2, [r1, #180]
	.loc 1 2644 3 is_stmt 1
	.loc 1 2644 44 is_stmt 0
	ldr	r1, [r0]
	.loc 1 2644 54
	ldr	r0, [r1, #192]
.LVL352:
	.loc 1 2644 67
	ldr	r2, .L313
	ands	r2, r2, r0
	.loc 1 2644 166
	orrs	r2, r2, r3
	.loc 1 2644 32
	str	r2, [r1, #192]
	.loc 1 2645 1
	bx	lr
.L314:
	.align	2
.L313:
	.word	-1544
	.cfi_endproc
.LFE377:
	.size	HAL_ETH_EnterPowerDownMode, .-HAL_ETH_EnterPowerDownMode
	.section	.text.HAL_ETH_ExitPowerDownMode,"ax",%progbits
	.align	1
	.global	HAL_ETH_ExitPowerDownMode
	.syntax unified
	.thumb
	.thumb_func
	.type	HAL_ETH_ExitPowerDownMode, %function
HAL_ETH_ExitPowerDownMode:
.LFB378:
	.loc 1 2654 1 is_stmt 1
	.cfi_startproc
	@ args = 0, pretend = 0, frame = 0
	@ frame_needed = 0, uses_anonymous_args = 0
	@ link register save eliminated.
.LVL353:
	.loc 1 2656 3
	.loc 1 2656 9 is_stmt 0
	ldr	r2, [r0]
	.loc 1 2656 19
	ldr	r1, [r2, #192]
	.loc 1 2656 30
	ldr	r3, .L317
	ands	r3, r3, r1
	str	r3, [r2, #192]
	.loc 1 2659 3 is_stmt 1
	.loc 1 2659 13 is_stmt 0
	ldr	r3, [r0]
	.loc 1 2659 23
	ldr	r2, [r3, #192]
	.loc 1 2659 6
	tst	r2, #1
	beq	.L316
	.loc 1 2662 5 is_stmt 1
	.loc 1 2662 21 is_stmt 0
	ldr	r2, [r3, #192]
	.loc 1 2662 32
	bic	r2, r2, #1
	str	r2, [r3, #192]
.L316:
	.loc 1 2666 3 is_stmt 1
	.loc 1 2666 10 is_stmt 0
	ldr	r2, [r0]
	.loc 1 2666 20
	ldr	r3, [r2, #180]
	.loc 1 2666 29
	bic	r3, r3, #16
	str	r3, [r2, #180]
	.loc 1 2667 1
	bx	lr
.L318:
	.align	2
.L317:
	.word	-1543
	.cfi_endproc
.LFE378:
	.size	HAL_ETH_ExitPowerDownMode, .-HAL_ETH_ExitPowerDownMode
	.section	.text.HAL_ETH_SetWakeUpFilter,"ax",%progbits
	.align	1
	.global	HAL_ETH_SetWakeUpFilter
	.syntax unified
	.thumb
	.thumb_func
	.type	HAL_ETH_SetWakeUpFilter, %function
HAL_ETH_SetWakeUpFilter:
.LFB379:
	.loc 1 2678 1 is_stmt 1
	.cfi_startproc
	@ args = 0, pretend = 0, frame = 0
	@ frame_needed = 0, uses_anonymous_args = 0
	@ link register save eliminated.
.LVL354:
	.loc 1 2679 3
	.loc 1 2681 3
	.loc 1 2681 6 is_stmt 0
	cbz	r1, .L323
	mov	ip, r1
	.loc 1 2687 3 is_stmt 1
	.loc 1 2687 9 is_stmt 0
	ldr	r1, [r0]
.LVL355:
	.loc 1 2687 19
	ldr	r3, [r1, #192]
	.loc 1 2687 30
	orr	r3, r3, #-2147483648
	str	r3, [r1, #192]
	.loc 1 2690 3 is_stmt 1
.LVL356:
	.loc 1 2690 17 is_stmt 0
	movs	r3, #0
.LVL357:
	.loc 1 2690 31 is_stmt 1
	cmp	r3, r2
	bcs	.L330
	.loc 1 2678 1 is_stmt 0
	push	{r4}
	.cfi_def_cfa_offset 4
	.cfi_offset 4, -4
.L322:
	.loc 1 2693 5 is_stmt 1 discriminator 3
	.loc 1 2693 11 is_stmt 0 discriminator 3
	ldr	r1, [r0]
	.loc 1 2693 34 discriminator 3
	ldr	r4, [ip, r3, lsl #2]
	str	r4, [r1, #196]
	.loc 1 2690 48 is_stmt 1 discriminator 3
	adds	r3, r3, #1
.LVL358:
	.loc 1 2690 31 discriminator 3
	cmp	r3, r2
	bcc	.L322
	.loc 1 2696 10 is_stmt 0
	movs	r0, #0
.LVL359:
	.loc 1 2697 1
	ldr	r4, [sp], #4
	.cfi_restore 4
	.cfi_def_cfa_offset 0
	bx	lr
.LVL360:
.L323:
	.loc 1 2683 12
	movs	r0, #1
.LVL361:
	bx	lr
.LVL362:
.L330:
	.loc 1 2696 10
	movs	r0, #0
.LVL363:
	.loc 1 2697 1
	bx	lr
	.cfi_endproc
.LFE379:
	.size	HAL_ETH_SetWakeUpFilter, .-HAL_ETH_SetWakeUpFilter
	.section	.text.HAL_ETH_GetState,"ax",%progbits
	.align	1
	.global	HAL_ETH_GetState
	.syntax unified
	.thumb
	.thumb_func
	.type	HAL_ETH_GetState, %function
HAL_ETH_GetState:
.LFB380:
	.loc 1 2727 1 is_stmt 1
	.cfi_startproc
	@ args = 0, pretend = 0, frame = 0
	@ frame_needed = 0, uses_anonymous_args = 0
	@ link register save eliminated.
.LVL364:
	.loc 1 2728 3
	.loc 1 2728 14 is_stmt 0
	ldr	r0, [r0, #132]
.LVL365:
	.loc 1 2729 1
	bx	lr
	.cfi_endproc
.LFE380:
	.size	HAL_ETH_GetState, .-HAL_ETH_GetState
	.section	.text.HAL_ETH_GetError,"ax",%progbits
	.align	1
	.global	HAL_ETH_GetError
	.syntax unified
	.thumb
	.thumb_func
	.type	HAL_ETH_GetError, %function
HAL_ETH_GetError:
.LFB381:
	.loc 1 2738 1 is_stmt 1
	.cfi_startproc
	@ args = 0, pretend = 0, frame = 0
	@ frame_needed = 0, uses_anonymous_args = 0
	@ link register save eliminated.
.LVL366:
	.loc 1 2739 3
	.loc 1 2739 14 is_stmt 0
	ldr	r0, [r0, #136]
.LVL367:
	.loc 1 2740 1
	bx	lr
	.cfi_endproc
.LFE381:
	.size	HAL_ETH_GetError, .-HAL_ETH_GetError
	.section	.text.HAL_ETH_GetDMAError,"ax",%progbits
	.align	1
	.global	HAL_ETH_GetDMAError
	.syntax unified
	.thumb
	.thumb_func
	.type	HAL_ETH_GetDMAError, %function
HAL_ETH_GetDMAError:
.LFB382:
	.loc 1 2749 1 is_stmt 1
	.cfi_startproc
	@ args = 0, pretend = 0, frame = 0
	@ frame_needed = 0, uses_anonymous_args = 0
	@ link register save eliminated.
.LVL368:
	.loc 1 2750 3
	.loc 1 2750 14 is_stmt 0
	ldr	r0, [r0, #140]
.LVL369:
	.loc 1 2751 1
	bx	lr
	.cfi_endproc
.LFE382:
	.size	HAL_ETH_GetDMAError, .-HAL_ETH_GetDMAError
	.section	.text.HAL_ETH_GetMACError,"ax",%progbits
	.align	1
	.global	HAL_ETH_GetMACError
	.syntax unified
	.thumb
	.thumb_func
	.type	HAL_ETH_GetMACError, %function
HAL_ETH_GetMACError:
.LFB383:
	.loc 1 2760 1 is_stmt 1
	.cfi_startproc
	@ args = 0, pretend = 0, frame = 0
	@ frame_needed = 0, uses_anonymous_args = 0
	@ link register save eliminated.
.LVL370:
	.loc 1 2761 3
	.loc 1 2761 14 is_stmt 0
	ldr	r0, [r0, #144]
.LVL371:
	.loc 1 2762 1
	bx	lr
	.cfi_endproc
.LFE383:
	.size	HAL_ETH_GetMACError, .-HAL_ETH_GetMACError
	.section	.text.HAL_ETH_GetMACWakeUpSource,"ax",%progbits
	.align	1
	.global	HAL_ETH_GetMACWakeUpSource
	.syntax unified
	.thumb
	.thumb_func
	.type	HAL_ETH_GetMACWakeUpSource, %function
HAL_ETH_GetMACWakeUpSource:
.LFB384:
	.loc 1 2771 1 is_stmt 1
	.cfi_startproc
	@ args = 0, pretend = 0, frame = 0
	@ frame_needed = 0, uses_anonymous_args = 0
	@ link register save eliminated.
.LVL372:
	.loc 1 2772 3
	.loc 1 2772 14 is_stmt 0
	ldr	r0, [r0, #148]
.LVL373:
	.loc 1 2773 1
	bx	lr
	.cfi_endproc
.LFE384:
	.size	HAL_ETH_GetMACWakeUpSource, .-HAL_ETH_GetMACWakeUpSource
	.text
.Letext0:
	.file 3 "m:\\noinstall\\arm-gnu-toolchain-12.2.rel1-mingw-w64-i686-arm-none-eabi\\arm-none-eabi\\include\\machine\\_default_types.h"
	.file 4 "m:\\noinstall\\arm-gnu-toolchain-12.2.rel1-mingw-w64-i686-arm-none-eabi\\arm-none-eabi\\include\\sys\\_stdint.h"
	.file 5 "D:/RTOS/Board/YD-STM32H7xxVx_ClassicV19/cmake-build-debug/_deps/stm32h7xx_cmsis_device-src/Include/stm32h743xx.h"
	.file 6 "D:/RTOS/Board/YD-STM32H7xxVx_ClassicV19/cmake-build-debug/_deps/stm32h7xx_cmsis_device-src/Include/stm32h7xx.h"
	.file 7 "D:/RTOS/Board/YD-STM32H7xxVx_ClassicV19/cmake-build-debug/_deps/stm32h7xx_hal_driver-src/Inc/stm32h7xx_hal_def.h"
	.file 8 "D:/RTOS/Board/YD-STM32H7xxVx_ClassicV19/cmake-build-debug/_deps/stm32h7xx_hal_driver-src/Inc/stm32h7xx_hal_eth.h"
	.file 9 "D:/RTOS/Board/YD-STM32H7xxVx_ClassicV19/cmake-build-debug/_deps/stm32h7xx_hal_driver-src/Inc/stm32h7xx_hal_rcc.h"
	.file 10 "D:/RTOS/Board/YD-STM32H7xxVx_ClassicV19/cmake-build-debug/_deps/stm32h7xx_hal_driver-src/Inc/stm32h7xx_hal.h"