	.cpu cortex-m7
	.arch armv7e-m
	.fpu fpv5-d16
	.eabi_attribute 28, 1
	.eabi_attribute 20, 1
	.eabi_attribute 21, 1
	.eabi_attribute 23, 3
	.eabi_attribute 24, 1
	.eabi_attribute 25, 1
	.eabi_attribute 26, 1
	.eabi_attribute 30, 1
	.eabi_attribute 34, 1
	.eabi_attribute 18, 4
	.file	"stm32h7xx_ll_sdmmc.c"
	.text
.Ltext0:
	.cfi_sections	.debug_frame
	.file 1 "D:/RTOS/Board/YD-STM32H7xxVx_ClassicV19/cmake-build-debug/_deps/stm32h7xx_hal_driver-src/Src/stm32h7xx_ll_sdmmc.c"
	.section	.text.SDMMC_GetCmdError,"ax",%progbits
	.align	1
	.syntax unified
	.thumb
	.thumb_func
	.type	SDMMC_GetCmdError, %function
SDMMC_GetCmdError:
.LFB383:
	.loc 1 1613 1
	.cfi_startproc
	@ args = 0, pretend = 0, frame = 0
	@ frame_needed = 0, uses_anonymous_args = 0
	@ link register save eliminated.
.LVL0:
	.loc 1 1616 3
	.loc 1 1616 62 is_stmt 0
	ldr	r3, .L5
	ldr	r3, [r3]
	ldr	r2, .L5+4
	umull	r2, r3, r2, r3
	lsrs	r3, r3, #9
	.loc 1 1616 12
	movw	r2, #5000
	mul	r3, r2, r3
.LVL1:
.L3:
	.loc 1 1618 3 is_stmt 1
	.loc 1 1620 5
	mov	r2, r3
	.loc 1 1620 14 is_stmt 0
	subs	r3, r3, #1
.LVL2:
	.loc 1 1620 8
	cbz	r2, .L4
	.loc 1 1625 12 is_stmt 1
	.loc 1 1625 23 is_stmt 0
	ldr	r2, [r0, #52]
	.loc 1 1625 12
	tst	r2, #128
	beq	.L3
	.loc 1 1628 3 is_stmt 1
	.loc 1 1628 18 is_stmt 0
	ldr	r3, .L5+8
.LVL3:
	str	r3, [r0, #56]
	.loc 1 1630 3 is_stmt 1
	.loc 1 1630 10 is_stmt 0
	movs	r0, #0
.LVL4:
	bx	lr
.LVL5:
.L4:
	.loc 1 1622 14
	mov	r0, #-2147483648
.LVL6:
	.loc 1 1631 1
	bx	lr
.L6:
	.align	2
.L5:
	.word	SystemCoreClock
	.word	274877907
	.word	2097349
	.cfi_endproc
.LFE383:
	.size	SDMMC_GetCmdError, .-SDMMC_GetCmdError
	.section	.text.SDMMC_Init,"ax",%progbits
	.align	1
	.global	SDMMC_Init
	.syntax unified
	.thumb
	.thumb_func
	.type	SDMMC_Init, %function
SDMMC_Init:
.LFB335:
	.loc 1 201 1 is_stmt 1
	.cfi_startproc
	@ args = 24, pretend = 16, frame = 0
	@ frame_needed = 0, uses_anonymous_args = 0
	@ link register save eliminated.
.LVL7:
	sub	sp, sp, #16
	.cfi_def_cfa_offset 16
	add	ip, sp, #4
	stm	ip, {r1, r2, r3}
	.loc 1 202 3
.LVL8:
	.loc 1 205 3
	.loc 1 206 3
	.loc 1 207 3
	.loc 1 208 3
	.loc 1 209 3
	.loc 1 210 3
	.loc 1 213 3
	.loc 1 213 29 is_stmt 0
	mov	r3, r1
	orrs	r3, r3, r2
	.loc 1 215 18
	ldr	r2, [sp, #12]
	.loc 1 214 34
	orrs	r3, r3, r2
	.loc 1 216 18
	ldr	r2, [sp, #16]
	.loc 1 215 27
	orrs	r3, r3, r2
	.loc 1 217 18
	ldr	r2, [sp, #20]
	.loc 1 216 39
	orrs	r3, r3, r2
.LVL9:
	.loc 1 221 3 is_stmt 1
	.loc 1 221 36 is_stmt 0
	ldr	r1, [r0, #4]
	.loc 1 221 47
	ldr	r2, .L9
	ands	r2, r2, r1
	.loc 1 221 220
	orrs	r3, r3, r2
.LVL10:
	.loc 1 221 22
	str	r3, [r0, #4]
	.loc 1 223 3 is_stmt 1
	.loc 1 224 1 is_stmt 0
	movs	r0, #0
.LVL11:
	add	sp, sp, #16
	.cfi_def_cfa_offset 0
	bx	lr
.L10:
	.align	2
.L9:
	.word	-4183040
	.cfi_endproc
.LFE335:
	.size	SDMMC_Init, .-SDMMC_Init
	.section	.text.SDMMC_ReadFIFO,"ax",%progbits
	.align	1
	.global	SDMMC_ReadFIFO
	.syntax unified
	.thumb
	.thumb_func
	.type	SDMMC_ReadFIFO, %function
SDMMC_ReadFIFO:
.LFB336:
	.loc 1 252 1 is_stmt 1
	.cfi_startproc
	@ args = 0, pretend = 0, frame = 0
	@ frame_needed = 0, uses_anonymous_args = 0
	@ link register save eliminated.
.LVL12:
	.loc 1 254 3
	.loc 1 254 17 is_stmt 0
	ldr	r0, [r0, #128]
.LVL13:
	.loc 1 255 1
	bx	lr
	.cfi_endproc
.LFE336:
	.size	SDMMC_ReadFIFO, .-SDMMC_ReadFIFO
	.section	.text.SDMMC_WriteFIFO,"ax",%progbits
	.align	1
	.global	SDMMC_WriteFIFO
	.syntax unified
	.thumb
	.thumb_func
	.type	SDMMC_WriteFIFO, %function
SDMMC_WriteFIFO:
.LFB337:
	.loc 1 264 1 is_stmt 1
	.cfi_startproc
	@ args = 0, pretend = 0, frame = 0
	@ frame_needed = 0, uses_anonymous_args = 0
	@ link register save eliminated.
.LVL14:
	.loc 1 266 3
	.loc 1 266 18 is_stmt 0
	ldr	r3, [r1]
	.loc 1 266 16
	str	r3, [r0, #128]
	.loc 1 268 3 is_stmt 1
	.loc 1 269 1 is_stmt 0
	movs	r0, #0
.LVL15:
	bx	lr
	.cfi_endproc
.LFE337:
	.size	SDMMC_WriteFIFO, .-SDMMC_WriteFIFO
	.section	.text.SDMMC_PowerState_ON,"ax",%progbits
	.align	1
	.global	SDMMC_PowerState_ON
	.syntax unified
	.thumb
	.thumb_func
	.type	SDMMC_PowerState_ON, %function
SDMMC_PowerState_ON:
.LFB338:
	.loc 1 296 1 is_stmt 1
	.cfi_startproc
	@ args = 0, pretend = 0, frame = 0
	@ frame_needed = 0, uses_anonymous_args = 0
	@ link register save eliminated.
.LVL16:
	.loc 1 298 3
	.loc 1 298 9 is_stmt 0
	ldr	r3, [r0]
	.loc 1 298 17
	orr	r3, r3, #3
	str	r3, [r0]
	.loc 1 300 3 is_stmt 1
	.loc 1 301 1 is_stmt 0
	movs	r0, #0
.LVL17:
	bx	lr
	.cfi_endproc
.LFE338:
	.size	SDMMC_PowerState_ON, .-SDMMC_PowerState_ON
	.section	.text.SDMMC_PowerState_Cycle,"ax",%progbits
	.align	1
	.global	SDMMC_PowerState_Cycle
	.syntax unified
	.thumb
	.thumb_func
	.type	SDMMC_PowerState_Cycle, %function
SDMMC_PowerState_Cycle:
.LFB339:
	.loc 1 309 1 is_stmt 1
	.cfi_startproc
	@ args = 0, pretend = 0, frame = 0
	@ frame_needed = 0, uses_anonymous_args = 0
	@ link register save eliminated.
.LVL18:
	.loc 1 311 3
	.loc 1 311 9 is_stmt 0
	ldr	r3, [r0]
	.loc 1 311 17
	orr	r3, r3, #2
	str	r3, [r0]
	.loc 1 313 3 is_stmt 1
	.loc 1 314 1 is_stmt 0
	movs	r0, #0
.LVL19:
	bx	lr
	.cfi_endproc
.LFE339:
	.size	SDMMC_PowerState_Cycle, .-SDMMC_PowerState_Cycle
	.section	.text.SDMMC_PowerState_OFF,"ax",%progbits
	.align	1
	.global	SDMMC_PowerState_OFF
	.syntax unified
	.thumb
	.thumb_func
	.type	SDMMC_PowerState_OFF, %function
SDMMC_PowerState_OFF:
.LFB340:
	.loc 1 322 1 is_stmt 1
	.cfi_startproc
	@ args = 0, pretend = 0, frame = 0
	@ frame_needed = 0, uses_anonymous_args = 0
	@ link register save eliminated.
.LVL20:
	.loc 1 324 3
	.loc 1 324 9 is_stmt 0
	ldr	r3, [r0]
	.loc 1 324 17
	bic	r3, r3, #3
	str	r3, [r0]
	.loc 1 326 3 is_stmt 1
	.loc 1 327 1 is_stmt 0
	movs	r0, #0
.LVL21:
	bx	lr
	.cfi_endproc
.LFE340:
	.size	SDMMC_PowerState_OFF, .-SDMMC_PowerState_OFF
	.section	.text.SDMMC_GetPowerState,"ax",%progbits
	.align	1
	.global	SDMMC_GetPowerState
	.syntax unified
	.thumb
	.thumb_func
	.type	SDMMC_GetPowerState, %function
SDMMC_GetPowerState:
.LFB341:
	.loc 1 339 1 is_stmt 1
	.cfi_startproc
	@ args = 0, pretend = 0, frame = 0
	@ frame_needed = 0, uses_anonymous_args = 0
	@ link register save eliminated.
.LVL22:
	.loc 1 340 3
	.loc 1 340 17 is_stmt 0
	ldr	r0, [r0]
.LVL23:
	.loc 1 341 1
	and	r0, r0, #3
	bx	lr
	.cfi_endproc
.LFE341:
	.size	SDMMC_GetPowerState, .-SDMMC_GetPowerState
	.section	.text.SDMMC_SendCommand,"ax",%progbits
	.align	1
	.global	SDMMC_SendCommand
	.syntax unified
	.thumb
	.thumb_func
	.type	SDMMC_SendCommand, %function
SDMMC_SendCommand:
.LFB342:
	.loc 1 352 1 is_stmt 1
	.cfi_startproc
	@ args = 0, pretend = 0, frame = 0
	@ frame_needed = 0, uses_anonymous_args = 0
	@ link register save eliminated.
.LVL24:
	.loc 1 353 3
	.loc 1 356 3
	.loc 1 357 3
	.loc 1 358 3
	.loc 1 359 3
	.loc 1 362 3
	.loc 1 362 24 is_stmt 0
	ldr	r3, [r1]
	.loc 1 362 15
	str	r3, [r0, #8]
	.loc 1 365 3 is_stmt 1
	.loc 1 365 31 is_stmt 0
	ldr	r3, [r1, #4]
	.loc 1 366 31
	ldr	r2, [r1, #8]
	.loc 1 365 42
	orrs	r3, r3, r2
	.loc 1 367 31
	ldr	r2, [r1, #12]
	.loc 1 366 42
	orrs	r3, r3, r2
	.loc 1 368 31
	ldr	r2, [r1, #16]
	.loc 1 367 50
	orrs	r3, r3, r2
.LVL25:
	.loc 1 371 3 is_stmt 1
	.loc 1 371 34 is_stmt 0
	ldr	r1, [r0, #12]
.LVL26:
	.loc 1 371 43
	ldr	r2, .L18
	ands	r2, r2, r1
	.loc 1 371 176
	orrs	r3, r3, r2
.LVL27:
	.loc 1 371 20
	str	r3, [r0, #12]
.LVL28:
	.loc 1 373 3 is_stmt 1
	.loc 1 374 1 is_stmt 0
	movs	r0, #0
.LVL29:
	bx	lr
.L19:
	.align	2
.L18:
	.word	-73536
	.cfi_endproc
.LFE342:
	.size	SDMMC_SendCommand, .-SDMMC_SendCommand
	.section	.text.SDMMC_GetCommandResponse,"ax",%progbits
	.align	1
	.global	SDMMC_GetCommandResponse
	.syntax unified
	.thumb
	.thumb_func
	.type	SDMMC_GetCommandResponse, %function
SDMMC_GetCommandResponse:
.LFB343:
	.loc 1 382 1 is_stmt 1
	.cfi_startproc
	@ args = 0, pretend = 0, frame = 0
	@ frame_needed = 0, uses_anonymous_args = 0
	@ link register save eliminated.
.LVL30:
	.loc 1 383 3
	.loc 1 383 26 is_stmt 0
	ldr	r0, [r0, #16]
.LVL31:
	.loc 1 384 1
	uxtb	r0, r0
	bx	lr
	.cfi_endproc
.LFE343:
	.size	SDMMC_GetCommandResponse, .-SDMMC_GetCommandResponse
	.section	.text.SDMMC_GetResponse,"ax",%progbits
	.align	1
	.global	SDMMC_GetResponse
	.syntax unified
	.thumb
	.thumb_func
	.type	SDMMC_GetResponse, %function
SDMMC_GetResponse:
.LFB344:
	.loc 1 399 1 is_stmt 1
	.cfi_startproc
	@ args = 0, pretend = 0, frame = 0
	@ frame_needed = 0, uses_anonymous_args = 0
	@ link register save eliminated.
.LVL32:
	.loc 1 400 3
	.loc 1 403 3
	.loc 1 406 3
	.loc 1 406 20 is_stmt 0
	adds	r0, r0, #20
.LVL33:
	.loc 1 408 3 is_stmt 1
	.loc 1 408 11 is_stmt 0
	ldr	r0, [r0, r1]
.LVL34:
	.loc 1 409 1
	bx	lr
	.cfi_endproc
.LFE344:
	.size	SDMMC_GetResponse, .-SDMMC_GetResponse
	.section	.text.SDMMC_ConfigData,"ax",%progbits
	.align	1
	.global	SDMMC_ConfigData
	.syntax unified
	.thumb
	.thumb_func
	.type	SDMMC_ConfigData, %function
SDMMC_ConfigData:
.LFB345:
	.loc 1 420 1 is_stmt 1
	.cfi_startproc
	@ args = 0, pretend = 0, frame = 0
	@ frame_needed = 0, uses_anonymous_args = 0
	@ link register save eliminated.
.LVL35:
	.loc 1 421 3
	.loc 1 424 3
	.loc 1 425 3
	.loc 1 426 3
	.loc 1 427 3
	.loc 1 428 3
	.loc 1 431 3
	.loc 1 431 24 is_stmt 0
	ldr	r3, [r1]
	.loc 1 431 18
	str	r3, [r0, #36]
	.loc 1 434 3 is_stmt 1
	.loc 1 434 22 is_stmt 0
	ldr	r3, [r1, #4]
	.loc 1 434 16
	str	r3, [r0, #40]
	.loc 1 437 3 is_stmt 1
	.loc 1 437 28 is_stmt 0
	ldr	r3, [r1, #8]
	.loc 1 438 28
	ldr	r2, [r1, #12]
	.loc 1 437 44
	orrs	r3, r3, r2
	.loc 1 439 28
	ldr	r2, [r1, #16]
	.loc 1 438 42
	orrs	r3, r3, r2
	.loc 1 440 28
	ldr	r2, [r1, #20]
	.loc 1 439 43
	orrs	r3, r3, r2
.LVL36:
	.loc 1 443 3 is_stmt 1
	.loc 1 443 36 is_stmt 0
	ldr	r2, [r0, #44]
	.loc 1 443 47
	bic	r2, r2, #255
	.loc 1 443 139
	orrs	r3, r3, r2
.LVL37:
	.loc 1 443 22
	str	r3, [r0, #44]
.LVL38:
	.loc 1 445 3 is_stmt 1
	.loc 1 447 1 is_stmt 0
	movs	r0, #0
.LVL39:
	bx	lr
	.cfi_endproc
.LFE345:
	.size	SDMMC_ConfigData, .-SDMMC_ConfigData
	.section	.text.SDMMC_GetDataCounter,"ax",%progbits
	.align	1
	.global	SDMMC_GetDataCounter
	.syntax unified
	.thumb
	.thumb_func
	.type	SDMMC_GetDataCounter, %function
SDMMC_GetDataCounter:
.LFB346:
	.loc 1 455 1 is_stmt 1
	.cfi_startproc
	@ args = 0, pretend = 0, frame = 0
	@ frame_needed = 0, uses_anonymous_args = 0
	@ link register save eliminated.
.LVL40:
	.loc 1 456 3
	.loc 1 456 17 is_stmt 0
	ldr	r0, [r0, #48]
.LVL41:
	.loc 1 457 1
	bx	lr
	.cfi_endproc
.LFE346:
	.size	SDMMC_GetDataCounter, .-SDMMC_GetDataCounter
	.section	.text.SDMMC_GetFIFOCount,"ax",%progbits
	.align	1
	.global	SDMMC_GetFIFOCount
	.syntax unified
	.thumb
	.thumb_func
	.type	SDMMC_GetFIFOCount, %function
SDMMC_GetFIFOCount:
.LFB347:
	.loc 1 465 1 is_stmt 1
	.cfi_startproc
	@ args = 0, pretend = 0, frame = 0
	@ frame_needed = 0, uses_anonymous_args = 0
	@ link register save eliminated.
.LVL42:
	.loc 1 466 3
	.loc 1 466 17 is_stmt 0
	ldr	r0, [r0, #128]
.LVL43:
	.loc 1 467 1
	bx	lr
	.cfi_endproc
.LFE347:
	.size	SDMMC_GetFIFOCount, .-SDMMC_GetFIFOCount
	.section	.text.SDMMC_SetSDMMCReadWaitMode,"ax",%progbits
	.align	1
	.global	SDMMC_SetSDMMCReadWaitMode
	.syntax unified
	.thumb
	.thumb_func
	.type	SDMMC_SetSDMMCReadWaitMode, %function
SDMMC_SetSDMMCReadWaitMode:
.LFB348:
	.loc 1 479 1 is_stmt 1
	.cfi_startproc
	@ args = 0, pretend = 0, frame = 0
	@ frame_needed = 0, uses_anonymous_args = 0
	@ link register save eliminated.
.LVL44:
	.loc 1 481 3
	.loc 1 484 3
	.loc 1 484 36 is_stmt 0
	ldr	r3, [r0, #44]
	.loc 1 484 47
	bic	r3, r3, #1024
	.loc 1 484 72
	orrs	r3, r3, r1
	.loc 1 484 22
	str	r3, [r0, #44]
	.loc 1 486 3 is_stmt 1
	.loc 1 487 1 is_stmt 0
	movs	r0, #0
.LVL45:
	bx	lr
	.cfi_endproc
.LFE348:
	.size	SDMMC_SetSDMMCReadWaitMode, .-SDMMC_SetSDMMCReadWaitMode
	.section	.text.SDMMC_CmdGoIdleState,"ax",%progbits
	.align	1
	.global	SDMMC_CmdGoIdleState
	.syntax unified
	.thumb
	.thumb_func
	.type	SDMMC_CmdGoIdleState, %function
SDMMC_CmdGoIdleState:
.LFB361:
	.loc 1 816 1 is_stmt 1
	.cfi_startproc
	@ args = 0, pretend = 0, frame = 24
	@ frame_needed = 0, uses_anonymous_args = 0
.LVL46:
	push	{r4, lr}
	.cfi_def_cfa_offset 8
	.cfi_offset 4, -8
	.cfi_offset 14, -4
	sub	sp, sp, #24
	.cfi_def_cfa_offset 32
	mov	r4, r0
	.loc 1 817 3
	.loc 1 818 3
	.loc 1 820 3
	.loc 1 820 26 is_stmt 0
	movs	r3, #0
	str	r3, [sp, #4]
	.loc 1 821 3 is_stmt 1
	.loc 1 821 26 is_stmt 0
	str	r3, [sp, #8]
	.loc 1 822 3 is_stmt 1
	.loc 1 822 26 is_stmt 0
	str	r3, [sp, #12]
	.loc 1 823 3 is_stmt 1
	.loc 1 823 34 is_stmt 0
	str	r3, [sp, #16]
	.loc 1 824 3 is_stmt 1
	.loc 1 824 22 is_stmt 0
	mov	r3, #4096
	str	r3, [sp, #20]
	.loc 1 825 3 is_stmt 1
	.loc 1 825 9 is_stmt 0
	add	r1, sp, #4
	bl	SDMMC_SendCommand
.LVL47:
	.loc 1 828 3 is_stmt 1
	.loc 1 828 16 is_stmt 0
	mov	r0, r4
	bl	SDMMC_GetCmdError
.LVL48:
	.loc 1 830 3 is_stmt 1
	.loc 1 831 1 is_stmt 0
	add	sp, sp, #24
	.cfi_def_cfa_offset 8
	@ sp needed
	pop	{r4, pc}
	.cfi_endproc
.LFE361:
	.size	SDMMC_CmdGoIdleState, .-SDMMC_CmdGoIdleState
	.section	.text.SDMMC_GetCmdResp1,"ax",%progbits
	.align	1
	.global	SDMMC_GetCmdResp1
	.syntax unified
	.thumb
	.thumb_func
	.type	SDMMC_GetCmdResp1, %function
SDMMC_GetCmdResp1:
.LFB378:
	.loc 1 1259 1 is_stmt 1
	.cfi_startproc
	@ args = 0, pretend = 0, frame = 0
	@ frame_needed = 0, uses_anonymous_args = 0
.LVL49:
	push	{r4, r5, r6, lr}
	.cfi_def_cfa_offset 16
	.cfi_offset 4, -16
	.cfi_offset 5, -12
	.cfi_offset 6, -8
	.cfi_offset 14, -4
	mov	r5, r0
	mov	r6, r1
	.loc 1 1260 3
	.loc 1 1261 3
	.loc 1 1265 3
	.loc 1 1265 52 is_stmt 0
	ldr	r3, .L56
	ldr	r3, [r3]
	ldr	r1, .L56+4
.LVL50:
	umull	r1, r3, r1, r3
	lsrs	r3, r3, #9
	.loc 1 1265 12
	mul	r2, r3, r2
.LVL51:
.L30:
	.loc 1 1267 3 is_stmt 1
	.loc 1 1269 5
	mov	r3, r2
	.loc 1 1269 14 is_stmt 0
	subs	r2, r2, #1
.LVL52:
	.loc 1 1269 8
	cmp	r3, #0
	beq	.L33
	.loc 1 1273 5 is_stmt 1
	.loc 1 1273 13 is_stmt 0
	ldr	r4, [r5, #52]
.LVL53:
	.loc 1 1275 51 is_stmt 1
	.loc 1 1274 22 is_stmt 0
	ldr	r3, .L56+8
	ands	r3, r3, r4
	.loc 1 1275 51
	cmp	r3, #0
	beq	.L30
	.loc 1 1275 51 discriminator 1
	tst	r4, #8192
	bne	.L30
	.loc 1 1277 3 is_stmt 1
	.loc 1 1277 17 is_stmt 0
	ldr	r3, [r5, #52]
	.loc 1 1277 6
	tst	r3, #4
	bne	.L54
	.loc 1 1283 8 is_stmt 1
	.loc 1 1283 22 is_stmt 0
	ldr	r3, [r5, #52]
	.loc 1 1283 11
	tst	r3, #1
	beq	.L32
	.loc 1 1285 5 is_stmt 1
	.loc 1 1285 20 is_stmt 0
	movs	r0, #1
.LVL54:
	str	r0, [r5, #56]
	.loc 1 1287 5 is_stmt 1
	.loc 1 1287 12 is_stmt 0
	b	.L28
.LVL55:
.L54:
	.loc 1 1279 5 is_stmt 1
	.loc 1 1279 20 is_stmt 0
	movs	r0, #4
.LVL56:
	str	r0, [r5, #56]
	.loc 1 1281 5 is_stmt 1
	.loc 1 1281 12 is_stmt 0
	b	.L28
.LVL57:
.L32:
	.loc 1 1292 3 is_stmt 1
	.loc 1 1295 3
	.loc 1 1295 18 is_stmt 0
	ldr	r3, .L56+12
	str	r3, [r5, #56]
	.loc 1 1298 3 is_stmt 1
	.loc 1 1298 7 is_stmt 0
	mov	r0, r5
.LVL58:
	bl	SDMMC_GetCommandResponse
.LVL59:
	.loc 1 1298 6
	cmp	r0, r6
	beq	.L55
	.loc 1 1300 12
	movs	r0, #1
	b	.L28
.L55:
	.loc 1 1304 3 is_stmt 1
	.loc 1 1304 17 is_stmt 0
	movs	r1, #0
	mov	r0, r5
	bl	SDMMC_GetResponse
.LVL60:
	mov	r3, r0
.LVL61:
	.loc 1 1306 3 is_stmt 1
	.loc 1 1306 20 is_stmt 0
	ldr	r0, .L56+16
.LVL62:
	ands	r0, r0, r3
	.loc 1 1306 6
	cbz	r0, .L28
	.loc 1 1310 8 is_stmt 1
	.loc 1 1310 11 is_stmt 0
	cmp	r3, #0
	blt	.L35
	.loc 1 1314 8 is_stmt 1
	.loc 1 1314 11 is_stmt 0
	tst	r3, #1073741824
	bne	.L36
	.loc 1 1318 8 is_stmt 1
	.loc 1 1318 11 is_stmt 0
	tst	r3, #536870912
	bne	.L37
	.loc 1 1322 8 is_stmt 1
	.loc 1 1322 11 is_stmt 0
	tst	r3, #268435456
	bne	.L38
	.loc 1 1326 8 is_stmt 1
	.loc 1 1326 11 is_stmt 0
	tst	r3, #134217728
	bne	.L39
	.loc 1 1330 8 is_stmt 1
	.loc 1 1330 11 is_stmt 0
	tst	r3, #67108864
	bne	.L40
	.loc 1 1334 8 is_stmt 1
	.loc 1 1334 11 is_stmt 0
	tst	r3, #16777216
	bne	.L41
	.loc 1 1338 8 is_stmt 1
	.loc 1 1338 11 is_stmt 0
	tst	r3, #8388608
	bne	.L42
	.loc 1 1342 8 is_stmt 1
	.loc 1 1342 11 is_stmt 0
	tst	r3, #4194304
	bne	.L43
	.loc 1 1346 8 is_stmt 1
	.loc 1 1346 11 is_stmt 0
	tst	r3, #2097152
	bne	.L44
	.loc 1 1350 8 is_stmt 1
	.loc 1 1350 11 is_stmt 0
	tst	r3, #1048576
	bne	.L45
	.loc 1 1354 8 is_stmt 1
	.loc 1 1354 11 is_stmt 0
	tst	r3, #262144
	bne	.L46
	.loc 1 1358 8 is_stmt 1
	.loc 1 1358 11 is_stmt 0
	tst	r3, #131072
	bne	.L47
	.loc 1 1362 8 is_stmt 1
	.loc 1 1362 11 is_stmt 0
	tst	r3, #65536
	bne	.L48
	.loc 1 1366 8 is_stmt 1
	.loc 1 1366 11 is_stmt 0
	tst	r3, #32768
	bne	.L49
	.loc 1 1370 8 is_stmt 1
	.loc 1 1370 11 is_stmt 0
	tst	r3, #16384
	bne	.L50
	.loc 1 1374 8 is_stmt 1
	.loc 1 1374 11 is_stmt 0
	tst	r3, #8192
	bne	.L51
	.loc 1 1378 8 is_stmt 1
	.loc 1 1378 11 is_stmt 0
	tst	r3, #8
	beq	.L52
	.loc 1 1380 12
	mov	r0, #8388608
	b	.L28
.LVL63:
.L33:
	.loc 1 1271 14
	mov	r0, #-2147483648
.LVL64:
.L28:
	.loc 1 1386 1
	pop	{r4, r5, r6, pc}
.LVL65:
.L35:
	.loc 1 1312 12
	mov	r0, #33554432
	b	.L28
.L36:
	.loc 1 1316 12
	movs	r0, #64
	b	.L28
.L37:
	.loc 1 1320 12
	movs	r0, #128
	b	.L28
.L38:
	.loc 1 1324 12
	mov	r0, #256
	b	.L28
.L39:
	.loc 1 1328 12
	mov	r0, #512
	b	.L28
.L40:
	.loc 1 1332 12
	mov	r0, #1024
	b	.L28
.L41:
	.loc 1 1336 12
	mov	r0, #2048
	b	.L28
.L42:
	.loc 1 1340 12
	mov	r0, #4096
	b	.L28
.L43:
	.loc 1 1344 12
	mov	r0, #8192
	b	.L28
.L44:
	.loc 1 1348 12
	mov	r0, #16384
	b	.L28
.L45:
	.loc 1 1352 12
	mov	r0, #32768
	b	.L28
.L46:
	.loc 1 1356 12
	mov	r0, #131072
	b	.L28
.L47:
	.loc 1 1360 12
	mov	r0, #262144
	b	.L28
.L48:
	.loc 1 1364 12
	mov	r0, #524288
	b	.L28
.L49:
	.loc 1 1368 12
	mov	r0, #1048576
	b	.L28
.L50:
	.loc 1 1372 12
	mov	r0, #2097152
	b	.L28
.L51:
	.loc 1 1376 12
	mov	r0, #4194304
	b	.L28
.L52:
	.loc 1 1384 12
	mov	r0, #65536
	b	.L28
.L57:
	.align	2
.L56:
	.word	SystemCoreClock
	.word	274877907
	.word	2097221
	.word	2097349
	.word	-33562616
	.cfi_endproc
.LFE378:
	.size	SDMMC_GetCmdResp1, .-SDMMC_GetCmdResp1
	.section	.text.SDMMC_CmdBlockLength,"ax",%progbits
	.align	1
	.global	SDMMC_CmdBlockLength
	.syntax unified
	.thumb
	.thumb_func
	.type	SDMMC_CmdBlockLength, %function
SDMMC_CmdBlockLength:
.LFB349:
	.loc 1 514 1 is_stmt 1
	.cfi_startproc
	@ args = 0, pretend = 0, frame = 24
	@ frame_needed = 0, uses_anonymous_args = 0
.LVL66:
	push	{r4, r5, lr}
	.cfi_def_cfa_offset 12
	.cfi_offset 4, -12
	.cfi_offset 5, -8
	.cfi_offset 14, -4
	sub	sp, sp, #28
	.cfi_def_cfa_offset 40
	mov	r4, r0
	.loc 1 515 3
	.loc 1 516 3
	.loc 1 519 3
	.loc 1 519 26 is_stmt 0
	str	r1, [sp, #4]
	.loc 1 520 3 is_stmt 1
	.loc 1 520 26 is_stmt 0
	movs	r5, #16
	str	r5, [sp, #8]
	.loc 1 521 3 is_stmt 1
	.loc 1 521 26 is_stmt 0
	mov	r3, #256
	str	r3, [sp, #12]
	.loc 1 522 3 is_stmt 1
	.loc 1 522 34 is_stmt 0
	movs	r3, #0
	str	r3, [sp, #16]
	.loc 1 523 3 is_stmt 1
	.loc 1 523 22 is_stmt 0
	mov	r3, #4096
	str	r3, [sp, #20]
	.loc 1 524 3 is_stmt 1
	.loc 1 524 9 is_stmt 0
	add	r1, sp, #4
.LVL67:
	bl	SDMMC_SendCommand
.LVL68:
	.loc 1 527 3 is_stmt 1
	.loc 1 527 16 is_stmt 0
	movw	r2, #5000
	mov	r1, r5
	mov	r0, r4
	bl	SDMMC_GetCmdResp1
.LVL69:
	.loc 1 529 3 is_stmt 1
	.loc 1 530 1 is_stmt 0
	add	sp, sp, #28
	.cfi_def_cfa_offset 12
	@ sp needed
	pop	{r4, r5, pc}
	.cfi_endproc
.LFE349:
	.size	SDMMC_CmdBlockLength, .-SDMMC_CmdBlockLength
	.section	.text.SDMMC_CmdReadSingleBlock,"ax",%progbits
	.align	1
	.global	SDMMC_CmdReadSingleBlock
	.syntax unified
	.thumb
	.thumb_func
	.type	SDMMC_CmdReadSingleBlock, %function
SDMMC_CmdReadSingleBlock:
.LFB350:
	.loc 1 538 1 is_stmt 1
	.cfi_startproc
	@ args = 0, pretend = 0, frame = 24
	@ frame_needed = 0, uses_anonymous_args = 0
.LVL70:
	push	{r4, r5, lr}
	.cfi_def_cfa_offset 12
	.cfi_offset 4, -12
	.cfi_offset 5, -8
	.cfi_offset 14, -4
	sub	sp, sp, #28
	.cfi_def_cfa_offset 40
	mov	r4, r0
	.loc 1 539 3
	.loc 1 540 3
	.loc 1 543 3
	.loc 1 543 26 is_stmt 0
	str	r1, [sp, #4]
	.loc 1 544 3 is_stmt 1
	.loc 1 544 26 is_stmt 0
	movs	r5, #17
	str	r5, [sp, #8]
	.loc 1 545 3 is_stmt 1
	.loc 1 545 26 is_stmt 0
	mov	r3, #256
	str	r3, [sp, #12]
	.loc 1 546 3 is_stmt 1
	.loc 1 546 34 is_stmt 0
	movs	r3, #0
	str	r3, [sp, #16]
	.loc 1 547 3 is_stmt 1
	.loc 1 547 22 is_stmt 0
	mov	r3, #4096
	str	r3, [sp, #20]
	.loc 1 548 3 is_stmt 1
	.loc 1 548 9 is_stmt 0
	add	r1, sp, #4
.LVL71:
	bl	SDMMC_SendCommand
.LVL72:
	.loc 1 551 3 is_stmt 1
	.loc 1 551 16 is_stmt 0
	movw	r2, #5000
	mov	r1, r5
	mov	r0, r4
	bl	SDMMC_GetCmdResp1
.LVL73:
	.loc 1 553 3 is_stmt 1
	.loc 1 554 1 is_stmt 0
	add	sp, sp, #28
	.cfi_def_cfa_offset 12
	@ sp needed
	pop	{r4, r5, pc}
	.cfi_endproc
.LFE350:
	.size	SDMMC_CmdReadSingleBlock, .-SDMMC_CmdReadSingleBlock
	.section	.text.SDMMC_CmdReadMultiBlock,"ax",%progbits
	.align	1
	.global	SDMMC_CmdReadMultiBlock
	.syntax unified
	.thumb
	.thumb_func
	.type	SDMMC_CmdReadMultiBlock, %function
SDMMC_CmdReadMultiBlock:
.LFB351:
	.loc 1 562 1 is_stmt 1
	.cfi_startproc
	@ args = 0, pretend = 0, frame = 24
	@ frame_needed = 0, uses_anonymous_args = 0
.LVL74:
	push	{r4, r5, lr}
	.cfi_def_cfa_offset 12
	.cfi_offset 4, -12
	.cfi_offset 5, -8
	.cfi_offset 14, -4
	sub	sp, sp, #28
	.cfi_def_cfa_offset 40
	mov	r4, r0
	.loc 1 563 3
	.loc 1 564 3
	.loc 1 567 3
	.loc 1 567 26 is_stmt 0
	str	r1, [sp, #4]
	.loc 1 568 3 is_stmt 1
	.loc 1 568 26 is_stmt 0
	movs	r5, #18
	str	r5, [sp, #8]
	.loc 1 569 3 is_stmt 1
	.loc 1 569 26 is_stmt 0
	mov	r3, #256
	str	r3, [sp, #12]
	.loc 1 570 3 is_stmt 1
	.loc 1 570 34 is_stmt 0
	movs	r3, #0
	str	r3, [sp, #16]
	.loc 1 571 3 is_stmt 1
	.loc 1 571 22 is_stmt 0
	mov	r3, #4096
	str	r3, [sp, #20]
	.loc 1 572 3 is_stmt 1
	.loc 1 572 9 is_stmt 0
	add	r1, sp, #4
.LVL75:
	bl	SDMMC_SendCommand
.LVL76:
	.loc 1 575 3 is_stmt 1
	.loc 1 575 16 is_stmt 0
	movw	r2, #5000
	mov	r1, r5
	mov	r0, r4
	bl	SDMMC_GetCmdResp1
.LVL77:
	.loc 1 577 3 is_stmt 1
	.loc 1 578 1 is_stmt 0
	add	sp, sp, #28
	.cfi_def_cfa_offset 12
	@ sp needed
	pop	{r4, r5, pc}
	.cfi_endproc
.LFE351:
	.size	SDMMC_CmdReadMultiBlock, .-SDMMC_CmdReadMultiBlock
	.section	.text.SDMMC_CmdWriteSingleBlock,"ax",%progbits
	.align	1
	.global	SDMMC_CmdWriteSingleBlock
	.syntax unified
	.thumb
	.thumb_func
	.type	SDMMC_CmdWriteSingleBlock, %function
SDMMC_CmdWriteSingleBlock:
.LFB352:
	.loc 1 586 1 is_stmt 1
	.cfi_startproc
	@ args = 0, pretend = 0, frame = 24
	@ frame_needed = 0, uses_anonymous_args = 0
.LVL78:
	push	{r4, r5, lr}
	.cfi_def_cfa_offset 12
	.cfi_offset 4, -12
	.cfi_offset 5, -8
	.cfi_offset 14, -4
	sub	sp, sp, #28
	.cfi_def_cfa_offset 40
	mov	r4, r0
	.loc 1 587 3
	.loc 1 588 3
	.loc 1 591 3
	.loc 1 591 26 is_stmt 0
	str	r1, [sp, #4]
	.loc 1 592 3 is_stmt 1
	.loc 1 592 26 is_stmt 0
	movs	r5, #24
	str	r5, [sp, #8]
	.loc 1 593 3 is_stmt 1
	.loc 1 593 26 is_stmt 0
	mov	r3, #256
	str	r3, [sp, #12]
	.loc 1 594 3 is_stmt 1
	.loc 1 594 34 is_stmt 0
	movs	r3, #0
	str	r3, [sp, #16]
	.loc 1 595 3 is_stmt 1
	.loc 1 595 22 is_stmt 0
	mov	r3, #4096
	str	r3, [sp, #20]
	.loc 1 596 3 is_stmt 1
	.loc 1 596 9 is_stmt 0
	add	r1, sp, #4
.LVL79:
	bl	SDMMC_SendCommand
.LVL80:
	.loc 1 599 3 is_stmt 1
	.loc 1 599 16 is_stmt 0
	movw	r2, #5000
	mov	r1, r5
	mov	r0, r4
	bl	SDMMC_GetCmdResp1
.LVL81:
	.loc 1 601 3 is_stmt 1
	.loc 1 602 1 is_stmt 0
	add	sp, sp, #28
	.cfi_def_cfa_offset 12
	@ sp needed
	pop	{r4, r5, pc}
	.cfi_endproc
.LFE352:
	.size	SDMMC_CmdWriteSingleBlock, .-SDMMC_CmdWriteSingleBlock
	.section	.text.SDMMC_CmdWriteMultiBlock,"ax",%progbits
	.align	1
	.global	SDMMC_CmdWriteMultiBlock
	.syntax unified
	.thumb
	.thumb_func
	.type	SDMMC_CmdWriteMultiBlock, %function
SDMMC_CmdWriteMultiBlock:
.LFB353:
	.loc 1 610 1 is_stmt 1
	.cfi_startproc
	@ args = 0, pretend = 0, frame = 24
	@ frame_needed = 0, uses_anonymous_args = 0
.LVL82:
	push	{r4, r5, lr}
	.cfi_def_cfa_offset 12
	.cfi_offset 4, -12
	.cfi_offset 5, -8
	.cfi_offset 14, -4
	sub	sp, sp, #28
	.cfi_def_cfa_offset 40
	mov	r4, r0
	.loc 1 611 3
	.loc 1 612 3
	.loc 1 615 3
	.loc 1 615 26 is_stmt 0
	str	r1, [sp, #4]
	.loc 1 616 3 is_stmt 1
	.loc 1 616 26 is_stmt 0
	movs	r5, #25
	str	r5, [sp, #8]
	.loc 1 617 3 is_stmt 1
	.loc 1 617 26 is_stmt 0
	mov	r3, #256
	str	r3, [sp, #12]
	.loc 1 618 3 is_stmt 1
	.loc 1 618 34 is_stmt 0
	movs	r3, #0
	str	r3, [sp, #16]
	.loc 1 619 3 is_stmt 1
	.loc 1 619 22 is_stmt 0
	mov	r3, #4096
	str	r3, [sp, #20]
	.loc 1 620 3 is_stmt 1
	.loc 1 620 9 is_stmt 0
	add	r1, sp, #4
.LVL83:
	bl	SDMMC_SendCommand
.LVL84:
	.loc 1 623 3 is_stmt 1
	.loc 1 623 16 is_stmt 0
	movw	r2, #5000
	mov	r1, r5
	mov	r0, r4
	bl	SDMMC_GetCmdResp1
.LVL85:
	.loc 1 625 3 is_stmt 1
	.loc 1 626 1 is_stmt 0
	add	sp, sp, #28
	.cfi_def_cfa_offset 12
	@ sp needed
	pop	{r4, r5, pc}
	.cfi_endproc
.LFE353:
	.size	SDMMC_CmdWriteMultiBlock, .-SDMMC_CmdWriteMultiBlock
	.section	.text.SDMMC_CmdSDEraseStartAdd,"ax",%progbits
	.align	1
	.global	SDMMC_CmdSDEraseStartAdd
	.syntax unified
	.thumb
	.thumb_func
	.type	SDMMC_CmdSDEraseStartAdd, %function
SDMMC_CmdSDEraseStartAdd:
.LFB354:
	.loc 1 634 1 is_stmt 1
	.cfi_startproc
	@ args = 0, pretend = 0, frame = 24
	@ frame_needed = 0, uses_anonymous_args = 0
.LVL86:
	push	{r4, r5, lr}
	.cfi_def_cfa_offset 12
	.cfi_offset 4, -12
	.cfi_offset 5, -8
	.cfi_offset 14, -4
	sub	sp, sp, #28
	.cfi_def_cfa_offset 40
	mov	r4, r0
	.loc 1 635 3
	.loc 1 636 3
	.loc 1 639 3
	.loc 1 639 26 is_stmt 0
	str	r1, [sp, #4]
	.loc 1 640 3 is_stmt 1
	.loc 1 640 26 is_stmt 0
	movs	r5, #32
	str	r5, [sp, #8]
	.loc 1 641 3 is_stmt 1
	.loc 1 641 26 is_stmt 0
	mov	r3, #256
	str	r3, [sp, #12]
	.loc 1 642 3 is_stmt 1
	.loc 1 642 34 is_stmt 0
	movs	r3, #0
	str	r3, [sp, #16]
	.loc 1 643 3 is_stmt 1
	.loc 1 643 22 is_stmt 0
	mov	r3, #4096
	str	r3, [sp, #20]
	.loc 1 644 3 is_stmt 1
	.loc 1 644 9 is_stmt 0
	add	r1, sp, #4
.LVL87:
	bl	SDMMC_SendCommand
.LVL88:
	.loc 1 647 3 is_stmt 1
	.loc 1 647 16 is_stmt 0
	movw	r2, #5000
	mov	r1, r5
	mov	r0, r4
	bl	SDMMC_GetCmdResp1
.LVL89:
	.loc 1 649 3 is_stmt 1
	.loc 1 650 1 is_stmt 0
	add	sp, sp, #28
	.cfi_def_cfa_offset 12
	@ sp needed
	pop	{r4, r5, pc}
	.cfi_endproc
.LFE354:
	.size	SDMMC_CmdSDEraseStartAdd, .-SDMMC_CmdSDEraseStartAdd
	.section	.text.SDMMC_CmdSDEraseEndAdd,"ax",%progbits
	.align	1
	.global	SDMMC_CmdSDEraseEndAdd
	.syntax unified
	.thumb
	.thumb_func
	.type	SDMMC_CmdSDEraseEndAdd, %function
SDMMC_CmdSDEraseEndAdd:
.LFB355:
	.loc 1 658 1 is_stmt 1
	.cfi_startproc
	@ args = 0, pretend = 0, frame = 24
	@ frame_needed = 0, uses_anonymous_args = 0
.LVL90:
	push	{r4, r5, lr}
	.cfi_def_cfa_offset 12
	.cfi_offset 4, -12
	.cfi_offset 5, -8
	.cfi_offset 14, -4
	sub	sp, sp, #28
	.cfi_def_cfa_offset 40
	mov	r4, r0
	.loc 1 659 3
	.loc 1 660 3
	.loc 1 663 3
	.loc 1 663 26 is_stmt 0
	str	r1, [sp, #4]
	.loc 1 664 3 is_stmt 1
	.loc 1 664 26 is_stmt 0
	movs	r5, #33
	str	r5, [sp, #8]
	.loc 1 665 3 is_stmt 1
	.loc 1 665 26 is_stmt 0
	mov	r3, #256
	str	r3, [sp, #12]
	.loc 1 666 3 is_stmt 1
	.loc 1 666 34 is_stmt 0
	movs	r3, #0
	str	r3, [sp, #16]
	.loc 1 667 3 is_stmt 1
	.loc 1 667 22 is_stmt 0
	mov	r3, #4096
	str	r3, [sp, #20]
	.loc 1 668 3 is_stmt 1
	.loc 1 668 9 is_stmt 0
	add	r1, sp, #4
.LVL91:
	bl	SDMMC_SendCommand
.LVL92:
	.loc 1 671 3 is_stmt 1
	.loc 1 671 16 is_stmt 0
	movw	r2, #5000
	mov	r1, r5
	mov	r0, r4
	bl	SDMMC_GetCmdResp1
.LVL93:
	.loc 1 673 3 is_stmt 1
	.loc 1 674 1 is_stmt 0
	add	sp, sp, #28
	.cfi_def_cfa_offset 12
	@ sp needed
	pop	{r4, r5, pc}
	.cfi_endproc
.LFE355:
	.size	SDMMC_CmdSDEraseEndAdd, .-SDMMC_CmdSDEraseEndAdd
	.section	.text.SDMMC_CmdEraseStartAdd,"ax",%progbits
	.align	1
	.global	SDMMC_CmdEraseStartAdd
	.syntax unified
	.thumb
	.thumb_func
	.type	SDMMC_CmdEraseStartAdd, %function
SDMMC_CmdEraseStartAdd:
.LFB356:
	.loc 1 682 1 is_stmt 1
	.cfi_startproc
	@ args = 0, pretend = 0, frame = 24
	@ frame_needed = 0, uses_anonymous_args = 0
.LVL94:
	push	{r4, r5, lr}
	.cfi_def_cfa_offset 12
	.cfi_offset 4, -12
	.cfi_offset 5, -8
	.cfi_offset 14, -4
	sub	sp, sp, #28
	.cfi_def_cfa_offset 40
	mov	r4, r0
	.loc 1 683 3
	.loc 1 684 3
	.loc 1 687 3
	.loc 1 687 26 is_stmt 0
	str	r1, [sp, #4]
	.loc 1 688 3 is_stmt 1
	.loc 1 688 26 is_stmt 0
	movs	r5, #35
	str	r5, [sp, #8]
	.loc 1 689 3 is_stmt 1
	.loc 1 689 26 is_stmt 0
	mov	r3, #256
	str	r3, [sp, #12]
	.loc 1 690 3 is_stmt 1
	.loc 1 690 34 is_stmt 0
	movs	r3, #0
	str	r3, [sp, #16]
	.loc 1 691 3 is_stmt 1
	.loc 1 691 22 is_stmt 0
	mov	r3, #4096
	str	r3, [sp, #20]
	.loc 1 692 3 is_stmt 1
	.loc 1 692 9 is_stmt 0
	add	r1, sp, #4
.LVL95:
	bl	SDMMC_SendCommand
.LVL96:
	.loc 1 695 3 is_stmt 1
	.loc 1 695 16 is_stmt 0
	movw	r2, #5000
	mov	r1, r5
	mov	r0, r4
	bl	SDMMC_GetCmdResp1
.LVL97:
	.loc 1 697 3 is_stmt 1
	.loc 1 698 1 is_stmt 0
	add	sp, sp, #28
	.cfi_def_cfa_offset 12
	@ sp needed
	pop	{r4, r5, pc}
	.cfi_endproc
.LFE356:
	.size	SDMMC_CmdEraseStartAdd, .-SDMMC_CmdEraseStartAdd
	.section	.text.SDMMC_CmdEraseEndAdd,"ax",%progbits
	.align	1
	.global	SDMMC_CmdEraseEndAdd
	.syntax unified
	.thumb
	.thumb_func
	.type	SDMMC_CmdEraseEndAdd, %function
SDMMC_CmdEraseEndAdd:
.LFB357:
	.loc 1 706 1 is_stmt 1
	.cfi_startproc
	@ args = 0, pretend = 0, frame = 24
	@ frame_needed = 0, uses_anonymous_args = 0
.LVL98:
	push	{r4, r5, lr}
	.cfi_def_cfa_offset 12
	.cfi_offset 4, -12
	.cfi_offset 5, -8
	.cfi_offset 14, -4
	sub	sp, sp, #28
	.cfi_def_cfa_offset 40
	mov	r4, r0
	.loc 1 707 3
	.loc 1 708 3
	.loc 1 711 3
	.loc 1 711 26 is_stmt 0
	str	r1, [sp, #4]
	.loc 1 712 3 is_stmt 1
	.loc 1 712 26 is_stmt 0
	movs	r5, #36
	str	r5, [sp, #8]
	.loc 1 713 3 is_stmt 1
	.loc 1 713 26 is_stmt 0
	mov	r3, #256
	str	r3, [sp, #12]
	.loc 1 714 3 is_stmt 1
	.loc 1 714 34 is_stmt 0
	movs	r3, #0
	str	r3, [sp, #16]
	.loc 1 715 3 is_stmt 1
	.loc 1 715 22 is_stmt 0
	mov	r3, #4096
	str	r3, [sp, #20]
	.loc 1 716 3 is_stmt 1
	.loc 1 716 9 is_stmt 0
	add	r1, sp, #4
.LVL99:
	bl	SDMMC_SendCommand
.LVL100:
	.loc 1 719 3 is_stmt 1
	.loc 1 719 16 is_stmt 0
	movw	r2, #5000
	mov	r1, r5
	mov	r0, r4
	bl	SDMMC_GetCmdResp1
.LVL101:
	.loc 1 721 3 is_stmt 1
	.loc 1 722 1 is_stmt 0
	add	sp, sp, #28
	.cfi_def_cfa_offset 12
	@ sp needed
	pop	{r4, r5, pc}
	.cfi_endproc
.LFE357:
	.size	SDMMC_CmdEraseEndAdd, .-SDMMC_CmdEraseEndAdd
	.section	.text.SDMMC_CmdErase,"ax",%progbits
	.align	1
	.global	SDMMC_CmdErase
	.syntax unified
	.thumb
	.thumb_func
	.type	SDMMC_CmdErase, %function
SDMMC_CmdErase:
.LFB358:
	.loc 1 731 1 is_stmt 1
	.cfi_startproc
	@ args = 0, pretend = 0, frame = 24
	@ frame_needed = 0, uses_anonymous_args = 0
.LVL102:
	push	{r4, r5, lr}
	.cfi_def_cfa_offset 12
	.cfi_offset 4, -12
	.cfi_offset 5, -8
	.cfi_offset 14, -4
	sub	sp, sp, #28
	.cfi_def_cfa_offset 40
	mov	r4, r0
	.loc 1 732 3
	.loc 1 733 3
	.loc 1 736 3
	.loc 1 736 26 is_stmt 0
	str	r1, [sp, #4]
	.loc 1 737 3 is_stmt 1
	.loc 1 737 26 is_stmt 0
	movs	r5, #38
	str	r5, [sp, #8]
	.loc 1 738 3 is_stmt 1
	.loc 1 738 26 is_stmt 0
	mov	r3, #256
	str	r3, [sp, #12]
	.loc 1 739 3 is_stmt 1
	.loc 1 739 34 is_stmt 0
	movs	r3, #0
	str	r3, [sp, #16]
	.loc 1 740 3 is_stmt 1
	.loc 1 740 22 is_stmt 0
	mov	r3, #4096
	str	r3, [sp, #20]
	.loc 1 741 3 is_stmt 1
	.loc 1 741 9 is_stmt 0
	add	r1, sp, #4
.LVL103:
	bl	SDMMC_SendCommand
.LVL104:
	.loc 1 744 3 is_stmt 1
	.loc 1 744 16 is_stmt 0
	movw	r2, #63000
	mov	r1, r5
	mov	r0, r4
	bl	SDMMC_GetCmdResp1
.LVL105:
	.loc 1 746 3 is_stmt 1
	.loc 1 747 1 is_stmt 0
	add	sp, sp, #28
	.cfi_def_cfa_offset 12
	@ sp needed
	pop	{r4, r5, pc}
	.cfi_endproc
.LFE358:
	.size	SDMMC_CmdErase, .-SDMMC_CmdErase
	.section	.text.SDMMC_CmdStopTransfer,"ax",%progbits
	.align	1
	.global	SDMMC_CmdStopTransfer
	.syntax unified
	.thumb
	.thumb_func
	.type	SDMMC_CmdStopTransfer, %function
SDMMC_CmdStopTransfer:
.LFB359:
	.loc 1 755 1 is_stmt 1
	.cfi_startproc
	@ args = 0, pretend = 0, frame = 24
	@ frame_needed = 0, uses_anonymous_args = 0
.LVL106:
	push	{r4, r5, lr}
	.cfi_def_cfa_offset 12
	.cfi_offset 4, -12
	.cfi_offset 5, -8
	.cfi_offset 14, -4
	sub	sp, sp, #28
	.cfi_def_cfa_offset 40
	mov	r4, r0
	.loc 1 756 3
	.loc 1 757 3
	.loc 1 760 3
	.loc 1 760 26 is_stmt 0
	movs	r3, #0
	str	r3, [sp, #4]
	.loc 1 761 3 is_stmt 1
	.loc 1 761 26 is_stmt 0
	movs	r5, #12
	str	r5, [sp, #8]
	.loc 1 762 3 is_stmt 1
	.loc 1 762 26 is_stmt 0
	mov	r2, #256
	str	r2, [sp, #12]
	.loc 1 763 3 is_stmt 1
	.loc 1 763 34 is_stmt 0
	str	r3, [sp, #16]
	.loc 1 764 3 is_stmt 1
	.loc 1 764 22 is_stmt 0
	mov	r3, #4096
	str	r3, [sp, #20]
	.loc 1 766 3 is_stmt 1
	.loc 1 766 12 is_stmt 0
	ldr	r3, [r0, #12]
	.loc 1 766 18
	orr	r3, r3, #128
	str	r3, [r0, #12]
	.loc 1 767 3 is_stmt 1
	.loc 1 767 12 is_stmt 0
	ldr	r3, [r0, #12]
	.loc 1 767 18
	bic	r3, r3, #64
	str	r3, [r0, #12]
	.loc 1 769 3 is_stmt 1
	.loc 1 769 9 is_stmt 0
	add	r1, sp, #4
	bl	SDMMC_SendCommand
.LVL107:
	.loc 1 772 3 is_stmt 1
	.loc 1 772 16 is_stmt 0
	ldr	r2, .L83
	mov	r1, r5
	mov	r0, r4
	bl	SDMMC_GetCmdResp1
.LVL108:
	.loc 1 774 3 is_stmt 1
	.loc 1 774 12 is_stmt 0
	ldr	r3, [r4, #12]
	.loc 1 774 18
	bic	r3, r3, #128
	str	r3, [r4, #12]
	.loc 1 777 3 is_stmt 1
	.loc 1 777 6 is_stmt 0
	cmp	r0, #33554432
	beq	.L82
.LVL109:
.L78:
	.loc 1 783 1
	add	sp, sp, #28
	.cfi_remember_state
	.cfi_def_cfa_offset 12
	@ sp needed
	pop	{r4, r5, pc}
.LVL110:
.L82:
	.cfi_restore_state
	.loc 1 779 16
	movs	r0, #0
.LVL111:
	.loc 1 782 3 is_stmt 1
	.loc 1 782 10 is_stmt 0
	b	.L78
.L84:
	.align	2
.L83:
	.word	100000000
	.cfi_endproc
.LFE359:
	.size	SDMMC_CmdStopTransfer, .-SDMMC_CmdStopTransfer
	.section	.text.SDMMC_CmdSelDesel,"ax",%progbits
	.align	1
	.global	SDMMC_CmdSelDesel
	.syntax unified
	.thumb
	.thumb_func
	.type	SDMMC_CmdSelDesel, %function
SDMMC_CmdSelDesel:
.LFB360:
	.loc 1 792 1 is_stmt 1
	.cfi_startproc
	@ args = 0, pretend = 0, frame = 24
	@ frame_needed = 0, uses_anonymous_args = 0
.LVL112:
	push	{r4, r5, lr}
	.cfi_def_cfa_offset 12
	.cfi_offset 4, -12
	.cfi_offset 5, -8
	.cfi_offset 14, -4
	sub	sp, sp, #28
	.cfi_def_cfa_offset 40
	mov	r4, r0
	.loc 1 793 3
	.loc 1 794 3
	.loc 1 797 3
	.loc 1 797 26 is_stmt 0
	str	r1, [sp, #4]
	.loc 1 798 3 is_stmt 1
	.loc 1 798 26 is_stmt 0
	movs	r5, #7
	str	r5, [sp, #8]
	.loc 1 799 3 is_stmt 1
	.loc 1 799 26 is_stmt 0
	mov	r3, #256
	str	r3, [sp, #12]
	.loc 1 800 3 is_stmt 1
	.loc 1 800 34 is_stmt 0
	movs	r3, #0
	str	r3, [sp, #16]
	.loc 1 801 3 is_stmt 1
	.loc 1 801 22 is_stmt 0
	mov	r3, #4096
	str	r3, [sp, #20]
	.loc 1 802 3 is_stmt 1
	.loc 1 802 9 is_stmt 0
	add	r1, sp, #4
.LVL113:
	bl	SDMMC_SendCommand
.LVL114:
	.loc 1 805 3 is_stmt 1
	.loc 1 805 16 is_stmt 0
	movw	r2, #5000
	mov	r1, r5
	mov	r0, r4
	bl	SDMMC_GetCmdResp1
.LVL115:
	.loc 1 807 3 is_stmt 1
	.loc 1 808 1 is_stmt 0
	add	sp, sp, #28
	.cfi_def_cfa_offset 12
	@ sp needed
	pop	{r4, r5, pc}
	.cfi_endproc
.LFE360:
	.size	SDMMC_CmdSelDesel, .-SDMMC_CmdSelDesel
	.section	.text.SDMMC_CmdAppCommand,"ax",%progbits
	.align	1
	.global	SDMMC_CmdAppCommand
	.syntax unified
	.thumb
	.thumb_func
	.type	SDMMC_CmdAppCommand, %function
SDMMC_CmdAppCommand:
.LFB363:
	.loc 1 870 1 is_stmt 1
	.cfi_startproc
	@ args = 0, pretend = 0, frame = 24
	@ frame_needed = 0, uses_anonymous_args = 0
.LVL116:
	push	{r4, r5, lr}
	.cfi_def_cfa_offset 12
	.cfi_offset 4, -12
	.cfi_offset 5, -8
	.cfi_offset 14, -4
	sub	sp, sp, #28
	.cfi_def_cfa_offset 40
	mov	r4, r0
	.loc 1 871 3
	.loc 1 872 3
	.loc 1 874 3
	.loc 1 874 26 is_stmt 0
	str	r1, [sp, #4]
	.loc 1 875 3 is_stmt 1
	.loc 1 875 26 is_stmt 0
	movs	r5, #55
	str	r5, [sp, #8]
	.loc 1 876 3 is_stmt 1
	.loc 1 876 26 is_stmt 0
	mov	r3, #256
	str	r3, [sp, #12]
	.loc 1 877 3 is_stmt 1
	.loc 1 877 34 is_stmt 0
	movs	r3, #0
	str	r3, [sp, #16]
	.loc 1 878 3 is_stmt 1
	.loc 1 878 22 is_stmt 0
	mov	r3, #4096
	str	r3, [sp, #20]
	.loc 1 879 3 is_stmt 1
	.loc 1 879 9 is_stmt 0
	add	r1, sp, #4
.LVL117:
	bl	SDMMC_SendCommand
.LVL118:
	.loc 1 885 3 is_stmt 1
	.loc 1 885 16 is_stmt 0
	movw	r2, #5000
	mov	r1, r5
	mov	r0, r4
	bl	SDMMC_GetCmdResp1
.LVL119:
	.loc 1 887 3 is_stmt 1
	.loc 1 888 1 is_stmt 0
	add	sp, sp, #28
	.cfi_def_cfa_offset 12
	@ sp needed
	pop	{r4, r5, pc}
	.cfi_endproc
.LFE363:
	.size	SDMMC_CmdAppCommand, .-SDMMC_CmdAppCommand
	.section	.text.SDMMC_CmdBusWidth,"ax",%progbits
	.align	1
	.global	SDMMC_CmdBusWidth
	.syntax unified
	.thumb
	.thumb_func
	.type	SDMMC_CmdBusWidth, %function
SDMMC_CmdBusWidth:
.LFB365:
	.loc 1 922 1 is_stmt 1
	.cfi_startproc
	@ args = 0, pretend = 0, frame = 24
	@ frame_needed = 0, uses_anonymous_args = 0
.LVL120:
	push	{r4, r5, lr}
	.cfi_def_cfa_offset 12
	.cfi_offset 4, -12
	.cfi_offset 5, -8
	.cfi_offset 14, -4
	sub	sp, sp, #28
	.cfi_def_cfa_offset 40
	mov	r4, r0
	.loc 1 923 3
	.loc 1 924 3
	.loc 1 926 3
	.loc 1 926 26 is_stmt 0
	str	r1, [sp, #4]
	.loc 1 927 3 is_stmt 1
	.loc 1 927 26 is_stmt 0
	movs	r5, #6
	str	r5, [sp, #8]
	.loc 1 928 3 is_stmt 1
	.loc 1 928 26 is_stmt 0
	mov	r3, #256
	str	r3, [sp, #12]
	.loc 1 929 3 is_stmt 1
	.loc 1 929 34 is_stmt 0
	movs	r3, #0
	str	r3, [sp, #16]
	.loc 1 930 3 is_stmt 1
	.loc 1 930 22 is_stmt 0
	mov	r3, #4096
	str	r3, [sp, #20]
	.loc 1 931 3 is_stmt 1
	.loc 1 931 9 is_stmt 0
	add	r1, sp, #4
.LVL121:
	bl	SDMMC_SendCommand
.LVL122:
	.loc 1 934 3 is_stmt 1
	.loc 1 934 16 is_stmt 0
	movw	r2, #5000
	mov	r1, r5
	mov	r0, r4
	bl	SDMMC_GetCmdResp1
.LVL123:
	.loc 1 936 3 is_stmt 1
	.loc 1 937 1 is_stmt 0
	add	sp, sp, #28
	.cfi_def_cfa_offset 12
	@ sp needed
	pop	{r4, r5, pc}
	.cfi_endproc
.LFE365:
	.size	SDMMC_CmdBusWidth, .-SDMMC_CmdBusWidth
	.section	.text.SDMMC_CmdSendSCR,"ax",%progbits
	.align	1
	.global	SDMMC_CmdSendSCR
	.syntax unified
	.thumb
	.thumb_func
	.type	SDMMC_CmdSendSCR, %function
SDMMC_CmdSendSCR:
.LFB366:
	.loc 1 945 1 is_stmt 1
	.cfi_startproc
	@ args = 0, pretend = 0, frame = 24
	@ frame_needed = 0, uses_anonymous_args = 0
.LVL124:
	push	{r4, r5, lr}
	.cfi_def_cfa_offset 12
	.cfi_offset 4, -12
	.cfi_offset 5, -8
	.cfi_offset 14, -4
	sub	sp, sp, #28
	.cfi_def_cfa_offset 40
	mov	r4, r0
	.loc 1 946 3
	.loc 1 947 3
	.loc 1 950 3
	.loc 1 950 26 is_stmt 0
	movs	r3, #0
	str	r3, [sp, #4]
	.loc 1 951 3 is_stmt 1
	.loc 1 951 26 is_stmt 0
	movs	r5, #51
	str	r5, [sp, #8]
	.loc 1 952 3 is_stmt 1
	.loc 1 952 26 is_stmt 0
	mov	r2, #256
	str	r2, [sp, #12]
	.loc 1 953 3 is_stmt 1
	.loc 1 953 34 is_stmt 0
	str	r3, [sp, #16]
	.loc 1 954 3 is_stmt 1
	.loc 1 954 22 is_stmt 0
	mov	r3, #4096
	str	r3, [sp, #20]
	.loc 1 955 3 is_stmt 1
	.loc 1 955 9 is_stmt 0
	add	r1, sp, #4
	bl	SDMMC_SendCommand
.LVL125:
	.loc 1 958 3 is_stmt 1
	.loc 1 958 16 is_stmt 0
	movw	r2, #5000
	mov	r1, r5
	mov	r0, r4
	bl	SDMMC_GetCmdResp1
.LVL126:
	.loc 1 960 3 is_stmt 1
	.loc 1 961 1 is_stmt 0
	add	sp, sp, #28
	.cfi_def_cfa_offset 12
	@ sp needed
	pop	{r4, r5, pc}
	.cfi_endproc
.LFE366:
	.size	SDMMC_CmdSendSCR, .-SDMMC_CmdSendSCR
	.section	.text.SDMMC_CmdSetRelAddMmc,"ax",%progbits
	.align	1
	.global	SDMMC_CmdSetRelAddMmc
	.syntax unified
	.thumb
	.thumb_func
	.type	SDMMC_CmdSetRelAddMmc, %function
SDMMC_CmdSetRelAddMmc:
.LFB370:
	.loc 1 1044 1 is_stmt 1
	.cfi_startproc
	@ args = 0, pretend = 0, frame = 24
	@ frame_needed = 0, uses_anonymous_args = 0
.LVL127:
	push	{r4, r5, lr}
	.cfi_def_cfa_offset 12
	.cfi_offset 4, -12
	.cfi_offset 5, -8
	.cfi_offset 14, -4
	sub	sp, sp, #28
	.cfi_def_cfa_offset 40
	mov	r4, r0
	.loc 1 1045 3
	.loc 1 1046 3
	.loc 1 1049 3
	.loc 1 1049 43 is_stmt 0
	lsls	r1, r1, #16
.LVL128:
	.loc 1 1049 26
	str	r1, [sp, #4]
	.loc 1 1050 3 is_stmt 1
	.loc 1 1050 26 is_stmt 0
	movs	r5, #3
	str	r5, [sp, #8]
	.loc 1 1051 3 is_stmt 1
	.loc 1 1051 26 is_stmt 0
	mov	r3, #256
	str	r3, [sp, #12]
	.loc 1 1052 3 is_stmt 1
	.loc 1 1052 34 is_stmt 0
	movs	r3, #0
	str	r3, [sp, #16]
	.loc 1 1053 3 is_stmt 1
	.loc 1 1053 22 is_stmt 0
	mov	r3, #4096
	str	r3, [sp, #20]
	.loc 1 1054 3 is_stmt 1
	.loc 1 1054 9 is_stmt 0
	add	r1, sp, #4
	bl	SDMMC_SendCommand
.LVL129:
	.loc 1 1057 3 is_stmt 1
	.loc 1 1057 16 is_stmt 0
	movw	r2, #5000
	mov	r1, r5
	mov	r0, r4
	bl	SDMMC_GetCmdResp1
.LVL130:
	.loc 1 1059 3 is_stmt 1
	.loc 1 1060 1 is_stmt 0
	add	sp, sp, #28
	.cfi_def_cfa_offset 12
	@ sp needed
	pop	{r4, r5, pc}
	.cfi_endproc
.LFE370:
	.size	SDMMC_CmdSetRelAddMmc, .-SDMMC_CmdSetRelAddMmc
	.section	.text.SDMMC_CmdSleepMmc,"ax",%progbits
	.align	1
	.global	SDMMC_CmdSleepMmc
	.syntax unified
	.thumb
	.thumb_func
	.type	SDMMC_CmdSleepMmc, %function
SDMMC_CmdSleepMmc:
.LFB371:
	.loc 1 1069 1 is_stmt 1
	.cfi_startproc
	@ args = 0, pretend = 0, frame = 24
	@ frame_needed = 0, uses_anonymous_args = 0
.LVL131:
	push	{r4, r5, lr}
	.cfi_def_cfa_offset 12
	.cfi_offset 4, -12
	.cfi_offset 5, -8
	.cfi_offset 14, -4
	sub	sp, sp, #28
	.cfi_def_cfa_offset 40
	mov	r4, r0
	.loc 1 1070 3
	.loc 1 1071 3
	.loc 1 1074 3
	.loc 1 1074 26 is_stmt 0
	str	r1, [sp, #4]
	.loc 1 1075 3 is_stmt 1
	.loc 1 1075 26 is_stmt 0
	movs	r5, #5
	str	r5, [sp, #8]
	.loc 1 1076 3 is_stmt 1
	.loc 1 1076 26 is_stmt 0
	mov	r3, #256
	str	r3, [sp, #12]
	.loc 1 1077 3 is_stmt 1
	.loc 1 1077 34 is_stmt 0
	movs	r3, #0
	str	r3, [sp, #16]
	.loc 1 1078 3 is_stmt 1
	.loc 1 1078 22 is_stmt 0
	mov	r3, #4096
	str	r3, [sp, #20]
	.loc 1 1079 3 is_stmt 1
	.loc 1 1079 9 is_stmt 0
	add	r1, sp, #4
.LVL132:
	bl	SDMMC_SendCommand
.LVL133:
	.loc 1 1082 3 is_stmt 1
	.loc 1 1082 16 is_stmt 0
	movw	r2, #5000
	mov	r1, r5
	mov	r0, r4
	bl	SDMMC_GetCmdResp1
.LVL134:
	.loc 1 1084 3 is_stmt 1
	.loc 1 1085 1 is_stmt 0
	add	sp, sp, #28
	.cfi_def_cfa_offset 12
	@ sp needed
	pop	{r4, r5, pc}
	.cfi_endproc
.LFE371:
	.size	SDMMC_CmdSleepMmc, .-SDMMC_CmdSleepMmc
	.section	.text.SDMMC_CmdSendStatus,"ax",%progbits
	.align	1
	.global	SDMMC_CmdSendStatus
	.syntax unified
	.thumb
	.thumb_func
	.type	SDMMC_CmdSendStatus, %function
SDMMC_CmdSendStatus:
.LFB372:
	.loc 1 1094 1 is_stmt 1
	.cfi_startproc
	@ args = 0, pretend = 0, frame = 24
	@ frame_needed = 0, uses_anonymous_args = 0
.LVL135:
	push	{r4, r5, lr}
	.cfi_def_cfa_offset 12
	.cfi_offset 4, -12
	.cfi_offset 5, -8
	.cfi_offset 14, -4
	sub	sp, sp, #28
	.cfi_def_cfa_offset 40
	mov	r4, r0
	.loc 1 1095 3
	.loc 1 1096 3
	.loc 1 1098 3
	.loc 1 1098 26 is_stmt 0
	str	r1, [sp, #4]
	.loc 1 1099 3 is_stmt 1
	.loc 1 1099 26 is_stmt 0
	movs	r5, #13
	str	r5, [sp, #8]
	.loc 1 1100 3 is_stmt 1
	.loc 1 1100 26 is_stmt 0
	mov	r3, #256
	str	r3, [sp, #12]
	.loc 1 1101 3 is_stmt 1
	.loc 1 1101 34 is_stmt 0
	movs	r3, #0
	str	r3, [sp, #16]
	.loc 1 1102 3 is_stmt 1
	.loc 1 1102 22 is_stmt 0
	mov	r3, #4096
	str	r3, [sp, #20]
	.loc 1 1103 3 is_stmt 1
	.loc 1 1103 9 is_stmt 0
	add	r1, sp, #4
.LVL136:
	bl	SDMMC_SendCommand
.LVL137:
	.loc 1 1106 3 is_stmt 1
	.loc 1 1106 16 is_stmt 0
	movw	r2, #5000
	mov	r1, r5
	mov	r0, r4
	bl	SDMMC_GetCmdResp1
.LVL138:
	.loc 1 1108 3 is_stmt 1
	.loc 1 1109 1 is_stmt 0
	add	sp, sp, #28
	.cfi_def_cfa_offset 12
	@ sp needed
	pop	{r4, r5, pc}
	.cfi_endproc
.LFE372:
	.size	SDMMC_CmdSendStatus, .-SDMMC_CmdSendStatus
	.section	.text.SDMMC_CmdStatusRegister,"ax",%progbits
	.align	1
	.global	SDMMC_CmdStatusRegister
	.syntax unified
	.thumb
	.thumb_func
	.type	SDMMC_CmdStatusRegister, %function
SDMMC_CmdStatusRegister:
.LFB373:
	.loc 1 1117 1 is_stmt 1
	.cfi_startproc
	@ args = 0, pretend = 0, frame = 24
	@ frame_needed = 0, uses_anonymous_args = 0
.LVL139:
	push	{r4, r5, lr}
	.cfi_def_cfa_offset 12
	.cfi_offset 4, -12
	.cfi_offset 5, -8
	.cfi_offset 14, -4
	sub	sp, sp, #28
	.cfi_def_cfa_offset 40
	mov	r4, r0
	.loc 1 1118 3
	.loc 1 1119 3
	.loc 1 1121 3
	.loc 1 1121 26 is_stmt 0
	movs	r3, #0
	str	r3, [sp, #4]
	.loc 1 1122 3 is_stmt 1
	.loc 1 1122 26 is_stmt 0
	movs	r5, #13
	str	r5, [sp, #8]
	.loc 1 1123 3 is_stmt 1
	.loc 1 1123 26 is_stmt 0
	mov	r2, #256
	str	r2, [sp, #12]
	.loc 1 1124 3 is_stmt 1
	.loc 1 1124 34 is_stmt 0
	str	r3, [sp, #16]
	.loc 1 1125 3 is_stmt 1
	.loc 1 1125 22 is_stmt 0
	mov	r3, #4096
	str	r3, [sp, #20]
	.loc 1 1126 3 is_stmt 1
	.loc 1 1126 9 is_stmt 0
	add	r1, sp, #4
	bl	SDMMC_SendCommand
.LVL140:
	.loc 1 1129 3 is_stmt 1
	.loc 1 1129 16 is_stmt 0
	movw	r2, #5000
	mov	r1, r5
	mov	r0, r4
	bl	SDMMC_GetCmdResp1
.LVL141:
	.loc 1 1131 3 is_stmt 1
	.loc 1 1132 1 is_stmt 0
	add	sp, sp, #28
	.cfi_def_cfa_offset 12
	@ sp needed
	pop	{r4, r5, pc}
	.cfi_endproc
.LFE373:
	.size	SDMMC_CmdStatusRegister, .-SDMMC_CmdStatusRegister
	.section	.text.SDMMC_CmdSwitch,"ax",%progbits
	.align	1
	.global	SDMMC_CmdSwitch
	.syntax unified
	.thumb
	.thumb_func
	.type	SDMMC_CmdSwitch, %function
SDMMC_CmdSwitch:
.LFB375:
	.loc 1 1166 1 is_stmt 1
	.cfi_startproc
	@ args = 0, pretend = 0, frame = 24
	@ frame_needed = 0, uses_anonymous_args = 0
.LVL142:
	push	{r4, r5, lr}
	.cfi_def_cfa_offset 12
	.cfi_offset 4, -12
	.cfi_offset 5, -8
	.cfi_offset 14, -4
	sub	sp, sp, #28
	.cfi_def_cfa_offset 40
	mov	r4, r0
	.loc 1 1167 3
	.loc 1 1168 3
	.loc 1 1172 3
	.loc 1 1172 26 is_stmt 0
	str	r1, [sp, #4]
	.loc 1 1173 3 is_stmt 1
	.loc 1 1173 26 is_stmt 0
	movs	r5, #6
	str	r5, [sp, #8]
	.loc 1 1174 3 is_stmt 1
	.loc 1 1174 26 is_stmt 0
	mov	r3, #256
	str	r3, [sp, #12]
	.loc 1 1175 3 is_stmt 1
	.loc 1 1175 34 is_stmt 0
	movs	r3, #0
	str	r3, [sp, #16]
	.loc 1 1176 3 is_stmt 1
	.loc 1 1176 22 is_stmt 0
	mov	r3, #4096
	str	r3, [sp, #20]
	.loc 1 1177 3 is_stmt 1
	.loc 1 1177 9 is_stmt 0
	add	r1, sp, #4
.LVL143:
	bl	SDMMC_SendCommand
.LVL144:
	.loc 1 1180 3 is_stmt 1
	.loc 1 1180 16 is_stmt 0
	movw	r2, #5000
	mov	r1, r5
	mov	r0, r4
	bl	SDMMC_GetCmdResp1
.LVL145:
	.loc 1 1182 3 is_stmt 1
	.loc 1 1183 1 is_stmt 0
	add	sp, sp, #28
	.cfi_def_cfa_offset 12
	@ sp needed
	pop	{r4, r5, pc}
	.cfi_endproc
.LFE375:
	.size	SDMMC_CmdSwitch, .-SDMMC_CmdSwitch
	.section	.text.SDMMC_CmdVoltageSwitch,"ax",%progbits
	.align	1
	.global	SDMMC_CmdVoltageSwitch
	.syntax unified
	.thumb
	.thumb_func
	.type	SDMMC_CmdVoltageSwitch, %function
SDMMC_CmdVoltageSwitch:
.LFB376:
	.loc 1 1192 1 is_stmt 1
	.cfi_startproc
	@ args = 0, pretend = 0, frame = 24
	@ frame_needed = 0, uses_anonymous_args = 0
.LVL146:
	push	{r4, r5, lr}
	.cfi_def_cfa_offset 12
	.cfi_offset 4, -12
	.cfi_offset 5, -8
	.cfi_offset 14, -4
	sub	sp, sp, #28
	.cfi_def_cfa_offset 40
	mov	r4, r0
	.loc 1 1193 3
	.loc 1 1194 3
	.loc 1 1196 3
	.loc 1 1196 26 is_stmt 0
	movs	r3, #0
	str	r3, [sp, #4]
	.loc 1 1197 3 is_stmt 1
	.loc 1 1197 26 is_stmt 0
	movs	r5, #11
	str	r5, [sp, #8]
	.loc 1 1198 3 is_stmt 1
	.loc 1 1198 26 is_stmt 0
	mov	r2, #256
	str	r2, [sp, #12]
	.loc 1 1199 3 is_stmt 1
	.loc 1 1199 34 is_stmt 0
	str	r3, [sp, #16]
	.loc 1 1200 3 is_stmt 1
	.loc 1 1200 22 is_stmt 0
	mov	r3, #4096
	str	r3, [sp, #20]
	.loc 1 1201 3 is_stmt 1
	.loc 1 1201 9 is_stmt 0
	add	r1, sp, #4
	bl	SDMMC_SendCommand
.LVL147:
	.loc 1 1204 3 is_stmt 1
	.loc 1 1204 16 is_stmt 0
	movw	r2, #5000
	mov	r1, r5
	mov	r0, r4
	bl	SDMMC_GetCmdResp1
.LVL148:
	.loc 1 1206 3 is_stmt 1
	.loc 1 1207 1 is_stmt 0
	add	sp, sp, #28
	.cfi_def_cfa_offset 12
	@ sp needed
	pop	{r4, r5, pc}
	.cfi_endproc
.LFE376:
	.size	SDMMC_CmdVoltageSwitch, .-SDMMC_CmdVoltageSwitch
	.section	.text.SDMMC_CmdSendEXTCSD,"ax",%progbits
	.align	1
	.global	SDMMC_CmdSendEXTCSD
	.syntax unified
	.thumb
	.thumb_func
	.type	SDMMC_CmdSendEXTCSD, %function
SDMMC_CmdSendEXTCSD:
.LFB377:
	.loc 1 1216 1 is_stmt 1
	.cfi_startproc
	@ args = 0, pretend = 0, frame = 24
	@ frame_needed = 0, uses_anonymous_args = 0
.LVL149:
	push	{r4, r5, lr}
	.cfi_def_cfa_offset 12
	.cfi_offset 4, -12
	.cfi_offset 5, -8
	.cfi_offset 14, -4
	sub	sp, sp, #28
	.cfi_def_cfa_offset 40
	mov	r4, r0
	.loc 1 1217 3
	.loc 1 1218 3
	.loc 1 1221 3
	.loc 1 1221 26 is_stmt 0
	str	r1, [sp, #4]
	.loc 1 1222 3 is_stmt 1
	.loc 1 1222 26 is_stmt 0
	movs	r5, #8
	str	r5, [sp, #8]
	.loc 1 1223 3 is_stmt 1
	.loc 1 1223 26 is_stmt 0
	mov	r3, #256
	str	r3, [sp, #12]
	.loc 1 1224 3 is_stmt 1
	.loc 1 1224 34 is_stmt 0
	movs	r3, #0
	str	r3, [sp, #16]
	.loc 1 1225 3 is_stmt 1
	.loc 1 1225 22 is_stmt 0
	mov	r3, #4096
	str	r3, [sp, #20]
	.loc 1 1226 3 is_stmt 1
	.loc 1 1226 9 is_stmt 0
	add	r1, sp, #4
.LVL150:
	bl	SDMMC_SendCommand
.LVL151:
	.loc 1 1229 3 is_stmt 1
	.loc 1 1229 16 is_stmt 0
	movw	r2, #5000
	mov	r1, r5
	mov	r0, r4
	bl	SDMMC_GetCmdResp1
.LVL152:
	.loc 1 1231 3 is_stmt 1
	.loc 1 1232 1 is_stmt 0
	add	sp, sp, #28
	.cfi_def_cfa_offset 12
	@ sp needed
	pop	{r4, r5, pc}
	.cfi_endproc
.LFE377:
	.size	SDMMC_CmdSendEXTCSD, .-SDMMC_CmdSendEXTCSD
	.section	.text.SDMMC_GetCmdResp2,"ax",%progbits
	.align	1
	.global	SDMMC_GetCmdResp2
	.syntax unified
	.thumb
	.thumb_func
	.type	SDMMC_GetCmdResp2, %function
SDMMC_GetCmdResp2:
.LFB379:
	.loc 1 1394 1 is_stmt 1
	.cfi_startproc
	@ args = 0, pretend = 0, frame = 0
	@ frame_needed = 0, uses_anonymous_args = 0
	@ link register save eliminated.
.LVL153:
	mov	r1, r0
	.loc 1 1395 3
	.loc 1 1398 3
	.loc 1 1398 62 is_stmt 0
	ldr	r3, .L115
	ldr	r3, [r3]
	ldr	r2, .L115+4
	umull	r2, r3, r2, r3
	lsrs	r3, r3, #9
	.loc 1 1398 12
	movw	r2, #5000
	mul	r3, r2, r3
.LVL154:
.L109:
	.loc 1 1400 3 is_stmt 1
	.loc 1 1402 5
	mov	r2, r3
	.loc 1 1402 14 is_stmt 0
	subs	r3, r3, #1
.LVL155:
	.loc 1 1402 8
	cbz	r2, .L112
	.loc 1 1406 5 is_stmt 1
	.loc 1 1406 13 is_stmt 0
	ldr	r2, [r1, #52]
.LVL156:
	.loc 1 1407 86 is_stmt 1
	tst	r2, #69
	beq	.L109
	.loc 1 1407 86 is_stmt 0 discriminator 1
	tst	r2, #8192
	bne	.L109
	.loc 1 1410 3 is_stmt 1
	.loc 1 1410 17 is_stmt 0
	ldr	r3, [r1, #52]
.LVL157:
	.loc 1 1410 6
	tst	r3, #4
	bne	.L113
	.loc 1 1416 8 is_stmt 1
	.loc 1 1416 22 is_stmt 0
	ldr	r0, [r1, #52]
.LVL158:
	.loc 1 1416 11
	ands	r0, r0, #1
	bne	.L114
	.loc 1 1426 5 is_stmt 1
	.loc 1 1426 20 is_stmt 0
	ldr	r3, .L115+8
	str	r3, [r1, #56]
	.loc 1 1429 3 is_stmt 1
	.loc 1 1429 10 is_stmt 0
	bx	lr
.LVL159:
.L113:
	.loc 1 1412 5 is_stmt 1
	.loc 1 1412 20 is_stmt 0
	movs	r0, #4
.LVL160:
	str	r0, [r1, #56]
	.loc 1 1414 5 is_stmt 1
	.loc 1 1414 12 is_stmt 0
	bx	lr
.L114:
	.loc 1 1418 5 is_stmt 1
	.loc 1 1418 20 is_stmt 0
	movs	r0, #1
	str	r0, [r1, #56]
	.loc 1 1420 5 is_stmt 1
	.loc 1 1420 12 is_stmt 0
	bx	lr
.LVL161:
.L112:
	.loc 1 1404 14
	mov	r0, #-2147483648
.LVL162:
	.loc 1 1430 1
	bx	lr
.L116:
	.align	2
.L115:
	.word	SystemCoreClock
	.word	274877907
	.word	2097349
	.cfi_endproc
.LFE379:
	.size	SDMMC_GetCmdResp2, .-SDMMC_GetCmdResp2
	.section	.text.SDMMC_CmdSendCID,"ax",%progbits
	.align	1
	.global	SDMMC_CmdSendCID
	.syntax unified
	.thumb
	.thumb_func
	.type	SDMMC_CmdSendCID, %function
SDMMC_CmdSendCID:
.LFB367:
	.loc 1 969 1 is_stmt 1
	.cfi_startproc
	@ args = 0, pretend = 0, frame = 24
	@ frame_needed = 0, uses_anonymous_args = 0
.LVL163:
	push	{r4, lr}
	.cfi_def_cfa_offset 8
	.cfi_offset 4, -8
	.cfi_offset 14, -4
	sub	sp, sp, #24
	.cfi_def_cfa_offset 32
	mov	r4, r0
	.loc 1 970 3
	.loc 1 971 3
	.loc 1 974 3
	.loc 1 974 26 is_stmt 0
	movs	r3, #0
	str	r3, [sp, #4]
	.loc 1 975 3 is_stmt 1
	.loc 1 975 26 is_stmt 0
	movs	r2, #2
	str	r2, [sp, #8]
	.loc 1 976 3 is_stmt 1
	.loc 1 976 26 is_stmt 0
	mov	r2, #768
	str	r2, [sp, #12]
	.loc 1 977 3 is_stmt 1
	.loc 1 977 34 is_stmt 0
	str	r3, [sp, #16]
	.loc 1 978 3 is_stmt 1
	.loc 1 978 22 is_stmt 0
	mov	r3, #4096
	str	r3, [sp, #20]
	.loc 1 979 3 is_stmt 1
	.loc 1 979 9 is_stmt 0
	add	r1, sp, #4
	bl	SDMMC_SendCommand
.LVL164:
	.loc 1 982 3 is_stmt 1
	.loc 1 982 16 is_stmt 0
	mov	r0, r4
	bl	SDMMC_GetCmdResp2
.LVL165:
	.loc 1 984 3 is_stmt 1
	.loc 1 985 1 is_stmt 0
	add	sp, sp, #24
	.cfi_def_cfa_offset 8
	@ sp needed
	pop	{r4, pc}
	.cfi_endproc
.LFE367:
	.size	SDMMC_CmdSendCID, .-SDMMC_CmdSendCID
	.section	.text.SDMMC_CmdSendCSD,"ax",%progbits
	.align	1
	.global	SDMMC_CmdSendCSD
	.syntax unified
	.thumb
	.thumb_func
	.type	SDMMC_CmdSendCSD, %function
SDMMC_CmdSendCSD:
.LFB368:
	.loc 1 994 1 is_stmt 1
	.cfi_startproc
	@ args = 0, pretend = 0, frame = 24
	@ frame_needed = 0, uses_anonymous_args = 0
.LVL166:
	push	{r4, lr}
	.cfi_def_cfa_offset 8
	.cfi_offset 4, -8
	.cfi_offset 14, -4
	sub	sp, sp, #24
	.cfi_def_cfa_offset 32
	mov	r4, r0
	.loc 1 995 3
	.loc 1 996 3
	.loc 1 999 3
	.loc 1 999 26 is_stmt 0
	str	r1, [sp, #4]
	.loc 1 1000 3 is_stmt 1
	.loc 1 1000 26 is_stmt 0
	movs	r3, #9
	str	r3, [sp, #8]
	.loc 1 1001 3 is_stmt 1
	.loc 1 1001 26 is_stmt 0
	mov	r3, #768
	str	r3, [sp, #12]
	.loc 1 1002 3 is_stmt 1
	.loc 1 1002 34 is_stmt 0
	movs	r3, #0
	str	r3, [sp, #16]
	.loc 1 1003 3 is_stmt 1
	.loc 1 1003 22 is_stmt 0
	mov	r3, #4096
	str	r3, [sp, #20]
	.loc 1 1004 3 is_stmt 1
	.loc 1 1004 9 is_stmt 0
	add	r1, sp, #4
.LVL167:
	bl	SDMMC_SendCommand
.LVL168:
	.loc 1 1007 3 is_stmt 1
	.loc 1 1007 16 is_stmt 0
	mov	r0, r4
	bl	SDMMC_GetCmdResp2
.LVL169:
	.loc 1 1009 3 is_stmt 1
	.loc 1 1010 1 is_stmt 0
	add	sp, sp, #24
	.cfi_def_cfa_offset 8
	@ sp needed
	pop	{r4, pc}
	.cfi_endproc
.LFE368:
	.size	SDMMC_CmdSendCSD, .-SDMMC_CmdSendCSD
	.section	.text.SDMMC_GetCmdResp3,"ax",%progbits
	.align	1
	.global	SDMMC_GetCmdResp3
	.syntax unified
	.thumb
	.thumb_func
	.type	SDMMC_GetCmdResp3, %function
SDMMC_GetCmdResp3:
.LFB380:
	.loc 1 1438 1 is_stmt 1
	.cfi_startproc
	@ args = 0, pretend = 0, frame = 0
	@ frame_needed = 0, uses_anonymous_args = 0
	@ link register save eliminated.
.LVL170:
	mov	r1, r0
	.loc 1 1439 3
	.loc 1 1442 3
	.loc 1 1442 62 is_stmt 0
	ldr	r3, .L127
	ldr	r3, [r3]
	ldr	r2, .L127+4
	umull	r2, r3, r2, r3
	lsrs	r3, r3, #9
	.loc 1 1442 12
	movw	r2, #5000
	mul	r3, r2, r3
.LVL171:
.L123:
	.loc 1 1444 3 is_stmt 1
	.loc 1 1446 5
	mov	r2, r3
	.loc 1 1446 14 is_stmt 0
	subs	r3, r3, #1
.LVL172:
	.loc 1 1446 8
	cbz	r2, .L125
	.loc 1 1450 5 is_stmt 1
	.loc 1 1450 13 is_stmt 0
	ldr	r2, [r1, #52]
.LVL173:
	.loc 1 1451 86 is_stmt 1
	tst	r2, #69
	beq	.L123
	.loc 1 1451 86 is_stmt 0 discriminator 1
	tst	r2, #8192
	bne	.L123
	.loc 1 1454 3 is_stmt 1
	.loc 1 1454 17 is_stmt 0
	ldr	r0, [r1, #52]
.LVL174:
	.loc 1 1454 6
	ands	r0, r0, #4
	bne	.L126
	.loc 1 1463 5 is_stmt 1
	.loc 1 1463 20 is_stmt 0
	ldr	r3, .L127+8
.LVL175:
	str	r3, [r1, #56]
	.loc 1 1466 3 is_stmt 1
	.loc 1 1466 10 is_stmt 0
	bx	lr
.LVL176:
.L126:
	.loc 1 1456 5 is_stmt 1
	.loc 1 1456 20 is_stmt 0
	movs	r0, #4
	str	r0, [r1, #56]
	.loc 1 1458 5 is_stmt 1
	.loc 1 1458 12 is_stmt 0
	bx	lr
.LVL177:
.L125:
	.loc 1 1448 14
	mov	r0, #-2147483648
.LVL178:
	.loc 1 1467 1
	bx	lr
.L128:
	.align	2
.L127:
	.word	SystemCoreClock
	.word	274877907
	.word	2097349
	.cfi_endproc
.LFE380:
	.size	SDMMC_GetCmdResp3, .-SDMMC_GetCmdResp3
	.section	.text.SDMMC_CmdAppOperCommand,"ax",%progbits
	.align	1
	.global	SDMMC_CmdAppOperCommand
	.syntax unified
	.thumb
	.thumb_func
	.type	SDMMC_CmdAppOperCommand, %function
SDMMC_CmdAppOperCommand:
.LFB364:
	.loc 1 898 1 is_stmt 1
	.cfi_startproc
	@ args = 0, pretend = 0, frame = 24
	@ frame_needed = 0, uses_anonymous_args = 0
.LVL179:
	push	{r4, lr}
	.cfi_def_cfa_offset 8
	.cfi_offset 4, -8
	.cfi_offset 14, -4
	sub	sp, sp, #24
	.cfi_def_cfa_offset 32
	mov	r4, r0
	.loc 1 899 3
	.loc 1 900 3
	.loc 1 902 3
	.loc 1 902 26 is_stmt 0
	str	r1, [sp, #4]
	.loc 1 903 3 is_stmt 1
	.loc 1 903 26 is_stmt 0
	movs	r3, #41
	str	r3, [sp, #8]
	.loc 1 904 3 is_stmt 1
	.loc 1 904 26 is_stmt 0
	mov	r3, #256
	str	r3, [sp, #12]
	.loc 1 905 3 is_stmt 1
	.loc 1 905 34 is_stmt 0
	movs	r3, #0
	str	r3, [sp, #16]
	.loc 1 906 3 is_stmt 1
	.loc 1 906 22 is_stmt 0
	mov	r3, #4096
	str	r3, [sp, #20]
	.loc 1 907 3 is_stmt 1
	.loc 1 907 9 is_stmt 0
	add	r1, sp, #4
.LVL180:
	bl	SDMMC_SendCommand
.LVL181:
	.loc 1 910 3 is_stmt 1
	.loc 1 910 16 is_stmt 0
	mov	r0, r4
	bl	SDMMC_GetCmdResp3
.LVL182:
	.loc 1 912 3 is_stmt 1
	.loc 1 913 1 is_stmt 0
	add	sp, sp, #24
	.cfi_def_cfa_offset 8
	@ sp needed
	pop	{r4, pc}
	.cfi_endproc
.LFE364:
	.size	SDMMC_CmdAppOperCommand, .-SDMMC_CmdAppOperCommand
	.section	.text.SDMMC_CmdOpCondition,"ax",%progbits
	.align	1
	.global	SDMMC_CmdOpCondition
	.syntax unified
	.thumb
	.thumb_func
	.type	SDMMC_CmdOpCondition, %function
SDMMC_CmdOpCondition:
.LFB374:
	.loc 1 1142 1 is_stmt 1
	.cfi_startproc
	@ args = 0, pretend = 0, frame = 24
	@ frame_needed = 0, uses_anonymous_args = 0
.LVL183:
	push	{r4, lr}
	.cfi_def_cfa_offset 8
	.cfi_offset 4, -8
	.cfi_offset 14, -4
	sub	sp, sp, #24
	.cfi_def_cfa_offset 32
	mov	r4, r0
	.loc 1 1143 3
	.loc 1 1144 3
	.loc 1 1146 3
	.loc 1 1146 26 is_stmt 0
	str	r1, [sp, #4]
	.loc 1 1147 3 is_stmt 1
	.loc 1 1147 26 is_stmt 0
	movs	r3, #1
	str	r3, [sp, #8]
	.loc 1 1148 3 is_stmt 1
	.loc 1 1148 26 is_stmt 0
	mov	r3, #256
	str	r3, [sp, #12]
	.loc 1 1149 3 is_stmt 1
	.loc 1 1149 34 is_stmt 0
	movs	r3, #0
	str	r3, [sp, #16]
	.loc 1 1150 3 is_stmt 1
	.loc 1 1150 22 is_stmt 0
	mov	r3, #4096
	str	r3, [sp, #20]
	.loc 1 1151 3 is_stmt 1
	.loc 1 1151 9 is_stmt 0
	add	r1, sp, #4
.LVL184:
	bl	SDMMC_SendCommand
.LVL185:
	.loc 1 1154 3 is_stmt 1
	.loc 1 1154 16 is_stmt 0
	mov	r0, r4
	bl	SDMMC_GetCmdResp3
.LVL186:
	.loc 1 1156 3 is_stmt 1
	.loc 1 1157 1 is_stmt 0
	add	sp, sp, #24
	.cfi_def_cfa_offset 8
	@ sp needed
	pop	{r4, pc}
	.cfi_endproc
.LFE374:
	.size	SDMMC_CmdOpCondition, .-SDMMC_CmdOpCondition
	.section	.text.SDMMC_GetCmdResp6,"ax",%progbits
	.align	1
	.global	SDMMC_GetCmdResp6
	.syntax unified
	.thumb
	.thumb_func
	.type	SDMMC_GetCmdResp6, %function
SDMMC_GetCmdResp6:
.LFB381:
	.loc 1 1478 1 is_stmt 1
	.cfi_startproc
	@ args = 0, pretend = 0, frame = 0
	@ frame_needed = 0, uses_anonymous_args = 0
.LVL187:
	push	{r3, r4, r5, r6, r7, lr}
	.cfi_def_cfa_offset 24
	.cfi_offset 3, -24
	.cfi_offset 4, -20
	.cfi_offset 5, -16
	.cfi_offset 6, -12
	.cfi_offset 7, -8
	.cfi_offset 14, -4
	mov	r5, r0
	mov	r6, r1
	mov	r7, r2
	.loc 1 1479 3
	.loc 1 1480 3
	.loc 1 1484 3
	.loc 1 1484 62 is_stmt 0
	ldr	r3, .L147
	ldr	r3, [r3]
	ldr	r2, .L147+4
.LVL188:
	umull	r2, r3, r2, r3
	lsrs	r3, r3, #9
	.loc 1 1484 12
	movw	r2, #5000
	mul	r3, r2, r3
.LVL189:
.L135:
	.loc 1 1486 3 is_stmt 1
	.loc 1 1488 5
	mov	r2, r3
	.loc 1 1488 14 is_stmt 0
	subs	r3, r3, #1
.LVL190:
	.loc 1 1488 8
	cbz	r2, .L139
	.loc 1 1492 5 is_stmt 1
	.loc 1 1492 13 is_stmt 0
	ldr	r4, [r5, #52]
.LVL191:
	.loc 1 1493 86 is_stmt 1
	tst	r4, #69
	beq	.L135
	.loc 1 1493 86 is_stmt 0 discriminator 1
	tst	r4, #8192
	bne	.L135
	.loc 1 1496 3 is_stmt 1
	.loc 1 1496 17 is_stmt 0
	ldr	r3, [r5, #52]
.LVL192:
	.loc 1 1496 6
	tst	r3, #4
	bne	.L144
	.loc 1 1502 8 is_stmt 1
	.loc 1 1502 22 is_stmt 0
	ldr	r3, [r5, #52]
	.loc 1 1502 11
	tst	r3, #1
	beq	.L137
	.loc 1 1504 5 is_stmt 1
	.loc 1 1504 20 is_stmt 0
	movs	r0, #1
.LVL193:
	str	r0, [r5, #56]
	.loc 1 1506 5 is_stmt 1
	.loc 1 1506 12 is_stmt 0
	b	.L133
.LVL194:
.L144:
	.loc 1 1498 5 is_stmt 1
	.loc 1 1498 20 is_stmt 0
	movs	r0, #4
.LVL195:
	str	r0, [r5, #56]
	.loc 1 1500 5 is_stmt 1
	.loc 1 1500 12 is_stmt 0
	b	.L133
.LVL196:
.L137:
	.loc 1 1511 3 is_stmt 1
	.loc 1 1514 3
	.loc 1 1514 7 is_stmt 0
	mov	r0, r5
.LVL197:
	bl	SDMMC_GetCommandResponse
.LVL198:
	.loc 1 1514 6
	cmp	r0, r6
	beq	.L145
	.loc 1 1516 12
	movs	r0, #1
	b	.L133
.L145:
	.loc 1 1520 3 is_stmt 1
	.loc 1 1520 18 is_stmt 0
	ldr	r3, .L147+8
	str	r3, [r5, #56]
	.loc 1 1523 3 is_stmt 1
	.loc 1 1523 17 is_stmt 0
	movs	r1, #0
	mov	r0, r5
	bl	SDMMC_GetResponse
.LVL199:
	mov	r3, r0
.LVL200:
	.loc 1 1525 3 is_stmt 1
	.loc 1 1525 6 is_stmt 0
	ands	r0, r0, #57344
.LVL201:
	beq	.L146
	.loc 1 1532 8 is_stmt 1
	.loc 1 1532 11 is_stmt 0
	tst	r3, #16384
	bne	.L141
	.loc 1 1536 8 is_stmt 1
	.loc 1 1536 11 is_stmt 0
	tst	r3, #32768
	beq	.L142
	.loc 1 1538 12
	mov	r0, #4096
	b	.L133
.L146:
	.loc 1 1528 5 is_stmt 1
	.loc 1 1528 13 is_stmt 0
	lsrs	r3, r3, #16
.LVL202:
	.loc 1 1528 11
	strh	r3, [r7]	@ movhi
	.loc 1 1530 5 is_stmt 1
	.loc 1 1530 12 is_stmt 0
	b	.L133
.LVL203:
.L139:
	.loc 1 1490 14
	mov	r0, #-2147483648
.LVL204:
.L133:
	.loc 1 1544 1
	pop	{r3, r4, r5, r6, r7, pc}
.LVL205:
.L141:
	.loc 1 1534 12
	mov	r0, #8192
	b	.L133
.L142:
	.loc 1 1542 12
	mov	r0, #65536
	b	.L133
.L148:
	.align	2
.L147:
	.word	SystemCoreClock
	.word	274877907
	.word	2097349
	.cfi_endproc
.LFE381:
	.size	SDMMC_GetCmdResp6, .-SDMMC_GetCmdResp6
	.section	.text.SDMMC_CmdSetRelAdd,"ax",%progbits
	.align	1
	.global	SDMMC_CmdSetRelAdd
	.syntax unified
	.thumb
	.thumb_func
	.type	SDMMC_CmdSetRelAdd, %function
SDMMC_CmdSetRelAdd:
.LFB369:
	.loc 1 1019 1 is_stmt 1
	.cfi_startproc
	@ args = 0, pretend = 0, frame = 24
	@ frame_needed = 0, uses_anonymous_args = 0
.LVL206:
	push	{r4, r5, r6, lr}
	.cfi_def_cfa_offset 16
	.cfi_offset 4, -16
	.cfi_offset 5, -12
	.cfi_offset 6, -8
	.cfi_offset 14, -4
	sub	sp, sp, #24
	.cfi_def_cfa_offset 40
	mov	r4, r0
	mov	r5, r1
	.loc 1 1020 3
	.loc 1 1021 3
	.loc 1 1024 3
	.loc 1 1024 26 is_stmt 0
	movs	r3, #0
	str	r3, [sp, #4]
	.loc 1 1025 3 is_stmt 1
	.loc 1 1025 26 is_stmt 0
	movs	r6, #3
	str	r6, [sp, #8]
	.loc 1 1026 3 is_stmt 1
	.loc 1 1026 26 is_stmt 0
	mov	r2, #256
	str	r2, [sp, #12]
	.loc 1 1027 3 is_stmt 1
	.loc 1 1027 34 is_stmt 0
	str	r3, [sp, #16]
	.loc 1 1028 3 is_stmt 1
	.loc 1 1028 22 is_stmt 0
	mov	r3, #4096
	str	r3, [sp, #20]
	.loc 1 1029 3 is_stmt 1
	.loc 1 1029 9 is_stmt 0
	add	r1, sp, #4
.LVL207:
	bl	SDMMC_SendCommand
.LVL208:
	.loc 1 1032 3 is_stmt 1
	.loc 1 1032 16 is_stmt 0
	mov	r2, r5
	mov	r1, r6
	mov	r0, r4
	bl	SDMMC_GetCmdResp6
.LVL209:
	.loc 1 1034 3 is_stmt 1
	.loc 1 1035 1 is_stmt 0
	add	sp, sp, #24
	.cfi_def_cfa_offset 16
	@ sp needed
	pop	{r4, r5, r6, pc}
	.cfi_endproc
.LFE369:
	.size	SDMMC_CmdSetRelAdd, .-SDMMC_CmdSetRelAdd
	.section	.text.SDMMC_GetCmdResp7,"ax",%progbits
	.align	1
	.global	SDMMC_GetCmdResp7
	.syntax unified
	.thumb
	.thumb_func
	.type	SDMMC_GetCmdResp7, %function
SDMMC_GetCmdResp7:
.LFB382:
	.loc 1 1552 1 is_stmt 1
	.cfi_startproc
	@ args = 0, pretend = 0, frame = 0
	@ frame_needed = 0, uses_anonymous_args = 0
	@ link register save eliminated.
.LVL210:
	mov	r1, r0
	.loc 1 1553 3
	.loc 1 1556 3
	.loc 1 1556 62 is_stmt 0
	ldr	r3, .L159
	ldr	r3, [r3]
	ldr	r2, .L159+4
	umull	r2, r3, r2, r3
	lsrs	r3, r3, #9
	.loc 1 1556 12
	movw	r2, #5000
	mul	r3, r2, r3
.LVL211:
.L153:
	.loc 1 1558 3 is_stmt 1
	.loc 1 1560 5
	mov	r2, r3
	.loc 1 1560 14 is_stmt 0
	subs	r3, r3, #1
.LVL212:
	.loc 1 1560 8
	cbz	r2, .L156
	.loc 1 1564 5 is_stmt 1
	.loc 1 1564 13 is_stmt 0
	ldr	r2, [r1, #52]
.LVL213:
	.loc 1 1565 86 is_stmt 1
	tst	r2, #69
	beq	.L153
	.loc 1 1565 86 is_stmt 0 discriminator 1
	tst	r2, #8192
	bne	.L153
	.loc 1 1568 3 is_stmt 1
	.loc 1 1568 17 is_stmt 0
	ldr	r3, [r1, #52]
.LVL214:
	.loc 1 1568 6
	tst	r3, #4
	bne	.L157
	.loc 1 1576 8 is_stmt 1
	.loc 1 1576 22 is_stmt 0
	ldr	r3, [r1, #52]
	.loc 1 1576 11
	ands	r3, r3, #1
	bne	.L158
	.loc 1 1586 3 is_stmt 1
	.loc 1 1588 3
	.loc 1 1588 17 is_stmt 0
	ldr	r0, [r1, #52]
.LVL215:
	.loc 1 1588 6
	ands	r0, r0, #64
	beq	.L151
	.loc 1 1591 5 is_stmt 1
	.loc 1 1591 20 is_stmt 0
	movs	r2, #64
.LVL216:
	str	r2, [r1, #56]
	.loc 1 1594 10
	mov	r0, r3
	bx	lr
.LVL217:
.L157:
	.loc 1 1571 5 is_stmt 1
	.loc 1 1571 20 is_stmt 0
	movs	r0, #4
.LVL218:
	str	r0, [r1, #56]
	.loc 1 1573 5 is_stmt 1
	.loc 1 1573 12 is_stmt 0
	bx	lr
.LVL219:
.L158:
	.loc 1 1579 5 is_stmt 1
	.loc 1 1579 20 is_stmt 0
	movs	r0, #1
.LVL220:
	str	r0, [r1, #56]
	.loc 1 1581 5 is_stmt 1
	.loc 1 1581 12 is_stmt 0
	bx	lr
.LVL221:
.L156:
	.loc 1 1562 14
	mov	r0, #-2147483648
.LVL222:
.L151:
	.loc 1 1596 1
	bx	lr
.L160:
	.align	2
.L159:
	.word	SystemCoreClock
	.word	274877907
	.cfi_endproc
.LFE382:
	.size	SDMMC_GetCmdResp7, .-SDMMC_GetCmdResp7
	.section	.text.SDMMC_CmdOperCond,"ax",%progbits
	.align	1
	.global	SDMMC_CmdOperCond
	.syntax unified
	.thumb
	.thumb_func
	.type	SDMMC_CmdOperCond, %function
SDMMC_CmdOperCond:
.LFB362:
	.loc 1 839 1 is_stmt 1
	.cfi_startproc
	@ args = 0, pretend = 0, frame = 24
	@ frame_needed = 0, uses_anonymous_args = 0
.LVL223:
	push	{r4, lr}
	.cfi_def_cfa_offset 8
	.cfi_offset 4, -8
	.cfi_offset 14, -4
	sub	sp, sp, #24
	.cfi_def_cfa_offset 32
	mov	r4, r0
	.loc 1 840 3
	.loc 1 841 3
	.loc 1 848 3
	.loc 1 848 26 is_stmt 0
	mov	r3, #426
	str	r3, [sp, #4]
	.loc 1 849 3 is_stmt 1
	.loc 1 849 26 is_stmt 0
	movs	r3, #8
	str	r3, [sp, #8]
	.loc 1 850 3 is_stmt 1
	.loc 1 850 26 is_stmt 0
	mov	r3, #256
	str	r3, [sp, #12]
	.loc 1 851 3 is_stmt 1
	.loc 1 851 34 is_stmt 0
	movs	r3, #0
	str	r3, [sp, #16]
	.loc 1 852 3 is_stmt 1
	.loc 1 852 22 is_stmt 0
	mov	r3, #4096
	str	r3, [sp, #20]
	.loc 1 853 3 is_stmt 1
	.loc 1 853 9 is_stmt 0
	add	r1, sp, #4
	bl	SDMMC_SendCommand
.LVL224:
	.loc 1 856 3 is_stmt 1
	.loc 1 856 16 is_stmt 0
	mov	r0, r4
	bl	SDMMC_GetCmdResp7
.LVL225:
	.loc 1 858 3 is_stmt 1
	.loc 1 859 1 is_stmt 0
	add	sp, sp, #24
	.cfi_def_cfa_offset 8
	@ sp needed
	pop	{r4, pc}
	.cfi_endproc
.LFE362:
	.size	SDMMC_CmdOperCond, .-SDMMC_CmdOperCond
	.text
.Letext0:
	.file 2 "m:\\noinstall\\arm-gnu-toolchain-12.2.rel1-mingw-w64-i686-arm-none-eabi\\arm-none-eabi\\include\\machine\\_default_types.h"
	.file 3 "m:\\noinstall\\arm-gnu-toolchain-12.2.rel1-mingw-w64-i686-arm-none-eabi\\arm-none-eabi\\include\\sys\\_stdint.h"
	.file 4 "D:/RTOS/Board/YD-STM32H7xxVx_ClassicV19/cmake-build-debug/_deps/stm32h7xx_cmsis_device-src/Include/stm32h743xx.h"
	.file 5 "D:/RTOS/Board/YD-STM32H7xxVx_ClassicV19/cmake-build-debug/_deps/stm32h7xx_hal_driver-src/Inc/stm32h7xx_hal_def.h"
	.file 6 "D:/RTOS/Board/YD-STM32H7xxVx_ClassicV19/cmake-build-debug/_deps/stm32h7xx_hal_driver-src/Inc/stm32h7xx_ll_sdmmc.h"
	.file 7 "D:/RTOS/Board/YD-STM32H7xxVx_ClassicV19/cmake-build-debug/_deps/stm32h7xx_cmsis_device-src/Include/system_stm32h7xx.h"